TMS320C55x Assembler PC v4.4.1 Sat Sep 29 23:08:40 2018

Tools Copyright (c) 1996-2012 Texas Instruments Incorporated
csl_usb_dma_example.asm                                              PAGE    1

    9200              ; Temporary Registers Used: None
       1              ;*******************************************************************************
       2              ;* TMS320C55x C/C++ Codegen                                          PC v4.4.1 *
       3              ;* Date/Time created: Sat Sep 29 23:08:37 2018                                 *
       4              ;*******************************************************************************
       5                      .compiler_opts --hll_source=on --mem_model:code=flat --mem_model:data=large --object_format=coff --si
       6                      .mmregs
       7                      .cpl_on
       8                      .arms_on
       9                      .c54cm_off
      10                      .asg AR6, FP
      11                      .asg XAR6, XFP
      12                      .asg DPH, MDP
      13                      .model call=c55_std
      14                      .model mem=large
      15                      .noremark 5002  ; code respects overwrite rules
      16              ;*******************************************************************************
      17              ;* GLOBAL FILE PARAMETERS                                                      *
      18              ;*                                                                             *
      19              ;*   Architecture       : TMS320C55x                                           *
      20              ;*   Optimizing for     : Speed                                                *
      21              ;*   Memory             : Large Model (23-Bit Data Pointers)                   *
      22              ;*   Calls              : Normal Library ASM calls                             *
      23              ;*   Debug Info         : Standard TI Debug Information                        *
      24              ;*******************************************************************************
      25              
      26              $C$DW$CU        .dwtag  DW_TAG_compile_unit
      27                      .dwattr $C$DW$CU, DW_AT_name("../c5535_bsl_revc/ezdsp5535_v1/c55xx_csl/ccs_v4.0_examples/usb/CSL_USB_
      28                      .dwattr $C$DW$CU, DW_AT_producer("TMS320C55x C/C++ Codegen PC v4.4.1 Copyright (c) 1996-2012 Texas In
      29                      .dwattr $C$DW$CU, DW_AT_TI_version(0x01)
      30                      .dwattr $C$DW$CU, DW_AT_comp_dir("F:\eZdsp_DBG\tmp1\c55x-sim2\foo\Debug")
      31              ;******************************************************************************
      32              ;* CINIT RECORDS                                                              *
      33              ;******************************************************************************
      34 000000               .sect   ".cinit"
      35                      .align  1
      36 000000 0009          .field          $C$IR_1,16
      37 000001 0000-         .field          _deviceDesc+0,24
         000002 0000 
      38 000002 0000          .field          0,8
      39 000003 0112          .field  274,16                  ; _deviceDesc[0] @ 0
      40 000004 0200          .field  512,16                  ; _deviceDesc[1] @ 16
      41 000005 0000          .field  0,16                    ; _deviceDesc[2] @ 32
      42 000006 4000          .field  16384,16                        ; _deviceDesc[3] @ 48
      43 000007 0451          .field  1105,16                 ; _deviceDesc[4] @ 64
      44 000008 9010          .field  36880,16                        ; _deviceDesc[5] @ 80
      45 000009 0100          .field  256,16                  ; _deviceDesc[6] @ 96
      46 00000a 0201          .field  513,16                  ; _deviceDesc[7] @ 112
      47 00000b 0103          .field  259,16                  ; _deviceDesc[8] @ 128
      48              $C$IR_1:        .set    9
      49              
      50 00000c               .sect   ".cinit"
      51                      .align  1
      52 00000c 0025          .field          $C$IR_2,16
      53 00000d 0000-         .field          _cfgDesc+0,24
TMS320C55x Assembler PC v4.4.1 Sat Sep 29 23:08:40 2018

Tools Copyright (c) 1996-2012 Texas Instruments Incorporated
csl_usb_dma_example.asm                                              PAGE    2

         00000e 0900 
      54 00000e 0900          .field          0,8
      55 00000f 0209          .field  521,16                  ; _cfgDesc[0] @ 0
      56 000010 003C          .field  60,16                   ; _cfgDesc[1] @ 16
      57 000011 0101          .field  257,16                  ; _cfgDesc[2] @ 32
      58 000012 C001          .field  49153,16                        ; _cfgDesc[3] @ 48
      59 000013 0928          .field  2344,16                 ; _cfgDesc[4] @ 64
      60 000014 0004          .field  4,16                    ; _cfgDesc[5] @ 80
      61 000015 0600          .field  1536,16                 ; _cfgDesc[6] @ 96
      62 000016 0000          .field  0,16                    ; _cfgDesc[7] @ 112
      63 000017 0000          .field  0,16                    ; _cfgDesc[8] @ 128
      64 000018 0507          .field  1287,16                 ; _cfgDesc[9] @ 144
      65 000019 0281          .field  641,16                  ; _cfgDesc[10] @ 160
      66 00001a 0040          .field  64,16                   ; _cfgDesc[11] @ 176
      67 00001b 0700          .field  1792,16                 ; _cfgDesc[12] @ 192
      68 00001c 0105          .field  261,16                  ; _cfgDesc[13] @ 208
      69 00001d 4002          .field  16386,16                        ; _cfgDesc[14] @ 224
      70 00001e 0000          .field  0,16                    ; _cfgDesc[15] @ 240
      71 00001f 0507          .field  1287,16                 ; _cfgDesc[16] @ 256
      72 000020 0282          .field  642,16                  ; _cfgDesc[17] @ 272
      73 000021 0040          .field  64,16                   ; _cfgDesc[18] @ 288
      74 000022 0700          .field  1792,16                 ; _cfgDesc[19] @ 304
      75 000023 0205          .field  517,16                  ; _cfgDesc[20] @ 320
      76 000024 4002          .field  16386,16                        ; _cfgDesc[21] @ 336
      77 000025 0000          .field  0,16                    ; _cfgDesc[22] @ 352
      78 000026 0507          .field  1287,16                 ; _cfgDesc[23] @ 368
      79 000027 0283          .field  643,16                  ; _cfgDesc[24] @ 384
      80 000028 0040          .field  64,16                   ; _cfgDesc[25] @ 400
      81 000029 0700          .field  1792,16                 ; _cfgDesc[26] @ 416
      82 00002a 0305          .field  773,16                  ; _cfgDesc[27] @ 432
      83 00002b 4002          .field  16386,16                        ; _cfgDesc[28] @ 448
      84 00002c 0000          .field  0,16                    ; _cfgDesc[29] @ 464
      85 00002d 0507          .field  1287,16                 ; _cfgDesc[30] @ 480
      86 00002e 0284          .field  644,16                  ; _cfgDesc[31] @ 496
      87 00002f 0040          .field  64,16                   ; _cfgDesc[32] @ 512
      88 000030 0700          .field  1792,16                 ; _cfgDesc[33] @ 528
      89 000031 0405          .field  1029,16                 ; _cfgDesc[34] @ 544
      90 000032 4002          .field  16386,16                        ; _cfgDesc[35] @ 560
      91 000033 0000          .field  0,16                    ; _cfgDesc[36] @ 576
      92              $C$IR_2:        .set    37
      93              
      94 000034               .sect   ".cinit"
      95                      .align  1
      96 000034 0002          .field          $C$IR_3,16
      97 000035 0000-         .field          _strDesc+0,24
         000036 3100 
      98 000036 3100          .field          0,8
      99 000037 0304          .field  772,16                  ; _strDesc[0][0] @ 0
     100 000038 0409          .field  1033,16                 ; _strDesc[0][1] @ 16
     101              $C$IR_3:        .set    2
     102              
     103 000039               .sect   ".cinit"
     104                      .align  1
     105 000039 002E          .field          $C$IR_4,16
     106 00003a 0000-         .field          _strDesc+20,24
TMS320C55x Assembler PC v4.4.1 Sat Sep 29 23:08:40 2018

Tools Copyright (c) 1996-2012 Texas Instruments Incorporated
csl_usb_dma_example.asm                                              PAGE    3

         00003b 4500 
     107 00003b 4500          .field          0,8
     108 00003c 0324          .field  804,16                  ; _strDesc[1][0] @ 320
     109 00003d 0045          .field  69,16                   ; _strDesc[1][1] @ 336
     110 00003e 0054          .field  84,16                   ; _strDesc[1][2] @ 352
     111 00003f 0041          .field  65,16                   ; _strDesc[1][3] @ 368
     112 000040 0058          .field  88,16                   ; _strDesc[1][4] @ 384
     113 000041 0020          .field  32,16                   ; _strDesc[1][5] @ 400
     114 000042 0053          .field  83,16                   ; _strDesc[1][6] @ 416
     115 000043 004E          .field  78,16                   ; _strDesc[1][7] @ 432
     116 000044 0049          .field  73,16                   ; _strDesc[1][8] @ 448
     117 000045 0054          .field  84,16                   ; _strDesc[1][9] @ 464
     118 000046 0053          .field  83,16                   ; _strDesc[1][10] @ 480
     119 000047 0055          .field  85,16                   ; _strDesc[1][11] @ 496
     120 000048 0052          .field  82,16                   ; _strDesc[1][12] @ 512
     121 000049 0045          .field  69,16                   ; _strDesc[1][13] @ 528
     122 00004a 004D          .field  77,16                   ; _strDesc[1][14] @ 544
     123 00004b 0054          .field  84,16                   ; _strDesc[1][15] @ 560
     124 00004c 004E          .field  78,16                   ; _strDesc[1][16] @ 576
     125 00004d 0053          .field  83,16                   ; _strDesc[1][17] @ 592
     126 00004e               .space  32
     127 000050 030C          .field  780,16                  ; _strDesc[2][0] @ 640
     128 000051 0043          .field  67,16                   ; _strDesc[2][1] @ 656
     129 000052 0035          .field  53,16                   ; _strDesc[2][2] @ 672
     130 000053 0035          .field  53,16                   ; _strDesc[2][3] @ 688
     131 000054 0031          .field  49,16                   ; _strDesc[2][4] @ 704
     132 000055 0035          .field  53,16                   ; _strDesc[2][5] @ 720
     133 000056               .space  224
     134 000064 030C          .field  780,16                  ; _strDesc[3][0] @ 960
     135 000065 0030          .field  48,16                   ; _strDesc[3][1] @ 976
     136 000066 0030          .field  48,16                   ; _strDesc[3][2] @ 992
     137 000067 0030          .field  48,16                   ; _strDesc[3][3] @ 1008
     138 000068 0030          .field  48,16                   ; _strDesc[3][4] @ 1024
     139 000069 0031          .field  49,16                   ; _strDesc[3][5] @ 1040
     140              $C$IR_4:        .set    46
     141              
     142 00006a               .sect   ".cinit"
     143                      .align  1
     144 00006a 0001          .field          1,16
     145 00006b 0000-         .field          _queuePend0+0,24
         00006c 8100 
     146 00006c 8100          .field          0,8
     147 00006d 0000          .field  0,16                    ; _queuePend0 @ 0
     148              
     149 00006e               .sect   ".cinit"
     150                      .align  1
     151 00006e 0001          .field          1,16
     152 00006f 0000-         .field          _queuePend1+0,24
         000070 8200 
     153 000070 8200          .field          0,8
     154 000071 0000          .field  0,16                    ; _queuePend1 @ 0
     155              
     156 000072               .sect   ".cinit"
     157                      .align  1
     158 000072 0001          .field          1,16
TMS320C55x Assembler PC v4.4.1 Sat Sep 29 23:08:40 2018

Tools Copyright (c) 1996-2012 Texas Instruments Incorporated
csl_usb_dma_example.asm                                              PAGE    4

     159 000073 0000-         .field          _stopRunning+0,24
         000074 8E00 
     160 000074 8E00          .field          0,8
     161 000075 0000          .field  0,16                    ; _stopRunning @ 0
     162              
     163 000076               .sect   ".cinit"
     164                      .align  1
     165 000076 0001          .field          1,16
     166 000077 0000-         .field          _usbDevDisconnect+0,24
         000078 8F00 
     167 000078 8F00          .field          0,8
     168 000079 0001          .field  1,16                    ; _usbDevDisconnect @ 0
     169              
     170 00007a               .sect   ".cinit"
     171                      .align  1
     172 00007a 0002          .field          2,16
     173 00007b 0001-         .field          _pContext+0,24
         00007c 0C00 
     174 00007c 0C00          .field          0,8
     175 00007d 0000!         .field  _gUsbContext,32         ; _pContext @ 0
         00007e 0000 
     176              
     177 00007f               .sect   ".cinit"
     178                      .align  1
     179 00007f 0001          .field          1,16
     180 000080 0001-         .field          _PaSs_StAtE+0,24
         000081 0F00 
     181 000081 0F00          .field          0,8
     182 000082 0001          .field  1,16                    ; _PaSs_StAtE @ 0
     183              
     184 000083               .sect   ".cinit"
     185                      .align  1
     186 000083 0001          .field          1,16
     187 000084 0001-         .field          _PaSs+0,24
         000085 1000 
     188 000085 1000          .field          0,8
     189 000086 0000          .field  0,16                    ; _PaSs @ 0
     190              
     191              
     192              $C$DW$1 .dwtag  DW_TAG_subprogram, DW_AT_name("memcpy")
     193                      .dwattr $C$DW$1, DW_AT_TI_symbol_name("_memcpy")
     194                      .dwattr $C$DW$1, DW_AT_type(*$C$DW$T$3)
     195                      .dwattr $C$DW$1, DW_AT_declaration
     196                      .dwattr $C$DW$1, DW_AT_external
     197              $C$DW$2 .dwtag  DW_TAG_formal_parameter
     198                      .dwattr $C$DW$2, DW_AT_type(*$C$DW$T$3)
     199              $C$DW$3 .dwtag  DW_TAG_formal_parameter
     200                      .dwattr $C$DW$3, DW_AT_type(*$C$DW$T$174)
     201              $C$DW$4 .dwtag  DW_TAG_formal_parameter
     202                      .dwattr $C$DW$4, DW_AT_type(*$C$DW$T$11)
     203                      .dwendtag $C$DW$1
     204              
     205              
     206              $C$DW$5 .dwtag  DW_TAG_subprogram, DW_AT_name("printf")
     207                      .dwattr $C$DW$5, DW_AT_TI_symbol_name("_printf")
TMS320C55x Assembler PC v4.4.1 Sat Sep 29 23:08:40 2018

Tools Copyright (c) 1996-2012 Texas Instruments Incorporated
csl_usb_dma_example.asm                                              PAGE    5

     208                      .dwattr $C$DW$5, DW_AT_type(*$C$DW$T$10)
     209                      .dwattr $C$DW$5, DW_AT_declaration
     210                      .dwattr $C$DW$5, DW_AT_external
     211              $C$DW$6 .dwtag  DW_TAG_formal_parameter
     212                      .dwattr $C$DW$6, DW_AT_type(*$C$DW$T$239)
     213              $C$DW$7 .dwtag  DW_TAG_unspecified_parameters
     214                      .dwendtag $C$DW$5
     215              
     216              
     217              $C$DW$8 .dwtag  DW_TAG_subprogram, DW_AT_name("USB_init")
     218                      .dwattr $C$DW$8, DW_AT_TI_symbol_name("_USB_init")
     219                      .dwattr $C$DW$8, DW_AT_type(*$C$DW$T$80)
     220                      .dwattr $C$DW$8, DW_AT_declaration
     221                      .dwattr $C$DW$8, DW_AT_external
     222              $C$DW$9 .dwtag  DW_TAG_formal_parameter
     223                      .dwattr $C$DW$9, DW_AT_type(*$C$DW$T$161)
     224                      .dwendtag $C$DW$8
     225              
     226              
     227              $C$DW$10        .dwtag  DW_TAG_subprogram, DW_AT_name("USB_resetDev")
     228                      .dwattr $C$DW$10, DW_AT_TI_symbol_name("_USB_resetDev")
     229                      .dwattr $C$DW$10, DW_AT_type(*$C$DW$T$80)
     230                      .dwattr $C$DW$10, DW_AT_declaration
     231                      .dwattr $C$DW$10, DW_AT_external
     232              $C$DW$11        .dwtag  DW_TAG_formal_parameter
     233                      .dwattr $C$DW$11, DW_AT_type(*$C$DW$T$73)
     234                      .dwendtag $C$DW$10
     235              
     236              
     237              $C$DW$12        .dwtag  DW_TAG_subprogram, DW_AT_name("USB_initEndptObj")
     238                      .dwattr $C$DW$12, DW_AT_TI_symbol_name("_USB_initEndptObj")
     239                      .dwattr $C$DW$12, DW_AT_type(*$C$DW$T$80)
     240                      .dwattr $C$DW$12, DW_AT_declaration
     241                      .dwattr $C$DW$12, DW_AT_external
     242              $C$DW$13        .dwtag  DW_TAG_formal_parameter
     243                      .dwattr $C$DW$13, DW_AT_type(*$C$DW$T$73)
     244              $C$DW$14        .dwtag  DW_TAG_formal_parameter
     245                      .dwattr $C$DW$14, DW_AT_type(*$C$DW$T$106)
     246              $C$DW$15        .dwtag  DW_TAG_formal_parameter
     247                      .dwattr $C$DW$15, DW_AT_type(*$C$DW$T$112)
     248              $C$DW$16        .dwtag  DW_TAG_formal_parameter
     249                      .dwattr $C$DW$16, DW_AT_type(*$C$DW$T$114)
     250              $C$DW$17        .dwtag  DW_TAG_formal_parameter
     251                      .dwattr $C$DW$17, DW_AT_type(*$C$DW$T$19)
     252              $C$DW$18        .dwtag  DW_TAG_formal_parameter
     253                      .dwattr $C$DW$18, DW_AT_type(*$C$DW$T$19)
     254              $C$DW$19        .dwtag  DW_TAG_formal_parameter
     255                      .dwattr $C$DW$19, DW_AT_type(*$C$DW$T$117)
     256                      .dwendtag $C$DW$12
     257              
     258              
     259              $C$DW$20        .dwtag  DW_TAG_subprogram, DW_AT_name("USB_getSetupPacket")
     260                      .dwattr $C$DW$20, DW_AT_TI_symbol_name("_USB_getSetupPacket")
     261                      .dwattr $C$DW$20, DW_AT_type(*$C$DW$T$80)
     262                      .dwattr $C$DW$20, DW_AT_declaration
TMS320C55x Assembler PC v4.4.1 Sat Sep 29 23:08:40 2018

Tools Copyright (c) 1996-2012 Texas Instruments Incorporated
csl_usb_dma_example.asm                                              PAGE    6

     263                      .dwattr $C$DW$20, DW_AT_external
     264              $C$DW$21        .dwtag  DW_TAG_formal_parameter
     265                      .dwattr $C$DW$21, DW_AT_type(*$C$DW$T$73)
     266              $C$DW$22        .dwtag  DW_TAG_formal_parameter
     267                      .dwattr $C$DW$22, DW_AT_type(*$C$DW$T$171)
     268              $C$DW$23        .dwtag  DW_TAG_formal_parameter
     269                      .dwattr $C$DW$23, DW_AT_type(*$C$DW$T$86)
     270                      .dwendtag $C$DW$20
     271              
     272              
     273              $C$DW$24        .dwtag  DW_TAG_subprogram, DW_AT_name("USB_postTransaction")
     274                      .dwattr $C$DW$24, DW_AT_TI_symbol_name("_USB_postTransaction")
     275                      .dwattr $C$DW$24, DW_AT_type(*$C$DW$T$80)
     276                      .dwattr $C$DW$24, DW_AT_declaration
     277                      .dwattr $C$DW$24, DW_AT_external
     278              $C$DW$25        .dwtag  DW_TAG_formal_parameter
     279                      .dwattr $C$DW$25, DW_AT_type(*$C$DW$T$106)
     280              $C$DW$26        .dwtag  DW_TAG_formal_parameter
     281                      .dwattr $C$DW$26, DW_AT_type(*$C$DW$T$19)
     282              $C$DW$27        .dwtag  DW_TAG_formal_parameter
     283                      .dwattr $C$DW$27, DW_AT_type(*$C$DW$T$3)
     284              $C$DW$28        .dwtag  DW_TAG_formal_parameter
     285                      .dwattr $C$DW$28, DW_AT_type(*$C$DW$T$128)
     286                      .dwendtag $C$DW$24
     287              
     288              
     289              $C$DW$29        .dwtag  DW_TAG_subprogram, DW_AT_name("USB_stallEndpt")
     290                      .dwattr $C$DW$29, DW_AT_TI_symbol_name("_USB_stallEndpt")
     291                      .dwattr $C$DW$29, DW_AT_type(*$C$DW$T$80)
     292                      .dwattr $C$DW$29, DW_AT_declaration
     293                      .dwattr $C$DW$29, DW_AT_external
     294              $C$DW$30        .dwtag  DW_TAG_formal_parameter
     295                      .dwattr $C$DW$30, DW_AT_type(*$C$DW$T$106)
     296                      .dwendtag $C$DW$29
     297              
     298              
     299              $C$DW$31        .dwtag  DW_TAG_subprogram, DW_AT_name("USB_clearEndptStall")
     300                      .dwattr $C$DW$31, DW_AT_TI_symbol_name("_USB_clearEndptStall")
     301                      .dwattr $C$DW$31, DW_AT_type(*$C$DW$T$80)
     302                      .dwattr $C$DW$31, DW_AT_declaration
     303                      .dwattr $C$DW$31, DW_AT_external
     304              $C$DW$32        .dwtag  DW_TAG_formal_parameter
     305                      .dwattr $C$DW$32, DW_AT_type(*$C$DW$T$106)
     306                      .dwendtag $C$DW$31
     307              
     308              
     309              $C$DW$33        .dwtag  DW_TAG_subprogram, DW_AT_name("USB_getEndptStall")
     310                      .dwattr $C$DW$33, DW_AT_TI_symbol_name("_USB_getEndptStall")
     311                      .dwattr $C$DW$33, DW_AT_type(*$C$DW$T$92)
     312                      .dwattr $C$DW$33, DW_AT_declaration
     313                      .dwattr $C$DW$33, DW_AT_external
     314              $C$DW$34        .dwtag  DW_TAG_formal_parameter
     315                      .dwattr $C$DW$34, DW_AT_type(*$C$DW$T$106)
     316              $C$DW$35        .dwtag  DW_TAG_formal_parameter
     317                      .dwattr $C$DW$35, DW_AT_type(*$C$DW$T$130)
TMS320C55x Assembler PC v4.4.1 Sat Sep 29 23:08:40 2018

Tools Copyright (c) 1996-2012 Texas Instruments Incorporated
csl_usb_dma_example.asm                                              PAGE    7

     318                      .dwendtag $C$DW$33
     319              
     320              
     321              $C$DW$36        .dwtag  DW_TAG_subprogram, DW_AT_name("USB_epNumToHandle")
     322                      .dwattr $C$DW$36, DW_AT_TI_symbol_name("_USB_epNumToHandle")
     323                      .dwattr $C$DW$36, DW_AT_type(*$C$DW$T$106)
     324                      .dwattr $C$DW$36, DW_AT_declaration
     325                      .dwattr $C$DW$36, DW_AT_external
     326              $C$DW$37        .dwtag  DW_TAG_formal_parameter
     327                      .dwattr $C$DW$37, DW_AT_type(*$C$DW$T$73)
     328              $C$DW$38        .dwtag  DW_TAG_formal_parameter
     329                      .dwattr $C$DW$38, DW_AT_type(*$C$DW$T$19)
     330                      .dwendtag $C$DW$36
     331              
     332              
     333              $C$DW$39        .dwtag  DW_TAG_subprogram, DW_AT_name("USB_connectDev")
     334                      .dwattr $C$DW$39, DW_AT_TI_symbol_name("_USB_connectDev")
     335                      .dwattr $C$DW$39, DW_AT_type(*$C$DW$T$80)
     336                      .dwattr $C$DW$39, DW_AT_declaration
     337                      .dwattr $C$DW$39, DW_AT_external
     338              $C$DW$40        .dwtag  DW_TAG_formal_parameter
     339                      .dwattr $C$DW$40, DW_AT_type(*$C$DW$T$73)
     340                      .dwendtag $C$DW$39
     341              
     342              
     343              $C$DW$41        .dwtag  DW_TAG_subprogram, DW_AT_name("USB_disconnectDev")
     344                      .dwattr $C$DW$41, DW_AT_TI_symbol_name("_USB_disconnectDev")
     345                      .dwattr $C$DW$41, DW_AT_type(*$C$DW$T$80)
     346                      .dwattr $C$DW$41, DW_AT_declaration
     347                      .dwattr $C$DW$41, DW_AT_external
     348              $C$DW$42        .dwtag  DW_TAG_formal_parameter
     349                      .dwattr $C$DW$42, DW_AT_type(*$C$DW$T$73)
     350                      .dwendtag $C$DW$41
     351              
     352              
     353              $C$DW$43        .dwtag  DW_TAG_subprogram, DW_AT_name("USB_setRemoteWakeup")
     354                      .dwattr $C$DW$43, DW_AT_TI_symbol_name("_USB_setRemoteWakeup")
     355                      .dwattr $C$DW$43, DW_AT_type(*$C$DW$T$80)
     356                      .dwattr $C$DW$43, DW_AT_declaration
     357                      .dwattr $C$DW$43, DW_AT_external
     358              $C$DW$44        .dwtag  DW_TAG_formal_parameter
     359                      .dwattr $C$DW$44, DW_AT_type(*$C$DW$T$73)
     360              $C$DW$45        .dwtag  DW_TAG_formal_parameter
     361                      .dwattr $C$DW$45, DW_AT_type(*$C$DW$T$92)
     362                      .dwendtag $C$DW$43
     363              
     364              
     365              $C$DW$46        .dwtag  DW_TAG_subprogram, DW_AT_name("USB_getRemoteWakeupStat")
     366                      .dwattr $C$DW$46, DW_AT_TI_symbol_name("_USB_getRemoteWakeupStat")
     367                      .dwattr $C$DW$46, DW_AT_type(*$C$DW$T$92)
     368                      .dwattr $C$DW$46, DW_AT_declaration
     369                      .dwattr $C$DW$46, DW_AT_external
     370              $C$DW$47        .dwtag  DW_TAG_formal_parameter
     371                      .dwattr $C$DW$47, DW_AT_type(*$C$DW$T$73)
     372                      .dwendtag $C$DW$46
TMS320C55x Assembler PC v4.4.1 Sat Sep 29 23:08:40 2018

Tools Copyright (c) 1996-2012 Texas Instruments Incorporated
csl_usb_dma_example.asm                                              PAGE    8

     373              
     374              
     375              $C$DW$48        .dwtag  DW_TAG_subprogram, DW_AT_name("USB_issueRemoteWakeup")
     376                      .dwattr $C$DW$48, DW_AT_TI_symbol_name("_USB_issueRemoteWakeup")
     377                      .dwattr $C$DW$48, DW_AT_type(*$C$DW$T$80)
     378                      .dwattr $C$DW$48, DW_AT_declaration
     379                      .dwattr $C$DW$48, DW_AT_external
     380              $C$DW$49        .dwtag  DW_TAG_formal_parameter
     381                      .dwattr $C$DW$49, DW_AT_type(*$C$DW$T$73)
     382              $C$DW$50        .dwtag  DW_TAG_formal_parameter
     383                      .dwattr $C$DW$50, DW_AT_type(*$C$DW$T$86)
     384                      .dwendtag $C$DW$48
     385              
     386              
     387              $C$DW$51        .dwtag  DW_TAG_subprogram, DW_AT_name("USB_setDevAddr")
     388                      .dwattr $C$DW$51, DW_AT_TI_symbol_name("_USB_setDevAddr")
     389                      .dwattr $C$DW$51, DW_AT_type(*$C$DW$T$80)
     390                      .dwattr $C$DW$51, DW_AT_declaration
     391                      .dwattr $C$DW$51, DW_AT_external
     392              $C$DW$52        .dwtag  DW_TAG_formal_parameter
     393                      .dwattr $C$DW$52, DW_AT_type(*$C$DW$T$73)
     394              $C$DW$53        .dwtag  DW_TAG_formal_parameter
     395                      .dwattr $C$DW$53, DW_AT_type(*$C$DW$T$19)
     396                      .dwendtag $C$DW$51
     397              
     398              
     399              $C$DW$54        .dwtag  DW_TAG_subprogram, DW_AT_name("USB_suspendDevice")
     400                      .dwattr $C$DW$54, DW_AT_TI_symbol_name("_USB_suspendDevice")
     401                      .dwattr $C$DW$54, DW_AT_type(*$C$DW$T$80)
     402                      .dwattr $C$DW$54, DW_AT_declaration
     403                      .dwattr $C$DW$54, DW_AT_external
     404              $C$DW$55        .dwtag  DW_TAG_formal_parameter
     405                      .dwattr $C$DW$55, DW_AT_type(*$C$DW$T$73)
     406                      .dwendtag $C$DW$54
     407              
     408              
     409              $C$DW$56        .dwtag  DW_TAG_subprogram, DW_AT_name("USB_setParams")
     410                      .dwattr $C$DW$56, DW_AT_TI_symbol_name("_USB_setParams")
     411                      .dwattr $C$DW$56, DW_AT_type(*$C$DW$T$80)
     412                      .dwattr $C$DW$56, DW_AT_declaration
     413                      .dwattr $C$DW$56, DW_AT_external
     414              $C$DW$57        .dwtag  DW_TAG_formal_parameter
     415                      .dwattr $C$DW$57, DW_AT_type(*$C$DW$T$73)
     416              $C$DW$58        .dwtag  DW_TAG_formal_parameter
     417                      .dwattr $C$DW$58, DW_AT_type(*$C$DW$T$167)
     418              $C$DW$59        .dwtag  DW_TAG_formal_parameter
     419                      .dwattr $C$DW$59, DW_AT_type(*$C$DW$T$19)
     420                      .dwendtag $C$DW$56
     421              
     422              
     423              $C$DW$60        .dwtag  DW_TAG_subprogram, DW_AT_name("IRQ_plug")
     424                      .dwattr $C$DW$60, DW_AT_TI_symbol_name("_IRQ_plug")
     425                      .dwattr $C$DW$60, DW_AT_type(*$C$DW$T$10)
     426                      .dwattr $C$DW$60, DW_AT_declaration
     427                      .dwattr $C$DW$60, DW_AT_external
TMS320C55x Assembler PC v4.4.1 Sat Sep 29 23:08:40 2018

Tools Copyright (c) 1996-2012 Texas Instruments Incorporated
csl_usb_dma_example.asm                                              PAGE    9

     428              $C$DW$61        .dwtag  DW_TAG_formal_parameter
     429                      .dwattr $C$DW$61, DW_AT_type(*$C$DW$T$19)
     430              $C$DW$62        .dwtag  DW_TAG_formal_parameter
     431                      .dwattr $C$DW$62, DW_AT_type(*$C$DW$T$69)
     432                      .dwendtag $C$DW$60
     433              
     434              
     435              $C$DW$63        .dwtag  DW_TAG_subprogram, DW_AT_name("IRQ_enable")
     436                      .dwattr $C$DW$63, DW_AT_TI_symbol_name("_IRQ_enable")
     437                      .dwattr $C$DW$63, DW_AT_type(*$C$DW$T$10)
     438                      .dwattr $C$DW$63, DW_AT_declaration
     439                      .dwattr $C$DW$63, DW_AT_external
     440              $C$DW$64        .dwtag  DW_TAG_formal_parameter
     441                      .dwattr $C$DW$64, DW_AT_type(*$C$DW$T$19)
     442                      .dwendtag $C$DW$63
     443              
     444              
     445              $C$DW$65        .dwtag  DW_TAG_subprogram, DW_AT_name("IRQ_setVecs")
     446                      .dwattr $C$DW$65, DW_AT_TI_symbol_name("_IRQ_setVecs")
     447                      .dwattr $C$DW$65, DW_AT_type(*$C$DW$T$80)
     448                      .dwattr $C$DW$65, DW_AT_declaration
     449                      .dwattr $C$DW$65, DW_AT_external
     450              $C$DW$66        .dwtag  DW_TAG_formal_parameter
     451                      .dwattr $C$DW$66, DW_AT_type(*$C$DW$T$70)
     452                      .dwendtag $C$DW$65
     453              
     454              
     455              $C$DW$67        .dwtag  DW_TAG_subprogram, DW_AT_name("IRQ_globalDisable")
     456                      .dwattr $C$DW$67, DW_AT_TI_symbol_name("_IRQ_globalDisable")
     457                      .dwattr $C$DW$67, DW_AT_type(*$C$DW$T$86)
     458                      .dwattr $C$DW$67, DW_AT_declaration
     459                      .dwattr $C$DW$67, DW_AT_external
     460              
     461              $C$DW$68        .dwtag  DW_TAG_subprogram, DW_AT_name("IRQ_globalEnable")
     462                      .dwattr $C$DW$68, DW_AT_TI_symbol_name("_IRQ_globalEnable")
     463                      .dwattr $C$DW$68, DW_AT_type(*$C$DW$T$86)
     464                      .dwattr $C$DW$68, DW_AT_declaration
     465                      .dwattr $C$DW$68, DW_AT_external
     466              
     467              $C$DW$69        .dwtag  DW_TAG_subprogram, DW_AT_name("IRQ_globalRestore")
     468                      .dwattr $C$DW$69, DW_AT_TI_symbol_name("_IRQ_globalRestore")
     469                      .dwattr $C$DW$69, DW_AT_declaration
     470                      .dwattr $C$DW$69, DW_AT_external
     471              $C$DW$70        .dwtag  DW_TAG_formal_parameter
     472                      .dwattr $C$DW$70, DW_AT_type(*$C$DW$T$86)
     473                      .dwendtag $C$DW$69
     474              
     475              
     476              $C$DW$71        .dwtag  DW_TAG_subprogram, DW_AT_name("VECSTART")
     477                      .dwattr $C$DW$71, DW_AT_TI_symbol_name("_VECSTART")
     478                      .dwattr $C$DW$71, DW_AT_declaration
     479                      .dwattr $C$DW$71, DW_AT_external
     480              $C$DW$72        .dwtag  DW_TAG_variable, DW_AT_name("usbRegisters")
     481                      .dwattr $C$DW$72, DW_AT_TI_symbol_name("_usbRegisters")
     482                      .dwattr $C$DW$72, DW_AT_type(*$C$DW$T$154)
TMS320C55x Assembler PC v4.4.1 Sat Sep 29 23:08:40 2018

Tools Copyright (c) 1996-2012 Texas Instruments Incorporated
csl_usb_dma_example.asm                                              PAGE   10

     483                      .dwattr $C$DW$72, DW_AT_declaration
     484                      .dwattr $C$DW$72, DW_AT_external
     485              $C$DW$73        .dwtag  DW_TAG_variable, DW_AT_name("sysCtrlRegs")
     486                      .dwattr $C$DW$73, DW_AT_TI_symbol_name("_sysCtrlRegs")
     487                      .dwattr $C$DW$73, DW_AT_type(*$C$DW$T$158)
     488                      .dwattr $C$DW$73, DW_AT_declaration
     489                      .dwattr $C$DW$73, DW_AT_external
     490              $C$DW$74        .dwtag  DW_TAG_variable, DW_AT_name("gUsbContext")
     491                      .dwattr $C$DW$74, DW_AT_TI_symbol_name("_gUsbContext")
     492                      .dwattr $C$DW$74, DW_AT_type(*$C$DW$T$162)
     493                      .dwattr $C$DW$74, DW_AT_declaration
     494                      .dwattr $C$DW$74, DW_AT_external
     495                      .global _linking_ram0
     496 000000       _linking_ram0:  .usect  ".buffer2",512,0,2
     497              $C$DW$75        .dwtag  DW_TAG_variable, DW_AT_name("linking_ram0")
     498                      .dwattr $C$DW$75, DW_AT_TI_symbol_name("_linking_ram0")
     499                      .dwattr $C$DW$75, DW_AT_location[DW_OP_addr _linking_ram0]
     500                      .dwattr $C$DW$75, DW_AT_type(*$C$DW$T$247)
     501                      .dwattr $C$DW$75, DW_AT_external
     502                      .global _hpdtx
     503 000000       _hpdtx: .usect  ".buffer1",16,0,2
     504              $C$DW$76        .dwtag  DW_TAG_variable, DW_AT_name("hpdtx")
     505                      .dwattr $C$DW$76, DW_AT_TI_symbol_name("_hpdtx")
     506                      .dwattr $C$DW$76, DW_AT_location[DW_OP_addr _hpdtx]
     507                      .dwattr $C$DW$76, DW_AT_type(*$C$DW$T$169)
     508                      .dwattr $C$DW$76, DW_AT_external
     509                      .global _hpdrx
     510 000010       _hpdrx: .usect  ".buffer1",16,0,2
     511              $C$DW$77        .dwtag  DW_TAG_variable, DW_AT_name("hpdrx")
     512                      .dwattr $C$DW$77, DW_AT_TI_symbol_name("_hpdrx")
     513                      .dwattr $C$DW$77, DW_AT_location[DW_OP_addr _hpdrx]
     514                      .dwattr $C$DW$77, DW_AT_type(*$C$DW$T$169)
     515                      .dwattr $C$DW$77, DW_AT_external
     516                      .global _usbDataBuffer
     517 000000       _usbDataBuffer: .usect  ".buffer3",512,0,0
     518              $C$DW$78        .dwtag  DW_TAG_variable, DW_AT_name("usbDataBuffer")
     519                      .dwattr $C$DW$78, DW_AT_TI_symbol_name("_usbDataBuffer")
     520                      .dwattr $C$DW$78, DW_AT_location[DW_OP_addr _usbDataBuffer]
     521                      .dwattr $C$DW$78, DW_AT_type(*$C$DW$T$229)
     522                      .dwattr $C$DW$78, DW_AT_external
     523                      .global _deviceDesc
     524 000000               .bss    _deviceDesc,9,0,0
     525              $C$DW$79        .dwtag  DW_TAG_variable, DW_AT_name("deviceDesc")
     526                      .dwattr $C$DW$79, DW_AT_TI_symbol_name("_deviceDesc")
     527                      .dwattr $C$DW$79, DW_AT_location[DW_OP_addr _deviceDesc]
     528                      .dwattr $C$DW$79, DW_AT_type(*$C$DW$T$230)
     529                      .dwattr $C$DW$79, DW_AT_external
     530                      .global _cfgDesc
     531 000009               .bss    _cfgDesc,40,0,0
     532              $C$DW$80        .dwtag  DW_TAG_variable, DW_AT_name("cfgDesc")
     533                      .dwattr $C$DW$80, DW_AT_TI_symbol_name("_cfgDesc")
     534                      .dwattr $C$DW$80, DW_AT_location[DW_OP_addr _cfgDesc]
     535                      .dwattr $C$DW$80, DW_AT_type(*$C$DW$T$231)
     536                      .dwattr $C$DW$80, DW_AT_external
     537                      .global _strDesc
TMS320C55x Assembler PC v4.4.1 Sat Sep 29 23:08:40 2018

Tools Copyright (c) 1996-2012 Texas Instruments Incorporated
csl_usb_dma_example.asm                                              PAGE   11

     538 000031               .bss    _strDesc,80,0,0
     539              $C$DW$81        .dwtag  DW_TAG_variable, DW_AT_name("strDesc")
     540                      .dwattr $C$DW$81, DW_AT_TI_symbol_name("_strDesc")
     541                      .dwattr $C$DW$81, DW_AT_location[DW_OP_addr _strDesc]
     542                      .dwattr $C$DW$81, DW_AT_type(*$C$DW$T$233)
     543                      .dwattr $C$DW$81, DW_AT_external
     544                      .global _queuePend0
     545 000081               .bss    _queuePend0,1,0,0
     546              $C$DW$82        .dwtag  DW_TAG_variable, DW_AT_name("queuePend0")
     547                      .dwattr $C$DW$82, DW_AT_TI_symbol_name("_queuePend0")
     548                      .dwattr $C$DW$82, DW_AT_location[DW_OP_addr _queuePend0]
     549                      .dwattr $C$DW$82, DW_AT_type(*$C$DW$T$19)
     550                      .dwattr $C$DW$82, DW_AT_external
     551                      .global _queuePend1
     552 000082               .bss    _queuePend1,1,0,0
     553              $C$DW$83        .dwtag  DW_TAG_variable, DW_AT_name("queuePend1")
     554                      .dwattr $C$DW$83, DW_AT_TI_symbol_name("_queuePend1")
     555                      .dwattr $C$DW$83, DW_AT_location[DW_OP_addr _queuePend1]
     556                      .dwattr $C$DW$83, DW_AT_type(*$C$DW$T$19)
     557                      .dwattr $C$DW$83, DW_AT_external
     558                      .global _deviceDescPtr
     559 000084               .bss    _deviceDescPtr,2,0,2
     560              $C$DW$84        .dwtag  DW_TAG_variable, DW_AT_name("deviceDescPtr")
     561                      .dwattr $C$DW$84, DW_AT_TI_symbol_name("_deviceDescPtr")
     562                      .dwattr $C$DW$84, DW_AT_location[DW_OP_addr _deviceDescPtr]
     563                      .dwattr $C$DW$84, DW_AT_type(*$C$DW$T$102)
     564                      .dwattr $C$DW$84, DW_AT_external
     565                      .global _cfgDescPtr
     566 000086               .bss    _cfgDescPtr,2,0,2
     567              $C$DW$85        .dwtag  DW_TAG_variable, DW_AT_name("cfgDescPtr")
     568                      .dwattr $C$DW$85, DW_AT_TI_symbol_name("_cfgDescPtr")
     569                      .dwattr $C$DW$85, DW_AT_location[DW_OP_addr _cfgDescPtr]
     570                      .dwattr $C$DW$85, DW_AT_type(*$C$DW$T$102)
     571                      .dwattr $C$DW$85, DW_AT_external
     572                      .global _strDescPtr
     573 000088               .bss    _strDescPtr,2,0,2
     574              $C$DW$86        .dwtag  DW_TAG_variable, DW_AT_name("strDescPtr")
     575                      .dwattr $C$DW$86, DW_AT_TI_symbol_name("_strDescPtr")
     576                      .dwattr $C$DW$86, DW_AT_location[DW_OP_addr _strDescPtr]
     577                      .dwattr $C$DW$86, DW_AT_type(*$C$DW$T$102)
     578                      .dwattr $C$DW$86, DW_AT_external
     579                      .global _saveIndex
     580 000083               .bss    _saveIndex,1,0,0
     581              $C$DW$87        .dwtag  DW_TAG_variable, DW_AT_name("saveIndex")
     582                      .dwattr $C$DW$87, DW_AT_TI_symbol_name("_saveIndex")
     583                      .dwattr $C$DW$87, DW_AT_location[DW_OP_addr _saveIndex]
     584                      .dwattr $C$DW$87, DW_AT_type(*$C$DW$T$19)
     585                      .dwattr $C$DW$87, DW_AT_external
     586                      .global _eventMask
     587 00008a               .bss    _eventMask,1,0,0
     588              $C$DW$88        .dwtag  DW_TAG_variable, DW_AT_name("eventMask")
     589                      .dwattr $C$DW$88, DW_AT_TI_symbol_name("_eventMask")
     590                      .dwattr $C$DW$88, DW_AT_location[DW_OP_addr _eventMask]
     591                      .dwattr $C$DW$88, DW_AT_type(*$C$DW$T$19)
     592                      .dwattr $C$DW$88, DW_AT_external
TMS320C55x Assembler PC v4.4.1 Sat Sep 29 23:08:40 2018

Tools Copyright (c) 1996-2012 Texas Instruments Incorporated
csl_usb_dma_example.asm                                              PAGE   12

     593                      .global _queRegVal
     594 00008b               .bss    _queRegVal,1,0,0
     595              $C$DW$89        .dwtag  DW_TAG_variable, DW_AT_name("queRegVal")
     596                      .dwattr $C$DW$89, DW_AT_TI_symbol_name("_queRegVal")
     597                      .dwattr $C$DW$89, DW_AT_location[DW_OP_addr _queRegVal]
     598                      .dwattr $C$DW$89, DW_AT_type(*$C$DW$T$19)
     599                      .dwattr $C$DW$89, DW_AT_external
     600                      .global _devAddr
     601 00008c               .bss    _devAddr,1,0,0
     602              $C$DW$90        .dwtag  DW_TAG_variable, DW_AT_name("devAddr")
     603                      .dwattr $C$DW$90, DW_AT_TI_symbol_name("_devAddr")
     604                      .dwattr $C$DW$90, DW_AT_location[DW_OP_addr _devAddr]
     605                      .dwattr $C$DW$90, DW_AT_type(*$C$DW$T$19)
     606                      .dwattr $C$DW$90, DW_AT_external
     607                      .global _endpt
     608 00008d               .bss    _endpt,1,0,0
     609              $C$DW$91        .dwtag  DW_TAG_variable, DW_AT_name("endpt")
     610                      .dwattr $C$DW$91, DW_AT_TI_symbol_name("_endpt")
     611                      .dwattr $C$DW$91, DW_AT_location[DW_OP_addr _endpt]
     612                      .dwattr $C$DW$91, DW_AT_type(*$C$DW$T$19)
     613                      .dwattr $C$DW$91, DW_AT_external
     614                      .global _stopRunning
     615 00008e               .bss    _stopRunning,1,0,0
     616              $C$DW$92        .dwtag  DW_TAG_variable, DW_AT_name("stopRunning")
     617                      .dwattr $C$DW$92, DW_AT_TI_symbol_name("_stopRunning")
     618                      .dwattr $C$DW$92, DW_AT_location[DW_OP_addr _stopRunning]
     619                      .dwattr $C$DW$92, DW_AT_type(*$C$DW$T$235)
     620                      .dwattr $C$DW$92, DW_AT_external
     621                      .global _usbDevDisconnect
     622 00008f               .bss    _usbDevDisconnect,1,0,0
     623              $C$DW$93        .dwtag  DW_TAG_variable, DW_AT_name("usbDevDisconnect")
     624                      .dwattr $C$DW$93, DW_AT_TI_symbol_name("_usbDevDisconnect")
     625                      .dwattr $C$DW$93, DW_AT_location[DW_OP_addr _usbDevDisconnect]
     626                      .dwattr $C$DW$93, DW_AT_type(*$C$DW$T$86)
     627                      .dwattr $C$DW$93, DW_AT_external
     628                      .global _usbSetup
     629 000090               .bss    _usbSetup,6,0,0
     630              $C$DW$94        .dwtag  DW_TAG_variable, DW_AT_name("usbSetup")
     631                      .dwattr $C$DW$94, DW_AT_TI_symbol_name("_usbSetup")
     632                      .dwattr $C$DW$94, DW_AT_location[DW_OP_addr _usbSetup]
     633                      .dwattr $C$DW$94, DW_AT_type(*$C$DW$T$101)
     634                      .dwattr $C$DW$94, DW_AT_external
     635                      .global _config
     636 000096               .bss    _config,8,0,2
     637              $C$DW$95        .dwtag  DW_TAG_variable, DW_AT_name("config")
     638                      .dwattr $C$DW$95, DW_AT_TI_symbol_name("_config")
     639                      .dwattr $C$DW$95, DW_AT_location[DW_OP_addr _config]
     640                      .dwattr $C$DW$95, DW_AT_type(*$C$DW$T$159)
     641                      .dwattr $C$DW$95, DW_AT_external
     642                      .global _usbConfig
     643 00009e               .bss    _usbConfig,12,0,2
     644              $C$DW$96        .dwtag  DW_TAG_variable, DW_AT_name("usbConfig")
     645                      .dwattr $C$DW$96, DW_AT_TI_symbol_name("_usbConfig")
     646                      .dwattr $C$DW$96, DW_AT_location[DW_OP_addr _usbConfig]
     647                      .dwattr $C$DW$96, DW_AT_type(*$C$DW$T$160)
TMS320C55x Assembler PC v4.4.1 Sat Sep 29 23:08:40 2018

Tools Copyright (c) 1996-2012 Texas Instruments Incorporated
csl_usb_dma_example.asm                                              PAGE   13

     648                      .dwattr $C$DW$96, DW_AT_external
     649                      .global _hEpObjArray
     650 0000aa               .bss    _hEpObjArray,16,0,2
     651              $C$DW$97        .dwtag  DW_TAG_variable, DW_AT_name("hEpObjArray")
     652                      .dwattr $C$DW$97, DW_AT_TI_symbol_name("_hEpObjArray")
     653                      .dwattr $C$DW$97, DW_AT_location[DW_OP_addr _hEpObjArray]
     654                      .dwattr $C$DW$97, DW_AT_type(*$C$DW$T$107)
     655                      .dwattr $C$DW$97, DW_AT_external
     656                      .global _hEPx
     657 0000ba               .bss    _hEPx,2,0,2
     658              $C$DW$98        .dwtag  DW_TAG_variable, DW_AT_name("hEPx")
     659                      .dwattr $C$DW$98, DW_AT_TI_symbol_name("_hEPx")
     660                      .dwattr $C$DW$98, DW_AT_location[DW_OP_addr _hEPx]
     661                      .dwattr $C$DW$98, DW_AT_type(*$C$DW$T$106)
     662                      .dwattr $C$DW$98, DW_AT_external
     663                      .global _usbCtrlOutEpObj
     664 0000bc               .bss    _usbCtrlOutEpObj,20,0,2
     665              $C$DW$99        .dwtag  DW_TAG_variable, DW_AT_name("usbCtrlOutEpObj")
     666                      .dwattr $C$DW$99, DW_AT_TI_symbol_name("_usbCtrlOutEpObj")
     667                      .dwattr $C$DW$99, DW_AT_location[DW_OP_addr _usbCtrlOutEpObj]
     668                      .dwattr $C$DW$99, DW_AT_type(*$C$DW$T$104)
     669                      .dwattr $C$DW$99, DW_AT_external
     670                      .global _usbCtrlInEpObj
     671 0000d0               .bss    _usbCtrlInEpObj,20,0,2
     672              $C$DW$100       .dwtag  DW_TAG_variable, DW_AT_name("usbCtrlInEpObj")
     673                      .dwattr $C$DW$100, DW_AT_TI_symbol_name("_usbCtrlInEpObj")
     674                      .dwattr $C$DW$100, DW_AT_location[DW_OP_addr _usbCtrlInEpObj]
     675                      .dwattr $C$DW$100, DW_AT_type(*$C$DW$T$104)
     676                      .dwattr $C$DW$100, DW_AT_external
     677                      .global _usbBulkOutEpObj
     678 0000e4               .bss    _usbBulkOutEpObj,20,0,2
     679              $C$DW$101       .dwtag  DW_TAG_variable, DW_AT_name("usbBulkOutEpObj")
     680                      .dwattr $C$DW$101, DW_AT_TI_symbol_name("_usbBulkOutEpObj")
     681                      .dwattr $C$DW$101, DW_AT_location[DW_OP_addr _usbBulkOutEpObj]
     682                      .dwattr $C$DW$101, DW_AT_type(*$C$DW$T$104)
     683                      .dwattr $C$DW$101, DW_AT_external
     684                      .global _usbBulkInEpObj
     685 0000f8               .bss    _usbBulkInEpObj,20,0,2
     686              $C$DW$102       .dwtag  DW_TAG_variable, DW_AT_name("usbBulkInEpObj")
     687                      .dwattr $C$DW$102, DW_AT_TI_symbol_name("_usbBulkInEpObj")
     688                      .dwattr $C$DW$102, DW_AT_location[DW_OP_addr _usbBulkInEpObj]
     689                      .dwattr $C$DW$102, DW_AT_type(*$C$DW$T$104)
     690                      .dwattr $C$DW$102, DW_AT_external
     691                      .global _pContext
     692 00010c               .bss    _pContext,2,0,2
     693              $C$DW$103       .dwtag  DW_TAG_variable, DW_AT_name("pContext")
     694                      .dwattr $C$DW$103, DW_AT_TI_symbol_name("_pContext")
     695                      .dwattr $C$DW$103, DW_AT_location[DW_OP_addr _pContext]
     696                      .dwattr $C$DW$103, DW_AT_type(*$C$DW$T$164)
     697                      .dwattr $C$DW$103, DW_AT_external
     698                      .global _status
     699 00010e               .bss    _status,1,0,0
     700              $C$DW$104       .dwtag  DW_TAG_variable, DW_AT_name("status")
     701                      .dwattr $C$DW$104, DW_AT_TI_symbol_name("_status")
     702                      .dwattr $C$DW$104, DW_AT_location[DW_OP_addr _status]
TMS320C55x Assembler PC v4.4.1 Sat Sep 29 23:08:40 2018

Tools Copyright (c) 1996-2012 Texas Instruments Incorporated
csl_usb_dma_example.asm                                              PAGE   14

     703                      .dwattr $C$DW$104, DW_AT_type(*$C$DW$T$80)
     704                      .dwattr $C$DW$104, DW_AT_external
     705                      .global _PaSs_StAtE
     706 00010f               .bss    _PaSs_StAtE,1,0,0
     707              $C$DW$105       .dwtag  DW_TAG_variable, DW_AT_name("PaSs_StAtE")
     708                      .dwattr $C$DW$105, DW_AT_TI_symbol_name("_PaSs_StAtE")
     709                      .dwattr $C$DW$105, DW_AT_location[DW_OP_addr _PaSs_StAtE]
     710                      .dwattr $C$DW$105, DW_AT_type(*$C$DW$T$225)
     711                      .dwattr $C$DW$105, DW_AT_external
     712                      .global _PaSs
     713 000110               .bss    _PaSs,1,0,0
     714              $C$DW$106       .dwtag  DW_TAG_variable, DW_AT_name("PaSs")
     715                      .dwattr $C$DW$106, DW_AT_TI_symbol_name("_PaSs")
     716                      .dwattr $C$DW$106, DW_AT_location[DW_OP_addr _PaSs]
     717                      .dwattr $C$DW$106, DW_AT_type(*$C$DW$T$225)
     718                      .dwattr $C$DW$106, DW_AT_external
     719              ;       F:\t\cc5p5\ccsv5\tools\compiler\c5500_4.4.1\bin\acp55.exe -@f:\\AppData\\Local\\Temp\\0374012 
     720 000000               .sect   ".text"
     721                      .align 4
     722              
     723              $C$DW$107       .dwtag  DW_TAG_subprogram, DW_AT_name("USB_swapWords")
     724                      .dwattr $C$DW$107, DW_AT_low_pc(_USB_swapWords)
     725                      .dwattr $C$DW$107, DW_AT_high_pc(0x00)
     726                      .dwattr $C$DW$107, DW_AT_TI_symbol_name("_USB_swapWords")
     727                      .dwattr $C$DW$107, DW_AT_type(*$C$DW$T$80)
     728                      .dwattr $C$DW$107, DW_AT_TI_begin_file("F:/eZdsp_DBG/tmp1/c55x-sim2/foo/c5535_bsl_revc/ezdsp5535_v1/c
     729                      .dwattr $C$DW$107, DW_AT_TI_begin_line(0x53)
     730                      .dwattr $C$DW$107, DW_AT_TI_begin_column(0x0c)
     731                      .dwattr $C$DW$107, DW_AT_TI_max_frame_size(0x0a)
     732                      .dwpsn  file "F:/eZdsp_DBG/tmp1/c55x-sim2/foo/c5535_bsl_revc/ezdsp5535_v1/c55xx_csl/inc/csl_usbAux.h"
     733              
     734                      .dwfde $C$DW$CIE, _USB_swapWords
     735              $C$DW$108       .dwtag  DW_TAG_formal_parameter, DW_AT_name("dataBuffer")
     736                      .dwattr $C$DW$108, DW_AT_TI_symbol_name("_dataBuffer")
     737                      .dwattr $C$DW$108, DW_AT_type(*$C$DW$T$102)
     738                      .dwattr $C$DW$108, DW_AT_location[DW_OP_reg17]
     739              $C$DW$109       .dwtag  DW_TAG_formal_parameter, DW_AT_name("dataLength")
     740                      .dwattr $C$DW$109, DW_AT_TI_symbol_name("_dataLength")
     741                      .dwattr $C$DW$109, DW_AT_type(*$C$DW$T$70)
     742                      .dwattr $C$DW$109, DW_AT_location[DW_OP_reg0]
     743              ;*******************************************************************************
     744              ;* FUNCTION NAME: USB_swapWords                                                *
     745              ;*                                                                             *
     746              ;*   Function Uses Regs : AC0,AC0,AC1,AC1,T0,AR0,XAR0,AR1,AR2,XAR2,AR3,XAR3,SP,*
     747              ;*                        CARRY,TC1,M40,SATA,SATD,RDM,FRCT,SMUL                *
     748              ;*   Stack Frame        : Compact (No Frame Pointer, w/ debug)                 *
     749              ;*   Total Frame Size   : 10 words                                             *
     750              ;*                        (1 return address/alignment)                         *
     751              ;*                        (9 local values)                                     *
     752              ;*   Min System Stack   : 1 word                                               *
     753              ;*******************************************************************************
     754 000000       _USB_swapWords:
     755                      .dwcfi  cfa_offset, 1
     756                      .dwcfi  save_reg_to_mem, 91, -1
     757 000000 4EF7          AADD #-9, SP
TMS320C55x Assembler PC v4.4.1 Sat Sep 29 23:08:40 2018

Tools Copyright (c) 1996-2012 Texas Instruments Incorporated
csl_usb_dma_example.asm                                              PAGE   15

     758                      .dwcfi  cfa_offset, 10
     759              $C$DW$110       .dwtag  DW_TAG_variable, DW_AT_name("dataBuffer")
     760                      .dwattr $C$DW$110, DW_AT_TI_symbol_name("_dataBuffer")
     761                      .dwattr $C$DW$110, DW_AT_type(*$C$DW$T$102)
     762                      .dwattr $C$DW$110, DW_AT_location[DW_OP_bregx 0x24 0]
     763              $C$DW$111       .dwtag  DW_TAG_variable, DW_AT_name("dataLength")
     764                      .dwattr $C$DW$111, DW_AT_TI_symbol_name("_dataLength")
     765                      .dwattr $C$DW$111, DW_AT_type(*$C$DW$T$70)
     766                      .dwattr $C$DW$111, DW_AT_location[DW_OP_bregx 0x24 2]
     767              $C$DW$112       .dwtag  DW_TAG_variable, DW_AT_name("status")
     768                      .dwattr $C$DW$112, DW_AT_TI_symbol_name("_status")
     769                      .dwattr $C$DW$112, DW_AT_type(*$C$DW$T$80)
     770                      .dwattr $C$DW$112, DW_AT_location[DW_OP_bregx 0x24 4]
     771              $C$DW$113       .dwtag  DW_TAG_variable, DW_AT_name("looper")
     772                      .dwattr $C$DW$113, DW_AT_TI_symbol_name("_looper")
     773                      .dwattr $C$DW$113, DW_AT_type(*$C$DW$T$70)
     774                      .dwattr $C$DW$113, DW_AT_location[DW_OP_bregx 0x24 6]
     775              $C$DW$114       .dwtag  DW_TAG_variable, DW_AT_name("tempData")
     776                      .dwattr $C$DW$114, DW_AT_TI_symbol_name("_tempData")
     777                      .dwattr $C$DW$114, DW_AT_type(*$C$DW$T$19)
     778                      .dwattr $C$DW$114, DW_AT_location[DW_OP_bregx 0x24 8]
     779 000002 EB04          MOV AC0, dbl(*SP(#2)) ; |85| 
         000004 08   
     780 000005 EB00          MOV XAR0, dbl(*SP(#0))
         000007 85   
     781                      .dwpsn  file "F:/eZdsp_DBG/tmp1/c55x-sim2/foo/c5535_bsl_revc/ezdsp5535_v1/c55xx_csl/inc/csl_usbAux.h"
     782 000008 E608          MOV #0, *SP(#4) ; |90| 
         00000a 00   
     783                      .dwpsn  file "F:/eZdsp_DBG/tmp1/c55x-sim2/foo/c5535_bsl_revc/ezdsp5535_v1/c55xx_csl/inc/csl_usbAux.h"
     784 00000b ED00          MOV dbl(*SP(#0)), XAR3
         00000d BF   
     785 00000e 90B0          MOV XAR3, AC0
     786 000010 0400          BCC $C$L2,AC0 == #0 ; |93| 
         000012 53   
     787                                                      ; branchcc occurs ; |93| 
     788 000013 ED04          MOV dbl(*SP(#2)), AC0 ; |93| 
         000015 08   
     789 000016 0400          BCC $C$L2,AC0 == #0 ; |93| 
         000018 4D   
     790                                                      ; branchcc occurs ; |93| 
     791                      .dwpsn  file "F:/eZdsp_DBG/tmp1/c55x-sim2/foo/c5535_bsl_revc/ezdsp5535_v1/c55xx_csl/inc/csl_usbAux.h"
     792 000019 3C00          MOV #0, AC0 ; |96| 
     793 00001b EB0C          MOV AC0, dbl(*SP(#6)) ; |96| 
         00001d 08   
     794                      .dwpsn  file "F:/eZdsp_DBG/tmp1/c55x-sim2/foo/c5535_bsl_revc/ezdsp5535_v1/c55xx_csl/inc/csl_usbAux.h"
     795 00001e ED04          MOV dbl(*SP(#2)), AC0 ; |96| 
         000020 08   
     796              
     797 000024 5101          SFTL AC0, #-1 ; |96| 
     798 000021 ED0C  ||      MOV dbl(*SP(#6)), AC1 ; |96| 
         000023 18   
     799              
     800 000026 1218          CMPU AC1 >= AC0, TC1 ; |96| 
         000028 04   
     801 000029 0464          BCC $C$L3,TC1 ; |96| 
TMS320C55x Assembler PC v4.4.1 Sat Sep 29 23:08:40 2018

Tools Copyright (c) 1996-2012 Texas Instruments Incorporated
csl_usb_dma_example.asm                                              PAGE   16

         00002b 3D   
     802                                                      ; branchcc occurs ; |96| 
     803 00002c       $C$L1:    
     804 00002c       $C$DW$L$_USB_swapWords$4$B:
     805                      .dwpsn  file "F:/eZdsp_DBG/tmp1/c55x-sim2/foo/c5535_bsl_revc/ezdsp5535_v1/c55xx_csl/inc/csl_usbAux.h"
     806 00002c ED00          MOV dbl(*SP(#0)), XAR3
         00002e BF   
     807 00002f A963          MOV *AR3+, AR1 ; |98| 
     808 000031 EB00          MOV XAR3, dbl(*SP(#0))
         000033 B5   
     809 000034 C910          MOV AR1, *SP(#8) ; |98| 
     810                      .dwpsn  file "F:/eZdsp_DBG/tmp1/c55x-sim2/foo/c5535_bsl_revc/ezdsp5535_v1/c55xx_csl/inc/csl_usbAux.h"
     811 000036 ED00          MOV dbl(*SP(#0)), XAR3
         000038 BF   
     812 000039 A961          MOV *AR3, AR1 ; |99| 
     813 00003b C96D          MOV AR1, *AR3(#-1) ; |99| 
         00003d FFFF 
     814                      .dwpsn  file "F:/eZdsp_DBG/tmp1/c55x-sim2/foo/c5535_bsl_revc/ezdsp5535_v1/c55xx_csl/inc/csl_usbAux.h"
     815 00003f ED00          MOV dbl(*SP(#0)), XAR2
         000041 AF   
     816 000042 EC41          AMAR *AR2, XAR3
         000044 BE   
     817 000045 B463          AMAR *AR3+
     818 000047 EB00          MOV XAR3, dbl(*SP(#0))
         000049 B5   
     819 00004a A910          MOV *SP(#8), AR1 ; |100| 
     820 00004c C941          MOV AR1, *AR2 ; |100| 
     821                      .dwpsn  file "F:/eZdsp_DBG/tmp1/c55x-sim2/foo/c5535_bsl_revc/ezdsp5535_v1/c55xx_csl/inc/csl_usbAux.h"
     822 00004e ED0C          MOV dbl(*SP(#6)), AC0 ; |96| 
         000050 08   
     823 000051 4010          ADD #1, AC0 ; |96| 
     824 000053 EB0C          MOV AC0, dbl(*SP(#6)) ; |96| 
         000055 08   
     825                      .dwpsn  file "F:/eZdsp_DBG/tmp1/c55x-sim2/foo/c5535_bsl_revc/ezdsp5535_v1/c55xx_csl/inc/csl_usbAux.h"
     826 000056 ED04          MOV dbl(*SP(#2)), AC0 ; |96| 
         000058 08   
     827              
     828 00005c 5101          SFTL AC0, #-1 ; |96| 
     829 000059 ED0C  ||      MOV dbl(*SP(#6)), AC1 ; |96| 
         00005b 18   
     830              
     831 00005e 1214          CMPU AC1 < AC0, TC1 ; |96| 
         000060 04   
     832 000061 0464          BCC $C$L1,TC1 ; |96| 
         000063 C8   
     833                                                      ; branchcc occurs ; |96| 
     834 000064       $C$DW$L$_USB_swapWords$4$E:
     835                      .dwpsn  file "F:/eZdsp_DBG/tmp1/c55x-sim2/foo/c5535_bsl_revc/ezdsp5535_v1/c55xx_csl/inc/csl_usbAux.h"
     836 000064 4A03          B $C$L3   ; |102| 
     837                                                      ; branch occurs ; |102| 
     838 000066       $C$L2:    
     839                      .dwpsn  file "F:/eZdsp_DBG/tmp1/c55x-sim2/foo/c5535_bsl_revc/ezdsp5535_v1/c55xx_csl/inc/csl_usbAux.h"
     840 000066 E608          MOV #-6, *SP(#4) ; |105| 
         000068 FA   
     841 000069       $C$L3:    
TMS320C55x Assembler PC v4.4.1 Sat Sep 29 23:08:40 2018

Tools Copyright (c) 1996-2012 Texas Instruments Incorporated
csl_usb_dma_example.asm                                              PAGE   17

     842                      .dwpsn  file "F:/eZdsp_DBG/tmp1/c55x-sim2/foo/c5535_bsl_revc/ezdsp5535_v1/c55xx_csl/inc/csl_usbAux.h"
     843 000069 A408          MOV *SP(#4), T0 ; |108| 
     844                      .dwpsn  file "F:/eZdsp_DBG/tmp1/c55x-sim2/foo/c5535_bsl_revc/ezdsp5535_v1/c55xx_csl/inc/csl_usbAux.h"
     845 00006b 4E09          AADD #9, SP
     846                      .dwcfi  cfa_offset, 1
     847              $C$DW$115       .dwtag  DW_TAG_TI_branch
     848                      .dwattr $C$DW$115, DW_AT_low_pc(0x00)
     849                      .dwattr $C$DW$115, DW_AT_TI_return
     850 00006d 4804          RET
     851                                                      ; return occurs
     852              
     853              $C$DW$116       .dwtag  DW_TAG_TI_loop
     854                      .dwattr $C$DW$116, DW_AT_name("F:\eZdsp_DBG\tmp1\c55x-sim2\foo\Debug\csl_usb_dma_example.asm:$C$L1:1:
     855                      .dwattr $C$DW$116, DW_AT_TI_begin_file("F:/eZdsp_DBG/tmp1/c55x-sim2/foo/c5535_bsl_revc/ezdsp5535_v1/c
     856                      .dwattr $C$DW$116, DW_AT_TI_begin_line(0x60)
     857                      .dwattr $C$DW$116, DW_AT_TI_end_line(0x65)
     858              $C$DW$117       .dwtag  DW_TAG_TI_loop_range
     859                      .dwattr $C$DW$117, DW_AT_low_pc($C$DW$L$_USB_swapWords$4$B)
     860                      .dwattr $C$DW$117, DW_AT_high_pc($C$DW$L$_USB_swapWords$4$E)
     861                      .dwendtag $C$DW$116
     862              
     863                      .dwattr $C$DW$107, DW_AT_TI_end_file("F:/eZdsp_DBG/tmp1/c55x-sim2/foo/c5535_bsl_revc/ezdsp5535_v1/c55
     864                      .dwattr $C$DW$107, DW_AT_TI_end_line(0x6d)
     865                      .dwattr $C$DW$107, DW_AT_TI_end_column(0x01)
     866                      .dwendentry
     867                      .dwendtag $C$DW$107
     868              
     869 00006f               .sect   ".text"
     870                      .align 4
     871              
     872              $C$DW$118       .dwtag  DW_TAG_subprogram, DW_AT_name("USB_initDma")
     873                      .dwattr $C$DW$118, DW_AT_low_pc(_USB_initDma)
     874                      .dwattr $C$DW$118, DW_AT_high_pc(0x00)
     875                      .dwattr $C$DW$118, DW_AT_TI_symbol_name("_USB_initDma")
     876                      .dwattr $C$DW$118, DW_AT_TI_begin_file("F:/eZdsp_DBG/tmp1/c55x-sim2/foo/c5535_bsl_revc/ezdsp5535_v1/c
     877                      .dwattr $C$DW$118, DW_AT_TI_begin_line(0x95)
     878                      .dwattr $C$DW$118, DW_AT_TI_begin_column(0x06)
     879                      .dwattr $C$DW$118, DW_AT_TI_max_frame_size(0x02)
     880                      .dwpsn  file "F:/eZdsp_DBG/tmp1/c55x-sim2/foo/c5535_bsl_revc/ezdsp5535_v1/c55xx_csl/inc/csl_usbAux.h"
     881              
     882                      .dwfde $C$DW$CIE, _USB_initDma
     883              ;*******************************************************************************
     884              ;* FUNCTION NAME: USB_initDma                                                  *
     885              ;*                                                                             *
     886              ;*   Function Uses Regs : T0,AR3,SP,M40,SATA,SATD,RDM,FRCT,SMUL                *
     887              ;*   Stack Frame        : Compact (No Frame Pointer, w/ debug)                 *
     888              ;*   Total Frame Size   : 2 words                                              *
     889              ;*                        (1 return address/alignment)                         *
     890              ;*                        (1 local values)                                     *
     891              ;*   Min System Stack   : 1 word                                               *
     892              ;*******************************************************************************
     893 000070       _USB_initDma:
     894                      .dwcfi  cfa_offset, 1
     895                      .dwcfi  save_reg_to_mem, 91, -1
     896 000070 4EFF          AADD #-1, SP
TMS320C55x Assembler PC v4.4.1 Sat Sep 29 23:08:40 2018

Tools Copyright (c) 1996-2012 Texas Instruments Incorporated
csl_usb_dma_example.asm                                              PAGE   18

     897                      .dwcfi  cfa_offset, 2
     898              $C$DW$119       .dwtag  DW_TAG_variable, DW_AT_name("value")
     899                      .dwattr $C$DW$119, DW_AT_TI_symbol_name("_value")
     900                      .dwattr $C$DW$119, DW_AT_type(*$C$DW$T$86)
     901                      .dwattr $C$DW$119, DW_AT_location[DW_OP_bregx 0x24 0]
     902                      .dwpsn  file "F:/eZdsp_DBG/tmp1/c55x-sim2/foo/c5535_bsl_revc/ezdsp5535_v1/c55xx_csl/inc/csl_usbAux.h"
     903              $C$DW$120       .dwtag  DW_TAG_TI_branch
     904                      .dwattr $C$DW$120, DW_AT_low_pc(0x00)
     905                      .dwattr $C$DW$120, DW_AT_name("_IRQ_globalDisable")
     906                      .dwattr $C$DW$120, DW_AT_TI_call
     907 000072 6C00          CALL #_IRQ_globalDisable ; |156| 
         000074 0000!
     908                                                      ; call occurs [#_IRQ_globalDisable] ; |156| 
     909 000076 C400          MOV T0, *SP(#0) ; |156| 
     910                      .dwpsn  file "F:/eZdsp_DBG/tmp1/c55x-sim2/foo/c5535_bsl_revc/ezdsp5535_v1/c55xx_csl/inc/csl_usbAux.h"
     911 000078 7618          MOV #6144, T0 ; |158| 
         00007a 0048 
     912 00007c AB31          MOV *(#_usbRegisters), AR3 ; |158| 
         00007e 0000 
         000080 00!  
     913 000081 E66B          MOV #0, port(*AR3(T0)) ; |158| 
         000083 00   
         000084 9A   
     914                      .dwpsn  file "F:/eZdsp_DBG/tmp1/c55x-sim2/foo/c5535_bsl_revc/ezdsp5535_v1/c55xx_csl/inc/csl_usbAux.h"
     915 000085 7618          MOV #6145, T0 ; |161| 
         000087 0148 
     916 000089 AB31          MOV *(#_usbRegisters), AR3 ; |161| 
         00008b 0000 
         00008d 00!  
     917 00008e FB6B          MOV #32768, port(*AR3(T0)) ; |161| 
         000090 8000 
         000092 9A   
     918                      .dwpsn  file "F:/eZdsp_DBG/tmp1/c55x-sim2/foo/c5535_bsl_revc/ezdsp5535_v1/c55xx_csl/inc/csl_usbAux.h"
     919 000093 7618          MOV #6184, T0 ; |167| 
         000095 2848 
     920 000097 AB31          MOV *(#_usbRegisters), AR3 ; |167| 
         000099 0000 
         00009b 00!  
     921 00009c FB6B          MOV #16410, port(*AR3(T0)) ; |167| 
         00009e 401A 
         0000a0 9A   
     922                      .dwpsn  file "F:/eZdsp_DBG/tmp1/c55x-sim2/foo/c5535_bsl_revc/ezdsp5535_v1/c55xx_csl/inc/csl_usbAux.h"
     923 0000a1 7618          MOV #6185, T0 ; |173| 
         0000a3 2948 
     924 0000a5 AB31          MOV *(#_usbRegisters), AR3 ; |173| 
         0000a7 0000 
         0000a9 00!  
     925 0000aa FB6B          MOV #33024, port(*AR3(T0)) ; |173| 
         0000ac 8100 
         0000ae 9A   
     926                      .dwpsn  file "F:/eZdsp_DBG/tmp1/c55x-sim2/foo/c5535_bsl_revc/ezdsp5535_v1/c55xx_csl/inc/csl_usbAux.h"
     927 0000af 7618          MOV #6188, T0 ; |175| 
         0000b1 2C48 
     928 0000b3 AB31          MOV *(#_usbRegisters), AR3 ; |175| 
         0000b5 0000 
TMS320C55x Assembler PC v4.4.1 Sat Sep 29 23:08:40 2018

Tools Copyright (c) 1996-2012 Texas Instruments Incorporated
csl_usb_dma_example.asm                                              PAGE   19

         0000b7 00!  
     929 0000b8 E66B          MOV #0, port(*AR3(T0)) ; |175| 
         0000ba 00   
         0000bb 9A   
     930                      .dwpsn  file "F:/eZdsp_DBG/tmp1/c55x-sim2/foo/c5535_bsl_revc/ezdsp5535_v1/c55xx_csl/inc/csl_usbAux.h"
     931 0000bc 7618          MOV #6189, T0 ; |176| 
         0000be 2D48 
     932 0000c0 AB31          MOV *(#_usbRegisters), AR3 ; |176| 
         0000c2 0000 
         0000c4 00!  
     933 0000c5 E66B          MOV #0, port(*AR3(T0)) ; |176| 
         0000c7 00   
         0000c8 9A   
     934                      .dwpsn  file "F:/eZdsp_DBG/tmp1/c55x-sim2/foo/c5535_bsl_revc/ezdsp5535_v1/c55xx_csl/inc/csl_usbAux.h"
     935 0000c9 7618          MOV #6192, T0 ; |177| 
         0000cb 3048 
     936 0000cd AB31          MOV *(#_usbRegisters), AR3 ; |177| 
         0000cf 0000 
         0000d1 00!  
     937 0000d2 E66B          MOV #0, port(*AR3(T0)) ; |177| 
         0000d4 00   
         0000d5 9A   
     938                      .dwpsn  file "F:/eZdsp_DBG/tmp1/c55x-sim2/foo/c5535_bsl_revc/ezdsp5535_v1/c55xx_csl/inc/csl_usbAux.h"
     939 0000d6 7618          MOV #6193, T0 ; |178| 
         0000d8 3148 
     940 0000da AB31          MOV *(#_usbRegisters), AR3 ; |178| 
         0000dc 0000 
         0000de 00!  
     941 0000df E66B          MOV #0, port(*AR3(T0)) ; |178| 
         0000e1 00   
         0000e2 9A   
     942                      .dwpsn  file "F:/eZdsp_DBG/tmp1/c55x-sim2/foo/c5535_bsl_revc/ezdsp5535_v1/c55xx_csl/inc/csl_usbAux.h"
     943 0000e3 7628          MOV #10240, T0 ; |183| 
         0000e5 0048 
     944 0000e7 AB31          MOV *(#_usbRegisters), AR3 ; |183| 
         0000e9 0000 
         0000eb 00!  
     945 0000ec FB6B          MOV #129, port(*AR3(T0)) ; |183| 
         0000ee 0081 
         0000f0 9A   
     946                      .dwpsn  file "F:/eZdsp_DBG/tmp1/c55x-sim2/foo/c5535_bsl_revc/ezdsp5535_v1/c55xx_csl/inc/csl_usbAux.h"
     947 0000f1 7628          MOV #10241, T0 ; |184| 
         0000f3 0148 
     948 0000f5 AB31          MOV *(#_usbRegisters), AR3 ; |184| 
         0000f7 0000 
         0000f9 00!  
     949 0000fa E66B          MOV #0, port(*AR3(T0)) ; |184| 
         0000fc 00   
         0000fd 9A   
     950                      .dwpsn  file "F:/eZdsp_DBG/tmp1/c55x-sim2/foo/c5535_bsl_revc/ezdsp5535_v1/c55xx_csl/inc/csl_usbAux.h"
     951 0000fe 7620          MOV #8192, T0 ; |187| 
         000100 0048 
     952 000102 AB31          MOV *(#_usbRegisters), AR3 ; |187| 
         000104 0000 
         000106 00!  
TMS320C55x Assembler PC v4.4.1 Sat Sep 29 23:08:40 2018

Tools Copyright (c) 1996-2012 Texas Instruments Incorporated
csl_usb_dma_example.asm                                              PAGE   20

     953 000107 E66B          MOV #1, port(*AR3(T0)) ; |187| 
         000109 01   
         00010a 9A   
     954                      .dwpsn  file "F:/eZdsp_DBG/tmp1/c55x-sim2/foo/c5535_bsl_revc/ezdsp5535_v1/c55xx_csl/inc/csl_usbAux.h"
     955 00010b 7620          MOV #8193, T0 ; |190| 
         00010d 0148 
     956 00010f AB31          MOV *(#_usbRegisters), AR3 ; |190| 
         000111 0000 
         000113 00!  
     957 000114 FB6B          MOV #32768, port(*AR3(T0)) ; |190| 
         000116 8000 
         000118 9A   
     958                      .dwpsn  file "F:/eZdsp_DBG/tmp1/c55x-sim2/foo/c5535_bsl_revc/ezdsp5535_v1/c55xx_csl/inc/csl_usbAux.h"
     959 000119 A400          MOV *SP(#0), T0 ; |194| 
     960              $C$DW$121       .dwtag  DW_TAG_TI_branch
     961                      .dwattr $C$DW$121, DW_AT_low_pc(0x00)
     962                      .dwattr $C$DW$121, DW_AT_name("_IRQ_globalRestore")
     963                      .dwattr $C$DW$121, DW_AT_TI_call
     964 00011b 6C00          CALL #_IRQ_globalRestore ; |194| 
         00011d 0000!
     965                                                      ; call occurs [#_IRQ_globalRestore] ; |194| 
     966                      .dwpsn  file "F:/eZdsp_DBG/tmp1/c55x-sim2/foo/c5535_bsl_revc/ezdsp5535_v1/c55xx_csl/inc/csl_usbAux.h"
     967 00011f 4E01          AADD #1, SP
     968                      .dwcfi  cfa_offset, 1
     969              $C$DW$122       .dwtag  DW_TAG_TI_branch
     970                      .dwattr $C$DW$122, DW_AT_low_pc(0x00)
     971                      .dwattr $C$DW$122, DW_AT_TI_return
     972 000121 4804          RET
     973                                                      ; return occurs
     974                      .dwattr $C$DW$118, DW_AT_TI_end_file("F:/eZdsp_DBG/tmp1/c55x-sim2/foo/c5535_bsl_revc/ezdsp5535_v1/c55
     975                      .dwattr $C$DW$118, DW_AT_TI_end_line(0xc3)
     976                      .dwattr $C$DW$118, DW_AT_TI_end_column(0x01)
     977                      .dwendentry
     978                      .dwendtag $C$DW$118
     979              
     980 000123               .sect   ".text"
     981                      .align 4
     982              
     983              $C$DW$123       .dwtag  DW_TAG_subprogram, DW_AT_name("USB_initQueueManager")
     984                      .dwattr $C$DW$123, DW_AT_low_pc(_USB_initQueueManager)
     985                      .dwattr $C$DW$123, DW_AT_high_pc(0x00)
     986                      .dwattr $C$DW$123, DW_AT_TI_symbol_name("_USB_initQueueManager")
     987                      .dwattr $C$DW$123, DW_AT_type(*$C$DW$T$80)
     988                      .dwattr $C$DW$123, DW_AT_TI_begin_file("F:/eZdsp_DBG/tmp1/c55x-sim2/foo/c5535_bsl_revc/ezdsp5535_v1/c
     989                      .dwattr $C$DW$123, DW_AT_TI_begin_line(0xe9)
     990                      .dwattr $C$DW$123, DW_AT_TI_begin_column(0x0c)
     991                      .dwattr $C$DW$123, DW_AT_TI_max_frame_size(0x0a)
     992                      .dwpsn  file "F:/eZdsp_DBG/tmp1/c55x-sim2/foo/c5535_bsl_revc/ezdsp5535_v1/c55xx_csl/inc/csl_usbAux.h"
     993              
     994                      .dwfde $C$DW$CIE, _USB_initQueueManager
     995              $C$DW$124       .dwtag  DW_TAG_formal_parameter, DW_AT_name("hpdtx")
     996                      .dwattr $C$DW$124, DW_AT_TI_symbol_name("_hpdtx")
     997                      .dwattr $C$DW$124, DW_AT_type(*$C$DW$T$170)
     998                      .dwattr $C$DW$124, DW_AT_location[DW_OP_reg17]
     999              $C$DW$125       .dwtag  DW_TAG_formal_parameter, DW_AT_name("pLinkingRam")
TMS320C55x Assembler PC v4.4.1 Sat Sep 29 23:08:40 2018

Tools Copyright (c) 1996-2012 Texas Instruments Incorporated
csl_usb_dma_example.asm                                              PAGE   21

    1000                      .dwattr $C$DW$125, DW_AT_TI_symbol_name("_pLinkingRam")
    1001                      .dwattr $C$DW$125, DW_AT_type(*$C$DW$T$214)
    1002                      .dwattr $C$DW$125, DW_AT_location[DW_OP_reg19]
    1003              ;*******************************************************************************
    1004              ;* FUNCTION NAME: USB_initQueueManager                                         *
    1005              ;*                                                                             *
    1006              ;*   Function Uses Regs : AC0,AC0,T0,AR0,XAR0,AR1,XAR1,AR3,XAR3,SP,CARRY,M40,  *
    1007              ;*                        SATA,SATD,RDM,FRCT,SMUL                              *
    1008              ;*   Stack Frame        : Compact (No Frame Pointer, w/ debug)                 *
    1009              ;*   Total Frame Size   : 10 words                                             *
    1010              ;*                        (1 return address/alignment)                         *
    1011              ;*                        (9 local values)                                     *
    1012              ;*   Min System Stack   : 1 word                                               *
    1013              ;*******************************************************************************
    1014 000124       _USB_initQueueManager:
    1015                      .dwcfi  cfa_offset, 1
    1016                      .dwcfi  save_reg_to_mem, 91, -1
    1017 000124 4EF7          AADD #-9, SP
    1018                      .dwcfi  cfa_offset, 10
    1019              $C$DW$126       .dwtag  DW_TAG_variable, DW_AT_name("hpdtx")
    1020                      .dwattr $C$DW$126, DW_AT_TI_symbol_name("_hpdtx")
    1021                      .dwattr $C$DW$126, DW_AT_type(*$C$DW$T$170)
    1022                      .dwattr $C$DW$126, DW_AT_location[DW_OP_bregx 0x24 0]
    1023              $C$DW$127       .dwtag  DW_TAG_variable, DW_AT_name("pLinkingRam")
    1024                      .dwattr $C$DW$127, DW_AT_TI_symbol_name("_pLinkingRam")
    1025                      .dwattr $C$DW$127, DW_AT_type(*$C$DW$T$214)
    1026                      .dwattr $C$DW$127, DW_AT_location[DW_OP_bregx 0x24 2]
    1027              $C$DW$128       .dwtag  DW_TAG_variable, DW_AT_name("u32Addr")
    1028                      .dwattr $C$DW$128, DW_AT_TI_symbol_name("_u32Addr")
    1029                      .dwattr $C$DW$128, DW_AT_type(*$C$DW$T$70)
    1030                      .dwattr $C$DW$128, DW_AT_location[DW_OP_bregx 0x24 4]
    1031              $C$DW$129       .dwtag  DW_TAG_variable, DW_AT_name("u16CpyReg")
    1032                      .dwattr $C$DW$129, DW_AT_TI_symbol_name("_u16CpyReg")
    1033                      .dwattr $C$DW$129, DW_AT_type(*$C$DW$T$19)
    1034                      .dwattr $C$DW$129, DW_AT_location[DW_OP_bregx 0x24 6]
    1035              $C$DW$130       .dwtag  DW_TAG_variable, DW_AT_name("status")
    1036                      .dwattr $C$DW$130, DW_AT_TI_symbol_name("_status")
    1037                      .dwattr $C$DW$130, DW_AT_type(*$C$DW$T$80)
    1038                      .dwattr $C$DW$130, DW_AT_location[DW_OP_bregx 0x24 7]
    1039              $C$DW$131       .dwtag  DW_TAG_variable, DW_AT_name("value")
    1040                      .dwattr $C$DW$131, DW_AT_TI_symbol_name("_value")
    1041                      .dwattr $C$DW$131, DW_AT_type(*$C$DW$T$86)
    1042                      .dwattr $C$DW$131, DW_AT_location[DW_OP_bregx 0x24 8]
    1043 000126 EB04          MOV XAR1, dbl(*SP(#2))
         000128 95   
    1044 000129 EB00          MOV XAR0, dbl(*SP(#0))
         00012b 85   
    1045                      .dwpsn  file "F:/eZdsp_DBG/tmp1/c55x-sim2/foo/c5535_bsl_revc/ezdsp5535_v1/c55xx_csl/inc/csl_usbAux.h"
    1046 00012c E60E          MOV #0, *SP(#7) ; |241| 
         00012e 00   
    1047                      .dwpsn  file "F:/eZdsp_DBG/tmp1/c55x-sim2/foo/c5535_bsl_revc/ezdsp5535_v1/c55xx_csl/inc/csl_usbAux.h"
    1048 00012f ED00          MOV dbl(*SP(#0)), XAR3
         000131 BF   
    1049 000132 90B0          MOV XAR3, AC0
    1050 000134 6D00          BCC $C$L4,AC0 == #0 ; |243| 
TMS320C55x Assembler PC v4.4.1 Sat Sep 29 23:08:40 2018

Tools Copyright (c) 1996-2012 Texas Instruments Incorporated
csl_usb_dma_example.asm                                              PAGE   22

         000136 00FA 
    1051                                                      ; branchcc occurs ; |243| 
    1052 000138 ED04          MOV dbl(*SP(#2)), XAR3
         00013a BF   
    1053 00013b 90B0          MOV XAR3, AC0
    1054 00013d 6D00          BCC $C$L4,AC0 == #0 ; |243| 
         00013f 00F1 
    1055                                                      ; branchcc occurs ; |243| 
    1056                      .dwpsn  file "F:/eZdsp_DBG/tmp1/c55x-sim2/foo/c5535_bsl_revc/ezdsp5535_v1/c55xx_csl/inc/csl_usbAux.h"
    1057 000141 EB08          MOV AC0, dbl(*SP(#4)) ; |246| 
         000143 08   
    1058                      .dwpsn  file "F:/eZdsp_DBG/tmp1/c55x-sim2/foo/c5535_bsl_revc/ezdsp5535_v1/c55xx_csl/inc/csl_usbAux.h"
    1059 000144 ED08          MOV dbl(*SP(#4)), AC0 ; |247| 
         000146 08   
    1060 000147 5000          SFTL AC0, #1 ; |247| 
    1061 000149 7DFF          AND #0xffff, AC0, AC0 ; |247| 
         00014b FF00 
    1062 00014d C00C          MOV AC0, *SP(#6) ; |247| 
    1063                      .dwpsn  file "F:/eZdsp_DBG/tmp1/c55x-sim2/foo/c5535_bsl_revc/ezdsp5535_v1/c55xx_csl/inc/csl_usbAux.h"
    1064              $C$DW$132       .dwtag  DW_TAG_TI_branch
    1065                      .dwattr $C$DW$132, DW_AT_low_pc(0x00)
    1066                      .dwattr $C$DW$132, DW_AT_name("_IRQ_globalDisable")
    1067                      .dwattr $C$DW$132, DW_AT_TI_call
    1068 00014f 6C00          CALL #_IRQ_globalDisable ; |251| 
         000151 0000!
    1069                                                      ; call occurs [#_IRQ_globalDisable] ; |251| 
    1070 000153 C410          MOV T0, *SP(#8) ; |251| 
    1071                      .dwpsn  file "F:/eZdsp_DBG/tmp1/c55x-sim2/foo/c5535_bsl_revc/ezdsp5535_v1/c55xx_csl/inc/csl_usbAux.h"
    1072 000155 7640          MOV #16512, T0 ; |252| 
         000157 8048 
    1073 000159 AB31          MOV *(#_usbRegisters), AR3 ; |252| 
         00015b 0000 
         00015d 00!  
    1074 00015e A90C          MOV *SP(#6), AR1 ; |252| 
    1075 000160 C96B          MOV AR1, port(*AR3(T0)) ; |252| 
         000162 9A   
    1076                      .dwpsn  file "F:/eZdsp_DBG/tmp1/c55x-sim2/foo/c5535_bsl_revc/ezdsp5535_v1/c55xx_csl/inc/csl_usbAux.h"
    1077 000163 ED08          MOV dbl(*SP(#4)), AC0 ; |253| 
         000165 08   
    1078 000166 5000          SFTL AC0, #1 ; |253| 
    1079 000168 1007          SFTL AC0, #-16, AC0 ; |253| 
         00016a 30   
    1080 00016b 7DFF          AND #0xffff, AC0, AC0 ; |253| 
         00016d FF00 
    1081 00016f C00C          MOV AC0, *SP(#6) ; |253| 
    1082                      .dwpsn  file "F:/eZdsp_DBG/tmp1/c55x-sim2/foo/c5535_bsl_revc/ezdsp5535_v1/c55xx_csl/inc/csl_usbAux.h"
    1083 000171 7640          MOV #16513, T0 ; |256| 
         000173 8148 
    1084 000175 AB31          MOV *(#_usbRegisters), AR3 ; |256| 
         000177 0000 
         000179 00!  
    1085 00017a 2209          MOV AC0, AR1 ; |256| 
    1086 00017c EC06          BSET @#3, AR1 ; |256| 
         00017e 90   
    1087 00017f C96B          MOV AR1, port(*AR3(T0)) ; |256| 
TMS320C55x Assembler PC v4.4.1 Sat Sep 29 23:08:40 2018

Tools Copyright (c) 1996-2012 Texas Instruments Incorporated
csl_usb_dma_example.asm                                              PAGE   23

         000181 9A   
    1088                      .dwpsn  file "F:/eZdsp_DBG/tmp1/c55x-sim2/foo/c5535_bsl_revc/ezdsp5535_v1/c55xx_csl/inc/csl_usbAux.h"
    1089 000182 7640          MOV #16516, T0 ; |258| 
         000184 8448 
    1090 000186 AB31          MOV *(#_usbRegisters), AR3 ; |258| 
         000188 0000 
         00018a 00!  
    1091 00018b FB6B          MOV #512, port(*AR3(T0)) ; |258| 
         00018d 0200 
         00018f 9A   
    1092                      .dwpsn  file "F:/eZdsp_DBG/tmp1/c55x-sim2/foo/c5535_bsl_revc/ezdsp5535_v1/c55xx_csl/inc/csl_usbAux.h"
    1093 000190 ED04          MOV dbl(*SP(#2)), XAR3
         000192 BF   
    1094 000193 90B0          MOV XAR3, AC0
    1095 000195 EB08          MOV AC0, dbl(*SP(#4)) ; |261| 
         000197 08   
    1096                      .dwpsn  file "F:/eZdsp_DBG/tmp1/c55x-sim2/foo/c5535_bsl_revc/ezdsp5535_v1/c55xx_csl/inc/csl_usbAux.h"
    1097 000198 ED08          MOV dbl(*SP(#4)), AC0 ; |262| 
         00019a 08   
    1098 00019b 5000          SFTL AC0, #1 ; |262| 
    1099 00019d 7DFF          AND #0xffff, AC0, AC0 ; |262| 
         00019f FF00 
    1100 0001a1 C00C          MOV AC0, *SP(#6) ; |262| 
    1101                      .dwpsn  file "F:/eZdsp_DBG/tmp1/c55x-sim2/foo/c5535_bsl_revc/ezdsp5535_v1/c55xx_csl/inc/csl_usbAux.h"
    1102 0001a3 7640          MOV #16520, T0 ; |263| 
         0001a5 8848 
    1103 0001a7 AB31          MOV *(#_usbRegisters), AR3 ; |263| 
         0001a9 0000 
         0001ab 00!  
    1104 0001ac 2209          MOV AC0, AR1 ; |263| 
    1105 0001ae C96B          MOV AR1, port(*AR3(T0)) ; |263| 
         0001b0 9A   
    1106                      .dwpsn  file "F:/eZdsp_DBG/tmp1/c55x-sim2/foo/c5535_bsl_revc/ezdsp5535_v1/c55xx_csl/inc/csl_usbAux.h"
    1107 0001b1 ED08          MOV dbl(*SP(#4)), AC0 ; |264| 
         0001b3 08   
    1108 0001b4 5000          SFTL AC0, #1 ; |264| 
    1109 0001b6 1007          SFTL AC0, #-16, AC0 ; |264| 
         0001b8 30   
    1110 0001b9 7DFF          AND #0xffff, AC0, AC0 ; |264| 
         0001bb FF00 
    1111 0001bd C00C          MOV AC0, *SP(#6) ; |264| 
    1112                      .dwpsn  file "F:/eZdsp_DBG/tmp1/c55x-sim2/foo/c5535_bsl_revc/ezdsp5535_v1/c55xx_csl/inc/csl_usbAux.h"
    1113 0001bf 7640          MOV #16521, T0 ; |267| 
         0001c1 8948 
    1114 0001c3 AB31          MOV *(#_usbRegisters), AR3 ; |267| 
         0001c5 0000 
         0001c7 00!  
    1115 0001c8 2209          MOV AC0, AR1 ; |267| 
    1116 0001ca EC06          BSET @#3, AR1 ; |267| 
         0001cc 90   
    1117 0001cd C96B          MOV AR1, port(*AR3(T0)) ; |267| 
         0001cf 9A   
    1118                      .dwpsn  file "F:/eZdsp_DBG/tmp1/c55x-sim2/foo/c5535_bsl_revc/ezdsp5535_v1/c55xx_csl/inc/csl_usbAux.h"
    1119 0001d0 ED00          MOV dbl(*SP(#0)), XAR3
         0001d2 BF   
TMS320C55x Assembler PC v4.4.1 Sat Sep 29 23:08:40 2018

Tools Copyright (c) 1996-2012 Texas Instruments Incorporated
csl_usb_dma_example.asm                                              PAGE   24

    1120 0001d3 90B0          MOV XAR3, AC0
    1121 0001d5 EB08          MOV AC0, dbl(*SP(#4)) ; |270| 
         0001d7 08   
    1122                      .dwpsn  file "F:/eZdsp_DBG/tmp1/c55x-sim2/foo/c5535_bsl_revc/ezdsp5535_v1/c55xx_csl/inc/csl_usbAux.h"
    1123 0001d8 ED08          MOV dbl(*SP(#4)), AC0 ; |271| 
         0001da 08   
    1124 0001db 5000          SFTL AC0, #1 ; |271| 
    1125 0001dd 7DFF          AND #0xffff, AC0, AC0 ; |271| 
         0001df FF00 
    1126 0001e1 C00C          MOV AC0, *SP(#6) ; |271| 
    1127                      .dwpsn  file "F:/eZdsp_DBG/tmp1/c55x-sim2/foo/c5535_bsl_revc/ezdsp5535_v1/c55xx_csl/inc/csl_usbAux.h"
    1128 0001e3 7650          MOV #20480, T0 ; |272| 
         0001e5 0048 
    1129 0001e7 AB31          MOV *(#_usbRegisters), AR3 ; |272| 
         0001e9 0000 
         0001eb 00!  
    1130 0001ec 2209          MOV AC0, AR1 ; |272| 
    1131 0001ee C96B          MOV AR1, port(*AR3(T0)) ; |272| 
         0001f0 9A   
    1132                      .dwpsn  file "F:/eZdsp_DBG/tmp1/c55x-sim2/foo/c5535_bsl_revc/ezdsp5535_v1/c55xx_csl/inc/csl_usbAux.h"
    1133 0001f1 ED08          MOV dbl(*SP(#4)), AC0 ; |275| 
         0001f3 08   
    1134 0001f4 5000          SFTL AC0, #1 ; |275| 
    1135 0001f6 1007          SFTL AC0, #-16, AC0 ; |275| 
         0001f8 30   
    1136 0001f9 7DFF          AND #0xffff, AC0, AC0 ; |275| 
         0001fb FF00 
    1137 0001fd C00C          MOV AC0, *SP(#6) ; |275| 
    1138                      .dwpsn  file "F:/eZdsp_DBG/tmp1/c55x-sim2/foo/c5535_bsl_revc/ezdsp5535_v1/c55xx_csl/inc/csl_usbAux.h"
    1139 0001ff 7650          MOV #20481, T0 ; |277| 
         000201 0148 
    1140 000203 AB31          MOV *(#_usbRegisters), AR3 ; |277| 
         000205 0000 
         000207 00!  
    1141 000208 2209          MOV AC0, AR1 ; |277| 
    1142 00020a EC06          BSET @#3, AR1 ; |277| 
         00020c 90   
    1143 00020d C96B          MOV AR1, port(*AR3(T0)) ; |277| 
         00020f 9A   
    1144                      .dwpsn  file "F:/eZdsp_DBG/tmp1/c55x-sim2/foo/c5535_bsl_revc/ezdsp5535_v1/c55xx_csl/inc/csl_usbAux.h"
    1145 000210 7650          MOV #20484, T0 ; |280| 
         000212 0448 
    1146 000214 AB31          MOV *(#_usbRegisters), AR3 ; |280| 
         000216 0000 
         000218 00!  
    1147 000219 E66B          MOV #0, port(*AR3(T0)) ; |280| 
         00021b 00   
         00021c 9A   
    1148                      .dwpsn  file "F:/eZdsp_DBG/tmp1/c55x-sim2/foo/c5535_bsl_revc/ezdsp5535_v1/c55xx_csl/inc/csl_usbAux.h"
    1149 00021d 7650          MOV #20485, T0 ; |281| 
         00021f 0548 
    1150 000221 AB31          MOV *(#_usbRegisters), AR3 ; |281| 
         000223 0000 
         000225 00!  
    1151 000226 E66B          MOV #0, port(*AR3(T0)) ; |281| 
TMS320C55x Assembler PC v4.4.1 Sat Sep 29 23:08:40 2018

Tools Copyright (c) 1996-2012 Texas Instruments Incorporated
csl_usb_dma_example.asm                                              PAGE   25

         000228 00   
         000229 9A   
    1152                      .dwpsn  file "F:/eZdsp_DBG/tmp1/c55x-sim2/foo/c5535_bsl_revc/ezdsp5535_v1/c55xx_csl/inc/csl_usbAux.h"
    1153 00022a A410          MOV *SP(#8), T0 ; |283| 
    1154              $C$DW$133       .dwtag  DW_TAG_TI_branch
    1155                      .dwattr $C$DW$133, DW_AT_low_pc(0x00)
    1156                      .dwattr $C$DW$133, DW_AT_name("_IRQ_globalRestore")
    1157                      .dwattr $C$DW$133, DW_AT_TI_call
    1158 00022c 6C00          CALL #_IRQ_globalRestore ; |283| 
         00022e 0000!
    1159                                                      ; call occurs [#_IRQ_globalRestore] ; |283| 
    1160                      .dwpsn  file "F:/eZdsp_DBG/tmp1/c55x-sim2/foo/c5535_bsl_revc/ezdsp5535_v1/c55xx_csl/inc/csl_usbAux.h"
    1161 000230 4A03          B $C$L5   ; |284| 
    1162                                                      ; branch occurs ; |284| 
    1163 000232       $C$L4:    
    1164                      .dwpsn  file "F:/eZdsp_DBG/tmp1/c55x-sim2/foo/c5535_bsl_revc/ezdsp5535_v1/c55xx_csl/inc/csl_usbAux.h"
    1165 000232 E60E          MOV #-6, *SP(#7) ; |287| 
         000234 FA   
    1166 000235       $C$L5:    
    1167                      .dwpsn  file "F:/eZdsp_DBG/tmp1/c55x-sim2/foo/c5535_bsl_revc/ezdsp5535_v1/c55xx_csl/inc/csl_usbAux.h"
    1168 000235 A40E          MOV *SP(#7), T0 ; |290| 
    1169                      .dwpsn  file "F:/eZdsp_DBG/tmp1/c55x-sim2/foo/c5535_bsl_revc/ezdsp5535_v1/c55xx_csl/inc/csl_usbAux.h"
    1170 000237 4E09          AADD #9, SP
    1171                      .dwcfi  cfa_offset, 1
    1172              $C$DW$134       .dwtag  DW_TAG_TI_branch
    1173                      .dwattr $C$DW$134, DW_AT_low_pc(0x00)
    1174                      .dwattr $C$DW$134, DW_AT_TI_return
    1175 000239 4804          RET
    1176                                                      ; return occurs
    1177                      .dwattr $C$DW$123, DW_AT_TI_end_file("F:/eZdsp_DBG/tmp1/c55x-sim2/foo/c5535_bsl_revc/ezdsp5535_v1/c55
    1178                      .dwattr $C$DW$123, DW_AT_TI_end_line(0x123)
    1179                      .dwattr $C$DW$123, DW_AT_TI_end_column(0x01)
    1180                      .dwendentry
    1181                      .dwendtag $C$DW$123
    1182              
    1183 00023b               .sect   ".text"
    1184                      .align 4
    1185              
    1186              $C$DW$135       .dwtag  DW_TAG_subprogram, DW_AT_name("USB_dmaRxStart")
    1187                      .dwattr $C$DW$135, DW_AT_low_pc(_USB_dmaRxStart)
    1188                      .dwattr $C$DW$135, DW_AT_high_pc(0x00)
    1189                      .dwattr $C$DW$135, DW_AT_TI_symbol_name("_USB_dmaRxStart")
    1190                      .dwattr $C$DW$135, DW_AT_TI_begin_file("F:/eZdsp_DBG/tmp1/c55x-sim2/foo/c5535_bsl_revc/ezdsp5535_v1/c
    1191                      .dwattr $C$DW$135, DW_AT_TI_begin_line(0x180)
    1192                      .dwattr $C$DW$135, DW_AT_TI_begin_column(0x06)
    1193                      .dwattr $C$DW$135, DW_AT_TI_max_frame_size(0x04)
    1194                      .dwpsn  file "F:/eZdsp_DBG/tmp1/c55x-sim2/foo/c5535_bsl_revc/ezdsp5535_v1/c55xx_csl/inc/csl_usbAux.h"
    1195              
    1196                      .dwfde $C$DW$CIE, _USB_dmaRxStart
    1197              $C$DW$136       .dwtag  DW_TAG_formal_parameter, DW_AT_name("dwEndpoint")
    1198                      .dwattr $C$DW$136, DW_AT_TI_symbol_name("_dwEndpoint")
    1199                      .dwattr $C$DW$136, DW_AT_type(*$C$DW$T$88)
    1200                      .dwattr $C$DW$136, DW_AT_location[DW_OP_reg0]
    1201              ;*******************************************************************************
    1202              ;* FUNCTION NAME: USB_dmaRxStart                                               *
TMS320C55x Assembler PC v4.4.1 Sat Sep 29 23:08:40 2018

Tools Copyright (c) 1996-2012 Texas Instruments Incorporated
csl_usb_dma_example.asm                                              PAGE   26

    1203              ;*                                                                             *
    1204              ;*   Function Uses Regs : AC0,AC0,T0,AR1,AR3,SP,M40,SATA,SATD,RDM,FRCT,SMUL    *
    1205              ;*   Stack Frame        : Compact (No Frame Pointer, w/ debug)                 *
    1206              ;*   Total Frame Size   : 4 words                                              *
    1207              ;*                        (1 return address/alignment)                         *
    1208              ;*                        (3 local values)                                     *
    1209              ;*   Min System Stack   : 1 word                                               *
    1210              ;*******************************************************************************
    1211 00023c       _USB_dmaRxStart:
    1212                      .dwcfi  cfa_offset, 1
    1213                      .dwcfi  save_reg_to_mem, 91, -1
    1214 00023c 4EFD          AADD #-3, SP
    1215                      .dwcfi  cfa_offset, 4
    1216              $C$DW$137       .dwtag  DW_TAG_variable, DW_AT_name("dwEndpoint")
    1217                      .dwattr $C$DW$137, DW_AT_TI_symbol_name("_dwEndpoint")
    1218                      .dwattr $C$DW$137, DW_AT_type(*$C$DW$T$88)
    1219                      .dwattr $C$DW$137, DW_AT_location[DW_OP_bregx 0x24 0]
    1220              $C$DW$138       .dwtag  DW_TAG_variable, DW_AT_name("saveIndex")
    1221                      .dwattr $C$DW$138, DW_AT_TI_symbol_name("_saveIndex")
    1222                      .dwattr $C$DW$138, DW_AT_type(*$C$DW$T$19)
    1223                      .dwattr $C$DW$138, DW_AT_location[DW_OP_bregx 0x24 2]
    1224 00023e EB00          MOV AC0, dbl(*SP(#0)) ; |385| 
         000240 08   
    1225                      .dwpsn  file "F:/eZdsp_DBG/tmp1/c55x-sim2/foo/c5535_bsl_revc/ezdsp5535_v1/c55xx_csl/inc/csl_usbAux.h"
    1226 000241 7604          MOV #1038, T0 ; |389| 
         000243 0E48 
    1227 000245 AB31          MOV *(#_usbRegisters), AR3 ; |389| 
         000247 0000 
         000249 00!  
    1228 00024a A96B          MOV port(*AR3(T0)), AR1 ; |389| 
         00024c 99   
    1229 00024d C904          MOV AR1, *SP(#2) ; |389| 
    1230                      .dwpsn  file "F:/eZdsp_DBG/tmp1/c55x-sim2/foo/c5535_bsl_revc/ezdsp5535_v1/c55xx_csl/inc/csl_usbAux.h"
    1231 00024f F46B          AND #0xfff0, port(*AR3(T0)) ; |392| 
         000251 FFF0 
         000253 9A   
    1232                      .dwpsn  file "F:/eZdsp_DBG/tmp1/c55x-sim2/foo/c5535_bsl_revc/ezdsp5535_v1/c55xx_csl/inc/csl_usbAux.h"
    1233 000254 AB31          MOV *(#_usbRegisters), AR3 ; |393| 
         000256 0000 
         000258 00!  
    1234 000259 ED00          MOV dbl(*SP(#0)), AC0 ; |393| 
         00025b 08   
    1235 00025c DA6B          OR port(*AR3(T0)), AC0, AC0 ; |393| 
         00025e 00   
         00025f 99   
    1236 000260 C06B          MOV AC0, port(*AR3(T0)) ; |393| 
         000262 9A   
    1237                      .dwpsn  file "F:/eZdsp_DBG/tmp1/c55x-sim2/foo/c5535_bsl_revc/ezdsp5535_v1/c55xx_csl/inc/csl_usbAux.h"
    1238 000263 7604          MOV #1046, T0 ; |396| 
         000265 1648 
    1239 000267 AB31          MOV *(#_usbRegisters), AR3 ; |396| 
         000269 0000 
         00026b 00!  
    1240 00026c F46B          AND #0x6fff, port(*AR3(T0)) ; |396| 
         00026e 6FFF 
TMS320C55x Assembler PC v4.4.1 Sat Sep 29 23:08:40 2018

Tools Copyright (c) 1996-2012 Texas Instruments Incorporated
csl_usb_dma_example.asm                                              PAGE   27

         000270 9A   
    1241                      .dwpsn  file "F:/eZdsp_DBG/tmp1/c55x-sim2/foo/c5535_bsl_revc/ezdsp5535_v1/c55xx_csl/inc/csl_usbAux.h"
    1242 000271 AB31          MOV *(#_usbRegisters), AR3 ; |399| 
         000273 0000 
         000275 00!  
    1243 000276 F56B          OR #0x2000, port(*AR3(T0)) ; |399| 
         000278 2000 
         00027a 9A   
    1244                      .dwpsn  file "F:/eZdsp_DBG/tmp1/c55x-sim2/foo/c5535_bsl_revc/ezdsp5535_v1/c55xx_csl/inc/csl_usbAux.h"
    1245 00027b 7604          MOV #1038, T0 ; |402| 
         00027d 0E48 
    1246 00027f AB31          MOV *(#_usbRegisters), AR3 ; |402| 
         000281 0000 
         000283 00!  
    1247 000284 A904          MOV *SP(#2), AR1 ; |402| 
    1248 000286 C96B          MOV AR1, port(*AR3(T0)) ; |402| 
         000288 9A   
    1249                      .dwpsn  file "F:/eZdsp_DBG/tmp1/c55x-sim2/foo/c5535_bsl_revc/ezdsp5535_v1/c55xx_csl/inc/csl_usbAux.h"
    1250 000289 4E03          AADD #3, SP
    1251                      .dwcfi  cfa_offset, 1
    1252              $C$DW$139       .dwtag  DW_TAG_TI_branch
    1253                      .dwattr $C$DW$139, DW_AT_low_pc(0x00)
    1254                      .dwattr $C$DW$139, DW_AT_TI_return
    1255 00028b 4804          RET
    1256                                                      ; return occurs
    1257                      .dwattr $C$DW$135, DW_AT_TI_end_file("F:/eZdsp_DBG/tmp1/c55x-sim2/foo/c5535_bsl_revc/ezdsp5535_v1/c55
    1258                      .dwattr $C$DW$135, DW_AT_TI_end_line(0x193)
    1259                      .dwattr $C$DW$135, DW_AT_TI_end_column(0x01)
    1260                      .dwendentry
    1261                      .dwendtag $C$DW$135
    1262              
    1263 00028d               .sect   ".text"
    1264                      .align 4
    1265              
    1266              $C$DW$140       .dwtag  DW_TAG_subprogram, DW_AT_name("USB_confDmaTx")
    1267                      .dwattr $C$DW$140, DW_AT_low_pc(_USB_confDmaTx)
    1268                      .dwattr $C$DW$140, DW_AT_high_pc(0x00)
    1269                      .dwattr $C$DW$140, DW_AT_TI_symbol_name("_USB_confDmaTx")
    1270                      .dwattr $C$DW$140, DW_AT_type(*$C$DW$T$80)
    1271                      .dwattr $C$DW$140, DW_AT_TI_begin_file("F:/eZdsp_DBG/tmp1/c55x-sim2/foo/c5535_bsl_revc/ezdsp5535_v1/c
    1272                      .dwattr $C$DW$140, DW_AT_TI_begin_line(0x221)
    1273                      .dwattr $C$DW$140, DW_AT_TI_begin_column(0x0c)
    1274                      .dwattr $C$DW$140, DW_AT_TI_max_frame_size(0x0a)
    1275                      .dwpsn  file "F:/eZdsp_DBG/tmp1/c55x-sim2/foo/c5535_bsl_revc/ezdsp5535_v1/c55xx_csl/inc/csl_usbAux.h"
    1276              
    1277                      .dwfde $C$DW$CIE, _USB_confDmaTx
    1278              $C$DW$141       .dwtag  DW_TAG_formal_parameter, DW_AT_name("hpdtx")
    1279                      .dwattr $C$DW$141, DW_AT_TI_symbol_name("_hpdtx")
    1280                      .dwattr $C$DW$141, DW_AT_type(*$C$DW$T$170)
    1281                      .dwattr $C$DW$141, DW_AT_location[DW_OP_reg17]
    1282              $C$DW$142       .dwtag  DW_TAG_formal_parameter, DW_AT_name("packetsize")
    1283                      .dwattr $C$DW$142, DW_AT_TI_symbol_name("_packetsize")
    1284                      .dwattr $C$DW$142, DW_AT_type(*$C$DW$T$70)
    1285                      .dwattr $C$DW$142, DW_AT_location[DW_OP_reg0]
    1286              $C$DW$143       .dwtag  DW_TAG_formal_parameter, DW_AT_name("pTxBuffer")
TMS320C55x Assembler PC v4.4.1 Sat Sep 29 23:08:40 2018

Tools Copyright (c) 1996-2012 Texas Instruments Incorporated
csl_usb_dma_example.asm                                              PAGE   28

    1287                      .dwattr $C$DW$143, DW_AT_TI_symbol_name("_pTxBuffer")
    1288                      .dwattr $C$DW$143, DW_AT_type(*$C$DW$T$102)
    1289                      .dwattr $C$DW$143, DW_AT_location[DW_OP_reg19]
    1290              $C$DW$144       .dwtag  DW_TAG_formal_parameter, DW_AT_name("swapWords")
    1291                      .dwattr $C$DW$144, DW_AT_TI_symbol_name("_swapWords")
    1292                      .dwattr $C$DW$144, DW_AT_type(*$C$DW$T$86)
    1293                      .dwattr $C$DW$144, DW_AT_location[DW_OP_reg12]
    1294              ;*******************************************************************************
    1295              ;* FUNCTION NAME: USB_confDmaTx                                                *
    1296              ;*                                                                             *
    1297              ;*   Function Uses Regs : AC0,AC0,T0,AR0,XAR0,AR1,XAR1,AR2,AR3,XAR3,SP,CARRY,  *
    1298              ;*                        TC1,M40,SATA,SATD,RDM,FRCT,SMUL                      *
    1299              ;*   Stack Frame        : Compact (No Frame Pointer, w/ debug)                 *
    1300              ;*   Total Frame Size   : 10 words                                             *
    1301              ;*                        (1 return address/alignment)                         *
    1302              ;*                        (9 local values)                                     *
    1303              ;*   Min System Stack   : 1 word                                               *
    1304              ;*******************************************************************************
    1305 000290       _USB_confDmaTx:
    1306                      .dwcfi  cfa_offset, 1
    1307                      .dwcfi  save_reg_to_mem, 91, -1
    1308 000290 4EF7          AADD #-9, SP
    1309                      .dwcfi  cfa_offset, 10
    1310              $C$DW$145       .dwtag  DW_TAG_variable, DW_AT_name("hpdtx")
    1311                      .dwattr $C$DW$145, DW_AT_TI_symbol_name("_hpdtx")
    1312                      .dwattr $C$DW$145, DW_AT_type(*$C$DW$T$170)
    1313                      .dwattr $C$DW$145, DW_AT_location[DW_OP_bregx 0x24 0]
    1314              $C$DW$146       .dwtag  DW_TAG_variable, DW_AT_name("packetsize")
    1315                      .dwattr $C$DW$146, DW_AT_TI_symbol_name("_packetsize")
    1316                      .dwattr $C$DW$146, DW_AT_type(*$C$DW$T$70)
    1317                      .dwattr $C$DW$146, DW_AT_location[DW_OP_bregx 0x24 2]
    1318              $C$DW$147       .dwtag  DW_TAG_variable, DW_AT_name("pTxBuffer")
    1319                      .dwattr $C$DW$147, DW_AT_TI_symbol_name("_pTxBuffer")
    1320                      .dwattr $C$DW$147, DW_AT_type(*$C$DW$T$102)
    1321                      .dwattr $C$DW$147, DW_AT_location[DW_OP_bregx 0x24 4]
    1322              $C$DW$148       .dwtag  DW_TAG_variable, DW_AT_name("swapWords")
    1323                      .dwattr $C$DW$148, DW_AT_TI_symbol_name("_swapWords")
    1324                      .dwattr $C$DW$148, DW_AT_type(*$C$DW$T$86)
    1325                      .dwattr $C$DW$148, DW_AT_location[DW_OP_bregx 0x24 6]
    1326              $C$DW$149       .dwtag  DW_TAG_variable, DW_AT_name("status")
    1327                      .dwattr $C$DW$149, DW_AT_TI_symbol_name("_status")
    1328                      .dwattr $C$DW$149, DW_AT_type(*$C$DW$T$80)
    1329                      .dwattr $C$DW$149, DW_AT_location[DW_OP_bregx 0x24 7]
    1330              $C$DW$150       .dwtag  DW_TAG_variable, DW_AT_name("value")
    1331                      .dwattr $C$DW$150, DW_AT_TI_symbol_name("_value")
    1332                      .dwattr $C$DW$150, DW_AT_type(*$C$DW$T$86)
    1333                      .dwattr $C$DW$150, DW_AT_location[DW_OP_bregx 0x24 8]
    1334 000292 C40C          MOV T0, *SP(#6) ; |549| 
    1335 000294 EB08          MOV XAR1, dbl(*SP(#4))
         000296 95   
    1336 000297 EB04          MOV AC0, dbl(*SP(#2)) ; |549| 
         000299 08   
    1337 00029a EB00          MOV XAR0, dbl(*SP(#0))
         00029c 85   
    1338                      .dwpsn  file "F:/eZdsp_DBG/tmp1/c55x-sim2/foo/c5535_bsl_revc/ezdsp5535_v1/c55xx_csl/inc/csl_usbAux.h"
TMS320C55x Assembler PC v4.4.1 Sat Sep 29 23:08:40 2018

Tools Copyright (c) 1996-2012 Texas Instruments Incorporated
csl_usb_dma_example.asm                                              PAGE   29

    1339 00029d E60E          MOV #0, *SP(#7) ; |553| 
         00029f 00   
    1340                      .dwpsn  file "F:/eZdsp_DBG/tmp1/c55x-sim2/foo/c5535_bsl_revc/ezdsp5535_v1/c55xx_csl/inc/csl_usbAux.h"
    1341 0002a0 ED00          MOV dbl(*SP(#0)), XAR3
         0002a2 BF   
    1342 0002a3 90B0          MOV XAR3, AC0
    1343 0002a5 6D00          BCC $C$L7,AC0 == #0 ; |555| 
         0002a7 00C3 
    1344                                                      ; branchcc occurs ; |555| 
    1345 0002a9 ED08          MOV dbl(*SP(#4)), XAR3
         0002ab BF   
    1346 0002ac 90B0          MOV XAR3, AC0
    1347 0002ae 6D00          BCC $C$L7,AC0 == #0 ; |555| 
         0002b0 00BA 
    1348                                                      ; branchcc occurs ; |555| 
    1349                      .dwpsn  file "F:/eZdsp_DBG/tmp1/c55x-sim2/foo/c5535_bsl_revc/ezdsp5535_v1/c55xx_csl/inc/csl_usbAux.h"
    1350              
    1351 0002b4 3D1A          MOV #1, AR2
    1352 0002b2 A90C  ||      MOV *SP(#6), AR1 ; |558| 
    1353              
    1354 0002b6 12AC          CMP AR2 != AR1, TC1 ; |558| 
         0002b8 90   
    1355 0002b9 65E4          BCC $C$L6,TC1 ; |558| 
    1356                                                      ; branchcc occurs ; |558| 
    1357                      .dwpsn  file "F:/eZdsp_DBG/tmp1/c55x-sim2/foo/c5535_bsl_revc/ezdsp5535_v1/c55xx_csl/inc/csl_usbAux.h"
    1358 0002bb ED08          MOV dbl(*SP(#4)), XAR0
         0002bd 8F   
    1359 0002be ED04          MOV dbl(*SP(#2)), AC0 ; |566| 
         0002c0 08   
    1360              $C$DW$151       .dwtag  DW_TAG_TI_branch
    1361                      .dwattr $C$DW$151, DW_AT_low_pc(0x00)
    1362                      .dwattr $C$DW$151, DW_AT_name("_USB_swapWords")
    1363                      .dwattr $C$DW$151, DW_AT_TI_call
    1364              
    1365 0002c1 08FD          CALL #_USB_swapWords ; |566| 
         0002c3 3A   
    1366 0002c4 5101  ||      SFTL AC0, #-1, AC0 ; |566| 
    1367              
    1368                                                      ; call occurs [#_USB_swapWords] ; |566| 
    1369 0002c6       $C$L6:    
    1370                      .dwpsn  file "F:/eZdsp_DBG/tmp1/c55x-sim2/foo/c5535_bsl_revc/ezdsp5535_v1/c55xx_csl/inc/csl_usbAux.h"
    1371 0002c6 ED00          MOV dbl(*SP(#0)), XAR3
         0002c8 BF   
    1372 0002c9 ED04          MOV dbl(*SP(#2)), AC0 ; |570| 
         0002cb 08   
    1373 0002cc EC3E          BSET @#31, AC0 ; |570| 
         0002ce 00   
    1374 0002cf EB61          MOV AC0, dbl(*AR3) ; |570| 
         0002d1 08   
    1375                      .dwpsn  file "F:/eZdsp_DBG/tmp1/c55x-sim2/foo/c5535_bsl_revc/ezdsp5535_v1/c55xx_csl/inc/csl_usbAux.h"
    1376 0002d2 ED00          MOV dbl(*SP(#0)), XAR3
         0002d4 BF   
    1377 0002d5 3C00          MOV #0, AC0 ; |572| 
    1378 0002d7 EB75          MOV AC0, dbl(*AR3(short(#2))) ; |572| 
         0002d9 08   
TMS320C55x Assembler PC v4.4.1 Sat Sep 29 23:08:40 2018

Tools Copyright (c) 1996-2012 Texas Instruments Incorporated
csl_usb_dma_example.asm                                              PAGE   30

    1379                      .dwpsn  file "F:/eZdsp_DBG/tmp1/c55x-sim2/foo/c5535_bsl_revc/ezdsp5535_v1/c55xx_csl/inc/csl_usbAux.h"
    1380 0002da ED00          MOV dbl(*SP(#0)), XAR3
         0002dc BF   
    1381 0002dd 7A14          MOV #5120 << #16, AC0 ; |577| 
         0002df 000A 
    1382 0002e1 1A18          OR #0x0018, AC0, AC0 ; |577| 
         0002e3 00   
    1383 0002e4 EB79          MOV AC0, dbl(*AR3(short(#4))) ; |577| 
         0002e6 08   
    1384                      .dwpsn  file "F:/eZdsp_DBG/tmp1/c55x-sim2/foo/c5535_bsl_revc/ezdsp5535_v1/c55xx_csl/inc/csl_usbAux.h"
    1385 0002e7 ED00          MOV dbl(*SP(#0)), XAR3
         0002e9 BF   
    1386 0002ea ED04          MOV dbl(*SP(#2)), AC0 ; |578| 
         0002ec 08   
    1387 0002ed EB7D          MOV AC0, dbl(*AR3(short(#6))) ; |578| 
         0002ef 08   
    1388                      .dwpsn  file "F:/eZdsp_DBG/tmp1/c55x-sim2/foo/c5535_bsl_revc/ezdsp5535_v1/c55xx_csl/inc/csl_usbAux.h"
    1389 0002f0 ED08          MOV dbl(*SP(#4)), XAR3
         0002f2 BF   
    1390 0002f3 90B0          MOV XAR3, AC0
    1391 0002f5 ED00          MOV dbl(*SP(#0)), XAR3
         0002f7 BF   
    1392 0002f8 5000          SFTL AC0, #1 ; |581| 
    1393 0002fa EC26          BSET @#19, AC0 ; |581| 
         0002fc 00   
    1394 0002fd EB6D          MOV AC0, dbl(*AR3(#8)) ; |581| 
         0002ff 0800 
         000301 08   
    1395                      .dwpsn  file "F:/eZdsp_DBG/tmp1/c55x-sim2/foo/c5535_bsl_revc/ezdsp5535_v1/c55xx_csl/inc/csl_usbAux.h"
    1396 000302 ED00          MOV dbl(*SP(#0)), XAR3
         000304 BF   
    1397 000305 3C00          MOV #0, AC0 ; |584| 
    1398 000307 EB6D          MOV AC0, dbl(*AR3(#10)) ; |584| 
         000309 0800 
         00030b 0A   
    1399                      .dwpsn  file "F:/eZdsp_DBG/tmp1/c55x-sim2/foo/c5535_bsl_revc/ezdsp5535_v1/c55xx_csl/inc/csl_usbAux.h"
    1400 00030c ED00          MOV dbl(*SP(#0)), XAR3
         00030e BF   
    1401 00030f ED04          MOV dbl(*SP(#2)), AC0 ; |585| 
         000311 08   
    1402 000312 EB6D          MOV AC0, dbl(*AR3(#12)) ; |585| 
         000314 0800 
         000316 0C   
    1403                      .dwpsn  file "F:/eZdsp_DBG/tmp1/c55x-sim2/foo/c5535_bsl_revc/ezdsp5535_v1/c55xx_csl/inc/csl_usbAux.h"
    1404 000317 ED08          MOV dbl(*SP(#4)), XAR3
         000319 BF   
    1405 00031a 90B0          MOV XAR3, AC0
    1406 00031c ED00          MOV dbl(*SP(#0)), XAR3
         00031e BF   
    1407 00031f 5000          SFTL AC0, #1 ; |588| 
    1408 000321 EC26          BSET @#19, AC0 ; |588| 
         000323 00   
    1409 000324 EB6D          MOV AC0, dbl(*AR3(#14)) ; |588| 
         000326 0800 
         000328 0E   
TMS320C55x Assembler PC v4.4.1 Sat Sep 29 23:08:40 2018

Tools Copyright (c) 1996-2012 Texas Instruments Incorporated
csl_usb_dma_example.asm                                              PAGE   31

    1410                      .dwpsn  file "F:/eZdsp_DBG/tmp1/c55x-sim2/foo/c5535_bsl_revc/ezdsp5535_v1/c55xx_csl/inc/csl_usbAux.h"
    1411              $C$DW$152       .dwtag  DW_TAG_TI_branch
    1412                      .dwattr $C$DW$152, DW_AT_low_pc(0x00)
    1413                      .dwattr $C$DW$152, DW_AT_name("_IRQ_globalDisable")
    1414                      .dwattr $C$DW$152, DW_AT_TI_call
    1415 000329 6C00          CALL #_IRQ_globalDisable ; |592| 
         00032b 0000!
    1416                                                      ; call occurs [#_IRQ_globalDisable] ; |592| 
    1417 00032d C410          MOV T0, *SP(#8) ; |592| 
    1418                      .dwpsn  file "F:/eZdsp_DBG/tmp1/c55x-sim2/foo/c5535_bsl_revc/ezdsp5535_v1/c55xx_csl/inc/csl_usbAux.h"
    1419 00032f 7661          MOV #24844, T0 ; |594| 
         000331 0C48 
    1420 000333 ED00          MOV dbl(*SP(#0)), XAR3
         000335 BF   
    1421 000336 90B0          MOV XAR3, AC0
    1422 000338 AB31          MOV *(#_usbRegisters), AR3 ; |594| 
         00033a 0000 
         00033c 00!  
    1423 00033d 5000          SFTL AC0, #1 ; |594| 
    1424 00033f 7DFF          AND #0xffff, AC0, AC0 ; |594| 
         000341 FF00 
    1425 000343 EC02          BSET @#1, AC0 ; |594| 
         000345 00   
    1426 000346 C06B          MOV AC0, port(*AR3(T0)) ; |594| 
         000348 9A   
    1427                      .dwpsn  file "F:/eZdsp_DBG/tmp1/c55x-sim2/foo/c5535_bsl_revc/ezdsp5535_v1/c55xx_csl/inc/csl_usbAux.h"
    1428 000349 7661          MOV #24845, T0 ; |596| 
         00034b 0D48 
    1429 00034d ED00          MOV dbl(*SP(#0)), XAR3
         00034f BF   
    1430 000350 90B0          MOV XAR3, AC0
    1431 000352 AB31          MOV *(#_usbRegisters), AR3 ; |596| 
         000354 0000 
         000356 00!  
    1432 000357 1005          SFTS AC0, #-15, AC0 ; |596| 
         000359 31   
    1433 00035a 7DFF          AND #0xffff, AC0, AC0 ; |596| 
         00035c FF00 
    1434 00035e EC06          BSET @#3, AC0 ; |596| 
         000360 00   
    1435 000361 C06B          MOV AC0, port(*AR3(T0)) ; |596| 
         000363 9A   
    1436                      .dwpsn  file "F:/eZdsp_DBG/tmp1/c55x-sim2/foo/c5535_bsl_revc/ezdsp5535_v1/c55xx_csl/inc/csl_usbAux.h"
    1437 000364 A410          MOV *SP(#8), T0 ; |599| 
    1438              $C$DW$153       .dwtag  DW_TAG_TI_branch
    1439                      .dwattr $C$DW$153, DW_AT_low_pc(0x00)
    1440                      .dwattr $C$DW$153, DW_AT_name("_IRQ_globalRestore")
    1441                      .dwattr $C$DW$153, DW_AT_TI_call
    1442 000366 6C00          CALL #_IRQ_globalRestore ; |599| 
         000368 0000!
    1443                                                      ; call occurs [#_IRQ_globalRestore] ; |599| 
    1444                      .dwpsn  file "F:/eZdsp_DBG/tmp1/c55x-sim2/foo/c5535_bsl_revc/ezdsp5535_v1/c55xx_csl/inc/csl_usbAux.h"
    1445 00036a 4A03          B $C$L8   ; |600| 
    1446                                                      ; branch occurs ; |600| 
    1447 00036c       $C$L7:    
TMS320C55x Assembler PC v4.4.1 Sat Sep 29 23:08:40 2018

Tools Copyright (c) 1996-2012 Texas Instruments Incorporated
csl_usb_dma_example.asm                                              PAGE   32

    1448                      .dwpsn  file "F:/eZdsp_DBG/tmp1/c55x-sim2/foo/c5535_bsl_revc/ezdsp5535_v1/c55xx_csl/inc/csl_usbAux.h"
    1449 00036c E60E          MOV #-6, *SP(#7) ; |603| 
         00036e FA   
    1450 00036f       $C$L8:    
    1451                      .dwpsn  file "F:/eZdsp_DBG/tmp1/c55x-sim2/foo/c5535_bsl_revc/ezdsp5535_v1/c55xx_csl/inc/csl_usbAux.h"
    1452 00036f A40E          MOV *SP(#7), T0 ; |606| 
    1453                      .dwpsn  file "F:/eZdsp_DBG/tmp1/c55x-sim2/foo/c5535_bsl_revc/ezdsp5535_v1/c55xx_csl/inc/csl_usbAux.h"
    1454 000371 4E09          AADD #9, SP
    1455                      .dwcfi  cfa_offset, 1
    1456              $C$DW$154       .dwtag  DW_TAG_TI_branch
    1457                      .dwattr $C$DW$154, DW_AT_low_pc(0x00)
    1458                      .dwattr $C$DW$154, DW_AT_TI_return
    1459 000373 4804          RET
    1460                                                      ; return occurs
    1461                      .dwattr $C$DW$140, DW_AT_TI_end_file("F:/eZdsp_DBG/tmp1/c55x-sim2/foo/c5535_bsl_revc/ezdsp5535_v1/c55
    1462                      .dwattr $C$DW$140, DW_AT_TI_end_line(0x25f)
    1463                      .dwattr $C$DW$140, DW_AT_TI_end_column(0x01)
    1464                      .dwendentry
    1465                      .dwendtag $C$DW$140
    1466              
    1467 000375               .sect   ".text"
    1468                      .align 4
    1469              
    1470              $C$DW$155       .dwtag  DW_TAG_subprogram, DW_AT_name("USB_dmaRxStop")
    1471                      .dwattr $C$DW$155, DW_AT_low_pc(_USB_dmaRxStop)
    1472                      .dwattr $C$DW$155, DW_AT_high_pc(0x00)
    1473                      .dwattr $C$DW$155, DW_AT_TI_symbol_name("_USB_dmaRxStop")
    1474                      .dwattr $C$DW$155, DW_AT_TI_begin_file("F:/eZdsp_DBG/tmp1/c55x-sim2/foo/c5535_bsl_revc/ezdsp5535_v1/c
    1475                      .dwattr $C$DW$155, DW_AT_TI_begin_line(0x28f)
    1476                      .dwattr $C$DW$155, DW_AT_TI_begin_column(0x06)
    1477                      .dwattr $C$DW$155, DW_AT_TI_max_frame_size(0x0a)
    1478                      .dwpsn  file "F:/eZdsp_DBG/tmp1/c55x-sim2/foo/c5535_bsl_revc/ezdsp5535_v1/c55xx_csl/inc/csl_usbAux.h"
    1479              
    1480                      .dwfde $C$DW$CIE, _USB_dmaRxStop
    1481              $C$DW$156       .dwtag  DW_TAG_formal_parameter, DW_AT_name("dwEndpoint")
    1482                      .dwattr $C$DW$156, DW_AT_TI_symbol_name("_dwEndpoint")
    1483                      .dwattr $C$DW$156, DW_AT_type(*$C$DW$T$88)
    1484                      .dwattr $C$DW$156, DW_AT_location[DW_OP_reg0]
    1485              $C$DW$157       .dwtag  DW_TAG_formal_parameter, DW_AT_name("pRxBuffer")
    1486                      .dwattr $C$DW$157, DW_AT_TI_symbol_name("_pRxBuffer")
    1487                      .dwattr $C$DW$157, DW_AT_type(*$C$DW$T$102)
    1488                      .dwattr $C$DW$157, DW_AT_location[DW_OP_reg17]
    1489              $C$DW$158       .dwtag  DW_TAG_formal_parameter, DW_AT_name("packetsize")
    1490                      .dwattr $C$DW$158, DW_AT_TI_symbol_name("_packetsize")
    1491                      .dwattr $C$DW$158, DW_AT_type(*$C$DW$T$70)
    1492                      .dwattr $C$DW$158, DW_AT_location[DW_OP_reg3]
    1493              $C$DW$159       .dwtag  DW_TAG_formal_parameter, DW_AT_name("swapWords")
    1494                      .dwattr $C$DW$159, DW_AT_TI_symbol_name("_swapWords")
    1495                      .dwattr $C$DW$159, DW_AT_type(*$C$DW$T$86)
    1496                      .dwattr $C$DW$159, DW_AT_location[DW_OP_reg12]
    1497              ;*******************************************************************************
    1498              ;* FUNCTION NAME: USB_dmaRxStop                                                *
    1499              ;*                                                                             *
    1500              ;*   Function Uses Regs : AC0,AC0,AC1,AC1,T0,AR0,XAR0,AR1,AR3,SP,CARRY,TC1,M40,*
    1501              ;*                        SATA,SATD,RDM,FRCT,SMUL                              *
TMS320C55x Assembler PC v4.4.1 Sat Sep 29 23:08:40 2018

Tools Copyright (c) 1996-2012 Texas Instruments Incorporated
csl_usb_dma_example.asm                                              PAGE   33

    1502              ;*   Stack Frame        : Compact (No Frame Pointer, w/ debug)                 *
    1503              ;*   Total Frame Size   : 10 words                                             *
    1504              ;*                        (2 return address/alignment)                         *
    1505              ;*                        (8 local values)                                     *
    1506              ;*   Min System Stack   : 1 word                                               *
    1507              ;*******************************************************************************
    1508 000378       _USB_dmaRxStop:
    1509                      .dwcfi  cfa_offset, 1
    1510                      .dwcfi  save_reg_to_mem, 91, -1
    1511 000378 4EF7          AADD #-9, SP
    1512                      .dwcfi  cfa_offset, 10
    1513              $C$DW$160       .dwtag  DW_TAG_variable, DW_AT_name("dwEndpoint")
    1514                      .dwattr $C$DW$160, DW_AT_TI_symbol_name("_dwEndpoint")
    1515                      .dwattr $C$DW$160, DW_AT_type(*$C$DW$T$88)
    1516                      .dwattr $C$DW$160, DW_AT_location[DW_OP_bregx 0x24 0]
    1517              $C$DW$161       .dwtag  DW_TAG_variable, DW_AT_name("pRxBuffer")
    1518                      .dwattr $C$DW$161, DW_AT_TI_symbol_name("_pRxBuffer")
    1519                      .dwattr $C$DW$161, DW_AT_type(*$C$DW$T$102)
    1520                      .dwattr $C$DW$161, DW_AT_location[DW_OP_bregx 0x24 2]
    1521              $C$DW$162       .dwtag  DW_TAG_variable, DW_AT_name("packetsize")
    1522                      .dwattr $C$DW$162, DW_AT_TI_symbol_name("_packetsize")
    1523                      .dwattr $C$DW$162, DW_AT_type(*$C$DW$T$70)
    1524                      .dwattr $C$DW$162, DW_AT_location[DW_OP_bregx 0x24 4]
    1525              $C$DW$163       .dwtag  DW_TAG_variable, DW_AT_name("swapWords")
    1526                      .dwattr $C$DW$163, DW_AT_TI_symbol_name("_swapWords")
    1527                      .dwattr $C$DW$163, DW_AT_type(*$C$DW$T$86)
    1528                      .dwattr $C$DW$163, DW_AT_location[DW_OP_bregx 0x24 6]
    1529              $C$DW$164       .dwtag  DW_TAG_variable, DW_AT_name("saveIndex")
    1530                      .dwattr $C$DW$164, DW_AT_TI_symbol_name("_saveIndex")
    1531                      .dwattr $C$DW$164, DW_AT_type(*$C$DW$T$19)
    1532                      .dwattr $C$DW$164, DW_AT_location[DW_OP_bregx 0x24 7]
    1533 00037a C40C          MOV T0, *SP(#6) ; |659| 
    1534 00037c EB08          MOV AC1, dbl(*SP(#4)) ; |659| 
         00037e 18   
    1535 00037f EB04          MOV XAR0, dbl(*SP(#2))
         000381 85   
    1536 000382 EB00          MOV AC0, dbl(*SP(#0)) ; |659| 
         000384 08   
    1537                      .dwpsn  file "F:/eZdsp_DBG/tmp1/c55x-sim2/foo/c5535_bsl_revc/ezdsp5535_v1/c55xx_csl/inc/csl_usbAux.h"
    1538 000385 E60E          MOV #0, *SP(#7) ; |660| 
         000387 00   
    1539                      .dwpsn  file "F:/eZdsp_DBG/tmp1/c55x-sim2/foo/c5535_bsl_revc/ezdsp5535_v1/c55xx_csl/inc/csl_usbAux.h"
    1540 000388 AB31          MOV *(#_usbRegisters), AR3 ; |663| 
         00038a 0000 
         00038c 00!  
    1541 00038d 7604          MOV #1038, T0 ; |663| 
         00038f 0E48 
    1542 000391 A96B          MOV port(*AR3(T0)), AR1 ; |663| 
         000393 99   
    1543 000394 C90E          MOV AR1, *SP(#7) ; |663| 
    1544                      .dwpsn  file "F:/eZdsp_DBG/tmp1/c55x-sim2/foo/c5535_bsl_revc/ezdsp5535_v1/c55xx_csl/inc/csl_usbAux.h"
    1545 000396 F46B          AND #0xfff0, port(*AR3(T0)) ; |666| 
         000398 FFF0 
         00039a 9A   
    1546                      .dwpsn  file "F:/eZdsp_DBG/tmp1/c55x-sim2/foo/c5535_bsl_revc/ezdsp5535_v1/c55xx_csl/inc/csl_usbAux.h"
TMS320C55x Assembler PC v4.4.1 Sat Sep 29 23:08:40 2018

Tools Copyright (c) 1996-2012 Texas Instruments Incorporated
csl_usb_dma_example.asm                                              PAGE   34

    1547 00039b AB31          MOV *(#_usbRegisters), AR3 ; |667| 
         00039d 0000 
         00039f 00!  
    1548 0003a0 ED00          MOV dbl(*SP(#0)), AC0 ; |667| 
         0003a2 08   
    1549 0003a3 DA6B          OR port(*AR3(T0)), AC0, AC0 ; |667| 
         0003a5 00   
         0003a6 99   
    1550 0003a7 C06B          MOV AC0, port(*AR3(T0)) ; |667| 
         0003a9 9A   
    1551                      .dwpsn  file "F:/eZdsp_DBG/tmp1/c55x-sim2/foo/c5535_bsl_revc/ezdsp5535_v1/c55xx_csl/inc/csl_usbAux.h"
    1552 0003aa 7604          MOV #1046, T0 ; |669| 
         0003ac 1648 
    1553 0003ae AB31          MOV *(#_usbRegisters), AR3 ; |669| 
         0003b0 0000 
         0003b2 00!  
    1554 0003b3 F46B          AND #0xdfff, port(*AR3(T0)) ; |669| 
         0003b5 DFFF 
         0003b7 9A   
    1555                      .dwpsn  file "F:/eZdsp_DBG/tmp1/c55x-sim2/foo/c5535_bsl_revc/ezdsp5535_v1/c55xx_csl/inc/csl_usbAux.h"
    1556 0003b8 7604          MOV #1038, T0 ; |672| 
         0003ba 0E48 
    1557 0003bc AB31          MOV *(#_usbRegisters), AR3 ; |672| 
         0003be 0000 
         0003c0 00!  
    1558 0003c1 A90E          MOV *SP(#7), AR1 ; |672| 
    1559 0003c3 C96B          MOV AR1, port(*AR3(T0)) ; |672| 
         0003c5 9A   
    1560                      .dwpsn  file "F:/eZdsp_DBG/tmp1/c55x-sim2/foo/c5535_bsl_revc/ezdsp5535_v1/c55xx_csl/inc/csl_usbAux.h"
    1561 0003c6 F00C          CMP *SP(#6) == #1, TC1 ; |674| 
         0003c8 0001 
    1562 0003ca 65F4          BCC $C$L9,!TC1 ; |674| 
    1563                                                      ; branchcc occurs ; |674| 
    1564                      .dwpsn  file "F:/eZdsp_DBG/tmp1/c55x-sim2/foo/c5535_bsl_revc/ezdsp5535_v1/c55xx_csl/inc/csl_usbAux.h"
    1565 0003cc ED08          MOV dbl(*SP(#4)), AC0 ; |683| 
         0003ce 08   
    1566 0003cf ED04          MOV dbl(*SP(#2)), XAR0
         0003d1 8F   
    1567 0003d2 5001          SFTL AC0, #-1, AC0 ; |683| 
    1568              $C$DW$165       .dwtag  DW_TAG_TI_branch
    1569                      .dwattr $C$DW$165, DW_AT_low_pc(0x00)
    1570                      .dwattr $C$DW$165, DW_AT_name("_USB_swapWords")
    1571                      .dwattr $C$DW$165, DW_AT_TI_call
    1572 0003d4 08FC          CALL #_USB_swapWords ; |683| 
         0003d6 29   
    1573                                                      ; call occurs [#_USB_swapWords] ; |683| 
    1574                      .dwpsn  file "F:/eZdsp_DBG/tmp1/c55x-sim2/foo/c5535_bsl_revc/ezdsp5535_v1/c55xx_csl/inc/csl_usbAux.h"
    1575 0003d7       $C$L9:    
    1576 0003d7 4E09          AADD #9, SP
    1577                      .dwcfi  cfa_offset, 1
    1578              $C$DW$166       .dwtag  DW_TAG_TI_branch
    1579                      .dwattr $C$DW$166, DW_AT_low_pc(0x00)
    1580                      .dwattr $C$DW$166, DW_AT_TI_return
    1581 0003d9 4804          RET
    1582                                                      ; return occurs
TMS320C55x Assembler PC v4.4.1 Sat Sep 29 23:08:40 2018

Tools Copyright (c) 1996-2012 Texas Instruments Incorporated
csl_usb_dma_example.asm                                              PAGE   35

    1583                      .dwattr $C$DW$155, DW_AT_TI_end_file("F:/eZdsp_DBG/tmp1/c55x-sim2/foo/c5535_bsl_revc/ezdsp5535_v1/c55
    1584                      .dwattr $C$DW$155, DW_AT_TI_end_line(0x2ad)
    1585                      .dwattr $C$DW$155, DW_AT_TI_end_column(0x01)
    1586                      .dwendentry
    1587                      .dwendtag $C$DW$155
    1588              
    1589 0003db               .sect   ".text"
    1590                      .align 4
    1591              
    1592              $C$DW$167       .dwtag  DW_TAG_subprogram, DW_AT_name("USB_dmaTxStart")
    1593                      .dwattr $C$DW$167, DW_AT_low_pc(_USB_dmaTxStart)
    1594                      .dwattr $C$DW$167, DW_AT_high_pc(0x00)
    1595                      .dwattr $C$DW$167, DW_AT_TI_symbol_name("_USB_dmaTxStart")
    1596                      .dwattr $C$DW$167, DW_AT_TI_begin_file("F:/eZdsp_DBG/tmp1/c55x-sim2/foo/c5535_bsl_revc/ezdsp5535_v1/c
    1597                      .dwattr $C$DW$167, DW_AT_TI_begin_line(0x2da)
    1598                      .dwattr $C$DW$167, DW_AT_TI_begin_column(0x06)
    1599                      .dwattr $C$DW$167, DW_AT_TI_max_frame_size(0x04)
    1600                      .dwpsn  file "F:/eZdsp_DBG/tmp1/c55x-sim2/foo/c5535_bsl_revc/ezdsp5535_v1/c55xx_csl/inc/csl_usbAux.h"
    1601              
    1602                      .dwfde $C$DW$CIE, _USB_dmaTxStart
    1603              $C$DW$168       .dwtag  DW_TAG_formal_parameter, DW_AT_name("dwEndpoint")
    1604                      .dwattr $C$DW$168, DW_AT_TI_symbol_name("_dwEndpoint")
    1605                      .dwattr $C$DW$168, DW_AT_type(*$C$DW$T$88)
    1606                      .dwattr $C$DW$168, DW_AT_location[DW_OP_reg0]
    1607              ;*******************************************************************************
    1608              ;* FUNCTION NAME: USB_dmaTxStart                                               *
    1609              ;*                                                                             *
    1610              ;*   Function Uses Regs : AC0,AC0,T0,AR1,AR3,SP,M40,SATA,SATD,RDM,FRCT,SMUL    *
    1611              ;*   Stack Frame        : Compact (No Frame Pointer, w/ debug)                 *
    1612              ;*   Total Frame Size   : 4 words                                              *
    1613              ;*                        (1 return address/alignment)                         *
    1614              ;*                        (3 local values)                                     *
    1615              ;*   Min System Stack   : 1 word                                               *
    1616              ;*******************************************************************************
    1617 0003dc       _USB_dmaTxStart:
    1618                      .dwcfi  cfa_offset, 1
    1619                      .dwcfi  save_reg_to_mem, 91, -1
    1620 0003dc 4EFD          AADD #-3, SP
    1621                      .dwcfi  cfa_offset, 4
    1622              $C$DW$169       .dwtag  DW_TAG_variable, DW_AT_name("dwEndpoint")
    1623                      .dwattr $C$DW$169, DW_AT_TI_symbol_name("_dwEndpoint")
    1624                      .dwattr $C$DW$169, DW_AT_type(*$C$DW$T$88)
    1625                      .dwattr $C$DW$169, DW_AT_location[DW_OP_bregx 0x24 0]
    1626              $C$DW$170       .dwtag  DW_TAG_variable, DW_AT_name("saveIndex")
    1627                      .dwattr $C$DW$170, DW_AT_TI_symbol_name("_saveIndex")
    1628                      .dwattr $C$DW$170, DW_AT_type(*$C$DW$T$19)
    1629                      .dwattr $C$DW$170, DW_AT_location[DW_OP_bregx 0x24 2]
    1630 0003de EB00          MOV AC0, dbl(*SP(#0)) ; |731| 
         0003e0 08   
    1631                      .dwpsn  file "F:/eZdsp_DBG/tmp1/c55x-sim2/foo/c5535_bsl_revc/ezdsp5535_v1/c55xx_csl/inc/csl_usbAux.h"
    1632 0003e1 7604          MOV #1038, T0 ; |735| 
         0003e3 0E48 
    1633 0003e5 AB31          MOV *(#_usbRegisters), AR3 ; |735| 
         0003e7 0000 
         0003e9 00!  
TMS320C55x Assembler PC v4.4.1 Sat Sep 29 23:08:40 2018

Tools Copyright (c) 1996-2012 Texas Instruments Incorporated
csl_usb_dma_example.asm                                              PAGE   36

    1634 0003ea A96B          MOV port(*AR3(T0)), AR1 ; |735| 
         0003ec 99   
    1635 0003ed C904          MOV AR1, *SP(#2) ; |735| 
    1636                      .dwpsn  file "F:/eZdsp_DBG/tmp1/c55x-sim2/foo/c5535_bsl_revc/ezdsp5535_v1/c55xx_csl/inc/csl_usbAux.h"
    1637 0003ef F46B          AND #0xfff0, port(*AR3(T0)) ; |738| 
         0003f1 FFF0 
         0003f3 9A   
    1638                      .dwpsn  file "F:/eZdsp_DBG/tmp1/c55x-sim2/foo/c5535_bsl_revc/ezdsp5535_v1/c55xx_csl/inc/csl_usbAux.h"
    1639 0003f4 AB31          MOV *(#_usbRegisters), AR3 ; |739| 
         0003f6 0000 
         0003f8 00!  
    1640 0003f9 ED00          MOV dbl(*SP(#0)), AC0 ; |739| 
         0003fb 08   
    1641 0003fc DA6B          OR port(*AR3(T0)), AC0, AC0 ; |739| 
         0003fe 00   
         0003ff 99   
    1642 000400 C06B          MOV AC0, port(*AR3(T0)) ; |739| 
         000402 9A   
    1643                      .dwpsn  file "F:/eZdsp_DBG/tmp1/c55x-sim2/foo/c5535_bsl_revc/ezdsp5535_v1/c55xx_csl/inc/csl_usbAux.h"
    1644 000403 7604          MOV #1042, T0 ; |742| 
         000405 1248 
    1645 000407 AB31          MOV *(#_usbRegisters), AR3 ; |742| 
         000409 0000 
         00040b 00!  
    1646 00040c A96B          MOV port(*AR3(T0)), AR1 ; |742| 
         00040e 99   
    1647 00040f EC06          BCLR @#3, AR1 ; |742| 
         000411 92   
    1648 000412 EC06          BSET @#3, AR1 ; |742| 
         000414 90   
    1649 000415 C96B          MOV AR1, port(*AR3(T0)) ; |742| 
         000417 9A   
    1650                      .dwpsn  file "F:/eZdsp_DBG/tmp1/c55x-sim2/foo/c5535_bsl_revc/ezdsp5535_v1/c55xx_csl/inc/csl_usbAux.h"
    1651 000418 AB31          MOV *(#_usbRegisters), AR3 ; |745| 
         00041a 0000 
         00041c 00!  
    1652 00041d F46B          AND #0x7fff, port(*AR3(T0)) ; |745| 
         00041f 7FFF 
         000421 9A   
    1653                      .dwpsn  file "F:/eZdsp_DBG/tmp1/c55x-sim2/foo/c5535_bsl_revc/ezdsp5535_v1/c55xx_csl/inc/csl_usbAux.h"
    1654 000422 AB31          MOV *(#_usbRegisters), AR3 ; |746| 
         000424 0000 
         000426 00!  
    1655 000427 F56B          OR #0x1000, port(*AR3(T0)) ; |746| 
         000429 1000 
         00042b 9A   
    1656                      .dwpsn  file "F:/eZdsp_DBG/tmp1/c55x-sim2/foo/c5535_bsl_revc/ezdsp5535_v1/c55xx_csl/inc/csl_usbAux.h"
    1657 00042c AB31          MOV *(#_usbRegisters), AR3 ; |749| 
         00042e 0000 
         000430 00!  
    1658 000431 F56B          OR #0x1000, port(*AR3(T0)) ; |749| 
         000433 1000 
         000435 9A   
    1659                      .dwpsn  file "F:/eZdsp_DBG/tmp1/c55x-sim2/foo/c5535_bsl_revc/ezdsp5535_v1/c55xx_csl/inc/csl_usbAux.h"
    1660 000436 7604          MOV #1038, T0 ; |752| 
TMS320C55x Assembler PC v4.4.1 Sat Sep 29 23:08:40 2018

Tools Copyright (c) 1996-2012 Texas Instruments Incorporated
csl_usb_dma_example.asm                                              PAGE   37

         000438 0E48 
    1661 00043a AB31          MOV *(#_usbRegisters), AR3 ; |752| 
         00043c 0000 
         00043e 00!  
    1662 00043f A904          MOV *SP(#2), AR1 ; |752| 
    1663 000441 C96B          MOV AR1, port(*AR3(T0)) ; |752| 
         000443 9A   
    1664                      .dwpsn  file "F:/eZdsp_DBG/tmp1/c55x-sim2/foo/c5535_bsl_revc/ezdsp5535_v1/c55xx_csl/inc/csl_usbAux.h"
    1665 000444 4E03          AADD #3, SP
    1666                      .dwcfi  cfa_offset, 1
    1667              $C$DW$171       .dwtag  DW_TAG_TI_branch
    1668                      .dwattr $C$DW$171, DW_AT_low_pc(0x00)
    1669                      .dwattr $C$DW$171, DW_AT_TI_return
    1670 000446 4804          RET
    1671                                                      ; return occurs
    1672                      .dwattr $C$DW$167, DW_AT_TI_end_file("F:/eZdsp_DBG/tmp1/c55x-sim2/foo/c5535_bsl_revc/ezdsp5535_v1/c55
    1673                      .dwattr $C$DW$167, DW_AT_TI_end_line(0x2f1)
    1674                      .dwattr $C$DW$167, DW_AT_TI_end_column(0x01)
    1675                      .dwendentry
    1676                      .dwendtag $C$DW$167
    1677              
    1678 000448               .sect   ".text"
    1679                      .align 4
    1680              
    1681              $C$DW$172       .dwtag  DW_TAG_subprogram, DW_AT_name("USB_processEP0Out")
    1682                      .dwattr $C$DW$172, DW_AT_low_pc(_USB_processEP0Out)
    1683                      .dwattr $C$DW$172, DW_AT_high_pc(0x00)
    1684                      .dwattr $C$DW$172, DW_AT_TI_symbol_name("_USB_processEP0Out")
    1685                      .dwattr $C$DW$172, DW_AT_type(*$C$DW$T$80)
    1686                      .dwattr $C$DW$172, DW_AT_TI_begin_file("F:/eZdsp_DBG/tmp1/c55x-sim2/foo/c5535_bsl_revc/ezdsp5535_v1/c
    1687                      .dwattr $C$DW$172, DW_AT_TI_begin_line(0x511)
    1688                      .dwattr $C$DW$172, DW_AT_TI_begin_column(0x0c)
    1689                      .dwattr $C$DW$172, DW_AT_TI_max_frame_size(0x0a)
    1690                      .dwpsn  file "F:/eZdsp_DBG/tmp1/c55x-sim2/foo/c5535_bsl_revc/ezdsp5535_v1/c55xx_csl/inc/csl_usbAux.h"
    1691              
    1692                      .dwfde $C$DW$CIE, _USB_processEP0Out
    1693              $C$DW$173       .dwtag  DW_TAG_formal_parameter, DW_AT_name("pContext")
    1694                      .dwattr $C$DW$173, DW_AT_TI_symbol_name("_pContext")
    1695                      .dwattr $C$DW$173, DW_AT_type(*$C$DW$T$164)
    1696                      .dwattr $C$DW$173, DW_AT_location[DW_OP_reg17]
    1697              ;*******************************************************************************
    1698              ;* FUNCTION NAME: USB_processEP0Out                                            *
    1699              ;*                                                                             *
    1700              ;*   Function Uses Regs : AC0,AC0,AC1,AC1,T0,AR0,XAR0,AR1,XAR1,AR2,XAR2,AR3,   *
    1701              ;*                        XAR3,SP,CARRY,TC1,M40,SATA,SATD,RDM,FRCT,SMUL        *
    1702              ;*   Stack Frame        : Compact (No Frame Pointer, w/ debug)                 *
    1703              ;*   Total Frame Size   : 10 words                                             *
    1704              ;*                        (1 return address/alignment)                         *
    1705              ;*                        (9 local values)                                     *
    1706              ;*   Min System Stack   : 1 word                                               *
    1707              ;*******************************************************************************
    1708 000448       _USB_processEP0Out:
    1709                      .dwcfi  cfa_offset, 1
    1710                      .dwcfi  save_reg_to_mem, 91, -1
    1711 000448 4EF7          AADD #-9, SP
TMS320C55x Assembler PC v4.4.1 Sat Sep 29 23:08:40 2018

Tools Copyright (c) 1996-2012 Texas Instruments Incorporated
csl_usb_dma_example.asm                                              PAGE   38

    1712                      .dwcfi  cfa_offset, 10
    1713              $C$DW$174       .dwtag  DW_TAG_variable, DW_AT_name("pContext")
    1714                      .dwattr $C$DW$174, DW_AT_TI_symbol_name("_pContext")
    1715                      .dwattr $C$DW$174, DW_AT_type(*$C$DW$T$164)
    1716                      .dwattr $C$DW$174, DW_AT_location[DW_OP_bregx 0x24 0]
    1717              $C$DW$175       .dwtag  DW_TAG_variable, DW_AT_name("peps")
    1718                      .dwattr $C$DW$175, DW_AT_TI_symbol_name("_peps")
    1719                      .dwattr $C$DW$175, DW_AT_type(*$C$DW$T$168)
    1720                      .dwattr $C$DW$175, DW_AT_location[DW_OP_bregx 0x24 2]
    1721              $C$DW$176       .dwtag  DW_TAG_variable, DW_AT_name("pTransfer")
    1722                      .dwattr $C$DW$176, DW_AT_TI_symbol_name("_pTransfer")
    1723                      .dwattr $C$DW$176, DW_AT_type(*$C$DW$T$172)
    1724                      .dwattr $C$DW$176, DW_AT_location[DW_OP_bregx 0x24 4]
    1725              $C$DW$177       .dwtag  DW_TAG_variable, DW_AT_name("pwBuffer")
    1726                      .dwattr $C$DW$177, DW_AT_TI_symbol_name("_pwBuffer")
    1727                      .dwattr $C$DW$177, DW_AT_type(*$C$DW$T$87)
    1728                      .dwattr $C$DW$177, DW_AT_location[DW_OP_bregx 0x24 6]
    1729              $C$DW$178       .dwtag  DW_TAG_variable, DW_AT_name("status")
    1730                      .dwattr $C$DW$178, DW_AT_TI_symbol_name("_status")
    1731                      .dwattr $C$DW$178, DW_AT_type(*$C$DW$T$80)
    1732                      .dwattr $C$DW$178, DW_AT_location[DW_OP_bregx 0x24 8]
    1733 00044a EB00          MOV XAR0, dbl(*SP(#0))
         00044c 85   
    1734                      .dwpsn  file "F:/eZdsp_DBG/tmp1/c55x-sim2/foo/c5535_bsl_revc/ezdsp5535_v1/c55xx_csl/inc/csl_usbAux.h"
    1735 00044d E610          MOV #0, *SP(#8) ; |1304| 
         00044f 00   
    1736                      .dwpsn  file "F:/eZdsp_DBG/tmp1/c55x-sim2/foo/c5535_bsl_revc/ezdsp5535_v1/c55xx_csl/inc/csl_usbAux.h"
    1737 000450 ED00          MOV dbl(*SP(#0)), XAR3
         000452 BF   
    1738 000453 90B0          MOV XAR3, AC0
    1739 000455 6D00          BCC $C$L13,AC0 == #0 ; |1306| 
         000457 00A9 
    1740                                                      ; branchcc occurs ; |1306| 
    1741                      .dwpsn  file "F:/eZdsp_DBG/tmp1/c55x-sim2/foo/c5535_bsl_revc/ezdsp5535_v1/c55xx_csl/inc/csl_usbAux.h"
    1742 000459 ED6D          MOV dbl(*AR3(#98)), XAR3
         00045b BF00 
         00045d 62   
    1743 00045e EB04          MOV XAR3, dbl(*SP(#2))
         000460 B5   
    1744                      .dwpsn  file "F:/eZdsp_DBG/tmp1/c55x-sim2/foo/c5535_bsl_revc/ezdsp5535_v1/c55xx_csl/inc/csl_usbAux.h"
    1745 000461 ED6D          MOV dbl(*AR3(#10)), XAR3
         000463 BF00 
         000465 0A   
    1746 000466 EB08          MOV XAR3, dbl(*SP(#4))
         000468 B5   
    1747                      .dwpsn  file "F:/eZdsp_DBG/tmp1/c55x-sim2/foo/c5535_bsl_revc/ezdsp5535_v1/c55xx_csl/inc/csl_usbAux.h"
    1748 000469 90B0          MOV XAR3, AC0
    1749 00046b 6D00          BCC $C$L12,AC0 == #0 ; |1311| 
         00046d 008E 
    1750                                                      ; branchcc occurs ; |1311| 
    1751 00046f A96D          MOV *AR3(#12), AR1 ; |1311| 
         000471 000C 
    1752 000473 6D19          BCC $C$L12,AR1 != #0 ; |1311| 
         000475 0086 
    1753                                                      ; branchcc occurs ; |1311| 
TMS320C55x Assembler PC v4.4.1 Sat Sep 29 23:08:40 2018

Tools Copyright (c) 1996-2012 Texas Instruments Incorporated
csl_usb_dma_example.asm                                              PAGE   39

    1754                      .dwpsn  file "F:/eZdsp_DBG/tmp1/c55x-sim2/foo/c5535_bsl_revc/ezdsp5535_v1/c55xx_csl/inc/csl_usbAux.h"
    1755 000477 ED6D          MOV dbl(*AR3(#8)), AC0 ; |1314| 
         000479 0800 
         00047b 08   
    1756 00047c ED79          MOV dbl(*AR3(short(#4))), XAR3
         00047e BF   
    1757 00047f 5001          SFTL AC0, #-1 ; |1314| 
    1758 000481 2209          MOV AC0, AR1 ; |1314| 
    1759              
    1760 000483 8E0C          MOV XAR3, dbl(*SP(#6))
         000485 BB10 
         000487 B590 
    1761              ||      AADD AR1, AR3 ; |1314| 
    1762              
    1763                      .dwpsn  file "F:/eZdsp_DBG/tmp1/c55x-sim2/foo/c5535_bsl_revc/ezdsp5535_v1/c55xx_csl/inc/csl_usbAux.h"
    1764 000489 ED08          MOV dbl(*SP(#4)), XAR3
         00048b BF   
    1765 00048c ED7D          MOV dbl(*AR3(short(#6))), AC0 ; |1323| 
         00048e 08   
    1766 00048f ED00          MOV dbl(*SP(#0)), XAR3
         000491 BF   
    1767 000492 DF6D          MOV uns(*AR3(#24)), AC1 ; |1323| 
         000494 1500 
         000496 18   
    1768 000497 1218          CMPU AC1 >= AC0, TC1 ; |1323| 
         000499 04   
    1769 00049a 63E4          BCC $C$L10,TC1 ; |1323| 
    1770                                                      ; branchcc occurs ; |1323| 
    1771 00049c DF6D          MOV uns(*AR3(#24)), AC0 ; |1323| 
         00049e 0500 
         0004a0 18   
    1772 0004a1 4A06          B $C$L11  ; |1323| 
    1773                                                      ; branch occurs ; |1323| 
    1774 0004a3       $C$L10:    
    1775 0004a3 ED08          MOV dbl(*SP(#4)), XAR3
         0004a5 BF   
    1776 0004a6 ED7D          MOV dbl(*AR3(short(#6))), AC0 ; |1323| 
         0004a8 08   
    1777 0004a9       $C$L11:    
    1778 0004a9 ED08          MOV dbl(*SP(#4)), XAR3
         0004ab BF   
    1779 0004ac EB6D          MOV AC0, dbl(*AR3(#8)) ; |1323| 
         0004ae 0800 
         0004b0 08   
    1780                      .dwpsn  file "F:/eZdsp_DBG/tmp1/c55x-sim2/foo/c5535_bsl_revc/ezdsp5535_v1/c55xx_csl/inc/csl_usbAux.h"
    1781 0004b1 ED08          MOV dbl(*SP(#4)), XAR3
         0004b3 BF   
    1782 0004b4 ED00          MOV dbl(*SP(#0)), XAR1
         0004b6 9F   
    1783 0004b7 ED0C          MOV dbl(*SP(#6)), XAR0
         0004b9 8F   
    1784 0004ba ED6D          MOV dbl(*AR3(#8)), AC0 ; |1326| 
         0004bc 0800 
         0004be 08   
    1785 0004bf 4010          ADD #1, AC0 ; |1326| 
TMS320C55x Assembler PC v4.4.1 Sat Sep 29 23:08:40 2018

Tools Copyright (c) 1996-2012 Texas Instruments Incorporated
csl_usb_dma_example.asm                                              PAGE   40

    1786              
    1787 0004c4 5101          SFTL AC0, #-1 ; |1326| 
    1788 0004c1 141A  ||      AADD #26, AR1 ; |1326| 
         0004c3 94   
    1789              
    1790              $C$DW$179       .dwtag  DW_TAG_TI_branch
    1791                      .dwattr $C$DW$179, DW_AT_low_pc(0x00)
    1792                      .dwattr $C$DW$179, DW_AT_name("_memcpy")
    1793                      .dwattr $C$DW$179, DW_AT_TI_call
    1794              
    1795 0004c6 6C00          CALL #_memcpy ; |1326| 
         0004c8 0000!
    1796 0004ca 2304  ||      MOV AC0, T0 ; |1326| 
    1797              
    1798                                                      ; call occurs [#_memcpy] ; |1326| 
    1799                      .dwpsn  file "F:/eZdsp_DBG/tmp1/c55x-sim2/foo/c5535_bsl_revc/ezdsp5535_v1/c55xx_csl/inc/csl_usbAux.h"
    1800 0004cc ED00          MOV dbl(*SP(#0)), XAR3
         0004ce BF   
    1801 0004cf E679          MOV #0, *AR3(short(#4)) ; |1329| 
         0004d1 00   
    1802                      .dwpsn  file "F:/eZdsp_DBG/tmp1/c55x-sim2/foo/c5535_bsl_revc/ezdsp5535_v1/c55xx_csl/inc/csl_usbAux.h"
    1803 0004d2 ED08          MOV dbl(*SP(#4)), XAR3
         0004d4 BF   
    1804 0004d5 E66D          MOV #1, *AR3(#12) ; |1330| 
         0004d7 0100 
         0004d9 0C   
    1805                      .dwpsn  file "F:/eZdsp_DBG/tmp1/c55x-sim2/foo/c5535_bsl_revc/ezdsp5535_v1/c55xx_csl/inc/csl_usbAux.h"
    1806 0004da ED08          MOV dbl(*SP(#4)), XAR2
         0004dc AF   
    1807 0004dd ED08          MOV dbl(*SP(#4)), XAR3
         0004df BF   
    1808              
    1809 0004e0 1408          AADD #8, AR3 ; |1331| 
         0004e2 B4   
    1810 0004e3 150A  ||      AADD #10, AR2 ; |1331| 
         0004e5 AC   
    1811              
    1812 0004e6 8061          MOV dbl(*AR3), dbl(*AR2) ; |1331| 
         0004e8 00   
    1813                      .dwpsn  file "F:/eZdsp_DBG/tmp1/c55x-sim2/foo/c5535_bsl_revc/ezdsp5535_v1/c55xx_csl/inc/csl_usbAux.h"
    1814 0004e9 ED00          MOV dbl(*SP(#0)), XAR3
         0004eb BF   
    1815 0004ec ED00          MOV dbl(*SP(#0)), XAR0
         0004ee 8F   
    1816 0004ef ED04          MOV dbl(*SP(#2)), XAR1
         0004f1 9F   
    1817 0004f2 ED6D          MOV dbl(*AR3(#116)), AC0 ; |1337| 
         0004f4 0800 
         0004f6 74   
    1818              $C$DW$180       .dwtag  DW_TAG_TI_branch
    1819                      .dwattr $C$DW$180, DW_AT_low_pc(0x00)
    1820                      .dwattr $C$DW$180, DW_AT_TI_call
    1821                      .dwattr $C$DW$180, DW_AT_TI_indirect
    1822 0004f7 9200          CALL AC0  ; |1337| 
    1823                                                      ; call occurs [AC0] ; |1337| 
TMS320C55x Assembler PC v4.4.1 Sat Sep 29 23:08:40 2018

Tools Copyright (c) 1996-2012 Texas Instruments Incorporated
csl_usb_dma_example.asm                                              PAGE   41

    1824 0004f9 C410          MOV T0, *SP(#8) ; |1337| 
    1825                      .dwpsn  file "F:/eZdsp_DBG/tmp1/c55x-sim2/foo/c5535_bsl_revc/ezdsp5535_v1/c55xx_csl/inc/csl_usbAux.h"
    1826 0004fb 4A08          B $C$L14  ; |1338| 
    1827                                                      ; branch occurs ; |1338| 
    1828 0004fd       $C$L12:    
    1829                      .dwpsn  file "F:/eZdsp_DBG/tmp1/c55x-sim2/foo/c5535_bsl_revc/ezdsp5535_v1/c55xx_csl/inc/csl_usbAux.h"
    1830 0004fd E610          MOV #-6, *SP(#8) ; |1341| 
         0004ff FA   
    1831                      .dwpsn  file "F:/eZdsp_DBG/tmp1/c55x-sim2/foo/c5535_bsl_revc/ezdsp5535_v1/c55xx_csl/inc/csl_usbAux.h"
    1832 000500 4A03          B $C$L14  ; |1343| 
    1833                                                      ; branch occurs ; |1343| 
    1834 000502       $C$L13:    
    1835                      .dwpsn  file "F:/eZdsp_DBG/tmp1/c55x-sim2/foo/c5535_bsl_revc/ezdsp5535_v1/c55xx_csl/inc/csl_usbAux.h"
    1836 000502 E610          MOV #-6, *SP(#8) ; |1346| 
         000504 FA   
    1837 000505       $C$L14:    
    1838                      .dwpsn  file "F:/eZdsp_DBG/tmp1/c55x-sim2/foo/c5535_bsl_revc/ezdsp5535_v1/c55xx_csl/inc/csl_usbAux.h"
    1839 000505 A410          MOV *SP(#8), T0 ; |1348| 
    1840                      .dwpsn  file "F:/eZdsp_DBG/tmp1/c55x-sim2/foo/c5535_bsl_revc/ezdsp5535_v1/c55xx_csl/inc/csl_usbAux.h"
    1841 000507 4E09          AADD #9, SP
    1842                      .dwcfi  cfa_offset, 1
    1843              $C$DW$181       .dwtag  DW_TAG_TI_branch
    1844                      .dwattr $C$DW$181, DW_AT_low_pc(0x00)
    1845                      .dwattr $C$DW$181, DW_AT_TI_return
    1846 000509 4804          RET
    1847                                                      ; return occurs
    1848                      .dwattr $C$DW$172, DW_AT_TI_end_file("F:/eZdsp_DBG/tmp1/c55x-sim2/foo/c5535_bsl_revc/ezdsp5535_v1/c55
    1849                      .dwattr $C$DW$172, DW_AT_TI_end_line(0x545)
    1850                      .dwattr $C$DW$172, DW_AT_TI_end_column(0x01)
    1851                      .dwendentry
    1852                      .dwendtag $C$DW$172
    1853              
    1854 00050b               .sect   ".text"
    1855                      .align 4
    1856              
    1857              $C$DW$182       .dwtag  DW_TAG_subprogram, DW_AT_name("USB_processEP0In")
    1858                      .dwattr $C$DW$182, DW_AT_low_pc(_USB_processEP0In)
    1859                      .dwattr $C$DW$182, DW_AT_high_pc(0x00)
    1860                      .dwattr $C$DW$182, DW_AT_TI_symbol_name("_USB_processEP0In")
    1861                      .dwattr $C$DW$182, DW_AT_type(*$C$DW$T$80)
    1862                      .dwattr $C$DW$182, DW_AT_TI_begin_file("F:/eZdsp_DBG/tmp1/c55x-sim2/foo/c5535_bsl_revc/ezdsp5535_v1/c
    1863                      .dwattr $C$DW$182, DW_AT_TI_begin_line(0x576)
    1864                      .dwattr $C$DW$182, DW_AT_TI_begin_column(0x0c)
    1865                      .dwattr $C$DW$182, DW_AT_TI_max_frame_size(0x12)
    1866                      .dwpsn  file "F:/eZdsp_DBG/tmp1/c55x-sim2/foo/c5535_bsl_revc/ezdsp5535_v1/c55xx_csl/inc/csl_usbAux.h"
    1867              
    1868                      .dwfde $C$DW$CIE, _USB_processEP0In
    1869              $C$DW$183       .dwtag  DW_TAG_formal_parameter, DW_AT_name("pContext")
    1870                      .dwattr $C$DW$183, DW_AT_TI_symbol_name("_pContext")
    1871                      .dwattr $C$DW$183, DW_AT_type(*$C$DW$T$164)
    1872                      .dwattr $C$DW$183, DW_AT_location[DW_OP_reg17]
    1873              ;*******************************************************************************
    1874              ;* FUNCTION NAME: USB_processEP0In                                             *
    1875              ;*                                                                             *
    1876              ;*   Function Uses Regs : AC0,AC0,AC1,AC1,T0,AR0,XAR0,AR1,XAR1,AR2,AR3,XAR3,   *
TMS320C55x Assembler PC v4.4.1 Sat Sep 29 23:08:40 2018

Tools Copyright (c) 1996-2012 Texas Instruments Incorporated
csl_usb_dma_example.asm                                              PAGE   42

    1877              ;*                        AR4,SP,CARRY,TC1,M40,SATA,SATD,RDM,FRCT,SMUL         *
    1878              ;*   Stack Frame        : Compact (No Frame Pointer, w/ debug)                 *
    1879              ;*   Total Frame Size   : 18 words                                             *
    1880              ;*                        (2 return address/alignment)                         *
    1881              ;*                        (16 local values)                                    *
    1882              ;*   Min System Stack   : 1 word                                               *
    1883              ;*******************************************************************************
    1884 00050c       _USB_processEP0In:
    1885                      .dwcfi  cfa_offset, 1
    1886                      .dwcfi  save_reg_to_mem, 91, -1
    1887 00050c 4EEF          AADD #-17, SP
    1888                      .dwcfi  cfa_offset, 18
    1889              $C$DW$184       .dwtag  DW_TAG_variable, DW_AT_name("pContext")
    1890                      .dwattr $C$DW$184, DW_AT_TI_symbol_name("_pContext")
    1891                      .dwattr $C$DW$184, DW_AT_type(*$C$DW$T$164)
    1892                      .dwattr $C$DW$184, DW_AT_location[DW_OP_bregx 0x24 0]
    1893              $C$DW$185       .dwtag  DW_TAG_variable, DW_AT_name("peps")
    1894                      .dwattr $C$DW$185, DW_AT_TI_symbol_name("_peps")
    1895                      .dwattr $C$DW$185, DW_AT_type(*$C$DW$T$168)
    1896                      .dwattr $C$DW$185, DW_AT_location[DW_OP_bregx 0x24 2]
    1897              $C$DW$186       .dwtag  DW_TAG_variable, DW_AT_name("pTransfer")
    1898                      .dwattr $C$DW$186, DW_AT_TI_symbol_name("_pTransfer")
    1899                      .dwattr $C$DW$186, DW_AT_type(*$C$DW$T$172)
    1900                      .dwattr $C$DW$186, DW_AT_location[DW_OP_bregx 0x24 4]
    1901              $C$DW$187       .dwtag  DW_TAG_variable, DW_AT_name("status")
    1902                      .dwattr $C$DW$187, DW_AT_TI_symbol_name("_status")
    1903                      .dwattr $C$DW$187, DW_AT_type(*$C$DW$T$80)
    1904                      .dwattr $C$DW$187, DW_AT_location[DW_OP_bregx 0x24 6]
    1905              $C$DW$188       .dwtag  DW_TAG_variable, DW_AT_name("pwBuffer")
    1906                      .dwattr $C$DW$188, DW_AT_TI_symbol_name("_pwBuffer")
    1907                      .dwattr $C$DW$188, DW_AT_type(*$C$DW$T$228)
    1908                      .dwattr $C$DW$188, DW_AT_location[DW_OP_bregx 0x24 8]
    1909              $C$DW$189       .dwtag  DW_TAG_variable, DW_AT_name("cbBuffer")
    1910                      .dwattr $C$DW$189, DW_AT_TI_symbol_name("_cbBuffer")
    1911                      .dwattr $C$DW$189, DW_AT_type(*$C$DW$T$88)
    1912                      .dwattr $C$DW$189, DW_AT_location[DW_OP_bregx 0x24 10]
    1913              $C$DW$190       .dwtag  DW_TAG_variable, DW_AT_name("cbToWrite")
    1914                      .dwattr $C$DW$190, DW_AT_TI_symbol_name("_cbToWrite")
    1915                      .dwattr $C$DW$190, DW_AT_type(*$C$DW$T$85)
    1916                      .dwattr $C$DW$190, DW_AT_location[DW_OP_bregx 0x24 12]
    1917              $C$DW$191       .dwtag  DW_TAG_variable, DW_AT_name("count")
    1918                      .dwattr $C$DW$191, DW_AT_TI_symbol_name("_count")
    1919                      .dwattr $C$DW$191, DW_AT_type(*$C$DW$T$19)
    1920                      .dwattr $C$DW$191, DW_AT_location[DW_OP_bregx 0x24 13]
    1921              $C$DW$192       .dwtag  DW_TAG_variable, DW_AT_name("flag")
    1922                      .dwattr $C$DW$192, DW_AT_TI_symbol_name("_flag")
    1923                      .dwattr $C$DW$192, DW_AT_type(*$C$DW$T$19)
    1924                      .dwattr $C$DW$192, DW_AT_location[DW_OP_bregx 0x24 14]
    1925              $C$DW$193       .dwtag  DW_TAG_variable, DW_AT_name("saveIndex")
    1926                      .dwattr $C$DW$193, DW_AT_TI_symbol_name("_saveIndex")
    1927                      .dwattr $C$DW$193, DW_AT_type(*$C$DW$T$19)
    1928                      .dwattr $C$DW$193, DW_AT_location[DW_OP_bregx 0x24 15]
    1929 00050e EB00          MOV XAR0, dbl(*SP(#0))
         000510 85   
    1930                      .dwpsn  file "F:/eZdsp_DBG/tmp1/c55x-sim2/foo/c5535_bsl_revc/ezdsp5535_v1/c55xx_csl/inc/csl_usbAux.h"
TMS320C55x Assembler PC v4.4.1 Sat Sep 29 23:08:40 2018

Tools Copyright (c) 1996-2012 Texas Instruments Incorporated
csl_usb_dma_example.asm                                              PAGE   43

    1931 000511 E61C          MOV #0, *SP(#14) ; |1410| 
         000513 00   
    1932                      .dwpsn  file "F:/eZdsp_DBG/tmp1/c55x-sim2/foo/c5535_bsl_revc/ezdsp5535_v1/c55xx_csl/inc/csl_usbAux.h"
    1933 000514 E60C          MOV #0, *SP(#6) ; |1411| 
         000516 00   
    1934                      .dwpsn  file "F:/eZdsp_DBG/tmp1/c55x-sim2/foo/c5535_bsl_revc/ezdsp5535_v1/c55xx_csl/inc/csl_usbAux.h"
    1935 000517 ED00          MOV dbl(*SP(#0)), XAR3
         000519 BF   
    1936 00051a 90B0          MOV XAR3, AC0
    1937 00051c 6D00          BCC $C$L27,AC0 == #0 ; |1413| 
         00051e 01BF 
    1938                                                      ; branchcc occurs ; |1413| 
    1939                      .dwpsn  file "F:/eZdsp_DBG/tmp1/c55x-sim2/foo/c5535_bsl_revc/ezdsp5535_v1/c55xx_csl/inc/csl_usbAux.h"
    1940 000520 ED6D          MOV dbl(*AR3(#98)), XAR3
         000522 BF00 
         000524 62   
    1941 000525 EB04          MOV XAR3, dbl(*SP(#2))
         000527 B5   
    1942                      .dwpsn  file "F:/eZdsp_DBG/tmp1/c55x-sim2/foo/c5535_bsl_revc/ezdsp5535_v1/c55xx_csl/inc/csl_usbAux.h"
    1943 000528 ED6D          MOV dbl(*AR3(#10)), XAR3
         00052a BF00 
         00052c 0A   
    1944 00052d EB08          MOV XAR3, dbl(*SP(#4))
         00052f B5   
    1945                      .dwpsn  file "F:/eZdsp_DBG/tmp1/c55x-sim2/foo/c5535_bsl_revc/ezdsp5535_v1/c55xx_csl/inc/csl_usbAux.h"
    1946 000530 90B0          MOV XAR3, AC0
    1947 000532 6D00          BCC $C$L26,AC0 == #0 ; |1418| 
         000534 01A4 
    1948                                                      ; branchcc occurs ; |1418| 
    1949 000536 A96D          MOV *AR3(#12), AR1 ; |1418| 
         000538 000C 
    1950 00053a 6D19          BCC $C$L26,AR1 != #0 ; |1418| 
         00053c 019C 
    1951                                                      ; branchcc occurs ; |1418| 
    1952                      .dwpsn  file "F:/eZdsp_DBG/tmp1/c55x-sim2/foo/c5535_bsl_revc/ezdsp5535_v1/c55xx_csl/inc/csl_usbAux.h"
    1953 00053e ED6D          MOV dbl(*AR3(#8)), AC0 ; |1421| 
         000540 0800 
         000542 08   
    1954 000543 ED79          MOV dbl(*AR3(short(#4))), XAR3
         000545 BF   
    1955 000546 5001          SFTL AC0, #-1 ; |1421| 
    1956 000548 2209          MOV AC0, AR1 ; |1421| 
    1957              
    1958 00054a 8E10          MOV XAR3, dbl(*SP(#8))
         00054c BB10 
         00054e B590 
    1959              ||      AADD AR1, AR3 ; |1421| 
    1960              
    1961                      .dwpsn  file "F:/eZdsp_DBG/tmp1/c55x-sim2/foo/c5535_bsl_revc/ezdsp5535_v1/c55xx_csl/inc/csl_usbAux.h"
    1962 000550 ED08          MOV dbl(*SP(#4)), XAR3
         000552 BF   
    1963 000553 ED6D          MOV dbl(*AR3(#8)), AC0 ; |1422| 
         000555 0800 
         000557 08   
    1964 000558 ED7D          SUB AC0, dbl(*AR3(short(#6))), AC0 ; |1422| 
TMS320C55x Assembler PC v4.4.1 Sat Sep 29 23:08:40 2018

Tools Copyright (c) 1996-2012 Texas Instruments Incorporated
csl_usb_dma_example.asm                                              PAGE   44

         00055a 04   
    1965 00055b EB14          MOV AC0, dbl(*SP(#10)) ; |1422| 
         00055d 08   
    1966                      .dwpsn  file "F:/eZdsp_DBG/tmp1/c55x-sim2/foo/c5535_bsl_revc/ezdsp5535_v1/c55xx_csl/inc/csl_usbAux.h"
    1967 00055e ED04          MOV dbl(*SP(#2)), XAR3
         000560 BF   
    1968 000561 ED14          MOV dbl(*SP(#10)), AC1 ; |1430| 
         000563 18   
    1969 000564 ED79          MOV dbl(*AR3(short(#4))), AC0 ; |1430| 
         000566 08   
    1970 000567 1218          CMPU AC1 >= AC0, TC1 ; |1430| 
         000569 04   
    1971 00056a 62E4          BCC $C$L15,TC1 ; |1430| 
    1972                                                      ; branchcc occurs ; |1430| 
    1973 00056c ED14          MOV dbl(*SP(#10)), AC0 ; |1430| 
         00056e 08   
    1974 00056f 4A03          B $C$L16  ; |1430| 
    1975                                                      ; branch occurs ; |1430| 
    1976 000571       $C$L15:    
    1977 000571 ED79          MOV dbl(*AR3(short(#4))), AC0 ; |1430| 
         000573 08   
    1978 000574       $C$L16:    
    1979 000574 7600          MOV #64, AR1 ; |1451| 
         000576 4098 
    1980              
    1981 000578 C018          MOV AC0, *SP(#12) ; |1430| 
    1982 00057a 3D1A  ||      MOV #1, AR2
    1983              
    1984                      .dwpsn  file "F:/eZdsp_DBG/tmp1/c55x-sim2/foo/c5535_bsl_revc/ezdsp5535_v1/c55xx_csl/inc/csl_usbAux.h"
    1985 00057c       $C$L17:    
    1986 00057c       $C$DW$L$_USB_processEP0In$8$B:
    1987                      .dwpsn  file "F:/eZdsp_DBG/tmp1/c55x-sim2/foo/c5535_bsl_revc/ezdsp5535_v1/c55xx_csl/inc/csl_usbAux.h"
    1988 00057c E61A          MOV #0, *SP(#13) ; |1435| 
         00057e 00   
    1989                      .dwpsn  file "F:/eZdsp_DBG/tmp1/c55x-sim2/foo/c5535_bsl_revc/ezdsp5535_v1/c55xx_csl/inc/csl_usbAux.h"
    1990 00057f AB18          MOV *SP(#12), AR3 ; |1435| 
    1991              
    1992 000583 51B1          SFTL AR3, #-1 ; |1435| 
    1993 000581 AC1A  ||      MOV *SP(#13), AR4 ; |1435| 
    1994              
    1995 000585 12C8          CMPU AR4 >= AR3, TC1 ; |1435| 
         000587 B4   
    1996 000588 0464          BCC $C$L19,TC1 ; |1435| 
         00058a 29   
    1997                                                      ; branchcc occurs ; |1435| 
    1998 00058b       $C$DW$L$_USB_processEP0In$8$E:
    1999 00058b       $C$L18:    
    2000 00058b       $C$DW$L$_USB_processEP0In$9$B:
    2001                      .dwpsn  file "F:/eZdsp_DBG/tmp1/c55x-sim2/foo/c5535_bsl_revc/ezdsp5535_v1/c55xx_csl/inc/csl_usbAux.h"
    2002 00058b ED10          MOV dbl(*SP(#8)), XAR3
         00058d BF   
    2003 00058e 7604          MOV #1057, T0 ; |1437| 
         000590 2148 
    2004 000592 AC61          MOV *AR3, AR4 ; |1437| 
    2005 000594 AB31          MOV *(#_usbRegisters), AR3 ; |1437| 
TMS320C55x Assembler PC v4.4.1 Sat Sep 29 23:08:40 2018

Tools Copyright (c) 1996-2012 Texas Instruments Incorporated
csl_usb_dma_example.asm                                              PAGE   45

         000596 0000 
         000598 00!  
    2006 000599 CC6B          MOV AR4, port(*AR3(T0)) ; |1437| 
         00059b 9A   
    2007                      .dwpsn  file "F:/eZdsp_DBG/tmp1/c55x-sim2/foo/c5535_bsl_revc/ezdsp5535_v1/c55xx_csl/inc/csl_usbAux.h"
    2008 00059c ED10          MOV dbl(*SP(#8)), XAR3
         00059e BF   
    2009 00059f B463          AMAR *AR3+
    2010 0005a1 EB10          MOV XAR3, dbl(*SP(#8))
         0005a3 B5   
    2011                      .dwpsn  file "F:/eZdsp_DBG/tmp1/c55x-sim2/foo/c5535_bsl_revc/ezdsp5535_v1/c55xx_csl/inc/csl_usbAux.h"
    2012 0005a4 F71A          ADD #1, *SP(#13) ; |1435| 
         0005a6 0001 
    2013                      .dwpsn  file "F:/eZdsp_DBG/tmp1/c55x-sim2/foo/c5535_bsl_revc/ezdsp5535_v1/c55xx_csl/inc/csl_usbAux.h"
    2014 0005a8 AB18          MOV *SP(#12), AR3 ; |1435| 
    2015              
    2016 0005ac 51B1          SFTL AR3, #-1 ; |1435| 
    2017 0005aa AC1A  ||      MOV *SP(#13), AR4 ; |1435| 
    2018              
    2019 0005ae 12C4          CMPU AR4 < AR3, TC1 ; |1435| 
         0005b0 B4   
    2020 0005b1 0464          BCC $C$L18,TC1 ; |1435| 
         0005b3 D7   
    2021                                                      ; branchcc occurs ; |1435| 
    2022 0005b4       $C$DW$L$_USB_processEP0In$9$E:
    2023 0005b4       $C$L19:    
    2024 0005b4       $C$DW$L$_USB_processEP0In$10$B:
    2025                      .dwpsn  file "F:/eZdsp_DBG/tmp1/c55x-sim2/foo/c5535_bsl_revc/ezdsp5535_v1/c55xx_csl/inc/csl_usbAux.h"
    2026 0005b4 AB18          MOV *SP(#12), AR3 ; |1441| 
    2027 0005b6 1801          AND #0x0001, AR3, AR3 ; |1441| 
         0005b8 BB   
    2028 0005b9 12BC          CMPU AR3 != AR2, TC1 ; |1441| 
         0005bb A4   
    2029 0005bc 0464          BCC $C$L20,TC1 ; |1441| 
         0005be 44   
    2030                                                      ; branchcc occurs ; |1441| 
    2031 0005bf       $C$DW$L$_USB_processEP0In$10$E:
    2032 0005bf       $C$DW$L$_USB_processEP0In$11$B:
    2033                      .dwpsn  file "F:/eZdsp_DBG/tmp1/c55x-sim2/foo/c5535_bsl_revc/ezdsp5535_v1/c55xx_csl/inc/csl_usbAux.h"
    2034 0005bf 7600          MOV #50, T0 ; |1444| 
         0005c1 3248 
    2035 0005c3 AB31          MOV *(#_sysCtrlRegs), AR3 ; |1444| 
         0005c5 0000 
         0005c7 00!  
    2036 0005c8 AB6B          MOV port(*AR3(T0)), AR3 ; |1444| 
         0005ca 99   
    2037 0005cb 7DFF          AND #0xfffc, AR3, AC0 ; |1444| 
         0005cd FC0B 
    2038 0005cf AB31          MOV *(#_sysCtrlRegs), AR3 ; |1444| 
         0005d1 0000 
         0005d3 00!  
    2039 0005d4 EC02          BSET @#1, AC0 ; |1444| 
         0005d6 00   
    2040 0005d7 C06B          MOV AC0, port(*AR3(T0)) ; |1444| 
         0005d9 9A   
TMS320C55x Assembler PC v4.4.1 Sat Sep 29 23:08:40 2018

Tools Copyright (c) 1996-2012 Texas Instruments Incorporated
csl_usb_dma_example.asm                                              PAGE   46

    2041                      .dwpsn  file "F:/eZdsp_DBG/tmp1/c55x-sim2/foo/c5535_bsl_revc/ezdsp5535_v1/c55xx_csl/inc/csl_usbAux.h"
    2042 0005da ED10          MOV dbl(*SP(#8)), XAR3
         0005dc BF   
    2043 0005dd 7604          MOV #1057, T0 ; |1445| 
         0005df 2148 
    2044 0005e1 AC61          MOV *AR3, AR4 ; |1445| 
    2045 0005e3 AB31          MOV *(#_usbRegisters), AR3 ; |1445| 
         0005e5 0000 
         0005e7 00!  
    2046 0005e8 CC6B          MOV AR4, port(*AR3(T0)) ; |1445| 
         0005ea 9A   
    2047                      .dwpsn  file "F:/eZdsp_DBG/tmp1/c55x-sim2/foo/c5535_bsl_revc/ezdsp5535_v1/c55xx_csl/inc/csl_usbAux.h"
    2048 0005eb 7600          MOV #50, T0 ; |1447| 
         0005ed 3248 
    2049 0005ef AB31          MOV *(#_sysCtrlRegs), AR3 ; |1447| 
         0005f1 0000 
         0005f3 00!  
    2050 0005f4 AB6B          MOV port(*AR3(T0)), AR3 ; |1447| 
         0005f6 99   
    2051 0005f7 7DFF          AND #0xfffc, AR3, AC0 ; |1447| 
         0005f9 FC0B 
    2052 0005fb AB31          MOV *(#_sysCtrlRegs), AR3 ; |1447| 
         0005fd 0000 
         0005ff 00!  
    2053 000600 C06B          MOV AC0, port(*AR3(T0)) ; |1447| 
         000602 9A   
    2054 000603       $C$DW$L$_USB_processEP0In$11$E:
    2055 000603       $C$L20:    
    2056 000603       $C$DW$L$_USB_processEP0In$12$B:
    2057                      .dwpsn  file "F:/eZdsp_DBG/tmp1/c55x-sim2/foo/c5535_bsl_revc/ezdsp5535_v1/c55xx_csl/inc/csl_usbAux.h"
    2058 000603 AB18          MOV *SP(#12), AR3 ; |1451| 
    2059 000605 1294          CMPU AR3 > AR1, TC1 ; |1451| 
         000607 B4   
    2060 000608 6164          BCC $C$L21,TC1 ; |1451| 
    2061                                                      ; branchcc occurs ; |1451| 
    2062 00060a       $C$DW$L$_USB_processEP0In$12$E:
    2063                      .dwpsn  file "F:/eZdsp_DBG/tmp1/c55x-sim2/foo/c5535_bsl_revc/ezdsp5535_v1/c55xx_csl/inc/csl_usbAux.h"
    2064 00060a 4A07          B $C$L22  ; |1453| 
    2065                                                      ; branch occurs ; |1453| 
    2066 00060c       $C$L21:    
    2067 00060c       $C$DW$L$_USB_processEP0In$15$B:
    2068                      .dwpsn  file "F:/eZdsp_DBG/tmp1/c55x-sim2/foo/c5535_bsl_revc/ezdsp5535_v1/c55xx_csl/inc/csl_usbAux.h"
    2069 00060c F718          SUB #64, *SP(#12) ; |1457| 
         00060e FFC0 
    2070                      .dwpsn  file "F:/eZdsp_DBG/tmp1/c55x-sim2/foo/c5535_bsl_revc/ezdsp5535_v1/c55xx_csl/inc/csl_usbAux.h"
    2071 000610 06FF          B $C$L17  ; |1432| 
         000612 69   
    2072                                                      ; branch occurs ; |1432| 
    2073 000613       $C$DW$L$_USB_processEP0In$15$E:
    2074 000613       $C$L22:    
    2075                      .dwpsn  file "F:/eZdsp_DBG/tmp1/c55x-sim2/foo/c5535_bsl_revc/ezdsp5535_v1/c55xx_csl/inc/csl_usbAux.h"
    2076 000613 ED00          MOV dbl(*SP(#0)), XAR3
         000615 BF   
    2077 000616 E66D          MOV #0, *AR3(#90) ; |1461| 
         000618 0000 
TMS320C55x Assembler PC v4.4.1 Sat Sep 29 23:08:40 2018

Tools Copyright (c) 1996-2012 Texas Instruments Incorporated
csl_usb_dma_example.asm                                              PAGE   47

         00061a 5A   
    2078                      .dwpsn  file "F:/eZdsp_DBG/tmp1/c55x-sim2/foo/c5535_bsl_revc/ezdsp5535_v1/c55xx_csl/inc/csl_usbAux.h"
    2079 00061b ED08          MOV dbl(*SP(#4)), XAR3
         00061d BF   
    2080 00061e DF18          MOV uns(*SP(#12)), AC0 ; |1463| 
         000620 05   
    2081 000621 ED6D          ADD dbl(*AR3(#8)), AC0, AC0 ; |1463| 
         000623 0000 
         000625 08   
    2082 000626 EB6D          MOV AC0, dbl(*AR3(#8)) ; |1463| 
         000628 0800 
         00062a 08   
    2083                      .dwpsn  file "F:/eZdsp_DBG/tmp1/c55x-sim2/foo/c5535_bsl_revc/ezdsp5535_v1/c55xx_csl/inc/csl_usbAux.h"
    2084 00062b ED08          MOV dbl(*SP(#4)), XAR3
         00062d BF   
    2085 00062e DF18          MOV uns(*SP(#12)), AC0 ; |1464| 
         000630 05   
    2086 000631 EB6D          MOV AC0, dbl(*AR3(#10)) ; |1464| 
         000633 0800 
         000635 0A   
    2087                      .dwpsn  file "F:/eZdsp_DBG/tmp1/c55x-sim2/foo/c5535_bsl_revc/ezdsp5535_v1/c55xx_csl/inc/csl_usbAux.h"
    2088 000636 ED08          MOV dbl(*SP(#4)), XAR3
         000638 BF   
    2089 000639 ED6D          MOV dbl(*AR3(#8)), AC1 ; |1465| 
         00063b 1800 
         00063d 08   
    2090 00063e ED7D          MOV dbl(*AR3(short(#6))), AC0 ; |1465| 
         000640 08   
    2091 000641 121C          CMPU AC1 != AC0, TC1 ; |1465| 
         000643 04   
    2092 000644 62E4          BCC $C$L23,TC1 ; |1465| 
    2093                                                      ; branchcc occurs ; |1465| 
    2094                      .dwpsn  file "F:/eZdsp_DBG/tmp1/c55x-sim2/foo/c5535_bsl_revc/ezdsp5535_v1/c55xx_csl/inc/csl_usbAux.h"
    2095 000646 E66D          MOV #1, *AR3(#12) ; |1467| 
         000648 0100 
         00064a 0C   
    2096 00064b       $C$L23:    
    2097                      .dwpsn  file "F:/eZdsp_DBG/tmp1/c55x-sim2/foo/c5535_bsl_revc/ezdsp5535_v1/c55xx_csl/inc/csl_usbAux.h"
    2098 00064b 7604          MOV #1038, T0 ; |1471| 
         00064d 0E48 
    2099 00064f AB31          MOV *(#_usbRegisters), AR3 ; |1471| 
         000651 0000 
         000653 00!  
    2100 000654 A96B          MOV port(*AR3(T0)), AR1 ; |1471| 
         000656 99   
    2101 000657 C91E          MOV AR1, *SP(#15) ; |1471| 
    2102                      .dwpsn  file "F:/eZdsp_DBG/tmp1/c55x-sim2/foo/c5535_bsl_revc/ezdsp5535_v1/c55xx_csl/inc/csl_usbAux.h"
    2103 000659 A96B          MOV port(*AR3(T0)), AR1 ; |1474| 
         00065b 99   
    2104 00065c 7DFF          AND #0xfff0, AR1, AC0 ; |1474| 
         00065e F009 
    2105 000660 C06B          MOV AC0, port(*AR3(T0)) ; |1474| 
         000662 9A   
    2106                      .dwpsn  file "F:/eZdsp_DBG/tmp1/c55x-sim2/foo/c5535_bsl_revc/ezdsp5535_v1/c55xx_csl/inc/csl_usbAux.h"
    2107 000663 AB31          MOV *(#_usbRegisters), AR3 ; |1479| 
TMS320C55x Assembler PC v4.4.1 Sat Sep 29 23:08:40 2018

Tools Copyright (c) 1996-2012 Texas Instruments Incorporated
csl_usb_dma_example.asm                                              PAGE   48

         000665 0000 
         000667 00!  
    2108 000668 A96B          MOV port(*AR3(T0)), AR1 ; |1479| 
         00066a 99   
    2109 00066b 7DFF          AND #0xfff0, AR1, AC0 ; |1479| 
         00066d F009 
    2110 00066f C06B          MOV AC0, port(*AR3(T0)) ; |1479| 
         000671 9A   
    2111                      .dwpsn  file "F:/eZdsp_DBG/tmp1/c55x-sim2/foo/c5535_bsl_revc/ezdsp5535_v1/c55xx_csl/inc/csl_usbAux.h"
    2112 000672 ED08          MOV dbl(*SP(#4)), XAR3
         000674 BF   
    2113 000675 F06D          CMP *AR3(#12) == #1, TC1 ; |1483| 
         000677 0001 
         000679 000C 
    2114 00067b 0474          BCC $C$L24,!TC1 ; |1483| 
         00067d 37   
    2115                                                      ; branchcc occurs ; |1483| 
    2116                      .dwpsn  file "F:/eZdsp_DBG/tmp1/c55x-sim2/foo/c5535_bsl_revc/ezdsp5535_v1/c55xx_csl/inc/csl_usbAux.h"
    2117 00067e ED00          MOV dbl(*SP(#0)), XAR3
         000680 BF   
    2118 000681 E67F          MOV #0, *AR3(short(#7)) ; |1485| 
         000683 00   
    2119                      .dwpsn  file "F:/eZdsp_DBG/tmp1/c55x-sim2/foo/c5535_bsl_revc/ezdsp5535_v1/c55xx_csl/inc/csl_usbAux.h"
    2120 000684 E61C          MOV #10, *SP(#14) ; |1488| 
         000686 0A   
    2121                      .dwpsn  file "F:/eZdsp_DBG/tmp1/c55x-sim2/foo/c5535_bsl_revc/ezdsp5535_v1/c55xx_csl/inc/csl_usbAux.h"
    2122 000687 ED00          MOV dbl(*SP(#0)), XAR3
         000689 BF   
    2123 00068a E66D          MOV #0, *AR3(#101) ; |1491| 
         00068c 0000 
         00068e 65   
    2124                      .dwpsn  file "F:/eZdsp_DBG/tmp1/c55x-sim2/foo/c5535_bsl_revc/ezdsp5535_v1/c55xx_csl/inc/csl_usbAux.h"
    2125 00068f 7604          MOV #1042, T0 ; |1493| 
         000691 1248 
    2126 000693 AB31          MOV *(#_usbRegisters), AR3 ; |1493| 
         000695 0000 
         000697 00!  
    2127 000698 A91C          MOV *SP(#14), AR1 ; |1493| 
    2128 00069a DA6B          OR port(*AR3(T0)), AR1, AR1 ; |1493| 
         00069c 99   
         00069d 99   
    2129 00069e C96B          MOV AR1, port(*AR3(T0)) ; |1493| 
         0006a0 9A   
    2130                      .dwpsn  file "F:/eZdsp_DBG/tmp1/c55x-sim2/foo/c5535_bsl_revc/ezdsp5535_v1/c55xx_csl/inc/csl_usbAux.h"
    2131 0006a1 ED00          MOV dbl(*SP(#0)), XAR3
         0006a3 BF   
    2132 0006a4 ED00          MOV dbl(*SP(#0)), XAR0
         0006a6 8F   
    2133 0006a7 ED04          MOV dbl(*SP(#2)), XAR1
         0006a9 9F   
    2134 0006aa ED6D          MOV dbl(*AR3(#116)), AC0 ; |1495| 
         0006ac 0800 
         0006ae 74   
    2135              $C$DW$194       .dwtag  DW_TAG_TI_branch
    2136                      .dwattr $C$DW$194, DW_AT_low_pc(0x00)
TMS320C55x Assembler PC v4.4.1 Sat Sep 29 23:08:40 2018

Tools Copyright (c) 1996-2012 Texas Instruments Incorporated
csl_usb_dma_example.asm                                              PAGE   49

    2137                      .dwattr $C$DW$194, DW_AT_TI_call
    2138                      .dwattr $C$DW$194, DW_AT_TI_indirect
    2139 0006af 9200          CALL AC0  ; |1495| 
    2140                                                      ; call occurs [AC0] ; |1495| 
    2141 0006b1 C40C          MOV T0, *SP(#6) ; |1495| 
    2142                      .dwpsn  file "F:/eZdsp_DBG/tmp1/c55x-sim2/foo/c5535_bsl_revc/ezdsp5535_v1/c55xx_csl/inc/csl_usbAux.h"
    2143 0006b3 4A15          B $C$L25  ; |1496| 
    2144                                                      ; branch occurs ; |1496| 
    2145 0006b5       $C$L24:    
    2146                      .dwpsn  file "F:/eZdsp_DBG/tmp1/c55x-sim2/foo/c5535_bsl_revc/ezdsp5535_v1/c55xx_csl/inc/csl_usbAux.h"
    2147 0006b5 E61C          MOV #2, *SP(#14) ; |1500| 
         0006b7 02   
    2148                      .dwpsn  file "F:/eZdsp_DBG/tmp1/c55x-sim2/foo/c5535_bsl_revc/ezdsp5535_v1/c55xx_csl/inc/csl_usbAux.h"
    2149 0006b8 7604          MOV #1042, T0 ; |1503| 
         0006ba 1248 
    2150 0006bc AB31          MOV *(#_usbRegisters), AR3 ; |1503| 
         0006be 0000 
         0006c0 00!  
    2151 0006c1 A91C          MOV *SP(#14), AR1 ; |1503| 
    2152 0006c3 DA6B          OR port(*AR3(T0)), AR1, AR1 ; |1503| 
         0006c5 99   
         0006c6 99   
    2153 0006c7 C96B          MOV AR1, port(*AR3(T0)) ; |1503| 
         0006c9 9A   
    2154 0006ca       $C$L25:    
    2155                      .dwpsn  file "F:/eZdsp_DBG/tmp1/c55x-sim2/foo/c5535_bsl_revc/ezdsp5535_v1/c55xx_csl/inc/csl_usbAux.h"
    2156 0006ca AB31          MOV *(#_usbRegisters), AR3 ; |1507| 
         0006cc 0000 
         0006ce 00!  
    2157 0006cf 7604          MOV #1038, T0 ; |1507| 
         0006d1 0E48 
    2158 0006d3 A91E          MOV *SP(#15), AR1 ; |1507| 
    2159 0006d5 C96B          MOV AR1, port(*AR3(T0)) ; |1507| 
         0006d7 9A   
    2160                      .dwpsn  file "F:/eZdsp_DBG/tmp1/c55x-sim2/foo/c5535_bsl_revc/ezdsp5535_v1/c55xx_csl/inc/csl_usbAux.h"
    2161 0006d8 4A08          B $C$L28  ; |1508| 
    2162                                                      ; branch occurs ; |1508| 
    2163 0006da       $C$L26:    
    2164                      .dwpsn  file "F:/eZdsp_DBG/tmp1/c55x-sim2/foo/c5535_bsl_revc/ezdsp5535_v1/c55xx_csl/inc/csl_usbAux.h"
    2165 0006da E60C          MOV #-6, *SP(#6) ; |1511| 
         0006dc FA   
    2166                      .dwpsn  file "F:/eZdsp_DBG/tmp1/c55x-sim2/foo/c5535_bsl_revc/ezdsp5535_v1/c55xx_csl/inc/csl_usbAux.h"
    2167 0006dd 4A03          B $C$L28  ; |1513| 
    2168                                                      ; branch occurs ; |1513| 
    2169 0006df       $C$L27:    
    2170                      .dwpsn  file "F:/eZdsp_DBG/tmp1/c55x-sim2/foo/c5535_bsl_revc/ezdsp5535_v1/c55xx_csl/inc/csl_usbAux.h"
    2171 0006df E60C          MOV #-6, *SP(#6) ; |1516| 
         0006e1 FA   
    2172 0006e2       $C$L28:    
    2173                      .dwpsn  file "F:/eZdsp_DBG/tmp1/c55x-sim2/foo/c5535_bsl_revc/ezdsp5535_v1/c55xx_csl/inc/csl_usbAux.h"
    2174 0006e2 A40C          MOV *SP(#6), T0 ; |1519| 
    2175                      .dwpsn  file "F:/eZdsp_DBG/tmp1/c55x-sim2/foo/c5535_bsl_revc/ezdsp5535_v1/c55xx_csl/inc/csl_usbAux.h"
    2176 0006e4 4E11          AADD #17, SP
    2177                      .dwcfi  cfa_offset, 1
    2178              $C$DW$195       .dwtag  DW_TAG_TI_branch
TMS320C55x Assembler PC v4.4.1 Sat Sep 29 23:08:40 2018

Tools Copyright (c) 1996-2012 Texas Instruments Incorporated
csl_usb_dma_example.asm                                              PAGE   50

    2179                      .dwattr $C$DW$195, DW_AT_low_pc(0x00)
    2180                      .dwattr $C$DW$195, DW_AT_TI_return
    2181 0006e6 4804          RET
    2182                                                      ; return occurs
    2183              
    2184              $C$DW$196       .dwtag  DW_TAG_TI_loop
    2185                      .dwattr $C$DW$196, DW_AT_name("F:\eZdsp_DBG\tmp1\c55x-sim2\foo\Debug\csl_usb_dma_example.asm:$C$L17:1
    2186                      .dwattr $C$DW$196, DW_AT_TI_begin_file("F:/eZdsp_DBG/tmp1/c55x-sim2/foo/c5535_bsl_revc/ezdsp5535_v1/c
    2187                      .dwattr $C$DW$196, DW_AT_TI_begin_line(0x598)
    2188                      .dwattr $C$DW$196, DW_AT_TI_end_line(0x5b3)
    2189              $C$DW$197       .dwtag  DW_TAG_TI_loop_range
    2190                      .dwattr $C$DW$197, DW_AT_low_pc($C$DW$L$_USB_processEP0In$8$B)
    2191                      .dwattr $C$DW$197, DW_AT_high_pc($C$DW$L$_USB_processEP0In$8$E)
    2192              $C$DW$198       .dwtag  DW_TAG_TI_loop_range
    2193                      .dwattr $C$DW$198, DW_AT_low_pc($C$DW$L$_USB_processEP0In$10$B)
    2194                      .dwattr $C$DW$198, DW_AT_high_pc($C$DW$L$_USB_processEP0In$10$E)
    2195              $C$DW$199       .dwtag  DW_TAG_TI_loop_range
    2196                      .dwattr $C$DW$199, DW_AT_low_pc($C$DW$L$_USB_processEP0In$11$B)
    2197                      .dwattr $C$DW$199, DW_AT_high_pc($C$DW$L$_USB_processEP0In$11$E)
    2198              $C$DW$200       .dwtag  DW_TAG_TI_loop_range
    2199                      .dwattr $C$DW$200, DW_AT_low_pc($C$DW$L$_USB_processEP0In$12$B)
    2200                      .dwattr $C$DW$200, DW_AT_high_pc($C$DW$L$_USB_processEP0In$12$E)
    2201              $C$DW$201       .dwtag  DW_TAG_TI_loop_range
    2202                      .dwattr $C$DW$201, DW_AT_low_pc($C$DW$L$_USB_processEP0In$15$B)
    2203                      .dwattr $C$DW$201, DW_AT_high_pc($C$DW$L$_USB_processEP0In$15$E)
    2204              
    2205              $C$DW$202       .dwtag  DW_TAG_TI_loop
    2206                      .dwattr $C$DW$202, DW_AT_name("F:\eZdsp_DBG\tmp1\c55x-sim2\foo\Debug\csl_usb_dma_example.asm:$C$L18:2
    2207                      .dwattr $C$DW$202, DW_AT_TI_begin_file("F:/eZdsp_DBG/tmp1/c55x-sim2/foo/c5535_bsl_revc/ezdsp5535_v1/c
    2208                      .dwattr $C$DW$202, DW_AT_TI_begin_line(0x59b)
    2209                      .dwattr $C$DW$202, DW_AT_TI_end_line(0x59f)
    2210              $C$DW$203       .dwtag  DW_TAG_TI_loop_range
    2211                      .dwattr $C$DW$203, DW_AT_low_pc($C$DW$L$_USB_processEP0In$9$B)
    2212                      .dwattr $C$DW$203, DW_AT_high_pc($C$DW$L$_USB_processEP0In$9$E)
    2213                      .dwendtag $C$DW$202
    2214              
    2215                      .dwendtag $C$DW$196
    2216              
    2217                      .dwattr $C$DW$182, DW_AT_TI_end_file("F:/eZdsp_DBG/tmp1/c55x-sim2/foo/c5535_bsl_revc/ezdsp5535_v1/c55
    2218                      .dwattr $C$DW$182, DW_AT_TI_end_line(0x5f0)
    2219                      .dwattr $C$DW$182, DW_AT_TI_end_column(0x01)
    2220                      .dwendentry
    2221                      .dwendtag $C$DW$182
    2222              
    2223 0006e8               .sect   ".text"
    2224                      .align 4
    2225              
    2226              $C$DW$204       .dwtag  DW_TAG_subprogram, DW_AT_name("USB_confDmaRx")
    2227                      .dwattr $C$DW$204, DW_AT_low_pc(_USB_confDmaRx)
    2228                      .dwattr $C$DW$204, DW_AT_high_pc(0x00)
    2229                      .dwattr $C$DW$204, DW_AT_TI_symbol_name("_USB_confDmaRx")
    2230                      .dwattr $C$DW$204, DW_AT_type(*$C$DW$T$80)
    2231                      .dwattr $C$DW$204, DW_AT_TI_begin_file("F:/eZdsp_DBG/tmp1/c55x-sim2/foo/c5535_bsl_revc/ezdsp5535_v1/c
    2232                      .dwattr $C$DW$204, DW_AT_TI_begin_line(0x1bf)
    2233                      .dwattr $C$DW$204, DW_AT_TI_begin_column(0x0c)
TMS320C55x Assembler PC v4.4.1 Sat Sep 29 23:08:40 2018

Tools Copyright (c) 1996-2012 Texas Instruments Incorporated
csl_usb_dma_example.asm                                              PAGE   51

    2234                      .dwattr $C$DW$204, DW_AT_TI_max_frame_size(0x0a)
    2235                      .dwpsn  file "F:/eZdsp_DBG/tmp1/c55x-sim2/foo/c5535_bsl_revc/ezdsp5535_v1/c55xx_csl/inc/csl_usbAux.h"
    2236              
    2237                      .dwfde $C$DW$CIE, _USB_confDmaRx
    2238              $C$DW$205       .dwtag  DW_TAG_formal_parameter, DW_AT_name("hpdrx")
    2239                      .dwattr $C$DW$205, DW_AT_TI_symbol_name("_hpdrx")
    2240                      .dwattr $C$DW$205, DW_AT_type(*$C$DW$T$170)
    2241                      .dwattr $C$DW$205, DW_AT_location[DW_OP_reg17]
    2242              $C$DW$206       .dwtag  DW_TAG_formal_parameter, DW_AT_name("packetsize")
    2243                      .dwattr $C$DW$206, DW_AT_TI_symbol_name("_packetsize")
    2244                      .dwattr $C$DW$206, DW_AT_type(*$C$DW$T$70)
    2245                      .dwattr $C$DW$206, DW_AT_location[DW_OP_reg0]
    2246              $C$DW$207       .dwtag  DW_TAG_formal_parameter, DW_AT_name("pRxBuffer")
    2247                      .dwattr $C$DW$207, DW_AT_TI_symbol_name("_pRxBuffer")
    2248                      .dwattr $C$DW$207, DW_AT_type(*$C$DW$T$102)
    2249                      .dwattr $C$DW$207, DW_AT_location[DW_OP_reg19]
    2250              ;*******************************************************************************
    2251              ;* FUNCTION NAME: USB_confDmaRx                                                *
    2252              ;*                                                                             *
    2253              ;*   Function Uses Regs : AC0,AC0,T0,AR0,XAR0,AR1,XAR1,AR3,XAR3,SP,CARRY,M40,  *
    2254              ;*                        SATA,SATD,RDM,FRCT,SMUL                              *
    2255              ;*   Stack Frame        : Compact (No Frame Pointer, w/ debug)                 *
    2256              ;*   Total Frame Size   : 10 words                                             *
    2257              ;*                        (2 return address/alignment)                         *
    2258              ;*                        (8 local values)                                     *
    2259              ;*   Min System Stack   : 1 word                                               *
    2260              ;*******************************************************************************
    2261 0006e8       _USB_confDmaRx:
    2262                      .dwcfi  cfa_offset, 1
    2263                      .dwcfi  save_reg_to_mem, 91, -1
    2264 0006e8 4EF7          AADD #-9, SP
    2265                      .dwcfi  cfa_offset, 10
    2266              $C$DW$208       .dwtag  DW_TAG_variable, DW_AT_name("hpdrx")
    2267                      .dwattr $C$DW$208, DW_AT_TI_symbol_name("_hpdrx")
    2268                      .dwattr $C$DW$208, DW_AT_type(*$C$DW$T$170)
    2269                      .dwattr $C$DW$208, DW_AT_location[DW_OP_bregx 0x24 0]
    2270              $C$DW$209       .dwtag  DW_TAG_variable, DW_AT_name("packetsize")
    2271                      .dwattr $C$DW$209, DW_AT_TI_symbol_name("_packetsize")
    2272                      .dwattr $C$DW$209, DW_AT_type(*$C$DW$T$70)
    2273                      .dwattr $C$DW$209, DW_AT_location[DW_OP_bregx 0x24 2]
    2274              $C$DW$210       .dwtag  DW_TAG_variable, DW_AT_name("pRxBuffer")
    2275                      .dwattr $C$DW$210, DW_AT_TI_symbol_name("_pRxBuffer")
    2276                      .dwattr $C$DW$210, DW_AT_type(*$C$DW$T$102)
    2277                      .dwattr $C$DW$210, DW_AT_location[DW_OP_bregx 0x24 4]
    2278              $C$DW$211       .dwtag  DW_TAG_variable, DW_AT_name("status")
    2279                      .dwattr $C$DW$211, DW_AT_TI_symbol_name("_status")
    2280                      .dwattr $C$DW$211, DW_AT_type(*$C$DW$T$80)
    2281                      .dwattr $C$DW$211, DW_AT_location[DW_OP_bregx 0x24 6]
    2282              $C$DW$212       .dwtag  DW_TAG_variable, DW_AT_name("value")
    2283                      .dwattr $C$DW$212, DW_AT_TI_symbol_name("_value")
    2284                      .dwattr $C$DW$212, DW_AT_type(*$C$DW$T$86)
    2285                      .dwattr $C$DW$212, DW_AT_location[DW_OP_bregx 0x24 7]
    2286 0006ea EB08          MOV XAR1, dbl(*SP(#4))
         0006ec 95   
    2287 0006ed EB04          MOV AC0, dbl(*SP(#2)) ; |450| 
TMS320C55x Assembler PC v4.4.1 Sat Sep 29 23:08:40 2018

Tools Copyright (c) 1996-2012 Texas Instruments Incorporated
csl_usb_dma_example.asm                                              PAGE   52

         0006ef 08   
    2288 0006f0 EB00          MOV XAR0, dbl(*SP(#0))
         0006f2 85   
    2289                      .dwpsn  file "F:/eZdsp_DBG/tmp1/c55x-sim2/foo/c5535_bsl_revc/ezdsp5535_v1/c55xx_csl/inc/csl_usbAux.h"
    2290 0006f3 E60C          MOV #0, *SP(#6) ; |455| 
         0006f5 00   
    2291                      .dwpsn  file "F:/eZdsp_DBG/tmp1/c55x-sim2/foo/c5535_bsl_revc/ezdsp5535_v1/c55xx_csl/inc/csl_usbAux.h"
    2292 0006f6 ED00          MOV dbl(*SP(#0)), XAR3
         0006f8 BF   
    2293 0006f9 90B0          MOV XAR3, AC0
    2294 0006fb 6D00          BCC $C$L29,AC0 == #0 ; |457| 
         0006fd 00AF 
    2295                                                      ; branchcc occurs ; |457| 
    2296 0006ff ED08          MOV dbl(*SP(#4)), XAR3
         000701 BF   
    2297 000702 90B0          MOV XAR3, AC0
    2298 000704 6D00          BCC $C$L29,AC0 == #0 ; |457| 
         000706 00A6 
    2299                                                      ; branchcc occurs ; |457| 
    2300                      .dwpsn  file "F:/eZdsp_DBG/tmp1/c55x-sim2/foo/c5535_bsl_revc/ezdsp5535_v1/c55xx_csl/inc/csl_usbAux.h"
    2301 000708 ED00          MOV dbl(*SP(#0)), XAR3
         00070a BF   
    2302 00070b ED04          MOV dbl(*SP(#2)), AC0 ; |460| 
         00070d 08   
    2303 00070e EC3E          BSET @#31, AC0 ; |460| 
         000710 00   
    2304 000711 EB61          MOV AC0, dbl(*AR3) ; |460| 
         000713 08   
    2305                      .dwpsn  file "F:/eZdsp_DBG/tmp1/c55x-sim2/foo/c5535_bsl_revc/ezdsp5535_v1/c55xx_csl/inc/csl_usbAux.h"
    2306 000714 ED00          MOV dbl(*SP(#0)), XAR3
         000716 BF   
    2307 000717 3C00          MOV #0, AC0 ; |462| 
    2308 000719 EB75          MOV AC0, dbl(*AR3(short(#2))) ; |462| 
         00071b 08   
    2309                      .dwpsn  file "F:/eZdsp_DBG/tmp1/c55x-sim2/foo/c5535_bsl_revc/ezdsp5535_v1/c55xx_csl/inc/csl_usbAux.h"
    2310 00071c ED00          MOV dbl(*SP(#0)), XAR3
         00071e BF   
    2311 00071f 7A14          MOV #5120 << #16, AC0 ; |467| 
         000721 000A 
    2312 000723 1A1A          OR #0x001a, AC0, AC0 ; |467| 
         000725 00   
    2313 000726 EB79          MOV AC0, dbl(*AR3(short(#4))) ; |467| 
         000728 08   
    2314                      .dwpsn  file "F:/eZdsp_DBG/tmp1/c55x-sim2/foo/c5535_bsl_revc/ezdsp5535_v1/c55xx_csl/inc/csl_usbAux.h"
    2315 000729 ED00          MOV dbl(*SP(#0)), XAR3
         00072b BF   
    2316 00072c ED04          MOV dbl(*SP(#2)), AC0 ; |468| 
         00072e 08   
    2317 00072f EB7D          MOV AC0, dbl(*AR3(short(#6))) ; |468| 
         000731 08   
    2318                      .dwpsn  file "F:/eZdsp_DBG/tmp1/c55x-sim2/foo/c5535_bsl_revc/ezdsp5535_v1/c55xx_csl/inc/csl_usbAux.h"
    2319 000732 ED08          MOV dbl(*SP(#4)), XAR3
         000734 BF   
    2320 000735 90B0          MOV XAR3, AC0
    2321 000737 ED00          MOV dbl(*SP(#0)), XAR3
TMS320C55x Assembler PC v4.4.1 Sat Sep 29 23:08:40 2018

Tools Copyright (c) 1996-2012 Texas Instruments Incorporated
csl_usb_dma_example.asm                                              PAGE   53

         000739 BF   
    2322 00073a 5000          SFTL AC0, #1 ; |471| 
    2323 00073c EC26          BSET @#19, AC0 ; |471| 
         00073e 00   
    2324 00073f EB6D          MOV AC0, dbl(*AR3(#8)) ; |471| 
         000741 0800 
         000743 08   
    2325                      .dwpsn  file "F:/eZdsp_DBG/tmp1/c55x-sim2/foo/c5535_bsl_revc/ezdsp5535_v1/c55xx_csl/inc/csl_usbAux.h"
    2326 000744 ED00          MOV dbl(*SP(#0)), XAR3
         000746 BF   
    2327 000747 3C00          MOV #0, AC0 ; |474| 
    2328 000749 EB6D          MOV AC0, dbl(*AR3(#10)) ; |474| 
         00074b 0800 
         00074d 0A   
    2329                      .dwpsn  file "F:/eZdsp_DBG/tmp1/c55x-sim2/foo/c5535_bsl_revc/ezdsp5535_v1/c55xx_csl/inc/csl_usbAux.h"
    2330 00074e ED00          MOV dbl(*SP(#0)), XAR3
         000750 BF   
    2331 000751 ED04          MOV dbl(*SP(#2)), AC0 ; |475| 
         000753 08   
    2332 000754 EB6D          MOV AC0, dbl(*AR3(#12)) ; |475| 
         000756 0800 
         000758 0C   
    2333                      .dwpsn  file "F:/eZdsp_DBG/tmp1/c55x-sim2/foo/c5535_bsl_revc/ezdsp5535_v1/c55xx_csl/inc/csl_usbAux.h"
    2334 000759 ED08          MOV dbl(*SP(#4)), XAR3
         00075b BF   
    2335 00075c 90B0          MOV XAR3, AC0
    2336 00075e ED00          MOV dbl(*SP(#0)), XAR3
         000760 BF   
    2337 000761 5000          SFTL AC0, #1 ; |478| 
    2338 000763 EC26          BSET @#19, AC0 ; |478| 
         000765 00   
    2339 000766 EB6D          MOV AC0, dbl(*AR3(#14)) ; |478| 
         000768 0800 
         00076a 0E   
    2340                      .dwpsn  file "F:/eZdsp_DBG/tmp1/c55x-sim2/foo/c5535_bsl_revc/ezdsp5535_v1/c55xx_csl/inc/csl_usbAux.h"
    2341              $C$DW$213       .dwtag  DW_TAG_TI_branch
    2342                      .dwattr $C$DW$213, DW_AT_low_pc(0x00)
    2343                      .dwattr $C$DW$213, DW_AT_name("_IRQ_globalDisable")
    2344                      .dwattr $C$DW$213, DW_AT_TI_call
    2345 00076b 6C00          CALL #_IRQ_globalDisable ; |482| 
         00076d 0000!
    2346                                                      ; call occurs [#_IRQ_globalDisable] ; |482| 
    2347 00076f C40E          MOV T0, *SP(#7) ; |482| 
    2348                      .dwpsn  file "F:/eZdsp_DBG/tmp1/c55x-sim2/foo/c5535_bsl_revc/ezdsp5535_v1/c55xx_csl/inc/csl_usbAux.h"
    2349 000771 7660          MOV #24588, T0 ; |483| 
         000773 0C48 
    2350 000775 ED00          MOV dbl(*SP(#0)), XAR3
         000777 BF   
    2351 000778 90B0          MOV XAR3, AC0
    2352 00077a AB31          MOV *(#_usbRegisters), AR3 ; |483| 
         00077c 0000 
         00077e 00!  
    2353 00077f 5000          SFTL AC0, #1 ; |483| 
    2354 000781 7DFF          AND #0xffff, AC0, AC0 ; |483| 
         000783 FF00 
TMS320C55x Assembler PC v4.4.1 Sat Sep 29 23:08:40 2018

Tools Copyright (c) 1996-2012 Texas Instruments Incorporated
csl_usb_dma_example.asm                                              PAGE   54

    2355 000785 EC02          BSET @#1, AC0 ; |483| 
         000787 00   
    2356 000788 C06B          MOV AC0, port(*AR3(T0)) ; |483| 
         00078a 9A   
    2357                      .dwpsn  file "F:/eZdsp_DBG/tmp1/c55x-sim2/foo/c5535_bsl_revc/ezdsp5535_v1/c55xx_csl/inc/csl_usbAux.h"
    2358 00078b 7660          MOV #24589, T0 ; |485| 
         00078d 0D48 
    2359 00078f ED00          MOV dbl(*SP(#0)), XAR3
         000791 BF   
    2360 000792 90B0          MOV XAR3, AC0
    2361 000794 AB31          MOV *(#_usbRegisters), AR3 ; |485| 
         000796 0000 
         000798 00!  
    2362 000799 1005          SFTS AC0, #-15, AC0 ; |485| 
         00079b 31   
    2363 00079c 7DFF          AND #0xffff, AC0, AC0 ; |485| 
         00079e FF00 
    2364 0007a0 EC06          BSET @#3, AC0 ; |485| 
         0007a2 00   
    2365 0007a3 C06B          MOV AC0, port(*AR3(T0)) ; |485| 
         0007a5 9A   
    2366                      .dwpsn  file "F:/eZdsp_DBG/tmp1/c55x-sim2/foo/c5535_bsl_revc/ezdsp5535_v1/c55xx_csl/inc/csl_usbAux.h"
    2367 0007a6 A40E          MOV *SP(#7), T0 ; |488| 
    2368              $C$DW$214       .dwtag  DW_TAG_TI_branch
    2369                      .dwattr $C$DW$214, DW_AT_low_pc(0x00)
    2370                      .dwattr $C$DW$214, DW_AT_name("_IRQ_globalRestore")
    2371                      .dwattr $C$DW$214, DW_AT_TI_call
    2372 0007a8 6C00          CALL #_IRQ_globalRestore ; |488| 
         0007aa 0000!
    2373                                                      ; call occurs [#_IRQ_globalRestore] ; |488| 
    2374                      .dwpsn  file "F:/eZdsp_DBG/tmp1/c55x-sim2/foo/c5535_bsl_revc/ezdsp5535_v1/c55xx_csl/inc/csl_usbAux.h"
    2375 0007ac 4A03          B $C$L30  ; |489| 
    2376                                                      ; branch occurs ; |489| 
    2377 0007ae       $C$L29:    
    2378                      .dwpsn  file "F:/eZdsp_DBG/tmp1/c55x-sim2/foo/c5535_bsl_revc/ezdsp5535_v1/c55xx_csl/inc/csl_usbAux.h"
    2379 0007ae E60C          MOV #-6, *SP(#6) ; |492| 
         0007b0 FA   
    2380 0007b1       $C$L30:    
    2381                      .dwpsn  file "F:/eZdsp_DBG/tmp1/c55x-sim2/foo/c5535_bsl_revc/ezdsp5535_v1/c55xx_csl/inc/csl_usbAux.h"
    2382 0007b1 A40C          MOV *SP(#6), T0 ; |495| 
    2383                      .dwpsn  file "F:/eZdsp_DBG/tmp1/c55x-sim2/foo/c5535_bsl_revc/ezdsp5535_v1/c55xx_csl/inc/csl_usbAux.h"
    2384 0007b3 4E09          AADD #9, SP
    2385                      .dwcfi  cfa_offset, 1
    2386              $C$DW$215       .dwtag  DW_TAG_TI_branch
    2387                      .dwattr $C$DW$215, DW_AT_low_pc(0x00)
    2388                      .dwattr $C$DW$215, DW_AT_TI_return
    2389 0007b5 4804          RET
    2390                                                      ; return occurs
    2391                      .dwattr $C$DW$204, DW_AT_TI_end_file("F:/eZdsp_DBG/tmp1/c55x-sim2/foo/c5535_bsl_revc/ezdsp5535_v1/c55
    2392                      .dwattr $C$DW$204, DW_AT_TI_end_line(0x1f0)
    2393                      .dwattr $C$DW$204, DW_AT_TI_end_column(0x01)
    2394                      .dwendentry
    2395                      .dwendtag $C$DW$204
    2396              
    2397 0007b7               .sect   ".text"
TMS320C55x Assembler PC v4.4.1 Sat Sep 29 23:08:40 2018

Tools Copyright (c) 1996-2012 Texas Instruments Incorporated
csl_usb_dma_example.asm                                              PAGE   55

    2398                      .align 4
    2399              
    2400              $C$DW$216       .dwtag  DW_TAG_subprogram, DW_AT_name("USB_handleTx")
    2401                      .dwattr $C$DW$216, DW_AT_low_pc(_USB_handleTx)
    2402                      .dwattr $C$DW$216, DW_AT_high_pc(0x00)
    2403                      .dwattr $C$DW$216, DW_AT_TI_symbol_name("_USB_handleTx")
    2404                      .dwattr $C$DW$216, DW_AT_type(*$C$DW$T$80)
    2405                      .dwattr $C$DW$216, DW_AT_TI_begin_file("F:/eZdsp_DBG/tmp1/c55x-sim2/foo/c5535_bsl_revc/ezdsp5535_v1/c
    2406                      .dwattr $C$DW$216, DW_AT_TI_begin_line(0x371)
    2407                      .dwattr $C$DW$216, DW_AT_TI_begin_column(0x0c)
    2408                      .dwattr $C$DW$216, DW_AT_TI_max_frame_size(0x16)
    2409                      .dwpsn  file "F:/eZdsp_DBG/tmp1/c55x-sim2/foo/c5535_bsl_revc/ezdsp5535_v1/c55xx_csl/inc/csl_usbAux.h"
    2410              
    2411                      .dwfde $C$DW$CIE, _USB_handleTx
    2412              $C$DW$217       .dwtag  DW_TAG_formal_parameter, DW_AT_name("pContext")
    2413                      .dwattr $C$DW$217, DW_AT_TI_symbol_name("_pContext")
    2414                      .dwattr $C$DW$217, DW_AT_type(*$C$DW$T$164)
    2415                      .dwattr $C$DW$217, DW_AT_location[DW_OP_reg17]
    2416              $C$DW$218       .dwtag  DW_TAG_formal_parameter, DW_AT_name("dwEndpoint")
    2417                      .dwattr $C$DW$218, DW_AT_TI_symbol_name("_dwEndpoint")
    2418                      .dwattr $C$DW$218, DW_AT_type(*$C$DW$T$88)
    2419                      .dwattr $C$DW$218, DW_AT_location[DW_OP_reg0]
    2420              ;*******************************************************************************
    2421              ;* FUNCTION NAME: USB_handleTx                                                 *
    2422              ;*                                                                             *
    2423              ;*   Function Uses Regs : AC0,AC0,AC1,AC1,T0,AR0,XAR0,AR1,XAR1,AR3,XAR3,SP,    *
    2424              ;*                        CARRY,TC1,M40,SATA,SATD,RDM,FRCT,SMUL                *
    2425              ;*   Stack Frame        : Compact (No Frame Pointer, w/ debug)                 *
    2426              ;*   Total Frame Size   : 22 words                                             *
    2427              ;*                        (1 return address/alignment)                         *
    2428              ;*                        (21 local values)                                    *
    2429              ;*   Min System Stack   : 1 word                                               *
    2430              ;*******************************************************************************
    2431 0007b8       _USB_handleTx:
    2432                      .dwcfi  cfa_offset, 1
    2433                      .dwcfi  save_reg_to_mem, 91, -1
    2434 0007b8 4EEB          AADD #-21, SP
    2435                      .dwcfi  cfa_offset, 22
    2436              $C$DW$219       .dwtag  DW_TAG_variable, DW_AT_name("pContext")
    2437                      .dwattr $C$DW$219, DW_AT_TI_symbol_name("_pContext")
    2438                      .dwattr $C$DW$219, DW_AT_type(*$C$DW$T$164)
    2439                      .dwattr $C$DW$219, DW_AT_location[DW_OP_bregx 0x24 0]
    2440              $C$DW$220       .dwtag  DW_TAG_variable, DW_AT_name("dwEndpoint")
    2441                      .dwattr $C$DW$220, DW_AT_TI_symbol_name("_dwEndpoint")
    2442                      .dwattr $C$DW$220, DW_AT_type(*$C$DW$T$88)
    2443                      .dwattr $C$DW$220, DW_AT_location[DW_OP_bregx 0x24 2]
    2444              $C$DW$221       .dwtag  DW_TAG_variable, DW_AT_name("cbToWrite")
    2445                      .dwattr $C$DW$221, DW_AT_TI_symbol_name("_cbToWrite")
    2446                      .dwattr $C$DW$221, DW_AT_type(*$C$DW$T$88)
    2447                      .dwattr $C$DW$221, DW_AT_location[DW_OP_bregx 0x24 4]
    2448              $C$DW$222       .dwtag  DW_TAG_variable, DW_AT_name("pwBuffer")
    2449                      .dwattr $C$DW$222, DW_AT_TI_symbol_name("_pwBuffer")
    2450                      .dwattr $C$DW$222, DW_AT_type(*$C$DW$T$87)
    2451                      .dwattr $C$DW$222, DW_AT_location[DW_OP_bregx 0x24 6]
    2452              $C$DW$223       .dwtag  DW_TAG_variable, DW_AT_name("cbBuffer")
TMS320C55x Assembler PC v4.4.1 Sat Sep 29 23:08:40 2018

Tools Copyright (c) 1996-2012 Texas Instruments Incorporated
csl_usb_dma_example.asm                                              PAGE   56

    2453                      .dwattr $C$DW$223, DW_AT_TI_symbol_name("_cbBuffer")
    2454                      .dwattr $C$DW$223, DW_AT_type(*$C$DW$T$88)
    2455                      .dwattr $C$DW$223, DW_AT_location[DW_OP_bregx 0x24 8]
    2456              $C$DW$224       .dwtag  DW_TAG_variable, DW_AT_name("cbWritten")
    2457                      .dwattr $C$DW$224, DW_AT_TI_symbol_name("_cbWritten")
    2458                      .dwattr $C$DW$224, DW_AT_type(*$C$DW$T$88)
    2459                      .dwattr $C$DW$224, DW_AT_location[DW_OP_bregx 0x24 10]
    2460              $C$DW$225       .dwtag  DW_TAG_variable, DW_AT_name("count")
    2461                      .dwattr $C$DW$225, DW_AT_TI_symbol_name("_count")
    2462                      .dwattr $C$DW$225, DW_AT_type(*$C$DW$T$19)
    2463                      .dwattr $C$DW$225, DW_AT_location[DW_OP_bregx 0x24 12]
    2464              $C$DW$226       .dwtag  DW_TAG_variable, DW_AT_name("saveIndex")
    2465                      .dwattr $C$DW$226, DW_AT_TI_symbol_name("_saveIndex")
    2466                      .dwattr $C$DW$226, DW_AT_type(*$C$DW$T$19)
    2467                      .dwattr $C$DW$226, DW_AT_location[DW_OP_bregx 0x24 13]
    2468              $C$DW$227       .dwtag  DW_TAG_variable, DW_AT_name("status")
    2469                      .dwattr $C$DW$227, DW_AT_TI_symbol_name("_status")
    2470                      .dwattr $C$DW$227, DW_AT_type(*$C$DW$T$80)
    2471                      .dwattr $C$DW$227, DW_AT_location[DW_OP_bregx 0x24 14]
    2472              $C$DW$228       .dwtag  DW_TAG_variable, DW_AT_name("peps")
    2473                      .dwattr $C$DW$228, DW_AT_TI_symbol_name("_peps")
    2474                      .dwattr $C$DW$228, DW_AT_type(*$C$DW$T$168)
    2475                      .dwattr $C$DW$228, DW_AT_location[DW_OP_bregx 0x24 16]
    2476              $C$DW$229       .dwtag  DW_TAG_variable, DW_AT_name("pTransfer")
    2477                      .dwattr $C$DW$229, DW_AT_TI_symbol_name("_pTransfer")
    2478                      .dwattr $C$DW$229, DW_AT_type(*$C$DW$T$172)
    2479                      .dwattr $C$DW$229, DW_AT_location[DW_OP_bregx 0x24 18]
    2480              $C$DW$230       .dwtag  DW_TAG_variable, DW_AT_name("pFifoAddr")
    2481                      .dwattr $C$DW$230, DW_AT_TI_symbol_name("_pFifoAddr")
    2482                      .dwattr $C$DW$230, DW_AT_type(*$C$DW$T$227)
    2483                      .dwattr $C$DW$230, DW_AT_location[DW_OP_bregx 0x24 20]
    2484 0007ba EB04          MOV AC0, dbl(*SP(#2)) ; |883| 
         0007bc 08   
    2485 0007bd EB00          MOV XAR0, dbl(*SP(#0))
         0007bf 85   
    2486                      .dwpsn  file "F:/eZdsp_DBG/tmp1/c55x-sim2/foo/c5535_bsl_revc/ezdsp5535_v1/c55xx_csl/inc/csl_usbAux.h"
    2487 0007c0 E61C          MOV #0, *SP(#14) ; |896| 
         0007c2 00   
    2488                      .dwpsn  file "F:/eZdsp_DBG/tmp1/c55x-sim2/foo/c5535_bsl_revc/ezdsp5535_v1/c55xx_csl/inc/csl_usbAux.h"
    2489 0007c3 E618          MOV #0, *SP(#12) ; |897| 
         0007c5 00   
    2490                      .dwpsn  file "F:/eZdsp_DBG/tmp1/c55x-sim2/foo/c5535_bsl_revc/ezdsp5535_v1/c55xx_csl/inc/csl_usbAux.h"
    2491 0007c6 E61A          MOV #0, *SP(#13) ; |898| 
         0007c8 00   
    2492                      .dwpsn  file "F:/eZdsp_DBG/tmp1/c55x-sim2/foo/c5535_bsl_revc/ezdsp5535_v1/c55xx_csl/inc/csl_usbAux.h"
    2493 0007c9 3C00          MOV #0, AC0 ; |899| 
    2494 0007cb EB14          MOV AC0, dbl(*SP(#10)) ; |899| 
         0007cd 08   
    2495                      .dwpsn  file "F:/eZdsp_DBG/tmp1/c55x-sim2/foo/c5535_bsl_revc/ezdsp5535_v1/c55xx_csl/inc/csl_usbAux.h"
    2496 0007ce ED00          MOV dbl(*SP(#0)), XAR3
         0007d0 BF   
    2497 0007d1 90B0          MOV XAR3, AC0
    2498 0007d3 6D00          BCC $C$L45,AC0 == #0 ; |901| 
         0007d5 0258 
    2499                                                      ; branchcc occurs ; |901| 
TMS320C55x Assembler PC v4.4.1 Sat Sep 29 23:08:40 2018

Tools Copyright (c) 1996-2012 Texas Instruments Incorporated
csl_usb_dma_example.asm                                              PAGE   57

    2500                      .dwpsn  file "F:/eZdsp_DBG/tmp1/c55x-sim2/foo/c5535_bsl_revc/ezdsp5535_v1/c55xx_csl/inc/csl_usbAux.h"
    2501 0007d7 ED6D          MOV dbl(*AR3(#98)), XAR3
         0007d9 BF00 
         0007db 62   
    2502 0007dc F806          MPYMK *SP(#3), #18, AC0 ; |903| 
         0007de 1200 
    2503 0007e0 2209          MOV AC0, AR1 ; |903| 
    2504              
    2505 0007e2 8E20          MOV XAR3, dbl(*SP(#16))
         0007e4 BB10 
         0007e6 B590 
    2506              ||      AADD AR1, AR3 ; |903| 
    2507              
    2508                      .dwpsn  file "F:/eZdsp_DBG/tmp1/c55x-sim2/foo/c5535_bsl_revc/ezdsp5535_v1/c55xx_csl/inc/csl_usbAux.h"
    2509 0007e8 ED6D          MOV dbl(*AR3(#10)), XAR3
         0007ea BF00 
         0007ec 0A   
    2510 0007ed EB24          MOV XAR3, dbl(*SP(#18))
         0007ef B5   
    2511                      .dwpsn  file "F:/eZdsp_DBG/tmp1/c55x-sim2/foo/c5535_bsl_revc/ezdsp5535_v1/c55xx_csl/inc/csl_usbAux.h"
    2512 0007f0 90B0          MOV XAR3, AC0
    2513 0007f2 6D00          BCC $C$L44,AC0 == #0 ; |906| 
         0007f4 0234 
    2514                                                      ; branchcc occurs ; |906| 
    2515 0007f6 A96D          MOV *AR3(#12), AR1 ; |906| 
         0007f8 000C 
    2516 0007fa 6D19          BCC $C$L44,AR1 != #0 ; |906| 
         0007fc 022C 
    2517                                                      ; branchcc occurs ; |906| 
    2518                      .dwpsn  file "F:/eZdsp_DBG/tmp1/c55x-sim2/foo/c5535_bsl_revc/ezdsp5535_v1/c55xx_csl/inc/csl_usbAux.h"
    2519 0007fe ED6D          MOV dbl(*AR3(#8)), AC0 ; |908| 
         000800 0800 
         000802 08   
    2520 000803 ED79          MOV dbl(*AR3(short(#4))), XAR3
         000805 BF   
    2521 000806 5001          SFTL AC0, #-1 ; |908| 
    2522 000808 2209          MOV AC0, AR1 ; |908| 
    2523              
    2524 00080a 8E0C          MOV XAR3, dbl(*SP(#6))
         00080c BB10 
         00080e B590 
    2525              ||      AADD AR1, AR3 ; |908| 
    2526              
    2527                      .dwpsn  file "F:/eZdsp_DBG/tmp1/c55x-sim2/foo/c5535_bsl_revc/ezdsp5535_v1/c55xx_csl/inc/csl_usbAux.h"
    2528 000810 ED24          MOV dbl(*SP(#18)), XAR3
         000812 BF   
    2529 000813 ED6D          MOV dbl(*AR3(#8)), AC0 ; |909| 
         000815 0800 
         000817 08   
    2530 000818 ED7D          SUB AC0, dbl(*AR3(short(#6))), AC0 ; |909| 
         00081a 04   
    2531 00081b EB10          MOV AC0, dbl(*SP(#8)) ; |909| 
         00081d 08   
    2532                      .dwpsn  file "F:/eZdsp_DBG/tmp1/c55x-sim2/foo/c5535_bsl_revc/ezdsp5535_v1/c55xx_csl/inc/csl_usbAux.h"
    2533 00081e ED20          MOV dbl(*SP(#16)), XAR3
TMS320C55x Assembler PC v4.4.1 Sat Sep 29 23:08:40 2018

Tools Copyright (c) 1996-2012 Texas Instruments Incorporated
csl_usb_dma_example.asm                                              PAGE   58

         000820 BF   
    2534 000821 A96D          MOV *AR3(#9), AR1 ; |910| 
         000823 0009 
    2535 000825 C928          MOV AR1, *SP(#20) ; |910| 
    2536                      .dwpsn  file "F:/eZdsp_DBG/tmp1/c55x-sim2/foo/c5535_bsl_revc/ezdsp5535_v1/c55xx_csl/inc/csl_usbAux.h"
    2537 000827 ED20          MOV dbl(*SP(#16)), XAR3
         000829 BF   
    2538 00082a ED10          MOV dbl(*SP(#8)), AC1 ; |913| 
         00082c 18   
    2539 00082d ED79          MOV dbl(*AR3(short(#4))), AC0 ; |913| 
         00082f 08   
    2540 000830 1218          CMPU AC1 >= AC0, TC1 ; |913| 
         000832 04   
    2541 000833 62E4          BCC $C$L31,TC1 ; |913| 
    2542                                                      ; branchcc occurs ; |913| 
    2543 000835 ED10          MOV dbl(*SP(#8)), AC0 ; |913| 
         000837 08   
    2544 000838 4A03          B $C$L32  ; |913| 
    2545                                                      ; branch occurs ; |913| 
    2546 00083a       $C$L31:    
    2547 00083a ED79          MOV dbl(*AR3(short(#4))), AC0 ; |913| 
         00083c 08   
    2548 00083d       $C$L32:    
    2549 00083d EB08          MOV AC0, dbl(*SP(#4)) ; |913| 
         00083f 08   
    2550                      .dwpsn  file "F:/eZdsp_DBG/tmp1/c55x-sim2/foo/c5535_bsl_revc/ezdsp5535_v1/c55xx_csl/inc/csl_usbAux.h"
    2551 000840 ED24          MOV dbl(*SP(#18)), XAR3
         000842 BF   
    2552 000843 F06D          CMP *AR3(#13) == #32, TC1 ; |916| 
         000845 0020 
         000847 000D 
    2553 000849 6474          BCC $C$L33,!TC1 ; |916| 
    2554                                                      ; branchcc occurs ; |916| 
    2555                      .dwpsn  file "F:/eZdsp_DBG/tmp1/c55x-sim2/foo/c5535_bsl_revc/ezdsp5535_v1/c55xx_csl/inc/csl_usbAux.h"
    2556 00084b E66D          MOV #1, *AR3(#12) ; |918| 
         00084d 0100 
         00084f 0C   
    2557                      .dwpsn  file "F:/eZdsp_DBG/tmp1/c55x-sim2/foo/c5535_bsl_revc/ezdsp5535_v1/c55xx_csl/inc/csl_usbAux.h"
    2558 000850 0601          B $C$L43  ; |919| 
         000852 B3   
    2559                                                      ; branch occurs ; |919| 
    2560 000853       $C$L33:    
    2561                      .dwpsn  file "F:/eZdsp_DBG/tmp1/c55x-sim2/foo/c5535_bsl_revc/ezdsp5535_v1/c55xx_csl/inc/csl_usbAux.h"
    2562 000853 ED20          MOV dbl(*SP(#16)), XAR3
         000855 BF   
    2563 000856 F06D          CMP *AR3(#16) == #1, TC1 ; |922| 
         000858 0001 
         00085a 0010 
    2564 00085c 6D64          BCC $C$L43,TC1 ; |922| 
         00085e 01A6 
    2565                                                      ; branchcc occurs ; |922| 
    2566                      .dwpsn  file "F:/eZdsp_DBG/tmp1/c55x-sim2/foo/c5535_bsl_revc/ezdsp5535_v1/c55xx_csl/inc/csl_usbAux.h"
    2567 000860 7602          MOV #512, AC0 ; |925| 
         000862 0008 
    2568 000864 ED08          MOV dbl(*SP(#4)), AC1 ; |925| 
TMS320C55x Assembler PC v4.4.1 Sat Sep 29 23:08:40 2018

Tools Copyright (c) 1996-2012 Texas Instruments Incorporated
csl_usb_dma_example.asm                                              PAGE   59

         000866 18   
    2569 000867 1210          CMPU AC1 == AC0, TC1 ; |925| 
         000869 04   
    2570 00086a 66E4          BCC $C$L34,TC1 ; |925| 
    2571                                                      ; branchcc occurs ; |925| 
    2572 00086c 7600          MOV #64, AC0 ; |925| 
         00086e 4008 
    2573 000870 ED08          MOV dbl(*SP(#4)), AC1 ; |925| 
         000872 18   
    2574 000873 121C          CMPU AC1 != AC0, TC1 ; |925| 
         000875 04   
    2575 000876 0464          BCC $C$L37,TC1 ; |925| 
         000878 5E   
    2576                                                      ; branchcc occurs ; |925| 
    2577 000879       $C$L34:    
    2578 000879 ED00          MOV dbl(*SP(#0)), XAR3
         00087b BF   
    2579 00087c F061          CMP *AR3 == #1, TC1 ; |925| 
         00087e 0001 
    2580 000880 63E4          BCC $C$L35,TC1 ; |925| 
    2581                                                      ; branchcc occurs ; |925| 
    2582 000882 F061          CMP *AR3 == #2, TC1 ; |925| 
         000884 0002 
    2583 000886 0474          BCC $C$L37,!TC1 ; |925| 
         000888 4E   
    2584                                                      ; branchcc occurs ; |925| 
    2585 000889       $C$L35:    
    2586                      .dwpsn  file "F:/eZdsp_DBG/tmp1/c55x-sim2/foo/c5535_bsl_revc/ezdsp5535_v1/c55xx_csl/inc/csl_usbAux.h"
    2587 000889 ED24          MOV dbl(*SP(#18)), XAR3
         00088b BF   
    2588 00088c ED08          MOV dbl(*SP(#4)), AC0 ; |929| 
         00088e 08   
    2589 00088f ED6D          ADD dbl(*AR3(#8)), AC0, AC0 ; |929| 
         000891 0000 
         000893 08   
    2590 000894 EB6D          MOV AC0, dbl(*AR3(#8)) ; |929| 
         000896 0800 
         000898 08   
    2591                      .dwpsn  file "F:/eZdsp_DBG/tmp1/c55x-sim2/foo/c5535_bsl_revc/ezdsp5535_v1/c55xx_csl/inc/csl_usbAux.h"
    2592 000899 ED24          MOV dbl(*SP(#18)), XAR3
         00089b BF   
    2593 00089c ED08          MOV dbl(*SP(#4)), AC0 ; |930| 
         00089e 08   
    2594 00089f EB6D          MOV AC0, dbl(*AR3(#10)) ; |930| 
         0008a1 0800 
         0008a3 0A   
    2595                      .dwpsn  file "F:/eZdsp_DBG/tmp1/c55x-sim2/foo/c5535_bsl_revc/ezdsp5535_v1/c55xx_csl/inc/csl_usbAux.h"
    2596 0008a4 ED04          MOV dbl(*SP(#2)), AC0 ; |932| 
         0008a6 08   
    2597              $C$DW$231       .dwtag  DW_TAG_TI_branch
    2598                      .dwattr $C$DW$231, DW_AT_low_pc(0x00)
    2599                      .dwattr $C$DW$231, DW_AT_name("_USB_dmaTxStart")
    2600                      .dwattr $C$DW$231, DW_AT_TI_call
    2601 0008a7 08FB          CALL #_USB_dmaTxStart ; |932| 
         0008a9 32   
TMS320C55x Assembler PC v4.4.1 Sat Sep 29 23:08:40 2018

Tools Copyright (c) 1996-2012 Texas Instruments Incorporated
csl_usb_dma_example.asm                                              PAGE   60

    2602                                                      ; call occurs [#_USB_dmaTxStart] ; |932| 
    2603                      .dwpsn  file "F:/eZdsp_DBG/tmp1/c55x-sim2/foo/c5535_bsl_revc/ezdsp5535_v1/c55xx_csl/inc/csl_usbAux.h"
    2604 0008aa ED24          MOV dbl(*SP(#18)), XAR3
         0008ac BF   
    2605 0008ad ED6D          MOV dbl(*AR3(#8)), AC1 ; |934| 
         0008af 1800 
         0008b1 08   
    2606 0008b2 ED7D          MOV dbl(*AR3(short(#6))), AC0 ; |934| 
         0008b4 08   
    2607 0008b5 121C          CMPU AC1 != AC0, TC1 ; |934| 
         0008b7 04   
    2608 0008b8 6464          BCC $C$L36,TC1 ; |934| 
    2609                                                      ; branchcc occurs ; |934| 
    2610                      .dwpsn  file "F:/eZdsp_DBG/tmp1/c55x-sim2/foo/c5535_bsl_revc/ezdsp5535_v1/c55xx_csl/inc/csl_usbAux.h"
    2611 0008ba E66D          MOV #1, *AR3(#12) ; |936| 
         0008bc 0100 
         0008be 0C   
    2612                      .dwpsn  file "F:/eZdsp_DBG/tmp1/c55x-sim2/foo/c5535_bsl_revc/ezdsp5535_v1/c55xx_csl/inc/csl_usbAux.h"
    2613 0008bf 0601          B $C$L43  ; |937| 
         0008c1 44   
    2614                                                      ; branch occurs ; |937| 
    2615 0008c2       $C$L36:    
    2616                      .dwpsn  file "F:/eZdsp_DBG/tmp1/c55x-sim2/foo/c5535_bsl_revc/ezdsp5535_v1/c55xx_csl/inc/csl_usbAux.h"
    2617 0008c2 ED00          MOV dbl(*SP(#0)), XAR3
         0008c4 BF   
    2618 0008c5 ED00          MOV dbl(*SP(#0)), XAR0
         0008c7 8F   
    2619 0008c8 ED20          MOV dbl(*SP(#16)), XAR1
         0008ca 9F   
    2620 0008cb ED6D          MOV dbl(*AR3(#116)), AC0 ; |940| 
         0008cd 0800 
         0008cf 74   
    2621              $C$DW$232       .dwtag  DW_TAG_TI_branch
    2622                      .dwattr $C$DW$232, DW_AT_low_pc(0x00)
    2623                      .dwattr $C$DW$232, DW_AT_TI_call
    2624                      .dwattr $C$DW$232, DW_AT_TI_indirect
    2625 0008d0 9200          CALL AC0  ; |940| 
    2626                                                      ; call occurs [AC0] ; |940| 
    2627 0008d2 C41C          MOV T0, *SP(#14) ; |940| 
    2628                      .dwpsn  file "F:/eZdsp_DBG/tmp1/c55x-sim2/foo/c5535_bsl_revc/ezdsp5535_v1/c55xx_csl/inc/csl_usbAux.h"
    2629 0008d4 0601          B $C$L43  ; |942| 
         0008d6 2F   
    2630                                                      ; branch occurs ; |942| 
    2631 0008d7       $C$L37:    
    2632                      .dwpsn  file "F:/eZdsp_DBG/tmp1/c55x-sim2/foo/c5535_bsl_revc/ezdsp5535_v1/c55xx_csl/inc/csl_usbAux.h"
    2633 0008d7 7604          MOV #1038, T0 ; |957| 
         0008d9 0E48 
    2634 0008db AB31          MOV *(#_usbRegisters), AR3 ; |957| 
         0008dd 0000 
         0008df 00!  
    2635 0008e0 A96B          MOV port(*AR3(T0)), AR1 ; |957| 
         0008e2 99   
    2636 0008e3 C91A          MOV AR1, *SP(#13) ; |957| 
    2637                      .dwpsn  file "F:/eZdsp_DBG/tmp1/c55x-sim2/foo/c5535_bsl_revc/ezdsp5535_v1/c55xx_csl/inc/csl_usbAux.h"
    2638 0008e5 A96B          MOV port(*AR3(T0)), AR1 ; |960| 
TMS320C55x Assembler PC v4.4.1 Sat Sep 29 23:08:40 2018

Tools Copyright (c) 1996-2012 Texas Instruments Incorporated
csl_usb_dma_example.asm                                              PAGE   61

         0008e7 99   
    2639 0008e8 7DFF          AND #0xfff0, AR1, AC0 ; |960| 
         0008ea F009 
    2640 0008ec C06B          MOV AC0, port(*AR3(T0)) ; |960| 
         0008ee 9A   
    2641                      .dwpsn  file "F:/eZdsp_DBG/tmp1/c55x-sim2/foo/c5535_bsl_revc/ezdsp5535_v1/c55xx_csl/inc/csl_usbAux.h"
    2642 0008ef AB31          MOV *(#_usbRegisters), AR3 ; |964| 
         0008f1 0000 
         0008f3 00!  
    2643 0008f4 ED04          MOV dbl(*SP(#2)), AC0 ; |964| 
         0008f6 08   
    2644 0008f7 180F          AND #0x000f, AC0, AC0 ; |964| 
         0008f9 00   
    2645 0008fa A96B          MOV port(*AR3(T0)), AR1 ; |964| 
         0008fc 99   
    2646 0008fd 7DFF          AND #0xfff0, AR1, AC1 ; |964| 
         0008ff F019 
    2647 000901 2A10          OR AC1, AC0 ; |964| 
    2648 000903 C06B          MOV AC0, port(*AR3(T0)) ; |964| 
         000905 9A   
    2649                      .dwpsn  file "F:/eZdsp_DBG/tmp1/c55x-sim2/foo/c5535_bsl_revc/ezdsp5535_v1/c55xx_csl/inc/csl_usbAux.h"
    2650 000906 7604          MOV #1042, T0 ; |969| 
         000908 1248 
    2651 00090a AB31          MOV *(#_usbRegisters), AR3 ; |969| 
         00090c 0000 
         00090e 00!  
    2652 00090f A96B          MOV port(*AR3(T0)), AR1 ; |969| 
         000911 99   
    2653 000912 EC06          BCLR @#3, AR1 ; |969| 
         000914 92   
    2654 000915 EC06          BSET @#3, AR1 ; |969| 
         000917 90   
    2655 000918 C96B          MOV AR1, port(*AR3(T0)) ; |969| 
         00091a 9A   
    2656                      .dwpsn  file "F:/eZdsp_DBG/tmp1/c55x-sim2/foo/c5535_bsl_revc/ezdsp5535_v1/c55xx_csl/inc/csl_usbAux.h"
    2657 00091b ED08          MOV dbl(*SP(#4)), AC0 ; |972| 
         00091d 08   
    2658 00091e 0400          BCC $C$L40,AC0 == #0 ; |972| 
         000920 76   
    2659                                                      ; branchcc occurs ; |972| 
    2660                      .dwpsn  file "F:/eZdsp_DBG/tmp1/c55x-sim2/foo/c5535_bsl_revc/ezdsp5535_v1/c55xx_csl/inc/csl_usbAux.h"
    2661 000921 ED08          MOV dbl(*SP(#4)), AC0 ; |975| 
         000923 08   
    2662 000924 EB14          MOV AC0, dbl(*SP(#10)) ; |975| 
         000926 08   
    2663                      .dwpsn  file "F:/eZdsp_DBG/tmp1/c55x-sim2/foo/c5535_bsl_revc/ezdsp5535_v1/c55xx_csl/inc/csl_usbAux.h"
    2664 000927 E618          MOV #0, *SP(#12) ; |977| 
         000929 00   
    2665                      .dwpsn  file "F:/eZdsp_DBG/tmp1/c55x-sim2/foo/c5535_bsl_revc/ezdsp5535_v1/c55xx_csl/inc/csl_usbAux.h"
    2666 00092a ED08          MOV dbl(*SP(#4)), AC0 ; |977| 
         00092c 08   
    2667              
    2668 000930 5101          SFTL AC0, #-1 ; |977| 
    2669 00092d DF18  ||      MOV uns(*SP(#12)), AC1 ; |977| 
         00092f 15   
TMS320C55x Assembler PC v4.4.1 Sat Sep 29 23:08:40 2018

Tools Copyright (c) 1996-2012 Texas Instruments Incorporated
csl_usb_dma_example.asm                                              PAGE   62

    2670              
    2671 000932 1218          CMPU AC1 >= AC0, TC1 ; |977| 
         000934 04   
    2672 000935 0464          BCC $C$L39,TC1 ; |977| 
         000937 1F   
    2673                                                      ; branchcc occurs ; |977| 
    2674 000938       $C$L38:    
    2675 000938       $C$DW$L$_USB_handleTx$19$B:
    2676                      .dwpsn  file "F:/eZdsp_DBG/tmp1/c55x-sim2/foo/c5535_bsl_revc/ezdsp5535_v1/c55xx_csl/inc/csl_usbAux.h"
    2677 000938 ED0C          MOV dbl(*SP(#6)), XAR3
         00093a BF   
    2678 00093b A963          MOV *AR3+, AR1 ; |979| 
    2679 00093d EB0C          MOV XAR3, dbl(*SP(#6))
         00093f B5   
    2680 000940 AB28          MOV *SP(#20), AR3 ; |979| 
    2681 000942 C961          MOV AR1, port(*AR3) ; |979| 
         000944 9A   
    2682                      .dwpsn  file "F:/eZdsp_DBG/tmp1/c55x-sim2/foo/c5535_bsl_revc/ezdsp5535_v1/c55xx_csl/inc/csl_usbAux.h"
    2683 000945 F718          ADD #1, *SP(#12) ; |977| 
         000947 0001 
    2684                      .dwpsn  file "F:/eZdsp_DBG/tmp1/c55x-sim2/foo/c5535_bsl_revc/ezdsp5535_v1/c55xx_csl/inc/csl_usbAux.h"
    2685 000949 ED08          MOV dbl(*SP(#4)), AC0 ; |977| 
         00094b 08   
    2686              
    2687 00094f 5101          SFTL AC0, #-1 ; |977| 
    2688 00094c DF18  ||      MOV uns(*SP(#12)), AC1 ; |977| 
         00094e 15   
    2689              
    2690 000951 1214          CMPU AC1 < AC0, TC1 ; |977| 
         000953 04   
    2691 000954 0464          BCC $C$L38,TC1 ; |977| 
         000956 E1   
    2692                                                      ; branchcc occurs ; |977| 
    2693 000957       $C$DW$L$_USB_handleTx$19$E:
    2694 000957       $C$L39:    
    2695                      .dwpsn  file "F:/eZdsp_DBG/tmp1/c55x-sim2/foo/c5535_bsl_revc/ezdsp5535_v1/c55xx_csl/inc/csl_usbAux.h"
    2696 000957 ED08          MOV dbl(*SP(#4)), AC0 ; |982| 
         000959 08   
    2697 00095a 1801          AND #0x0001, AC0, AC0 ; |982| 
         00095c 00   
    2698 00095d 0400          BCC $C$L40,AC0 == #0 ; |982| 
         00095f 37   
    2699                                                      ; branchcc occurs ; |982| 
    2700                      .dwpsn  file "F:/eZdsp_DBG/tmp1/c55x-sim2/foo/c5535_bsl_revc/ezdsp5535_v1/c55xx_csl/inc/csl_usbAux.h"
    2701 000960 7600          MOV #50, T0 ; |985| 
         000962 3248 
    2702 000964 AB31          MOV *(#_sysCtrlRegs), AR3 ; |985| 
         000966 0000 
         000968 00!  
    2703 000969 A96B          MOV port(*AR3(T0)), AR1 ; |985| 
         00096b 99   
    2704 00096c 7DFF          AND #0xfffc, AR1, AC0 ; |985| 
         00096e FC09 
    2705 000970 EC02          BSET @#1, AC0 ; |985| 
         000972 00   
TMS320C55x Assembler PC v4.4.1 Sat Sep 29 23:08:40 2018

Tools Copyright (c) 1996-2012 Texas Instruments Incorporated
csl_usb_dma_example.asm                                              PAGE   63

    2706 000973 C06B          MOV AC0, port(*AR3(T0)) ; |985| 
         000975 9A   
    2707                      .dwpsn  file "F:/eZdsp_DBG/tmp1/c55x-sim2/foo/c5535_bsl_revc/ezdsp5535_v1/c55xx_csl/inc/csl_usbAux.h"
    2708 000976 AB28          MOV *SP(#20), AR3 ; |987| 
    2709 000978 A961          MOV port(*AR3), AR1 ; |987| 
         00097a 99   
    2710 00097b ED0C          MOV dbl(*SP(#6)), XAR3
         00097d BF   
    2711 00097e A961          MOV *AR3, AR1 ; |987| 
    2712 000980 AB28          MOV *SP(#20), AR3 ; |987| 
    2713 000982 1A00          OR #0x0000, AR1, AR1 ; |987| 
         000984 99   
    2714 000985 C961          MOV AR1, port(*AR3) ; |987| 
         000987 9A   
    2715                      .dwpsn  file "F:/eZdsp_DBG/tmp1/c55x-sim2/foo/c5535_bsl_revc/ezdsp5535_v1/c55xx_csl/inc/csl_usbAux.h"
    2716 000988 AB31          MOV *(#_sysCtrlRegs), AR3 ; |990| 
         00098a 0000 
         00098c 00!  
    2717 00098d A96B          MOV port(*AR3(T0)), AR1 ; |990| 
         00098f 99   
    2718 000990 7DFF          AND #0xfffc, AR1, AC0 ; |990| 
         000992 FC09 
    2719 000994 C06B          MOV AC0, port(*AR3(T0)) ; |990| 
         000996 9A   
    2720 000997       $C$L40:    
    2721                      .dwpsn  file "F:/eZdsp_DBG/tmp1/c55x-sim2/foo/c5535_bsl_revc/ezdsp5535_v1/c55xx_csl/inc/csl_usbAux.h"
    2722 000997 ED20          MOV dbl(*SP(#16)), XAR3
         000999 BF   
    2723 00099a F075          CMP *AR3(short(#2)) == #3, TC1 ; |995| 
         00099c 0003 
    2724 00099e 6774          BCC $C$L41,!TC1 ; |995| 
    2725                                                      ; branchcc occurs ; |995| 
    2726                      .dwpsn  file "F:/eZdsp_DBG/tmp1/c55x-sim2/foo/c5535_bsl_revc/ezdsp5535_v1/c55xx_csl/inc/csl_usbAux.h"
    2727 0009a0 7604          MOV #1042, T0 ; |997| 
         0009a2 1248 
    2728 0009a4 AB31          MOV *(#_usbRegisters), AR3 ; |997| 
         0009a6 0000 
         0009a8 00!  
    2729 0009a9 F56B          OR #0x0040, port(*AR3(T0)) ; |997| 
         0009ab 0040 
         0009ad 9A   
    2730 0009ae       $C$L41:    
    2731                      .dwpsn  file "F:/eZdsp_DBG/tmp1/c55x-sim2/foo/c5535_bsl_revc/ezdsp5535_v1/c55xx_csl/inc/csl_usbAux.h"
    2732 0009ae 7604          MOV #1042, T0 ; |1002| 
         0009b0 1248 
    2733 0009b2 AB31          MOV *(#_usbRegisters), AR3 ; |1002| 
         0009b4 0000 
         0009b6 00!  
    2734 0009b7 A96B          MOV port(*AR3(T0)), AR1 ; |1002| 
         0009b9 99   
    2735 0009ba EC00          BCLR @#0, AR1 ; |1002| 
         0009bc 92   
    2736 0009bd EC00          BSET @#0, AR1 ; |1002| 
         0009bf 90   
    2737 0009c0 C96B          MOV AR1, port(*AR3(T0)) ; |1002| 
TMS320C55x Assembler PC v4.4.1 Sat Sep 29 23:08:40 2018

Tools Copyright (c) 1996-2012 Texas Instruments Incorporated
csl_usb_dma_example.asm                                              PAGE   64

         0009c2 9A   
    2738                      .dwpsn  file "F:/eZdsp_DBG/tmp1/c55x-sim2/foo/c5535_bsl_revc/ezdsp5535_v1/c55xx_csl/inc/csl_usbAux.h"
    2739 0009c3 7604          MOV #1038, T0 ; |1006| 
         0009c5 0E48 
    2740 0009c7 AB31          MOV *(#_usbRegisters), AR3 ; |1006| 
         0009c9 0000 
         0009cb 00!  
    2741 0009cc A91A          MOV *SP(#13), AR1 ; |1006| 
    2742 0009ce C96B          MOV AR1, port(*AR3(T0)) ; |1006| 
         0009d0 9A   
    2743                      .dwpsn  file "F:/eZdsp_DBG/tmp1/c55x-sim2/foo/c5535_bsl_revc/ezdsp5535_v1/c55xx_csl/inc/csl_usbAux.h"
    2744 0009d1 ED24          MOV dbl(*SP(#18)), XAR3
         0009d3 BF   
    2745 0009d4 ED14          MOV dbl(*SP(#10)), AC0 ; |1009| 
         0009d6 08   
    2746 0009d7 ED6D          ADD dbl(*AR3(#8)), AC0, AC0 ; |1009| 
         0009d9 0000 
         0009db 08   
    2747 0009dc EB6D          MOV AC0, dbl(*AR3(#8)) ; |1009| 
         0009de 0800 
         0009e0 08   
    2748                      .dwpsn  file "F:/eZdsp_DBG/tmp1/c55x-sim2/foo/c5535_bsl_revc/ezdsp5535_v1/c55xx_csl/inc/csl_usbAux.h"
    2749 0009e1 ED24          MOV dbl(*SP(#18)), XAR3
         0009e3 BF   
    2750 0009e4 ED14          MOV dbl(*SP(#10)), AC0 ; |1010| 
         0009e6 08   
    2751 0009e7 EB6D          MOV AC0, dbl(*AR3(#10)) ; |1010| 
         0009e9 0800 
         0009eb 0A   
    2752                      .dwpsn  file "F:/eZdsp_DBG/tmp1/c55x-sim2/foo/c5535_bsl_revc/ezdsp5535_v1/c55xx_csl/inc/csl_usbAux.h"
    2753 0009ec ED24          MOV dbl(*SP(#18)), XAR3
         0009ee BF   
    2754 0009ef ED6D          MOV dbl(*AR3(#8)), AC1 ; |1012| 
         0009f1 1800 
         0009f3 08   
    2755 0009f4 ED7D          MOV dbl(*AR3(short(#6))), AC0 ; |1012| 
         0009f6 08   
    2756 0009f7 1210          CMPU AC1 == AC0, TC1 ; |1012| 
         0009f9 04   
    2757 0009fa 62E4          BCC $C$L42,TC1 ; |1012| 
    2758                                                      ; branchcc occurs ; |1012| 
    2759 0009fc ED14          MOV dbl(*SP(#10)), AC0 ; |1012| 
         0009fe 08   
    2760 0009ff 6290          BCC $C$L43,AC0 != #0 ; |1012| 
    2761                                                      ; branchcc occurs ; |1012| 
    2762 000a01       $C$L42:    
    2763                      .dwpsn  file "F:/eZdsp_DBG/tmp1/c55x-sim2/foo/c5535_bsl_revc/ezdsp5535_v1/c55xx_csl/inc/csl_usbAux.h"
    2764 000a01 E66D          MOV #1, *AR3(#12) ; |1015| 
         000a03 0100 
         000a05 0C   
    2765 000a06       $C$L43:    
    2766                      .dwpsn  file "F:/eZdsp_DBG/tmp1/c55x-sim2/foo/c5535_bsl_revc/ezdsp5535_v1/c55xx_csl/inc/csl_usbAux.h"
    2767 000a06 ED24          MOV dbl(*SP(#18)), XAR3
         000a08 BF   
    2768 000a09 A96D          MOV *AR3(#12), AR1 ; |1021| 
TMS320C55x Assembler PC v4.4.1 Sat Sep 29 23:08:40 2018

Tools Copyright (c) 1996-2012 Texas Instruments Incorporated
csl_usb_dma_example.asm                                              PAGE   65

         000a0b 000C 
    2769 000a0d 0409          BCC $C$L46,AR1 == #0 ; |1021| 
         000a0f 22   
    2770                                                      ; branchcc occurs ; |1021| 
    2771                      .dwpsn  file "F:/eZdsp_DBG/tmp1/c55x-sim2/foo/c5535_bsl_revc/ezdsp5535_v1/c55xx_csl/inc/csl_usbAux.h"
    2772 000a10 ED00          MOV dbl(*SP(#0)), XAR3
         000a12 BF   
    2773 000a13 E67B          MOV #0, *AR3(short(#5)) ; |1023| 
         000a15 00   
    2774                      .dwpsn  file "F:/eZdsp_DBG/tmp1/c55x-sim2/foo/c5535_bsl_revc/ezdsp5535_v1/c55xx_csl/inc/csl_usbAux.h"
    2775 000a16 ED00          MOV dbl(*SP(#0)), XAR3
         000a18 BF   
    2776 000a19 ED00          MOV dbl(*SP(#0)), XAR0
         000a1b 8F   
    2777 000a1c ED20          MOV dbl(*SP(#16)), XAR1
         000a1e 9F   
    2778 000a1f ED6D          MOV dbl(*AR3(#116)), AC0 ; |1024| 
         000a21 0800 
         000a23 74   
    2779              $C$DW$233       .dwtag  DW_TAG_TI_branch
    2780                      .dwattr $C$DW$233, DW_AT_low_pc(0x00)
    2781                      .dwattr $C$DW$233, DW_AT_TI_call
    2782                      .dwattr $C$DW$233, DW_AT_TI_indirect
    2783 000a24 9200          CALL AC0  ; |1024| 
    2784                                                      ; call occurs [AC0] ; |1024| 
    2785 000a26 C41C          MOV T0, *SP(#14) ; |1024| 
    2786                      .dwpsn  file "F:/eZdsp_DBG/tmp1/c55x-sim2/foo/c5535_bsl_revc/ezdsp5535_v1/c55xx_csl/inc/csl_usbAux.h"
    2787 000a28 4A08          B $C$L46  ; |1026| 
    2788                                                      ; branch occurs ; |1026| 
    2789 000a2a       $C$L44:    
    2790                      .dwpsn  file "F:/eZdsp_DBG/tmp1/c55x-sim2/foo/c5535_bsl_revc/ezdsp5535_v1/c55xx_csl/inc/csl_usbAux.h"
    2791 000a2a E61C          MOV #-6, *SP(#14) ; |1029| 
         000a2c FA   
    2792                      .dwpsn  file "F:/eZdsp_DBG/tmp1/c55x-sim2/foo/c5535_bsl_revc/ezdsp5535_v1/c55xx_csl/inc/csl_usbAux.h"
    2793 000a2d 4A03          B $C$L46  ; |1031| 
    2794                                                      ; branch occurs ; |1031| 
    2795 000a2f       $C$L45:    
    2796                      .dwpsn  file "F:/eZdsp_DBG/tmp1/c55x-sim2/foo/c5535_bsl_revc/ezdsp5535_v1/c55xx_csl/inc/csl_usbAux.h"
    2797 000a2f E61C          MOV #-6, *SP(#14) ; |1034| 
         000a31 FA   
    2798 000a32       $C$L46:    
    2799                      .dwpsn  file "F:/eZdsp_DBG/tmp1/c55x-sim2/foo/c5535_bsl_revc/ezdsp5535_v1/c55xx_csl/inc/csl_usbAux.h"
    2800 000a32 A41C          MOV *SP(#14), T0 ; |1037| 
    2801                      .dwpsn  file "F:/eZdsp_DBG/tmp1/c55x-sim2/foo/c5535_bsl_revc/ezdsp5535_v1/c55xx_csl/inc/csl_usbAux.h"
    2802 000a34 4E15          AADD #21, SP
    2803                      .dwcfi  cfa_offset, 1
    2804              $C$DW$234       .dwtag  DW_TAG_TI_branch
    2805                      .dwattr $C$DW$234, DW_AT_low_pc(0x00)
    2806                      .dwattr $C$DW$234, DW_AT_TI_return
    2807 000a36 4804          RET
    2808                                                      ; return occurs
    2809              
    2810              $C$DW$235       .dwtag  DW_TAG_TI_loop
    2811                      .dwattr $C$DW$235, DW_AT_name("F:\eZdsp_DBG\tmp1\c55x-sim2\foo\Debug\csl_usb_dma_example.asm:$C$L38:1
    2812                      .dwattr $C$DW$235, DW_AT_TI_begin_file("F:/eZdsp_DBG/tmp1/c55x-sim2/foo/c5535_bsl_revc/ezdsp5535_v1/c
TMS320C55x Assembler PC v4.4.1 Sat Sep 29 23:08:40 2018

Tools Copyright (c) 1996-2012 Texas Instruments Incorporated
csl_usb_dma_example.asm                                              PAGE   66

    2813                      .dwattr $C$DW$235, DW_AT_TI_begin_line(0x3d1)
    2814                      .dwattr $C$DW$235, DW_AT_TI_end_line(0x3d4)
    2815              $C$DW$236       .dwtag  DW_TAG_TI_loop_range
    2816                      .dwattr $C$DW$236, DW_AT_low_pc($C$DW$L$_USB_handleTx$19$B)
    2817                      .dwattr $C$DW$236, DW_AT_high_pc($C$DW$L$_USB_handleTx$19$E)
    2818                      .dwendtag $C$DW$235
    2819              
    2820                      .dwattr $C$DW$216, DW_AT_TI_end_file("F:/eZdsp_DBG/tmp1/c55x-sim2/foo/c5535_bsl_revc/ezdsp5535_v1/c55
    2821                      .dwattr $C$DW$216, DW_AT_TI_end_line(0x40e)
    2822                      .dwattr $C$DW$216, DW_AT_TI_end_column(0x01)
    2823                      .dwendentry
    2824                      .dwendtag $C$DW$216
    2825              
    2826 000a38               .sect   ".text"
    2827                      .align 4
    2828              
    2829              $C$DW$237       .dwtag  DW_TAG_subprogram, DW_AT_name("USB_handleRx")
    2830                      .dwattr $C$DW$237, DW_AT_low_pc(_USB_handleRx)
    2831                      .dwattr $C$DW$237, DW_AT_high_pc(0x00)
    2832                      .dwattr $C$DW$237, DW_AT_TI_symbol_name("_USB_handleRx")
    2833                      .dwattr $C$DW$237, DW_AT_type(*$C$DW$T$80)
    2834                      .dwattr $C$DW$237, DW_AT_TI_begin_file("F:/eZdsp_DBG/tmp1/c55x-sim2/foo/c5535_bsl_revc/ezdsp5535_v1/c
    2835                      .dwattr $C$DW$237, DW_AT_TI_begin_line(0x453)
    2836                      .dwattr $C$DW$237, DW_AT_TI_begin_column(0x0c)
    2837                      .dwattr $C$DW$237, DW_AT_TI_max_frame_size(0x16)
    2838                      .dwpsn  file "F:/eZdsp_DBG/tmp1/c55x-sim2/foo/c5535_bsl_revc/ezdsp5535_v1/c55xx_csl/inc/csl_usbAux.h"
    2839              
    2840                      .dwfde $C$DW$CIE, _USB_handleRx
    2841              $C$DW$238       .dwtag  DW_TAG_formal_parameter, DW_AT_name("pContext")
    2842                      .dwattr $C$DW$238, DW_AT_TI_symbol_name("_pContext")
    2843                      .dwattr $C$DW$238, DW_AT_type(*$C$DW$T$164)
    2844                      .dwattr $C$DW$238, DW_AT_location[DW_OP_reg17]
    2845              $C$DW$239       .dwtag  DW_TAG_formal_parameter, DW_AT_name("dwEndpoint")
    2846                      .dwattr $C$DW$239, DW_AT_TI_symbol_name("_dwEndpoint")
    2847                      .dwattr $C$DW$239, DW_AT_type(*$C$DW$T$88)
    2848                      .dwattr $C$DW$239, DW_AT_location[DW_OP_reg0]
    2849              ;*******************************************************************************
    2850              ;* FUNCTION NAME: USB_handleRx                                                 *
    2851              ;*                                                                             *
    2852              ;*   Function Uses Regs : AC0,AC0,AC1,AC1,T0,AR0,XAR0,AR1,XAR1,AR2,XAR2,AR3,   *
    2853              ;*                        XAR3,SP,CARRY,TC1,M40,SATA,SATD,RDM,FRCT,SMUL        *
    2854              ;*   Stack Frame        : Compact (No Frame Pointer, w/ debug)                 *
    2855              ;*   Total Frame Size   : 22 words                                             *
    2856              ;*                        (2 return address/alignment)                         *
    2857              ;*                        (20 local values)                                    *
    2858              ;*   Min System Stack   : 1 word                                               *
    2859              ;*******************************************************************************
    2860 000a38       _USB_handleRx:
    2861                      .dwcfi  cfa_offset, 1
    2862                      .dwcfi  save_reg_to_mem, 91, -1
    2863 000a38 4EEB          AADD #-21, SP
    2864                      .dwcfi  cfa_offset, 22
    2865              $C$DW$240       .dwtag  DW_TAG_variable, DW_AT_name("pContext")
    2866                      .dwattr $C$DW$240, DW_AT_TI_symbol_name("_pContext")
    2867                      .dwattr $C$DW$240, DW_AT_type(*$C$DW$T$164)
TMS320C55x Assembler PC v4.4.1 Sat Sep 29 23:08:40 2018

Tools Copyright (c) 1996-2012 Texas Instruments Incorporated
csl_usb_dma_example.asm                                              PAGE   67

    2868                      .dwattr $C$DW$240, DW_AT_location[DW_OP_bregx 0x24 0]
    2869              $C$DW$241       .dwtag  DW_TAG_variable, DW_AT_name("dwEndpoint")
    2870                      .dwattr $C$DW$241, DW_AT_TI_symbol_name("_dwEndpoint")
    2871                      .dwattr $C$DW$241, DW_AT_type(*$C$DW$T$88)
    2872                      .dwattr $C$DW$241, DW_AT_location[DW_OP_bregx 0x24 2]
    2873              $C$DW$242       .dwtag  DW_TAG_variable, DW_AT_name("cbToRead")
    2874                      .dwattr $C$DW$242, DW_AT_TI_symbol_name("_cbToRead")
    2875                      .dwattr $C$DW$242, DW_AT_type(*$C$DW$T$88)
    2876                      .dwattr $C$DW$242, DW_AT_location[DW_OP_bregx 0x24 4]
    2877              $C$DW$243       .dwtag  DW_TAG_variable, DW_AT_name("cbBuffer")
    2878                      .dwattr $C$DW$243, DW_AT_TI_symbol_name("_cbBuffer")
    2879                      .dwattr $C$DW$243, DW_AT_type(*$C$DW$T$88)
    2880                      .dwattr $C$DW$243, DW_AT_location[DW_OP_bregx 0x24 6]
    2881              $C$DW$244       .dwtag  DW_TAG_variable, DW_AT_name("dwBytesRead")
    2882                      .dwattr $C$DW$244, DW_AT_TI_symbol_name("_dwBytesRead")
    2883                      .dwattr $C$DW$244, DW_AT_type(*$C$DW$T$88)
    2884                      .dwattr $C$DW$244, DW_AT_location[DW_OP_bregx 0x24 8]
    2885              $C$DW$245       .dwtag  DW_TAG_variable, DW_AT_name("pwBuffer")
    2886                      .dwattr $C$DW$245, DW_AT_TI_symbol_name("_pwBuffer")
    2887                      .dwattr $C$DW$245, DW_AT_type(*$C$DW$T$87)
    2888                      .dwattr $C$DW$245, DW_AT_location[DW_OP_bregx 0x24 10]
    2889              $C$DW$246       .dwtag  DW_TAG_variable, DW_AT_name("pTransfer")
    2890                      .dwattr $C$DW$246, DW_AT_TI_symbol_name("_pTransfer")
    2891                      .dwattr $C$DW$246, DW_AT_type(*$C$DW$T$172)
    2892                      .dwattr $C$DW$246, DW_AT_location[DW_OP_bregx 0x24 12]
    2893              $C$DW$247       .dwtag  DW_TAG_variable, DW_AT_name("status")
    2894                      .dwattr $C$DW$247, DW_AT_TI_symbol_name("_status")
    2895                      .dwattr $C$DW$247, DW_AT_type(*$C$DW$T$80)
    2896                      .dwattr $C$DW$247, DW_AT_location[DW_OP_bregx 0x24 14]
    2897              $C$DW$248       .dwtag  DW_TAG_variable, DW_AT_name("saveIndex")
    2898                      .dwattr $C$DW$248, DW_AT_TI_symbol_name("_saveIndex")
    2899                      .dwattr $C$DW$248, DW_AT_type(*$C$DW$T$19)
    2900                      .dwattr $C$DW$248, DW_AT_location[DW_OP_bregx 0x24 15]
    2901              $C$DW$249       .dwtag  DW_TAG_variable, DW_AT_name("peps")
    2902                      .dwattr $C$DW$249, DW_AT_TI_symbol_name("_peps")
    2903                      .dwattr $C$DW$249, DW_AT_type(*$C$DW$T$168)
    2904                      .dwattr $C$DW$249, DW_AT_location[DW_OP_bregx 0x24 16]
    2905              $C$DW$250       .dwtag  DW_TAG_variable, DW_AT_name("count")
    2906                      .dwattr $C$DW$250, DW_AT_TI_symbol_name("_count")
    2907                      .dwattr $C$DW$250, DW_AT_type(*$C$DW$T$20)
    2908                      .dwattr $C$DW$250, DW_AT_location[DW_OP_bregx 0x24 18]
    2909              $C$DW$251       .dwtag  DW_TAG_variable, DW_AT_name("pFifoAddr")
    2910                      .dwattr $C$DW$251, DW_AT_TI_symbol_name("_pFifoAddr")
    2911                      .dwattr $C$DW$251, DW_AT_type(*$C$DW$T$227)
    2912                      .dwattr $C$DW$251, DW_AT_location[DW_OP_bregx 0x24 19]
    2913 000a3a EB04          MOV AC0, dbl(*SP(#2)) ; |1109| 
         000a3c 08   
    2914 000a3d EB00          MOV XAR0, dbl(*SP(#0))
         000a3f 85   
    2915                      .dwpsn  file "F:/eZdsp_DBG/tmp1/c55x-sim2/foo/c5535_bsl_revc/ezdsp5535_v1/c55xx_csl/inc/csl_usbAux.h"
    2916 000a40 E61C          MOV #0, *SP(#14) ; |1121| 
         000a42 00   
    2917                      .dwpsn  file "F:/eZdsp_DBG/tmp1/c55x-sim2/foo/c5535_bsl_revc/ezdsp5535_v1/c55xx_csl/inc/csl_usbAux.h"
    2918 000a43 3C00          MOV #0, AC0 ; |1122| 
    2919 000a45 EB10          MOV AC0, dbl(*SP(#8)) ; |1122| 
TMS320C55x Assembler PC v4.4.1 Sat Sep 29 23:08:40 2018

Tools Copyright (c) 1996-2012 Texas Instruments Incorporated
csl_usb_dma_example.asm                                              PAGE   68

         000a47 08   
    2920                      .dwpsn  file "F:/eZdsp_DBG/tmp1/c55x-sim2/foo/c5535_bsl_revc/ezdsp5535_v1/c55xx_csl/inc/csl_usbAux.h"
    2921 000a48 ED00          MOV dbl(*SP(#0)), XAR3
         000a4a BF   
    2922 000a4b 90B0          MOV XAR3, AC0
    2923 000a4d 6D00          BCC $C$L59,AC0 == #0 ; |1124| 
         000a4f 0221 
    2924                                                      ; branchcc occurs ; |1124| 
    2925                      .dwpsn  file "F:/eZdsp_DBG/tmp1/c55x-sim2/foo/c5535_bsl_revc/ezdsp5535_v1/c55xx_csl/inc/csl_usbAux.h"
    2926 000a51 ED6D          MOV dbl(*AR3(#98)), XAR3
         000a53 BF00 
         000a55 62   
    2927 000a56 F806          MPYMK *SP(#3), #18, AC0 ; |1126| 
         000a58 1200 
    2928 000a5a 2209          MOV AC0, AR1 ; |1126| 
    2929              
    2930 000a5c 8E20          MOV XAR3, dbl(*SP(#16))
         000a5e BB10 
         000a60 B590 
    2931              ||      AADD AR1, AR3 ; |1126| 
    2932              
    2933                      .dwpsn  file "F:/eZdsp_DBG/tmp1/c55x-sim2/foo/c5535_bsl_revc/ezdsp5535_v1/c55xx_csl/inc/csl_usbAux.h"
    2934 000a62 ED6D          MOV dbl(*AR3(#10)), XAR3
         000a64 BF00 
         000a66 0A   
    2935 000a67 EB18          MOV XAR3, dbl(*SP(#12))
         000a69 B5   
    2936                      .dwpsn  file "F:/eZdsp_DBG/tmp1/c55x-sim2/foo/c5535_bsl_revc/ezdsp5535_v1/c55xx_csl/inc/csl_usbAux.h"
    2937 000a6a 90B0          MOV XAR3, AC0
    2938 000a6c 6D00          BCC $C$L58,AC0 == #0 ; |1129| 
         000a6e 01FD 
    2939                                                      ; branchcc occurs ; |1129| 
    2940 000a70 A96D          MOV *AR3(#12), AR1 ; |1129| 
         000a72 000C 
    2941 000a74 6D19          BCC $C$L58,AR1 != #0 ; |1129| 
         000a76 01F5 
    2942                                                      ; branchcc occurs ; |1129| 
    2943                      .dwpsn  file "F:/eZdsp_DBG/tmp1/c55x-sim2/foo/c5535_bsl_revc/ezdsp5535_v1/c55xx_csl/inc/csl_usbAux.h"
    2944 000a78 ED6D          MOV dbl(*AR3(#8)), AC0 ; |1131| 
         000a7a 0800 
         000a7c 08   
    2945 000a7d ED7D          SUB AC0, dbl(*AR3(short(#6))), AC0 ; |1131| 
         000a7f 04   
    2946 000a80 EB0C          MOV AC0, dbl(*SP(#6)) ; |1131| 
         000a82 08   
    2947                      .dwpsn  file "F:/eZdsp_DBG/tmp1/c55x-sim2/foo/c5535_bsl_revc/ezdsp5535_v1/c55xx_csl/inc/csl_usbAux.h"
    2948 000a83 ED18          MOV dbl(*SP(#12)), XAR3
         000a85 BF   
    2949 000a86 ED6D          MOV dbl(*AR3(#8)), AC0 ; |1132| 
         000a88 0800 
         000a8a 08   
    2950 000a8b 5001          SFTL AC0, #-1 ; |1132| 
    2951 000a8d 2209          MOV AC0, AR1 ; |1132| 
    2952 000a8f ED79          MOV dbl(*AR3(short(#4))), XAR3
         000a91 BF   
TMS320C55x Assembler PC v4.4.1 Sat Sep 29 23:08:40 2018

Tools Copyright (c) 1996-2012 Texas Instruments Incorporated
csl_usb_dma_example.asm                                              PAGE   69

    2953              
    2954 000a92 8E14          MOV XAR3, dbl(*SP(#10))
         000a94 BB10 
         000a96 B590 
    2955              ||      AADD AR1, AR3 ; |1132| 
    2956              
    2957                      .dwpsn  file "F:/eZdsp_DBG/tmp1/c55x-sim2/foo/c5535_bsl_revc/ezdsp5535_v1/c55xx_csl/inc/csl_usbAux.h"
    2958 000a98 ED20          MOV dbl(*SP(#16)), XAR3
         000a9a BF   
    2959 000a9b A96D          MOV *AR3(#9), AR1 ; |1133| 
         000a9d 0009 
    2960 000a9f C926          MOV AR1, *SP(#19) ; |1133| 
    2961                      .dwpsn  file "F:/eZdsp_DBG/tmp1/c55x-sim2/foo/c5535_bsl_revc/ezdsp5535_v1/c55xx_csl/inc/csl_usbAux.h"
    2962 000aa1 ED20          MOV dbl(*SP(#16)), XAR3
         000aa3 BF   
    2963 000aa4 ED0C          MOV dbl(*SP(#6)), AC1 ; |1136| 
         000aa6 18   
    2964 000aa7 ED79          MOV dbl(*AR3(short(#4))), AC0 ; |1136| 
         000aa9 08   
    2965 000aaa 1218          CMPU AC1 >= AC0, TC1 ; |1136| 
         000aac 04   
    2966 000aad 62E4          BCC $C$L47,TC1 ; |1136| 
    2967                                                      ; branchcc occurs ; |1136| 
    2968 000aaf ED0C          MOV dbl(*SP(#6)), AC0 ; |1136| 
         000ab1 08   
    2969 000ab2 4A03          B $C$L48  ; |1136| 
    2970                                                      ; branch occurs ; |1136| 
    2971 000ab4       $C$L47:    
    2972 000ab4 ED79          MOV dbl(*AR3(short(#4))), AC0 ; |1136| 
         000ab6 08   
    2973 000ab7       $C$L48:    
    2974 000ab7 EB08          MOV AC0, dbl(*SP(#4)) ; |1136| 
         000ab9 08   
    2975                      .dwpsn  file "F:/eZdsp_DBG/tmp1/c55x-sim2/foo/c5535_bsl_revc/ezdsp5535_v1/c55xx_csl/inc/csl_usbAux.h"
    2976 000aba 7602          MOV #512, AC0 ; |1138| 
         000abc 0008 
    2977 000abe ED08          MOV dbl(*SP(#4)), AC1 ; |1138| 
         000ac0 18   
    2978 000ac1 1210          CMPU AC1 == AC0, TC1 ; |1138| 
         000ac3 04   
    2979 000ac4 66E4          BCC $C$L49,TC1 ; |1138| 
    2980                                                      ; branchcc occurs ; |1138| 
    2981 000ac6 7600          MOV #64, AC0 ; |1138| 
         000ac8 4008 
    2982 000aca ED08          MOV dbl(*SP(#4)), AC1 ; |1138| 
         000acc 18   
    2983 000acd 121C          CMPU AC1 != AC0, TC1 ; |1138| 
         000acf 04   
    2984 000ad0 0464          BCC $C$L51,TC1 ; |1138| 
         000ad2 5B   
    2985                                                      ; branchcc occurs ; |1138| 
    2986 000ad3       $C$L49:    
    2987 000ad3 ED00          MOV dbl(*SP(#0)), XAR3
         000ad5 BF   
    2988 000ad6 F061          CMP *AR3 == #1, TC1 ; |1138| 
TMS320C55x Assembler PC v4.4.1 Sat Sep 29 23:08:40 2018

Tools Copyright (c) 1996-2012 Texas Instruments Incorporated
csl_usb_dma_example.asm                                              PAGE   70

         000ad8 0001 
    2989 000ada 0474          BCC $C$L51,!TC1 ; |1138| 
         000adc 51   
    2990                                                      ; branchcc occurs ; |1138| 
    2991                      .dwpsn  file "F:/eZdsp_DBG/tmp1/c55x-sim2/foo/c5535_bsl_revc/ezdsp5535_v1/c55xx_csl/inc/csl_usbAux.h"
    2992 000add ED18          MOV dbl(*SP(#12)), XAR3
         000adf BF   
    2993 000ae0 ED08          MOV dbl(*SP(#4)), AC0 ; |1141| 
         000ae2 08   
    2994 000ae3 ED6D          ADD dbl(*AR3(#8)), AC0, AC0 ; |1141| 
         000ae5 0000 
         000ae7 08   
    2995 000ae8 EB6D          MOV AC0, dbl(*AR3(#8)) ; |1141| 
         000aea 0800 
         000aec 08   
    2996                      .dwpsn  file "F:/eZdsp_DBG/tmp1/c55x-sim2/foo/c5535_bsl_revc/ezdsp5535_v1/c55xx_csl/inc/csl_usbAux.h"
    2997 000aed ED18          MOV dbl(*SP(#12)), XAR3
         000aef BF   
    2998 000af0 ED08          MOV dbl(*SP(#4)), AC0 ; |1142| 
         000af2 08   
    2999 000af3 EB6D          MOV AC0, dbl(*AR3(#10)) ; |1142| 
         000af5 0800 
         000af7 0A   
    3000                      .dwpsn  file "F:/eZdsp_DBG/tmp1/c55x-sim2/foo/c5535_bsl_revc/ezdsp5535_v1/c55xx_csl/inc/csl_usbAux.h"
    3001 000af8 ED04          MOV dbl(*SP(#2)), AC0 ; |1144| 
         000afa 08   
    3002              $C$DW$252       .dwtag  DW_TAG_TI_branch
    3003                      .dwattr $C$DW$252, DW_AT_low_pc(0x00)
    3004                      .dwattr $C$DW$252, DW_AT_name("_USB_dmaRxStart")
    3005                      .dwattr $C$DW$252, DW_AT_TI_call
    3006 000afb 08F7          CALL #_USB_dmaRxStart ; |1144| 
         000afd 3E   
    3007                                                      ; call occurs [#_USB_dmaRxStart] ; |1144| 
    3008                      .dwpsn  file "F:/eZdsp_DBG/tmp1/c55x-sim2/foo/c5535_bsl_revc/ezdsp5535_v1/c55xx_csl/inc/csl_usbAux.h"
    3009 000afe ED18          MOV dbl(*SP(#12)), XAR3
         000b00 BF   
    3010 000b01 ED6D          MOV dbl(*AR3(#8)), AC1 ; |1146| 
         000b03 1800 
         000b05 08   
    3011 000b06 ED7D          MOV dbl(*AR3(short(#6))), AC0 ; |1146| 
         000b08 08   
    3012 000b09 121C          CMPU AC1 != AC0, TC1 ; |1146| 
         000b0b 04   
    3013 000b0c 65E4          BCC $C$L50,TC1 ; |1146| 
    3014                                                      ; branchcc occurs ; |1146| 
    3015                      .dwpsn  file "F:/eZdsp_DBG/tmp1/c55x-sim2/foo/c5535_bsl_revc/ezdsp5535_v1/c55xx_csl/inc/csl_usbAux.h"
    3016 000b0e E66D          MOV #1, *AR3(#12) ; |1148| 
         000b10 0100 
         000b12 0C   
    3017                      .dwpsn  file "F:/eZdsp_DBG/tmp1/c55x-sim2/foo/c5535_bsl_revc/ezdsp5535_v1/c55xx_csl/inc/csl_usbAux.h"
    3018 000b13 ED00          MOV dbl(*SP(#0)), XAR3
         000b15 BF   
    3019 000b16 E67D          MOV #0, *AR3(short(#6)) ; |1149| 
         000b18 00   
    3020 000b19       $C$L50:    
TMS320C55x Assembler PC v4.4.1 Sat Sep 29 23:08:40 2018

Tools Copyright (c) 1996-2012 Texas Instruments Incorporated
csl_usb_dma_example.asm                                              PAGE   71

    3021                      .dwpsn  file "F:/eZdsp_DBG/tmp1/c55x-sim2/foo/c5535_bsl_revc/ezdsp5535_v1/c55xx_csl/inc/csl_usbAux.h"
    3022 000b19 ED00          MOV dbl(*SP(#0)), XAR3
         000b1b BF   
    3023 000b1c ED00          MOV dbl(*SP(#0)), XAR0
         000b1e 8F   
    3024 000b1f ED20          MOV dbl(*SP(#16)), XAR1
         000b21 9F   
    3025 000b22 ED6D          MOV dbl(*AR3(#116)), AC0 ; |1152| 
         000b24 0800 
         000b26 74   
    3026              $C$DW$253       .dwtag  DW_TAG_TI_branch
    3027                      .dwattr $C$DW$253, DW_AT_low_pc(0x00)
    3028                      .dwattr $C$DW$253, DW_AT_TI_call
    3029                      .dwattr $C$DW$253, DW_AT_TI_indirect
    3030 000b27 9200          CALL AC0  ; |1152| 
    3031                                                      ; call occurs [AC0] ; |1152| 
    3032 000b29 C41C          MOV T0, *SP(#14) ; |1152| 
    3033                      .dwpsn  file "F:/eZdsp_DBG/tmp1/c55x-sim2/foo/c5535_bsl_revc/ezdsp5535_v1/c55xx_csl/inc/csl_usbAux.h"
    3034 000b2b 0601          B $C$L60  ; |1153| 
         000b2d 47   
    3035                                                      ; branch occurs ; |1153| 
    3036 000b2e       $C$L51:    
    3037                      .dwpsn  file "F:/eZdsp_DBG/tmp1/c55x-sim2/foo/c5535_bsl_revc/ezdsp5535_v1/c55xx_csl/inc/csl_usbAux.h"
    3038 000b2e ED08          MOV dbl(*SP(#4)), AC0 ; |1166| 
         000b30 08   
    3039 000b31 0400          BCC $C$L54,AC0 == #0 ; |1166| 
         000b33 78   
    3040                                                      ; branchcc occurs ; |1166| 
    3041                      .dwpsn  file "F:/eZdsp_DBG/tmp1/c55x-sim2/foo/c5535_bsl_revc/ezdsp5535_v1/c55xx_csl/inc/csl_usbAux.h"
    3042 000b34 ED08          MOV dbl(*SP(#4)), AC0 ; |1169| 
         000b36 08   
    3043 000b37 EB10          MOV AC0, dbl(*SP(#8)) ; |1169| 
         000b39 08   
    3044                      .dwpsn  file "F:/eZdsp_DBG/tmp1/c55x-sim2/foo/c5535_bsl_revc/ezdsp5535_v1/c55xx_csl/inc/csl_usbAux.h"
    3045 000b3a E624          MOV #0, *SP(#18) ; |1171| 
         000b3c 00   
    3046 000b3d 20            NOP
    3047 000b3e 20            NOP
    3048                      .dwpsn  file "F:/eZdsp_DBG/tmp1/c55x-sim2/foo/c5535_bsl_revc/ezdsp5535_v1/c55xx_csl/inc/csl_usbAux.h"
    3049 000b3f ED08          MOV dbl(*SP(#4)), AC0 ; |1171| 
         000b41 08   
    3050              
    3051 000b45 5101          SFTL AC0, #-1 ; |1171| 
    3052 000b42 DF24  ||      MOV uns(*SP(#18)), AC1 ; |1171| 
         000b44 15   
    3053              
    3054 000b47 1218          CMPU AC1 >= AC0, TC1 ; |1171| 
         000b49 04   
    3055 000b4a 0464          BCC $C$L53,TC1 ; |1171| 
         000b4c 26   
    3056                                                      ; branchcc occurs ; |1171| 
    3057 000b4d       $C$L52:    
    3058 000b4d       $C$DW$L$_USB_handleRx$15$B:
    3059                      .dwpsn  file "F:/eZdsp_DBG/tmp1/c55x-sim2/foo/c5535_bsl_revc/ezdsp5535_v1/c55xx_csl/inc/csl_usbAux.h"
    3060 000b4d ED14          MOV dbl(*SP(#10)), XAR2
TMS320C55x Assembler PC v4.4.1 Sat Sep 29 23:08:40 2018

Tools Copyright (c) 1996-2012 Texas Instruments Incorporated
csl_usb_dma_example.asm                                              PAGE   72

         000b4f AF   
    3061 000b50 EC41          AMAR *AR2, XAR3
         000b52 BE   
    3062 000b53 B463          AMAR *AR3+
    3063 000b55 EB14          MOV XAR3, dbl(*SP(#10))
         000b57 B5   
    3064 000b58 AB26          MOV *SP(#19), AR3 ; |1173| 
    3065 000b5a A961          MOV port(*AR3), AR1 ; |1173| 
         000b5c 99   
    3066 000b5d C941          MOV AR1, *AR2 ; |1173| 
    3067                      .dwpsn  file "F:/eZdsp_DBG/tmp1/c55x-sim2/foo/c5535_bsl_revc/ezdsp5535_v1/c55xx_csl/inc/csl_usbAux.h"
    3068 000b5f F724          ADD #1, *SP(#18) ; |1171| 
         000b61 0001 
    3069 000b63 20            NOP
    3070 000b64 20            NOP
    3071                      .dwpsn  file "F:/eZdsp_DBG/tmp1/c55x-sim2/foo/c5535_bsl_revc/ezdsp5535_v1/c55xx_csl/inc/csl_usbAux.h"
    3072 000b65 ED08          MOV dbl(*SP(#4)), AC0 ; |1171| 
         000b67 08   
    3073              
    3074 000b6b 5101          SFTL AC0, #-1 ; |1171| 
    3075 000b68 DF24  ||      MOV uns(*SP(#18)), AC1 ; |1171| 
         000b6a 15   
    3076              
    3077 000b6d 1214          CMPU AC1 < AC0, TC1 ; |1171| 
         000b6f 04   
    3078 000b70 0464          BCC $C$L52,TC1 ; |1171| 
         000b72 DA   
    3079                                                      ; branchcc occurs ; |1171| 
    3080 000b73       $C$DW$L$_USB_handleRx$15$E:
    3081 000b73       $C$L53:    
    3082                      .dwpsn  file "F:/eZdsp_DBG/tmp1/c55x-sim2/foo/c5535_bsl_revc/ezdsp5535_v1/c55xx_csl/inc/csl_usbAux.h"
    3083 000b73 ED08          MOV dbl(*SP(#4)), AC0 ; |1176| 
         000b75 08   
    3084 000b76 1801          AND #0x0001, AC0, AC0 ; |1176| 
         000b78 00   
    3085 000b79 0400          BCC $C$L54,AC0 == #0 ; |1176| 
         000b7b 30   
    3086                                                      ; branchcc occurs ; |1176| 
    3087                      .dwpsn  file "F:/eZdsp_DBG/tmp1/c55x-sim2/foo/c5535_bsl_revc/ezdsp5535_v1/c55xx_csl/inc/csl_usbAux.h"
    3088 000b7c 7600          MOV #50, T0 ; |1179| 
         000b7e 3248 
    3089 000b80 AB31          MOV *(#_sysCtrlRegs), AR3 ; |1179| 
         000b82 0000 
         000b84 00!  
    3090 000b85 A96B          MOV port(*AR3(T0)), AR1 ; |1179| 
         000b87 99   
    3091 000b88 7DFF          AND #0xfffc, AR1, AC0 ; |1179| 
         000b8a FC09 
    3092 000b8c EC02          BSET @#1, AC0 ; |1179| 
         000b8e 00   
    3093 000b8f C06B          MOV AC0, port(*AR3(T0)) ; |1179| 
         000b91 9A   
    3094                      .dwpsn  file "F:/eZdsp_DBG/tmp1/c55x-sim2/foo/c5535_bsl_revc/ezdsp5535_v1/c55xx_csl/inc/csl_usbAux.h"
    3095 000b92 AB26          MOV *SP(#19), AR3 ; |1181| 
    3096 000b94 ED14          MOV dbl(*SP(#10)), XAR2
TMS320C55x Assembler PC v4.4.1 Sat Sep 29 23:08:40 2018

Tools Copyright (c) 1996-2012 Texas Instruments Incorporated
csl_usb_dma_example.asm                                              PAGE   73

         000b96 AF   
    3097 000b97 DF61          MOV uns(low_byte(port(*AR3))), AR1 ; |1181| 
         000b99 93   
         000b9a 99   
    3098 000b9b C941          MOV AR1, *AR2 ; |1181| 
    3099                      .dwpsn  file "F:/eZdsp_DBG/tmp1/c55x-sim2/foo/c5535_bsl_revc/ezdsp5535_v1/c55xx_csl/inc/csl_usbAux.h"
    3100 000b9d AB31          MOV *(#_sysCtrlRegs), AR3 ; |1184| 
         000b9f 0000 
         000ba1 00!  
    3101 000ba2 A96B          MOV port(*AR3(T0)), AR1 ; |1184| 
         000ba4 99   
    3102 000ba5 7DFF          AND #0xfffc, AR1, AC0 ; |1184| 
         000ba7 FC09 
    3103 000ba9 C06B          MOV AC0, port(*AR3(T0)) ; |1184| 
         000bab 9A   
    3104 000bac       $C$L54:    
    3105                      .dwpsn  file "F:/eZdsp_DBG/tmp1/c55x-sim2/foo/c5535_bsl_revc/ezdsp5535_v1/c55xx_csl/inc/csl_usbAux.h"
    3106 000bac ED18          MOV dbl(*SP(#12)), XAR3
         000bae BF   
    3107 000baf ED10          MOV dbl(*SP(#8)), AC0 ; |1189| 
         000bb1 08   
    3108 000bb2 ED6D          ADD dbl(*AR3(#8)), AC0, AC0 ; |1189| 
         000bb4 0000 
         000bb6 08   
    3109 000bb7 EB6D          MOV AC0, dbl(*AR3(#8)) ; |1189| 
         000bb9 0800 
         000bbb 08   
    3110                      .dwpsn  file "F:/eZdsp_DBG/tmp1/c55x-sim2/foo/c5535_bsl_revc/ezdsp5535_v1/c55xx_csl/inc/csl_usbAux.h"
    3111 000bbc ED18          MOV dbl(*SP(#12)), XAR3
         000bbe BF   
    3112 000bbf ED10          MOV dbl(*SP(#8)), AC0 ; |1190| 
         000bc1 08   
    3113 000bc2 EB6D          MOV AC0, dbl(*AR3(#10)) ; |1190| 
         000bc4 0800 
         000bc6 0A   
    3114                      .dwpsn  file "F:/eZdsp_DBG/tmp1/c55x-sim2/foo/c5535_bsl_revc/ezdsp5535_v1/c55xx_csl/inc/csl_usbAux.h"
    3115 000bc7 ED18          MOV dbl(*SP(#12)), XAR3
         000bc9 BF   
    3116 000bca ED6D          MOV dbl(*AR3(#8)), AC1 ; |1192| 
         000bcc 1800 
         000bce 08   
    3117 000bcf ED7D          MOV dbl(*AR3(short(#6))), AC0 ; |1192| 
         000bd1 08   
    3118 000bd2 1210          CMPU AC1 == AC0, TC1 ; |1192| 
         000bd4 04   
    3119 000bd5 62E4          BCC $C$L55,TC1 ; |1192| 
    3120                                                      ; branchcc occurs ; |1192| 
    3121 000bd7 ED10          MOV dbl(*SP(#8)), AC0 ; |1192| 
         000bd9 08   
    3122 000bda 6290          BCC $C$L56,AC0 != #0 ; |1192| 
    3123                                                      ; branchcc occurs ; |1192| 
    3124 000bdc       $C$L55:    
    3125                      .dwpsn  file "F:/eZdsp_DBG/tmp1/c55x-sim2/foo/c5535_bsl_revc/ezdsp5535_v1/c55xx_csl/inc/csl_usbAux.h"
    3126 000bdc E66D          MOV #1, *AR3(#12) ; |1195| 
         000bde 0100 
TMS320C55x Assembler PC v4.4.1 Sat Sep 29 23:08:40 2018

Tools Copyright (c) 1996-2012 Texas Instruments Incorporated
csl_usb_dma_example.asm                                              PAGE   74

         000be0 0C   
    3127 000be1       $C$L56:    
    3128                      .dwpsn  file "F:/eZdsp_DBG/tmp1/c55x-sim2/foo/c5535_bsl_revc/ezdsp5535_v1/c55xx_csl/inc/csl_usbAux.h"
    3129 000be1 7604          MOV #1038, T0 ; |1199| 
         000be3 0E48 
    3130 000be5 AB31          MOV *(#_usbRegisters), AR3 ; |1199| 
         000be7 0000 
         000be9 00!  
    3131 000bea A96B          MOV port(*AR3(T0)), AR1 ; |1199| 
         000bec 99   
    3132 000bed C91E          MOV AR1, *SP(#15) ; |1199| 
    3133                      .dwpsn  file "F:/eZdsp_DBG/tmp1/c55x-sim2/foo/c5535_bsl_revc/ezdsp5535_v1/c55xx_csl/inc/csl_usbAux.h"
    3134 000bef A96B          MOV port(*AR3(T0)), AR1 ; |1201| 
         000bf1 99   
    3135 000bf2 7DFF          AND #0xfff0, AR1, AC0 ; |1201| 
         000bf4 F009 
    3136 000bf6 C06B          MOV AC0, port(*AR3(T0)) ; |1201| 
         000bf8 9A   
    3137                      .dwpsn  file "F:/eZdsp_DBG/tmp1/c55x-sim2/foo/c5535_bsl_revc/ezdsp5535_v1/c55xx_csl/inc/csl_usbAux.h"
    3138 000bf9 AB31          MOV *(#_usbRegisters), AR3 ; |1205| 
         000bfb 0000 
         000bfd 00!  
    3139 000bfe ED04          MOV dbl(*SP(#2)), AC0 ; |1205| 
         000c00 08   
    3140 000c01 180F          AND #0x000f, AC0, AC0 ; |1205| 
         000c03 00   
    3141 000c04 A96B          MOV port(*AR3(T0)), AR1 ; |1205| 
         000c06 99   
    3142 000c07 7DFF          AND #0xfff0, AR1, AC1 ; |1205| 
         000c09 F019 
    3143 000c0b 2A10          OR AC1, AC0 ; |1205| 
    3144 000c0d C06B          MOV AC0, port(*AR3(T0)) ; |1205| 
         000c0f 9A   
    3145                      .dwpsn  file "F:/eZdsp_DBG/tmp1/c55x-sim2/foo/c5535_bsl_revc/ezdsp5535_v1/c55xx_csl/inc/csl_usbAux.h"
    3146 000c10 ED20          MOV dbl(*SP(#16)), XAR3
         000c12 BF   
    3147 000c13 F075          CMP *AR3(short(#2)) == #3, TC1 ; |1208| 
         000c15 0003 
    3148 000c17 6774          BCC $C$L57,!TC1 ; |1208| 
    3149                                                      ; branchcc occurs ; |1208| 
    3150                      .dwpsn  file "F:/eZdsp_DBG/tmp1/c55x-sim2/foo/c5535_bsl_revc/ezdsp5535_v1/c55xx_csl/inc/csl_usbAux.h"
    3151 000c19 7604          MOV #1046, T0 ; |1211| 
         000c1b 1648 
    3152 000c1d AB31          MOV *(#_usbRegisters), AR3 ; |1211| 
         000c1f 0000 
         000c21 00!  
    3153 000c22 F56B          OR #0x0080, port(*AR3(T0)) ; |1211| 
         000c24 0080 
         000c26 9A   
    3154 000c27       $C$L57:    
    3155                      .dwpsn  file "F:/eZdsp_DBG/tmp1/c55x-sim2/foo/c5535_bsl_revc/ezdsp5535_v1/c55xx_csl/inc/csl_usbAux.h"
    3156 000c27 7604          MOV #1046, T0 ; |1215| 
         000c29 1648 
    3157 000c2b AB31          MOV *(#_usbRegisters), AR3 ; |1215| 
         000c2d 0000 
TMS320C55x Assembler PC v4.4.1 Sat Sep 29 23:08:40 2018

Tools Copyright (c) 1996-2012 Texas Instruments Incorporated
csl_usb_dma_example.asm                                              PAGE   75

         000c2f 00!  
    3158 000c30 A96B          MOV port(*AR3(T0)), AR1 ; |1215| 
         000c32 99   
    3159 000c33 EC00          BCLR @#0, AR1 ; |1215| 
         000c35 92   
    3160 000c36 C96B          MOV AR1, port(*AR3(T0)) ; |1215| 
         000c38 9A   
    3161                      .dwpsn  file "F:/eZdsp_DBG/tmp1/c55x-sim2/foo/c5535_bsl_revc/ezdsp5535_v1/c55xx_csl/inc/csl_usbAux.h"
    3162 000c39 7604          MOV #1038, T0 ; |1219| 
         000c3b 0E48 
    3163 000c3d AB31          MOV *(#_usbRegisters), AR3 ; |1219| 
         000c3f 0000 
         000c41 00!  
    3164 000c42 A91E          MOV *SP(#15), AR1 ; |1219| 
    3165 000c44 C96B          MOV AR1, port(*AR3(T0)) ; |1219| 
         000c46 9A   
    3166                      .dwpsn  file "F:/eZdsp_DBG/tmp1/c55x-sim2/foo/c5535_bsl_revc/ezdsp5535_v1/c55xx_csl/inc/csl_usbAux.h"
    3167 000c47 ED18          MOV dbl(*SP(#12)), XAR3
         000c49 BF   
    3168 000c4a F06D          CMP *AR3(#12) == #1, TC1 ; |1221| 
         000c4c 0001 
         000c4e 000C 
    3169 000c50 0474          BCC $C$L60,!TC1 ; |1221| 
         000c52 22   
    3170                                                      ; branchcc occurs ; |1221| 
    3171                      .dwpsn  file "F:/eZdsp_DBG/tmp1/c55x-sim2/foo/c5535_bsl_revc/ezdsp5535_v1/c55xx_csl/inc/csl_usbAux.h"
    3172 000c53 ED00          MOV dbl(*SP(#0)), XAR3
         000c55 BF   
    3173 000c56 E67D          MOV #0, *AR3(short(#6)) ; |1223| 
         000c58 00   
    3174                      .dwpsn  file "F:/eZdsp_DBG/tmp1/c55x-sim2/foo/c5535_bsl_revc/ezdsp5535_v1/c55xx_csl/inc/csl_usbAux.h"
    3175 000c59 ED00          MOV dbl(*SP(#0)), XAR3
         000c5b BF   
    3176 000c5c ED00          MOV dbl(*SP(#0)), XAR0
         000c5e 8F   
    3177 000c5f ED20          MOV dbl(*SP(#16)), XAR1
         000c61 9F   
    3178 000c62 ED6D          MOV dbl(*AR3(#116)), AC0 ; |1234| 
         000c64 0800 
         000c66 74   
    3179              $C$DW$254       .dwtag  DW_TAG_TI_branch
    3180                      .dwattr $C$DW$254, DW_AT_low_pc(0x00)
    3181                      .dwattr $C$DW$254, DW_AT_TI_call
    3182                      .dwattr $C$DW$254, DW_AT_TI_indirect
    3183 000c67 9200          CALL AC0  ; |1234| 
    3184                                                      ; call occurs [AC0] ; |1234| 
    3185 000c69 C41C          MOV T0, *SP(#14) ; |1234| 
    3186                      .dwpsn  file "F:/eZdsp_DBG/tmp1/c55x-sim2/foo/c5535_bsl_revc/ezdsp5535_v1/c55xx_csl/inc/csl_usbAux.h"
    3187 000c6b 4A08          B $C$L60  ; |1237| 
    3188                                                      ; branch occurs ; |1237| 
    3189 000c6d       $C$L58:    
    3190                      .dwpsn  file "F:/eZdsp_DBG/tmp1/c55x-sim2/foo/c5535_bsl_revc/ezdsp5535_v1/c55xx_csl/inc/csl_usbAux.h"
    3191 000c6d E61C          MOV #-6, *SP(#14) ; |1240| 
         000c6f FA   
    3192                      .dwpsn  file "F:/eZdsp_DBG/tmp1/c55x-sim2/foo/c5535_bsl_revc/ezdsp5535_v1/c55xx_csl/inc/csl_usbAux.h"
TMS320C55x Assembler PC v4.4.1 Sat Sep 29 23:08:40 2018

Tools Copyright (c) 1996-2012 Texas Instruments Incorporated
csl_usb_dma_example.asm                                              PAGE   76

    3193 000c70 4A03          B $C$L60  ; |1242| 
    3194                                                      ; branch occurs ; |1242| 
    3195 000c72       $C$L59:    
    3196                      .dwpsn  file "F:/eZdsp_DBG/tmp1/c55x-sim2/foo/c5535_bsl_revc/ezdsp5535_v1/c55xx_csl/inc/csl_usbAux.h"
    3197 000c72 E61C          MOV #-6, *SP(#14) ; |1245| 
         000c74 FA   
    3198 000c75       $C$L60:    
    3199                      .dwpsn  file "F:/eZdsp_DBG/tmp1/c55x-sim2/foo/c5535_bsl_revc/ezdsp5535_v1/c55xx_csl/inc/csl_usbAux.h"
    3200 000c75 A41C          MOV *SP(#14), T0 ; |1248| 
    3201                      .dwpsn  file "F:/eZdsp_DBG/tmp1/c55x-sim2/foo/c5535_bsl_revc/ezdsp5535_v1/c55xx_csl/inc/csl_usbAux.h"
    3202 000c77 4E15          AADD #21, SP
    3203                      .dwcfi  cfa_offset, 1
    3204              $C$DW$255       .dwtag  DW_TAG_TI_branch
    3205                      .dwattr $C$DW$255, DW_AT_low_pc(0x00)
    3206                      .dwattr $C$DW$255, DW_AT_TI_return
    3207 000c79 4804          RET
    3208                                                      ; return occurs
    3209              
    3210              $C$DW$256       .dwtag  DW_TAG_TI_loop
    3211                      .dwattr $C$DW$256, DW_AT_name("F:\eZdsp_DBG\tmp1\c55x-sim2\foo\Debug\csl_usb_dma_example.asm:$C$L52:1
    3212                      .dwattr $C$DW$256, DW_AT_TI_begin_file("F:/eZdsp_DBG/tmp1/c55x-sim2/foo/c5535_bsl_revc/ezdsp5535_v1/c
    3213                      .dwattr $C$DW$256, DW_AT_TI_begin_line(0x493)
    3214                      .dwattr $C$DW$256, DW_AT_TI_end_line(0x496)
    3215              $C$DW$257       .dwtag  DW_TAG_TI_loop_range
    3216                      .dwattr $C$DW$257, DW_AT_low_pc($C$DW$L$_USB_handleRx$15$B)
    3217                      .dwattr $C$DW$257, DW_AT_high_pc($C$DW$L$_USB_handleRx$15$E)
    3218                      .dwendtag $C$DW$256
    3219              
    3220                      .dwattr $C$DW$237, DW_AT_TI_end_file("F:/eZdsp_DBG/tmp1/c55x-sim2/foo/c5535_bsl_revc/ezdsp5535_v1/c55
    3221                      .dwattr $C$DW$237, DW_AT_TI_end_line(0x4e1)
    3222                      .dwattr $C$DW$237, DW_AT_TI_end_column(0x01)
    3223                      .dwendentry
    3224                      .dwendtag $C$DW$237
    3225              
    3226 000c7b               .sect   ".text"
    3227                      .align 4
    3228                      .global _main
    3229              
    3230              $C$DW$258       .dwtag  DW_TAG_subprogram, DW_AT_name("main")
    3231                      .dwattr $C$DW$258, DW_AT_low_pc(_main)
    3232                      .dwattr $C$DW$258, DW_AT_high_pc(0x00)
    3233                      .dwattr $C$DW$258, DW_AT_TI_symbol_name("_main")
    3234                      .dwattr $C$DW$258, DW_AT_external
    3235                      .dwattr $C$DW$258, DW_AT_TI_begin_file("../c5535_bsl_revc/ezdsp5535_v1/c55xx_csl/ccs_v4.0_examples/us
    3236                      .dwattr $C$DW$258, DW_AT_TI_begin_line(0xed)
    3237                      .dwattr $C$DW$258, DW_AT_TI_begin_column(0x06)
    3238                      .dwattr $C$DW$258, DW_AT_TI_max_frame_size(0x04)
    3239                      .dwpsn  file "../c5535_bsl_revc/ezdsp5535_v1/c55xx_csl/ccs_v4.0_examples/usb/CSL_USB_DmaExample/csl_u
    3240              
    3241                      .dwfde $C$DW$CIE, _main
    3242              ;*******************************************************************************
    3243              ;* FUNCTION NAME: main                                                         *
    3244              ;*                                                                             *
    3245              ;*   Function Uses Regs : AC0,AC0,T0,T1,AR0,XAR0,AR1,AR2,AR3,XAR3,SP,TC1,M40,  *
    3246              ;*                        SATA,SATD,RDM,FRCT,SMUL                              *
TMS320C55x Assembler PC v4.4.1 Sat Sep 29 23:08:40 2018

Tools Copyright (c) 1996-2012 Texas Instruments Incorporated
csl_usb_dma_example.asm                                              PAGE   77

    3247              ;*   Stack Frame        : Compact (No Frame Pointer, w/ debug)                 *
    3248              ;*   Total Frame Size   : 4 words                                              *
    3249              ;*                        (2 return address/alignment)                         *
    3250              ;*                        (2 function parameters)                              *
    3251              ;*   Min System Stack   : 1 word                                               *
    3252              ;*******************************************************************************
    3253 000c7c       _main:
    3254                      .dwcfi  cfa_offset, 1
    3255                      .dwcfi  save_reg_to_mem, 91, -1
    3256 000c7c 4EFD          AADD #-3, SP
    3257                      .dwcfi  cfa_offset, 4
    3258                      .dwpsn  file "../c5535_bsl_revc/ezdsp5535_v1/c55xx_csl/ccs_v4.0_examples/usb/CSL_USB_DmaExample/csl_u
    3259 000c7e EC31          AMOV #0, XAR0 ; |240| 
         000c80 8E00 
         000c82 0000 
    3260              $C$DW$259       .dwtag  DW_TAG_TI_branch
    3261                      .dwattr $C$DW$259, DW_AT_low_pc(0x00)
    3262                      .dwattr $C$DW$259, DW_AT_name("_printFunction")
    3263                      .dwattr $C$DW$259, DW_AT_TI_call
    3264              
    3265 000c84 0803          CALL #_printFunction ; |240| 
         000c86 FF   
    3266 000c87 3D04  ||      MOV #0, T0
    3267              
    3268                                                      ; call occurs [#_printFunction] ; |240| 
    3269                      .dwpsn  file "../c5535_bsl_revc/ezdsp5535_v1/c55xx_csl/ccs_v4.0_examples/usb/CSL_USB_DmaExample/csl_u
    3270 000c89 E631          MOV #1, *(#(_usbConfig+1)) ; |242| 
         000c8b 0100 
         000c8d 009F-
    3271                      .dwpsn  file "../c5535_bsl_revc/ezdsp5535_v1/c55xx_csl/ccs_v4.0_examples/usb/CSL_USB_DmaExample/csl_u
    3272 000c8f E631          MOV #0, *(#_usbConfig) ; |243| 
         000c91 0000 
         000c93 009E-
    3273                      .dwpsn  file "../c5535_bsl_revc/ezdsp5535_v1/c55xx_csl/ccs_v4.0_examples/usb/CSL_USB_DmaExample/csl_u
    3274 000c95 E631          MOV #50, *(#(_usbConfig+2)) ; |244| 
         000c97 3200 
         000c99 00A0-
    3275                      .dwpsn  file "../c5535_bsl_revc/ezdsp5535_v1/c55xx_csl/ccs_v4.0_examples/usb/CSL_USB_DmaExample/csl_u
    3276 000c9b 7A00          MOV #(_CSL_suspendCallBack >> 16) << #16, AC0 ; |245| 
         000c9d 000A%
    3277 000c9f 7E00          OR #(_CSL_suspendCallBack & 0xffff), AC0, AC0 ; |245| 
         000ca1 0000%
    3278 000ca3 EB31          MOV AC0, dbl(*(#(_usbConfig+4))) ; |245| 
         000ca5 0800 
         000ca7 00A2-
    3279                      .dwpsn  file "../c5535_bsl_revc/ezdsp5535_v1/c55xx_csl/ccs_v4.0_examples/usb/CSL_USB_DmaExample/csl_u
    3280 000ca9 7A00          MOV #(_CSL_selfWakeupCallBack >> 16) << #16, AC0 ; |247| 
         000cab 000A%
    3281 000cad 7E00          OR #(_CSL_selfWakeupCallBack & 0xffff), AC0, AC0 ; |247| 
         000caf 0000%
    3282 000cb1 EB31          MOV AC0, dbl(*(#(_usbConfig+6))) ; |247| 
         000cb3 0800 
         000cb5 00A4-
    3283                      .dwpsn  file "../c5535_bsl_revc/ezdsp5535_v1/c55xx_csl/ccs_v4.0_examples/usb/CSL_USB_DmaExample/csl_u
    3284 000cb7 7A00          MOV #(_CSL_startTransferCallback >> 16) << #16, AC0 ; |249| 
TMS320C55x Assembler PC v4.4.1 Sat Sep 29 23:08:40 2018

Tools Copyright (c) 1996-2012 Texas Instruments Incorporated
csl_usb_dma_example.asm                                              PAGE   78

         000cb9 000A%
    3285 000cbb 7E00          OR #(_CSL_startTransferCallback & 0xffff), AC0, AC0 ; |249| 
         000cbd 0000%
    3286 000cbf EB31          MOV AC0, dbl(*(#(_usbConfig+8))) ; |249| 
         000cc1 0800 
         000cc3 00A6-
    3287                      .dwpsn  file "../c5535_bsl_revc/ezdsp5535_v1/c55xx_csl/ccs_v4.0_examples/usb/CSL_USB_DmaExample/csl_u
    3288 000cc5 7A00          MOV #(_CSL_completeTransferCallback >> 16) << #16, AC0 ; |250| 
         000cc7 000A%
    3289 000cc9 7E00          OR #(_CSL_completeTransferCallback & 0xffff), AC0, AC0 ; |250| 
         000ccb 0000%
    3290 000ccd EB31          MOV AC0, dbl(*(#(_usbConfig+10))) ; |250| 
         000ccf 0800 
         000cd1 00A8-
    3291                      .dwpsn  file "../c5535_bsl_revc/ezdsp5535_v1/c55xx_csl/ccs_v4.0_examples/usb/CSL_USB_DmaExample/csl_u
    3292 000cd3 EC31          AMOV #_usbCtrlOutEpObj, XAR3 ; |252| 
         000cd5 BE00 
         000cd7 00BC-
    3293 000cd9 EB31          MOV XAR3, dbl(*(#_hEpObjArray))
         000cdb B500 
         000cdd 00AA-
    3294                      .dwpsn  file "../c5535_bsl_revc/ezdsp5535_v1/c55xx_csl/ccs_v4.0_examples/usb/CSL_USB_DmaExample/csl_u
    3295 000cdf EC31          AMOV #_usbCtrlInEpObj, XAR3 ; |253| 
         000ce1 BE00 
         000ce3 00D0-
    3296 000ce5 EB31          MOV XAR3, dbl(*(#(_hEpObjArray+2)))
         000ce7 B500 
         000ce9 00AC-
    3297                      .dwpsn  file "../c5535_bsl_revc/ezdsp5535_v1/c55xx_csl/ccs_v4.0_examples/usb/CSL_USB_DmaExample/csl_u
    3298 000ceb EC31          AMOV #_usbBulkOutEpObj, XAR3 ; |254| 
         000ced BE00 
         000cef 00E4-
    3299 000cf1 EB31          MOV XAR3, dbl(*(#(_hEpObjArray+4)))
         000cf3 B500 
         000cf5 00AE-
    3300                      .dwpsn  file "../c5535_bsl_revc/ezdsp5535_v1/c55xx_csl/ccs_v4.0_examples/usb/CSL_USB_DmaExample/csl_u
    3301 000cf7 EC31          AMOV #_usbBulkInEpObj, XAR3 ; |255| 
         000cf9 BE00 
         000cfb 00F8-
    3302 000cfd EB31          MOV XAR3, dbl(*(#(_hEpObjArray+6)))
         000cff B500 
         000d01 00B0-
    3303                      .dwpsn  file "../c5535_bsl_revc/ezdsp5535_v1/c55xx_csl/ccs_v4.0_examples/usb/CSL_USB_DmaExample/csl_u
    3304 000d03 7A00          MOV #(_VECSTART >> 16) << #16, AC0 ; |258| 
         000d05 000A%
    3305 000d07 7E00          OR #(_VECSTART & 0xffff), AC0, AC0 ; |258| 
         000d09 0000%
    3306              $C$DW$260       .dwtag  DW_TAG_TI_branch
    3307                      .dwattr $C$DW$260, DW_AT_low_pc(0x00)
    3308                      .dwattr $C$DW$260, DW_AT_name("_IRQ_setVecs")
    3309                      .dwattr $C$DW$260, DW_AT_TI_call
    3310 000d0b 6C00          CALL #_IRQ_setVecs ; |258| 
         000d0d 0000!
    3311                                                      ; call occurs [#_IRQ_setVecs] ; |258| 
    3312                      .dwpsn  file "../c5535_bsl_revc/ezdsp5535_v1/c55xx_csl/ccs_v4.0_examples/usb/CSL_USB_DmaExample/csl_u
TMS320C55x Assembler PC v4.4.1 Sat Sep 29 23:08:40 2018

Tools Copyright (c) 1996-2012 Texas Instruments Incorporated
csl_usb_dma_example.asm                                              PAGE   79

    3313 000d0f 7A00          MOV #(_usb_isr >> 16) << #16, AC0 ; |261| 
         000d11 000A%
    3314 000d13 7E00          OR #(_usb_isr & 0xffff), AC0, AC0 ; |261| 
         000d15 0000%
    3315 000d17 EB31          MOV AC0, dbl(*(#_config)) ; |261| 
         000d19 0800 
         000d1b 0096-
    3316                      .dwpsn  file "../c5535_bsl_revc/ezdsp5535_v1/c55xx_csl/ccs_v4.0_examples/usb/CSL_USB_DmaExample/csl_u
    3317 000d1d 7600          MOV #20, T0 ; |262| 
         000d1f 1448 
    3318 000d21 ED31          MOV dbl(*(#_config)), AC0 ; |262| 
         000d23 0800 
         000d25 0096-
    3319              $C$DW$261       .dwtag  DW_TAG_TI_branch
    3320                      .dwattr $C$DW$261, DW_AT_low_pc(0x00)
    3321                      .dwattr $C$DW$261, DW_AT_name("_IRQ_plug")
    3322                      .dwattr $C$DW$261, DW_AT_TI_call
    3323 000d27 6C00          CALL #_IRQ_plug ; |262| 
         000d29 0000!
    3324                                                      ; call occurs [#_IRQ_plug] ; |262| 
    3325                      .dwpsn  file "../c5535_bsl_revc/ezdsp5535_v1/c55xx_csl/ccs_v4.0_examples/usb/CSL_USB_DmaExample/csl_u
    3326 000d2b 7600          MOV #20, T0 ; |265| 
         000d2d 1448 
    3327              $C$DW$262       .dwtag  DW_TAG_TI_branch
    3328                      .dwattr $C$DW$262, DW_AT_low_pc(0x00)
    3329                      .dwattr $C$DW$262, DW_AT_name("_IRQ_enable")
    3330                      .dwattr $C$DW$262, DW_AT_TI_call
    3331 000d2f 6C00          CALL #_IRQ_enable ; |265| 
         000d31 0000!
    3332                                                      ; call occurs [#_IRQ_enable] ; |265| 
    3333                      .dwpsn  file "../c5535_bsl_revc/ezdsp5535_v1/c55xx_csl/ccs_v4.0_examples/usb/CSL_USB_DmaExample/csl_u
    3334              $C$DW$263       .dwtag  DW_TAG_TI_branch
    3335                      .dwattr $C$DW$263, DW_AT_low_pc(0x00)
    3336                      .dwattr $C$DW$263, DW_AT_name("_IRQ_globalEnable")
    3337                      .dwattr $C$DW$263, DW_AT_TI_call
    3338 000d33 6C00          CALL #_IRQ_globalEnable ; |267| 
         000d35 0000!
    3339                                                      ; call occurs [#_IRQ_globalEnable] ; |267| 
    3340                      .dwpsn  file "../c5535_bsl_revc/ezdsp5535_v1/c55xx_csl/ccs_v4.0_examples/usb/CSL_USB_DmaExample/csl_u
    3341 000d37 EC31          AMOV #_usbConfig, XAR0 ; |270| 
         000d39 8E00 
         000d3b 009E-
    3342              $C$DW$264       .dwtag  DW_TAG_TI_branch
    3343                      .dwattr $C$DW$264, DW_AT_low_pc(0x00)
    3344                      .dwattr $C$DW$264, DW_AT_name("_USB_init")
    3345                      .dwattr $C$DW$264, DW_AT_TI_call
    3346 000d3d 6C00          CALL #_USB_init ; |270| 
         000d3f 0000!
    3347                                                      ; call occurs [#_USB_init] ; |270| 
    3348 000d41 C431          MOV T0, *(#_status) ; |270| 
         000d43 0001 
         000d45 0E-  
    3349                      .dwpsn  file "../c5535_bsl_revc/ezdsp5535_v1/c55xx_csl/ccs_v4.0_examples/usb/CSL_USB_DmaExample/csl_u
    3350 000d46 2249          MOV T0, AR1
    3351 000d48 6709          BCC $C$L61,AR1 == #0 ; |271| 
TMS320C55x Assembler PC v4.4.1 Sat Sep 29 23:08:40 2018

Tools Copyright (c) 1996-2012 Texas Instruments Incorporated
csl_usb_dma_example.asm                                              PAGE   80

    3352                                                      ; branchcc occurs ; |271| 
    3353                      .dwpsn  file "../c5535_bsl_revc/ezdsp5535_v1/c55xx_csl/ccs_v4.0_examples/usb/CSL_USB_DmaExample/csl_u
    3354 000d4a EC31          AMOV #$C$FSL1, XAR0 ; |273| 
         000d4c 8E00 
         000d4e 0000+
    3355              $C$DW$265       .dwtag  DW_TAG_TI_branch
    3356                      .dwattr $C$DW$265, DW_AT_low_pc(0x00)
    3357                      .dwattr $C$DW$265, DW_AT_name("_printFunction")
    3358                      .dwattr $C$DW$265, DW_AT_TI_call
    3359              
    3360 000d50 0803          CALL #_printFunction ; |273| 
         000d52 33   
    3361 000d53 3D14  ||      MOV #1, T0
    3362              
    3363                                                      ; call occurs [#_printFunction] ; |273| 
    3364                      .dwpsn  file "../c5535_bsl_revc/ezdsp5535_v1/c55xx_csl/ccs_v4.0_examples/usb/CSL_USB_DmaExample/csl_u
    3365 000d55 0601          B $C$L73  ; |274| 
         000d57 E4   
    3366                                                      ; branch occurs ; |274| 
    3367 000d58       $C$L61:    
    3368                      .dwpsn  file "../c5535_bsl_revc/ezdsp5535_v1/c55xx_csl/ccs_v4.0_examples/usb/CSL_USB_DmaExample/csl_u
    3369 000d58 EC31          AMOV #_deviceDesc, XAR3 ; |277| 
         000d5a BE00 
         000d5c 0000-
    3370 000d5e EB31          MOV XAR3, dbl(*(#_deviceDescPtr))
         000d60 B500 
         000d62 0084-
    3371                      .dwpsn  file "../c5535_bsl_revc/ezdsp5535_v1/c55xx_csl/ccs_v4.0_examples/usb/CSL_USB_DmaExample/csl_u
    3372 000d64 EC31          AMOV #_cfgDesc, XAR3 ; |278| 
         000d66 BE00 
         000d68 0009-
    3373 000d6a EB31          MOV XAR3, dbl(*(#_cfgDescPtr))
         000d6c B500 
         000d6e 0086-
    3374                      .dwpsn  file "../c5535_bsl_revc/ezdsp5535_v1/c55xx_csl/ccs_v4.0_examples/usb/CSL_USB_DmaExample/csl_u
    3375 000d70 EC31          AMOV #_strDesc, XAR3 ; |279| 
         000d72 BE00 
         000d74 0031-
    3376 000d76 EB31          MOV XAR3, dbl(*(#_strDescPtr))
         000d78 B500 
         000d7a 0088-
    3377                      .dwpsn  file "../c5535_bsl_revc/ezdsp5535_v1/c55xx_csl/ccs_v4.0_examples/usb/CSL_USB_DmaExample/csl_u
    3378              $C$DW$266       .dwtag  DW_TAG_TI_branch
    3379                      .dwattr $C$DW$266, DW_AT_low_pc(0x00)
    3380                      .dwattr $C$DW$266, DW_AT_name("_USB_resetDev")
    3381                      .dwattr $C$DW$266, DW_AT_TI_call
    3382              
    3383 000d7c 6C00          CALL #_USB_resetDev ; |282| 
         000d7e 0000!
    3384 000d80 3D04  ||      MOV #0, T0
    3385              
    3386                                                      ; call occurs [#_USB_resetDev] ; |282| 
    3387 000d82 C431          MOV T0, *(#_status) ; |282| 
         000d84 0001 
         000d86 0E-  
TMS320C55x Assembler PC v4.4.1 Sat Sep 29 23:08:40 2018

Tools Copyright (c) 1996-2012 Texas Instruments Incorporated
csl_usb_dma_example.asm                                              PAGE   81

    3388                      .dwpsn  file "../c5535_bsl_revc/ezdsp5535_v1/c55xx_csl/ccs_v4.0_examples/usb/CSL_USB_DmaExample/csl_u
    3389 000d87 2249          MOV T0, AR1
    3390 000d89 6709          BCC $C$L62,AR1 == #0 ; |283| 
    3391                                                      ; branchcc occurs ; |283| 
    3392                      .dwpsn  file "../c5535_bsl_revc/ezdsp5535_v1/c55xx_csl/ccs_v4.0_examples/usb/CSL_USB_DmaExample/csl_u
    3393 000d8b EC31          AMOV #$C$FSL2, XAR0 ; |285| 
         000d8d 8E00 
         000d8f 000A+
    3394              $C$DW$267       .dwtag  DW_TAG_TI_branch
    3395                      .dwattr $C$DW$267, DW_AT_low_pc(0x00)
    3396                      .dwattr $C$DW$267, DW_AT_name("_printFunction")
    3397                      .dwattr $C$DW$267, DW_AT_TI_call
    3398              
    3399 000d91 0802          CALL #_printFunction ; |285| 
         000d93 F2   
    3400 000d94 3D14  ||      MOV #1, T0
    3401              
    3402                                                      ; call occurs [#_printFunction] ; |285| 
    3403                      .dwpsn  file "../c5535_bsl_revc/ezdsp5535_v1/c55xx_csl/ccs_v4.0_examples/usb/CSL_USB_DmaExample/csl_u
    3404 000d96 0601          B $C$L73  ; |286| 
         000d98 A3   
    3405                                                      ; branch occurs ; |286| 
    3406 000d99       $C$L62:    
    3407                      .dwpsn  file "../c5535_bsl_revc/ezdsp5535_v1/c55xx_csl/ccs_v4.0_examples/usb/CSL_USB_DmaExample/csl_u
    3408 000d99 E631          MOV #61, *(#_eventMask) ; |290| 
         000d9b 3D00 
         000d9d 008A-
    3409                      .dwpsn  file "../c5535_bsl_revc/ezdsp5535_v1/c55xx_csl/ccs_v4.0_examples/usb/CSL_USB_DmaExample/csl_u
    3410 000d9f ED31          MOV dbl(*(#_hEpObjArray)), XAR0
         000da1 8F00 
         000da3 00AA-
    3411              
    3412 000da5 3C05          MOV #0, T1
    3413 000da7 3D09  ||      MOV #0, AR1
    3414              
    3415 000dad 3D04          MOV #0, T0
    3416 000da9 7600  ||      MOV #64, AR2 ; |294| 
         000dab 40A8 
    3417              
    3418 000daf AB31          MOV *(#_eventMask), AR3 ; |294| 
         000db1 0000 
         000db3 8A-  
    3419              $C$DW$268       .dwtag  DW_TAG_TI_branch
    3420                      .dwattr $C$DW$268, DW_AT_low_pc(0x00)
    3421                      .dwattr $C$DW$268, DW_AT_name("_USB_initEndptObj")
    3422                      .dwattr $C$DW$268, DW_AT_TI_call
    3423              
    3424 000db4 6C00          CALL #_USB_initEndptObj ; |294| 
         000db6 0000!
    3425 000db8 3D00  ||      MOV #0, AC0 ; |294| 
    3426              
    3427                                                      ; call occurs [#_USB_initEndptObj] ; |294| 
    3428 000dba C431          MOV T0, *(#_status) ; |294| 
         000dbc 0001 
         000dbe 0E-  
TMS320C55x Assembler PC v4.4.1 Sat Sep 29 23:08:40 2018

Tools Copyright (c) 1996-2012 Texas Instruments Incorporated
csl_usb_dma_example.asm                                              PAGE   82

    3429                      .dwpsn  file "../c5535_bsl_revc/ezdsp5535_v1/c55xx_csl/ccs_v4.0_examples/usb/CSL_USB_DmaExample/csl_u
    3430 000dbf 2249          MOV T0, AR1
    3431 000dc1 6709          BCC $C$L63,AR1 == #0 ; |297| 
    3432                                                      ; branchcc occurs ; |297| 
    3433                      .dwpsn  file "../c5535_bsl_revc/ezdsp5535_v1/c55xx_csl/ccs_v4.0_examples/usb/CSL_USB_DmaExample/csl_u
    3434 000dc3 EC31          AMOV #$C$FSL3, XAR0 ; |299| 
         000dc5 8E00 
         000dc7 001C+
    3435              $C$DW$269       .dwtag  DW_TAG_TI_branch
    3436                      .dwattr $C$DW$269, DW_AT_low_pc(0x00)
    3437                      .dwattr $C$DW$269, DW_AT_name("_printFunction")
    3438                      .dwattr $C$DW$269, DW_AT_TI_call
    3439              
    3440 000dc9 0802          CALL #_printFunction ; |299| 
         000dcb BA   
    3441 000dcc 3D14  ||      MOV #1, T0
    3442              
    3443                                                      ; call occurs [#_printFunction] ; |299| 
    3444                      .dwpsn  file "../c5535_bsl_revc/ezdsp5535_v1/c55xx_csl/ccs_v4.0_examples/usb/CSL_USB_DmaExample/csl_u
    3445 000dce 0601          B $C$L73  ; |300| 
         000dd0 6B   
    3446                                                      ; branch occurs ; |300| 
    3447 000dd1       $C$L63:    
    3448                      .dwpsn  file "../c5535_bsl_revc/ezdsp5535_v1/c55xx_csl/ccs_v4.0_examples/usb/CSL_USB_DmaExample/csl_u
    3449 000dd1 ED31          MOV dbl(*(#(_hEpObjArray+2))), XAR0
         000dd3 8F00 
         000dd5 00AC-
    3450 000dd7 3C09          MOV #0, AR1
    3451              
    3452 000ddd 3D85          MOV #8, T1
    3453 000dd9 7600  ||      MOV #64, AR2 ; |304| 
         000ddb 40A8 
    3454              
    3455 000de3 3D04          MOV #0, T0
    3456 000ddf 7600  ||      MOV #32, AR3 ; |304| 
         000de1 20B8 
    3457              
    3458              $C$DW$270       .dwtag  DW_TAG_TI_branch
    3459                      .dwattr $C$DW$270, DW_AT_low_pc(0x00)
    3460                      .dwattr $C$DW$270, DW_AT_name("_USB_initEndptObj")
    3461                      .dwattr $C$DW$270, DW_AT_TI_call
    3462              
    3463 000de5 6C00          CALL #_USB_initEndptObj ; |304| 
         000de7 0000!
    3464 000de9 3D00  ||      MOV #0, AC0 ; |304| 
    3465              
    3466                                                      ; call occurs [#_USB_initEndptObj] ; |304| 
    3467 000deb C431          MOV T0, *(#_status) ; |304| 
         000ded 0001 
         000def 0E-  
    3468                      .dwpsn  file "../c5535_bsl_revc/ezdsp5535_v1/c55xx_csl/ccs_v4.0_examples/usb/CSL_USB_DmaExample/csl_u
    3469 000df0 2249          MOV T0, AR1
    3470 000df2 6709          BCC $C$L64,AR1 == #0 ; |307| 
    3471                                                      ; branchcc occurs ; |307| 
    3472                      .dwpsn  file "../c5535_bsl_revc/ezdsp5535_v1/c55xx_csl/ccs_v4.0_examples/usb/CSL_USB_DmaExample/csl_u
TMS320C55x Assembler PC v4.4.1 Sat Sep 29 23:08:40 2018

Tools Copyright (c) 1996-2012 Texas Instruments Incorporated
csl_usb_dma_example.asm                                              PAGE   83

    3473 000df4 EC31          AMOV #$C$FSL3, XAR0 ; |309| 
         000df6 8E00 
         000df8 001C+
    3474              $C$DW$271       .dwtag  DW_TAG_TI_branch
    3475                      .dwattr $C$DW$271, DW_AT_low_pc(0x00)
    3476                      .dwattr $C$DW$271, DW_AT_name("_printFunction")
    3477                      .dwattr $C$DW$271, DW_AT_TI_call
    3478              
    3479 000dfa 0802          CALL #_printFunction ; |309| 
         000dfc 89   
    3480 000dfd 3D14  ||      MOV #1, T0
    3481              
    3482                                                      ; call occurs [#_printFunction] ; |309| 
    3483                      .dwpsn  file "../c5535_bsl_revc/ezdsp5535_v1/c55xx_csl/ccs_v4.0_examples/usb/CSL_USB_DmaExample/csl_u
    3484 000dff 0601          B $C$L73  ; |310| 
         000e01 3A   
    3485                                                      ; branch occurs ; |310| 
    3486 000e02       $C$L64:    
    3487                      .dwpsn  file "../c5535_bsl_revc/ezdsp5535_v1/c55xx_csl/ccs_v4.0_examples/usb/CSL_USB_DmaExample/csl_u
    3488 000e02 E631          MOV #33, *(#_eventMask) ; |314| 
         000e04 2100 
         000e06 008A-
    3489                      .dwpsn  file "../c5535_bsl_revc/ezdsp5535_v1/c55xx_csl/ccs_v4.0_examples/usb/CSL_USB_DmaExample/csl_u
    3490 000e08 ED31          MOV dbl(*(#(_hEpObjArray+4))), XAR0
         000e0a 8F00 
         000e0c 00AE-
    3491              
    3492 000e0e 3C95          MOV #9, T1
    3493 000e10 3D19  ||      MOV #1, AR1
    3494              
    3495 000e16 3D04          MOV #0, T0
    3496 000e12 7600  ||      MOV #64, AR2 ; |315| 
         000e14 40A8 
    3497              
    3498 000e18 AB31          MOV *(#_eventMask), AR3 ; |315| 
         000e1a 0000 
         000e1c 8A-  
    3499              $C$DW$272       .dwtag  DW_TAG_TI_branch
    3500                      .dwattr $C$DW$272, DW_AT_low_pc(0x00)
    3501                      .dwattr $C$DW$272, DW_AT_name("_USB_initEndptObj")
    3502                      .dwattr $C$DW$272, DW_AT_TI_call
    3503              
    3504 000e1d 6C00          CALL #_USB_initEndptObj ; |315| 
         000e1f 0000!
    3505 000e21 3D00  ||      MOV #0, AC0 ; |315| 
    3506              
    3507                                                      ; call occurs [#_USB_initEndptObj] ; |315| 
    3508 000e23 C431          MOV T0, *(#_status) ; |315| 
         000e25 0001 
         000e27 0E-  
    3509                      .dwpsn  file "../c5535_bsl_revc/ezdsp5535_v1/c55xx_csl/ccs_v4.0_examples/usb/CSL_USB_DmaExample/csl_u
    3510 000e28 2249          MOV T0, AR1
    3511 000e2a 6709          BCC $C$L65,AR1 == #0 ; |318| 
    3512                                                      ; branchcc occurs ; |318| 
    3513                      .dwpsn  file "../c5535_bsl_revc/ezdsp5535_v1/c55xx_csl/ccs_v4.0_examples/usb/CSL_USB_DmaExample/csl_u
TMS320C55x Assembler PC v4.4.1 Sat Sep 29 23:08:40 2018

Tools Copyright (c) 1996-2012 Texas Instruments Incorporated
csl_usb_dma_example.asm                                              PAGE   84

    3514 000e2c EC31          AMOV #$C$FSL3, XAR0 ; |320| 
         000e2e 8E00 
         000e30 001C+
    3515              $C$DW$273       .dwtag  DW_TAG_TI_branch
    3516                      .dwattr $C$DW$273, DW_AT_low_pc(0x00)
    3517                      .dwattr $C$DW$273, DW_AT_name("_printFunction")
    3518                      .dwattr $C$DW$273, DW_AT_TI_call
    3519              
    3520 000e32 0802          CALL #_printFunction ; |320| 
         000e34 51   
    3521 000e35 3D14  ||      MOV #1, T0
    3522              
    3523                                                      ; call occurs [#_printFunction] ; |320| 
    3524                      .dwpsn  file "../c5535_bsl_revc/ezdsp5535_v1/c55xx_csl/ccs_v4.0_examples/usb/CSL_USB_DmaExample/csl_u
    3525 000e37 0601          B $C$L73  ; |321| 
         000e39 02   
    3526                                                      ; branch occurs ; |321| 
    3527 000e3a       $C$L65:    
    3528                      .dwpsn  file "../c5535_bsl_revc/ezdsp5535_v1/c55xx_csl/ccs_v4.0_examples/usb/CSL_USB_DmaExample/csl_u
    3529 000e3a ED31          MOV dbl(*(#(_hEpObjArray+6))), XAR0
         000e3c 8F00 
         000e3e 00B0-
    3530 000e40 3C19          MOV #1, AR1
    3531              
    3532 000e46 3D25          MOV #2, T1
    3533 000e42 7600  ||      MOV #64, AR2 ; |325| 
         000e44 40A8 
    3534              
    3535 000e4c 3D04          MOV #0, T0
    3536 000e48 7600  ||      MOV #32, AR3 ; |325| 
         000e4a 20B8 
    3537              
    3538              $C$DW$274       .dwtag  DW_TAG_TI_branch
    3539                      .dwattr $C$DW$274, DW_AT_low_pc(0x00)
    3540                      .dwattr $C$DW$274, DW_AT_name("_USB_initEndptObj")
    3541                      .dwattr $C$DW$274, DW_AT_TI_call
    3542              
    3543 000e4e 6C00          CALL #_USB_initEndptObj ; |325| 
         000e50 0000!
    3544 000e52 3D00  ||      MOV #0, AC0 ; |325| 
    3545              
    3546                                                      ; call occurs [#_USB_initEndptObj] ; |325| 
    3547 000e54 C431          MOV T0, *(#_status) ; |325| 
         000e56 0001 
         000e58 0E-  
    3548                      .dwpsn  file "../c5535_bsl_revc/ezdsp5535_v1/c55xx_csl/ccs_v4.0_examples/usb/CSL_USB_DmaExample/csl_u
    3549 000e59 2249          MOV T0, AR1
    3550 000e5b 6709          BCC $C$L66,AR1 == #0 ; |328| 
    3551                                                      ; branchcc occurs ; |328| 
    3552                      .dwpsn  file "../c5535_bsl_revc/ezdsp5535_v1/c55xx_csl/ccs_v4.0_examples/usb/CSL_USB_DmaExample/csl_u
    3553 000e5d EC31          AMOV #$C$FSL3, XAR0 ; |330| 
         000e5f 8E00 
         000e61 001C+
    3554              $C$DW$275       .dwtag  DW_TAG_TI_branch
    3555                      .dwattr $C$DW$275, DW_AT_low_pc(0x00)
TMS320C55x Assembler PC v4.4.1 Sat Sep 29 23:08:40 2018

Tools Copyright (c) 1996-2012 Texas Instruments Incorporated
csl_usb_dma_example.asm                                              PAGE   85

    3556                      .dwattr $C$DW$275, DW_AT_name("_printFunction")
    3557                      .dwattr $C$DW$275, DW_AT_TI_call
    3558              
    3559 000e63 0802          CALL #_printFunction ; |330| 
         000e65 20   
    3560 000e66 3D14  ||      MOV #1, T0
    3561              
    3562                                                      ; call occurs [#_printFunction] ; |330| 
    3563                      .dwpsn  file "../c5535_bsl_revc/ezdsp5535_v1/c55xx_csl/ccs_v4.0_examples/usb/CSL_USB_DmaExample/csl_u
    3564 000e68 0600          B $C$L73  ; |331| 
         000e6a D1   
    3565                                                      ; branch occurs ; |331| 
    3566 000e6b       $C$L66:    
    3567                      .dwpsn  file "../c5535_bsl_revc/ezdsp5535_v1/c55xx_csl/ccs_v4.0_examples/usb/CSL_USB_DmaExample/csl_u
    3568 000e6b EC31          AMOV #_hEpObjArray, XAR0 ; |335| 
         000e6d 8E00 
         000e6f 00AA-
    3569 000e71 3C04          MOV #0, T0
    3570              $C$DW$276       .dwtag  DW_TAG_TI_branch
    3571                      .dwattr $C$DW$276, DW_AT_low_pc(0x00)
    3572                      .dwattr $C$DW$276, DW_AT_name("_USB_setParams")
    3573                      .dwattr $C$DW$276, DW_AT_TI_call
    3574              
    3575 000e73 6C00          CALL #_USB_setParams ; |335| 
         000e75 0000!
    3576 000e77 3D05  ||      MOV #0, T1
    3577              
    3578                                                      ; call occurs [#_USB_setParams] ; |335| 
    3579 000e79 C431          MOV T0, *(#_status) ; |335| 
         000e7b 0001 
         000e7d 0E-  
    3580                      .dwpsn  file "../c5535_bsl_revc/ezdsp5535_v1/c55xx_csl/ccs_v4.0_examples/usb/CSL_USB_DmaExample/csl_u
    3581 000e7e 2249          MOV T0, AR1
    3582 000e80 6709          BCC $C$L67,AR1 == #0 ; |336| 
    3583                                                      ; branchcc occurs ; |336| 
    3584                      .dwpsn  file "../c5535_bsl_revc/ezdsp5535_v1/c55xx_csl/ccs_v4.0_examples/usb/CSL_USB_DmaExample/csl_u
    3585 000e82 EC31          AMOV #$C$FSL4, XAR0 ; |338| 
         000e84 8E00 
         000e86 002E+
    3586              $C$DW$277       .dwtag  DW_TAG_TI_branch
    3587                      .dwattr $C$DW$277, DW_AT_low_pc(0x00)
    3588                      .dwattr $C$DW$277, DW_AT_name("_printFunction")
    3589                      .dwattr $C$DW$277, DW_AT_TI_call
    3590              
    3591 000e88 0801          CALL #_printFunction ; |338| 
         000e8a FB   
    3592 000e8b 3D14  ||      MOV #1, T0
    3593              
    3594                                                      ; call occurs [#_printFunction] ; |338| 
    3595                      .dwpsn  file "../c5535_bsl_revc/ezdsp5535_v1/c55xx_csl/ccs_v4.0_examples/usb/CSL_USB_DmaExample/csl_u
    3596 000e8d 0600          B $C$L73  ; |339| 
         000e8f AC   
    3597                                                      ; branch occurs ; |339| 
    3598 000e90       $C$L67:    
    3599                      .dwpsn  file "../c5535_bsl_revc/ezdsp5535_v1/c55xx_csl/ccs_v4.0_examples/usb/CSL_USB_DmaExample/csl_u
TMS320C55x Assembler PC v4.4.1 Sat Sep 29 23:08:40 2018

Tools Copyright (c) 1996-2012 Texas Instruments Incorporated
csl_usb_dma_example.asm                                              PAGE   86

    3600              $C$DW$278       .dwtag  DW_TAG_TI_branch
    3601                      .dwattr $C$DW$278, DW_AT_low_pc(0x00)
    3602                      .dwattr $C$DW$278, DW_AT_name("_USB_connectDev")
    3603                      .dwattr $C$DW$278, DW_AT_TI_call
    3604              
    3605 000e90 6C00          CALL #_USB_connectDev ; |343| 
         000e92 0000!
    3606 000e94 3D04  ||      MOV #0, T0
    3607              
    3608                                                      ; call occurs [#_USB_connectDev] ; |343| 
    3609 000e96 C431          MOV T0, *(#_status) ; |343| 
         000e98 0001 
         000e9a 0E-  
    3610                      .dwpsn  file "../c5535_bsl_revc/ezdsp5535_v1/c55xx_csl/ccs_v4.0_examples/usb/CSL_USB_DmaExample/csl_u
    3611 000e9b 2249          MOV T0, AR1
    3612 000e9d 6709          BCC $C$L68,AR1 == #0 ; |344| 
    3613                                                      ; branchcc occurs ; |344| 
    3614                      .dwpsn  file "../c5535_bsl_revc/ezdsp5535_v1/c55xx_csl/ccs_v4.0_examples/usb/CSL_USB_DmaExample/csl_u
    3615 000e9f EC31          AMOV #$C$FSL5, XAR0 ; |346| 
         000ea1 8E00 
         000ea3 003E+
    3616              $C$DW$279       .dwtag  DW_TAG_TI_branch
    3617                      .dwattr $C$DW$279, DW_AT_low_pc(0x00)
    3618                      .dwattr $C$DW$279, DW_AT_name("_printFunction")
    3619                      .dwattr $C$DW$279, DW_AT_TI_call
    3620              
    3621 000ea5 0801          CALL #_printFunction ; |346| 
         000ea7 DE   
    3622 000ea8 3D14  ||      MOV #1, T0
    3623              
    3624                                                      ; call occurs [#_printFunction] ; |346| 
    3625                      .dwpsn  file "../c5535_bsl_revc/ezdsp5535_v1/c55xx_csl/ccs_v4.0_examples/usb/CSL_USB_DmaExample/csl_u
    3626 000eaa 0600          B $C$L73  ; |347| 
         000eac 8F   
    3627                                                      ; branch occurs ; |347| 
    3628 000ead       $C$L68:    
    3629                      .dwpsn  file "../c5535_bsl_revc/ezdsp5535_v1/c55xx_csl/ccs_v4.0_examples/usb/CSL_USB_DmaExample/csl_u
    3630 000ead F031          CMP *(#_stopRunning) == #1, TC1 ; |350| 
         000eaf 0001 
         000eb1 0000 
         000eb3 8E-  
    3631 000eb4 0464          BCC $C$L72,TC1 ; |350| 
         000eb6 70   
    3632                                                      ; branchcc occurs ; |350| 
    3633 000eb7       $C$L69:    
    3634 000eb7       $C$DW$L$_main$18$B:
    3635                      .dwpsn  file "../c5535_bsl_revc/ezdsp5535_v1/c55xx_csl/ccs_v4.0_examples/usb/CSL_USB_DmaExample/csl_u
    3636 000eb7 F031          CMP *(#_usbDevDisconnect) == #1, TC1 ; |352| 
         000eb9 0001 
         000ebb 0000 
         000ebd 8F-  
    3637 000ebe 0474          BCC $C$L71,!TC1 ; |352| 
         000ec0 5C   
    3638                                                      ; branchcc occurs ; |352| 
    3639 000ec1       $C$DW$L$_main$18$E:
TMS320C55x Assembler PC v4.4.1 Sat Sep 29 23:08:40 2018

Tools Copyright (c) 1996-2012 Texas Instruments Incorporated
csl_usb_dma_example.asm                                              PAGE   87

    3640 000ec1       $C$DW$L$_main$19$B:
    3641 000ec1 7604          MOV #1121, T0 ; |352| 
         000ec3 6148 
    3642 000ec5 AB31          MOV *(#_usbRegisters), AR3 ; |352| 
         000ec7 0000 
         000ec9 00!  
    3643 000eca A96B          MOV port(*AR3(T0)), AR1 ; |352| 
         000ecc 99   
    3644 000ecd 1818          AND #0x0018, AR1, AC0 ; |352| 
         000ecf 09   
    3645              
    3646 000ed0 76FF          BFXTR #0xfff8, AC0, AR1 ; |352| 
         000ed2 F890 
    3647 000ed4 3D3A  ||      MOV #3, AR2
    3648              
    3649 000ed6 1290          CMPU AR1 == AR2, TC1 ; |352| 
         000ed8 A4   
    3650 000ed9 0464          BCC $C$L71,TC1 ; |352| 
         000edb 41   
    3651                                                      ; branchcc occurs ; |352| 
    3652 000edc       $C$DW$L$_main$19$E:
    3653 000edc       $C$DW$L$_main$20$B:
    3654                      .dwpsn  file "../c5535_bsl_revc/ezdsp5535_v1/c55xx_csl/ccs_v4.0_examples/usb/CSL_USB_DmaExample/csl_u
    3655 000edc EC31          AMOV #$C$FSL6, XAR3 ; |356| 
         000ede BE00 
         000ee0 004A+
    3656 000ee2 EB00          MOV XAR3, dbl(*SP(#0))
         000ee4 B5   
    3657              $C$DW$280       .dwtag  DW_TAG_TI_branch
    3658                      .dwattr $C$DW$280, DW_AT_low_pc(0x00)
    3659                      .dwattr $C$DW$280, DW_AT_name("_printf")
    3660                      .dwattr $C$DW$280, DW_AT_TI_call
    3661 000ee5 6C00          CALL #_printf ; |356| 
         000ee7 0000!
    3662                                                      ; call occurs [#_printf] ; |356| 
    3663 000ee9 7604          MOV #1121, T0 ; |358| 
         000eeb 6148 
    3664 000eed 3C39          MOV #3, AR1
    3665                      .dwpsn  file "../c5535_bsl_revc/ezdsp5535_v1/c55xx_csl/ccs_v4.0_examples/usb/CSL_USB_DmaExample/csl_u
    3666 000eef       $C$DW$L$_main$20$E:
    3667 000eef       $C$L70:    
    3668 000eef       $C$DW$L$_main$21$B:
    3669                      .dwpsn  file "../c5535_bsl_revc/ezdsp5535_v1/c55xx_csl/ccs_v4.0_examples/usb/CSL_USB_DmaExample/csl_u
    3670 000eef AB31          MOV *(#_usbRegisters), AR3 ; |358| 
         000ef1 0000 
         000ef3 00!  
    3671 000ef4 AA6B          MOV port(*AR3(T0)), AR2 ; |358| 
         000ef6 99   
    3672 000ef7 1818          AND #0x0018, AR2, AC0 ; |358| 
         000ef9 0A   
    3673 000efa 76FF          BFXTR #0xfff8, AC0, AR2 ; |358| 
         000efc F8A0 
    3674 000efe 12AC          CMPU AR2 != AR1, TC1 ; |358| 
         000f00 94   
    3675 000f01 0464          BCC $C$L70,TC1 ; |358| 
TMS320C55x Assembler PC v4.4.1 Sat Sep 29 23:08:40 2018

Tools Copyright (c) 1996-2012 Texas Instruments Incorporated
csl_usb_dma_example.asm                                              PAGE   88

         000f03 EB   
    3676                                                      ; branchcc occurs ; |358| 
    3677 000f04       $C$DW$L$_main$21$E:
    3678 000f04       $C$DW$L$_main$22$B:
    3679                      .dwpsn  file "../c5535_bsl_revc/ezdsp5535_v1/c55xx_csl/ccs_v4.0_examples/usb/CSL_USB_DmaExample/csl_u
    3680 000f04 EC31          AMOV #$C$FSL7, XAR3 ; |361| 
         000f06 BE00 
         000f08 0066+
    3681 000f0a EB00          MOV XAR3, dbl(*SP(#0))
         000f0c B5   
    3682              $C$DW$281       .dwtag  DW_TAG_TI_branch
    3683                      .dwattr $C$DW$281, DW_AT_low_pc(0x00)
    3684                      .dwattr $C$DW$281, DW_AT_name("_printf")
    3685                      .dwattr $C$DW$281, DW_AT_TI_call
    3686 000f0d 6C00          CALL #_printf ; |361| 
         000f0f 0000!
    3687                                                      ; call occurs [#_printf] ; |361| 
    3688                      .dwpsn  file "../c5535_bsl_revc/ezdsp5535_v1/c55xx_csl/ccs_v4.0_examples/usb/CSL_USB_DmaExample/csl_u
    3689 000f11 E631          MOV #0, *(#_usbDevDisconnect) ; |363| 
         000f13 0000 
         000f15 008F-
    3690                      .dwpsn  file "../c5535_bsl_revc/ezdsp5535_v1/c55xx_csl/ccs_v4.0_examples/usb/CSL_USB_DmaExample/csl_u
    3691              $C$DW$282       .dwtag  DW_TAG_TI_branch
    3692                      .dwattr $C$DW$282, DW_AT_low_pc(0x00)
    3693                      .dwattr $C$DW$282, DW_AT_name("_USB_connectDev")
    3694                      .dwattr $C$DW$282, DW_AT_TI_call
    3695              
    3696 000f17 6C00          CALL #_USB_connectDev ; |364| 
         000f19 0000!
    3697 000f1b 3D04  ||      MOV #0, T0
    3698              
    3699                                                      ; call occurs [#_USB_connectDev] ; |364| 
    3700 000f1d       $C$DW$L$_main$22$E:
    3701 000f1d       $C$L71:    
    3702 000f1d       $C$DW$L$_main$23$B:
    3703                      .dwpsn  file "../c5535_bsl_revc/ezdsp5535_v1/c55xx_csl/ccs_v4.0_examples/usb/CSL_USB_DmaExample/csl_u
    3704 000f1d F031          CMP *(#_stopRunning) == #1, TC1 ; |350| 
         000f1f 0001 
         000f21 0000 
         000f23 8E-  
    3705 000f24 0474          BCC $C$L69,!TC1 ; |350| 
         000f26 90   
    3706                                                      ; branchcc occurs ; |350| 
    3707 000f27       $C$DW$L$_main$23$E:
    3708 000f27       $C$L72:    
    3709                      .dwpsn  file "../c5535_bsl_revc/ezdsp5535_v1/c55xx_csl/ccs_v4.0_examples/usb/CSL_USB_DmaExample/csl_u
    3710 000f27 EC31          AMOV #0, XAR0 ; |368| 
         000f29 8E00 
         000f2b 0000 
    3711              $C$DW$283       .dwtag  DW_TAG_TI_branch
    3712                      .dwattr $C$DW$283, DW_AT_low_pc(0x00)
    3713                      .dwattr $C$DW$283, DW_AT_name("_printFunction")
    3714                      .dwattr $C$DW$283, DW_AT_TI_call
    3715              
    3716 000f2d 0801          CALL #_printFunction ; |368| 
TMS320C55x Assembler PC v4.4.1 Sat Sep 29 23:08:40 2018

Tools Copyright (c) 1996-2012 Texas Instruments Incorporated
csl_usb_dma_example.asm                                              PAGE   89

         000f2f 56   
    3717 000f30 3D24  ||      MOV #2, T0
    3718              
    3719                                                      ; call occurs [#_printFunction] ; |368| 
    3720                      .dwpsn  file "../c5535_bsl_revc/ezdsp5535_v1/c55xx_csl/ccs_v4.0_examples/usb/CSL_USB_DmaExample/csl_u
    3721 000f32 A931          MOV *(#_PaSs_StAtE), AR1 ; |371| 
         000f34 0001 
         000f36 0F-  
    3722 000f37 C931          MOV AR1, *(#_PaSs) ; |371| 
         000f39 0001 
         000f3b 10-  
    3723                      .dwpsn  file "../c5535_bsl_revc/ezdsp5535_v1/c55xx_csl/ccs_v4.0_examples/usb/CSL_USB_DmaExample/csl_u
    3724 000f3c       $C$L73:    
    3725 000f3c 4E03          AADD #3, SP
    3726                      .dwcfi  cfa_offset, 1
    3727              $C$DW$284       .dwtag  DW_TAG_TI_branch
    3728                      .dwattr $C$DW$284, DW_AT_low_pc(0x00)
    3729                      .dwattr $C$DW$284, DW_AT_TI_return
    3730 000f3e 4804          RET
    3731                                                      ; return occurs
    3732              
    3733              $C$DW$285       .dwtag  DW_TAG_TI_loop
    3734                      .dwattr $C$DW$285, DW_AT_name("F:\eZdsp_DBG\tmp1\c55x-sim2\foo\Debug\csl_usb_dma_example.asm:$C$L69:1
    3735                      .dwattr $C$DW$285, DW_AT_TI_begin_file("../c5535_bsl_revc/ezdsp5535_v1/c55xx_csl/ccs_v4.0_examples/us
    3736                      .dwattr $C$DW$285, DW_AT_TI_begin_line(0x15e)
    3737                      .dwattr $C$DW$285, DW_AT_TI_end_line(0x16e)
    3738              $C$DW$286       .dwtag  DW_TAG_TI_loop_range
    3739                      .dwattr $C$DW$286, DW_AT_low_pc($C$DW$L$_main$18$B)
    3740                      .dwattr $C$DW$286, DW_AT_high_pc($C$DW$L$_main$18$E)
    3741              $C$DW$287       .dwtag  DW_TAG_TI_loop_range
    3742                      .dwattr $C$DW$287, DW_AT_low_pc($C$DW$L$_main$20$B)
    3743                      .dwattr $C$DW$287, DW_AT_high_pc($C$DW$L$_main$20$E)
    3744              $C$DW$288       .dwtag  DW_TAG_TI_loop_range
    3745                      .dwattr $C$DW$288, DW_AT_low_pc($C$DW$L$_main$19$B)
    3746                      .dwattr $C$DW$288, DW_AT_high_pc($C$DW$L$_main$19$E)
    3747              $C$DW$289       .dwtag  DW_TAG_TI_loop_range
    3748                      .dwattr $C$DW$289, DW_AT_low_pc($C$DW$L$_main$22$B)
    3749                      .dwattr $C$DW$289, DW_AT_high_pc($C$DW$L$_main$22$E)
    3750              $C$DW$290       .dwtag  DW_TAG_TI_loop_range
    3751                      .dwattr $C$DW$290, DW_AT_low_pc($C$DW$L$_main$23$B)
    3752                      .dwattr $C$DW$290, DW_AT_high_pc($C$DW$L$_main$23$E)
    3753              
    3754              $C$DW$291       .dwtag  DW_TAG_TI_loop
    3755                      .dwattr $C$DW$291, DW_AT_name("F:\eZdsp_DBG\tmp1\c55x-sim2\foo\Debug\csl_usb_dma_example.asm:$C$L70:2
    3756                      .dwattr $C$DW$291, DW_AT_TI_begin_file("../c5535_bsl_revc/ezdsp5535_v1/c55xx_csl/ccs_v4.0_examples/us
    3757                      .dwattr $C$DW$291, DW_AT_TI_begin_line(0x166)
    3758                      .dwattr $C$DW$291, DW_AT_TI_end_line(0x166)
    3759              $C$DW$292       .dwtag  DW_TAG_TI_loop_range
    3760                      .dwattr $C$DW$292, DW_AT_low_pc($C$DW$L$_main$21$B)
    3761                      .dwattr $C$DW$292, DW_AT_high_pc($C$DW$L$_main$21$E)
    3762                      .dwendtag $C$DW$291
    3763              
    3764                      .dwendtag $C$DW$285
    3765              
    3766                      .dwattr $C$DW$258, DW_AT_TI_end_file("../c5535_bsl_revc/ezdsp5535_v1/c55xx_csl/ccs_v4.0_examples/usb/
TMS320C55x Assembler PC v4.4.1 Sat Sep 29 23:08:40 2018

Tools Copyright (c) 1996-2012 Texas Instruments Incorporated
csl_usb_dma_example.asm                                              PAGE   90

    3767                      .dwattr $C$DW$258, DW_AT_TI_end_line(0x178)
    3768                      .dwattr $C$DW$258, DW_AT_TI_end_column(0x01)
    3769                      .dwendentry
    3770                      .dwendtag $C$DW$258
    3771              
    3772 000000               .sect   ".text:retain"
    3773                      .align 4
    3774                      .global _usb_isr
    3775              
    3776              $C$DW$293       .dwtag  DW_TAG_subprogram, DW_AT_name("usb_isr")
    3777                      .dwattr $C$DW$293, DW_AT_low_pc(_usb_isr)
    3778                      .dwattr $C$DW$293, DW_AT_high_pc(0x00)
    3779                      .dwattr $C$DW$293, DW_AT_TI_symbol_name("_usb_isr")
    3780                      .dwattr $C$DW$293, DW_AT_external
    3781                      .dwattr $C$DW$293, DW_AT_TI_begin_file("../c5535_bsl_revc/ezdsp5535_v1/c55xx_csl/ccs_v4.0_examples/us
    3782                      .dwattr $C$DW$293, DW_AT_TI_begin_line(0x181)
    3783                      .dwattr $C$DW$293, DW_AT_TI_begin_column(0x10)
    3784                      .dwattr $C$DW$293, DW_AT_TI_interrupt
    3785                      .dwattr $C$DW$293, DW_AT_TI_max_frame_size(0x31)
    3786                      .dwpsn  file "../c5535_bsl_revc/ezdsp5535_v1/c55xx_csl/ccs_v4.0_examples/usb/CSL_USB_DmaExample/csl_u
    3787              
    3788                      .dwfde $C$DW$CIE, _usb_isr
    3789              ;*******************************************************************************
    3790              ;* INTERRUPT NAME: usb_isr                                                     *
    3791              ;*                                                                             *
    3792              ;*   Function Uses Regs : AC0,AC0,AC1,AC1,AC2,AC2,AC3,AC3,T0,T1,AR0,XAR0,AR1,  *
    3793              ;*                        XAR1,AR2,AR3,XAR3,AR4,SP,BKC,BK03,BK47,ST1,ST2,ST3,  *
    3794              ;*                        BRC0,RSA0,REA0,BRS1,BRC1,RSA1,REA1,CSR,RPTC,CDP,TRN0,*
    3795              ;*                        TRN1,BSA01,BSA23,BSA45,BSA67,BSAC,TC1,M40,SATA,SATD, *
    3796              ;*                        RDM,FRCT,SMUL                                        *
    3797              ;*   Save On Entry Regs : AC0,AC0,AC1,AC1,AC2,AC2,AC3,AC3,T0,T1,AR0,AR1,AR2,   *
    3798              ;*                        AR3,AR4,BKC,BK03,BK47,BRC0,RSA0,REA0,BRS1,BRC1,RSA1, *
    3799              ;*                        REA1,CSR,RPTC,CDP,TRN0,TRN1,BSA01,BSA23,BSA45,BSA67, *
    3800              ;*                        BSAC                                                 *
    3801              ;*******************************************************************************
    3802 000000       _usb_isr:
    3803                      .dwcfi  cfa_offset, 3
    3804                      .dwcfi  save_reg_to_mem, 91, -3
    3805 000000 F406          AND #0xf91f, mmap(ST1_55)
         000002 F91F 
         000004 98   
    3806 000005 F506          OR #0x4100, mmap(ST1_55)
         000007 4100 
         000009 98   
    3807 00000a F496          AND #0xfa00, mmap(ST2_55)
         00000c FA00 
         00000e 98   
    3808 00000f F596          OR #0x8000, mmap(ST2_55)
         000011 8000 
         000013 98   
    3809 000014 B508          PSH mmap(ST3_55)
         000016 98   
    3810                      .dwcfi  cfa_offset, 4
    3811                      .dwcfi  save_reg_to_mem, 42, -4
    3812 000017 5007          PSH dbl(AC0)
TMS320C55x Assembler PC v4.4.1 Sat Sep 29 23:08:40 2018

Tools Copyright (c) 1996-2012 Texas Instruments Incorporated
csl_usb_dma_example.asm                                              PAGE   91

    3813                      .dwcfi  cfa_offset, 5
    3814                      .dwcfi  save_reg_to_mem, 0, -5
    3815                      .dwcfi  cfa_offset, 6
    3816                      .dwcfi  save_reg_to_mem, 1, -6
    3817 000019 B514          PSH mmap(AC0G)
         00001b 98   
    3818                      .dwcfi  cfa_offset, 7
    3819                      .dwcfi  save_reg_to_mem, 2, -7
    3820 00001c 5017          PSH dbl(AC1)
    3821                      .dwcfi  cfa_offset, 8
    3822                      .dwcfi  save_reg_to_mem, 3, -8
    3823                      .dwcfi  cfa_offset, 9
    3824                      .dwcfi  save_reg_to_mem, 4, -9
    3825 00001e B51A          PSH mmap(AC1G)
         000020 98   
    3826                      .dwcfi  cfa_offset, 10
    3827                      .dwcfi  save_reg_to_mem, 5, -10
    3828 000021 5027          PSH dbl(AC2)
    3829                      .dwcfi  cfa_offset, 11
    3830                      .dwcfi  save_reg_to_mem, 6, -11
    3831                      .dwcfi  cfa_offset, 12
    3832                      .dwcfi  save_reg_to_mem, 7, -12
    3833 000023 B54C          PSH mmap(AC2G)
         000025 98   
    3834                      .dwcfi  cfa_offset, 13
    3835                      .dwcfi  save_reg_to_mem, 8, -13
    3836 000026 5037          PSH dbl(AC3)
    3837                      .dwcfi  cfa_offset, 14
    3838                      .dwcfi  save_reg_to_mem, 9, -14
    3839                      .dwcfi  cfa_offset, 15
    3840                      .dwcfi  save_reg_to_mem, 10, -15
    3841 000028 B554          PSH mmap(AC3G)
         00002a 98   
    3842                      .dwcfi  cfa_offset, 16
    3843                      .dwcfi  save_reg_to_mem, 11, -16
    3844 00002b 5046          PSH T0
    3845                      .dwcfi  cfa_offset, 17
    3846                      .dwcfi  save_reg_to_mem, 12, -17
    3847 00002d 5056          PSH T1
    3848                      .dwcfi  cfa_offset, 18
    3849                      .dwcfi  save_reg_to_mem, 13, -18
    3850 00002f 5085          PSHBOTH XAR0
    3851                      .dwcfi  cfa_offset, 19
    3852                      .dwcfi  save_reg_to_mem, 16, -19
    3853 000031 5095          PSHBOTH XAR1
    3854                      .dwcfi  cfa_offset, 20
    3855                      .dwcfi  save_reg_to_mem, 18, -20
    3856 000033 50A5          PSHBOTH XAR2
    3857                      .dwcfi  cfa_offset, 21
    3858                      .dwcfi  save_reg_to_mem, 20, -21
    3859 000035 50B5          PSHBOTH XAR3
    3860                      .dwcfi  cfa_offset, 22
    3861                      .dwcfi  save_reg_to_mem, 22, -22
    3862 000037 50C5          PSHBOTH XAR4
    3863                      .dwcfi  cfa_offset, 23
TMS320C55x Assembler PC v4.4.1 Sat Sep 29 23:08:40 2018

Tools Copyright (c) 1996-2012 Texas Instruments Incorporated
csl_usb_dma_example.asm                                              PAGE   92

    3864                      .dwcfi  save_reg_to_mem, 24, -23
    3865 000039 B562          PSH mmap(BKC)
         00003b 98   
    3866                      .dwcfi  cfa_offset, 24
    3867                      .dwcfi  save_reg_to_mem, 37, -24
    3868 00003c B532          PSH mmap(BK03)
         00003e 98   
    3869                      .dwcfi  cfa_offset, 25
    3870                      .dwcfi  save_reg_to_mem, 38, -25
    3871 00003f B560          PSH mmap(BK47)
         000041 98   
    3872                      .dwcfi  cfa_offset, 26
    3873                      .dwcfi  save_reg_to_mem, 39, -26
    3874 000042 B534          PSH mmap(BRC0)
         000044 98   
    3875                      .dwcfi  cfa_offset, 27
    3876                      .dwcfi  save_reg_to_mem, 47, -27
    3877 000045 B57A          PSH mmap(RSA0L)
         000047 98   
    3878                      .dwcfi  cfa_offset, 28
    3879                      .dwcfi  save_reg_to_mem, 48, -28
    3880 000048 B578          PSH mmap(RSA0H)
         00004a 98   
    3881                      .dwcfi  cfa_offset, 29
    3882                      .dwcfi  save_reg_to_mem, 49, -29
    3883 00004b B57E          PSH mmap(REA0L)
         00004d 98   
    3884                      .dwcfi  cfa_offset, 30
    3885                      .dwcfi  save_reg_to_mem, 50, -30
    3886 00004e B57C          PSH mmap(REA0H)
         000050 98   
    3887                      .dwcfi  cfa_offset, 31
    3888                      .dwcfi  save_reg_to_mem, 51, -31
    3889 000051 B574          PSH mmap(BRS1)
         000053 98   
    3890                      .dwcfi  cfa_offset, 32
    3891                      .dwcfi  save_reg_to_mem, 52, -32
    3892 000054 B572          PSH mmap(BRC1)
         000056 98   
    3893                      .dwcfi  cfa_offset, 33
    3894                      .dwcfi  save_reg_to_mem, 53, -33
    3895 000057 B582          PSH mmap(RSA1L)
         000059 98   
    3896                      .dwcfi  cfa_offset, 34
    3897                      .dwcfi  save_reg_to_mem, 54, -34
    3898 00005a B580          PSH mmap(RSA1H)
         00005c 98   
    3899                      .dwcfi  cfa_offset, 35
    3900                      .dwcfi  save_reg_to_mem, 55, -35
    3901 00005d B586          PSH mmap(REA1L)
         00005f 98   
    3902                      .dwcfi  cfa_offset, 36
    3903                      .dwcfi  save_reg_to_mem, 56, -36
    3904 000060 B584          PSH mmap(REA1H)
         000062 98   
TMS320C55x Assembler PC v4.4.1 Sat Sep 29 23:08:40 2018

Tools Copyright (c) 1996-2012 Texas Instruments Incorporated
csl_usb_dma_example.asm                                              PAGE   93

    3905                      .dwcfi  cfa_offset, 37
    3906                      .dwcfi  save_reg_to_mem, 57, -37
    3907 000063 B576          PSH mmap(CSR)
         000065 98   
    3908                      .dwcfi  cfa_offset, 38
    3909                      .dwcfi  save_reg_to_mem, 58, -38
    3910 000066 B588          PSH mmap(RPTC)
         000068 98   
    3911                      .dwcfi  cfa_offset, 39
    3912                      .dwcfi  save_reg_to_mem, 59, -39
    3913 000069 5075          PSHBOTH XCDP
    3914                      .dwcfi  cfa_offset, 40
    3915                      .dwcfi  save_reg_to_mem, 60, -40
    3916 00006b B51E          PSH mmap(TRN0)
         00006d 98   
    3917                      .dwcfi  cfa_offset, 41
    3918                      .dwcfi  save_reg_to_mem, 62, -41
    3919 00006e B570          PSH mmap(TRN1)
         000070 98   
    3920                      .dwcfi  cfa_offset, 42
    3921                      .dwcfi  save_reg_to_mem, 63, -42
    3922 000071 B564          PSH mmap(BSA01)
         000073 98   
    3923                      .dwcfi  cfa_offset, 43
    3924                      .dwcfi  save_reg_to_mem, 64, -43
    3925 000074 B566          PSH mmap(BSA23)
         000076 98   
    3926                      .dwcfi  cfa_offset, 44
    3927                      .dwcfi  save_reg_to_mem, 65, -44
    3928 000077 B568          PSH mmap(BSA45)
         000079 98   
    3929                      .dwcfi  cfa_offset, 45
    3930                      .dwcfi  save_reg_to_mem, 66, -45
    3931 00007a B56A          PSH mmap(BSA67)
         00007c 98   
    3932                      .dwcfi  cfa_offset, 46
    3933                      .dwcfi  save_reg_to_mem, 67, -46
    3934 00007d B56C          PSH mmap(BSAC)
         00007f 98   
    3935                      .dwcfi  cfa_offset, 47
    3936                      .dwcfi  save_reg_to_mem, 68, -47
    3937 000080 EC00          AMAR *SP(#0), XAR1
         000082 9E   
    3938 000083 F49A          AND #0xfffe, mmap(SP)
         000085 FFFE 
         000087 98   
    3939 000088 5096          PSH AR1
    3940 00008a 4EFD          AADD #-3, SP
    3941                      .dwcfi  cfa_offset, 49
    3942                      .dwpsn  file "../c5535_bsl_revc/ezdsp5535_v1/c55xx_csl/ccs_v4.0_examples/usb/CSL_USB_DmaExample/csl_u
    3943 00008c 7600          MOV #56, T0 ; |388| 
         00008e 3848 
    3944 000090 AB31          MOV *(#_usbRegisters), AR3 ; |388| 
         000092 0000 
         000094 00!  
TMS320C55x Assembler PC v4.4.1 Sat Sep 29 23:08:40 2018

Tools Copyright (c) 1996-2012 Texas Instruments Incorporated
csl_usb_dma_example.asm                                              PAGE   94

    3945 000095 A96B          MOV port(*AR3(T0)), AR1 ; |388| 
         000097 99   
    3946 000098 ED31          MOV dbl(*(#_pContext)), XAR3
         00009a BF00 
         00009c 010C-
    3947 00009e C96D          MOV AR1, *AR3(#94) ; |388| 
         0000a0 005E 
    3948                      .dwpsn  file "../c5535_bsl_revc/ezdsp5535_v1/c55xx_csl/ccs_v4.0_examples/usb/CSL_USB_DmaExample/csl_u
    3949 0000a2 7600          MOV #57, T0 ; |389| 
         0000a4 3948 
    3950 0000a6 AB31          MOV *(#_usbRegisters), AR3 ; |389| 
         0000a8 0000 
         0000aa 00!  
    3951 0000ab A96B          MOV port(*AR3(T0)), AR1 ; |389| 
         0000ad 99   
    3952 0000ae ED31          MOV dbl(*(#_pContext)), XAR3
         0000b0 BF00 
         0000b2 010C-
    3953 0000b4 C96D          MOV AR1, *AR3(#95) ; |389| 
         0000b6 005F 
    3954                      .dwpsn  file "../c5535_bsl_revc/ezdsp5535_v1/c55xx_csl/ccs_v4.0_examples/usb/CSL_USB_DmaExample/csl_u
    3955 0000b8 7640          MOV #16529, T0 ; |392| 
         0000ba 9148 
    3956 0000bc AB31          MOV *(#_usbRegisters), AR3 ; |392| 
         0000be 0000 
         0000c0 00!  
    3957 0000c1 A96B          MOV port(*AR3(T0)), AR1 ; |392| 
         0000c3 99   
    3958 0000c4 C931          MOV AR1, *(#_queuePend1) ; |392| 
         0000c6 0000 
         0000c8 82-  
    3959                      .dwpsn  file "../c5535_bsl_revc/ezdsp5535_v1/c55xx_csl/ccs_v4.0_examples/usb/CSL_USB_DmaExample/csl_u
    3960 0000c9 ED31          MOV dbl(*(#_pContext)), XAR3
         0000cb BF00 
         0000cd 010C-
    3961 0000cf A96D          MOV *AR3(#94), AR1 ; |395| 
         0000d1 005E 
    3962 0000d3 0409          BCC $C$L74,AR1 == #0 ; |395| 
         0000d5 10   
    3963                                                      ; branchcc occurs ; |395| 
    3964                      .dwpsn  file "../c5535_bsl_revc/ezdsp5535_v1/c55xx_csl/ccs_v4.0_examples/usb/CSL_USB_DmaExample/csl_u
    3965 0000d6 7600          MOV #40, T0 ; |397| 
         0000d8 2848 
    3966 0000da A96D          MOV *AR3(#94), AR1 ; |397| 
         0000dc 005E 
    3967 0000de AB31          MOV *(#_usbRegisters), AR3 ; |397| 
         0000e0 0000 
         0000e2 00!  
    3968 0000e3 C96B          MOV AR1, port(*AR3(T0)) ; |397| 
         0000e5 9A   
    3969 0000e6       $C$L74:    
    3970                      .dwpsn  file "../c5535_bsl_revc/ezdsp5535_v1/c55xx_csl/ccs_v4.0_examples/usb/CSL_USB_DmaExample/csl_u
    3971 0000e6 ED31          MOV dbl(*(#_pContext)), XAR3
         0000e8 BF00 
         0000ea 010C-
TMS320C55x Assembler PC v4.4.1 Sat Sep 29 23:08:40 2018

Tools Copyright (c) 1996-2012 Texas Instruments Incorporated
csl_usb_dma_example.asm                                              PAGE   95

    3972 0000ec A96D          MOV *AR3(#95), AR1 ; |400| 
         0000ee 005F 
    3973 0000f0 0409          BCC $C$L75,AR1 == #0 ; |400| 
         0000f2 10   
    3974                                                      ; branchcc occurs ; |400| 
    3975                      .dwpsn  file "../c5535_bsl_revc/ezdsp5535_v1/c55xx_csl/ccs_v4.0_examples/usb/CSL_USB_DmaExample/csl_u
    3976 0000f3 7600          MOV #41, T0 ; |402| 
         0000f5 2948 
    3977 0000f7 A96D          MOV *AR3(#95), AR1 ; |402| 
         0000f9 005F 
    3978 0000fb AB31          MOV *(#_usbRegisters), AR3 ; |402| 
         0000fd 0000 
         0000ff 00!  
    3979 000100 C96B          MOV AR1, port(*AR3(T0)) ; |402| 
         000102 9A   
    3980 000103       $C$L75:    
    3981                      .dwpsn  file "../c5535_bsl_revc/ezdsp5535_v1/c55xx_csl/ccs_v4.0_examples/usb/CSL_USB_DmaExample/csl_u
    3982 000103 ED31          MOV dbl(*(#_pContext)), XAR3
         000105 BF00 
         000107 010C-
    3983 000109 DC6D          BTST #2, *AR3(#95), TC1 ; |406| 
         00010b 2000 
         00010d 5F   
    3984 00010e 6D74          BCC $C$L78,!TC1 ; |406| 
         000110 009C 
    3985                                                      ; branchcc occurs ; |406| 
    3986                      .dwpsn  file "../c5535_bsl_revc/ezdsp5535_v1/c55xx_csl/ccs_v4.0_examples/usb/CSL_USB_DmaExample/csl_u
    3987 000112 7604          MOV #1038, T0 ; |408| 
         000114 0E48 
    3988 000116 AB31          MOV *(#_usbRegisters), AR3 ; |408| 
         000118 0000 
         00011a 00!  
    3989 00011b DF6B          MOV uns(low_byte(port(*AR3(T0)))), AR1 ; |408| 
         00011d 93   
         00011e 99   
    3990 00011f C96B          MOV AR1, port(*AR3(T0)) ; |408| 
         000121 9A   
    3991                      .dwpsn  file "../c5535_bsl_revc/ezdsp5535_v1/c55xx_csl/ccs_v4.0_examples/usb/CSL_USB_DmaExample/csl_u
    3992 000122 F031          CMP *(#_usbBulkOutEpObj) == #9, TC1 ; |410| 
         000124 0009 
         000126 0000 
         000128 E4-  
    3993 000129 0474          BCC $C$L76,!TC1 ; |410| 
         00012b 29   
    3994                                                      ; branchcc occurs ; |410| 
    3995                      .dwpsn  file "../c5535_bsl_revc/ezdsp5535_v1/c55xx_csl/ccs_v4.0_examples/usb/CSL_USB_DmaExample/csl_u
    3996 00012c AB31          MOV *(#_usbRegisters), AR3 ; |412| 
         00012e 0000 
         000130 00!  
    3997 000131 A96B          MOV port(*AR3(T0)), AR1 ; |412| 
         000133 99   
    3998 000134 7DFF          AND #0xfff0, AR1, AC0 ; |412| 
         000136 F009 
    3999 000138 EC00          BSET @#0, AC0 ; |412| 
         00013a 00   
TMS320C55x Assembler PC v4.4.1 Sat Sep 29 23:08:40 2018

Tools Copyright (c) 1996-2012 Texas Instruments Incorporated
csl_usb_dma_example.asm                                              PAGE   96

    4000 00013b C06B          MOV AC0, port(*AR3(T0)) ; |412| 
         00013d 9A   
    4001                      .dwpsn  file "../c5535_bsl_revc/ezdsp5535_v1/c55xx_csl/ccs_v4.0_examples/usb/CSL_USB_DmaExample/csl_u
    4002 00013e 7604          MOV #1042, T0 ; |414| 
         000140 1248 
    4003 000142 AB31          MOV *(#_usbRegisters), AR3 ; |414| 
         000144 0000 
         000146 00!  
    4004 000147 A96B          MOV port(*AR3(T0)), AR1 ; |414| 
         000149 99   
    4005 00014a EC00          BCLR @#0, AR1 ; |414| 
         00014c 92   
    4006 00014d EC00          BSET @#0, AR1 ; |414| 
         00014f 90   
    4007 000150 C96B          MOV AR1, port(*AR3(T0)) ; |414| 
         000152 9A   
    4008                      .dwpsn  file "../c5535_bsl_revc/ezdsp5535_v1/c55xx_csl/ccs_v4.0_examples/usb/CSL_USB_DmaExample/csl_u
    4009 000153 4A27          B $C$L77  ; |416| 
    4010                                                      ; branch occurs ; |416| 
    4011 000155       $C$L76:    
    4012                      .dwpsn  file "../c5535_bsl_revc/ezdsp5535_v1/c55xx_csl/ccs_v4.0_examples/usb/CSL_USB_DmaExample/csl_u
    4013 000155 AB31          MOV *(#_usbRegisters), AR3 ; |419| 
         000157 0000 
         000159 00!  
    4014 00015a A96B          MOV port(*AR3(T0)), AR1 ; |419| 
         00015c 99   
    4015 00015d 7DFF          AND #0xfff0, AR1, AC0 ; |419| 
         00015f F009 
    4016 000161 EC02          BSET @#1, AC0 ; |419| 
         000163 00   
    4017 000164 C06B          MOV AC0, port(*AR3(T0)) ; |419| 
         000166 9A   
    4018                      .dwpsn  file "../c5535_bsl_revc/ezdsp5535_v1/c55xx_csl/ccs_v4.0_examples/usb/CSL_USB_DmaExample/csl_u
    4019 000167 7604          MOV #1042, T0 ; |421| 
         000169 1248 
    4020 00016b AB31          MOV *(#_usbRegisters), AR3 ; |421| 
         00016d 0000 
         00016f 00!  
    4021 000170 A96B          MOV port(*AR3(T0)), AR1 ; |421| 
         000172 99   
    4022 000173 EC00          BCLR @#0, AR1 ; |421| 
         000175 92   
    4023 000176 EC00          BSET @#0, AR1 ; |421| 
         000178 90   
    4024 000179 C96B          MOV AR1, port(*AR3(T0)) ; |421| 
         00017b 9A   
    4025 00017c       $C$L77:    
    4026                      .dwpsn  file "../c5535_bsl_revc/ezdsp5535_v1/c55xx_csl/ccs_v4.0_examples/usb/CSL_USB_DmaExample/csl_u
    4027 00017c 4617          BSET ST3_SMUL
    4028 00017e 4656          BCLR ST3_SATA
    4029 000180 EC31          AMOV #_linking_ram0, XAR1 ; |425| 
         000182 9E00 
         000184 0000-
    4030 000186 EC31          AMOV #_hpdtx, XAR0 ; |425| 
         000188 8E00 
TMS320C55x Assembler PC v4.4.1 Sat Sep 29 23:08:40 2018

Tools Copyright (c) 1996-2012 Texas Instruments Incorporated
csl_usb_dma_example.asm                                              PAGE   97

         00018a 0000-
    4031              $C$DW$294       .dwtag  DW_TAG_TI_branch
    4032                      .dwattr $C$DW$294, DW_AT_low_pc(0x00)
    4033                      .dwattr $C$DW$294, DW_AT_name("_USB_initQueueManager")
    4034                      .dwattr $C$DW$294, DW_AT_TI_call
    4035 00018c 6C00          CALL #_USB_initQueueManager ; |425| 
         00018e 0124'
    4036                                                      ; call occurs [#_USB_initQueueManager] ; |425| 
    4037                      .dwpsn  file "../c5535_bsl_revc/ezdsp5535_v1/c55xx_csl/ccs_v4.0_examples/usb/CSL_USB_DmaExample/csl_u
    4038              $C$DW$295       .dwtag  DW_TAG_TI_branch
    4039                      .dwattr $C$DW$295, DW_AT_low_pc(0x00)
    4040                      .dwattr $C$DW$295, DW_AT_name("_USB_initDma")
    4041                      .dwattr $C$DW$295, DW_AT_TI_call
    4042 000190 6C00          CALL #_USB_initDma ; |426| 
         000192 0070'
    4043                                                      ; call occurs [#_USB_initDma] ; |426| 
    4044                      .dwpsn  file "../c5535_bsl_revc/ezdsp5535_v1/c55xx_csl/ccs_v4.0_examples/usb/CSL_USB_DmaExample/csl_u
    4045 000194 7600          MOV #64, AC0 ; |427| 
         000196 4008 
    4046 000198 EC31          AMOV #_usbDataBuffer, XAR1 ; |427| 
         00019a 9E00 
         00019c 0000-
    4047 00019e EC31          AMOV #_hpdrx, XAR0 ; |427| 
         0001a0 8E00 
         0001a2 0010-
    4048              $C$DW$296       .dwtag  DW_TAG_TI_branch
    4049                      .dwattr $C$DW$296, DW_AT_low_pc(0x00)
    4050                      .dwattr $C$DW$296, DW_AT_name("_USB_confDmaRx")
    4051                      .dwattr $C$DW$296, DW_AT_TI_call
    4052 0001a4 6C00          CALL #_USB_confDmaRx ; |427| 
         0001a6 06E8'
    4053                                                      ; call occurs [#_USB_confDmaRx] ; |427| 
    4054                      .dwpsn  file "../c5535_bsl_revc/ezdsp5535_v1/c55xx_csl/ccs_v4.0_examples/usb/CSL_USB_DmaExample/csl_u
    4055              $C$DW$297       .dwtag  DW_TAG_TI_branch
    4056                      .dwattr $C$DW$297, DW_AT_low_pc(0x00)
    4057                      .dwattr $C$DW$297, DW_AT_name("_USB_dmaRxStart")
    4058                      .dwattr $C$DW$297, DW_AT_TI_call
    4059              
    4060 0001a8 6C00          CALL #_USB_dmaRxStart ; |428| 
         0001aa 023C'
    4061 0001ac 3D20  ||      MOV #2, AC0 ; |428| 
    4062              
    4063                                                      ; call occurs [#_USB_dmaRxStart] ; |428| 
    4064 0001ae       $C$L78:    
    4065                      .dwpsn  file "../c5535_bsl_revc/ezdsp5535_v1/c55xx_csl/ccs_v4.0_examples/usb/CSL_USB_DmaExample/csl_u
    4066 0001ae ED31          MOV dbl(*(#_pContext)), XAR3
         0001b0 BF00 
         0001b2 010C-
    4067 0001b4 DC6D          BTST #1, *AR3(#95), TC1 ; |432| 
         0001b6 1000 
         0001b8 5F   
    4068 0001b9 0474          BCC $C$L79,!TC1 ; |432| 
         0001bb 3D   
    4069                                                      ; branchcc occurs ; |432| 
    4070                      .dwpsn  file "../c5535_bsl_revc/ezdsp5535_v1/c55xx_csl/ccs_v4.0_examples/usb/CSL_USB_DmaExample/csl_u
TMS320C55x Assembler PC v4.4.1 Sat Sep 29 23:08:40 2018

Tools Copyright (c) 1996-2012 Texas Instruments Incorporated
csl_usb_dma_example.asm                                              PAGE   98

    4071 0001bc 4617          BSET ST3_SMUL
    4072              
    4073 0001be 3C04          MOV #0, T0
    4074 0001c0 4756  ||      BCLR ST3_SATA
    4075              
    4076              $C$DW$298       .dwtag  DW_TAG_TI_branch
    4077                      .dwattr $C$DW$298, DW_AT_low_pc(0x00)
    4078                      .dwattr $C$DW$298, DW_AT_name("_USB_setRemoteWakeup")
    4079                      .dwattr $C$DW$298, DW_AT_TI_call
    4080              
    4081 0001c2 6C00          CALL #_USB_setRemoteWakeup ; |434| 
         0001c4 0000!
    4082 0001c6 3D15  ||      MOV #1, T1
    4083              
    4084                                                      ; call occurs [#_USB_setRemoteWakeup] ; |434| 
    4085                      .dwpsn  file "../c5535_bsl_revc/ezdsp5535_v1/c55xx_csl/ccs_v4.0_examples/usb/CSL_USB_DmaExample/csl_u
    4086 0001c8 3C15          MOV #1, T1
    4087              $C$DW$299       .dwtag  DW_TAG_TI_branch
    4088                      .dwattr $C$DW$299, DW_AT_low_pc(0x00)
    4089                      .dwattr $C$DW$299, DW_AT_name("_USB_issueRemoteWakeup")
    4090                      .dwattr $C$DW$299, DW_AT_TI_call
    4091              
    4092 0001ca 6C00          CALL #_USB_issueRemoteWakeup ; |435| 
         0001cc 0000!
    4093 0001ce 3D04  ||      MOV #0, T0
    4094              
    4095                                                      ; call occurs [#_USB_issueRemoteWakeup] ; |435| 
    4096 0001d0 C431          MOV T0, *(#_status) ; |435| 
         0001d2 0001 
         0001d4 0E-  
    4097                      .dwpsn  file "../c5535_bsl_revc/ezdsp5535_v1/c55xx_csl/ccs_v4.0_examples/usb/CSL_USB_DmaExample/csl_u
    4098              $C$DW$300       .dwtag  DW_TAG_TI_branch
    4099                      .dwattr $C$DW$300, DW_AT_low_pc(0x00)
    4100                      .dwattr $C$DW$300, DW_AT_name("_USB_delay")
    4101                      .dwattr $C$DW$300, DW_AT_TI_call
    4102              
    4103 0001d5 6C00          CALL #_USB_delay ; |437| 
         0001d7 0F60'
    4104 0001d9 3DA0  ||      MOV #10, AC0 ; |437| 
    4105              
    4106                                                      ; call occurs [#_USB_delay] ; |437| 
    4107                      .dwpsn  file "../c5535_bsl_revc/ezdsp5535_v1/c55xx_csl/ccs_v4.0_examples/usb/CSL_USB_DmaExample/csl_u
    4108 0001db 3C04          MOV #0, T0
    4109              $C$DW$301       .dwtag  DW_TAG_TI_branch
    4110                      .dwattr $C$DW$301, DW_AT_low_pc(0x00)
    4111                      .dwattr $C$DW$301, DW_AT_name("_USB_issueRemoteWakeup")
    4112                      .dwattr $C$DW$301, DW_AT_TI_call
    4113              
    4114 0001dd 6C00          CALL #_USB_issueRemoteWakeup ; |438| 
         0001df 0000!
    4115 0001e1 3D05  ||      MOV #0, T1
    4116              
    4117                                                      ; call occurs [#_USB_issueRemoteWakeup] ; |438| 
    4118 0001e3 C431          MOV T0, *(#_status) ; |438| 
         0001e5 0001 
TMS320C55x Assembler PC v4.4.1 Sat Sep 29 23:08:40 2018

Tools Copyright (c) 1996-2012 Texas Instruments Incorporated
csl_usb_dma_example.asm                                              PAGE   99

         0001e7 0E-  
    4119                      .dwpsn  file "../c5535_bsl_revc/ezdsp5535_v1/c55xx_csl/ccs_v4.0_examples/usb/CSL_USB_DmaExample/csl_u
    4120 0001e8 2249          MOV T0, AR1
    4121 0001ea 6689          BCC $C$L79,AR1 == #0 ; |439| 
    4122                                                      ; branchcc occurs ; |439| 
    4123                      .dwpsn  file "../c5535_bsl_revc/ezdsp5535_v1/c55xx_csl/ccs_v4.0_examples/usb/CSL_USB_DmaExample/csl_u
    4124 0001ec EC31          AMOV #$C$FSL8, XAR3 ; |441| 
         0001ee BE00 
         0001f0 0088+
    4125 0001f2 EB00          MOV XAR3, dbl(*SP(#0))
         0001f4 B5   
    4126              $C$DW$302       .dwtag  DW_TAG_TI_branch
    4127                      .dwattr $C$DW$302, DW_AT_low_pc(0x00)
    4128                      .dwattr $C$DW$302, DW_AT_name("_printf")
    4129                      .dwattr $C$DW$302, DW_AT_TI_call
    4130 0001f5 6C00          CALL #_printf ; |441| 
         0001f7 0000!
    4131                                                      ; call occurs [#_printf] ; |441| 
    4132 0001f9       $C$L79:    
    4133                      .dwpsn  file "../c5535_bsl_revc/ezdsp5535_v1/c55xx_csl/ccs_v4.0_examples/usb/CSL_USB_DmaExample/csl_u
    4134 0001f9 ED31          MOV dbl(*(#_pContext)), XAR3
         0001fb BF00 
         0001fd 010C-
    4135 0001ff DC6D          BTST #0, *AR3(#94), TC1 ; |446| 
         000201 0000 
         000203 5E   
    4136 000204 6D74          BCC $C$L102,!TC1 ; |446| 
         000206 03F2 
    4137                                                      ; branchcc occurs ; |446| 
    4138                      .dwpsn  file "../c5535_bsl_revc/ezdsp5535_v1/c55xx_csl/ccs_v4.0_examples/usb/CSL_USB_DmaExample/csl_u
    4139 000208 7604          MOV #1038, T0 ; |448| 
         00020a 0E48 
    4140 00020c AB31          MOV *(#_usbRegisters), AR3 ; |448| 
         00020e 0000 
         000210 00!  
    4141 000211 A96B          MOV port(*AR3(T0)), AR1 ; |448| 
         000213 99   
    4142 000214 C931          MOV AR1, *(#_saveIndex) ; |448| 
         000216 0000 
         000218 83-  
    4143                      .dwpsn  file "../c5535_bsl_revc/ezdsp5535_v1/c55xx_csl/ccs_v4.0_examples/usb/CSL_USB_DmaExample/csl_u
    4144 000219 A96B          MOV port(*AR3(T0)), AR1 ; |449| 
         00021b 99   
    4145 00021c 7DFF          AND #0xfff0, AR1, AC0 ; |449| 
         00021e F009 
    4146 000220 C06B          MOV AC0, port(*AR3(T0)) ; |449| 
         000222 9A   
    4147                      .dwpsn  file "../c5535_bsl_revc/ezdsp5535_v1/c55xx_csl/ccs_v4.0_examples/usb/CSL_USB_DmaExample/csl_u
    4148 000223 4617          BSET ST3_SMUL
    4149 000225 EC31          AMOV #_usbSetup, XAR0 ; |452| 
         000227 8E00 
         000229 0090-
    4150              
    4151 00022b 3C15          MOV #1, T1
    4152 00022d 4756  ||      BCLR ST3_SATA
TMS320C55x Assembler PC v4.4.1 Sat Sep 29 23:08:40 2018

Tools Copyright (c) 1996-2012 Texas Instruments Incorporated
csl_usb_dma_example.asm                                              PAGE  100

    4153              
    4154              $C$DW$303       .dwtag  DW_TAG_TI_branch
    4155                      .dwattr $C$DW$303, DW_AT_low_pc(0x00)
    4156                      .dwattr $C$DW$303, DW_AT_name("_USB_getSetupPacket")
    4157                      .dwattr $C$DW$303, DW_AT_TI_call
    4158              
    4159 00022f 6C00          CALL #_USB_getSetupPacket ; |452| 
         000231 0000!
    4160 000233 3D04  ||      MOV #0, T0
    4161              
    4162                                                      ; call occurs [#_USB_getSetupPacket] ; |452| 
    4163                      .dwpsn  file "../c5535_bsl_revc/ezdsp5535_v1/c55xx_csl/ccs_v4.0_examples/usb/CSL_USB_DmaExample/csl_u
    4164 000235 7604          MOV #1042, T0 ; |454| 
         000237 1248 
    4165 000239 AB31          MOV *(#_usbRegisters), AR3 ; |454| 
         00023b 0000 
         00023d 00!  
    4166 00023e A96B          MOV port(*AR3(T0)), AR1 ; |454| 
         000240 99   
    4167              
    4168 000241 1801          AND #0x0001, AR1, AR1 ; |454| 
         000243 99   
    4169 000244 3D1A  ||      MOV #1, AR2
    4170              
    4171 000246 129C          CMPU AR1 != AR2, TC1 ; |454| 
         000248 A4   
    4172 000249 6D64          BCC $C$L100,TC1 ; |454| 
         00024b 0388 
    4173                                                      ; branchcc occurs ; |454| 
    4174                      .dwpsn  file "../c5535_bsl_revc/ezdsp5535_v1/c55xx_csl/ccs_v4.0_examples/usb/CSL_USB_DmaExample/csl_u
    4175 00024d A96B          MOV port(*AR3(T0)), AR1 ; |458| 
         00024f 99   
    4176 000250 EC0C          BCLR @#6, AR1 ; |458| 
         000252 92   
    4177 000253 EC0C          BSET @#6, AR1 ; |458| 
         000255 90   
    4178 000256 C96B          MOV AR1, port(*AR3(T0)) ; |458| 
         000258 9A   
    4179                      .dwpsn  file "../c5535_bsl_revc/ezdsp5535_v1/c55xx_csl/ccs_v4.0_examples/usb/CSL_USB_DmaExample/csl_u
    4180 000259 0603          B $C$L98  ; |462| 
         00025b 35   
    4181                                                      ; branch occurs ; |462| 
    4182 00025c       $C$L80:    
    4183                      .dwpsn  file "../c5535_bsl_revc/ezdsp5535_v1/c55xx_csl/ccs_v4.0_examples/usb/CSL_USB_DmaExample/csl_u
    4184 00025c DF31          MOV uns(low_byte(*(#(_usbSetup+4)))), AR1 ; |472| 
         00025e 9300 
         000260 0094-
    4185 000262 C931          MOV AR1, *(#_endpt) ; |472| 
         000264 0000 
         000266 8D-  
    4186                      .dwpsn  file "../c5535_bsl_revc/ezdsp5535_v1/c55xx_csl/ccs_v4.0_examples/usb/CSL_USB_DmaExample/csl_u
    4187 000267 2295          MOV AR1, T1
    4188              $C$DW$304       .dwtag  DW_TAG_TI_branch
    4189                      .dwattr $C$DW$304, DW_AT_low_pc(0x00)
    4190                      .dwattr $C$DW$304, DW_AT_name("_USB_epNumToHandle")
TMS320C55x Assembler PC v4.4.1 Sat Sep 29 23:08:40 2018

Tools Copyright (c) 1996-2012 Texas Instruments Incorporated
csl_usb_dma_example.asm                                              PAGE  101

    4191                      .dwattr $C$DW$304, DW_AT_TI_call
    4192              
    4193 000269 6C00          CALL #_USB_epNumToHandle ; |473| 
         00026b 0000!
    4194 00026d 3D04  ||      MOV #0, T0
    4195              
    4196                                                      ; call occurs [#_USB_epNumToHandle] ; |473| 
    4197 00026f EB31          MOV XAR0, dbl(*(#_hEPx))
         000271 8500 
         000273 00BA-
    4198                      .dwpsn  file "../c5535_bsl_revc/ezdsp5535_v1/c55xx_csl/ccs_v4.0_examples/usb/CSL_USB_DmaExample/csl_u
    4199 000275 EC31          AMOV #_status, XAR1 ; |474| 
         000277 9E00 
         000279 010E-
    4200              $C$DW$305       .dwtag  DW_TAG_TI_branch
    4201                      .dwattr $C$DW$305, DW_AT_low_pc(0x00)
    4202                      .dwattr $C$DW$305, DW_AT_name("_USB_getEndptStall")
    4203                      .dwattr $C$DW$305, DW_AT_TI_call
    4204 00027b 6C00          CALL #_USB_getEndptStall ; |474| 
         00027d 0000!
    4205                                                      ; call occurs [#_USB_getEndptStall] ; |474| 
    4206 00027f 0414          BCC $C$L83,T0 != #0 ; |474| 
         000281 2F   
    4207                                                      ; branchcc occurs ; |474| 
    4208                      .dwpsn  file "../c5535_bsl_revc/ezdsp5535_v1/c55xx_csl/ccs_v4.0_examples/usb/CSL_USB_DmaExample/csl_u
    4209 000282 ED31          MOV dbl(*(#_hEPx)), XAR0
         000284 8F00 
         000286 00BA-
    4210              $C$DW$306       .dwtag  DW_TAG_TI_branch
    4211                      .dwattr $C$DW$306, DW_AT_low_pc(0x00)
    4212                      .dwattr $C$DW$306, DW_AT_name("_USB_stallEndpt")
    4213                      .dwattr $C$DW$306, DW_AT_TI_call
    4214 000288 6C00          CALL #_USB_stallEndpt ; |476| 
         00028a 0000!
    4215                                                      ; call occurs [#_USB_stallEndpt] ; |476| 
    4216                      .dwpsn  file "../c5535_bsl_revc/ezdsp5535_v1/c55xx_csl/ccs_v4.0_examples/usb/CSL_USB_DmaExample/csl_u
    4217 00028c 4A23          B $C$L83  ; |478| 
    4218                                                      ; branch occurs ; |478| 
    4219 00028e       $C$L81:    
    4220                      .dwpsn  file "../c5535_bsl_revc/ezdsp5535_v1/c55xx_csl/ccs_v4.0_examples/usb/CSL_USB_DmaExample/csl_u
    4221              $C$DW$307       .dwtag  DW_TAG_TI_branch
    4222                      .dwattr $C$DW$307, DW_AT_low_pc(0x00)
    4223                      .dwattr $C$DW$307, DW_AT_name("_USB_getRemoteWakeupStat")
    4224                      .dwattr $C$DW$307, DW_AT_TI_call
    4225              
    4226 00028e 6C00          CALL #_USB_getRemoteWakeupStat ; |481| 
         000290 0000!
    4227 000292 3D04  ||      MOV #0, T0
    4228              
    4229                                                      ; call occurs [#_USB_getRemoteWakeupStat] ; |481| 
    4230 000294 0414          BCC $C$L83,T0 != #0 ; |481| 
         000296 1A   
    4231                                                      ; branchcc occurs ; |481| 
    4232                      .dwpsn  file "../c5535_bsl_revc/ezdsp5535_v1/c55xx_csl/ccs_v4.0_examples/usb/CSL_USB_DmaExample/csl_u
    4233 000297 3C04          MOV #0, T0
TMS320C55x Assembler PC v4.4.1 Sat Sep 29 23:08:40 2018

Tools Copyright (c) 1996-2012 Texas Instruments Incorporated
csl_usb_dma_example.asm                                              PAGE  102

    4234              $C$DW$308       .dwtag  DW_TAG_TI_branch
    4235                      .dwattr $C$DW$308, DW_AT_low_pc(0x00)
    4236                      .dwattr $C$DW$308, DW_AT_name("_USB_setRemoteWakeup")
    4237                      .dwattr $C$DW$308, DW_AT_TI_call
    4238              
    4239 000299 6C00          CALL #_USB_setRemoteWakeup ; |483| 
         00029b 0000!
    4240 00029d 3D15  ||      MOV #1, T1
    4241              
    4242                                                      ; call occurs [#_USB_setRemoteWakeup] ; |483| 
    4243                      .dwpsn  file "../c5535_bsl_revc/ezdsp5535_v1/c55xx_csl/ccs_v4.0_examples/usb/CSL_USB_DmaExample/csl_u
    4244 00029f 4A10          B $C$L83  ; |485| 
    4245                                                      ; branch occurs ; |485| 
    4246 0002a1       $C$L82:    
    4247                      .dwpsn  file "../c5535_bsl_revc/ezdsp5535_v1/c55xx_csl/ccs_v4.0_examples/usb/CSL_USB_DmaExample/csl_u
    4248 0002a1 A931          MOV *(#(_usbSetup+3)), AR1 ; |466| 
         0002a3 0000 
         0002a5 93-  
    4249 0002a6 0409          BCC $C$L80,AR1 == #0 ; |466| 
         0002a8 B3   
    4250                                                      ; branchcc occurs ; |466| 
    4251 0002a9 3C1A          MOV #1, AR2
    4252 0002ab 1290          CMPU AR1 == AR2, TC1 ; |466| 
         0002ad A4   
    4253 0002ae 0464          BCC $C$L81,TC1 ; |466| 
         0002b0 DD   
    4254                                                      ; branchcc occurs ; |466| 
    4255 0002b1       $C$L83:    
    4256                      .dwpsn  file "../c5535_bsl_revc/ezdsp5535_v1/c55xx_csl/ccs_v4.0_examples/usb/CSL_USB_DmaExample/csl_u
    4257 0002b1 7604          MOV #1042, T0 ; |491| 
         0002b3 1248 
    4258 0002b5 AB31          MOV *(#_usbRegisters), AR3 ; |491| 
         0002b7 0000 
         0002b9 00!  
    4259 0002ba A96B          MOV port(*AR3(T0)), AR1 ; |491| 
         0002bc 99   
    4260 0002bd EC0C          BCLR @#6, AR1 ; |491| 
         0002bf 92   
    4261 0002c0 EC0C          BSET @#6, AR1 ; |491| 
         0002c2 90   
    4262 0002c3 C96B          MOV AR1, port(*AR3(T0)) ; |491| 
         0002c5 9A   
    4263                      .dwpsn  file "../c5535_bsl_revc/ezdsp5535_v1/c55xx_csl/ccs_v4.0_examples/usb/CSL_USB_DmaExample/csl_u
    4264 0002c6 AB31          MOV *(#_usbRegisters), AR3 ; |493| 
         0002c8 0000 
         0002ca 00!  
    4265 0002cb A96B          MOV port(*AR3(T0)), AR1 ; |493| 
         0002cd 99   
    4266 0002ce EC06          BCLR @#3, AR1 ; |493| 
         0002d0 92   
    4267 0002d1 EC06          BSET @#3, AR1 ; |493| 
         0002d3 90   
    4268 0002d4 C96B          MOV AR1, port(*AR3(T0)) ; |493| 
         0002d6 9A   
    4269                      .dwpsn  file "../c5535_bsl_revc/ezdsp5535_v1/c55xx_csl/ccs_v4.0_examples/usb/CSL_USB_DmaExample/csl_u
TMS320C55x Assembler PC v4.4.1 Sat Sep 29 23:08:40 2018

Tools Copyright (c) 1996-2012 Texas Instruments Incorporated
csl_usb_dma_example.asm                                              PAGE  103

    4270 0002d7 0603          B $C$L101 ; |495| 
         0002d9 0F   
    4271                                                      ; branch occurs ; |495| 
    4272 0002da       $C$L84:    
    4273                      .dwpsn  file "../c5535_bsl_revc/ezdsp5535_v1/c55xx_csl/ccs_v4.0_examples/usb/CSL_USB_DmaExample/csl_u
    4274 0002da DF31          MOV uns(low_byte(*(#(_usbSetup+4)))), AR1 ; |501| 
         0002dc 9300 
         0002de 0094-
    4275 0002e0 C931          MOV AR1, *(#_endpt) ; |501| 
         0002e2 0000 
         0002e4 8D-  
    4276                      .dwpsn  file "../c5535_bsl_revc/ezdsp5535_v1/c55xx_csl/ccs_v4.0_examples/usb/CSL_USB_DmaExample/csl_u
    4277 0002e5 2295          MOV AR1, T1
    4278              $C$DW$309       .dwtag  DW_TAG_TI_branch
    4279                      .dwattr $C$DW$309, DW_AT_low_pc(0x00)
    4280                      .dwattr $C$DW$309, DW_AT_name("_USB_epNumToHandle")
    4281                      .dwattr $C$DW$309, DW_AT_TI_call
    4282              
    4283 0002e7 6C00          CALL #_USB_epNumToHandle ; |502| 
         0002e9 0000!
    4284 0002eb 3D04  ||      MOV #0, T0
    4285              
    4286                                                      ; call occurs [#_USB_epNumToHandle] ; |502| 
    4287 0002ed EB31          MOV XAR0, dbl(*(#_hEPx))
         0002ef 8500 
         0002f1 00BA-
    4288                      .dwpsn  file "../c5535_bsl_revc/ezdsp5535_v1/c55xx_csl/ccs_v4.0_examples/usb/CSL_USB_DmaExample/csl_u
    4289 0002f3 EC31          AMOV #_status, XAR1 ; |503| 
         0002f5 9E00 
         0002f7 010E-
    4290              $C$DW$310       .dwtag  DW_TAG_TI_branch
    4291                      .dwattr $C$DW$310, DW_AT_low_pc(0x00)
    4292                      .dwattr $C$DW$310, DW_AT_name("_USB_getEndptStall")
    4293                      .dwattr $C$DW$310, DW_AT_TI_call
    4294 0002f9 6C00          CALL #_USB_getEndptStall ; |503| 
         0002fb 0000!
    4295                                                      ; call occurs [#_USB_getEndptStall] ; |503| 
    4296 0002fd 6D04          BCC $C$L101,T0 == #0 ; |503| 
         0002ff 02E8 
    4297                                                      ; branchcc occurs ; |503| 
    4298                      .dwpsn  file "../c5535_bsl_revc/ezdsp5535_v1/c55xx_csl/ccs_v4.0_examples/usb/CSL_USB_DmaExample/csl_u
    4299 000301 ED31          MOV dbl(*(#_hEPx)), XAR0
         000303 8F00 
         000305 00BA-
    4300              $C$DW$311       .dwtag  DW_TAG_TI_branch
    4301                      .dwattr $C$DW$311, DW_AT_low_pc(0x00)
    4302                      .dwattr $C$DW$311, DW_AT_name("_USB_clearEndptStall")
    4303                      .dwattr $C$DW$311, DW_AT_TI_call
    4304 000307 6C00          CALL #_USB_clearEndptStall ; |505| 
         000309 0000!
    4305                                                      ; call occurs [#_USB_clearEndptStall] ; |505| 
    4306                      .dwpsn  file "../c5535_bsl_revc/ezdsp5535_v1/c55xx_csl/ccs_v4.0_examples/usb/CSL_USB_DmaExample/csl_u
    4307 00030b 0602          B $C$L101 ; |507| 
         00030d DB   
    4308                                                      ; branch occurs ; |507| 
TMS320C55x Assembler PC v4.4.1 Sat Sep 29 23:08:40 2018

Tools Copyright (c) 1996-2012 Texas Instruments Incorporated
csl_usb_dma_example.asm                                              PAGE  104

    4309 00030e       $C$L85:    
    4310                      .dwpsn  file "../c5535_bsl_revc/ezdsp5535_v1/c55xx_csl/ccs_v4.0_examples/usb/CSL_USB_DmaExample/csl_u
    4311              $C$DW$312       .dwtag  DW_TAG_TI_branch
    4312                      .dwattr $C$DW$312, DW_AT_low_pc(0x00)
    4313                      .dwattr $C$DW$312, DW_AT_name("_USB_getRemoteWakeupStat")
    4314                      .dwattr $C$DW$312, DW_AT_TI_call
    4315              
    4316 00030e 6C00          CALL #_USB_getRemoteWakeupStat ; |510| 
         000310 0000!
    4317 000312 3D04  ||      MOV #0, T0
    4318              
    4319                                                      ; call occurs [#_USB_getRemoteWakeupStat] ; |510| 
    4320 000314 6D04          BCC $C$L101,T0 == #0 ; |510| 
         000316 02D1 
    4321                                                      ; branchcc occurs ; |510| 
    4322                      .dwpsn  file "../c5535_bsl_revc/ezdsp5535_v1/c55xx_csl/ccs_v4.0_examples/usb/CSL_USB_DmaExample/csl_u
    4323 000318 3C04          MOV #0, T0
    4324              $C$DW$313       .dwtag  DW_TAG_TI_branch
    4325                      .dwattr $C$DW$313, DW_AT_low_pc(0x00)
    4326                      .dwattr $C$DW$313, DW_AT_name("_USB_setRemoteWakeup")
    4327                      .dwattr $C$DW$313, DW_AT_TI_call
    4328              
    4329 00031a 6C00          CALL #_USB_setRemoteWakeup ; |512| 
         00031c 0000!
    4330 00031e 3D05  ||      MOV #0, T1
    4331              
    4332                                                      ; call occurs [#_USB_setRemoteWakeup] ; |512| 
    4333                      .dwpsn  file "../c5535_bsl_revc/ezdsp5535_v1/c55xx_csl/ccs_v4.0_examples/usb/CSL_USB_DmaExample/csl_u
    4334 000320 0602          B $C$L101 ; |515| 
         000322 C6   
    4335                                                      ; branch occurs ; |515| 
    4336 000323       $C$L86:    
    4337                      .dwpsn  file "../c5535_bsl_revc/ezdsp5535_v1/c55xx_csl/ccs_v4.0_examples/usb/CSL_USB_DmaExample/csl_u
    4338 000323 A931          MOV *(#(_usbSetup+3)), AR1 ; |498| 
         000325 0000 
         000327 93-  
    4339 000328 0409          BCC $C$L84,AR1 == #0 ; |498| 
         00032a AF   
    4340                                                      ; branchcc occurs ; |498| 
    4341 00032b 1290          CMPU AR1 == AR2, TC1 ; |498| 
         00032d A4   
    4342 00032e 0464          BCC $C$L85,TC1 ; |498| 
         000330 DD   
    4343                                                      ; branchcc occurs ; |498| 
    4344 000331 0602          B $C$L101 ; |498| 
         000333 B5   
    4345                                                      ; branch occurs ; |498| 
    4346 000334       $C$L87:    
    4347                      .dwpsn  file "../c5535_bsl_revc/ezdsp5535_v1/c55xx_csl/ccs_v4.0_examples/usb/CSL_USB_DmaExample/csl_u
    4348 000334 DF31          MOV uns(low_byte(*(#(_usbSetup+4)))), AR1 ; |524| 
         000336 9300 
         000338 0094-
    4349 00033a C931          MOV AR1, *(#_endpt) ; |524| 
         00033c 0000 
         00033e 8D-  
TMS320C55x Assembler PC v4.4.1 Sat Sep 29 23:08:40 2018

Tools Copyright (c) 1996-2012 Texas Instruments Incorporated
csl_usb_dma_example.asm                                              PAGE  105

    4350                      .dwpsn  file "../c5535_bsl_revc/ezdsp5535_v1/c55xx_csl/ccs_v4.0_examples/usb/CSL_USB_DmaExample/csl_u
    4351 00033f 3C04          MOV #0, T0
    4352              $C$DW$314       .dwtag  DW_TAG_TI_branch
    4353                      .dwattr $C$DW$314, DW_AT_low_pc(0x00)
    4354                      .dwattr $C$DW$314, DW_AT_name("_USB_epNumToHandle")
    4355                      .dwattr $C$DW$314, DW_AT_TI_call
    4356              
    4357 000341 6C00          CALL #_USB_epNumToHandle ; |525| 
         000343 0000!
    4358 000345 2395  ||      MOV AR1, T1
    4359              
    4360                                                      ; call occurs [#_USB_epNumToHandle] ; |525| 
    4361 000347 EB31          MOV XAR0, dbl(*(#_hEPx))
         000349 8500 
         00034b 00BA-
    4362                      .dwpsn  file "../c5535_bsl_revc/ezdsp5535_v1/c55xx_csl/ccs_v4.0_examples/usb/CSL_USB_DmaExample/csl_u
    4363 00034d 3C04          MOV #0, T0
    4364 00034f EC31          AMOV #0, XAR1 ; |526| 
         000351 9E00 
         000353 0000 
    4365              $C$DW$315       .dwtag  DW_TAG_TI_branch
    4366                      .dwattr $C$DW$315, DW_AT_low_pc(0x00)
    4367                      .dwattr $C$DW$315, DW_AT_name("_USB_postTransaction")
    4368                      .dwattr $C$DW$315, DW_AT_TI_call
    4369              
    4370 000355 6C00          CALL #_USB_postTransaction ; |526| 
         000357 0000!
    4371 000359 3D05  ||      MOV #0, T1
    4372              
    4373                                                      ; call occurs [#_USB_postTransaction] ; |526| 
    4374                      .dwpsn  file "../c5535_bsl_revc/ezdsp5535_v1/c55xx_csl/ccs_v4.0_examples/usb/CSL_USB_DmaExample/csl_u
    4375 00035b 7604          MOV #1042, T0 ; |530| 
         00035d 1248 
    4376 00035f AB31          MOV *(#_usbRegisters), AR3 ; |530| 
         000361 0000 
         000363 00!  
    4377 000364 A96B          MOV port(*AR3(T0)), AR1 ; |530| 
         000366 99   
    4378 000367 EC0C          BCLR @#6, AR1 ; |530| 
         000369 92   
    4379 00036a EC0C          BSET @#6, AR1 ; |530| 
         00036c 90   
    4380 00036d C96B          MOV AR1, port(*AR3(T0)) ; |530| 
         00036f 9A   
    4381                      .dwpsn  file "../c5535_bsl_revc/ezdsp5535_v1/c55xx_csl/ccs_v4.0_examples/usb/CSL_USB_DmaExample/csl_u
    4382 000370 AB31          MOV *(#_usbRegisters), AR3 ; |532| 
         000372 0000 
         000374 00!  
    4383 000375 A96B          MOV port(*AR3(T0)), AR1 ; |532| 
         000377 99   
    4384 000378 EC06          BCLR @#3, AR1 ; |532| 
         00037a 92   
    4385 00037b EC06          BSET @#3, AR1 ; |532| 
         00037d 90   
    4386 00037e C96B          MOV AR1, port(*AR3(T0)) ; |532| 
TMS320C55x Assembler PC v4.4.1 Sat Sep 29 23:08:40 2018

Tools Copyright (c) 1996-2012 Texas Instruments Incorporated
csl_usb_dma_example.asm                                              PAGE  106

         000380 9A   
    4387                      .dwpsn  file "../c5535_bsl_revc/ezdsp5535_v1/c55xx_csl/ccs_v4.0_examples/usb/CSL_USB_DmaExample/csl_u
    4388 000381 0602          B $C$L101 ; |534| 
         000383 65   
    4389                                                      ; branch occurs ; |534| 
    4390 000384       $C$L88:    
    4391                      .dwpsn  file "../c5535_bsl_revc/ezdsp5535_v1/c55xx_csl/ccs_v4.0_examples/usb/CSL_USB_DmaExample/csl_u
    4392 000384 EC31          AMOV #_deviceDesc, XAR3 ; |541| 
         000386 BE00 
         000388 0000-
    4393 00038a EB31          MOV XAR3, dbl(*(#_deviceDescPtr))
         00038c B500 
         00038e 0084-
    4394                      .dwpsn  file "../c5535_bsl_revc/ezdsp5535_v1/c55xx_csl/ccs_v4.0_examples/usb/CSL_USB_DmaExample/csl_u
    4395 000390 ED31          MOV dbl(*(#(_hEpObjArray+2))), XAR0
         000392 8F00 
         000394 00AC-
    4396 000396 DF31          MOV uns(low_byte(*(#_deviceDesc))), T0 ; |542| 
         000398 4300 
         00039a 0000-
    4397 00039c 7600          MOV #128, T1 ; |542| 
         00039e 8058 
    4398 0003a0 ED31          MOV dbl(*(#_deviceDescPtr)), XAR1
         0003a2 9F00 
         0003a4 0084-
    4399              $C$DW$316       .dwtag  DW_TAG_TI_branch
    4400                      .dwattr $C$DW$316, DW_AT_low_pc(0x00)
    4401                      .dwattr $C$DW$316, DW_AT_name("_USB_postTransaction")
    4402                      .dwattr $C$DW$316, DW_AT_TI_call
    4403 0003a6 6C00          CALL #_USB_postTransaction ; |542| 
         0003a8 0000!
    4404                                                      ; call occurs [#_USB_postTransaction] ; |542| 
    4405 0003aa C431          MOV T0, *(#_status) ; |542| 
         0003ac 0001 
         0003ae 0E-  
    4406                      .dwpsn  file "../c5535_bsl_revc/ezdsp5535_v1/c55xx_csl/ccs_v4.0_examples/usb/CSL_USB_DmaExample/csl_u
    4407 0003af 0601          B $C$L96  ; |545| 
         0003b1 63   
    4408                                                      ; branch occurs ; |545| 
    4409 0003b2       $C$L89:    
    4410                      .dwpsn  file "../c5535_bsl_revc/ezdsp5535_v1/c55xx_csl/ccs_v4.0_examples/usb/CSL_USB_DmaExample/csl_u
    4411 0003b2 F031          CMP *(#(_usbSetup+5)) == #9, TC1 ; |548| 
         0003b4 0009 
         0003b6 0000 
         0003b8 95-  
    4412 0003b9 0474          BCC $C$L90,!TC1 ; |548| 
         0003bb 2A   
    4413                                                      ; branchcc occurs ; |548| 
    4414                      .dwpsn  file "../c5535_bsl_revc/ezdsp5535_v1/c55xx_csl/ccs_v4.0_examples/usb/CSL_USB_DmaExample/csl_u
    4415 0003bc EC31          AMOV #_cfgDesc, XAR3 ; |550| 
         0003be BE00 
         0003c0 0009-
    4416 0003c2 EB31          MOV XAR3, dbl(*(#_cfgDescPtr))
         0003c4 B500 
         0003c6 0086-
TMS320C55x Assembler PC v4.4.1 Sat Sep 29 23:08:40 2018

Tools Copyright (c) 1996-2012 Texas Instruments Incorporated
csl_usb_dma_example.asm                                              PAGE  107

    4417                      .dwpsn  file "../c5535_bsl_revc/ezdsp5535_v1/c55xx_csl/ccs_v4.0_examples/usb/CSL_USB_DmaExample/csl_u
    4418 0003c8 ED31          MOV dbl(*(#(_hEpObjArray+2))), XAR0
         0003ca 8F00 
         0003cc 00AC-
    4419 0003ce 7600          MOV #128, T1 ; |551| 
         0003d0 8058 
    4420 0003d2 ED31          MOV dbl(*(#_cfgDescPtr)), XAR1
         0003d4 9F00 
         0003d6 0086-
    4421              $C$DW$317       .dwtag  DW_TAG_TI_branch
    4422                      .dwattr $C$DW$317, DW_AT_low_pc(0x00)
    4423                      .dwattr $C$DW$317, DW_AT_name("_USB_postTransaction")
    4424                      .dwattr $C$DW$317, DW_AT_TI_call
    4425              
    4426 0003d8 6C00          CALL #_USB_postTransaction ; |551| 
         0003da 0000!
    4427 0003dc 3D94  ||      MOV #9, T0
    4428              
    4429                                                      ; call occurs [#_USB_postTransaction] ; |551| 
    4430 0003de C431          MOV T0, *(#_status) ; |551| 
         0003e0 0001 
         0003e2 0E-  
    4431                      .dwpsn  file "../c5535_bsl_revc/ezdsp5535_v1/c55xx_csl/ccs_v4.0_examples/usb/CSL_USB_DmaExample/csl_u
    4432 0003e3 0601          B $C$L96  ; |554| 
         0003e5 2F   
    4433                                                      ; branch occurs ; |554| 
    4434 0003e6       $C$L90:    
    4435                      .dwpsn  file "../c5535_bsl_revc/ezdsp5535_v1/c55xx_csl/ccs_v4.0_examples/usb/CSL_USB_DmaExample/csl_u
    4436 0003e6 EC31          AMOV #_cfgDesc, XAR3 ; |557| 
         0003e8 BE00 
         0003ea 0009-
    4437 0003ec EB31          MOV XAR3, dbl(*(#_cfgDescPtr))
         0003ee B500 
         0003f0 0086-
    4438                      .dwpsn  file "../c5535_bsl_revc/ezdsp5535_v1/c55xx_csl/ccs_v4.0_examples/usb/CSL_USB_DmaExample/csl_u
    4439 0003f2 ED31          MOV dbl(*(#(_hEpObjArray+2))), XAR0
         0003f4 8F00 
         0003f6 00AC-
    4440 0003f8 A431          MOV *(#(_cfgDesc+1)), T0 ; |558| 
         0003fa 0000 
         0003fc 0A-  
    4441 0003fd 7600          MOV #128, T1 ; |558| 
         0003ff 8058 
    4442 000401 ED31          MOV dbl(*(#_cfgDescPtr)), XAR1
         000403 9F00 
         000405 0086-
    4443              $C$DW$318       .dwtag  DW_TAG_TI_branch
    4444                      .dwattr $C$DW$318, DW_AT_low_pc(0x00)
    4445                      .dwattr $C$DW$318, DW_AT_name("_USB_postTransaction")
    4446                      .dwattr $C$DW$318, DW_AT_TI_call
    4447 000407 6C00          CALL #_USB_postTransaction ; |558| 
         000409 0000!
    4448                                                      ; call occurs [#_USB_postTransaction] ; |558| 
    4449 00040b C431          MOV T0, *(#_status) ; |558| 
         00040d 0001 
TMS320C55x Assembler PC v4.4.1 Sat Sep 29 23:08:40 2018

Tools Copyright (c) 1996-2012 Texas Instruments Incorporated
csl_usb_dma_example.asm                                              PAGE  108

         00040f 0E-  
    4450                      .dwpsn  file "../c5535_bsl_revc/ezdsp5535_v1/c55xx_csl/ccs_v4.0_examples/usb/CSL_USB_DmaExample/csl_u
    4451 000410 0601          B $C$L96  ; |563| 
         000412 02   
    4452                                                      ; branch occurs ; |563| 
    4453 000413       $C$L91:    
    4454                      .dwpsn  file "../c5535_bsl_revc/ezdsp5535_v1/c55xx_csl/ccs_v4.0_examples/usb/CSL_USB_DmaExample/csl_u
    4455 000413 DF31          MOV uns(low_byte(*(#(_usbSetup+3)))), AR1 ; |566| 
         000415 9300 
         000417 0093-
    4456 000419 0419          BCC $C$L92,AR1 != #0 ; |566| 
         00041b 2B   
    4457                                                      ; branchcc occurs ; |566| 
    4458                      .dwpsn  file "../c5535_bsl_revc/ezdsp5535_v1/c55xx_csl/ccs_v4.0_examples/usb/CSL_USB_DmaExample/csl_u
    4459 00041c EC31          AMOV #_strDesc, XAR3 ; |568| 
         00041e BE00 
         000420 0031-
    4460 000422 EB31          MOV XAR3, dbl(*(#_strDescPtr))
         000424 B500 
         000426 0088-
    4461                      .dwpsn  file "../c5535_bsl_revc/ezdsp5535_v1/c55xx_csl/ccs_v4.0_examples/usb/CSL_USB_DmaExample/csl_u
    4462 000428 ED31          MOV dbl(*(#(_hEpObjArray+2))), XAR0
         00042a 8F00 
         00042c 00AC-
    4463 00042e DF31          MOV uns(low_byte(*(#_strDesc))), T0 ; |569| 
         000430 4300 
         000432 0031-
    4464 000434 7600          MOV #128, T1 ; |569| 
         000436 8058 
    4465 000438 ED31          MOV dbl(*(#_strDescPtr)), XAR1
         00043a 9F00 
         00043c 0088-
    4466              $C$DW$319       .dwtag  DW_TAG_TI_branch
    4467                      .dwattr $C$DW$319, DW_AT_low_pc(0x00)
    4468                      .dwattr $C$DW$319, DW_AT_name("_USB_postTransaction")
    4469                      .dwattr $C$DW$319, DW_AT_TI_call
    4470 00043e 6C00          CALL #_USB_postTransaction ; |569| 
         000440 0000!
    4471                                                      ; call occurs [#_USB_postTransaction] ; |569| 
    4472 000442 C431          MOV T0, *(#_status) ; |569| 
         000444 0001 
         000446 0E-  
    4473 000447       $C$L92:    
    4474                      .dwpsn  file "../c5535_bsl_revc/ezdsp5535_v1/c55xx_csl/ccs_v4.0_examples/usb/CSL_USB_DmaExample/csl_u
    4475 000447 3C1A          MOV #1, AR2
    4476 000449 DF31          MOV uns(low_byte(*(#(_usbSetup+3)))), AR1 ; |573| 
         00044b 9300 
         00044d 0093-
    4477 00044f 129C          CMPU AR1 != AR2, TC1 ; |573| 
         000451 A4   
    4478 000452 0464          BCC $C$L93,TC1 ; |573| 
         000454 2B   
    4479                                                      ; branchcc occurs ; |573| 
    4480                      .dwpsn  file "../c5535_bsl_revc/ezdsp5535_v1/c55xx_csl/ccs_v4.0_examples/usb/CSL_USB_DmaExample/csl_u
    4481 000455 EC31          AMOV #(_strDesc+20), XAR3 ; |575| 
TMS320C55x Assembler PC v4.4.1 Sat Sep 29 23:08:40 2018

Tools Copyright (c) 1996-2012 Texas Instruments Incorporated
csl_usb_dma_example.asm                                              PAGE  109

         000457 BE00 
         000459 0045-
    4482 00045b EB31          MOV XAR3, dbl(*(#_strDescPtr))
         00045d B500 
         00045f 0088-
    4483                      .dwpsn  file "../c5535_bsl_revc/ezdsp5535_v1/c55xx_csl/ccs_v4.0_examples/usb/CSL_USB_DmaExample/csl_u
    4484 000461 ED31          MOV dbl(*(#(_hEpObjArray+2))), XAR0
         000463 8F00 
         000465 00AC-
    4485 000467 DF31          MOV uns(low_byte(*(#(_strDesc+20)))), T0 ; |576| 
         000469 4300 
         00046b 0045-
    4486 00046d 7600          MOV #128, T1 ; |576| 
         00046f 8058 
    4487 000471 ED31          MOV dbl(*(#_strDescPtr)), XAR1
         000473 9F00 
         000475 0088-
    4488              $C$DW$320       .dwtag  DW_TAG_TI_branch
    4489                      .dwattr $C$DW$320, DW_AT_low_pc(0x00)
    4490                      .dwattr $C$DW$320, DW_AT_name("_USB_postTransaction")
    4491                      .dwattr $C$DW$320, DW_AT_TI_call
    4492 000477 6C00          CALL #_USB_postTransaction ; |576| 
         000479 0000!
    4493                                                      ; call occurs [#_USB_postTransaction] ; |576| 
    4494 00047b C431          MOV T0, *(#_status) ; |576| 
         00047d 0001 
         00047f 0E-  
    4495 000480       $C$L93:    
    4496                      .dwpsn  file "../c5535_bsl_revc/ezdsp5535_v1/c55xx_csl/ccs_v4.0_examples/usb/CSL_USB_DmaExample/csl_u
    4497 000480 3C2A          MOV #2, AR2
    4498 000482 DF31          MOV uns(low_byte(*(#(_usbSetup+3)))), AR1 ; |580| 
         000484 9300 
         000486 0093-
    4499 000488 129C          CMPU AR1 != AR2, TC1 ; |580| 
         00048a A4   
    4500 00048b 0464          BCC $C$L94,TC1 ; |580| 
         00048d 2B   
    4501                                                      ; branchcc occurs ; |580| 
    4502                      .dwpsn  file "../c5535_bsl_revc/ezdsp5535_v1/c55xx_csl/ccs_v4.0_examples/usb/CSL_USB_DmaExample/csl_u
    4503 00048e EC31          AMOV #(_strDesc+40), XAR3 ; |582| 
         000490 BE00 
         000492 0059-
    4504 000494 EB31          MOV XAR3, dbl(*(#_strDescPtr))
         000496 B500 
         000498 0088-
    4505                      .dwpsn  file "../c5535_bsl_revc/ezdsp5535_v1/c55xx_csl/ccs_v4.0_examples/usb/CSL_USB_DmaExample/csl_u
    4506 00049a ED31          MOV dbl(*(#(_hEpObjArray+2))), XAR0
         00049c 8F00 
         00049e 00AC-
    4507 0004a0 DF31          MOV uns(low_byte(*(#(_strDesc+40)))), T0 ; |583| 
         0004a2 4300 
         0004a4 0059-
    4508 0004a6 7600          MOV #128, T1 ; |583| 
         0004a8 8058 
    4509 0004aa ED31          MOV dbl(*(#_strDescPtr)), XAR1
TMS320C55x Assembler PC v4.4.1 Sat Sep 29 23:08:40 2018

Tools Copyright (c) 1996-2012 Texas Instruments Incorporated
csl_usb_dma_example.asm                                              PAGE  110

         0004ac 9F00 
         0004ae 0088-
    4510              $C$DW$321       .dwtag  DW_TAG_TI_branch
    4511                      .dwattr $C$DW$321, DW_AT_low_pc(0x00)
    4512                      .dwattr $C$DW$321, DW_AT_name("_USB_postTransaction")
    4513                      .dwattr $C$DW$321, DW_AT_TI_call
    4514 0004b0 6C00          CALL #_USB_postTransaction ; |583| 
         0004b2 0000!
    4515                                                      ; call occurs [#_USB_postTransaction] ; |583| 
    4516 0004b4 C431          MOV T0, *(#_status) ; |583| 
         0004b6 0001 
         0004b8 0E-  
    4517 0004b9       $C$L94:    
    4518                      .dwpsn  file "../c5535_bsl_revc/ezdsp5535_v1/c55xx_csl/ccs_v4.0_examples/usb/CSL_USB_DmaExample/csl_u
    4519 0004b9 3C3A          MOV #3, AR2
    4520 0004bb DF31          MOV uns(low_byte(*(#(_usbSetup+3)))), AR1 ; |587| 
         0004bd 9300 
         0004bf 0093-
    4521 0004c1 129C          CMPU AR1 != AR2, TC1 ; |587| 
         0004c3 A4   
    4522 0004c4 0464          BCC $C$L96,TC1 ; |587| 
         0004c6 4E   
    4523                                                      ; branchcc occurs ; |587| 
    4524                      .dwpsn  file "../c5535_bsl_revc/ezdsp5535_v1/c55xx_csl/ccs_v4.0_examples/usb/CSL_USB_DmaExample/csl_u
    4525 0004c7 EC31          AMOV #(_strDesc+60), XAR3 ; |589| 
         0004c9 BE00 
         0004cb 006D-
    4526 0004cd EB31          MOV XAR3, dbl(*(#_strDescPtr))
         0004cf B500 
         0004d1 0088-
    4527                      .dwpsn  file "../c5535_bsl_revc/ezdsp5535_v1/c55xx_csl/ccs_v4.0_examples/usb/CSL_USB_DmaExample/csl_u
    4528 0004d3 ED31          MOV dbl(*(#(_hEpObjArray+2))), XAR0
         0004d5 8F00 
         0004d7 00AC-
    4529 0004d9 DF31          MOV uns(low_byte(*(#(_strDesc+60)))), T0 ; |590| 
         0004db 4300 
         0004dd 006D-
    4530 0004df 7600          MOV #128, T1 ; |590| 
         0004e1 8058 
    4531 0004e3 ED31          MOV dbl(*(#_strDescPtr)), XAR1
         0004e5 9F00 
         0004e7 0088-
    4532              $C$DW$322       .dwtag  DW_TAG_TI_branch
    4533                      .dwattr $C$DW$322, DW_AT_low_pc(0x00)
    4534                      .dwattr $C$DW$322, DW_AT_name("_USB_postTransaction")
    4535                      .dwattr $C$DW$322, DW_AT_TI_call
    4536 0004e9 6C00          CALL #_USB_postTransaction ; |590| 
         0004eb 0000!
    4537                                                      ; call occurs [#_USB_postTransaction] ; |590| 
    4538 0004ed C431          MOV T0, *(#_status) ; |590| 
         0004ef 0001 
         0004f1 0E-  
    4539                      .dwpsn  file "../c5535_bsl_revc/ezdsp5535_v1/c55xx_csl/ccs_v4.0_examples/usb/CSL_USB_DmaExample/csl_u
    4540 0004f2 4A21          B $C$L96  ; |594| 
    4541                                                      ; branch occurs ; |594| 
TMS320C55x Assembler PC v4.4.1 Sat Sep 29 23:08:40 2018

Tools Copyright (c) 1996-2012 Texas Instruments Incorporated
csl_usb_dma_example.asm                                              PAGE  111

    4542 0004f4       $C$L95:    
    4543                      .dwpsn  file "../c5535_bsl_revc/ezdsp5535_v1/c55xx_csl/ccs_v4.0_examples/usb/CSL_USB_DmaExample/csl_u
    4544 0004f4 3C1A          MOV #1, AR2
    4545 0004f6 DF31          MOV uns(high_byte(*(#(_usbSetup+3)))), AR1 ; |538| 
         0004f8 9100 
         0004fa 0093-
    4546 0004fc 1290          CMPU AR1 == AR2, TC1 ; |538| 
         0004fe A4   
    4547 0004ff 6D64          BCC $C$L88,TC1 ; |538| 
         000501 FE81 
    4548                                                      ; branchcc occurs ; |538| 
    4549 000503 3C2A          MOV #2, AR2
    4550 000505 1290          CMPU AR1 == AR2, TC1 ; |538| 
         000507 A4   
    4551 000508 6D64          BCC $C$L89,TC1 ; |538| 
         00050a FEA6 
    4552                                                      ; branchcc occurs ; |538| 
    4553 00050c 3C3A          MOV #3, AR2
    4554 00050e 1290          CMPU AR1 == AR2, TC1 ; |538| 
         000510 A4   
    4555 000511 6D64          BCC $C$L91,TC1 ; |538| 
         000513 FEFE 
    4556                                                      ; branchcc occurs ; |538| 
    4557 000515       $C$L96:    
    4558                      .dwpsn  file "../c5535_bsl_revc/ezdsp5535_v1/c55xx_csl/ccs_v4.0_examples/usb/CSL_USB_DmaExample/csl_u
    4559 000515 EC31          AMOV #_deviceDesc, XAR3 ; |600| 
         000517 BE00 
         000519 0000-
    4560 00051b EB31          MOV XAR3, dbl(*(#_deviceDescPtr))
         00051d B500 
         00051f 0084-
    4561                      .dwpsn  file "../c5535_bsl_revc/ezdsp5535_v1/c55xx_csl/ccs_v4.0_examples/usb/CSL_USB_DmaExample/csl_u
    4562 000521 EC31          AMOV #_cfgDesc, XAR3 ; |601| 
         000523 BE00 
         000525 0009-
    4563 000527 EB31          MOV XAR3, dbl(*(#_cfgDescPtr))
         000529 B500 
         00052b 0086-
    4564                      .dwpsn  file "../c5535_bsl_revc/ezdsp5535_v1/c55xx_csl/ccs_v4.0_examples/usb/CSL_USB_DmaExample/csl_u
    4565 00052d EC31          AMOV #_strDesc, XAR3 ; |602| 
         00052f BE00 
         000531 0031-
    4566 000533 EB31          MOV XAR3, dbl(*(#_strDescPtr))
         000535 B500 
         000537 0088-
    4567                      .dwpsn  file "../c5535_bsl_revc/ezdsp5535_v1/c55xx_csl/ccs_v4.0_examples/usb/CSL_USB_DmaExample/csl_u
    4568 000539 7604          MOV #1042, T0 ; |604| 
         00053b 1248 
    4569 00053d AB31          MOV *(#_usbRegisters), AR3 ; |604| 
         00053f 0000 
         000541 00!  
    4570 000542 A96B          MOV port(*AR3(T0)), AR1 ; |604| 
         000544 99   
    4571 000545 EC02          BCLR @#1, AR1 ; |604| 
         000547 92   
TMS320C55x Assembler PC v4.4.1 Sat Sep 29 23:08:40 2018

Tools Copyright (c) 1996-2012 Texas Instruments Incorporated
csl_usb_dma_example.asm                                              PAGE  112

    4572 000548 EC02          BSET @#1, AR1 ; |604| 
         00054a 90   
    4573 00054b C96B          MOV AR1, port(*AR3(T0)) ; |604| 
         00054d 9A   
    4574                      .dwpsn  file "../c5535_bsl_revc/ezdsp5535_v1/c55xx_csl/ccs_v4.0_examples/usb/CSL_USB_DmaExample/csl_u
    4575 00054e AB31          MOV *(#_usbRegisters), AR3 ; |606| 
         000550 0000 
         000552 00!  
    4576 000553 A96B          MOV port(*AR3(T0)), AR1 ; |606| 
         000555 99   
    4577 000556 EC06          BCLR @#3, AR1 ; |606| 
         000558 92   
    4578 000559 EC06          BSET @#3, AR1 ; |606| 
         00055b 90   
    4579 00055c C96B          MOV AR1, port(*AR3(T0)) ; |606| 
         00055e 9A   
    4580                      .dwpsn  file "../c5535_bsl_revc/ezdsp5535_v1/c55xx_csl/ccs_v4.0_examples/usb/CSL_USB_DmaExample/csl_u
    4581 00055f 0600          B $C$L101 ; |608| 
         000561 87   
    4582                                                      ; branch occurs ; |608| 
    4583 000562       $C$L97:    
    4584                      .dwpsn  file "../c5535_bsl_revc/ezdsp5535_v1/c55xx_csl/ccs_v4.0_examples/usb/CSL_USB_DmaExample/csl_u
    4585 000562 A931          MOV *(#(_usbSetup+3)), AR1 ; |611| 
         000564 0000 
         000566 93-  
    4586 000567 C931          MOV AR1, *(#_devAddr) ; |611| 
         000569 0000 
         00056b 8C-  
    4587                      .dwpsn  file "../c5535_bsl_revc/ezdsp5535_v1/c55xx_csl/ccs_v4.0_examples/usb/CSL_USB_DmaExample/csl_u
    4588 00056c AB31          MOV *(#_usbRegisters), AR3 ; |612| 
         00056e 0000 
         000570 00!  
    4589 000571 A96B          MOV port(*AR3(T0)), AR1 ; |612| 
         000573 99   
    4590 000574 EC0C          BCLR @#6, AR1 ; |612| 
         000576 92   
    4591 000577 EC0C          BSET @#6, AR1 ; |612| 
         000579 90   
    4592 00057a C96B          MOV AR1, port(*AR3(T0)) ; |612| 
         00057c 9A   
    4593                      .dwpsn  file "../c5535_bsl_revc/ezdsp5535_v1/c55xx_csl/ccs_v4.0_examples/usb/CSL_USB_DmaExample/csl_u
    4594 00057d AB31          MOV *(#_usbRegisters), AR3 ; |614| 
         00057f 0000 
         000581 00!  
    4595 000582 A96B          MOV port(*AR3(T0)), AR1 ; |614| 
         000584 99   
    4596 000585 EC06          BCLR @#3, AR1 ; |614| 
         000587 92   
    4597 000588 EC06          BSET @#3, AR1 ; |614| 
         00058a 90   
    4598 00058b C96B          MOV AR1, port(*AR3(T0)) ; |614| 
         00058d 9A   
    4599                      .dwpsn  file "../c5535_bsl_revc/ezdsp5535_v1/c55xx_csl/ccs_v4.0_examples/usb/CSL_USB_DmaExample/csl_u
    4600 00058e 0600          B $C$L101 ; |616| 
         000590 58   
TMS320C55x Assembler PC v4.4.1 Sat Sep 29 23:08:40 2018

Tools Copyright (c) 1996-2012 Texas Instruments Incorporated
csl_usb_dma_example.asm                                              PAGE  113

    4601                                                      ; branch occurs ; |616| 
    4602 000591       $C$L98:    
    4603                      .dwpsn  file "../c5535_bsl_revc/ezdsp5535_v1/c55xx_csl/ccs_v4.0_examples/usb/CSL_USB_DmaExample/csl_u
    4604 000591 3C6A          MOV #6, AR2
    4605 000593 A931          MOV *(#(_usbSetup+2)), AR1 ; |462| 
         000595 0000 
         000597 92-  
    4606 000598 12A4          CMP AR1 > AR2, TC1 ; |462| 
         00059a 90   
    4607 00059b 0464          BCC $C$L99,TC1 ; |462| 
         00059d 23   
    4608                                                      ; branchcc occurs ; |462| 
    4609 00059e 1290          CMP AR1 == AR2, TC1 ; |462| 
         0005a0 A0   
    4610 0005a1 6D64          BCC $C$L95,TC1 ; |462| 
         0005a3 FF4F 
    4611                                                      ; branchcc occurs ; |462| 
    4612 0005a5 3C1A          MOV #1, AR2
    4613 0005a7 1290          CMPU AR1 == AR2, TC1 ; |462| 
         0005a9 A4   
    4614 0005aa 6D64          BCC $C$L86,TC1 ; |462| 
         0005ac FD75 
    4615                                                      ; branchcc occurs ; |462| 
    4616 0005ae 3C3A          MOV #3, AR2
    4617 0005b0 1290          CMPU AR1 == AR2, TC1 ; |462| 
         0005b2 A4   
    4618 0005b3 6D64          BCC $C$L82,TC1 ; |462| 
         0005b5 FCEA 
    4619                                                      ; branchcc occurs ; |462| 
    4620 0005b7 3C5A          MOV #5, AR2
    4621 0005b9 1290          CMPU AR1 == AR2, TC1 ; |462| 
         0005bb A4   
    4622 0005bc 0464          BCC $C$L97,TC1 ; |462| 
         0005be A3   
    4623                                                      ; branchcc occurs ; |462| 
    4624 0005bf 4A28          B $C$L101 ; |462| 
    4625                                                      ; branch occurs ; |462| 
    4626 0005c1       $C$L99:    
    4627 0005c1 3C9A          MOV #9, AR2
    4628 0005c3 1290          CMPU AR1 == AR2, TC1 ; |462| 
         0005c5 A4   
    4629 0005c6 6D64          BCC $C$L87,TC1 ; |462| 
         0005c8 FD6A 
    4630                                                      ; branchcc occurs ; |462| 
    4631 0005ca 3CBA          MOV #11, AR2
    4632 0005cc 1290          CMPU AR1 == AR2, TC1 ; |462| 
         0005ce A4   
    4633 0005cf 6D64          BCC $C$L87,TC1 ; |462| 
         0005d1 FD61 
    4634                                                      ; branchcc occurs ; |462| 
    4635 0005d3 4A14          B $C$L101 ; |462| 
    4636                                                      ; branch occurs ; |462| 
    4637 0005d5       $C$L100:    
    4638                      .dwpsn  file "../c5535_bsl_revc/ezdsp5535_v1/c55xx_csl/ccs_v4.0_examples/usb/CSL_USB_DmaExample/csl_u
    4639 0005d5 F031          CMP *(#(_usbSetup+2)) == #5, TC1 ; |624| 
TMS320C55x Assembler PC v4.4.1 Sat Sep 29 23:08:40 2018

Tools Copyright (c) 1996-2012 Texas Instruments Incorporated
csl_usb_dma_example.asm                                              PAGE  114

         0005d7 0005 
         0005d9 0000 
         0005db 92-  
    4640 0005dc 65F4          BCC $C$L101,!TC1 ; |624| 
    4641                                                      ; branchcc occurs ; |624| 
    4642                      .dwpsn  file "../c5535_bsl_revc/ezdsp5535_v1/c55xx_csl/ccs_v4.0_examples/usb/CSL_USB_DmaExample/csl_u
    4643 0005de A531          MOV *(#_devAddr), T1 ; |626| 
         0005e0 0000 
         0005e2 8C-  
    4644              $C$DW$323       .dwtag  DW_TAG_TI_branch
    4645                      .dwattr $C$DW$323, DW_AT_low_pc(0x00)
    4646                      .dwattr $C$DW$323, DW_AT_name("_USB_setDevAddr")
    4647                      .dwattr $C$DW$323, DW_AT_TI_call
    4648              
    4649 0005e3 6C00          CALL #_USB_setDevAddr ; |626| 
         0005e5 0000!
    4650 0005e7 3D04  ||      MOV #0, T0
    4651              
    4652                                                      ; call occurs [#_USB_setDevAddr] ; |626| 
    4653 0005e9       $C$L101:    
    4654                      .dwpsn  file "../c5535_bsl_revc/ezdsp5535_v1/c55xx_csl/ccs_v4.0_examples/usb/CSL_USB_DmaExample/csl_u
    4655 0005e9 AB31          MOV *(#_usbRegisters), AR3 ; |630| 
         0005eb 0000 
         0005ed 00!  
    4656 0005ee 7604          MOV #1038, T0 ; |630| 
         0005f0 0E48 
    4657 0005f2 A931          MOV *(#_saveIndex), AR1 ; |630| 
         0005f4 0000 
         0005f6 83-  
    4658 0005f7 C96B          MOV AR1, port(*AR3(T0)) ; |630| 
         0005f9 9A   
    4659 0005fa       $C$L102:    
    4660                      .dwpsn  file "../c5535_bsl_revc/ezdsp5535_v1/c55xx_csl/ccs_v4.0_examples/usb/CSL_USB_DmaExample/csl_u
    4661 0005fa ED31          MOV dbl(*(#_pContext)), XAR3
         0005fc BF00 
         0005fe 010C-
    4662 000600 DC6D          BTST #9, *AR3(#94), TC1 ; |634| 
         000602 9000 
         000604 5E   
    4663 000605 0464          BCC $C$L103,TC1 ; |634| 
         000607 16   
    4664                                                      ; branchcc occurs ; |634| 
    4665 000608 DC6D          BTST #10, *AR3(#94), TC1 ; |634| 
         00060a A000 
         00060c 5E   
    4666 00060d 67E4          BCC $C$L103,TC1 ; |634| 
    4667                                                      ; branchcc occurs ; |634| 
    4668 00060f DC6D          BTST #11, *AR3(#94), TC1 ; |634| 
         000611 B000 
         000613 5E   
    4669 000614 6464          BCC $C$L103,TC1 ; |634| 
    4670                                                      ; branchcc occurs ; |634| 
    4671 000616 DC6D          BTST #12, *AR3(#94), TC1 ; |634| 
         000618 C000 
         00061a 5E   
TMS320C55x Assembler PC v4.4.1 Sat Sep 29 23:08:40 2018

Tools Copyright (c) 1996-2012 Texas Instruments Incorporated
csl_usb_dma_example.asm                                              PAGE  115

    4672 00061b 0474          BCC $C$L104,!TC1 ; |634| 
         00061d 1E   
    4673                                                      ; branchcc occurs ; |634| 
    4674 00061e       $C$L103:    
    4675                      .dwpsn  file "../c5535_bsl_revc/ezdsp5535_v1/c55xx_csl/ccs_v4.0_examples/usb/CSL_USB_DmaExample/csl_u
    4676 00061e 4656          BCLR ST3_SATA
    4677 000620 EC31          AMOV #_usbDataBuffer, XAR1 ; |639| 
         000622 9E00 
         000624 0000-
    4678 000626 EC31          AMOV #_hpdrx, XAR0 ; |639| 
         000628 8E00 
         00062a 0010-
    4679              
    4680 00062c 7600          MOV #64, AC0 ; |639| 
         00062e 4008 
    4681 000630 4717  ||      BSET ST3_SMUL
    4682              
    4683              $C$DW$324       .dwtag  DW_TAG_TI_branch
    4684                      .dwattr $C$DW$324, DW_AT_low_pc(0x00)
    4685                      .dwattr $C$DW$324, DW_AT_name("_USB_confDmaRx")
    4686                      .dwattr $C$DW$324, DW_AT_TI_call
    4687 000632 6C00          CALL #_USB_confDmaRx ; |639| 
         000634 06E8'
    4688                                                      ; call occurs [#_USB_confDmaRx] ; |639| 
    4689                      .dwpsn  file "../c5535_bsl_revc/ezdsp5535_v1/c55xx_csl/ccs_v4.0_examples/usb/CSL_USB_DmaExample/csl_u
    4690              $C$DW$325       .dwtag  DW_TAG_TI_branch
    4691                      .dwattr $C$DW$325, DW_AT_low_pc(0x00)
    4692                      .dwattr $C$DW$325, DW_AT_name("_USB_dmaRxStart")
    4693                      .dwattr $C$DW$325, DW_AT_TI_call
    4694              
    4695 000636 6C00          CALL #_USB_dmaRxStart ; |640| 
         000638 023C'
    4696 00063a 3D20  ||      MOV #2, AC0 ; |640| 
    4697              
    4698                                                      ; call occurs [#_USB_dmaRxStart] ; |640| 
    4699 00063c       $C$L104:    
    4700                      .dwpsn  file "../c5535_bsl_revc/ezdsp5535_v1/c55xx_csl/ccs_v4.0_examples/usb/CSL_USB_DmaExample/csl_u
    4701 00063c ED31          MOV dbl(*(#_pContext)), XAR3
         00063e BF00 
         000640 010C-
    4702 000642 DC6D          BTST #1, *AR3(#94), TC1 ; |644| 
         000644 1000 
         000646 5E   
    4703 000647 0464          BCC $C$L105,TC1 ; |644| 
         000649 16   
    4704                                                      ; branchcc occurs ; |644| 
    4705 00064a DC6D          BTST #2, *AR3(#94), TC1 ; |644| 
         00064c 2000 
         00064e 5E   
    4706 00064f 67E4          BCC $C$L105,TC1 ; |644| 
    4707                                                      ; branchcc occurs ; |644| 
    4708 000651 DC6D          BTST #3, *AR3(#94), TC1 ; |644| 
         000653 3000 
         000655 5E   
    4709 000656 6464          BCC $C$L105,TC1 ; |644| 
TMS320C55x Assembler PC v4.4.1 Sat Sep 29 23:08:40 2018

Tools Copyright (c) 1996-2012 Texas Instruments Incorporated
csl_usb_dma_example.asm                                              PAGE  116

    4710                                                      ; branchcc occurs ; |644| 
    4711 000658 DC6D          BTST #4, *AR3(#94), TC1 ; |644| 
         00065a 4000 
         00065c 5E   
    4712 00065d 0474          BCC $C$L106,!TC1 ; |644| 
         00065f 20   
    4713                                                      ; branchcc occurs ; |644| 
    4714 000660       $C$L105:    
    4715                      .dwpsn  file "../c5535_bsl_revc/ezdsp5535_v1/c55xx_csl/ccs_v4.0_examples/usb/CSL_USB_DmaExample/csl_u
    4716 000660 4617          BSET ST3_SMUL
    4717 000662 EC31          AMOV #_usbDataBuffer, XAR1 ; |652| 
         000664 9E00 
         000666 0000-
    4718 000668 EC31          AMOV #_hpdtx, XAR0 ; |652| 
         00066a 8E00 
         00066c 0000-
    4719              
    4720 00066e 7600          MOV #64, AC0 ; |652| 
         000670 4008 
    4721 000672 4756  ||      BCLR ST3_SATA
    4722              
    4723              $C$DW$326       .dwtag  DW_TAG_TI_branch
    4724                      .dwattr $C$DW$326, DW_AT_low_pc(0x00)
    4725                      .dwattr $C$DW$326, DW_AT_name("_USB_confDmaTx")
    4726                      .dwattr $C$DW$326, DW_AT_TI_call
    4727              
    4728 000674 6C00          CALL #_USB_confDmaTx ; |652| 
         000676 0290'
    4729 000678 3D04  ||      MOV #0, T0
    4730              
    4731                                                      ; call occurs [#_USB_confDmaTx] ; |652| 
    4732                      .dwpsn  file "../c5535_bsl_revc/ezdsp5535_v1/c55xx_csl/ccs_v4.0_examples/usb/CSL_USB_DmaExample/csl_u
    4733              $C$DW$327       .dwtag  DW_TAG_TI_branch
    4734                      .dwattr $C$DW$327, DW_AT_low_pc(0x00)
    4735                      .dwattr $C$DW$327, DW_AT_name("_USB_dmaTxStart")
    4736                      .dwattr $C$DW$327, DW_AT_TI_call
    4737              
    4738 00067a 6C00          CALL #_USB_dmaTxStart ; |656| 
         00067c 03DC'
    4739 00067e 3D10  ||      MOV #1, AC0 ; |656| 
    4740              
    4741                                                      ; call occurs [#_USB_dmaTxStart] ; |656| 
    4742 000680       $C$L106:    
    4743                      .dwpsn  file "../c5535_bsl_revc/ezdsp5535_v1/c55xx_csl/ccs_v4.0_examples/usb/CSL_USB_DmaExample/csl_u
    4744 000680 DC31          BTST #10, *(#_queuePend1), TC1 ; |659| 
         000682 A000 
         000684 0082-
    4745 000686 0474          BCC $C$L107,!TC1 ; |659| 
         000688 47   
    4746                                                      ; branchcc occurs ; |659| 
    4747                      .dwpsn  file "../c5535_bsl_revc/ezdsp5535_v1/c55xx_csl/ccs_v4.0_examples/usb/CSL_USB_DmaExample/csl_u
    4748 000689 7661          MOV #25004, T0 ; |662| 
         00068b AC48 
    4749 00068d AB31          MOV *(#_usbRegisters), AR3 ; |662| 
         00068f 0000 
TMS320C55x Assembler PC v4.4.1 Sat Sep 29 23:08:40 2018

Tools Copyright (c) 1996-2012 Texas Instruments Incorporated
csl_usb_dma_example.asm                                              PAGE  117

         000691 00!  
    4750 000692 A96B          MOV port(*AR3(T0)), AR1 ; |662| 
         000694 99   
    4751 000695 C931          MOV AR1, *(#_queRegVal) ; |662| 
         000697 0000 
         000699 8B-  
    4752                      .dwpsn  file "../c5535_bsl_revc/ezdsp5535_v1/c55xx_csl/ccs_v4.0_examples/usb/CSL_USB_DmaExample/csl_u
    4753 00069a EC31          AMOV #_usbDataBuffer, XAR0 ; |666| 
         00069c 8E00 
         00069e 0000-
    4754              
    4755 0006a4 3D20          MOV #2, AC0 ; |666| 
    4756 0006a0 7600  ||      MOV #64, AC1 ; |666| 
         0006a2 4018 
    4757              
    4758              $C$DW$328       .dwtag  DW_TAG_TI_branch
    4759                      .dwattr $C$DW$328, DW_AT_low_pc(0x00)
    4760                      .dwattr $C$DW$328, DW_AT_name("_USB_dmaRxStop")
    4761                      .dwattr $C$DW$328, DW_AT_TI_call
    4762              
    4763 0006a6 6C00          CALL #_USB_dmaRxStop ; |666| 
         0006a8 0378'
    4764 0006aa 3D04  ||      MOV #0, T0
    4765              
    4766                                                      ; call occurs [#_USB_dmaRxStop] ; |666| 
    4767                      .dwpsn  file "../c5535_bsl_revc/ezdsp5535_v1/c55xx_csl/ccs_v4.0_examples/usb/CSL_USB_DmaExample/csl_u
    4768 0006ac 4656          BCLR ST3_SATA
    4769 0006ae EC31          AMOV #_hpdrx, XAR0 ; |673| 
         0006b0 8E00 
         0006b2 0010-
    4770 0006b4 EC31          AMOV #_usbDataBuffer, XAR1 ; |673| 
         0006b6 9E00 
         0006b8 0000-
    4771              
    4772 0006ba 7600          MOV #64, AC0 ; |673| 
         0006bc 4008 
    4773 0006be 4717  ||      BSET ST3_SMUL
    4774              
    4775              $C$DW$329       .dwtag  DW_TAG_TI_branch
    4776                      .dwattr $C$DW$329, DW_AT_low_pc(0x00)
    4777                      .dwattr $C$DW$329, DW_AT_name("_USB_confDmaRx")
    4778                      .dwattr $C$DW$329, DW_AT_TI_call
    4779 0006c0 6C00          CALL #_USB_confDmaRx ; |673| 
         0006c2 06E8'
    4780                                                      ; call occurs [#_USB_confDmaRx] ; |673| 
    4781                      .dwpsn  file "../c5535_bsl_revc/ezdsp5535_v1/c55xx_csl/ccs_v4.0_examples/usb/CSL_USB_DmaExample/csl_u
    4782              $C$DW$330       .dwtag  DW_TAG_TI_branch
    4783                      .dwattr $C$DW$330, DW_AT_low_pc(0x00)
    4784                      .dwattr $C$DW$330, DW_AT_name("_USB_dmaRxStart")
    4785                      .dwattr $C$DW$330, DW_AT_TI_call
    4786              
    4787 0006c4 6C00          CALL #_USB_dmaRxStart ; |674| 
         0006c6 023C'
    4788 0006c8 3D20  ||      MOV #2, AC0 ; |674| 
    4789              
TMS320C55x Assembler PC v4.4.1 Sat Sep 29 23:08:40 2018

Tools Copyright (c) 1996-2012 Texas Instruments Incorporated
csl_usb_dma_example.asm                                              PAGE  118

    4790                                                      ; call occurs [#_USB_dmaRxStart] ; |674| 
    4791                      .dwpsn  file "../c5535_bsl_revc/ezdsp5535_v1/c55xx_csl/ccs_v4.0_examples/usb/CSL_USB_DmaExample/csl_u
    4792 0006ca E631          MOV #0, *(#_queuePend1) ; |676| 
         0006cc 0000 
         0006ce 0082-
    4793 0006d0       $C$L107:    
    4794                      .dwpsn  file "../c5535_bsl_revc/ezdsp5535_v1/c55xx_csl/ccs_v4.0_examples/usb/CSL_USB_DmaExample/csl_u
    4795 0006d0 ED31          MOV dbl(*(#_pContext)), XAR3
         0006d2 BF00 
         0006d4 010C-
    4796 0006d6 DC6D          BTST #4, *AR3(#95), TC1 ; |680| 
         0006d8 4000 
         0006da 5F   
    4797 0006db 67F4          BCC $C$L108,!TC1 ; |680| 
    4798                                                      ; branchcc occurs ; |680| 
    4799                      .dwpsn  file "../c5535_bsl_revc/ezdsp5535_v1/c55xx_csl/ccs_v4.0_examples/usb/CSL_USB_DmaExample/csl_u
    4800 0006dd 4656          BCLR ST3_SATA
    4801 0006df 4617          BSET ST3_SMUL
    4802              $C$DW$331       .dwtag  DW_TAG_TI_branch
    4803                      .dwattr $C$DW$331, DW_AT_low_pc(0x00)
    4804                      .dwattr $C$DW$331, DW_AT_name("_USB_connectDev")
    4805                      .dwattr $C$DW$331, DW_AT_TI_call
    4806              
    4807 0006e1 6C00          CALL #_USB_connectDev ; |682| 
         0006e3 0000!
    4808 0006e5 3D04  ||      MOV #0, T0
    4809              
    4810                                                      ; call occurs [#_USB_connectDev] ; |682| 
    4811 0006e7 C431          MOV T0, *(#_status) ; |682| 
         0006e9 0001 
         0006eb 0E-  
    4812 0006ec       $C$L108:    
    4813                      .dwpsn  file "../c5535_bsl_revc/ezdsp5535_v1/c55xx_csl/ccs_v4.0_examples/usb/CSL_USB_DmaExample/csl_u
    4814 0006ec ED31          MOV dbl(*(#_pContext)), XAR3
         0006ee BF00 
         0006f0 010C-
    4815 0006f2 DC6D          BTST #5, *AR3(#95), TC1 ; |686| 
         0006f4 5000 
         0006f6 5F   
    4816 0006f7 0474          BCC $C$L109,!TC1 ; |686| 
         0006f9 15   
    4817                                                      ; branchcc occurs ; |686| 
    4818                      .dwpsn  file "../c5535_bsl_revc/ezdsp5535_v1/c55xx_csl/ccs_v4.0_examples/usb/CSL_USB_DmaExample/csl_u
    4819 0006fa 4656          BCLR ST3_SATA
    4820 0006fc 4617          BSET ST3_SMUL
    4821              $C$DW$332       .dwtag  DW_TAG_TI_branch
    4822                      .dwattr $C$DW$332, DW_AT_low_pc(0x00)
    4823                      .dwattr $C$DW$332, DW_AT_name("_USB_disconnectDev")
    4824                      .dwattr $C$DW$332, DW_AT_TI_call
    4825              
    4826 0006fe 6C00          CALL #_USB_disconnectDev ; |688| 
         000700 0000!
    4827 000702 3D04  ||      MOV #0, T0
    4828              
    4829                                                      ; call occurs [#_USB_disconnectDev] ; |688| 
TMS320C55x Assembler PC v4.4.1 Sat Sep 29 23:08:40 2018

Tools Copyright (c) 1996-2012 Texas Instruments Incorporated
csl_usb_dma_example.asm                                              PAGE  119

    4830 000704 C431          MOV T0, *(#_status) ; |688| 
         000706 0001 
         000708 0E-  
    4831                      .dwpsn  file "../c5535_bsl_revc/ezdsp5535_v1/c55xx_csl/ccs_v4.0_examples/usb/CSL_USB_DmaExample/csl_u
    4832 000709 E631          MOV #1, *(#_usbDevDisconnect) ; |689| 
         00070b 0100 
         00070d 008F-
    4833 00070f       $C$L109:    
    4834                      .dwpsn  file "../c5535_bsl_revc/ezdsp5535_v1/c55xx_csl/ccs_v4.0_examples/usb/CSL_USB_DmaExample/csl_u
    4835 00070f ED31          MOV dbl(*(#_pContext)), XAR3
         000711 BF00 
         000713 010C-
    4836 000715 DC6D          BTST #0, *AR3(#95), TC1 ; |693| 
         000717 0000 
         000719 5F   
    4837 00071a 67F4          BCC $C$L110,!TC1 ; |693| 
    4838                                                      ; branchcc occurs ; |693| 
    4839                      .dwpsn  file "../c5535_bsl_revc/ezdsp5535_v1/c55xx_csl/ccs_v4.0_examples/usb/CSL_USB_DmaExample/csl_u
    4840 00071c 4656          BCLR ST3_SATA
    4841 00071e 4617          BSET ST3_SMUL
    4842              $C$DW$333       .dwtag  DW_TAG_TI_branch
    4843                      .dwattr $C$DW$333, DW_AT_low_pc(0x00)
    4844                      .dwattr $C$DW$333, DW_AT_name("_USB_suspendDevice")
    4845                      .dwattr $C$DW$333, DW_AT_TI_call
    4846              
    4847 000720 6C00          CALL #_USB_suspendDevice ; |695| 
         000722 0000!
    4848 000724 3D04  ||      MOV #0, T0
    4849              
    4850                                                      ; call occurs [#_USB_suspendDevice] ; |695| 
    4851 000726 C431          MOV T0, *(#_status) ; |695| 
         000728 0001 
         00072a 0E-  
    4852 00072b       $C$L110:    
    4853                      .dwpsn  file "../c5535_bsl_revc/ezdsp5535_v1/c55xx_csl/ccs_v4.0_examples/usb/CSL_USB_DmaExample/csl_u
    4854 00072b ED31          MOV dbl(*(#_pContext)), XAR3
         00072d BF00 
         00072f 010C-
    4855 000731 E66D          MOV #0, *AR3(#94) ; |698| 
         000733 0000 
         000735 5E   
    4856                      .dwpsn  file "../c5535_bsl_revc/ezdsp5535_v1/c55xx_csl/ccs_v4.0_examples/usb/CSL_USB_DmaExample/csl_u
    4857 000736 ED31          MOV dbl(*(#_pContext)), XAR3
         000738 BF00 
         00073a 010C-
    4858 00073c E66D          MOV #0, *AR3(#95) ; |699| 
         00073e 0000 
         000740 5F   
    4859                      .dwpsn  file "../c5535_bsl_revc/ezdsp5535_v1/c55xx_csl/ccs_v4.0_examples/usb/CSL_USB_DmaExample/csl_u
    4860 000741 7600          MOV #60, T0 ; |701| 
         000743 3C48 
    4861 000745 AB31          MOV *(#_usbRegisters), AR3 ; |701| 
         000747 0000 
         000749 00!  
    4862 00074a A96B          MOV port(*AR3(T0)), AR1 ; |701| 
TMS320C55x Assembler PC v4.4.1 Sat Sep 29 23:08:40 2018

Tools Copyright (c) 1996-2012 Texas Instruments Incorporated
csl_usb_dma_example.asm                                              PAGE  120

         00074c 99   
    4863 00074d 7DFF          AND #0xff00, AR1, AC0 ; |701| 
         00074f 0009 
    4864 000751 C06B          MOV AC0, port(*AR3(T0)) ; |701| 
         000753 9A   
    4865                      .dwpsn  file "../c5535_bsl_revc/ezdsp5535_v1/c55xx_csl/ccs_v4.0_examples/usb/CSL_USB_DmaExample/csl_u
    4866 000754 4E03          AADD #3, SP
    4867                      .dwcfi  cfa_offset, 47
    4868 000756 BB9A          POP mmap(SP)
         000758 98   
    4869 000759 BB6C          POP mmap(BSAC)
         00075b 98   
    4870                      .dwcfi  restore_reg, 68
    4871                      .dwcfi  cfa_offset, 46
    4872 00075c BB6A          POP mmap(BSA67)
         00075e 98   
    4873                      .dwcfi  restore_reg, 67
    4874                      .dwcfi  cfa_offset, 45
    4875 00075f BB68          POP mmap(BSA45)
         000761 98   
    4876                      .dwcfi  restore_reg, 66
    4877                      .dwcfi  cfa_offset, 44
    4878 000762 BB66          POP mmap(BSA23)
         000764 98   
    4879                      .dwcfi  restore_reg, 65
    4880                      .dwcfi  cfa_offset, 43
    4881 000765 BB64          POP mmap(BSA01)
         000767 98   
    4882                      .dwcfi  restore_reg, 64
    4883                      .dwcfi  cfa_offset, 42
    4884 000768 BB70          POP mmap(TRN1)
         00076a 98   
    4885                      .dwcfi  restore_reg, 63
    4886                      .dwcfi  cfa_offset, 41
    4887 00076b BB1E          POP mmap(TRN0)
         00076d 98   
    4888                      .dwcfi  restore_reg, 62
    4889                      .dwcfi  cfa_offset, 40
    4890 00076e 5074          POPBOTH XCDP
    4891                      .dwcfi  restore_reg, 60
    4892                      .dwcfi  cfa_offset, 39
    4893 000770 BB88          POP mmap(RPTC)
         000772 98   
    4894                      .dwcfi  restore_reg, 59
    4895                      .dwcfi  cfa_offset, 38
    4896 000773 BB76          POP mmap(CSR)
         000775 98   
    4897                      .dwcfi  restore_reg, 58
    4898                      .dwcfi  cfa_offset, 37
    4899 000776 BB84          POP mmap(REA1H)
         000778 98   
    4900                      .dwcfi  restore_reg, 57
    4901                      .dwcfi  cfa_offset, 36
    4902 000779 BB86          POP mmap(REA1L)
         00077b 98   
TMS320C55x Assembler PC v4.4.1 Sat Sep 29 23:08:40 2018

Tools Copyright (c) 1996-2012 Texas Instruments Incorporated
csl_usb_dma_example.asm                                              PAGE  121

    4903                      .dwcfi  restore_reg, 56
    4904                      .dwcfi  cfa_offset, 35
    4905 00077c BB80          POP mmap(RSA1H)
         00077e 98   
    4906                      .dwcfi  restore_reg, 55
    4907                      .dwcfi  cfa_offset, 34
    4908 00077f BB82          POP mmap(RSA1L)
         000781 98   
    4909                      .dwcfi  restore_reg, 54
    4910                      .dwcfi  cfa_offset, 33
    4911 000782 BB72          POP mmap(BRC1)
         000784 98   
    4912                      .dwcfi  restore_reg, 53
    4913                      .dwcfi  cfa_offset, 32
    4914 000785 BB74          POP mmap(BRS1)
         000787 98   
    4915                      .dwcfi  restore_reg, 52
    4916                      .dwcfi  cfa_offset, 31
    4917 000788 BB7C          POP mmap(REA0H)
         00078a 98   
    4918                      .dwcfi  restore_reg, 51
    4919                      .dwcfi  cfa_offset, 30
    4920 00078b BB7E          POP mmap(REA0L)
         00078d 98   
    4921                      .dwcfi  restore_reg, 50
    4922                      .dwcfi  cfa_offset, 29
    4923 00078e BB78          POP mmap(RSA0H)
         000790 98   
    4924                      .dwcfi  restore_reg, 49
    4925                      .dwcfi  cfa_offset, 28
    4926 000791 BB7A          POP mmap(RSA0L)
         000793 98   
    4927                      .dwcfi  restore_reg, 48
    4928                      .dwcfi  cfa_offset, 27
    4929 000794 BB34          POP mmap(BRC0)
         000796 98   
    4930                      .dwcfi  restore_reg, 47
    4931                      .dwcfi  cfa_offset, 26
    4932 000797 BB60          POP mmap(BK47)
         000799 98   
    4933                      .dwcfi  restore_reg, 39
    4934                      .dwcfi  cfa_offset, 25
    4935 00079a BB32          POP mmap(BK03)
         00079c 98   
    4936                      .dwcfi  restore_reg, 38
    4937                      .dwcfi  cfa_offset, 24
    4938 00079d BB62          POP mmap(BKC)
         00079f 98   
    4939                      .dwcfi  restore_reg, 37
    4940                      .dwcfi  cfa_offset, 23
    4941 0007a0 50C4          POPBOTH XAR4
    4942                      .dwcfi  restore_reg, 24
    4943                      .dwcfi  cfa_offset, 22
    4944 0007a2 50B4          POPBOTH XAR3
    4945                      .dwcfi  restore_reg, 22
TMS320C55x Assembler PC v4.4.1 Sat Sep 29 23:08:40 2018

Tools Copyright (c) 1996-2012 Texas Instruments Incorporated
csl_usb_dma_example.asm                                              PAGE  122

    4946                      .dwcfi  cfa_offset, 21
    4947 0007a4 50A4          POPBOTH XAR2
    4948                      .dwcfi  restore_reg, 20
    4949                      .dwcfi  cfa_offset, 20
    4950 0007a6 5094          POPBOTH XAR1
    4951                      .dwcfi  restore_reg, 18
    4952                      .dwcfi  cfa_offset, 19
    4953 0007a8 5084          POPBOTH XAR0
    4954                      .dwcfi  restore_reg, 16
    4955                      .dwcfi  cfa_offset, 18
    4956 0007aa 5052          POP T1
    4957                      .dwcfi  restore_reg, 13
    4958                      .dwcfi  cfa_offset, 17
    4959 0007ac 5042          POP T0
    4960                      .dwcfi  restore_reg, 12
    4961                      .dwcfi  cfa_offset, 16
    4962 0007ae BB54          POP mmap(AC3G)
         0007b0 98   
    4963                      .dwcfi  restore_reg, 11
    4964                      .dwcfi  cfa_offset, 15
    4965                      .dwcfi  restore_reg, 10
    4966                      .dwcfi  cfa_offset, 14
    4967 0007b1 5033          POP dbl(AC3)
    4968                      .dwcfi  restore_reg, 9
    4969                      .dwcfi  cfa_offset, 13
    4970 0007b3 BB4C          POP mmap(AC2G)
         0007b5 98   
    4971                      .dwcfi  restore_reg, 8
    4972                      .dwcfi  cfa_offset, 12
    4973                      .dwcfi  restore_reg, 7
    4974                      .dwcfi  cfa_offset, 11
    4975 0007b6 5023          POP dbl(AC2)
    4976                      .dwcfi  restore_reg, 6
    4977                      .dwcfi  cfa_offset, 10
    4978 0007b8 BB1A          POP mmap(AC1G)
         0007ba 98   
    4979                      .dwcfi  restore_reg, 5
    4980                      .dwcfi  cfa_offset, 9
    4981                      .dwcfi  restore_reg, 4
    4982                      .dwcfi  cfa_offset, 8
    4983 0007bb 5013          POP dbl(AC1)
    4984                      .dwcfi  restore_reg, 3
    4985                      .dwcfi  cfa_offset, 7
    4986 0007bd BB14          POP mmap(AC0G)
         0007bf 98   
    4987                      .dwcfi  restore_reg, 2
    4988                      .dwcfi  cfa_offset, 6
    4989                      .dwcfi  restore_reg, 1
    4990                      .dwcfi  cfa_offset, 5
    4991 0007c0 5003          POP dbl(AC0)
    4992                      .dwcfi  restore_reg, 0
    4993                      .dwcfi  cfa_offset, 4
    4994 0007c2 BB08          POP mmap(ST3_55)
         0007c4 98   
    4995                      .dwcfi  restore_reg, 43
TMS320C55x Assembler PC v4.4.1 Sat Sep 29 23:08:40 2018

Tools Copyright (c) 1996-2012 Texas Instruments Incorporated
csl_usb_dma_example.asm                                              PAGE  123

    4996                      .dwcfi  cfa_offset, 3
    4997              $C$DW$334       .dwtag  DW_TAG_TI_branch
    4998                      .dwattr $C$DW$334, DW_AT_low_pc(0x00)
    4999                      .dwattr $C$DW$334, DW_AT_TI_return
    5000 0007c5 4805          RETI
    5001                                                      ; return occurs
    5002                      .dwattr $C$DW$293, DW_AT_TI_end_file("../c5535_bsl_revc/ezdsp5535_v1/c55xx_csl/ccs_v4.0_examples/usb/
    5003                      .dwattr $C$DW$293, DW_AT_TI_end_line(0x2be)
    5004                      .dwattr $C$DW$293, DW_AT_TI_end_column(0x01)
    5005                      .dwendentry
    5006                      .dwendtag $C$DW$293
    5007              
    5008 000f40               .sect   ".text"
    5009                      .align 4
    5010                      .global _CSL_suspendCallBack
    5011              
    5012              $C$DW$335       .dwtag  DW_TAG_subprogram, DW_AT_name("CSL_suspendCallBack")
    5013                      .dwattr $C$DW$335, DW_AT_low_pc(_CSL_suspendCallBack)
    5014                      .dwattr $C$DW$335, DW_AT_high_pc(0x00)
    5015                      .dwattr $C$DW$335, DW_AT_TI_symbol_name("_CSL_suspendCallBack")
    5016                      .dwattr $C$DW$335, DW_AT_external
    5017                      .dwattr $C$DW$335, DW_AT_TI_begin_file("../c5535_bsl_revc/ezdsp5535_v1/c55xx_csl/ccs_v4.0_examples/us
    5018                      .dwattr $C$DW$335, DW_AT_TI_begin_line(0x2c8)
    5019                      .dwattr $C$DW$335, DW_AT_TI_begin_column(0x06)
    5020                      .dwattr $C$DW$335, DW_AT_TI_max_frame_size(0x04)
    5021                      .dwpsn  file "../c5535_bsl_revc/ezdsp5535_v1/c55xx_csl/ccs_v4.0_examples/usb/CSL_USB_DmaExample/csl_u
    5022              
    5023                      .dwfde $C$DW$CIE, _CSL_suspendCallBack
    5024              $C$DW$336       .dwtag  DW_TAG_formal_parameter, DW_AT_name("status")
    5025                      .dwattr $C$DW$336, DW_AT_TI_symbol_name("_status")
    5026                      .dwattr $C$DW$336, DW_AT_type(*$C$DW$T$80)
    5027                      .dwattr $C$DW$336, DW_AT_location[DW_OP_reg12]
    5028              ;*******************************************************************************
    5029              ;* FUNCTION NAME: CSL_suspendCallBack                                          *
    5030              ;*                                                                             *
    5031              ;*   Function Uses Regs : T0,AR3,XAR3,SP,M40,SATA,SATD,RDM,FRCT,SMUL           *
    5032              ;*   Stack Frame        : Compact (No Frame Pointer, w/ debug)                 *
    5033              ;*   Total Frame Size   : 4 words                                              *
    5034              ;*                        (1 return address/alignment)                         *
    5035              ;*                        (2 function parameters)                              *
    5036              ;*                        (1 local values)                                     *
    5037              ;*   Min System Stack   : 1 word                                               *
    5038              ;*******************************************************************************
    5039 000f40       _CSL_suspendCallBack:
    5040                      .dwcfi  cfa_offset, 1
    5041                      .dwcfi  save_reg_to_mem, 91, -1
    5042 000f40 4EFD          AADD #-3, SP
    5043                      .dwcfi  cfa_offset, 4
    5044              $C$DW$337       .dwtag  DW_TAG_variable, DW_AT_name("status")
    5045                      .dwattr $C$DW$337, DW_AT_TI_symbol_name("_status")
    5046                      .dwattr $C$DW$337, DW_AT_type(*$C$DW$T$80)
    5047                      .dwattr $C$DW$337, DW_AT_location[DW_OP_bregx 0x24 2]
    5048 000f42 C404          MOV T0, *SP(#2) ; |713| 
    5049                      .dwpsn  file "../c5535_bsl_revc/ezdsp5535_v1/c55xx_csl/ccs_v4.0_examples/usb/CSL_USB_DmaExample/csl_u
    5050 000f44 EC31          AMOV #$C$FSL9, XAR3 ; |714| 
TMS320C55x Assembler PC v4.4.1 Sat Sep 29 23:08:40 2018

Tools Copyright (c) 1996-2012 Texas Instruments Incorporated
csl_usb_dma_example.asm                                              PAGE  124

         000f46 BE00 
         000f48 009C+
    5051 000f4a EB00          MOV XAR3, dbl(*SP(#0))
         000f4c B5   
    5052              $C$DW$338       .dwtag  DW_TAG_TI_branch
    5053                      .dwattr $C$DW$338, DW_AT_low_pc(0x00)
    5054                      .dwattr $C$DW$338, DW_AT_name("_printf")
    5055                      .dwattr $C$DW$338, DW_AT_TI_call
    5056 000f4d 6C00          CALL #_printf ; |714| 
         000f4f 0000!
    5057                                                      ; call occurs [#_printf] ; |714| 
    5058                      .dwpsn  file "../c5535_bsl_revc/ezdsp5535_v1/c55xx_csl/ccs_v4.0_examples/usb/CSL_USB_DmaExample/csl_u
    5059 000f51 4E03          AADD #3, SP
    5060                      .dwcfi  cfa_offset, 1
    5061              $C$DW$339       .dwtag  DW_TAG_TI_branch
    5062                      .dwattr $C$DW$339, DW_AT_low_pc(0x00)
    5063                      .dwattr $C$DW$339, DW_AT_TI_return
    5064 000f53 4804          RET
    5065                                                      ; return occurs
    5066                      .dwattr $C$DW$335, DW_AT_TI_end_file("../c5535_bsl_revc/ezdsp5535_v1/c55xx_csl/ccs_v4.0_examples/usb/
    5067                      .dwattr $C$DW$335, DW_AT_TI_end_line(0x2cb)
    5068                      .dwattr $C$DW$335, DW_AT_TI_end_column(0x01)
    5069                      .dwendentry
    5070                      .dwendtag $C$DW$335
    5071              
    5072 000f55               .sect   ".text"
    5073                      .align 4
    5074                      .global _CSL_selfWakeupCallBack
    5075              
    5076              $C$DW$340       .dwtag  DW_TAG_subprogram, DW_AT_name("CSL_selfWakeupCallBack")
    5077                      .dwattr $C$DW$340, DW_AT_low_pc(_CSL_selfWakeupCallBack)
    5078                      .dwattr $C$DW$340, DW_AT_high_pc(0x00)
    5079                      .dwattr $C$DW$340, DW_AT_TI_symbol_name("_CSL_selfWakeupCallBack")
    5080                      .dwattr $C$DW$340, DW_AT_external
    5081                      .dwattr $C$DW$340, DW_AT_TI_begin_file("../c5535_bsl_revc/ezdsp5535_v1/c55xx_csl/ccs_v4.0_examples/us
    5082                      .dwattr $C$DW$340, DW_AT_TI_begin_line(0x2d4)
    5083                      .dwattr $C$DW$340, DW_AT_TI_begin_column(0x06)
    5084                      .dwattr $C$DW$340, DW_AT_TI_max_frame_size(0x02)
    5085                      .dwpsn  file "../c5535_bsl_revc/ezdsp5535_v1/c55xx_csl/ccs_v4.0_examples/usb/CSL_USB_DmaExample/csl_u
    5086              
    5087                      .dwfde $C$DW$CIE, _CSL_selfWakeupCallBack
    5088              $C$DW$341       .dwtag  DW_TAG_formal_parameter, DW_AT_name("status")
    5089                      .dwattr $C$DW$341, DW_AT_TI_symbol_name("_status")
    5090                      .dwattr $C$DW$341, DW_AT_type(*$C$DW$T$80)
    5091                      .dwattr $C$DW$341, DW_AT_location[DW_OP_reg12]
    5092              ;*******************************************************************************
    5093              ;* FUNCTION NAME: CSL_selfWakeupCallBack                                       *
    5094              ;*                                                                             *
    5095              ;*   Function Uses Regs : T0,SP,M40,SATA,SATD,RDM,FRCT,SMUL                    *
    5096              ;*   Stack Frame        : Compact (No Frame Pointer, w/ debug)                 *
    5097              ;*   Total Frame Size   : 2 words                                              *
    5098              ;*                        (1 return address/alignment)                         *
    5099              ;*                        (1 local values)                                     *
    5100              ;*   Min System Stack   : 1 word                                               *
    5101              ;*******************************************************************************
TMS320C55x Assembler PC v4.4.1 Sat Sep 29 23:08:40 2018

Tools Copyright (c) 1996-2012 Texas Instruments Incorporated
csl_usb_dma_example.asm                                              PAGE  125

    5102 000f58       _CSL_selfWakeupCallBack:
    5103                      .dwcfi  cfa_offset, 1
    5104                      .dwcfi  save_reg_to_mem, 91, -1
    5105 000f58 4EFF          AADD #-1, SP
    5106                      .dwcfi  cfa_offset, 2
    5107              $C$DW$342       .dwtag  DW_TAG_variable, DW_AT_name("status")
    5108                      .dwattr $C$DW$342, DW_AT_TI_symbol_name("_status")
    5109                      .dwattr $C$DW$342, DW_AT_type(*$C$DW$T$80)
    5110                      .dwattr $C$DW$342, DW_AT_location[DW_OP_bregx 0x24 0]
    5111 000f5a C400          MOV T0, *SP(#0) ; |725| 
    5112                      .dwpsn  file "../c5535_bsl_revc/ezdsp5535_v1/c55xx_csl/ccs_v4.0_examples/usb/CSL_USB_DmaExample/csl_u
    5113 000f5c 4E01          AADD #1, SP
    5114                      .dwcfi  cfa_offset, 1
    5115              $C$DW$343       .dwtag  DW_TAG_TI_branch
    5116                      .dwattr $C$DW$343, DW_AT_low_pc(0x00)
    5117                      .dwattr $C$DW$343, DW_AT_TI_return
    5118 000f5e 4804          RET
    5119                                                      ; return occurs
    5120                      .dwattr $C$DW$340, DW_AT_TI_end_file("../c5535_bsl_revc/ezdsp5535_v1/c55xx_csl/ccs_v4.0_examples/usb/
    5121                      .dwattr $C$DW$340, DW_AT_TI_end_line(0x2d7)
    5122                      .dwattr $C$DW$340, DW_AT_TI_end_column(0x01)
    5123                      .dwendentry
    5124                      .dwendtag $C$DW$340
    5125              
    5126 000f60               .sect   ".text"
    5127                      .align 4
    5128              
    5129              $C$DW$344       .dwtag  DW_TAG_subprogram, DW_AT_name("USB_delay")
    5130                      .dwattr $C$DW$344, DW_AT_low_pc(_USB_delay)
    5131                      .dwattr $C$DW$344, DW_AT_high_pc(0x00)
    5132                      .dwattr $C$DW$344, DW_AT_TI_symbol_name("_USB_delay")
    5133                      .dwattr $C$DW$344, DW_AT_TI_begin_file("../c5535_bsl_revc/ezdsp5535_v1/c55xx_csl/ccs_v4.0_examples/us
    5134                      .dwattr $C$DW$344, DW_AT_TI_begin_line(0x2e0)
    5135                      .dwattr $C$DW$344, DW_AT_TI_begin_column(0x0d)
    5136                      .dwattr $C$DW$344, DW_AT_TI_max_frame_size(0x0a)
    5137                      .dwpsn  file "../c5535_bsl_revc/ezdsp5535_v1/c55xx_csl/ccs_v4.0_examples/usb/CSL_USB_DmaExample/csl_u
    5138              
    5139                      .dwfde $C$DW$CIE, _USB_delay
    5140              $C$DW$345       .dwtag  DW_TAG_formal_parameter, DW_AT_name("mSecs")
    5141                      .dwattr $C$DW$345, DW_AT_TI_symbol_name("_mSecs")
    5142                      .dwattr $C$DW$345, DW_AT_type(*$C$DW$T$70)
    5143                      .dwattr $C$DW$345, DW_AT_location[DW_OP_reg0]
    5144              ;*******************************************************************************
    5145              ;* FUNCTION NAME: USB_delay                                                    *
    5146              ;*                                                                             *
    5147              ;*   Function Uses Regs : AC0,AC0,AC1,AC1,AR3,XAR3,SP,CARRY,TC1,M40,SATA,SATD, *
    5148              ;*                        RDM,FRCT,SMUL                                        *
    5149              ;*   Stack Frame        : Compact (No Frame Pointer, w/ debug)                 *
    5150              ;*   Total Frame Size   : 10 words                                             *
    5151              ;*                        (2 return address/alignment)                         *
    5152              ;*                        (8 local values)                                     *
    5153              ;*   Min System Stack   : 1 word                                               *
    5154              ;*******************************************************************************
    5155 000f60       _USB_delay:
    5156                      .dwcfi  cfa_offset, 1
TMS320C55x Assembler PC v4.4.1 Sat Sep 29 23:08:40 2018

Tools Copyright (c) 1996-2012 Texas Instruments Incorporated
csl_usb_dma_example.asm                                              PAGE  126

    5157                      .dwcfi  save_reg_to_mem, 91, -1
    5158 000f60 4EF7          AADD #-9, SP
    5159                      .dwcfi  cfa_offset, 10
    5160              $C$DW$346       .dwtag  DW_TAG_variable, DW_AT_name("mSecs")
    5161                      .dwattr $C$DW$346, DW_AT_TI_symbol_name("_mSecs")
    5162                      .dwattr $C$DW$346, DW_AT_type(*$C$DW$T$70)
    5163                      .dwattr $C$DW$346, DW_AT_location[DW_OP_bregx 0x24 0]
    5164              $C$DW$347       .dwtag  DW_TAG_variable, DW_AT_name("delay")
    5165                      .dwattr $C$DW$347, DW_AT_TI_symbol_name("_delay")
    5166                      .dwattr $C$DW$347, DW_AT_type(*$C$DW$T$124)
    5167                      .dwattr $C$DW$347, DW_AT_location[DW_OP_bregx 0x24 2]
    5168              $C$DW$348       .dwtag  DW_TAG_variable, DW_AT_name("msecCount")
    5169                      .dwattr $C$DW$348, DW_AT_TI_symbol_name("_msecCount")
    5170                      .dwattr $C$DW$348, DW_AT_type(*$C$DW$T$124)
    5171                      .dwattr $C$DW$348, DW_AT_location[DW_OP_bregx 0x24 4]
    5172              $C$DW$349       .dwtag  DW_TAG_variable, DW_AT_name("sysClk")
    5173                      .dwattr $C$DW$349, DW_AT_TI_symbol_name("_sysClk")
    5174                      .dwattr $C$DW$349, DW_AT_type(*$C$DW$T$124)
    5175                      .dwattr $C$DW$349, DW_AT_location[DW_OP_bregx 0x24 6]
    5176 000f62 EB00          MOV AC0, dbl(*SP(#0)) ; |737| 
         000f64 08   
    5177                      .dwpsn  file "../c5535_bsl_revc/ezdsp5535_v1/c55xx_csl/ccs_v4.0_examples/usb/CSL_USB_DmaExample/csl_u
    5178 000f65 EC31          AMOV #100000, XAR3 ; |742| 
         000f67 BE01 
         000f69 86A0 
    5179 000f6b 90B0          MOV XAR3, AC0
    5180 000f6d EB0C          MOV AC0, dbl(*SP(#6)) ; |742| 
         000f6f 08   
    5181                      .dwpsn  file "../c5535_bsl_revc/ezdsp5535_v1/c55xx_csl/ccs_v4.0_examples/usb/CSL_USB_DmaExample/csl_u
    5182 000f70 3C00          MOV #0, AC0 ; |744| 
    5183 000f72 EB08          MOV AC0, dbl(*SP(#4)) ; |744| 
         000f74 08   
    5184 000f75 20            NOP
    5185 000f76 20            NOP
    5186                      .dwpsn  file "../c5535_bsl_revc/ezdsp5535_v1/c55xx_csl/ccs_v4.0_examples/usb/CSL_USB_DmaExample/csl_u
    5187 000f77 ED00          MOV dbl(*SP(#0)), AC0 ; |744| 
         000f79 08   
    5188 000f7a ED08          MOV dbl(*SP(#4)), AC1 ; |744| 
         000f7c 18   
    5189 000f7d 1218          CMPU AC1 >= AC0, TC1 ; |744| 
         000f7f 04   
    5190 000f80 0464          BCC $C$L114,TC1 ; |744| 
         000f82 43   
    5191                                                      ; branchcc occurs ; |744| 
    5192 000f83       $C$L111:    
    5193 000f83       $C$DW$L$_USB_delay$2$B:
    5194                      .dwpsn  file "../c5535_bsl_revc/ezdsp5535_v1/c55xx_csl/ccs_v4.0_examples/usb/CSL_USB_DmaExample/csl_u
    5195 000f83 3C00          MOV #0, AC0 ; |746| 
    5196 000f85 EB04          MOV AC0, dbl(*SP(#2)) ; |746| 
         000f87 08   
    5197 000f88 20            NOP
    5198 000f89 20            NOP
    5199 000f8a 20            NOP
    5200                      .dwpsn  file "../c5535_bsl_revc/ezdsp5535_v1/c55xx_csl/ccs_v4.0_examples/usb/CSL_USB_DmaExample/csl_u
    5201 000f8b ED0C          MOV dbl(*SP(#6)), AC0 ; |746| 
TMS320C55x Assembler PC v4.4.1 Sat Sep 29 23:08:40 2018

Tools Copyright (c) 1996-2012 Texas Instruments Incorporated
csl_usb_dma_example.asm                                              PAGE  127

         000f8d 08   
    5202 000f8e ED04          MOV dbl(*SP(#2)), AC1 ; |746| 
         000f90 18   
    5203 000f91 1218          CMPU AC1 >= AC0, TC1 ; |746| 
         000f93 04   
    5204 000f94 0464          BCC $C$L113,TC1 ; |746| 
         000f96 18   
    5205                                                      ; branchcc occurs ; |746| 
    5206 000f97       $C$DW$L$_USB_delay$2$E:
    5207 000f97       $C$L112:    
    5208 000f97       $C$DW$L$_USB_delay$3$B:
    5209                      .dwpsn  file "../c5535_bsl_revc/ezdsp5535_v1/c55xx_csl/ccs_v4.0_examples/usb/CSL_USB_DmaExample/csl_u
    5210 000f97 20            NOP
    5211                      .dwpsn  file "../c5535_bsl_revc/ezdsp5535_v1/c55xx_csl/ccs_v4.0_examples/usb/CSL_USB_DmaExample/csl_u
    5212 000f98 ED04          MOV dbl(*SP(#2)), AC0 ; |746| 
         000f9a 08   
    5213 000f9b 4010          ADD #1, AC0 ; |746| 
    5214 000f9d EB04          MOV AC0, dbl(*SP(#2)) ; |746| 
         000f9f 08   
    5215 000fa0 20            NOP
    5216 000fa1 20            NOP
    5217 000fa2 20            NOP
    5218                      .dwpsn  file "../c5535_bsl_revc/ezdsp5535_v1/c55xx_csl/ccs_v4.0_examples/usb/CSL_USB_DmaExample/csl_u
    5219 000fa3 ED0C          MOV dbl(*SP(#6)), AC0 ; |746| 
         000fa5 08   
    5220 000fa6 ED04          MOV dbl(*SP(#2)), AC1 ; |746| 
         000fa8 18   
    5221 000fa9 1214          CMPU AC1 < AC0, TC1 ; |746| 
         000fab 04   
    5222 000fac 0464          BCC $C$L112,TC1 ; |746| 
         000fae E8   
    5223                                                      ; branchcc occurs ; |746| 
    5224 000faf       $C$DW$L$_USB_delay$3$E:
    5225 000faf       $C$L113:    
    5226 000faf       $C$DW$L$_USB_delay$4$B:
    5227                      .dwpsn  file "../c5535_bsl_revc/ezdsp5535_v1/c55xx_csl/ccs_v4.0_examples/usb/CSL_USB_DmaExample/csl_u
    5228 000faf ED08          MOV dbl(*SP(#4)), AC0 ; |744| 
         000fb1 08   
    5229 000fb2 4010          ADD #1, AC0 ; |744| 
    5230 000fb4 EB08          MOV AC0, dbl(*SP(#4)) ; |744| 
         000fb6 08   
    5231 000fb7 20            NOP
    5232 000fb8 20            NOP
    5233 000fb9 20            NOP
    5234                      .dwpsn  file "../c5535_bsl_revc/ezdsp5535_v1/c55xx_csl/ccs_v4.0_examples/usb/CSL_USB_DmaExample/csl_u
    5235 000fba ED08          MOV dbl(*SP(#4)), AC1 ; |744| 
         000fbc 18   
    5236 000fbd ED00          MOV dbl(*SP(#0)), AC0 ; |744| 
         000fbf 08   
    5237 000fc0 1214          CMPU AC1 < AC0, TC1 ; |744| 
         000fc2 04   
    5238 000fc3 0464          BCC $C$L111,TC1 ; |744| 
         000fc5 BD   
    5239                                                      ; branchcc occurs ; |744| 
    5240 000fc6       $C$DW$L$_USB_delay$4$E:
TMS320C55x Assembler PC v4.4.1 Sat Sep 29 23:08:40 2018

Tools Copyright (c) 1996-2012 Texas Instruments Incorporated
csl_usb_dma_example.asm                                              PAGE  128

    5241                      .dwpsn  file "../c5535_bsl_revc/ezdsp5535_v1/c55xx_csl/ccs_v4.0_examples/usb/CSL_USB_DmaExample/csl_u
    5242 000fc6       $C$L114:    
    5243 000fc6 4E09          AADD #9, SP
    5244                      .dwcfi  cfa_offset, 1
    5245              $C$DW$350       .dwtag  DW_TAG_TI_branch
    5246                      .dwattr $C$DW$350, DW_AT_low_pc(0x00)
    5247                      .dwattr $C$DW$350, DW_AT_TI_return
    5248 000fc8 4804          RET
    5249                                                      ; return occurs
    5250              
    5251              $C$DW$351       .dwtag  DW_TAG_TI_loop
    5252                      .dwattr $C$DW$351, DW_AT_name("F:\eZdsp_DBG\tmp1\c55x-sim2\foo\Debug\csl_usb_dma_example.asm:$C$L111:
    5253                      .dwattr $C$DW$351, DW_AT_TI_begin_file("../c5535_bsl_revc/ezdsp5535_v1/c55xx_csl/ccs_v4.0_examples/us
    5254                      .dwattr $C$DW$351, DW_AT_TI_begin_line(0x2e8)
    5255                      .dwattr $C$DW$351, DW_AT_TI_end_line(0x2ee)
    5256              $C$DW$352       .dwtag  DW_TAG_TI_loop_range
    5257                      .dwattr $C$DW$352, DW_AT_low_pc($C$DW$L$_USB_delay$2$B)
    5258                      .dwattr $C$DW$352, DW_AT_high_pc($C$DW$L$_USB_delay$2$E)
    5259              $C$DW$353       .dwtag  DW_TAG_TI_loop_range
    5260                      .dwattr $C$DW$353, DW_AT_low_pc($C$DW$L$_USB_delay$4$B)
    5261                      .dwattr $C$DW$353, DW_AT_high_pc($C$DW$L$_USB_delay$4$E)
    5262              
    5263              $C$DW$354       .dwtag  DW_TAG_TI_loop
    5264                      .dwattr $C$DW$354, DW_AT_name("F:\eZdsp_DBG\tmp1\c55x-sim2\foo\Debug\csl_usb_dma_example.asm:$C$L112:
    5265                      .dwattr $C$DW$354, DW_AT_TI_begin_file("../c5535_bsl_revc/ezdsp5535_v1/c55xx_csl/ccs_v4.0_examples/us
    5266                      .dwattr $C$DW$354, DW_AT_TI_begin_line(0x2ea)
    5267                      .dwattr $C$DW$354, DW_AT_TI_end_line(0x2ed)
    5268              $C$DW$355       .dwtag  DW_TAG_TI_loop_range
    5269                      .dwattr $C$DW$355, DW_AT_low_pc($C$DW$L$_USB_delay$3$B)
    5270                      .dwattr $C$DW$355, DW_AT_high_pc($C$DW$L$_USB_delay$3$E)
    5271                      .dwendtag $C$DW$354
    5272              
    5273                      .dwendtag $C$DW$351
    5274              
    5275                      .dwattr $C$DW$344, DW_AT_TI_end_file("../c5535_bsl_revc/ezdsp5535_v1/c55xx_csl/ccs_v4.0_examples/usb/
    5276                      .dwattr $C$DW$344, DW_AT_TI_end_line(0x2ef)
    5277                      .dwattr $C$DW$344, DW_AT_TI_end_column(0x01)
    5278                      .dwendentry
    5279                      .dwendtag $C$DW$344
    5280              
    5281 000fca               .sect   ".text"
    5282                      .align 4
    5283                      .global _CSL_startTransferCallback
    5284              
    5285              $C$DW$356       .dwtag  DW_TAG_subprogram, DW_AT_name("CSL_startTransferCallback")
    5286                      .dwattr $C$DW$356, DW_AT_low_pc(_CSL_startTransferCallback)
    5287                      .dwattr $C$DW$356, DW_AT_high_pc(0x00)
    5288                      .dwattr $C$DW$356, DW_AT_TI_symbol_name("_CSL_startTransferCallback")
    5289                      .dwattr $C$DW$356, DW_AT_external
    5290                      .dwattr $C$DW$356, DW_AT_type(*$C$DW$T$80)
    5291                      .dwattr $C$DW$356, DW_AT_TI_begin_file("../c5535_bsl_revc/ezdsp5535_v1/c55xx_csl/ccs_v4.0_examples/us
    5292                      .dwattr $C$DW$356, DW_AT_TI_begin_line(0x2f9)
    5293                      .dwattr $C$DW$356, DW_AT_TI_begin_column(0x0c)
    5294                      .dwattr $C$DW$356, DW_AT_TI_max_frame_size(0x0c)
    5295                      .dwpsn  file "../c5535_bsl_revc/ezdsp5535_v1/c55xx_csl/ccs_v4.0_examples/usb/CSL_USB_DmaExample/csl_u
TMS320C55x Assembler PC v4.4.1 Sat Sep 29 23:08:40 2018

Tools Copyright (c) 1996-2012 Texas Instruments Incorporated
csl_usb_dma_example.asm                                              PAGE  129

    5296              
    5297                      .dwfde $C$DW$CIE, _CSL_startTransferCallback
    5298              $C$DW$357       .dwtag  DW_TAG_formal_parameter, DW_AT_name("vpContext")
    5299                      .dwattr $C$DW$357, DW_AT_TI_symbol_name("_vpContext")
    5300                      .dwattr $C$DW$357, DW_AT_type(*$C$DW$T$3)
    5301                      .dwattr $C$DW$357, DW_AT_location[DW_OP_reg17]
    5302              $C$DW$358       .dwtag  DW_TAG_formal_parameter, DW_AT_name("vpeps")
    5303                      .dwattr $C$DW$358, DW_AT_TI_symbol_name("_vpeps")
    5304                      .dwattr $C$DW$358, DW_AT_type(*$C$DW$T$3)
    5305                      .dwattr $C$DW$358, DW_AT_location[DW_OP_reg19]
    5306              ;*******************************************************************************
    5307              ;* FUNCTION NAME: CSL_startTransferCallback                                    *
    5308              ;*                                                                             *
    5309              ;*   Function Uses Regs : AC0,AC0,AC1,AC1,T0,AR0,XAR0,AR1,XAR1,AR3,XAR3,SP,TC1,*
    5310              ;*                        M40,SATA,SATD,RDM,FRCT,SMUL                          *
    5311              ;*   Stack Frame        : Compact (No Frame Pointer, w/ debug)                 *
    5312              ;*   Total Frame Size   : 12 words                                             *
    5313              ;*                        (1 return address/alignment)                         *
    5314              ;*                        (11 local values)                                    *
    5315              ;*   Min System Stack   : 1 word                                               *
    5316              ;*******************************************************************************
    5317 000fcc       _CSL_startTransferCallback:
    5318                      .dwcfi  cfa_offset, 1
    5319                      .dwcfi  save_reg_to_mem, 91, -1
    5320 000fcc 4EF5          AADD #-11, SP
    5321                      .dwcfi  cfa_offset, 12
    5322              $C$DW$359       .dwtag  DW_TAG_variable, DW_AT_name("vpContext")
    5323                      .dwattr $C$DW$359, DW_AT_TI_symbol_name("_vpContext")
    5324                      .dwattr $C$DW$359, DW_AT_type(*$C$DW$T$3)
    5325                      .dwattr $C$DW$359, DW_AT_location[DW_OP_bregx 0x24 0]
    5326              $C$DW$360       .dwtag  DW_TAG_variable, DW_AT_name("vpeps")
    5327                      .dwattr $C$DW$360, DW_AT_TI_symbol_name("_vpeps")
    5328                      .dwattr $C$DW$360, DW_AT_type(*$C$DW$T$3)
    5329                      .dwattr $C$DW$360, DW_AT_location[DW_OP_bregx 0x24 2]
    5330              $C$DW$361       .dwtag  DW_TAG_variable, DW_AT_name("pContext")
    5331                      .dwattr $C$DW$361, DW_AT_TI_symbol_name("_pContext")
    5332                      .dwattr $C$DW$361, DW_AT_type(*$C$DW$T$164)
    5333                      .dwattr $C$DW$361, DW_AT_location[DW_OP_bregx 0x24 4]
    5334              $C$DW$362       .dwtag  DW_TAG_variable, DW_AT_name("peps")
    5335                      .dwattr $C$DW$362, DW_AT_TI_symbol_name("_peps")
    5336                      .dwattr $C$DW$362, DW_AT_type(*$C$DW$T$168)
    5337                      .dwattr $C$DW$362, DW_AT_location[DW_OP_bregx 0x24 6]
    5338              $C$DW$363       .dwtag  DW_TAG_variable, DW_AT_name("pTransfer")
    5339                      .dwattr $C$DW$363, DW_AT_TI_symbol_name("_pTransfer")
    5340                      .dwattr $C$DW$363, DW_AT_type(*$C$DW$T$172)
    5341                      .dwattr $C$DW$363, DW_AT_location[DW_OP_bregx 0x24 8]
    5342              $C$DW$364       .dwtag  DW_TAG_variable, DW_AT_name("status")
    5343                      .dwattr $C$DW$364, DW_AT_TI_symbol_name("_status")
    5344                      .dwattr $C$DW$364, DW_AT_type(*$C$DW$T$80)
    5345                      .dwattr $C$DW$364, DW_AT_location[DW_OP_bregx 0x24 10]
    5346 000fce EB04          MOV XAR1, dbl(*SP(#2))
         000fd0 95   
    5347 000fd1 EB00          MOV XAR0, dbl(*SP(#0))
         000fd3 85   
    5348                      .dwpsn  file "../c5535_bsl_revc/ezdsp5535_v1/c55xx_csl/ccs_v4.0_examples/usb/CSL_USB_DmaExample/csl_u
TMS320C55x Assembler PC v4.4.1 Sat Sep 29 23:08:40 2018

Tools Copyright (c) 1996-2012 Texas Instruments Incorporated
csl_usb_dma_example.asm                                              PAGE  130

    5349 000fd4 E614          MOV #0, *SP(#10) ; |769| 
         000fd6 00   
    5350                      .dwpsn  file "../c5535_bsl_revc/ezdsp5535_v1/c55xx_csl/ccs_v4.0_examples/usb/CSL_USB_DmaExample/csl_u
    5351 000fd7 ED00          MOV dbl(*SP(#0)), XAR3
         000fd9 BF   
    5352 000fda EB08          MOV XAR3, dbl(*SP(#4))
         000fdc B5   
    5353                      .dwpsn  file "../c5535_bsl_revc/ezdsp5535_v1/c55xx_csl/ccs_v4.0_examples/usb/CSL_USB_DmaExample/csl_u
    5354 000fdd ED04          MOV dbl(*SP(#2)), XAR3
         000fdf BF   
    5355 000fe0 EB0C          MOV XAR3, dbl(*SP(#6))
         000fe2 B5   
    5356                      .dwpsn  file "../c5535_bsl_revc/ezdsp5535_v1/c55xx_csl/ccs_v4.0_examples/usb/CSL_USB_DmaExample/csl_u
    5357 000fe3 ED08          MOV dbl(*SP(#4)), XAR3
         000fe5 BF   
    5358 000fe6 90B0          MOV XAR3, AC0
    5359 000fe8 6380          BCC $C$L115,AC0 == #0 ; |774| 
    5360                                                      ; branchcc occurs ; |774| 
    5361 000fea ED0C          MOV dbl(*SP(#6)), XAR3
         000fec BF   
    5362 000fed 90B0          MOV XAR3, AC0
    5363 000fef 6290          BCC $C$L116,AC0 != #0 ; |774| 
    5364                                                      ; branchcc occurs ; |774| 
    5365 000ff1       $C$L115:    
    5366                      .dwpsn  file "../c5535_bsl_revc/ezdsp5535_v1/c55xx_csl/ccs_v4.0_examples/usb/CSL_USB_DmaExample/csl_u
    5367 000ff1 3E64          MOV #-6, T0
    5368 000ff3 0600          B $C$L124 ; |776| 
         000ff5 7E   
    5369                                                      ; branch occurs ; |776| 
    5370 000ff6       $C$L116:    
    5371                      .dwpsn  file "../c5535_bsl_revc/ezdsp5535_v1/c55xx_csl/ccs_v4.0_examples/usb/CSL_USB_DmaExample/csl_u
    5372 000ff6 ED08          MOV dbl(*SP(#4)), XAR3
         000ff8 BF   
    5373 000ff9 A96D          MOV *AR3(#23), AR1 ; |779| 
         000ffb 0017 
    5374 000ffd 6299          BCC $C$L117,AR1 != #0 ; |779| 
    5375                                                      ; branchcc occurs ; |779| 
    5376                      .dwpsn  file "../c5535_bsl_revc/ezdsp5535_v1/c55xx_csl/ccs_v4.0_examples/usb/CSL_USB_DmaExample/csl_u
    5377 000fff 3E64          MOV #-6, T0
    5378 001001 0600          B $C$L124 ; |781| 
         001003 70   
    5379                                                      ; branch occurs ; |781| 
    5380 001004       $C$L117:    
    5381                      .dwpsn  file "../c5535_bsl_revc/ezdsp5535_v1/c55xx_csl/ccs_v4.0_examples/usb/CSL_USB_DmaExample/csl_u
    5382 001004 ED0C          MOV dbl(*SP(#6)), XAR3
         001006 BF   
    5383 001007 A97D          MOV *AR3(short(#6)), AR1 ; |785| 
    5384 001009 6299          BCC $C$L118,AR1 != #0 ; |785| 
    5385                                                      ; branchcc occurs ; |785| 
    5386                      .dwpsn  file "../c5535_bsl_revc/ezdsp5535_v1/c55xx_csl/ccs_v4.0_examples/usb/CSL_USB_DmaExample/csl_u
    5387 00100b 3E64          MOV #-6, T0
    5388 00100d 0600          B $C$L124 ; |787| 
         00100f 64   
    5389                                                      ; branch occurs ; |787| 
    5390 001010       $C$L118:    
TMS320C55x Assembler PC v4.4.1 Sat Sep 29 23:08:40 2018

Tools Copyright (c) 1996-2012 Texas Instruments Incorporated
csl_usb_dma_example.asm                                              PAGE  131

    5391                      .dwpsn  file "../c5535_bsl_revc/ezdsp5535_v1/c55xx_csl/ccs_v4.0_examples/usb/CSL_USB_DmaExample/csl_u
    5392 001010 ED6D          MOV dbl(*AR3(#10)), XAR3
         001012 BF00 
         001014 0A   
    5393 001015 EB10          MOV XAR3, dbl(*SP(#8))
         001017 B5   
    5394                      .dwpsn  file "../c5535_bsl_revc/ezdsp5535_v1/c55xx_csl/ccs_v4.0_examples/usb/CSL_USB_DmaExample/csl_u
    5395 001018 E66D          MOV #0, *AR3(#12) ; |791| 
         00101a 0000 
         00101c 0C   
    5396                      .dwpsn  file "../c5535_bsl_revc/ezdsp5535_v1/c55xx_csl/ccs_v4.0_examples/usb/CSL_USB_DmaExample/csl_u
    5397 00101d ED10          MOV dbl(*SP(#8)), XAR3
         00101f BF   
    5398 001020 ED61          MOV dbl(*AR3), AC0 ; |793| 
         001022 08   
    5399 001023 0410          BCC $C$L120,AC0 != #0 ; |793| 
         001025 1E   
    5400                                                      ; branchcc occurs ; |793| 
    5401                      .dwpsn  file "../c5535_bsl_revc/ezdsp5535_v1/c55xx_csl/ccs_v4.0_examples/usb/CSL_USB_DmaExample/csl_u
    5402 001026 ED0C          MOV dbl(*SP(#6)), XAR3
         001028 BF   
    5403 001029 ED61          MOV dbl(*AR3), AC0 ; |795| 
         00102b 08   
    5404 00102c 6510          BCC $C$L119,AC0 != #0 ; |795| 
    5405                                                      ; branchcc occurs ; |795| 
    5406                      .dwpsn  file "../c5535_bsl_revc/ezdsp5535_v1/c55xx_csl/ccs_v4.0_examples/usb/CSL_USB_DmaExample/csl_u
    5407 00102e ED08          MOV dbl(*SP(#4)), XAR0
         001030 8F   
    5408              $C$DW$365       .dwtag  DW_TAG_TI_branch
    5409                      .dwattr $C$DW$365, DW_AT_low_pc(0x00)
    5410                      .dwattr $C$DW$365, DW_AT_name("_USB_processEP0Out")
    5411                      .dwattr $C$DW$365, DW_AT_TI_call
    5412 001031 08F4          CALL #_USB_processEP0Out ; |797| 
         001033 14   
    5413                                                      ; call occurs [#_USB_processEP0Out] ; |797| 
    5414 001034 C414          MOV T0, *SP(#10) ; |797| 
    5415                      .dwpsn  file "../c5535_bsl_revc/ezdsp5535_v1/c55xx_csl/ccs_v4.0_examples/usb/CSL_USB_DmaExample/csl_u
    5416 001036 4A3A          B $C$L123 ; |798| 
    5417                                                      ; branch occurs ; |798| 
    5418 001038       $C$L119:    
    5419                      .dwpsn  file "../c5535_bsl_revc/ezdsp5535_v1/c55xx_csl/ccs_v4.0_examples/usb/CSL_USB_DmaExample/csl_u
    5420 001038 ED08          MOV dbl(*SP(#4)), XAR0
         00103a 8F   
    5421              $C$DW$366       .dwtag  DW_TAG_TI_branch
    5422                      .dwattr $C$DW$366, DW_AT_low_pc(0x00)
    5423                      .dwattr $C$DW$366, DW_AT_name("_USB_handleRx")
    5424                      .dwattr $C$DW$366, DW_AT_TI_call
    5425              
    5426 00103b 08F9          CALL #_USB_handleRx ; |801| 
         00103d F8   
    5427 00103e 3D20  ||      MOV #2, AC0 ; |801| 
    5428              
    5429                                                      ; call occurs [#_USB_handleRx] ; |801| 
    5430 001040 C414          MOV T0, *SP(#10) ; |801| 
    5431                      .dwpsn  file "../c5535_bsl_revc/ezdsp5535_v1/c55xx_csl/ccs_v4.0_examples/usb/CSL_USB_DmaExample/csl_u
TMS320C55x Assembler PC v4.4.1 Sat Sep 29 23:08:40 2018

Tools Copyright (c) 1996-2012 Texas Instruments Incorporated
csl_usb_dma_example.asm                                              PAGE  132

    5432 001042 4A2E          B $C$L123 ; |803| 
    5433                                                      ; branch occurs ; |803| 
    5434 001044       $C$L120:    
    5435                      .dwpsn  file "../c5535_bsl_revc/ezdsp5535_v1/c55xx_csl/ccs_v4.0_examples/usb/CSL_USB_DmaExample/csl_u
    5436 001044 7600          MOV #128, AC0 ; |804| 
         001046 8008 
    5437 001048 ED61          MOV dbl(*AR3), AC1 ; |804| 
         00104a 18   
    5438 00104b 121C          CMPU AC1 != AC0, TC1 ; |804| 
         00104d 04   
    5439 00104e 0464          BCC $C$L122,TC1 ; |804| 
         001050 1E   
    5440                                                      ; branchcc occurs ; |804| 
    5441                      .dwpsn  file "../c5535_bsl_revc/ezdsp5535_v1/c55xx_csl/ccs_v4.0_examples/usb/CSL_USB_DmaExample/csl_u
    5442 001051 ED0C          MOV dbl(*SP(#6)), XAR3
         001053 BF   
    5443 001054 ED61          MOV dbl(*AR3), AC0 ; |806| 
         001056 08   
    5444 001057 6510          BCC $C$L121,AC0 != #0 ; |806| 
    5445                                                      ; branchcc occurs ; |806| 
    5446                      .dwpsn  file "../c5535_bsl_revc/ezdsp5535_v1/c55xx_csl/ccs_v4.0_examples/usb/CSL_USB_DmaExample/csl_u
    5447 001059 ED08          MOV dbl(*SP(#4)), XAR0
         00105b 8F   
    5448              $C$DW$367       .dwtag  DW_TAG_TI_branch
    5449                      .dwattr $C$DW$367, DW_AT_low_pc(0x00)
    5450                      .dwattr $C$DW$367, DW_AT_name("_USB_processEP0In")
    5451                      .dwattr $C$DW$367, DW_AT_TI_call
    5452 00105c 08F4          CALL #_USB_processEP0In ; |808| 
         00105e AD   
    5453                                                      ; call occurs [#_USB_processEP0In] ; |808| 
    5454 00105f C414          MOV T0, *SP(#10) ; |808| 
    5455                      .dwpsn  file "../c5535_bsl_revc/ezdsp5535_v1/c55xx_csl/ccs_v4.0_examples/usb/CSL_USB_DmaExample/csl_u
    5456 001061 4A0F          B $C$L123 ; |809| 
    5457                                                      ; branch occurs ; |809| 
    5458 001063       $C$L121:    
    5459                      .dwpsn  file "../c5535_bsl_revc/ezdsp5535_v1/c55xx_csl/ccs_v4.0_examples/usb/CSL_USB_DmaExample/csl_u
    5460 001063 ED08          MOV dbl(*SP(#4)), XAR0
         001065 8F   
    5461              $C$DW$368       .dwtag  DW_TAG_TI_branch
    5462                      .dwattr $C$DW$368, DW_AT_low_pc(0x00)
    5463                      .dwattr $C$DW$368, DW_AT_name("_USB_handleTx")
    5464                      .dwattr $C$DW$368, DW_AT_TI_call
    5465              
    5466 001066 08F7          CALL #_USB_handleTx ; |812| 
         001068 4D   
    5467 001069 3D10  ||      MOV #1, AC0 ; |812| 
    5468              
    5469                                                      ; call occurs [#_USB_handleTx] ; |812| 
    5470 00106b C414          MOV T0, *SP(#10) ; |812| 
    5471                      .dwpsn  file "../c5535_bsl_revc/ezdsp5535_v1/c55xx_csl/ccs_v4.0_examples/usb/CSL_USB_DmaExample/csl_u
    5472 00106d 4A03          B $C$L123 ; |814| 
    5473                                                      ; branch occurs ; |814| 
    5474 00106f       $C$L122:    
    5475                      .dwpsn  file "../c5535_bsl_revc/ezdsp5535_v1/c55xx_csl/ccs_v4.0_examples/usb/CSL_USB_DmaExample/csl_u
    5476 00106f E614          MOV #-6, *SP(#10) ; |817| 
TMS320C55x Assembler PC v4.4.1 Sat Sep 29 23:08:40 2018

Tools Copyright (c) 1996-2012 Texas Instruments Incorporated
csl_usb_dma_example.asm                                              PAGE  133

         001071 FA   
    5477 001072       $C$L123:    
    5478                      .dwpsn  file "../c5535_bsl_revc/ezdsp5535_v1/c55xx_csl/ccs_v4.0_examples/usb/CSL_USB_DmaExample/csl_u
    5479 001072 A414          MOV *SP(#10), T0 ; |820| 
    5480 001074       $C$L124:    
    5481                      .dwpsn  file "../c5535_bsl_revc/ezdsp5535_v1/c55xx_csl/ccs_v4.0_examples/usb/CSL_USB_DmaExample/csl_u
    5482 001074 4E0B          AADD #11, SP
    5483                      .dwcfi  cfa_offset, 1
    5484              $C$DW$369       .dwtag  DW_TAG_TI_branch
    5485                      .dwattr $C$DW$369, DW_AT_low_pc(0x00)
    5486                      .dwattr $C$DW$369, DW_AT_TI_return
    5487 001076 4804          RET
    5488                                                      ; return occurs
    5489                      .dwattr $C$DW$356, DW_AT_TI_end_file("../c5535_bsl_revc/ezdsp5535_v1/c55xx_csl/ccs_v4.0_examples/usb/
    5490                      .dwattr $C$DW$356, DW_AT_TI_end_line(0x335)
    5491                      .dwattr $C$DW$356, DW_AT_TI_end_column(0x01)
    5492                      .dwendentry
    5493                      .dwendtag $C$DW$356
    5494              
    5495 001078               .sect   ".text"
    5496                      .align 4
    5497                      .global _CSL_completeTransferCallback
    5498              
    5499              $C$DW$370       .dwtag  DW_TAG_subprogram, DW_AT_name("CSL_completeTransferCallback")
    5500                      .dwattr $C$DW$370, DW_AT_low_pc(_CSL_completeTransferCallback)
    5501                      .dwattr $C$DW$370, DW_AT_high_pc(0x00)
    5502                      .dwattr $C$DW$370, DW_AT_TI_symbol_name("_CSL_completeTransferCallback")
    5503                      .dwattr $C$DW$370, DW_AT_external
    5504                      .dwattr $C$DW$370, DW_AT_type(*$C$DW$T$80)
    5505                      .dwattr $C$DW$370, DW_AT_TI_begin_file("../c5535_bsl_revc/ezdsp5535_v1/c55xx_csl/ccs_v4.0_examples/us
    5506                      .dwattr $C$DW$370, DW_AT_TI_begin_line(0x340)
    5507                      .dwattr $C$DW$370, DW_AT_TI_begin_column(0x0c)
    5508                      .dwattr $C$DW$370, DW_AT_TI_max_frame_size(0x06)
    5509                      .dwpsn  file "../c5535_bsl_revc/ezdsp5535_v1/c55xx_csl/ccs_v4.0_examples/usb/CSL_USB_DmaExample/csl_u
    5510              
    5511                      .dwfde $C$DW$CIE, _CSL_completeTransferCallback
    5512              $C$DW$371       .dwtag  DW_TAG_formal_parameter, DW_AT_name("vpContext")
    5513                      .dwattr $C$DW$371, DW_AT_TI_symbol_name("_vpContext")
    5514                      .dwattr $C$DW$371, DW_AT_type(*$C$DW$T$3)
    5515                      .dwattr $C$DW$371, DW_AT_location[DW_OP_reg17]
    5516              $C$DW$372       .dwtag  DW_TAG_formal_parameter, DW_AT_name("vpeps")
    5517                      .dwattr $C$DW$372, DW_AT_TI_symbol_name("_vpeps")
    5518                      .dwattr $C$DW$372, DW_AT_type(*$C$DW$T$3)
    5519                      .dwattr $C$DW$372, DW_AT_location[DW_OP_reg19]
    5520              ;*******************************************************************************
    5521              ;* FUNCTION NAME: CSL_completeTransferCallback                                 *
    5522              ;*                                                                             *
    5523              ;*   Function Uses Regs : T0,AR0,XAR0,AR1,XAR1,SP,M40,SATA,SATD,RDM,FRCT,SMUL  *
    5524              ;*   Stack Frame        : Compact (No Frame Pointer, w/ debug)                 *
    5525              ;*   Total Frame Size   : 6 words                                              *
    5526              ;*                        (2 return address/alignment)                         *
    5527              ;*                        (4 local values)                                     *
    5528              ;*   Min System Stack   : 1 word                                               *
    5529              ;*******************************************************************************
    5530 001078       _CSL_completeTransferCallback:
TMS320C55x Assembler PC v4.4.1 Sat Sep 29 23:08:40 2018

Tools Copyright (c) 1996-2012 Texas Instruments Incorporated
csl_usb_dma_example.asm                                              PAGE  134

    5531                      .dwcfi  cfa_offset, 1
    5532                      .dwcfi  save_reg_to_mem, 91, -1
    5533 001078 4EFB          AADD #-5, SP
    5534                      .dwcfi  cfa_offset, 6
    5535              $C$DW$373       .dwtag  DW_TAG_variable, DW_AT_name("vpContext")
    5536                      .dwattr $C$DW$373, DW_AT_TI_symbol_name("_vpContext")
    5537                      .dwattr $C$DW$373, DW_AT_type(*$C$DW$T$3)
    5538                      .dwattr $C$DW$373, DW_AT_location[DW_OP_bregx 0x24 0]
    5539              $C$DW$374       .dwtag  DW_TAG_variable, DW_AT_name("vpeps")
    5540                      .dwattr $C$DW$374, DW_AT_TI_symbol_name("_vpeps")
    5541                      .dwattr $C$DW$374, DW_AT_type(*$C$DW$T$3)
    5542                      .dwattr $C$DW$374, DW_AT_location[DW_OP_bregx 0x24 2]
    5543 00107a EB04          MOV XAR1, dbl(*SP(#2))
         00107c 95   
    5544 00107d EB00          MOV XAR0, dbl(*SP(#0))
         00107f 85   
    5545                      .dwpsn  file "../c5535_bsl_revc/ezdsp5535_v1/c55xx_csl/ccs_v4.0_examples/usb/CSL_USB_DmaExample/csl_u
    5546 001080 3C04          MOV #0, T0
    5547                      .dwpsn  file "../c5535_bsl_revc/ezdsp5535_v1/c55xx_csl/ccs_v4.0_examples/usb/CSL_USB_DmaExample/csl_u
    5548 001082 4E05          AADD #5, SP
    5549                      .dwcfi  cfa_offset, 1
    5550              $C$DW$375       .dwtag  DW_TAG_TI_branch
    5551                      .dwattr $C$DW$375, DW_AT_low_pc(0x00)
    5552                      .dwattr $C$DW$375, DW_AT_TI_return
    5553 001084 4804          RET
    5554                                                      ; return occurs
    5555                      .dwattr $C$DW$370, DW_AT_TI_end_file("../c5535_bsl_revc/ezdsp5535_v1/c55xx_csl/ccs_v4.0_examples/usb/
    5556                      .dwattr $C$DW$370, DW_AT_TI_end_line(0x344)
    5557                      .dwattr $C$DW$370, DW_AT_TI_end_column(0x01)
    5558                      .dwendentry
    5559                      .dwendtag $C$DW$370
    5560              
    5561 001086               .sect   ".text"
    5562                      .align 4
    5563                      .global _printFunction
    5564              
    5565              $C$DW$376       .dwtag  DW_TAG_subprogram, DW_AT_name("printFunction")
    5566                      .dwattr $C$DW$376, DW_AT_low_pc(_printFunction)
    5567                      .dwattr $C$DW$376, DW_AT_high_pc(0x00)
    5568                      .dwattr $C$DW$376, DW_AT_TI_symbol_name("_printFunction")
    5569                      .dwattr $C$DW$376, DW_AT_external
    5570                      .dwattr $C$DW$376, DW_AT_TI_begin_file("../c5535_bsl_revc/ezdsp5535_v1/c55xx_csl/ccs_v4.0_examples/us
    5571                      .dwattr $C$DW$376, DW_AT_TI_begin_line(0x34f)
    5572                      .dwattr $C$DW$376, DW_AT_TI_begin_column(0x06)
    5573                      .dwattr $C$DW$376, DW_AT_TI_max_frame_size(0x0a)
    5574                      .dwpsn  file "../c5535_bsl_revc/ezdsp5535_v1/c55xx_csl/ccs_v4.0_examples/usb/CSL_USB_DmaExample/csl_u
    5575              
    5576                      .dwfde $C$DW$CIE, _printFunction
    5577              $C$DW$377       .dwtag  DW_TAG_formal_parameter, DW_AT_name("printCase")
    5578                      .dwattr $C$DW$377, DW_AT_TI_symbol_name("_printCase")
    5579                      .dwattr $C$DW$377, DW_AT_type(*$C$DW$T$19)
    5580                      .dwattr $C$DW$377, DW_AT_location[DW_OP_reg12]
    5581              $C$DW$378       .dwtag  DW_TAG_formal_parameter, DW_AT_name("stringName")
    5582                      .dwattr $C$DW$378, DW_AT_TI_symbol_name("_stringName")
    5583                      .dwattr $C$DW$378, DW_AT_type(*$C$DW$T$187)
TMS320C55x Assembler PC v4.4.1 Sat Sep 29 23:08:40 2018

Tools Copyright (c) 1996-2012 Texas Instruments Incorporated
csl_usb_dma_example.asm                                              PAGE  135

    5584                      .dwattr $C$DW$378, DW_AT_location[DW_OP_reg17]
    5585              ;*******************************************************************************
    5586              ;* FUNCTION NAME: printFunction                                                *
    5587              ;*                                                                             *
    5588              ;*   Function Uses Regs : T0,AR0,XAR0,AR1,AR2,AR3,XAR3,SP,TC1,M40,SATA,SATD,   *
    5589              ;*                        RDM,FRCT,SMUL                                        *
    5590              ;*   Stack Frame        : Compact (No Frame Pointer, w/ debug)                 *
    5591              ;*   Total Frame Size   : 10 words                                             *
    5592              ;*                        (2 return address/alignment)                         *
    5593              ;*                        (4 function parameters)                              *
    5594              ;*                        (4 local values)                                     *
    5595              ;*   Min System Stack   : 1 word                                               *
    5596              ;*******************************************************************************
    5597 001088       _printFunction:
    5598                      .dwcfi  cfa_offset, 1
    5599                      .dwcfi  save_reg_to_mem, 91, -1
    5600 001088 4EF7          AADD #-9, SP
    5601                      .dwcfi  cfa_offset, 10
    5602              $C$DW$379       .dwtag  DW_TAG_variable, DW_AT_name("printCase")
    5603                      .dwattr $C$DW$379, DW_AT_TI_symbol_name("_printCase")
    5604                      .dwattr $C$DW$379, DW_AT_type(*$C$DW$T$19)
    5605                      .dwattr $C$DW$379, DW_AT_location[DW_OP_bregx 0x24 4]
    5606              $C$DW$380       .dwtag  DW_TAG_variable, DW_AT_name("stringName")
    5607                      .dwattr $C$DW$380, DW_AT_TI_symbol_name("_stringName")
    5608                      .dwattr $C$DW$380, DW_AT_type(*$C$DW$T$187)
    5609                      .dwattr $C$DW$380, DW_AT_location[DW_OP_bregx 0x24 6]
    5610 00108a EB0C          MOV XAR0, dbl(*SP(#6))
         00108c 85   
    5611 00108d C408          MOV T0, *SP(#4) ; |849| 
    5612                      .dwpsn  file "../c5535_bsl_revc/ezdsp5535_v1/c55xx_csl/ccs_v4.0_examples/usb/CSL_USB_DmaExample/csl_u
    5613 00108f 0600          B $C$L129 ; |850| 
         001091 43   
    5614                                                      ; branch occurs ; |850| 
    5615 001092       $C$L125:    
    5616                      .dwpsn  file "../c5535_bsl_revc/ezdsp5535_v1/c55xx_csl/ccs_v4.0_examples/usb/CSL_USB_DmaExample/csl_u
    5617 001092 EC31          AMOV #$C$FSL10, XAR3 ; |853| 
         001094 BE00 
         001096 00B4+
    5618 001098 EB00          MOV XAR3, dbl(*SP(#0))
         00109a B5   
    5619              $C$DW$381       .dwtag  DW_TAG_TI_branch
    5620                      .dwattr $C$DW$381, DW_AT_low_pc(0x00)
    5621                      .dwattr $C$DW$381, DW_AT_name("_printf")
    5622                      .dwattr $C$DW$381, DW_AT_TI_call
    5623 00109b 6C00          CALL #_printf ; |853| 
         00109d 0000!
    5624                                                      ; call occurs [#_printf] ; |853| 
    5625                      .dwpsn  file "../c5535_bsl_revc/ezdsp5535_v1/c55xx_csl/ccs_v4.0_examples/usb/CSL_USB_DmaExample/csl_u
    5626 00109f 0600          B $C$L130 ; |854| 
         0010a1 4A   
    5627                                                      ; branch occurs ; |854| 
    5628 0010a2       $C$L126:    
    5629                      .dwpsn  file "../c5535_bsl_revc/ezdsp5535_v1/c55xx_csl/ccs_v4.0_examples/usb/CSL_USB_DmaExample/csl_u
    5630 0010a2 EC31          AMOV #$C$FSL11, XAR3 ; |856| 
         0010a4 BE00 
TMS320C55x Assembler PC v4.4.1 Sat Sep 29 23:08:40 2018

Tools Copyright (c) 1996-2012 Texas Instruments Incorporated
csl_usb_dma_example.asm                                              PAGE  136

         0010a6 00C4+
    5631 0010a8 EB00          MOV XAR3, dbl(*SP(#0))
         0010aa B5   
    5632 0010ab ED0C          MOV dbl(*SP(#6)), XAR3
         0010ad BF   
    5633 0010ae EB04          MOV XAR3, dbl(*SP(#2))
         0010b0 B5   
    5634              $C$DW$382       .dwtag  DW_TAG_TI_branch
    5635                      .dwattr $C$DW$382, DW_AT_low_pc(0x00)
    5636                      .dwattr $C$DW$382, DW_AT_name("_printf")
    5637                      .dwattr $C$DW$382, DW_AT_TI_call
    5638 0010b1 6C00          CALL #_printf ; |856| 
         0010b3 0000!
    5639                                                      ; call occurs [#_printf] ; |856| 
    5640                      .dwpsn  file "../c5535_bsl_revc/ezdsp5535_v1/c55xx_csl/ccs_v4.0_examples/usb/CSL_USB_DmaExample/csl_u
    5641 0010b5 4A35          B $C$L130 ; |857| 
    5642                                                      ; branch occurs ; |857| 
    5643 0010b7       $C$L127:    
    5644                      .dwpsn  file "../c5535_bsl_revc/ezdsp5535_v1/c55xx_csl/ccs_v4.0_examples/usb/CSL_USB_DmaExample/csl_u
    5645 0010b7 EC31          AMOV #$C$FSL12, XAR3 ; |859| 
         0010b9 BE00 
         0010bb 00D2+
    5646 0010bd EB00          MOV XAR3, dbl(*SP(#0))
         0010bf B5   
    5647              $C$DW$383       .dwtag  DW_TAG_TI_branch
    5648                      .dwattr $C$DW$383, DW_AT_low_pc(0x00)
    5649                      .dwattr $C$DW$383, DW_AT_name("_printf")
    5650                      .dwattr $C$DW$383, DW_AT_TI_call
    5651 0010c0 6C00          CALL #_printf ; |859| 
         0010c2 0000!
    5652                                                      ; call occurs [#_printf] ; |859| 
    5653                      .dwpsn  file "../c5535_bsl_revc/ezdsp5535_v1/c55xx_csl/ccs_v4.0_examples/usb/CSL_USB_DmaExample/csl_u
    5654 0010c4 4A26          B $C$L130 ; |860| 
    5655                                                      ; branch occurs ; |860| 
    5656 0010c6       $C$L128:    
    5657                      .dwpsn  file "../c5535_bsl_revc/ezdsp5535_v1/c55xx_csl/ccs_v4.0_examples/usb/CSL_USB_DmaExample/csl_u
    5658 0010c6 EC31          AMOV #$C$FSL13, XAR3 ; |862| 
         0010c8 BE00 
         0010ca 00EA+
    5659 0010cc EB00          MOV XAR3, dbl(*SP(#0))
         0010ce B5   
    5660              $C$DW$384       .dwtag  DW_TAG_TI_branch
    5661                      .dwattr $C$DW$384, DW_AT_low_pc(0x00)
    5662                      .dwattr $C$DW$384, DW_AT_name("_printf")
    5663                      .dwattr $C$DW$384, DW_AT_TI_call
    5664 0010cf 6C00          CALL #_printf ; |862| 
         0010d1 0000!
    5665                                                      ; call occurs [#_printf] ; |862| 
    5666                      .dwpsn  file "../c5535_bsl_revc/ezdsp5535_v1/c55xx_csl/ccs_v4.0_examples/usb/CSL_USB_DmaExample/csl_u
    5667 0010d3 4A17          B $C$L130 ; |863| 
    5668                                                      ; branch occurs ; |863| 
    5669 0010d5       $C$L129:    
    5670                      .dwpsn  file "../c5535_bsl_revc/ezdsp5535_v1/c55xx_csl/ccs_v4.0_examples/usb/CSL_USB_DmaExample/csl_u
    5671 0010d5 2249          MOV T0, AR1
    5672 0010d7 0409          BCC $C$L125,AR1 == #0 ; |850| 
TMS320C55x Assembler PC v4.4.1 Sat Sep 29 23:08:40 2018

Tools Copyright (c) 1996-2012 Texas Instruments Incorporated
csl_usb_dma_example.asm                                              PAGE  137

         0010d9 B8   
    5673                                                      ; branchcc occurs ; |850| 
    5674 0010da 3C1A          MOV #1, AR2
    5675 0010dc 1290          CMPU AR1 == AR2, TC1 ; |850| 
         0010de A4   
    5676 0010df 0464          BCC $C$L126,TC1 ; |850| 
         0010e1 C0   
    5677                                                      ; branchcc occurs ; |850| 
    5678 0010e2 3C2A          MOV #2, AR2
    5679 0010e4 1290          CMPU AR1 == AR2, TC1 ; |850| 
         0010e6 A4   
    5680 0010e7 0464          BCC $C$L127,TC1 ; |850| 
         0010e9 CD   
    5681                                                      ; branchcc occurs ; |850| 
    5682 0010ea 4A5A          B $C$L128 ; |850| 
    5683                                                      ; branch occurs ; |850| 
    5684 0010ec       $C$L130:    
    5685 0010ec 4E09          AADD #9, SP
    5686                      .dwcfi  cfa_offset, 1
    5687              $C$DW$385       .dwtag  DW_TAG_TI_branch
    5688                      .dwattr $C$DW$385, DW_AT_low_pc(0x00)
    5689                      .dwattr $C$DW$385, DW_AT_TI_return
    5690 0010ee 4804          RET
    5691                                                      ; return occurs
    5692                      .dwattr $C$DW$376, DW_AT_TI_end_file("../c5535_bsl_revc/ezdsp5535_v1/c55xx_csl/ccs_v4.0_examples/usb/
    5693                      .dwattr $C$DW$376, DW_AT_TI_end_line(0x361)
    5694                      .dwattr $C$DW$376, DW_AT_TI_end_column(0x01)
    5695                      .dwendentry
    5696                      .dwendtag $C$DW$376
    5697              
    5698              ;*******************************************************************************
    5699              ;* FAR STRINGS                                                                 *
    5700              ;*******************************************************************************
    5701 000000               .sect   ".const:.string"
    5702                      .align  2
    5703 000000 0055  $C$FSL1:        .string "USB init",0
         000001 0053 
         000002 0042 
         000003 0020 
         000004 0069 
         000005 006E 
         000006 0069 
         000007 0074 
         000008 0000 
    5704                      .align  2
    5705 00000a 0055  $C$FSL2:        .string "USB Device Reset",0
         00000b 0053 
         00000c 0042 
         00000d 0020 
         00000e 0044 
         00000f 0065 
         000010 0076 
         000011 0069 
         000012 0063 
         000013 0065 
TMS320C55x Assembler PC v4.4.1 Sat Sep 29 23:08:40 2018

Tools Copyright (c) 1996-2012 Texas Instruments Incorporated
csl_usb_dma_example.asm                                              PAGE  138

         000014 0020 
         000015 0052 
         000016 0065 
         000017 0073 
         000018 0065 
         000019 0074 
         00001a 0000 
    5706                      .align  2
    5707 00001c 0055  $C$FSL3:        .string "USB Endpoint init",0
         00001d 0053 
         00001e 0042 
         00001f 0020 
         000020 0045 
         000021 006E 
         000022 0064 
         000023 0070 
         000024 006F 
         000025 0069 
         000026 006E 
         000027 0074 
         000028 0020 
         000029 0069 
         00002a 006E 
         00002b 0069 
         00002c 0074 
         00002d 0000 
    5708                      .align  2
    5709 00002e 0055  $C$FSL4:        .string "USB Set Params",0
         00002f 0053 
         000030 0042 
         000031 0020 
         000032 0053 
         000033 0065 
         000034 0074 
         000035 0020 
         000036 0050 
         000037 0061 
         000038 0072 
         000039 0061 
         00003a 006D 
         00003b 0073 
         00003c 0000 
    5710                      .align  2
    5711 00003e 0055  $C$FSL5:        .string "USB Connect",0
         00003f 0053 
         000040 0042 
         000041 0020 
         000042 0043 
         000043 006F 
         000044 006E 
         000045 006E 
         000046 0065 
         000047 0063 
         000048 0074 
         000049 0000 
TMS320C55x Assembler PC v4.4.1 Sat Sep 29 23:08:40 2018

Tools Copyright (c) 1996-2012 Texas Instruments Incorporated
csl_usb_dma_example.asm                                              PAGE  139

    5712                      .align  2
    5713 00004a 000A  $C$FSL6:        .string 10,"USB Cable Disconnected!!",10,0
         00004b 0055 
         00004c 0053 
         00004d 0042 
         00004e 0020 
         00004f 0043 
         000050 0061 
         000051 0062 
         000052 006C 
         000053 0065 
         000054 0020 
         000055 0044 
         000056 0069 
         000057 0073 
         000058 0063 
         000059 006F 
         00005a 006E 
         00005b 006E 
         00005c 0065 
         00005d 0063 
         00005e 0074 
         00005f 0065 
         000060 0064 
         000061 0021 
         000062 0021 
         000063 000A 
         000064 0000 
    5714                      .align  2
    5715 000066 0055  $C$FSL7:        .string "USB Cable Connection Detected!!",10,0
         000067 0053 
         000068 0042 
         000069 0020 
         00006a 0043 
         00006b 0061 
         00006c 0062 
         00006d 006C 
         00006e 0065 
         00006f 0020 
         000070 0043 
         000071 006F 
         000072 006E 
         000073 006E 
         000074 0065 
         000075 0063 
         000076 0074 
         000077 0069 
         000078 006F 
         000079 006E 
         00007a 0020 
         00007b 0044 
         00007c 0065 
         00007d 0074 
         00007e 0065 
         00007f 0063 
TMS320C55x Assembler PC v4.4.1 Sat Sep 29 23:08:40 2018

Tools Copyright (c) 1996-2012 Texas Instruments Incorporated
csl_usb_dma_example.asm                                              PAGE  140

         000080 0074 
         000081 0065 
         000082 0064 
         000083 0021 
         000084 0021 
         000085 000A 
         000086 0000 
    5716                      .align  2
    5717 000088 0055  $C$FSL8:        .string "USB Resume failed",10,0
         000089 0053 
         00008a 0042 
         00008b 0020 
         00008c 0052 
         00008d 0065 
         00008e 0073 
         00008f 0075 
         000090 006D 
         000091 0065 
         000092 0020 
         000093 0066 
         000094 0061 
         000095 0069 
         000096 006C 
         000097 0065 
         000098 0064 
         000099 000A 
         00009a 0000 
    5718                      .align  2
    5719 00009c 000A  $C$FSL9:        .string 10,"USB SUSPEND Callback",10,0
         00009d 0055 
         00009e 0053 
         00009f 0042 
         0000a0 0020 
         0000a1 0053 
         0000a2 0055 
         0000a3 0053 
         0000a4 0050 
         0000a5 0045 
         0000a6 004E 
         0000a7 0044 
         0000a8 0020 
         0000a9 0043 
         0000aa 0061 
         0000ab 006C 
         0000ac 006C 
         0000ad 0062 
         0000ae 0061 
         0000af 0063 
         0000b0 006B 
         0000b1 000A 
         0000b2 0000 
    5720                      .align  2
    5721 0000b4 0055  $C$FSL10:       .string "USB DMA TEST!",10,0
         0000b5 0053 
         0000b6 0042 
TMS320C55x Assembler PC v4.4.1 Sat Sep 29 23:08:40 2018

Tools Copyright (c) 1996-2012 Texas Instruments Incorporated
csl_usb_dma_example.asm                                              PAGE  141

         0000b7 0020 
         0000b8 0044 
         0000b9 004D 
         0000ba 0041 
         0000bb 0020 
         0000bc 0054 
         0000bd 0045 
         0000be 0053 
         0000bf 0054 
         0000c0 0021 
         0000c1 000A 
         0000c2 0000 
    5722                      .align  2
    5723 0000c4 0025  $C$FSL11:       .string "%s Failed!!",10,0
         0000c5 0073 
         0000c6 0020 
         0000c7 0046 
         0000c8 0061 
         0000c9 0069 
         0000ca 006C 
         0000cb 0065 
         0000cc 0064 
         0000cd 0021 
         0000ce 0021 
         0000cf 000A 
         0000d0 0000 
    5724                      .align  2
    5725 0000d2 0055  $C$FSL12:       .string "USB DMA TEST PASSED!!",10,0
         0000d3 0053 
         0000d4 0042 
         0000d5 0020 
         0000d6 0044 
         0000d7 004D 
         0000d8 0041 
         0000d9 0020 
         0000da 0054 
         0000db 0045 
         0000dc 0053 
         0000dd 0054 
         0000de 0020 
         0000df 0050 
         0000e0 0041 
         0000e1 0053 
         0000e2 0053 
         0000e3 0045 
         0000e4 0044 
         0000e5 0021 
         0000e6 0021 
         0000e7 000A 
         0000e8 0000 
    5726                      .align  2
    5727 0000ea 0055  $C$FSL13:       .string "USB DMA TEST FAILED!!",10,0
         0000eb 0053 
         0000ec 0042 
         0000ed 0020 
TMS320C55x Assembler PC v4.4.1 Sat Sep 29 23:08:40 2018

Tools Copyright (c) 1996-2012 Texas Instruments Incorporated
csl_usb_dma_example.asm                                              PAGE  142

         0000ee 0044 
         0000ef 004D 
         0000f0 0041 
         0000f1 0020 
         0000f2 0054 
         0000f3 0045 
         0000f4 0053 
         0000f5 0054 
         0000f6 0020 
         0000f7 0046 
         0000f8 0041 
         0000f9 0049 
         0000fa 004C 
         0000fb 0045 
         0000fc 0044 
         0000fd 0021 
         0000fe 0021 
         0000ff 000A 
         000100 0000 
    5728              ;******************************************************************************
    5729              ;* UNDEFINED EXTERNAL REFERENCES                                              *
    5730              ;******************************************************************************
    5731                      .global _printf
    5732                      .global _USB_init
    5733                      .global _USB_resetDev
    5734                      .global _USB_initEndptObj
    5735                      .global _USB_getSetupPacket
    5736                      .global _USB_postTransaction
    5737                      .global _USB_stallEndpt
    5738                      .global _USB_clearEndptStall
    5739                      .global _USB_getEndptStall
    5740                      .global _USB_epNumToHandle
    5741                      .global _USB_connectDev
    5742                      .global _USB_disconnectDev
    5743                      .global _USB_setRemoteWakeup
    5744                      .global _USB_getRemoteWakeupStat
    5745                      .global _USB_issueRemoteWakeup
    5746                      .global _USB_setDevAddr
    5747                      .global _USB_suspendDevice
    5748                      .global _USB_setParams
    5749                      .global _IRQ_plug
    5750                      .global _IRQ_enable
    5751                      .global _IRQ_setVecs
    5752                      .global _IRQ_globalDisable
    5753                      .global _IRQ_globalEnable
    5754                      .global _IRQ_globalRestore
    5755                      .global _VECSTART
    5756                      .global _usbRegisters
    5757                      .global _sysCtrlRegs
    5758                      .global _gUsbContext
    5759                      .global _memcpy
    5760              
    5761              ;*******************************************************************************
    5762              ;* TYPE INFORMATION                                                            *
    5763              ;*******************************************************************************
TMS320C55x Assembler PC v4.4.1 Sat Sep 29 23:08:40 2018

Tools Copyright (c) 1996-2012 Texas Instruments Incorporated
csl_usb_dma_example.asm                                              PAGE  143

    5764              
    5765              $C$DW$T$72      .dwtag  DW_TAG_enumeration_type
    5766                      .dwattr $C$DW$T$72, DW_AT_byte_size(0x01)
    5767              $C$DW$386       .dwtag  DW_TAG_enumerator, DW_AT_name("CSL_USB0"), DW_AT_const_value(0x00)
    5768              $C$DW$387       .dwtag  DW_TAG_enumerator, DW_AT_name("CSL_USB1"), DW_AT_const_value(0x01)
    5769              $C$DW$388       .dwtag  DW_TAG_enumerator, DW_AT_name("CSL_USB2"), DW_AT_const_value(0x02)
    5770                      .dwendtag $C$DW$T$72
    5771              
    5772              $C$DW$T$73      .dwtag  DW_TAG_typedef, DW_AT_name("CSL_UsbDevNum")
    5773                      .dwattr $C$DW$T$73, DW_AT_type(*$C$DW$T$72)
    5774                      .dwattr $C$DW$T$73, DW_AT_language(DW_LANG_C)
    5775              
    5776              $C$DW$T$74      .dwtag  DW_TAG_enumeration_type
    5777                      .dwattr $C$DW$T$74, DW_AT_byte_size(0x01)
    5778              $C$DW$389       .dwtag  DW_TAG_enumerator, DW_AT_name("CSL_USB_OPMODE_POLLED"), DW_AT_const_value(0x00)
    5779              $C$DW$390       .dwtag  DW_TAG_enumerator, DW_AT_name("CSL_USB_OPMODE_DMA"), DW_AT_const_value(0x01)
    5780              $C$DW$391       .dwtag  DW_TAG_enumerator, DW_AT_name("CSL_USB_OPMODE_DMA_TXONLY"), DW_AT_const_value(0x02)
    5781                      .dwendtag $C$DW$T$74
    5782              
    5783              $C$DW$T$75      .dwtag  DW_TAG_typedef, DW_AT_name("CSL_UsbOpMode")
    5784                      .dwattr $C$DW$T$75, DW_AT_type(*$C$DW$T$74)
    5785                      .dwattr $C$DW$T$75, DW_AT_language(DW_LANG_C)
    5786              
    5787              $C$DW$T$91      .dwtag  DW_TAG_enumeration_type
    5788                      .dwattr $C$DW$T$91, DW_AT_byte_size(0x01)
    5789              $C$DW$392       .dwtag  DW_TAG_enumerator, DW_AT_name("CSL_USB_FALSE"), DW_AT_const_value(0x00)
    5790              $C$DW$393       .dwtag  DW_TAG_enumerator, DW_AT_name("CSL_USB_TRUE"), DW_AT_const_value(0x01)
    5791                      .dwendtag $C$DW$T$91
    5792              
    5793              $C$DW$T$92      .dwtag  DW_TAG_typedef, DW_AT_name("CSL_UsbBoolean")
    5794                      .dwattr $C$DW$T$92, DW_AT_type(*$C$DW$T$91)
    5795                      .dwattr $C$DW$T$92, DW_AT_language(DW_LANG_C)
    5796              
    5797              $C$DW$T$95      .dwtag  DW_TAG_enumeration_type
    5798                      .dwattr $C$DW$T$95, DW_AT_byte_size(0x01)
    5799              $C$DW$394       .dwtag  DW_TAG_enumerator, DW_AT_name("CSL_USB_BS_UNKNOWN_SPEED"), DW_AT_const_value(0x00)
    5800              $C$DW$395       .dwtag  DW_TAG_enumerator, DW_AT_name("CSL_USB_BS_FULL_SPEED"), DW_AT_const_value(0x02)
    5801              $C$DW$396       .dwtag  DW_TAG_enumerator, DW_AT_name("CSL_USB_BS_HIGH_SPEED"), DW_AT_const_value(0x04)
    5802                      .dwendtag $C$DW$T$95
    5803              
    5804              $C$DW$T$96      .dwtag  DW_TAG_typedef, DW_AT_name("CSL_UsbBusSpeed")
    5805                      .dwattr $C$DW$T$96, DW_AT_type(*$C$DW$T$95)
    5806                      .dwattr $C$DW$T$96, DW_AT_language(DW_LANG_C)
    5807              
    5808              $C$DW$T$97      .dwtag  DW_TAG_enumeration_type
    5809                      .dwattr $C$DW$T$97, DW_AT_byte_size(0x01)
    5810              $C$DW$397       .dwtag  DW_TAG_enumerator, DW_AT_name("CSL_USB_EP0_IDLE"), DW_AT_const_value(0x00)
    5811              $C$DW$398       .dwtag  DW_TAG_enumerator, DW_AT_name("CSL_USB_EP0_STATUS_IN"), DW_AT_const_value(0x01)
    5812              $C$DW$399       .dwtag  DW_TAG_enumerator, DW_AT_name("CSL_USB_EP0_TX"), DW_AT_const_value(0x02)
    5813              $C$DW$400       .dwtag  DW_TAG_enumerator, DW_AT_name("CSL_USB_EP0_RX"), DW_AT_const_value(0x03)
    5814                      .dwendtag $C$DW$T$97
    5815              
    5816              $C$DW$T$98      .dwtag  DW_TAG_typedef, DW_AT_name("CSL_UsbEp0State")
    5817                      .dwattr $C$DW$T$98, DW_AT_type(*$C$DW$T$97)
    5818                      .dwattr $C$DW$T$98, DW_AT_language(DW_LANG_C)
TMS320C55x Assembler PC v4.4.1 Sat Sep 29 23:08:40 2018

Tools Copyright (c) 1996-2012 Texas Instruments Incorporated
csl_usb_dma_example.asm                                              PAGE  144

    5819              
    5820              $C$DW$T$99      .dwtag  DW_TAG_enumeration_type
    5821                      .dwattr $C$DW$T$99, DW_AT_byte_size(0x01)
    5822              $C$DW$401       .dwtag  DW_TAG_enumerator, DW_AT_name("CSL_USB_DEVICE_DETACH"), DW_AT_const_value(0x00)
    5823              $C$DW$402       .dwtag  DW_TAG_enumerator, DW_AT_name("CSL_USB_DEVICE_ATTACH"), DW_AT_const_value(0x01)
    5824                      .dwendtag $C$DW$T$99
    5825              
    5826              $C$DW$T$100     .dwtag  DW_TAG_typedef, DW_AT_name("CSL_UsbDeviceEvent")
    5827                      .dwattr $C$DW$T$100, DW_AT_type(*$C$DW$T$99)
    5828                      .dwattr $C$DW$T$100, DW_AT_language(DW_LANG_C)
    5829              
    5830              $C$DW$T$111     .dwtag  DW_TAG_enumeration_type
    5831                      .dwattr $C$DW$T$111, DW_AT_byte_size(0x01)
    5832              $C$DW$403       .dwtag  DW_TAG_enumerator, DW_AT_name("CSL_USB_OUT_EP0"), DW_AT_const_value(0x00)
    5833              $C$DW$404       .dwtag  DW_TAG_enumerator, DW_AT_name("CSL_USB_OUT_EP1"), DW_AT_const_value(0x01)
    5834              $C$DW$405       .dwtag  DW_TAG_enumerator, DW_AT_name("CSL_USB_OUT_EP2"), DW_AT_const_value(0x02)
    5835              $C$DW$406       .dwtag  DW_TAG_enumerator, DW_AT_name("CSL_USB_OUT_EP3"), DW_AT_const_value(0x03)
    5836              $C$DW$407       .dwtag  DW_TAG_enumerator, DW_AT_name("CSL_USB_OUT_EP4"), DW_AT_const_value(0x04)
    5837              $C$DW$408       .dwtag  DW_TAG_enumerator, DW_AT_name("CSL_USB_OUT_EP5"), DW_AT_const_value(0x05)
    5838              $C$DW$409       .dwtag  DW_TAG_enumerator, DW_AT_name("CSL_USB_OUT_EP6"), DW_AT_const_value(0x06)
    5839              $C$DW$410       .dwtag  DW_TAG_enumerator, DW_AT_name("CSL_USB_OUT_EP7"), DW_AT_const_value(0x07)
    5840              $C$DW$411       .dwtag  DW_TAG_enumerator, DW_AT_name("CSL_USB_IN_EP0"), DW_AT_const_value(0x08)
    5841              $C$DW$412       .dwtag  DW_TAG_enumerator, DW_AT_name("CSL_USB_IN_EP1"), DW_AT_const_value(0x09)
    5842              $C$DW$413       .dwtag  DW_TAG_enumerator, DW_AT_name("CSL_USB_IN_EP2"), DW_AT_const_value(0x0a)
    5843              $C$DW$414       .dwtag  DW_TAG_enumerator, DW_AT_name("CSL_USB_IN_EP3"), DW_AT_const_value(0x0b)
    5844              $C$DW$415       .dwtag  DW_TAG_enumerator, DW_AT_name("CSL_USB_IN_EP4"), DW_AT_const_value(0x0c)
    5845              $C$DW$416       .dwtag  DW_TAG_enumerator, DW_AT_name("CSL_USB_IN_EP5"), DW_AT_const_value(0x0d)
    5846              $C$DW$417       .dwtag  DW_TAG_enumerator, DW_AT_name("CSL_USB_IN_EP6"), DW_AT_const_value(0x0e)
    5847              $C$DW$418       .dwtag  DW_TAG_enumerator, DW_AT_name("CSL_USB_IN_EP7"), DW_AT_const_value(0x0f)
    5848                      .dwendtag $C$DW$T$111
    5849              
    5850              $C$DW$T$112     .dwtag  DW_TAG_typedef, DW_AT_name("CSL_UsbEpNum")
    5851                      .dwattr $C$DW$T$112, DW_AT_type(*$C$DW$T$111)
    5852                      .dwattr $C$DW$T$112, DW_AT_language(DW_LANG_C)
    5853              
    5854              $C$DW$T$113     .dwtag  DW_TAG_enumeration_type
    5855                      .dwattr $C$DW$T$113, DW_AT_byte_size(0x01)
    5856              $C$DW$419       .dwtag  DW_TAG_enumerator, DW_AT_name("CSL_USB_CTRL"), DW_AT_const_value(0x00)
    5857              $C$DW$420       .dwtag  DW_TAG_enumerator, DW_AT_name("CSL_USB_BULK"), DW_AT_const_value(0x01)
    5858              $C$DW$421       .dwtag  DW_TAG_enumerator, DW_AT_name("CSL_USB_INTR"), DW_AT_const_value(0x02)
    5859              $C$DW$422       .dwtag  DW_TAG_enumerator, DW_AT_name("CSL_USB_ISO"), DW_AT_const_value(0x03)
    5860              $C$DW$423       .dwtag  DW_TAG_enumerator, DW_AT_name("CSL_USB_HPORT"), DW_AT_const_value(0x04)
    5861                      .dwendtag $C$DW$T$113
    5862              
    5863              $C$DW$T$114     .dwtag  DW_TAG_typedef, DW_AT_name("CSL_UsbXferType")
    5864                      .dwattr $C$DW$T$114, DW_AT_type(*$C$DW$T$113)
    5865                      .dwattr $C$DW$T$114, DW_AT_language(DW_LANG_C)
    5866              
    5867              $C$DW$T$22      .dwtag  DW_TAG_structure_type
    5868                      .dwattr $C$DW$T$22, DW_AT_byte_size(0x08)
    5869              $C$DW$424       .dwtag  DW_TAG_member
    5870                      .dwattr $C$DW$424, DW_AT_type(*$C$DW$T$20)
    5871                      .dwattr $C$DW$424, DW_AT_name("TXFUNCADDR")
    5872                      .dwattr $C$DW$424, DW_AT_TI_symbol_name("_TXFUNCADDR")
    5873                      .dwattr $C$DW$424, DW_AT_data_member_location[DW_OP_plus_uconst 0x0]
TMS320C55x Assembler PC v4.4.1 Sat Sep 29 23:08:40 2018

Tools Copyright (c) 1996-2012 Texas Instruments Incorporated
csl_usb_dma_example.asm                                              PAGE  145

    5874                      .dwattr $C$DW$424, DW_AT_accessibility(DW_ACCESS_public)
    5875              $C$DW$425       .dwtag  DW_TAG_member
    5876                      .dwattr $C$DW$425, DW_AT_type(*$C$DW$T$20)
    5877                      .dwattr $C$DW$425, DW_AT_name("TXHUBADDR_TXHUBPORT")
    5878                      .dwattr $C$DW$425, DW_AT_TI_symbol_name("_TXHUBADDR_TXHUBPORT")
    5879                      .dwattr $C$DW$425, DW_AT_data_member_location[DW_OP_plus_uconst 0x1]
    5880                      .dwattr $C$DW$425, DW_AT_accessibility(DW_ACCESS_public)
    5881              $C$DW$426       .dwtag  DW_TAG_member
    5882                      .dwattr $C$DW$426, DW_AT_type(*$C$DW$T$21)
    5883                      .dwattr $C$DW$426, DW_AT_name("RSVD0")
    5884                      .dwattr $C$DW$426, DW_AT_TI_symbol_name("_RSVD0")
    5885                      .dwattr $C$DW$426, DW_AT_data_member_location[DW_OP_plus_uconst 0x2]
    5886                      .dwattr $C$DW$426, DW_AT_accessibility(DW_ACCESS_public)
    5887              $C$DW$427       .dwtag  DW_TAG_member
    5888                      .dwattr $C$DW$427, DW_AT_type(*$C$DW$T$20)
    5889                      .dwattr $C$DW$427, DW_AT_name("RXFUNCADDR")
    5890                      .dwattr $C$DW$427, DW_AT_TI_symbol_name("_RXFUNCADDR")
    5891                      .dwattr $C$DW$427, DW_AT_data_member_location[DW_OP_plus_uconst 0x4]
    5892                      .dwattr $C$DW$427, DW_AT_accessibility(DW_ACCESS_public)
    5893              $C$DW$428       .dwtag  DW_TAG_member
    5894                      .dwattr $C$DW$428, DW_AT_type(*$C$DW$T$20)
    5895                      .dwattr $C$DW$428, DW_AT_name("RXHUBADDR_RXHUBPORT")
    5896                      .dwattr $C$DW$428, DW_AT_TI_symbol_name("_RXHUBADDR_RXHUBPORT")
    5897                      .dwattr $C$DW$428, DW_AT_data_member_location[DW_OP_plus_uconst 0x5]
    5898                      .dwattr $C$DW$428, DW_AT_accessibility(DW_ACCESS_public)
    5899              $C$DW$429       .dwtag  DW_TAG_member
    5900                      .dwattr $C$DW$429, DW_AT_type(*$C$DW$T$21)
    5901                      .dwattr $C$DW$429, DW_AT_name("RSVD36")
    5902                      .dwattr $C$DW$429, DW_AT_TI_symbol_name("_RSVD36")
    5903                      .dwattr $C$DW$429, DW_AT_data_member_location[DW_OP_plus_uconst 0x6]
    5904                      .dwattr $C$DW$429, DW_AT_accessibility(DW_ACCESS_public)
    5905                      .dwendtag $C$DW$T$22
    5906              
    5907              $C$DW$T$39      .dwtag  DW_TAG_typedef, DW_AT_name("CSL_UsbEptrgRegs")
    5908                      .dwattr $C$DW$T$39, DW_AT_type(*$C$DW$T$22)
    5909                      .dwattr $C$DW$T$39, DW_AT_language(DW_LANG_C)
    5910              
    5911              $C$DW$T$40      .dwtag  DW_TAG_array_type
    5912                      .dwattr $C$DW$T$40, DW_AT_type(*$C$DW$T$39)
    5913                      .dwattr $C$DW$T$40, DW_AT_language(DW_LANG_C)
    5914                      .dwattr $C$DW$T$40, DW_AT_byte_size(0x28)
    5915              $C$DW$430       .dwtag  DW_TAG_subrange_type
    5916                      .dwattr $C$DW$430, DW_AT_upper_bound(0x04)
    5917                      .dwendtag $C$DW$T$40
    5918              
    5919              
    5920              $C$DW$T$24      .dwtag  DW_TAG_structure_type
    5921                      .dwattr $C$DW$T$24, DW_AT_byte_size(0x10)
    5922              $C$DW$431       .dwtag  DW_TAG_member
    5923                      .dwattr $C$DW$431, DW_AT_type(*$C$DW$T$20)
    5924                      .dwattr $C$DW$431, DW_AT_name("TXMAXP")
    5925                      .dwattr $C$DW$431, DW_AT_TI_symbol_name("_TXMAXP")
    5926                      .dwattr $C$DW$431, DW_AT_data_member_location[DW_OP_plus_uconst 0x0]
    5927                      .dwattr $C$DW$431, DW_AT_accessibility(DW_ACCESS_public)
    5928              $C$DW$432       .dwtag  DW_TAG_member
TMS320C55x Assembler PC v4.4.1 Sat Sep 29 23:08:40 2018

Tools Copyright (c) 1996-2012 Texas Instruments Incorporated
csl_usb_dma_example.asm                                              PAGE  146

    5929                      .dwattr $C$DW$432, DW_AT_type(*$C$DW$T$20)
    5930                      .dwattr $C$DW$432, DW_AT_name("PERI_TXCSR")
    5931                      .dwattr $C$DW$432, DW_AT_TI_symbol_name("_PERI_TXCSR")
    5932                      .dwattr $C$DW$432, DW_AT_data_member_location[DW_OP_plus_uconst 0x1]
    5933                      .dwattr $C$DW$432, DW_AT_accessibility(DW_ACCESS_public)
    5934              $C$DW$433       .dwtag  DW_TAG_member
    5935                      .dwattr $C$DW$433, DW_AT_type(*$C$DW$T$21)
    5936                      .dwattr $C$DW$433, DW_AT_name("RSVD0")
    5937                      .dwattr $C$DW$433, DW_AT_TI_symbol_name("_RSVD0")
    5938                      .dwattr $C$DW$433, DW_AT_data_member_location[DW_OP_plus_uconst 0x2]
    5939                      .dwattr $C$DW$433, DW_AT_accessibility(DW_ACCESS_public)
    5940              $C$DW$434       .dwtag  DW_TAG_member
    5941                      .dwattr $C$DW$434, DW_AT_type(*$C$DW$T$20)
    5942                      .dwattr $C$DW$434, DW_AT_name("RXMAXP")
    5943                      .dwattr $C$DW$434, DW_AT_TI_symbol_name("_RXMAXP")
    5944                      .dwattr $C$DW$434, DW_AT_data_member_location[DW_OP_plus_uconst 0x4]
    5945                      .dwattr $C$DW$434, DW_AT_accessibility(DW_ACCESS_public)
    5946              $C$DW$435       .dwtag  DW_TAG_member
    5947                      .dwattr $C$DW$435, DW_AT_type(*$C$DW$T$20)
    5948                      .dwattr $C$DW$435, DW_AT_name("PERI_RXCSR")
    5949                      .dwattr $C$DW$435, DW_AT_TI_symbol_name("_PERI_RXCSR")
    5950                      .dwattr $C$DW$435, DW_AT_data_member_location[DW_OP_plus_uconst 0x5]
    5951                      .dwattr $C$DW$435, DW_AT_accessibility(DW_ACCESS_public)
    5952              $C$DW$436       .dwtag  DW_TAG_member
    5953                      .dwattr $C$DW$436, DW_AT_type(*$C$DW$T$21)
    5954                      .dwattr $C$DW$436, DW_AT_name("RSVD1")
    5955                      .dwattr $C$DW$436, DW_AT_TI_symbol_name("_RSVD1")
    5956                      .dwattr $C$DW$436, DW_AT_data_member_location[DW_OP_plus_uconst 0x6]
    5957                      .dwattr $C$DW$436, DW_AT_accessibility(DW_ACCESS_public)
    5958              $C$DW$437       .dwtag  DW_TAG_member
    5959                      .dwattr $C$DW$437, DW_AT_type(*$C$DW$T$20)
    5960                      .dwattr $C$DW$437, DW_AT_name("RXCOUNT")
    5961                      .dwattr $C$DW$437, DW_AT_TI_symbol_name("_RXCOUNT")
    5962                      .dwattr $C$DW$437, DW_AT_data_member_location[DW_OP_plus_uconst 0x8]
    5963                      .dwattr $C$DW$437, DW_AT_accessibility(DW_ACCESS_public)
    5964              $C$DW$438       .dwtag  DW_TAG_member
    5965                      .dwattr $C$DW$438, DW_AT_type(*$C$DW$T$23)
    5966                      .dwattr $C$DW$438, DW_AT_name("RSVD41")
    5967                      .dwattr $C$DW$438, DW_AT_TI_symbol_name("_RSVD41")
    5968                      .dwattr $C$DW$438, DW_AT_data_member_location[DW_OP_plus_uconst 0x9]
    5969                      .dwattr $C$DW$438, DW_AT_accessibility(DW_ACCESS_public)
    5970                      .dwendtag $C$DW$T$24
    5971              
    5972              $C$DW$T$42      .dwtag  DW_TAG_typedef, DW_AT_name("CSL_UsbEpcsrRegs")
    5973                      .dwattr $C$DW$T$42, DW_AT_type(*$C$DW$T$24)
    5974                      .dwattr $C$DW$T$42, DW_AT_language(DW_LANG_C)
    5975              
    5976              $C$DW$T$43      .dwtag  DW_TAG_array_type
    5977                      .dwattr $C$DW$T$43, DW_AT_type(*$C$DW$T$42)
    5978                      .dwattr $C$DW$T$43, DW_AT_language(DW_LANG_C)
    5979                      .dwattr $C$DW$T$43, DW_AT_byte_size(0x40)
    5980              $C$DW$439       .dwtag  DW_TAG_subrange_type
    5981                      .dwattr $C$DW$439, DW_AT_upper_bound(0x03)
    5982                      .dwendtag $C$DW$T$43
    5983              
TMS320C55x Assembler PC v4.4.1 Sat Sep 29 23:08:40 2018

Tools Copyright (c) 1996-2012 Texas Instruments Incorporated
csl_usb_dma_example.asm                                              PAGE  147

    5984              
    5985              $C$DW$T$27      .dwtag  DW_TAG_structure_type
    5986                      .dwattr $C$DW$T$27, DW_AT_byte_size(0x20)
    5987              $C$DW$440       .dwtag  DW_TAG_member
    5988                      .dwattr $C$DW$440, DW_AT_type(*$C$DW$T$20)
    5989                      .dwattr $C$DW$440, DW_AT_name("TXGCR1")
    5990                      .dwattr $C$DW$440, DW_AT_TI_symbol_name("_TXGCR1")
    5991                      .dwattr $C$DW$440, DW_AT_data_member_location[DW_OP_plus_uconst 0x0]
    5992                      .dwattr $C$DW$440, DW_AT_accessibility(DW_ACCESS_public)
    5993              $C$DW$441       .dwtag  DW_TAG_member
    5994                      .dwattr $C$DW$441, DW_AT_type(*$C$DW$T$20)
    5995                      .dwattr $C$DW$441, DW_AT_name("TXGCR2")
    5996                      .dwattr $C$DW$441, DW_AT_TI_symbol_name("_TXGCR2")
    5997                      .dwattr $C$DW$441, DW_AT_data_member_location[DW_OP_plus_uconst 0x1]
    5998                      .dwattr $C$DW$441, DW_AT_accessibility(DW_ACCESS_public)
    5999              $C$DW$442       .dwtag  DW_TAG_member
    6000                      .dwattr $C$DW$442, DW_AT_type(*$C$DW$T$25)
    6001                      .dwattr $C$DW$442, DW_AT_name("RSVD0")
    6002                      .dwattr $C$DW$442, DW_AT_TI_symbol_name("_RSVD0")
    6003                      .dwattr $C$DW$442, DW_AT_data_member_location[DW_OP_plus_uconst 0x2]
    6004                      .dwattr $C$DW$442, DW_AT_accessibility(DW_ACCESS_public)
    6005              $C$DW$443       .dwtag  DW_TAG_member
    6006                      .dwattr $C$DW$443, DW_AT_type(*$C$DW$T$20)
    6007                      .dwattr $C$DW$443, DW_AT_name("RXGCR1")
    6008                      .dwattr $C$DW$443, DW_AT_TI_symbol_name("_RXGCR1")
    6009                      .dwattr $C$DW$443, DW_AT_data_member_location[DW_OP_plus_uconst 0x8]
    6010                      .dwattr $C$DW$443, DW_AT_accessibility(DW_ACCESS_public)
    6011              $C$DW$444       .dwtag  DW_TAG_member
    6012                      .dwattr $C$DW$444, DW_AT_type(*$C$DW$T$20)
    6013                      .dwattr $C$DW$444, DW_AT_name("RXGCR2")
    6014                      .dwattr $C$DW$444, DW_AT_TI_symbol_name("_RXGCR2")
    6015                      .dwattr $C$DW$444, DW_AT_data_member_location[DW_OP_plus_uconst 0x9]
    6016                      .dwattr $C$DW$444, DW_AT_accessibility(DW_ACCESS_public)
    6017              $C$DW$445       .dwtag  DW_TAG_member
    6018                      .dwattr $C$DW$445, DW_AT_type(*$C$DW$T$21)
    6019                      .dwattr $C$DW$445, DW_AT_name("RSVD1")
    6020                      .dwattr $C$DW$445, DW_AT_TI_symbol_name("_RSVD1")
    6021                      .dwattr $C$DW$445, DW_AT_data_member_location[DW_OP_plus_uconst 0xa]
    6022                      .dwattr $C$DW$445, DW_AT_accessibility(DW_ACCESS_public)
    6023              $C$DW$446       .dwtag  DW_TAG_member
    6024                      .dwattr $C$DW$446, DW_AT_type(*$C$DW$T$20)
    6025                      .dwattr $C$DW$446, DW_AT_name("RXHPCR1A")
    6026                      .dwattr $C$DW$446, DW_AT_TI_symbol_name("_RXHPCR1A")
    6027                      .dwattr $C$DW$446, DW_AT_data_member_location[DW_OP_plus_uconst 0xc]
    6028                      .dwattr $C$DW$446, DW_AT_accessibility(DW_ACCESS_public)
    6029              $C$DW$447       .dwtag  DW_TAG_member
    6030                      .dwattr $C$DW$447, DW_AT_type(*$C$DW$T$20)
    6031                      .dwattr $C$DW$447, DW_AT_name("RXHPCR2A")
    6032                      .dwattr $C$DW$447, DW_AT_TI_symbol_name("_RXHPCR2A")
    6033                      .dwattr $C$DW$447, DW_AT_data_member_location[DW_OP_plus_uconst 0xd]
    6034                      .dwattr $C$DW$447, DW_AT_accessibility(DW_ACCESS_public)
    6035              $C$DW$448       .dwtag  DW_TAG_member
    6036                      .dwattr $C$DW$448, DW_AT_type(*$C$DW$T$21)
    6037                      .dwattr $C$DW$448, DW_AT_name("RSVD2")
    6038                      .dwattr $C$DW$448, DW_AT_TI_symbol_name("_RSVD2")
TMS320C55x Assembler PC v4.4.1 Sat Sep 29 23:08:40 2018

Tools Copyright (c) 1996-2012 Texas Instruments Incorporated
csl_usb_dma_example.asm                                              PAGE  148

    6039                      .dwattr $C$DW$448, DW_AT_data_member_location[DW_OP_plus_uconst 0xe]
    6040                      .dwattr $C$DW$448, DW_AT_accessibility(DW_ACCESS_public)
    6041              $C$DW$449       .dwtag  DW_TAG_member
    6042                      .dwattr $C$DW$449, DW_AT_type(*$C$DW$T$20)
    6043                      .dwattr $C$DW$449, DW_AT_name("RXHPCR1B")
    6044                      .dwattr $C$DW$449, DW_AT_TI_symbol_name("_RXHPCR1B")
    6045                      .dwattr $C$DW$449, DW_AT_data_member_location[DW_OP_plus_uconst 0x10]
    6046                      .dwattr $C$DW$449, DW_AT_accessibility(DW_ACCESS_public)
    6047              $C$DW$450       .dwtag  DW_TAG_member
    6048                      .dwattr $C$DW$450, DW_AT_type(*$C$DW$T$20)
    6049                      .dwattr $C$DW$450, DW_AT_name("RXHPCR2B")
    6050                      .dwattr $C$DW$450, DW_AT_TI_symbol_name("_RXHPCR2B")
    6051                      .dwattr $C$DW$450, DW_AT_data_member_location[DW_OP_plus_uconst 0x11]
    6052                      .dwattr $C$DW$450, DW_AT_accessibility(DW_ACCESS_public)
    6053              $C$DW$451       .dwtag  DW_TAG_member
    6054                      .dwattr $C$DW$451, DW_AT_type(*$C$DW$T$26)
    6055                      .dwattr $C$DW$451, DW_AT_name("RSVD46")
    6056                      .dwattr $C$DW$451, DW_AT_TI_symbol_name("_RSVD46")
    6057                      .dwattr $C$DW$451, DW_AT_data_member_location[DW_OP_plus_uconst 0x12]
    6058                      .dwattr $C$DW$451, DW_AT_accessibility(DW_ACCESS_public)
    6059                      .dwendtag $C$DW$T$27
    6060              
    6061              $C$DW$T$46      .dwtag  DW_TAG_typedef, DW_AT_name("CSL_UsbChannelRegs")
    6062                      .dwattr $C$DW$T$46, DW_AT_type(*$C$DW$T$27)
    6063                      .dwattr $C$DW$T$46, DW_AT_language(DW_LANG_C)
    6064              
    6065              $C$DW$T$47      .dwtag  DW_TAG_array_type
    6066                      .dwattr $C$DW$T$47, DW_AT_type(*$C$DW$T$46)
    6067                      .dwattr $C$DW$T$47, DW_AT_language(DW_LANG_C)
    6068                      .dwattr $C$DW$T$47, DW_AT_byte_size(0x80)
    6069              $C$DW$452       .dwtag  DW_TAG_subrange_type
    6070                      .dwattr $C$DW$452, DW_AT_upper_bound(0x03)
    6071                      .dwendtag $C$DW$T$47
    6072              
    6073              
    6074              $C$DW$T$28      .dwtag  DW_TAG_structure_type
    6075                      .dwattr $C$DW$T$28, DW_AT_byte_size(0x04)
    6076              $C$DW$453       .dwtag  DW_TAG_member
    6077                      .dwattr $C$DW$453, DW_AT_type(*$C$DW$T$20)
    6078                      .dwattr $C$DW$453, DW_AT_name("ENTRYLSW")
    6079                      .dwattr $C$DW$453, DW_AT_TI_symbol_name("_ENTRYLSW")
    6080                      .dwattr $C$DW$453, DW_AT_data_member_location[DW_OP_plus_uconst 0x0]
    6081                      .dwattr $C$DW$453, DW_AT_accessibility(DW_ACCESS_public)
    6082              $C$DW$454       .dwtag  DW_TAG_member
    6083                      .dwattr $C$DW$454, DW_AT_type(*$C$DW$T$20)
    6084                      .dwattr $C$DW$454, DW_AT_name("ENTRYMSW")
    6085                      .dwattr $C$DW$454, DW_AT_TI_symbol_name("_ENTRYMSW")
    6086                      .dwattr $C$DW$454, DW_AT_data_member_location[DW_OP_plus_uconst 0x1]
    6087                      .dwattr $C$DW$454, DW_AT_accessibility(DW_ACCESS_public)
    6088              $C$DW$455       .dwtag  DW_TAG_member
    6089                      .dwattr $C$DW$455, DW_AT_type(*$C$DW$T$21)
    6090                      .dwattr $C$DW$455, DW_AT_name("RSVD49")
    6091                      .dwattr $C$DW$455, DW_AT_TI_symbol_name("_RSVD49")
    6092                      .dwattr $C$DW$455, DW_AT_data_member_location[DW_OP_plus_uconst 0x2]
    6093                      .dwattr $C$DW$455, DW_AT_accessibility(DW_ACCESS_public)
TMS320C55x Assembler PC v4.4.1 Sat Sep 29 23:08:40 2018

Tools Copyright (c) 1996-2012 Texas Instruments Incorporated
csl_usb_dma_example.asm                                              PAGE  149

    6094                      .dwendtag $C$DW$T$28
    6095              
    6096              $C$DW$T$50      .dwtag  DW_TAG_typedef, DW_AT_name("CSL_UsbCdmaschetblwordRegs")
    6097                      .dwattr $C$DW$T$50, DW_AT_type(*$C$DW$T$28)
    6098                      .dwattr $C$DW$T$50, DW_AT_language(DW_LANG_C)
    6099              
    6100              $C$DW$T$51      .dwtag  DW_TAG_array_type
    6101                      .dwattr $C$DW$T$51, DW_AT_type(*$C$DW$T$50)
    6102                      .dwattr $C$DW$T$51, DW_AT_language(DW_LANG_C)
    6103                      .dwattr $C$DW$T$51, DW_AT_byte_size(0x100)
    6104              $C$DW$456       .dwtag  DW_TAG_subrange_type
    6105                      .dwattr $C$DW$456, DW_AT_upper_bound(0x3f)
    6106                      .dwendtag $C$DW$T$51
    6107              
    6108              
    6109              $C$DW$T$30      .dwtag  DW_TAG_structure_type
    6110                      .dwattr $C$DW$T$30, DW_AT_byte_size(0x10)
    6111              $C$DW$457       .dwtag  DW_TAG_member
    6112                      .dwattr $C$DW$457, DW_AT_type(*$C$DW$T$20)
    6113                      .dwattr $C$DW$457, DW_AT_name("QMEMRBASE1")
    6114                      .dwattr $C$DW$457, DW_AT_TI_symbol_name("_QMEMRBASE1")
    6115                      .dwattr $C$DW$457, DW_AT_data_member_location[DW_OP_plus_uconst 0x0]
    6116                      .dwattr $C$DW$457, DW_AT_accessibility(DW_ACCESS_public)
    6117              $C$DW$458       .dwtag  DW_TAG_member
    6118                      .dwattr $C$DW$458, DW_AT_type(*$C$DW$T$20)
    6119                      .dwattr $C$DW$458, DW_AT_name("QMEMRBASE2")
    6120                      .dwattr $C$DW$458, DW_AT_TI_symbol_name("_QMEMRBASE2")
    6121                      .dwattr $C$DW$458, DW_AT_data_member_location[DW_OP_plus_uconst 0x1]
    6122                      .dwattr $C$DW$458, DW_AT_accessibility(DW_ACCESS_public)
    6123              $C$DW$459       .dwtag  DW_TAG_member
    6124                      .dwattr $C$DW$459, DW_AT_type(*$C$DW$T$21)
    6125                      .dwattr $C$DW$459, DW_AT_name("RSVD0")
    6126                      .dwattr $C$DW$459, DW_AT_TI_symbol_name("_RSVD0")
    6127                      .dwattr $C$DW$459, DW_AT_data_member_location[DW_OP_plus_uconst 0x2]
    6128                      .dwattr $C$DW$459, DW_AT_accessibility(DW_ACCESS_public)
    6129              $C$DW$460       .dwtag  DW_TAG_member
    6130                      .dwattr $C$DW$460, DW_AT_type(*$C$DW$T$20)
    6131                      .dwattr $C$DW$460, DW_AT_name("QMEMRCTRL1")
    6132                      .dwattr $C$DW$460, DW_AT_TI_symbol_name("_QMEMRCTRL1")
    6133                      .dwattr $C$DW$460, DW_AT_data_member_location[DW_OP_plus_uconst 0x4]
    6134                      .dwattr $C$DW$460, DW_AT_accessibility(DW_ACCESS_public)
    6135              $C$DW$461       .dwtag  DW_TAG_member
    6136                      .dwattr $C$DW$461, DW_AT_type(*$C$DW$T$20)
    6137                      .dwattr $C$DW$461, DW_AT_name("QMEMRCTRL2")
    6138                      .dwattr $C$DW$461, DW_AT_TI_symbol_name("_QMEMRCTRL2")
    6139                      .dwattr $C$DW$461, DW_AT_data_member_location[DW_OP_plus_uconst 0x5]
    6140                      .dwattr $C$DW$461, DW_AT_accessibility(DW_ACCESS_public)
    6141              $C$DW$462       .dwtag  DW_TAG_member
    6142                      .dwattr $C$DW$462, DW_AT_type(*$C$DW$T$29)
    6143                      .dwattr $C$DW$462, DW_AT_name("RSVD63")
    6144                      .dwattr $C$DW$462, DW_AT_TI_symbol_name("_RSVD63")
    6145                      .dwattr $C$DW$462, DW_AT_data_member_location[DW_OP_plus_uconst 0x6]
    6146                      .dwattr $C$DW$462, DW_AT_accessibility(DW_ACCESS_public)
    6147                      .dwendtag $C$DW$T$30
    6148              
TMS320C55x Assembler PC v4.4.1 Sat Sep 29 23:08:40 2018

Tools Copyright (c) 1996-2012 Texas Instruments Incorporated
csl_usb_dma_example.asm                                              PAGE  150

    6149              $C$DW$T$56      .dwtag  DW_TAG_typedef, DW_AT_name("CSL_UsbQmmemregrRegs")
    6150                      .dwattr $C$DW$T$56, DW_AT_type(*$C$DW$T$30)
    6151                      .dwattr $C$DW$T$56, DW_AT_language(DW_LANG_C)
    6152              
    6153              $C$DW$T$57      .dwtag  DW_TAG_array_type
    6154                      .dwattr $C$DW$T$57, DW_AT_type(*$C$DW$T$56)
    6155                      .dwattr $C$DW$T$57, DW_AT_language(DW_LANG_C)
    6156                      .dwattr $C$DW$T$57, DW_AT_byte_size(0x100)
    6157              $C$DW$463       .dwtag  DW_TAG_subrange_type
    6158                      .dwattr $C$DW$463, DW_AT_upper_bound(0x0f)
    6159                      .dwendtag $C$DW$T$57
    6160              
    6161              
    6162              $C$DW$T$32      .dwtag  DW_TAG_structure_type
    6163                      .dwattr $C$DW$T$32, DW_AT_byte_size(0x10)
    6164              $C$DW$464       .dwtag  DW_TAG_member
    6165                      .dwattr $C$DW$464, DW_AT_type(*$C$DW$T$31)
    6166                      .dwattr $C$DW$464, DW_AT_name("RSVD0")
    6167                      .dwattr $C$DW$464, DW_AT_TI_symbol_name("_RSVD0")
    6168                      .dwattr $C$DW$464, DW_AT_data_member_location[DW_OP_plus_uconst 0x0]
    6169                      .dwattr $C$DW$464, DW_AT_accessibility(DW_ACCESS_public)
    6170              $C$DW$465       .dwtag  DW_TAG_member
    6171                      .dwattr $C$DW$465, DW_AT_type(*$C$DW$T$20)
    6172                      .dwattr $C$DW$465, DW_AT_name("CTRL1D")
    6173                      .dwattr $C$DW$465, DW_AT_TI_symbol_name("_CTRL1D")
    6174                      .dwattr $C$DW$465, DW_AT_data_member_location[DW_OP_plus_uconst 0xc]
    6175                      .dwattr $C$DW$465, DW_AT_accessibility(DW_ACCESS_public)
    6176              $C$DW$466       .dwtag  DW_TAG_member
    6177                      .dwattr $C$DW$466, DW_AT_type(*$C$DW$T$20)
    6178                      .dwattr $C$DW$466, DW_AT_name("CTRL2D")
    6179                      .dwattr $C$DW$466, DW_AT_TI_symbol_name("_CTRL2D")
    6180                      .dwattr $C$DW$466, DW_AT_data_member_location[DW_OP_plus_uconst 0xd]
    6181                      .dwattr $C$DW$466, DW_AT_accessibility(DW_ACCESS_public)
    6182              $C$DW$467       .dwtag  DW_TAG_member
    6183                      .dwattr $C$DW$467, DW_AT_type(*$C$DW$T$21)
    6184                      .dwattr $C$DW$467, DW_AT_name("RSVD65")
    6185                      .dwattr $C$DW$467, DW_AT_TI_symbol_name("_RSVD65")
    6186                      .dwattr $C$DW$467, DW_AT_data_member_location[DW_OP_plus_uconst 0xe]
    6187                      .dwattr $C$DW$467, DW_AT_accessibility(DW_ACCESS_public)
    6188                      .dwendtag $C$DW$T$32
    6189              
    6190              $C$DW$T$59      .dwtag  DW_TAG_typedef, DW_AT_name("CSL_UsbQmqnRegs")
    6191                      .dwattr $C$DW$T$59, DW_AT_type(*$C$DW$T$32)
    6192                      .dwattr $C$DW$T$59, DW_AT_language(DW_LANG_C)
    6193              
    6194              $C$DW$T$60      .dwtag  DW_TAG_array_type
    6195                      .dwattr $C$DW$T$60, DW_AT_type(*$C$DW$T$59)
    6196                      .dwattr $C$DW$T$60, DW_AT_language(DW_LANG_C)
    6197                      .dwattr $C$DW$T$60, DW_AT_byte_size(0x400)
    6198              $C$DW$468       .dwtag  DW_TAG_subrange_type
    6199                      .dwattr $C$DW$468, DW_AT_upper_bound(0x3f)
    6200                      .dwendtag $C$DW$T$60
    6201              
    6202              
    6203              $C$DW$T$34      .dwtag  DW_TAG_structure_type
TMS320C55x Assembler PC v4.4.1 Sat Sep 29 23:08:40 2018

Tools Copyright (c) 1996-2012 Texas Instruments Incorporated
csl_usb_dma_example.asm                                              PAGE  151

    6204                      .dwattr $C$DW$T$34, DW_AT_byte_size(0x10)
    6205              $C$DW$469       .dwtag  DW_TAG_member
    6206                      .dwattr $C$DW$469, DW_AT_type(*$C$DW$T$20)
    6207                      .dwattr $C$DW$469, DW_AT_name("QSTATA")
    6208                      .dwattr $C$DW$469, DW_AT_TI_symbol_name("_QSTATA")
    6209                      .dwattr $C$DW$469, DW_AT_data_member_location[DW_OP_plus_uconst 0x0]
    6210                      .dwattr $C$DW$469, DW_AT_accessibility(DW_ACCESS_public)
    6211              $C$DW$470       .dwtag  DW_TAG_member
    6212                      .dwattr $C$DW$470, DW_AT_type(*$C$DW$T$33)
    6213                      .dwattr $C$DW$470, DW_AT_name("RSVD0")
    6214                      .dwattr $C$DW$470, DW_AT_TI_symbol_name("_RSVD0")
    6215                      .dwattr $C$DW$470, DW_AT_data_member_location[DW_OP_plus_uconst 0x1]
    6216                      .dwattr $C$DW$470, DW_AT_accessibility(DW_ACCESS_public)
    6217              $C$DW$471       .dwtag  DW_TAG_member
    6218                      .dwattr $C$DW$471, DW_AT_type(*$C$DW$T$20)
    6219                      .dwattr $C$DW$471, DW_AT_name("QSTAT1B")
    6220                      .dwattr $C$DW$471, DW_AT_TI_symbol_name("_QSTAT1B")
    6221                      .dwattr $C$DW$471, DW_AT_data_member_location[DW_OP_plus_uconst 0x4]
    6222                      .dwattr $C$DW$471, DW_AT_accessibility(DW_ACCESS_public)
    6223              $C$DW$472       .dwtag  DW_TAG_member
    6224                      .dwattr $C$DW$472, DW_AT_type(*$C$DW$T$20)
    6225                      .dwattr $C$DW$472, DW_AT_name("QSTAT2B")
    6226                      .dwattr $C$DW$472, DW_AT_TI_symbol_name("_QSTAT2B")
    6227                      .dwattr $C$DW$472, DW_AT_data_member_location[DW_OP_plus_uconst 0x5]
    6228                      .dwattr $C$DW$472, DW_AT_accessibility(DW_ACCESS_public)
    6229              $C$DW$473       .dwtag  DW_TAG_member
    6230                      .dwattr $C$DW$473, DW_AT_type(*$C$DW$T$21)
    6231                      .dwattr $C$DW$473, DW_AT_name("RSVD1")
    6232                      .dwattr $C$DW$473, DW_AT_TI_symbol_name("_RSVD1")
    6233                      .dwattr $C$DW$473, DW_AT_data_member_location[DW_OP_plus_uconst 0x6]
    6234                      .dwattr $C$DW$473, DW_AT_accessibility(DW_ACCESS_public)
    6235              $C$DW$474       .dwtag  DW_TAG_member
    6236                      .dwattr $C$DW$474, DW_AT_type(*$C$DW$T$20)
    6237                      .dwattr $C$DW$474, DW_AT_name("QSTAT1C")
    6238                      .dwattr $C$DW$474, DW_AT_TI_symbol_name("_QSTAT1C")
    6239                      .dwattr $C$DW$474, DW_AT_data_member_location[DW_OP_plus_uconst 0x8]
    6240                      .dwattr $C$DW$474, DW_AT_accessibility(DW_ACCESS_public)
    6241              $C$DW$475       .dwtag  DW_TAG_member
    6242                      .dwattr $C$DW$475, DW_AT_type(*$C$DW$T$23)
    6243                      .dwattr $C$DW$475, DW_AT_name("RSVD67")
    6244                      .dwattr $C$DW$475, DW_AT_TI_symbol_name("_RSVD67")
    6245                      .dwattr $C$DW$475, DW_AT_data_member_location[DW_OP_plus_uconst 0x9]
    6246                      .dwattr $C$DW$475, DW_AT_accessibility(DW_ACCESS_public)
    6247                      .dwendtag $C$DW$T$34
    6248              
    6249              $C$DW$T$62      .dwtag  DW_TAG_typedef, DW_AT_name("CSL_UsbQmqnsRegs")
    6250                      .dwattr $C$DW$T$62, DW_AT_type(*$C$DW$T$34)
    6251                      .dwattr $C$DW$T$62, DW_AT_language(DW_LANG_C)
    6252              
    6253              $C$DW$T$63      .dwtag  DW_TAG_array_type
    6254                      .dwattr $C$DW$T$63, DW_AT_type(*$C$DW$T$62)
    6255                      .dwattr $C$DW$T$63, DW_AT_language(DW_LANG_C)
    6256                      .dwattr $C$DW$T$63, DW_AT_byte_size(0x400)
    6257              $C$DW$476       .dwtag  DW_TAG_subrange_type
    6258                      .dwattr $C$DW$476, DW_AT_upper_bound(0x3f)
TMS320C55x Assembler PC v4.4.1 Sat Sep 29 23:08:40 2018

Tools Copyright (c) 1996-2012 Texas Instruments Incorporated
csl_usb_dma_example.asm                                              PAGE  152

    6259                      .dwendtag $C$DW$T$63
    6260              
    6261              
    6262              $C$DW$T$64      .dwtag  DW_TAG_structure_type
    6263                      .dwattr $C$DW$T$64, DW_AT_byte_size(0x6c00)
    6264              $C$DW$477       .dwtag  DW_TAG_member
    6265                      .dwattr $C$DW$477, DW_AT_type(*$C$DW$T$20)
    6266                      .dwattr $C$DW$477, DW_AT_name("REVID1")
    6267                      .dwattr $C$DW$477, DW_AT_TI_symbol_name("_REVID1")
    6268                      .dwattr $C$DW$477, DW_AT_data_member_location[DW_OP_plus_uconst 0x0]
    6269                      .dwattr $C$DW$477, DW_AT_accessibility(DW_ACCESS_public)
    6270              $C$DW$478       .dwtag  DW_TAG_member
    6271                      .dwattr $C$DW$478, DW_AT_type(*$C$DW$T$20)
    6272                      .dwattr $C$DW$478, DW_AT_name("REVID2")
    6273                      .dwattr $C$DW$478, DW_AT_TI_symbol_name("_REVID2")
    6274                      .dwattr $C$DW$478, DW_AT_data_member_location[DW_OP_plus_uconst 0x1]
    6275                      .dwattr $C$DW$478, DW_AT_accessibility(DW_ACCESS_public)
    6276              $C$DW$479       .dwtag  DW_TAG_member
    6277                      .dwattr $C$DW$479, DW_AT_type(*$C$DW$T$21)
    6278                      .dwattr $C$DW$479, DW_AT_name("RSVD0")
    6279                      .dwattr $C$DW$479, DW_AT_TI_symbol_name("_RSVD0")
    6280                      .dwattr $C$DW$479, DW_AT_data_member_location[DW_OP_plus_uconst 0x2]
    6281                      .dwattr $C$DW$479, DW_AT_accessibility(DW_ACCESS_public)
    6282              $C$DW$480       .dwtag  DW_TAG_member
    6283                      .dwattr $C$DW$480, DW_AT_type(*$C$DW$T$20)
    6284                      .dwattr $C$DW$480, DW_AT_name("CTRLR")
    6285                      .dwattr $C$DW$480, DW_AT_TI_symbol_name("_CTRLR")
    6286                      .dwattr $C$DW$480, DW_AT_data_member_location[DW_OP_plus_uconst 0x4]
    6287                      .dwattr $C$DW$480, DW_AT_accessibility(DW_ACCESS_public)
    6288              $C$DW$481       .dwtag  DW_TAG_member
    6289                      .dwattr $C$DW$481, DW_AT_type(*$C$DW$T$33)
    6290                      .dwattr $C$DW$481, DW_AT_name("RSVD1")
    6291                      .dwattr $C$DW$481, DW_AT_TI_symbol_name("_RSVD1")
    6292                      .dwattr $C$DW$481, DW_AT_data_member_location[DW_OP_plus_uconst 0x5]
    6293                      .dwattr $C$DW$481, DW_AT_accessibility(DW_ACCESS_public)
    6294              $C$DW$482       .dwtag  DW_TAG_member
    6295                      .dwattr $C$DW$482, DW_AT_type(*$C$DW$T$20)
    6296                      .dwattr $C$DW$482, DW_AT_name("STATR")
    6297                      .dwattr $C$DW$482, DW_AT_TI_symbol_name("_STATR")
    6298                      .dwattr $C$DW$482, DW_AT_data_member_location[DW_OP_plus_uconst 0x8]
    6299                      .dwattr $C$DW$482, DW_AT_accessibility(DW_ACCESS_public)
    6300              $C$DW$483       .dwtag  DW_TAG_member
    6301                      .dwattr $C$DW$483, DW_AT_type(*$C$DW$T$33)
    6302                      .dwattr $C$DW$483, DW_AT_name("RSVD2")
    6303                      .dwattr $C$DW$483, DW_AT_TI_symbol_name("_RSVD2")
    6304                      .dwattr $C$DW$483, DW_AT_data_member_location[DW_OP_plus_uconst 0x9]
    6305                      .dwattr $C$DW$483, DW_AT_accessibility(DW_ACCESS_public)
    6306              $C$DW$484       .dwtag  DW_TAG_member
    6307                      .dwattr $C$DW$484, DW_AT_type(*$C$DW$T$20)
    6308                      .dwattr $C$DW$484, DW_AT_name("EMUR")
    6309                      .dwattr $C$DW$484, DW_AT_TI_symbol_name("_EMUR")
    6310                      .dwattr $C$DW$484, DW_AT_data_member_location[DW_OP_plus_uconst 0xc]
    6311                      .dwattr $C$DW$484, DW_AT_accessibility(DW_ACCESS_public)
    6312              $C$DW$485       .dwtag  DW_TAG_member
    6313                      .dwattr $C$DW$485, DW_AT_type(*$C$DW$T$33)
TMS320C55x Assembler PC v4.4.1 Sat Sep 29 23:08:40 2018

Tools Copyright (c) 1996-2012 Texas Instruments Incorporated
csl_usb_dma_example.asm                                              PAGE  153

    6314                      .dwattr $C$DW$485, DW_AT_name("RSVD3")
    6315                      .dwattr $C$DW$485, DW_AT_TI_symbol_name("_RSVD3")
    6316                      .dwattr $C$DW$485, DW_AT_data_member_location[DW_OP_plus_uconst 0xd]
    6317                      .dwattr $C$DW$485, DW_AT_accessibility(DW_ACCESS_public)
    6318              $C$DW$486       .dwtag  DW_TAG_member
    6319                      .dwattr $C$DW$486, DW_AT_type(*$C$DW$T$20)
    6320                      .dwattr $C$DW$486, DW_AT_name("MODE1")
    6321                      .dwattr $C$DW$486, DW_AT_TI_symbol_name("_MODE1")
    6322                      .dwattr $C$DW$486, DW_AT_data_member_location[DW_OP_plus_uconst 0x10]
    6323                      .dwattr $C$DW$486, DW_AT_accessibility(DW_ACCESS_public)
    6324              $C$DW$487       .dwtag  DW_TAG_member
    6325                      .dwattr $C$DW$487, DW_AT_type(*$C$DW$T$20)
    6326                      .dwattr $C$DW$487, DW_AT_name("MODE2")
    6327                      .dwattr $C$DW$487, DW_AT_TI_symbol_name("_MODE2")
    6328                      .dwattr $C$DW$487, DW_AT_data_member_location[DW_OP_plus_uconst 0x11]
    6329                      .dwattr $C$DW$487, DW_AT_accessibility(DW_ACCESS_public)
    6330              $C$DW$488       .dwtag  DW_TAG_member
    6331                      .dwattr $C$DW$488, DW_AT_type(*$C$DW$T$21)
    6332                      .dwattr $C$DW$488, DW_AT_name("RSVD4")
    6333                      .dwattr $C$DW$488, DW_AT_TI_symbol_name("_RSVD4")
    6334                      .dwattr $C$DW$488, DW_AT_data_member_location[DW_OP_plus_uconst 0x12]
    6335                      .dwattr $C$DW$488, DW_AT_accessibility(DW_ACCESS_public)
    6336              $C$DW$489       .dwtag  DW_TAG_member
    6337                      .dwattr $C$DW$489, DW_AT_type(*$C$DW$T$20)
    6338                      .dwattr $C$DW$489, DW_AT_name("AUTOREQ")
    6339                      .dwattr $C$DW$489, DW_AT_TI_symbol_name("_AUTOREQ")
    6340                      .dwattr $C$DW$489, DW_AT_data_member_location[DW_OP_plus_uconst 0x14]
    6341                      .dwattr $C$DW$489, DW_AT_accessibility(DW_ACCESS_public)
    6342              $C$DW$490       .dwtag  DW_TAG_member
    6343                      .dwattr $C$DW$490, DW_AT_type(*$C$DW$T$33)
    6344                      .dwattr $C$DW$490, DW_AT_name("RSVD5")
    6345                      .dwattr $C$DW$490, DW_AT_TI_symbol_name("_RSVD5")
    6346                      .dwattr $C$DW$490, DW_AT_data_member_location[DW_OP_plus_uconst 0x15]
    6347                      .dwattr $C$DW$490, DW_AT_accessibility(DW_ACCESS_public)
    6348              $C$DW$491       .dwtag  DW_TAG_member
    6349                      .dwattr $C$DW$491, DW_AT_type(*$C$DW$T$20)
    6350                      .dwattr $C$DW$491, DW_AT_name("SPRFIXTIME1")
    6351                      .dwattr $C$DW$491, DW_AT_TI_symbol_name("_SPRFIXTIME1")
    6352                      .dwattr $C$DW$491, DW_AT_data_member_location[DW_OP_plus_uconst 0x18]
    6353                      .dwattr $C$DW$491, DW_AT_accessibility(DW_ACCESS_public)
    6354              $C$DW$492       .dwtag  DW_TAG_member
    6355                      .dwattr $C$DW$492, DW_AT_type(*$C$DW$T$20)
    6356                      .dwattr $C$DW$492, DW_AT_name("SPRFIXTIME2")
    6357                      .dwattr $C$DW$492, DW_AT_TI_symbol_name("_SPRFIXTIME2")
    6358                      .dwattr $C$DW$492, DW_AT_data_member_location[DW_OP_plus_uconst 0x19]
    6359                      .dwattr $C$DW$492, DW_AT_accessibility(DW_ACCESS_public)
    6360              $C$DW$493       .dwtag  DW_TAG_member
    6361                      .dwattr $C$DW$493, DW_AT_type(*$C$DW$T$21)
    6362                      .dwattr $C$DW$493, DW_AT_name("RSVD6")
    6363                      .dwattr $C$DW$493, DW_AT_TI_symbol_name("_RSVD6")
    6364                      .dwattr $C$DW$493, DW_AT_data_member_location[DW_OP_plus_uconst 0x1a]
    6365                      .dwattr $C$DW$493, DW_AT_accessibility(DW_ACCESS_public)
    6366              $C$DW$494       .dwtag  DW_TAG_member
    6367                      .dwattr $C$DW$494, DW_AT_type(*$C$DW$T$20)
    6368                      .dwattr $C$DW$494, DW_AT_name("TEARDOWN1")
TMS320C55x Assembler PC v4.4.1 Sat Sep 29 23:08:40 2018

Tools Copyright (c) 1996-2012 Texas Instruments Incorporated
csl_usb_dma_example.asm                                              PAGE  154

    6369                      .dwattr $C$DW$494, DW_AT_TI_symbol_name("_TEARDOWN1")
    6370                      .dwattr $C$DW$494, DW_AT_data_member_location[DW_OP_plus_uconst 0x1c]
    6371                      .dwattr $C$DW$494, DW_AT_accessibility(DW_ACCESS_public)
    6372              $C$DW$495       .dwtag  DW_TAG_member
    6373                      .dwattr $C$DW$495, DW_AT_type(*$C$DW$T$20)
    6374                      .dwattr $C$DW$495, DW_AT_name("TEARDOWN2")
    6375                      .dwattr $C$DW$495, DW_AT_TI_symbol_name("_TEARDOWN2")
    6376                      .dwattr $C$DW$495, DW_AT_data_member_location[DW_OP_plus_uconst 0x1d]
    6377                      .dwattr $C$DW$495, DW_AT_accessibility(DW_ACCESS_public)
    6378              $C$DW$496       .dwtag  DW_TAG_member
    6379                      .dwattr $C$DW$496, DW_AT_type(*$C$DW$T$21)
    6380                      .dwattr $C$DW$496, DW_AT_name("RSVD7")
    6381                      .dwattr $C$DW$496, DW_AT_TI_symbol_name("_RSVD7")
    6382                      .dwattr $C$DW$496, DW_AT_data_member_location[DW_OP_plus_uconst 0x1e]
    6383                      .dwattr $C$DW$496, DW_AT_accessibility(DW_ACCESS_public)
    6384              $C$DW$497       .dwtag  DW_TAG_member
    6385                      .dwattr $C$DW$497, DW_AT_type(*$C$DW$T$20)
    6386                      .dwattr $C$DW$497, DW_AT_name("INTSRCR1")
    6387                      .dwattr $C$DW$497, DW_AT_TI_symbol_name("_INTSRCR1")
    6388                      .dwattr $C$DW$497, DW_AT_data_member_location[DW_OP_plus_uconst 0x20]
    6389                      .dwattr $C$DW$497, DW_AT_accessibility(DW_ACCESS_public)
    6390              $C$DW$498       .dwtag  DW_TAG_member
    6391                      .dwattr $C$DW$498, DW_AT_type(*$C$DW$T$20)
    6392                      .dwattr $C$DW$498, DW_AT_name("INTSRCR2")
    6393                      .dwattr $C$DW$498, DW_AT_TI_symbol_name("_INTSRCR2")
    6394                      .dwattr $C$DW$498, DW_AT_data_member_location[DW_OP_plus_uconst 0x21]
    6395                      .dwattr $C$DW$498, DW_AT_accessibility(DW_ACCESS_public)
    6396              $C$DW$499       .dwtag  DW_TAG_member
    6397                      .dwattr $C$DW$499, DW_AT_type(*$C$DW$T$21)
    6398                      .dwattr $C$DW$499, DW_AT_name("RSVD8")
    6399                      .dwattr $C$DW$499, DW_AT_TI_symbol_name("_RSVD8")
    6400                      .dwattr $C$DW$499, DW_AT_data_member_location[DW_OP_plus_uconst 0x22]
    6401                      .dwattr $C$DW$499, DW_AT_accessibility(DW_ACCESS_public)
    6402              $C$DW$500       .dwtag  DW_TAG_member
    6403                      .dwattr $C$DW$500, DW_AT_type(*$C$DW$T$20)
    6404                      .dwattr $C$DW$500, DW_AT_name("INTSETR1")
    6405                      .dwattr $C$DW$500, DW_AT_TI_symbol_name("_INTSETR1")
    6406                      .dwattr $C$DW$500, DW_AT_data_member_location[DW_OP_plus_uconst 0x24]
    6407                      .dwattr $C$DW$500, DW_AT_accessibility(DW_ACCESS_public)
    6408              $C$DW$501       .dwtag  DW_TAG_member
    6409                      .dwattr $C$DW$501, DW_AT_type(*$C$DW$T$20)
    6410                      .dwattr $C$DW$501, DW_AT_name("INTSETR2")
    6411                      .dwattr $C$DW$501, DW_AT_TI_symbol_name("_INTSETR2")
    6412                      .dwattr $C$DW$501, DW_AT_data_member_location[DW_OP_plus_uconst 0x25]
    6413                      .dwattr $C$DW$501, DW_AT_accessibility(DW_ACCESS_public)
    6414              $C$DW$502       .dwtag  DW_TAG_member
    6415                      .dwattr $C$DW$502, DW_AT_type(*$C$DW$T$21)
    6416                      .dwattr $C$DW$502, DW_AT_name("RSVD9")
    6417                      .dwattr $C$DW$502, DW_AT_TI_symbol_name("_RSVD9")
    6418                      .dwattr $C$DW$502, DW_AT_data_member_location[DW_OP_plus_uconst 0x26]
    6419                      .dwattr $C$DW$502, DW_AT_accessibility(DW_ACCESS_public)
    6420              $C$DW$503       .dwtag  DW_TAG_member
    6421                      .dwattr $C$DW$503, DW_AT_type(*$C$DW$T$20)
    6422                      .dwattr $C$DW$503, DW_AT_name("INTCLRR1")
    6423                      .dwattr $C$DW$503, DW_AT_TI_symbol_name("_INTCLRR1")
TMS320C55x Assembler PC v4.4.1 Sat Sep 29 23:08:40 2018

Tools Copyright (c) 1996-2012 Texas Instruments Incorporated
csl_usb_dma_example.asm                                              PAGE  155

    6424                      .dwattr $C$DW$503, DW_AT_data_member_location[DW_OP_plus_uconst 0x28]
    6425                      .dwattr $C$DW$503, DW_AT_accessibility(DW_ACCESS_public)
    6426              $C$DW$504       .dwtag  DW_TAG_member
    6427                      .dwattr $C$DW$504, DW_AT_type(*$C$DW$T$20)
    6428                      .dwattr $C$DW$504, DW_AT_name("INTCLRR2")
    6429                      .dwattr $C$DW$504, DW_AT_TI_symbol_name("_INTCLRR2")
    6430                      .dwattr $C$DW$504, DW_AT_data_member_location[DW_OP_plus_uconst 0x29]
    6431                      .dwattr $C$DW$504, DW_AT_accessibility(DW_ACCESS_public)
    6432              $C$DW$505       .dwtag  DW_TAG_member
    6433                      .dwattr $C$DW$505, DW_AT_type(*$C$DW$T$21)
    6434                      .dwattr $C$DW$505, DW_AT_name("RSVD10")
    6435                      .dwattr $C$DW$505, DW_AT_TI_symbol_name("_RSVD10")
    6436                      .dwattr $C$DW$505, DW_AT_data_member_location[DW_OP_plus_uconst 0x2a]
    6437                      .dwattr $C$DW$505, DW_AT_accessibility(DW_ACCESS_public)
    6438              $C$DW$506       .dwtag  DW_TAG_member
    6439                      .dwattr $C$DW$506, DW_AT_type(*$C$DW$T$20)
    6440                      .dwattr $C$DW$506, DW_AT_name("INTMSKR1")
    6441                      .dwattr $C$DW$506, DW_AT_TI_symbol_name("_INTMSKR1")
    6442                      .dwattr $C$DW$506, DW_AT_data_member_location[DW_OP_plus_uconst 0x2c]
    6443                      .dwattr $C$DW$506, DW_AT_accessibility(DW_ACCESS_public)
    6444              $C$DW$507       .dwtag  DW_TAG_member
    6445                      .dwattr $C$DW$507, DW_AT_type(*$C$DW$T$20)
    6446                      .dwattr $C$DW$507, DW_AT_name("INTMSKR2")
    6447                      .dwattr $C$DW$507, DW_AT_TI_symbol_name("_INTMSKR2")
    6448                      .dwattr $C$DW$507, DW_AT_data_member_location[DW_OP_plus_uconst 0x2d]
    6449                      .dwattr $C$DW$507, DW_AT_accessibility(DW_ACCESS_public)
    6450              $C$DW$508       .dwtag  DW_TAG_member
    6451                      .dwattr $C$DW$508, DW_AT_type(*$C$DW$T$21)
    6452                      .dwattr $C$DW$508, DW_AT_name("RSVD11")
    6453                      .dwattr $C$DW$508, DW_AT_TI_symbol_name("_RSVD11")
    6454                      .dwattr $C$DW$508, DW_AT_data_member_location[DW_OP_plus_uconst 0x2e]
    6455                      .dwattr $C$DW$508, DW_AT_accessibility(DW_ACCESS_public)
    6456              $C$DW$509       .dwtag  DW_TAG_member
    6457                      .dwattr $C$DW$509, DW_AT_type(*$C$DW$T$20)
    6458                      .dwattr $C$DW$509, DW_AT_name("INTMSKSETR1")
    6459                      .dwattr $C$DW$509, DW_AT_TI_symbol_name("_INTMSKSETR1")
    6460                      .dwattr $C$DW$509, DW_AT_data_member_location[DW_OP_plus_uconst 0x30]
    6461                      .dwattr $C$DW$509, DW_AT_accessibility(DW_ACCESS_public)
    6462              $C$DW$510       .dwtag  DW_TAG_member
    6463                      .dwattr $C$DW$510, DW_AT_type(*$C$DW$T$20)
    6464                      .dwattr $C$DW$510, DW_AT_name("INTMSKSETR2")
    6465                      .dwattr $C$DW$510, DW_AT_TI_symbol_name("_INTMSKSETR2")
    6466                      .dwattr $C$DW$510, DW_AT_data_member_location[DW_OP_plus_uconst 0x31]
    6467                      .dwattr $C$DW$510, DW_AT_accessibility(DW_ACCESS_public)
    6468              $C$DW$511       .dwtag  DW_TAG_member
    6469                      .dwattr $C$DW$511, DW_AT_type(*$C$DW$T$21)
    6470                      .dwattr $C$DW$511, DW_AT_name("RSVD12")
    6471                      .dwattr $C$DW$511, DW_AT_TI_symbol_name("_RSVD12")
    6472                      .dwattr $C$DW$511, DW_AT_data_member_location[DW_OP_plus_uconst 0x32]
    6473                      .dwattr $C$DW$511, DW_AT_accessibility(DW_ACCESS_public)
    6474              $C$DW$512       .dwtag  DW_TAG_member
    6475                      .dwattr $C$DW$512, DW_AT_type(*$C$DW$T$20)
    6476                      .dwattr $C$DW$512, DW_AT_name("INTMSKCLRR1")
    6477                      .dwattr $C$DW$512, DW_AT_TI_symbol_name("_INTMSKCLRR1")
    6478                      .dwattr $C$DW$512, DW_AT_data_member_location[DW_OP_plus_uconst 0x34]
TMS320C55x Assembler PC v4.4.1 Sat Sep 29 23:08:40 2018

Tools Copyright (c) 1996-2012 Texas Instruments Incorporated
csl_usb_dma_example.asm                                              PAGE  156

    6479                      .dwattr $C$DW$512, DW_AT_accessibility(DW_ACCESS_public)
    6480              $C$DW$513       .dwtag  DW_TAG_member
    6481                      .dwattr $C$DW$513, DW_AT_type(*$C$DW$T$20)
    6482                      .dwattr $C$DW$513, DW_AT_name("INTMSKCLRR2")
    6483                      .dwattr $C$DW$513, DW_AT_TI_symbol_name("_INTMSKCLRR2")
    6484                      .dwattr $C$DW$513, DW_AT_data_member_location[DW_OP_plus_uconst 0x35]
    6485                      .dwattr $C$DW$513, DW_AT_accessibility(DW_ACCESS_public)
    6486              $C$DW$514       .dwtag  DW_TAG_member
    6487                      .dwattr $C$DW$514, DW_AT_type(*$C$DW$T$21)
    6488                      .dwattr $C$DW$514, DW_AT_name("RSVD13")
    6489                      .dwattr $C$DW$514, DW_AT_TI_symbol_name("_RSVD13")
    6490                      .dwattr $C$DW$514, DW_AT_data_member_location[DW_OP_plus_uconst 0x36]
    6491                      .dwattr $C$DW$514, DW_AT_accessibility(DW_ACCESS_public)
    6492              $C$DW$515       .dwtag  DW_TAG_member
    6493                      .dwattr $C$DW$515, DW_AT_type(*$C$DW$T$20)
    6494                      .dwattr $C$DW$515, DW_AT_name("INTMASKEDR1")
    6495                      .dwattr $C$DW$515, DW_AT_TI_symbol_name("_INTMASKEDR1")
    6496                      .dwattr $C$DW$515, DW_AT_data_member_location[DW_OP_plus_uconst 0x38]
    6497                      .dwattr $C$DW$515, DW_AT_accessibility(DW_ACCESS_public)
    6498              $C$DW$516       .dwtag  DW_TAG_member
    6499                      .dwattr $C$DW$516, DW_AT_type(*$C$DW$T$20)
    6500                      .dwattr $C$DW$516, DW_AT_name("INTMASKEDR2")
    6501                      .dwattr $C$DW$516, DW_AT_TI_symbol_name("_INTMASKEDR2")
    6502                      .dwattr $C$DW$516, DW_AT_data_member_location[DW_OP_plus_uconst 0x39]
    6503                      .dwattr $C$DW$516, DW_AT_accessibility(DW_ACCESS_public)
    6504              $C$DW$517       .dwtag  DW_TAG_member
    6505                      .dwattr $C$DW$517, DW_AT_type(*$C$DW$T$21)
    6506                      .dwattr $C$DW$517, DW_AT_name("RSVD14")
    6507                      .dwattr $C$DW$517, DW_AT_TI_symbol_name("_RSVD14")
    6508                      .dwattr $C$DW$517, DW_AT_data_member_location[DW_OP_plus_uconst 0x3a]
    6509                      .dwattr $C$DW$517, DW_AT_accessibility(DW_ACCESS_public)
    6510              $C$DW$518       .dwtag  DW_TAG_member
    6511                      .dwattr $C$DW$518, DW_AT_type(*$C$DW$T$20)
    6512                      .dwattr $C$DW$518, DW_AT_name("EOIR")
    6513                      .dwattr $C$DW$518, DW_AT_TI_symbol_name("_EOIR")
    6514                      .dwattr $C$DW$518, DW_AT_data_member_location[DW_OP_plus_uconst 0x3c]
    6515                      .dwattr $C$DW$518, DW_AT_accessibility(DW_ACCESS_public)
    6516              $C$DW$519       .dwtag  DW_TAG_member
    6517                      .dwattr $C$DW$519, DW_AT_type(*$C$DW$T$33)
    6518                      .dwattr $C$DW$519, DW_AT_name("RSVD15")
    6519                      .dwattr $C$DW$519, DW_AT_TI_symbol_name("_RSVD15")
    6520                      .dwattr $C$DW$519, DW_AT_data_member_location[DW_OP_plus_uconst 0x3d]
    6521                      .dwattr $C$DW$519, DW_AT_accessibility(DW_ACCESS_public)
    6522              $C$DW$520       .dwtag  DW_TAG_member
    6523                      .dwattr $C$DW$520, DW_AT_type(*$C$DW$T$20)
    6524                      .dwattr $C$DW$520, DW_AT_name("INTVECTR1")
    6525                      .dwattr $C$DW$520, DW_AT_TI_symbol_name("_INTVECTR1")
    6526                      .dwattr $C$DW$520, DW_AT_data_member_location[DW_OP_plus_uconst 0x40]
    6527                      .dwattr $C$DW$520, DW_AT_accessibility(DW_ACCESS_public)
    6528              $C$DW$521       .dwtag  DW_TAG_member
    6529                      .dwattr $C$DW$521, DW_AT_type(*$C$DW$T$20)
    6530                      .dwattr $C$DW$521, DW_AT_name("INTVECTR2")
    6531                      .dwattr $C$DW$521, DW_AT_TI_symbol_name("_INTVECTR2")
    6532                      .dwattr $C$DW$521, DW_AT_data_member_location[DW_OP_plus_uconst 0x41]
    6533                      .dwattr $C$DW$521, DW_AT_accessibility(DW_ACCESS_public)
TMS320C55x Assembler PC v4.4.1 Sat Sep 29 23:08:40 2018

Tools Copyright (c) 1996-2012 Texas Instruments Incorporated
csl_usb_dma_example.asm                                              PAGE  157

    6534              $C$DW$522       .dwtag  DW_TAG_member
    6535                      .dwattr $C$DW$522, DW_AT_type(*$C$DW$T$26)
    6536                      .dwattr $C$DW$522, DW_AT_name("RSVD16")
    6537                      .dwattr $C$DW$522, DW_AT_TI_symbol_name("_RSVD16")
    6538                      .dwattr $C$DW$522, DW_AT_data_member_location[DW_OP_plus_uconst 0x42]
    6539                      .dwattr $C$DW$522, DW_AT_accessibility(DW_ACCESS_public)
    6540              $C$DW$523       .dwtag  DW_TAG_member
    6541                      .dwattr $C$DW$523, DW_AT_type(*$C$DW$T$20)
    6542                      .dwattr $C$DW$523, DW_AT_name("GREP1SZR1")
    6543                      .dwattr $C$DW$523, DW_AT_TI_symbol_name("_GREP1SZR1")
    6544                      .dwattr $C$DW$523, DW_AT_data_member_location[DW_OP_plus_uconst 0x50]
    6545                      .dwattr $C$DW$523, DW_AT_accessibility(DW_ACCESS_public)
    6546              $C$DW$524       .dwtag  DW_TAG_member
    6547                      .dwattr $C$DW$524, DW_AT_type(*$C$DW$T$20)
    6548                      .dwattr $C$DW$524, DW_AT_name("GREP1SZR2")
    6549                      .dwattr $C$DW$524, DW_AT_TI_symbol_name("_GREP1SZR2")
    6550                      .dwattr $C$DW$524, DW_AT_data_member_location[DW_OP_plus_uconst 0x51]
    6551                      .dwattr $C$DW$524, DW_AT_accessibility(DW_ACCESS_public)
    6552              $C$DW$525       .dwtag  DW_TAG_member
    6553                      .dwattr $C$DW$525, DW_AT_type(*$C$DW$T$21)
    6554                      .dwattr $C$DW$525, DW_AT_name("RSVD17")
    6555                      .dwattr $C$DW$525, DW_AT_TI_symbol_name("_RSVD17")
    6556                      .dwattr $C$DW$525, DW_AT_data_member_location[DW_OP_plus_uconst 0x52]
    6557                      .dwattr $C$DW$525, DW_AT_accessibility(DW_ACCESS_public)
    6558              $C$DW$526       .dwtag  DW_TAG_member
    6559                      .dwattr $C$DW$526, DW_AT_type(*$C$DW$T$20)
    6560                      .dwattr $C$DW$526, DW_AT_name("GREP2SZR1")
    6561                      .dwattr $C$DW$526, DW_AT_TI_symbol_name("_GREP2SZR1")
    6562                      .dwattr $C$DW$526, DW_AT_data_member_location[DW_OP_plus_uconst 0x54]
    6563                      .dwattr $C$DW$526, DW_AT_accessibility(DW_ACCESS_public)
    6564              $C$DW$527       .dwtag  DW_TAG_member
    6565                      .dwattr $C$DW$527, DW_AT_type(*$C$DW$T$20)
    6566                      .dwattr $C$DW$527, DW_AT_name("GREP2SZR2")
    6567                      .dwattr $C$DW$527, DW_AT_TI_symbol_name("_GREP2SZR2")
    6568                      .dwattr $C$DW$527, DW_AT_data_member_location[DW_OP_plus_uconst 0x55]
    6569                      .dwattr $C$DW$527, DW_AT_accessibility(DW_ACCESS_public)
    6570              $C$DW$528       .dwtag  DW_TAG_member
    6571                      .dwattr $C$DW$528, DW_AT_type(*$C$DW$T$21)
    6572                      .dwattr $C$DW$528, DW_AT_name("RSVD18")
    6573                      .dwattr $C$DW$528, DW_AT_TI_symbol_name("_RSVD18")
    6574                      .dwattr $C$DW$528, DW_AT_data_member_location[DW_OP_plus_uconst 0x56]
    6575                      .dwattr $C$DW$528, DW_AT_accessibility(DW_ACCESS_public)
    6576              $C$DW$529       .dwtag  DW_TAG_member
    6577                      .dwattr $C$DW$529, DW_AT_type(*$C$DW$T$20)
    6578                      .dwattr $C$DW$529, DW_AT_name("GREP3SZR1")
    6579                      .dwattr $C$DW$529, DW_AT_TI_symbol_name("_GREP3SZR1")
    6580                      .dwattr $C$DW$529, DW_AT_data_member_location[DW_OP_plus_uconst 0x58]
    6581                      .dwattr $C$DW$529, DW_AT_accessibility(DW_ACCESS_public)
    6582              $C$DW$530       .dwtag  DW_TAG_member
    6583                      .dwattr $C$DW$530, DW_AT_type(*$C$DW$T$20)
    6584                      .dwattr $C$DW$530, DW_AT_name("GREP3SZR2")
    6585                      .dwattr $C$DW$530, DW_AT_TI_symbol_name("_GREP3SZR2")
    6586                      .dwattr $C$DW$530, DW_AT_data_member_location[DW_OP_plus_uconst 0x59]
    6587                      .dwattr $C$DW$530, DW_AT_accessibility(DW_ACCESS_public)
    6588              $C$DW$531       .dwtag  DW_TAG_member
TMS320C55x Assembler PC v4.4.1 Sat Sep 29 23:08:40 2018

Tools Copyright (c) 1996-2012 Texas Instruments Incorporated
csl_usb_dma_example.asm                                              PAGE  158

    6589                      .dwattr $C$DW$531, DW_AT_type(*$C$DW$T$21)
    6590                      .dwattr $C$DW$531, DW_AT_name("RSVD19")
    6591                      .dwattr $C$DW$531, DW_AT_TI_symbol_name("_RSVD19")
    6592                      .dwattr $C$DW$531, DW_AT_data_member_location[DW_OP_plus_uconst 0x5a]
    6593                      .dwattr $C$DW$531, DW_AT_accessibility(DW_ACCESS_public)
    6594              $C$DW$532       .dwtag  DW_TAG_member
    6595                      .dwattr $C$DW$532, DW_AT_type(*$C$DW$T$20)
    6596                      .dwattr $C$DW$532, DW_AT_name("GREP4SZR1")
    6597                      .dwattr $C$DW$532, DW_AT_TI_symbol_name("_GREP4SZR1")
    6598                      .dwattr $C$DW$532, DW_AT_data_member_location[DW_OP_plus_uconst 0x5c]
    6599                      .dwattr $C$DW$532, DW_AT_accessibility(DW_ACCESS_public)
    6600              $C$DW$533       .dwtag  DW_TAG_member
    6601                      .dwattr $C$DW$533, DW_AT_type(*$C$DW$T$20)
    6602                      .dwattr $C$DW$533, DW_AT_name("GREP4SZR2")
    6603                      .dwattr $C$DW$533, DW_AT_TI_symbol_name("_GREP4SZR2")
    6604                      .dwattr $C$DW$533, DW_AT_data_member_location[DW_OP_plus_uconst 0x5d]
    6605                      .dwattr $C$DW$533, DW_AT_accessibility(DW_ACCESS_public)
    6606              $C$DW$534       .dwtag  DW_TAG_member
    6607                      .dwattr $C$DW$534, DW_AT_type(*$C$DW$T$35)
    6608                      .dwattr $C$DW$534, DW_AT_name("RSVD20")
    6609                      .dwattr $C$DW$534, DW_AT_TI_symbol_name("_RSVD20")
    6610                      .dwattr $C$DW$534, DW_AT_data_member_location[DW_OP_plus_uconst 0x5e]
    6611                      .dwattr $C$DW$534, DW_AT_accessibility(DW_ACCESS_public)
    6612              $C$DW$535       .dwtag  DW_TAG_member
    6613                      .dwattr $C$DW$535, DW_AT_type(*$C$DW$T$20)
    6614                      .dwattr $C$DW$535, DW_AT_name("FADDR_POWER")
    6615                      .dwattr $C$DW$535, DW_AT_TI_symbol_name("_FADDR_POWER")
    6616                      .dwattr $C$DW$535, DW_AT_data_member_location[DW_OP_plus_uconst 0x401]
    6617                      .dwattr $C$DW$535, DW_AT_accessibility(DW_ACCESS_public)
    6618              $C$DW$536       .dwtag  DW_TAG_member
    6619                      .dwattr $C$DW$536, DW_AT_type(*$C$DW$T$20)
    6620                      .dwattr $C$DW$536, DW_AT_name("INTRTX")
    6621                      .dwattr $C$DW$536, DW_AT_TI_symbol_name("_INTRTX")
    6622                      .dwattr $C$DW$536, DW_AT_data_member_location[DW_OP_plus_uconst 0x402]
    6623                      .dwattr $C$DW$536, DW_AT_accessibility(DW_ACCESS_public)
    6624              $C$DW$537       .dwtag  DW_TAG_member
    6625                      .dwattr $C$DW$537, DW_AT_type(*$C$DW$T$21)
    6626                      .dwattr $C$DW$537, DW_AT_name("RSVD21")
    6627                      .dwattr $C$DW$537, DW_AT_TI_symbol_name("_RSVD21")
    6628                      .dwattr $C$DW$537, DW_AT_data_member_location[DW_OP_plus_uconst 0x403]
    6629                      .dwattr $C$DW$537, DW_AT_accessibility(DW_ACCESS_public)
    6630              $C$DW$538       .dwtag  DW_TAG_member
    6631                      .dwattr $C$DW$538, DW_AT_type(*$C$DW$T$20)
    6632                      .dwattr $C$DW$538, DW_AT_name("INTRRX")
    6633                      .dwattr $C$DW$538, DW_AT_TI_symbol_name("_INTRRX")
    6634                      .dwattr $C$DW$538, DW_AT_data_member_location[DW_OP_plus_uconst 0x405]
    6635                      .dwattr $C$DW$538, DW_AT_accessibility(DW_ACCESS_public)
    6636              $C$DW$539       .dwtag  DW_TAG_member
    6637                      .dwattr $C$DW$539, DW_AT_type(*$C$DW$T$20)
    6638                      .dwattr $C$DW$539, DW_AT_name("INTRTXE")
    6639                      .dwattr $C$DW$539, DW_AT_TI_symbol_name("_INTRTXE")
    6640                      .dwattr $C$DW$539, DW_AT_data_member_location[DW_OP_plus_uconst 0x406]
    6641                      .dwattr $C$DW$539, DW_AT_accessibility(DW_ACCESS_public)
    6642              $C$DW$540       .dwtag  DW_TAG_member
    6643                      .dwattr $C$DW$540, DW_AT_type(*$C$DW$T$21)
TMS320C55x Assembler PC v4.4.1 Sat Sep 29 23:08:40 2018

Tools Copyright (c) 1996-2012 Texas Instruments Incorporated
csl_usb_dma_example.asm                                              PAGE  159

    6644                      .dwattr $C$DW$540, DW_AT_name("RSVD22")
    6645                      .dwattr $C$DW$540, DW_AT_TI_symbol_name("_RSVD22")
    6646                      .dwattr $C$DW$540, DW_AT_data_member_location[DW_OP_plus_uconst 0x407]
    6647                      .dwattr $C$DW$540, DW_AT_accessibility(DW_ACCESS_public)
    6648              $C$DW$541       .dwtag  DW_TAG_member
    6649                      .dwattr $C$DW$541, DW_AT_type(*$C$DW$T$20)
    6650                      .dwattr $C$DW$541, DW_AT_name("INTRRXE")
    6651                      .dwattr $C$DW$541, DW_AT_TI_symbol_name("_INTRRXE")
    6652                      .dwattr $C$DW$541, DW_AT_data_member_location[DW_OP_plus_uconst 0x409]
    6653                      .dwattr $C$DW$541, DW_AT_accessibility(DW_ACCESS_public)
    6654              $C$DW$542       .dwtag  DW_TAG_member
    6655                      .dwattr $C$DW$542, DW_AT_type(*$C$DW$T$20)
    6656                      .dwattr $C$DW$542, DW_AT_name("INTRUSB_INTRUSBE")
    6657                      .dwattr $C$DW$542, DW_AT_TI_symbol_name("_INTRUSB_INTRUSBE")
    6658                      .dwattr $C$DW$542, DW_AT_data_member_location[DW_OP_plus_uconst 0x40a]
    6659                      .dwattr $C$DW$542, DW_AT_accessibility(DW_ACCESS_public)
    6660              $C$DW$543       .dwtag  DW_TAG_member
    6661                      .dwattr $C$DW$543, DW_AT_type(*$C$DW$T$21)
    6662                      .dwattr $C$DW$543, DW_AT_name("RSVD23")
    6663                      .dwattr $C$DW$543, DW_AT_TI_symbol_name("_RSVD23")
    6664                      .dwattr $C$DW$543, DW_AT_data_member_location[DW_OP_plus_uconst 0x40b]
    6665                      .dwattr $C$DW$543, DW_AT_accessibility(DW_ACCESS_public)
    6666              $C$DW$544       .dwtag  DW_TAG_member
    6667                      .dwattr $C$DW$544, DW_AT_type(*$C$DW$T$20)
    6668                      .dwattr $C$DW$544, DW_AT_name("FRAME")
    6669                      .dwattr $C$DW$544, DW_AT_TI_symbol_name("_FRAME")
    6670                      .dwattr $C$DW$544, DW_AT_data_member_location[DW_OP_plus_uconst 0x40d]
    6671                      .dwattr $C$DW$544, DW_AT_accessibility(DW_ACCESS_public)
    6672              $C$DW$545       .dwtag  DW_TAG_member
    6673                      .dwattr $C$DW$545, DW_AT_type(*$C$DW$T$20)
    6674                      .dwattr $C$DW$545, DW_AT_name("INDEX_TESTMODE")
    6675                      .dwattr $C$DW$545, DW_AT_TI_symbol_name("_INDEX_TESTMODE")
    6676                      .dwattr $C$DW$545, DW_AT_data_member_location[DW_OP_plus_uconst 0x40e]
    6677                      .dwattr $C$DW$545, DW_AT_accessibility(DW_ACCESS_public)
    6678              $C$DW$546       .dwtag  DW_TAG_member
    6679                      .dwattr $C$DW$546, DW_AT_type(*$C$DW$T$21)
    6680                      .dwattr $C$DW$546, DW_AT_name("RSVD24")
    6681                      .dwattr $C$DW$546, DW_AT_TI_symbol_name("_RSVD24")
    6682                      .dwattr $C$DW$546, DW_AT_data_member_location[DW_OP_plus_uconst 0x40f]
    6683                      .dwattr $C$DW$546, DW_AT_accessibility(DW_ACCESS_public)
    6684              $C$DW$547       .dwtag  DW_TAG_member
    6685                      .dwattr $C$DW$547, DW_AT_type(*$C$DW$T$20)
    6686                      .dwattr $C$DW$547, DW_AT_name("TXMAXP_INDX")
    6687                      .dwattr $C$DW$547, DW_AT_TI_symbol_name("_TXMAXP_INDX")
    6688                      .dwattr $C$DW$547, DW_AT_data_member_location[DW_OP_plus_uconst 0x411]
    6689                      .dwattr $C$DW$547, DW_AT_accessibility(DW_ACCESS_public)
    6690              $C$DW$548       .dwtag  DW_TAG_member
    6691                      .dwattr $C$DW$548, DW_AT_type(*$C$DW$T$20)
    6692                      .dwattr $C$DW$548, DW_AT_name("PERI_CSR0_INDX")
    6693                      .dwattr $C$DW$548, DW_AT_TI_symbol_name("_PERI_CSR0_INDX")
    6694                      .dwattr $C$DW$548, DW_AT_data_member_location[DW_OP_plus_uconst 0x412]
    6695                      .dwattr $C$DW$548, DW_AT_accessibility(DW_ACCESS_public)
    6696              $C$DW$549       .dwtag  DW_TAG_member
    6697                      .dwattr $C$DW$549, DW_AT_type(*$C$DW$T$21)
    6698                      .dwattr $C$DW$549, DW_AT_name("RSVD25")
TMS320C55x Assembler PC v4.4.1 Sat Sep 29 23:08:40 2018

Tools Copyright (c) 1996-2012 Texas Instruments Incorporated
csl_usb_dma_example.asm                                              PAGE  160

    6699                      .dwattr $C$DW$549, DW_AT_TI_symbol_name("_RSVD25")
    6700                      .dwattr $C$DW$549, DW_AT_data_member_location[DW_OP_plus_uconst 0x413]
    6701                      .dwattr $C$DW$549, DW_AT_accessibility(DW_ACCESS_public)
    6702              $C$DW$550       .dwtag  DW_TAG_member
    6703                      .dwattr $C$DW$550, DW_AT_type(*$C$DW$T$20)
    6704                      .dwattr $C$DW$550, DW_AT_name("RXMAXP_INDX")
    6705                      .dwattr $C$DW$550, DW_AT_TI_symbol_name("_RXMAXP_INDX")
    6706                      .dwattr $C$DW$550, DW_AT_data_member_location[DW_OP_plus_uconst 0x415]
    6707                      .dwattr $C$DW$550, DW_AT_accessibility(DW_ACCESS_public)
    6708              $C$DW$551       .dwtag  DW_TAG_member
    6709                      .dwattr $C$DW$551, DW_AT_type(*$C$DW$T$20)
    6710                      .dwattr $C$DW$551, DW_AT_name("PERI_RXCSR_INDX")
    6711                      .dwattr $C$DW$551, DW_AT_TI_symbol_name("_PERI_RXCSR_INDX")
    6712                      .dwattr $C$DW$551, DW_AT_data_member_location[DW_OP_plus_uconst 0x416]
    6713                      .dwattr $C$DW$551, DW_AT_accessibility(DW_ACCESS_public)
    6714              $C$DW$552       .dwtag  DW_TAG_member
    6715                      .dwattr $C$DW$552, DW_AT_type(*$C$DW$T$21)
    6716                      .dwattr $C$DW$552, DW_AT_name("RSVD26")
    6717                      .dwattr $C$DW$552, DW_AT_TI_symbol_name("_RSVD26")
    6718                      .dwattr $C$DW$552, DW_AT_data_member_location[DW_OP_plus_uconst 0x417]
    6719                      .dwattr $C$DW$552, DW_AT_accessibility(DW_ACCESS_public)
    6720              $C$DW$553       .dwtag  DW_TAG_member
    6721                      .dwattr $C$DW$553, DW_AT_type(*$C$DW$T$20)
    6722                      .dwattr $C$DW$553, DW_AT_name("COUNT0_INDX")
    6723                      .dwattr $C$DW$553, DW_AT_TI_symbol_name("_COUNT0_INDX")
    6724                      .dwattr $C$DW$553, DW_AT_data_member_location[DW_OP_plus_uconst 0x419]
    6725                      .dwattr $C$DW$553, DW_AT_accessibility(DW_ACCESS_public)
    6726              $C$DW$554       .dwtag  DW_TAG_member
    6727                      .dwattr $C$DW$554, DW_AT_type(*$C$DW$T$36)
    6728                      .dwattr $C$DW$554, DW_AT_name("RSVD27")
    6729                      .dwattr $C$DW$554, DW_AT_TI_symbol_name("_RSVD27")
    6730                      .dwattr $C$DW$554, DW_AT_data_member_location[DW_OP_plus_uconst 0x41a]
    6731                      .dwattr $C$DW$554, DW_AT_accessibility(DW_ACCESS_public)
    6732              $C$DW$555       .dwtag  DW_TAG_member
    6733                      .dwattr $C$DW$555, DW_AT_type(*$C$DW$T$20)
    6734                      .dwattr $C$DW$555, DW_AT_name("CONFIGDATA_INDX")
    6735                      .dwattr $C$DW$555, DW_AT_TI_symbol_name("_CONFIGDATA_INDX")
    6736                      .dwattr $C$DW$555, DW_AT_data_member_location[DW_OP_plus_uconst 0x41e]
    6737                      .dwattr $C$DW$555, DW_AT_accessibility(DW_ACCESS_public)
    6738              $C$DW$556       .dwtag  DW_TAG_member
    6739                      .dwattr $C$DW$556, DW_AT_type(*$C$DW$T$21)
    6740                      .dwattr $C$DW$556, DW_AT_name("RSVD28")
    6741                      .dwattr $C$DW$556, DW_AT_TI_symbol_name("_RSVD28")
    6742                      .dwattr $C$DW$556, DW_AT_data_member_location[DW_OP_plus_uconst 0x41f]
    6743                      .dwattr $C$DW$556, DW_AT_accessibility(DW_ACCESS_public)
    6744              $C$DW$557       .dwtag  DW_TAG_member
    6745                      .dwattr $C$DW$557, DW_AT_type(*$C$DW$T$20)
    6746                      .dwattr $C$DW$557, DW_AT_name("FIFO0R1")
    6747                      .dwattr $C$DW$557, DW_AT_TI_symbol_name("_FIFO0R1")
    6748                      .dwattr $C$DW$557, DW_AT_data_member_location[DW_OP_plus_uconst 0x421]
    6749                      .dwattr $C$DW$557, DW_AT_accessibility(DW_ACCESS_public)
    6750              $C$DW$558       .dwtag  DW_TAG_member
    6751                      .dwattr $C$DW$558, DW_AT_type(*$C$DW$T$20)
    6752                      .dwattr $C$DW$558, DW_AT_name("FIFO0R2")
    6753                      .dwattr $C$DW$558, DW_AT_TI_symbol_name("_FIFO0R2")
TMS320C55x Assembler PC v4.4.1 Sat Sep 29 23:08:40 2018

Tools Copyright (c) 1996-2012 Texas Instruments Incorporated
csl_usb_dma_example.asm                                              PAGE  161

    6754                      .dwattr $C$DW$558, DW_AT_data_member_location[DW_OP_plus_uconst 0x422]
    6755                      .dwattr $C$DW$558, DW_AT_accessibility(DW_ACCESS_public)
    6756              $C$DW$559       .dwtag  DW_TAG_member
    6757                      .dwattr $C$DW$559, DW_AT_type(*$C$DW$T$21)
    6758                      .dwattr $C$DW$559, DW_AT_name("RSVD29")
    6759                      .dwattr $C$DW$559, DW_AT_TI_symbol_name("_RSVD29")
    6760                      .dwattr $C$DW$559, DW_AT_data_member_location[DW_OP_plus_uconst 0x423]
    6761                      .dwattr $C$DW$559, DW_AT_accessibility(DW_ACCESS_public)
    6762              $C$DW$560       .dwtag  DW_TAG_member
    6763                      .dwattr $C$DW$560, DW_AT_type(*$C$DW$T$20)
    6764                      .dwattr $C$DW$560, DW_AT_name("FIFO1R1")
    6765                      .dwattr $C$DW$560, DW_AT_TI_symbol_name("_FIFO1R1")
    6766                      .dwattr $C$DW$560, DW_AT_data_member_location[DW_OP_plus_uconst 0x425]
    6767                      .dwattr $C$DW$560, DW_AT_accessibility(DW_ACCESS_public)
    6768              $C$DW$561       .dwtag  DW_TAG_member
    6769                      .dwattr $C$DW$561, DW_AT_type(*$C$DW$T$20)
    6770                      .dwattr $C$DW$561, DW_AT_name("FIFO1R2")
    6771                      .dwattr $C$DW$561, DW_AT_TI_symbol_name("_FIFO1R2")
    6772                      .dwattr $C$DW$561, DW_AT_data_member_location[DW_OP_plus_uconst 0x426]
    6773                      .dwattr $C$DW$561, DW_AT_accessibility(DW_ACCESS_public)
    6774              $C$DW$562       .dwtag  DW_TAG_member
    6775                      .dwattr $C$DW$562, DW_AT_type(*$C$DW$T$21)
    6776                      .dwattr $C$DW$562, DW_AT_name("RSVD30")
    6777                      .dwattr $C$DW$562, DW_AT_TI_symbol_name("_RSVD30")
    6778                      .dwattr $C$DW$562, DW_AT_data_member_location[DW_OP_plus_uconst 0x427]
    6779                      .dwattr $C$DW$562, DW_AT_accessibility(DW_ACCESS_public)
    6780              $C$DW$563       .dwtag  DW_TAG_member
    6781                      .dwattr $C$DW$563, DW_AT_type(*$C$DW$T$20)
    6782                      .dwattr $C$DW$563, DW_AT_name("FIFO2R1")
    6783                      .dwattr $C$DW$563, DW_AT_TI_symbol_name("_FIFO2R1")
    6784                      .dwattr $C$DW$563, DW_AT_data_member_location[DW_OP_plus_uconst 0x429]
    6785                      .dwattr $C$DW$563, DW_AT_accessibility(DW_ACCESS_public)
    6786              $C$DW$564       .dwtag  DW_TAG_member
    6787                      .dwattr $C$DW$564, DW_AT_type(*$C$DW$T$20)
    6788                      .dwattr $C$DW$564, DW_AT_name("FIFO2R2")
    6789                      .dwattr $C$DW$564, DW_AT_TI_symbol_name("_FIFO2R2")
    6790                      .dwattr $C$DW$564, DW_AT_data_member_location[DW_OP_plus_uconst 0x42a]
    6791                      .dwattr $C$DW$564, DW_AT_accessibility(DW_ACCESS_public)
    6792              $C$DW$565       .dwtag  DW_TAG_member
    6793                      .dwattr $C$DW$565, DW_AT_type(*$C$DW$T$21)
    6794                      .dwattr $C$DW$565, DW_AT_name("RSVD31")
    6795                      .dwattr $C$DW$565, DW_AT_TI_symbol_name("_RSVD31")
    6796                      .dwattr $C$DW$565, DW_AT_data_member_location[DW_OP_plus_uconst 0x42b]
    6797                      .dwattr $C$DW$565, DW_AT_accessibility(DW_ACCESS_public)
    6798              $C$DW$566       .dwtag  DW_TAG_member
    6799                      .dwattr $C$DW$566, DW_AT_type(*$C$DW$T$20)
    6800                      .dwattr $C$DW$566, DW_AT_name("FIFO3R1")
    6801                      .dwattr $C$DW$566, DW_AT_TI_symbol_name("_FIFO3R1")
    6802                      .dwattr $C$DW$566, DW_AT_data_member_location[DW_OP_plus_uconst 0x42d]
    6803                      .dwattr $C$DW$566, DW_AT_accessibility(DW_ACCESS_public)
    6804              $C$DW$567       .dwtag  DW_TAG_member
    6805                      .dwattr $C$DW$567, DW_AT_type(*$C$DW$T$20)
    6806                      .dwattr $C$DW$567, DW_AT_name("FIFO3R2")
    6807                      .dwattr $C$DW$567, DW_AT_TI_symbol_name("_FIFO3R2")
    6808                      .dwattr $C$DW$567, DW_AT_data_member_location[DW_OP_plus_uconst 0x42e]
TMS320C55x Assembler PC v4.4.1 Sat Sep 29 23:08:40 2018

Tools Copyright (c) 1996-2012 Texas Instruments Incorporated
csl_usb_dma_example.asm                                              PAGE  162

    6809                      .dwattr $C$DW$567, DW_AT_accessibility(DW_ACCESS_public)
    6810              $C$DW$568       .dwtag  DW_TAG_member
    6811                      .dwattr $C$DW$568, DW_AT_type(*$C$DW$T$21)
    6812                      .dwattr $C$DW$568, DW_AT_name("RSVD32")
    6813                      .dwattr $C$DW$568, DW_AT_TI_symbol_name("_RSVD32")
    6814                      .dwattr $C$DW$568, DW_AT_data_member_location[DW_OP_plus_uconst 0x42f]
    6815                      .dwattr $C$DW$568, DW_AT_accessibility(DW_ACCESS_public)
    6816              $C$DW$569       .dwtag  DW_TAG_member
    6817                      .dwattr $C$DW$569, DW_AT_type(*$C$DW$T$20)
    6818                      .dwattr $C$DW$569, DW_AT_name("FIFO4R1")
    6819                      .dwattr $C$DW$569, DW_AT_TI_symbol_name("_FIFO4R1")
    6820                      .dwattr $C$DW$569, DW_AT_data_member_location[DW_OP_plus_uconst 0x431]
    6821                      .dwattr $C$DW$569, DW_AT_accessibility(DW_ACCESS_public)
    6822              $C$DW$570       .dwtag  DW_TAG_member
    6823                      .dwattr $C$DW$570, DW_AT_type(*$C$DW$T$20)
    6824                      .dwattr $C$DW$570, DW_AT_name("FIFO4R2")
    6825                      .dwattr $C$DW$570, DW_AT_TI_symbol_name("_FIFO4R2")
    6826                      .dwattr $C$DW$570, DW_AT_data_member_location[DW_OP_plus_uconst 0x432]
    6827                      .dwattr $C$DW$570, DW_AT_accessibility(DW_ACCESS_public)
    6828              $C$DW$571       .dwtag  DW_TAG_member
    6829                      .dwattr $C$DW$571, DW_AT_type(*$C$DW$T$37)
    6830                      .dwattr $C$DW$571, DW_AT_name("RSVD33")
    6831                      .dwattr $C$DW$571, DW_AT_TI_symbol_name("_RSVD33")
    6832                      .dwattr $C$DW$571, DW_AT_data_member_location[DW_OP_plus_uconst 0x433]
    6833                      .dwattr $C$DW$571, DW_AT_accessibility(DW_ACCESS_public)
    6834              $C$DW$572       .dwtag  DW_TAG_member
    6835                      .dwattr $C$DW$572, DW_AT_type(*$C$DW$T$20)
    6836                      .dwattr $C$DW$572, DW_AT_name("DEVCTL")
    6837                      .dwattr $C$DW$572, DW_AT_TI_symbol_name("_DEVCTL")
    6838                      .dwattr $C$DW$572, DW_AT_data_member_location[DW_OP_plus_uconst 0x461]
    6839                      .dwattr $C$DW$572, DW_AT_accessibility(DW_ACCESS_public)
    6840              $C$DW$573       .dwtag  DW_TAG_member
    6841                      .dwattr $C$DW$573, DW_AT_type(*$C$DW$T$20)
    6842                      .dwattr $C$DW$573, DW_AT_name("TXFIFOSZ_RXFIFOSZ")
    6843                      .dwattr $C$DW$573, DW_AT_TI_symbol_name("_TXFIFOSZ_RXFIFOSZ")
    6844                      .dwattr $C$DW$573, DW_AT_data_member_location[DW_OP_plus_uconst 0x462]
    6845                      .dwattr $C$DW$573, DW_AT_accessibility(DW_ACCESS_public)
    6846              $C$DW$574       .dwtag  DW_TAG_member
    6847                      .dwattr $C$DW$574, DW_AT_type(*$C$DW$T$21)
    6848                      .dwattr $C$DW$574, DW_AT_name("RSVD34")
    6849                      .dwattr $C$DW$574, DW_AT_TI_symbol_name("_RSVD34")
    6850                      .dwattr $C$DW$574, DW_AT_data_member_location[DW_OP_plus_uconst 0x463]
    6851                      .dwattr $C$DW$574, DW_AT_accessibility(DW_ACCESS_public)
    6852              $C$DW$575       .dwtag  DW_TAG_member
    6853                      .dwattr $C$DW$575, DW_AT_type(*$C$DW$T$20)
    6854                      .dwattr $C$DW$575, DW_AT_name("TXFIFOADDR")
    6855                      .dwattr $C$DW$575, DW_AT_TI_symbol_name("_TXFIFOADDR")
    6856                      .dwattr $C$DW$575, DW_AT_data_member_location[DW_OP_plus_uconst 0x465]
    6857                      .dwattr $C$DW$575, DW_AT_accessibility(DW_ACCESS_public)
    6858              $C$DW$576       .dwtag  DW_TAG_member
    6859                      .dwattr $C$DW$576, DW_AT_type(*$C$DW$T$20)
    6860                      .dwattr $C$DW$576, DW_AT_name("RXFIFOADDR")
    6861                      .dwattr $C$DW$576, DW_AT_TI_symbol_name("_RXFIFOADDR")
    6862                      .dwattr $C$DW$576, DW_AT_data_member_location[DW_OP_plus_uconst 0x466]
    6863                      .dwattr $C$DW$576, DW_AT_accessibility(DW_ACCESS_public)
TMS320C55x Assembler PC v4.4.1 Sat Sep 29 23:08:40 2018

Tools Copyright (c) 1996-2012 Texas Instruments Incorporated
csl_usb_dma_example.asm                                              PAGE  163

    6864              $C$DW$577       .dwtag  DW_TAG_member
    6865                      .dwattr $C$DW$577, DW_AT_type(*$C$DW$T$25)
    6866                      .dwattr $C$DW$577, DW_AT_name("RSVD35")
    6867                      .dwattr $C$DW$577, DW_AT_TI_symbol_name("_RSVD35")
    6868                      .dwattr $C$DW$577, DW_AT_data_member_location[DW_OP_plus_uconst 0x467]
    6869                      .dwattr $C$DW$577, DW_AT_accessibility(DW_ACCESS_public)
    6870              $C$DW$578       .dwtag  DW_TAG_member
    6871                      .dwattr $C$DW$578, DW_AT_type(*$C$DW$T$20)
    6872                      .dwattr $C$DW$578, DW_AT_name("HWVERS")
    6873                      .dwattr $C$DW$578, DW_AT_TI_symbol_name("_HWVERS")
    6874                      .dwattr $C$DW$578, DW_AT_data_member_location[DW_OP_plus_uconst 0x46d]
    6875                      .dwattr $C$DW$578, DW_AT_accessibility(DW_ACCESS_public)
    6876              $C$DW$579       .dwtag  DW_TAG_member
    6877                      .dwattr $C$DW$579, DW_AT_type(*$C$DW$T$38)
    6878                      .dwattr $C$DW$579, DW_AT_name("RSVD37")
    6879                      .dwattr $C$DW$579, DW_AT_TI_symbol_name("_RSVD37")
    6880                      .dwattr $C$DW$579, DW_AT_data_member_location[DW_OP_plus_uconst 0x46e]
    6881                      .dwattr $C$DW$579, DW_AT_accessibility(DW_ACCESS_public)
    6882              $C$DW$580       .dwtag  DW_TAG_member
    6883                      .dwattr $C$DW$580, DW_AT_type(*$C$DW$T$40)
    6884                      .dwattr $C$DW$580, DW_AT_name("EPTRG")
    6885                      .dwattr $C$DW$580, DW_AT_TI_symbol_name("_EPTRG")
    6886                      .dwattr $C$DW$580, DW_AT_data_member_location[DW_OP_plus_uconst 0x481]
    6887                      .dwattr $C$DW$580, DW_AT_accessibility(DW_ACCESS_public)
    6888              $C$DW$581       .dwtag  DW_TAG_member
    6889                      .dwattr $C$DW$581, DW_AT_type(*$C$DW$T$41)
    6890                      .dwattr $C$DW$581, DW_AT_name("RSVD38")
    6891                      .dwattr $C$DW$581, DW_AT_TI_symbol_name("_RSVD38")
    6892                      .dwattr $C$DW$581, DW_AT_data_member_location[DW_OP_plus_uconst 0x4a9]
    6893                      .dwattr $C$DW$581, DW_AT_accessibility(DW_ACCESS_public)
    6894              $C$DW$582       .dwtag  DW_TAG_member
    6895                      .dwattr $C$DW$582, DW_AT_type(*$C$DW$T$20)
    6896                      .dwattr $C$DW$582, DW_AT_name("PERI_CSR0")
    6897                      .dwattr $C$DW$582, DW_AT_TI_symbol_name("_PERI_CSR0")
    6898                      .dwattr $C$DW$582, DW_AT_data_member_location[DW_OP_plus_uconst 0x502]
    6899                      .dwattr $C$DW$582, DW_AT_accessibility(DW_ACCESS_public)
    6900              $C$DW$583       .dwtag  DW_TAG_member
    6901                      .dwattr $C$DW$583, DW_AT_type(*$C$DW$T$25)
    6902                      .dwattr $C$DW$583, DW_AT_name("RSVD39")
    6903                      .dwattr $C$DW$583, DW_AT_TI_symbol_name("_RSVD39")
    6904                      .dwattr $C$DW$583, DW_AT_data_member_location[DW_OP_plus_uconst 0x503]
    6905                      .dwattr $C$DW$583, DW_AT_accessibility(DW_ACCESS_public)
    6906              $C$DW$584       .dwtag  DW_TAG_member
    6907                      .dwattr $C$DW$584, DW_AT_type(*$C$DW$T$20)
    6908                      .dwattr $C$DW$584, DW_AT_name("COUNT0")
    6909                      .dwattr $C$DW$584, DW_AT_TI_symbol_name("_COUNT0")
    6910                      .dwattr $C$DW$584, DW_AT_data_member_location[DW_OP_plus_uconst 0x509]
    6911                      .dwattr $C$DW$584, DW_AT_accessibility(DW_ACCESS_public)
    6912              $C$DW$585       .dwtag  DW_TAG_member
    6913                      .dwattr $C$DW$585, DW_AT_type(*$C$DW$T$36)
    6914                      .dwattr $C$DW$585, DW_AT_name("RSVD40")
    6915                      .dwattr $C$DW$585, DW_AT_TI_symbol_name("_RSVD40")
    6916                      .dwattr $C$DW$585, DW_AT_data_member_location[DW_OP_plus_uconst 0x50a]
    6917                      .dwattr $C$DW$585, DW_AT_accessibility(DW_ACCESS_public)
    6918              $C$DW$586       .dwtag  DW_TAG_member
TMS320C55x Assembler PC v4.4.1 Sat Sep 29 23:08:40 2018

Tools Copyright (c) 1996-2012 Texas Instruments Incorporated
csl_usb_dma_example.asm                                              PAGE  164

    6919                      .dwattr $C$DW$586, DW_AT_type(*$C$DW$T$20)
    6920                      .dwattr $C$DW$586, DW_AT_name("CONFIGDATA")
    6921                      .dwattr $C$DW$586, DW_AT_TI_symbol_name("_CONFIGDATA")
    6922                      .dwattr $C$DW$586, DW_AT_data_member_location[DW_OP_plus_uconst 0x50e]
    6923                      .dwattr $C$DW$586, DW_AT_accessibility(DW_ACCESS_public)
    6924              $C$DW$587       .dwtag  DW_TAG_member
    6925                      .dwattr $C$DW$587, DW_AT_type(*$C$DW$T$21)
    6926                      .dwattr $C$DW$587, DW_AT_name("RSVD42")
    6927                      .dwattr $C$DW$587, DW_AT_TI_symbol_name("_RSVD42")
    6928                      .dwattr $C$DW$587, DW_AT_data_member_location[DW_OP_plus_uconst 0x50f]
    6929                      .dwattr $C$DW$587, DW_AT_accessibility(DW_ACCESS_public)
    6930              $C$DW$588       .dwtag  DW_TAG_member
    6931                      .dwattr $C$DW$588, DW_AT_type(*$C$DW$T$43)
    6932                      .dwattr $C$DW$588, DW_AT_name("EPCSR")
    6933                      .dwattr $C$DW$588, DW_AT_TI_symbol_name("_EPCSR")
    6934                      .dwattr $C$DW$588, DW_AT_data_member_location[DW_OP_plus_uconst 0x511]
    6935                      .dwattr $C$DW$588, DW_AT_accessibility(DW_ACCESS_public)
    6936              $C$DW$589       .dwtag  DW_TAG_member
    6937                      .dwattr $C$DW$589, DW_AT_type(*$C$DW$T$44)
    6938                      .dwattr $C$DW$589, DW_AT_name("RSVD43")
    6939                      .dwattr $C$DW$589, DW_AT_TI_symbol_name("_RSVD43")
    6940                      .dwattr $C$DW$589, DW_AT_data_member_location[DW_OP_plus_uconst 0x551]
    6941                      .dwattr $C$DW$589, DW_AT_accessibility(DW_ACCESS_public)
    6942              $C$DW$590       .dwtag  DW_TAG_member
    6943                      .dwattr $C$DW$590, DW_AT_type(*$C$DW$T$20)
    6944                      .dwattr $C$DW$590, DW_AT_name("DMAREVID1")
    6945                      .dwattr $C$DW$590, DW_AT_TI_symbol_name("_DMAREVID1")
    6946                      .dwattr $C$DW$590, DW_AT_data_member_location[DW_OP_plus_uconst 0x1000]
    6947                      .dwattr $C$DW$590, DW_AT_accessibility(DW_ACCESS_public)
    6948              $C$DW$591       .dwtag  DW_TAG_member
    6949                      .dwattr $C$DW$591, DW_AT_type(*$C$DW$T$20)
    6950                      .dwattr $C$DW$591, DW_AT_name("DMAREVID2")
    6951                      .dwattr $C$DW$591, DW_AT_TI_symbol_name("_DMAREVID2")
    6952                      .dwattr $C$DW$591, DW_AT_data_member_location[DW_OP_plus_uconst 0x1001]
    6953                      .dwattr $C$DW$591, DW_AT_accessibility(DW_ACCESS_public)
    6954              $C$DW$592       .dwtag  DW_TAG_member
    6955                      .dwattr $C$DW$592, DW_AT_type(*$C$DW$T$21)
    6956                      .dwattr $C$DW$592, DW_AT_name("RSVD44")
    6957                      .dwattr $C$DW$592, DW_AT_TI_symbol_name("_RSVD44")
    6958                      .dwattr $C$DW$592, DW_AT_data_member_location[DW_OP_plus_uconst 0x1002]
    6959                      .dwattr $C$DW$592, DW_AT_accessibility(DW_ACCESS_public)
    6960              $C$DW$593       .dwtag  DW_TAG_member
    6961                      .dwattr $C$DW$593, DW_AT_type(*$C$DW$T$20)
    6962                      .dwattr $C$DW$593, DW_AT_name("TDFDQ")
    6963                      .dwattr $C$DW$593, DW_AT_TI_symbol_name("_TDFDQ")
    6964                      .dwattr $C$DW$593, DW_AT_data_member_location[DW_OP_plus_uconst 0x1004]
    6965                      .dwattr $C$DW$593, DW_AT_accessibility(DW_ACCESS_public)
    6966              $C$DW$594       .dwtag  DW_TAG_member
    6967                      .dwattr $C$DW$594, DW_AT_type(*$C$DW$T$33)
    6968                      .dwattr $C$DW$594, DW_AT_name("RSVD45")
    6969                      .dwattr $C$DW$594, DW_AT_TI_symbol_name("_RSVD45")
    6970                      .dwattr $C$DW$594, DW_AT_data_member_location[DW_OP_plus_uconst 0x1005]
    6971                      .dwattr $C$DW$594, DW_AT_accessibility(DW_ACCESS_public)
    6972              $C$DW$595       .dwtag  DW_TAG_member
    6973                      .dwattr $C$DW$595, DW_AT_type(*$C$DW$T$20)
TMS320C55x Assembler PC v4.4.1 Sat Sep 29 23:08:40 2018

Tools Copyright (c) 1996-2012 Texas Instruments Incorporated
csl_usb_dma_example.asm                                              PAGE  165

    6974                      .dwattr $C$DW$595, DW_AT_name("DMAEMU")
    6975                      .dwattr $C$DW$595, DW_AT_TI_symbol_name("_DMAEMU")
    6976                      .dwattr $C$DW$595, DW_AT_data_member_location[DW_OP_plus_uconst 0x1008]
    6977                      .dwattr $C$DW$595, DW_AT_accessibility(DW_ACCESS_public)
    6978              $C$DW$596       .dwtag  DW_TAG_member
    6979                      .dwattr $C$DW$596, DW_AT_type(*$C$DW$T$45)
    6980                      .dwattr $C$DW$596, DW_AT_name("RSVD47")
    6981                      .dwattr $C$DW$596, DW_AT_TI_symbol_name("_RSVD47")
    6982                      .dwattr $C$DW$596, DW_AT_data_member_location[DW_OP_plus_uconst 0x1009]
    6983                      .dwattr $C$DW$596, DW_AT_accessibility(DW_ACCESS_public)
    6984              $C$DW$597       .dwtag  DW_TAG_member
    6985                      .dwattr $C$DW$597, DW_AT_type(*$C$DW$T$47)
    6986                      .dwattr $C$DW$597, DW_AT_name("CHANNEL")
    6987                      .dwattr $C$DW$597, DW_AT_TI_symbol_name("_CHANNEL")
    6988                      .dwattr $C$DW$597, DW_AT_data_member_location[DW_OP_plus_uconst 0x1800]
    6989                      .dwattr $C$DW$597, DW_AT_accessibility(DW_ACCESS_public)
    6990              $C$DW$598       .dwtag  DW_TAG_member
    6991                      .dwattr $C$DW$598, DW_AT_type(*$C$DW$T$48)
    6992                      .dwattr $C$DW$598, DW_AT_name("RSVD48")
    6993                      .dwattr $C$DW$598, DW_AT_TI_symbol_name("_RSVD48")
    6994                      .dwattr $C$DW$598, DW_AT_data_member_location[DW_OP_plus_uconst 0x1880]
    6995                      .dwattr $C$DW$598, DW_AT_accessibility(DW_ACCESS_public)
    6996              $C$DW$599       .dwtag  DW_TAG_member
    6997                      .dwattr $C$DW$599, DW_AT_type(*$C$DW$T$20)
    6998                      .dwattr $C$DW$599, DW_AT_name("DMA_SCHED_CTRL1")
    6999                      .dwattr $C$DW$599, DW_AT_TI_symbol_name("_DMA_SCHED_CTRL1")
    7000                      .dwattr $C$DW$599, DW_AT_data_member_location[DW_OP_plus_uconst 0x2000]
    7001                      .dwattr $C$DW$599, DW_AT_accessibility(DW_ACCESS_public)
    7002              $C$DW$600       .dwtag  DW_TAG_member
    7003                      .dwattr $C$DW$600, DW_AT_type(*$C$DW$T$20)
    7004                      .dwattr $C$DW$600, DW_AT_name("DMA_SCHED_CTRL2")
    7005                      .dwattr $C$DW$600, DW_AT_TI_symbol_name("_DMA_SCHED_CTRL2")
    7006                      .dwattr $C$DW$600, DW_AT_data_member_location[DW_OP_plus_uconst 0x2001]
    7007                      .dwattr $C$DW$600, DW_AT_accessibility(DW_ACCESS_public)
    7008              $C$DW$601       .dwtag  DW_TAG_member
    7009                      .dwattr $C$DW$601, DW_AT_type(*$C$DW$T$49)
    7010                      .dwattr $C$DW$601, DW_AT_name("RSVD50")
    7011                      .dwattr $C$DW$601, DW_AT_TI_symbol_name("_RSVD50")
    7012                      .dwattr $C$DW$601, DW_AT_data_member_location[DW_OP_plus_uconst 0x2002]
    7013                      .dwattr $C$DW$601, DW_AT_accessibility(DW_ACCESS_public)
    7014              $C$DW$602       .dwtag  DW_TAG_member
    7015                      .dwattr $C$DW$602, DW_AT_type(*$C$DW$T$51)
    7016                      .dwattr $C$DW$602, DW_AT_name("CDMASCHETBLWORD")
    7017                      .dwattr $C$DW$602, DW_AT_TI_symbol_name("_CDMASCHETBLWORD")
    7018                      .dwattr $C$DW$602, DW_AT_data_member_location[DW_OP_plus_uconst 0x2800]
    7019                      .dwattr $C$DW$602, DW_AT_accessibility(DW_ACCESS_public)
    7020              $C$DW$603       .dwtag  DW_TAG_member
    7021                      .dwattr $C$DW$603, DW_AT_type(*$C$DW$T$52)
    7022                      .dwattr $C$DW$603, DW_AT_name("RSVD51")
    7023                      .dwattr $C$DW$603, DW_AT_TI_symbol_name("_RSVD51")
    7024                      .dwattr $C$DW$603, DW_AT_data_member_location[DW_OP_plus_uconst 0x2900]
    7025                      .dwattr $C$DW$603, DW_AT_accessibility(DW_ACCESS_public)
    7026              $C$DW$604       .dwtag  DW_TAG_member
    7027                      .dwattr $C$DW$604, DW_AT_type(*$C$DW$T$20)
    7028                      .dwattr $C$DW$604, DW_AT_name("QMGRREVID1")
TMS320C55x Assembler PC v4.4.1 Sat Sep 29 23:08:40 2018

Tools Copyright (c) 1996-2012 Texas Instruments Incorporated
csl_usb_dma_example.asm                                              PAGE  166

    7029                      .dwattr $C$DW$604, DW_AT_TI_symbol_name("_QMGRREVID1")
    7030                      .dwattr $C$DW$604, DW_AT_data_member_location[DW_OP_plus_uconst 0x4000]
    7031                      .dwattr $C$DW$604, DW_AT_accessibility(DW_ACCESS_public)
    7032              $C$DW$605       .dwtag  DW_TAG_member
    7033                      .dwattr $C$DW$605, DW_AT_type(*$C$DW$T$20)
    7034                      .dwattr $C$DW$605, DW_AT_name("QMGRREVID2")
    7035                      .dwattr $C$DW$605, DW_AT_TI_symbol_name("_QMGRREVID2")
    7036                      .dwattr $C$DW$605, DW_AT_data_member_location[DW_OP_plus_uconst 0x4001]
    7037                      .dwattr $C$DW$605, DW_AT_accessibility(DW_ACCESS_public)
    7038              $C$DW$606       .dwtag  DW_TAG_member
    7039                      .dwattr $C$DW$606, DW_AT_type(*$C$DW$T$25)
    7040                      .dwattr $C$DW$606, DW_AT_name("RSVD52")
    7041                      .dwattr $C$DW$606, DW_AT_TI_symbol_name("_RSVD52")
    7042                      .dwattr $C$DW$606, DW_AT_data_member_location[DW_OP_plus_uconst 0x4002]
    7043                      .dwattr $C$DW$606, DW_AT_accessibility(DW_ACCESS_public)
    7044              $C$DW$607       .dwtag  DW_TAG_member
    7045                      .dwattr $C$DW$607, DW_AT_type(*$C$DW$T$20)
    7046                      .dwattr $C$DW$607, DW_AT_name("DIVERSION1")
    7047                      .dwattr $C$DW$607, DW_AT_TI_symbol_name("_DIVERSION1")
    7048                      .dwattr $C$DW$607, DW_AT_data_member_location[DW_OP_plus_uconst 0x4008]
    7049                      .dwattr $C$DW$607, DW_AT_accessibility(DW_ACCESS_public)
    7050              $C$DW$608       .dwtag  DW_TAG_member
    7051                      .dwattr $C$DW$608, DW_AT_type(*$C$DW$T$20)
    7052                      .dwattr $C$DW$608, DW_AT_name("DIVERSION2")
    7053                      .dwattr $C$DW$608, DW_AT_TI_symbol_name("_DIVERSION2")
    7054                      .dwattr $C$DW$608, DW_AT_data_member_location[DW_OP_plus_uconst 0x4009]
    7055                      .dwattr $C$DW$608, DW_AT_accessibility(DW_ACCESS_public)
    7056              $C$DW$609       .dwtag  DW_TAG_member
    7057                      .dwattr $C$DW$609, DW_AT_type(*$C$DW$T$53)
    7058                      .dwattr $C$DW$609, DW_AT_name("RSVD53")
    7059                      .dwattr $C$DW$609, DW_AT_TI_symbol_name("_RSVD53")
    7060                      .dwattr $C$DW$609, DW_AT_data_member_location[DW_OP_plus_uconst 0x400a]
    7061                      .dwattr $C$DW$609, DW_AT_accessibility(DW_ACCESS_public)
    7062              $C$DW$610       .dwtag  DW_TAG_member
    7063                      .dwattr $C$DW$610, DW_AT_type(*$C$DW$T$20)
    7064                      .dwattr $C$DW$610, DW_AT_name("FDBSC0")
    7065                      .dwattr $C$DW$610, DW_AT_TI_symbol_name("_FDBSC0")
    7066                      .dwattr $C$DW$610, DW_AT_data_member_location[DW_OP_plus_uconst 0x4020]
    7067                      .dwattr $C$DW$610, DW_AT_accessibility(DW_ACCESS_public)
    7068              $C$DW$611       .dwtag  DW_TAG_member
    7069                      .dwattr $C$DW$611, DW_AT_type(*$C$DW$T$20)
    7070                      .dwattr $C$DW$611, DW_AT_name("FDBSC1")
    7071                      .dwattr $C$DW$611, DW_AT_TI_symbol_name("_FDBSC1")
    7072                      .dwattr $C$DW$611, DW_AT_data_member_location[DW_OP_plus_uconst 0x4021]
    7073                      .dwattr $C$DW$611, DW_AT_accessibility(DW_ACCESS_public)
    7074              $C$DW$612       .dwtag  DW_TAG_member
    7075                      .dwattr $C$DW$612, DW_AT_type(*$C$DW$T$21)
    7076                      .dwattr $C$DW$612, DW_AT_name("RSVD54")
    7077                      .dwattr $C$DW$612, DW_AT_TI_symbol_name("_RSVD54")
    7078                      .dwattr $C$DW$612, DW_AT_data_member_location[DW_OP_plus_uconst 0x4022]
    7079                      .dwattr $C$DW$612, DW_AT_accessibility(DW_ACCESS_public)
    7080              $C$DW$613       .dwtag  DW_TAG_member
    7081                      .dwattr $C$DW$613, DW_AT_type(*$C$DW$T$20)
    7082                      .dwattr $C$DW$613, DW_AT_name("FDBSC2")
    7083                      .dwattr $C$DW$613, DW_AT_TI_symbol_name("_FDBSC2")
TMS320C55x Assembler PC v4.4.1 Sat Sep 29 23:08:40 2018

Tools Copyright (c) 1996-2012 Texas Instruments Incorporated
csl_usb_dma_example.asm                                              PAGE  167

    7084                      .dwattr $C$DW$613, DW_AT_data_member_location[DW_OP_plus_uconst 0x4024]
    7085                      .dwattr $C$DW$613, DW_AT_accessibility(DW_ACCESS_public)
    7086              $C$DW$614       .dwtag  DW_TAG_member
    7087                      .dwattr $C$DW$614, DW_AT_type(*$C$DW$T$20)
    7088                      .dwattr $C$DW$614, DW_AT_name("FDBSC3")
    7089                      .dwattr $C$DW$614, DW_AT_TI_symbol_name("_FDBSC3")
    7090                      .dwattr $C$DW$614, DW_AT_data_member_location[DW_OP_plus_uconst 0x4025]
    7091                      .dwattr $C$DW$614, DW_AT_accessibility(DW_ACCESS_public)
    7092              $C$DW$615       .dwtag  DW_TAG_member
    7093                      .dwattr $C$DW$615, DW_AT_type(*$C$DW$T$21)
    7094                      .dwattr $C$DW$615, DW_AT_name("RSVD55")
    7095                      .dwattr $C$DW$615, DW_AT_TI_symbol_name("_RSVD55")
    7096                      .dwattr $C$DW$615, DW_AT_data_member_location[DW_OP_plus_uconst 0x4026]
    7097                      .dwattr $C$DW$615, DW_AT_accessibility(DW_ACCESS_public)
    7098              $C$DW$616       .dwtag  DW_TAG_member
    7099                      .dwattr $C$DW$616, DW_AT_type(*$C$DW$T$20)
    7100                      .dwattr $C$DW$616, DW_AT_name("FDBSC4")
    7101                      .dwattr $C$DW$616, DW_AT_TI_symbol_name("_FDBSC4")
    7102                      .dwattr $C$DW$616, DW_AT_data_member_location[DW_OP_plus_uconst 0x4028]
    7103                      .dwattr $C$DW$616, DW_AT_accessibility(DW_ACCESS_public)
    7104              $C$DW$617       .dwtag  DW_TAG_member
    7105                      .dwattr $C$DW$617, DW_AT_type(*$C$DW$T$20)
    7106                      .dwattr $C$DW$617, DW_AT_name("FDBSC5")
    7107                      .dwattr $C$DW$617, DW_AT_TI_symbol_name("_FDBSC5")
    7108                      .dwattr $C$DW$617, DW_AT_data_member_location[DW_OP_plus_uconst 0x4029]
    7109                      .dwattr $C$DW$617, DW_AT_accessibility(DW_ACCESS_public)
    7110              $C$DW$618       .dwtag  DW_TAG_member
    7111                      .dwattr $C$DW$618, DW_AT_type(*$C$DW$T$21)
    7112                      .dwattr $C$DW$618, DW_AT_name("RSVD56")
    7113                      .dwattr $C$DW$618, DW_AT_TI_symbol_name("_RSVD56")
    7114                      .dwattr $C$DW$618, DW_AT_data_member_location[DW_OP_plus_uconst 0x402a]
    7115                      .dwattr $C$DW$618, DW_AT_accessibility(DW_ACCESS_public)
    7116              $C$DW$619       .dwtag  DW_TAG_member
    7117                      .dwattr $C$DW$619, DW_AT_type(*$C$DW$T$20)
    7118                      .dwattr $C$DW$619, DW_AT_name("FDBSC6")
    7119                      .dwattr $C$DW$619, DW_AT_TI_symbol_name("_FDBSC6")
    7120                      .dwattr $C$DW$619, DW_AT_data_member_location[DW_OP_plus_uconst 0x402c]
    7121                      .dwattr $C$DW$619, DW_AT_accessibility(DW_ACCESS_public)
    7122              $C$DW$620       .dwtag  DW_TAG_member
    7123                      .dwattr $C$DW$620, DW_AT_type(*$C$DW$T$20)
    7124                      .dwattr $C$DW$620, DW_AT_name("FDBSC7")
    7125                      .dwattr $C$DW$620, DW_AT_TI_symbol_name("_FDBSC7")
    7126                      .dwattr $C$DW$620, DW_AT_data_member_location[DW_OP_plus_uconst 0x402d]
    7127                      .dwattr $C$DW$620, DW_AT_accessibility(DW_ACCESS_public)
    7128              $C$DW$621       .dwtag  DW_TAG_member
    7129                      .dwattr $C$DW$621, DW_AT_type(*$C$DW$T$54)
    7130                      .dwattr $C$DW$621, DW_AT_name("RSVD57")
    7131                      .dwattr $C$DW$621, DW_AT_TI_symbol_name("_RSVD57")
    7132                      .dwattr $C$DW$621, DW_AT_data_member_location[DW_OP_plus_uconst 0x402e]
    7133                      .dwattr $C$DW$621, DW_AT_accessibility(DW_ACCESS_public)
    7134              $C$DW$622       .dwtag  DW_TAG_member
    7135                      .dwattr $C$DW$622, DW_AT_type(*$C$DW$T$20)
    7136                      .dwattr $C$DW$622, DW_AT_name("LRAM0BASE1")
    7137                      .dwattr $C$DW$622, DW_AT_TI_symbol_name("_LRAM0BASE1")
    7138                      .dwattr $C$DW$622, DW_AT_data_member_location[DW_OP_plus_uconst 0x4080]
TMS320C55x Assembler PC v4.4.1 Sat Sep 29 23:08:40 2018

Tools Copyright (c) 1996-2012 Texas Instruments Incorporated
csl_usb_dma_example.asm                                              PAGE  168

    7139                      .dwattr $C$DW$622, DW_AT_accessibility(DW_ACCESS_public)
    7140              $C$DW$623       .dwtag  DW_TAG_member
    7141                      .dwattr $C$DW$623, DW_AT_type(*$C$DW$T$20)
    7142                      .dwattr $C$DW$623, DW_AT_name("LRAM0BASE2")
    7143                      .dwattr $C$DW$623, DW_AT_TI_symbol_name("_LRAM0BASE2")
    7144                      .dwattr $C$DW$623, DW_AT_data_member_location[DW_OP_plus_uconst 0x4081]
    7145                      .dwattr $C$DW$623, DW_AT_accessibility(DW_ACCESS_public)
    7146              $C$DW$624       .dwtag  DW_TAG_member
    7147                      .dwattr $C$DW$624, DW_AT_type(*$C$DW$T$21)
    7148                      .dwattr $C$DW$624, DW_AT_name("RSVD58")
    7149                      .dwattr $C$DW$624, DW_AT_TI_symbol_name("_RSVD58")
    7150                      .dwattr $C$DW$624, DW_AT_data_member_location[DW_OP_plus_uconst 0x4082]
    7151                      .dwattr $C$DW$624, DW_AT_accessibility(DW_ACCESS_public)
    7152              $C$DW$625       .dwtag  DW_TAG_member
    7153                      .dwattr $C$DW$625, DW_AT_type(*$C$DW$T$20)
    7154                      .dwattr $C$DW$625, DW_AT_name("LRAM0SIZE")
    7155                      .dwattr $C$DW$625, DW_AT_TI_symbol_name("_LRAM0SIZE")
    7156                      .dwattr $C$DW$625, DW_AT_data_member_location[DW_OP_plus_uconst 0x4084]
    7157                      .dwattr $C$DW$625, DW_AT_accessibility(DW_ACCESS_public)
    7158              $C$DW$626       .dwtag  DW_TAG_member
    7159                      .dwattr $C$DW$626, DW_AT_type(*$C$DW$T$33)
    7160                      .dwattr $C$DW$626, DW_AT_name("RSVD59")
    7161                      .dwattr $C$DW$626, DW_AT_TI_symbol_name("_RSVD59")
    7162                      .dwattr $C$DW$626, DW_AT_data_member_location[DW_OP_plus_uconst 0x4085]
    7163                      .dwattr $C$DW$626, DW_AT_accessibility(DW_ACCESS_public)
    7164              $C$DW$627       .dwtag  DW_TAG_member
    7165                      .dwattr $C$DW$627, DW_AT_type(*$C$DW$T$20)
    7166                      .dwattr $C$DW$627, DW_AT_name("LRAM1BASE1")
    7167                      .dwattr $C$DW$627, DW_AT_TI_symbol_name("_LRAM1BASE1")
    7168                      .dwattr $C$DW$627, DW_AT_data_member_location[DW_OP_plus_uconst 0x4088]
    7169                      .dwattr $C$DW$627, DW_AT_accessibility(DW_ACCESS_public)
    7170              $C$DW$628       .dwtag  DW_TAG_member
    7171                      .dwattr $C$DW$628, DW_AT_type(*$C$DW$T$20)
    7172                      .dwattr $C$DW$628, DW_AT_name("LRAM1BASE2")
    7173                      .dwattr $C$DW$628, DW_AT_TI_symbol_name("_LRAM1BASE2")
    7174                      .dwattr $C$DW$628, DW_AT_data_member_location[DW_OP_plus_uconst 0x4089]
    7175                      .dwattr $C$DW$628, DW_AT_accessibility(DW_ACCESS_public)
    7176              $C$DW$629       .dwtag  DW_TAG_member
    7177                      .dwattr $C$DW$629, DW_AT_type(*$C$DW$T$25)
    7178                      .dwattr $C$DW$629, DW_AT_name("RSVD60")
    7179                      .dwattr $C$DW$629, DW_AT_TI_symbol_name("_RSVD60")
    7180                      .dwattr $C$DW$629, DW_AT_data_member_location[DW_OP_plus_uconst 0x408a]
    7181                      .dwattr $C$DW$629, DW_AT_accessibility(DW_ACCESS_public)
    7182              $C$DW$630       .dwtag  DW_TAG_member
    7183                      .dwattr $C$DW$630, DW_AT_type(*$C$DW$T$20)
    7184                      .dwattr $C$DW$630, DW_AT_name("PEND0")
    7185                      .dwattr $C$DW$630, DW_AT_TI_symbol_name("_PEND0")
    7186                      .dwattr $C$DW$630, DW_AT_data_member_location[DW_OP_plus_uconst 0x4090]
    7187                      .dwattr $C$DW$630, DW_AT_accessibility(DW_ACCESS_public)
    7188              $C$DW$631       .dwtag  DW_TAG_member
    7189                      .dwattr $C$DW$631, DW_AT_type(*$C$DW$T$20)
    7190                      .dwattr $C$DW$631, DW_AT_name("PEND1")
    7191                      .dwattr $C$DW$631, DW_AT_TI_symbol_name("_PEND1")
    7192                      .dwattr $C$DW$631, DW_AT_data_member_location[DW_OP_plus_uconst 0x4091]
    7193                      .dwattr $C$DW$631, DW_AT_accessibility(DW_ACCESS_public)
TMS320C55x Assembler PC v4.4.1 Sat Sep 29 23:08:40 2018

Tools Copyright (c) 1996-2012 Texas Instruments Incorporated
csl_usb_dma_example.asm                                              PAGE  169

    7194              $C$DW$632       .dwtag  DW_TAG_member
    7195                      .dwattr $C$DW$632, DW_AT_type(*$C$DW$T$21)
    7196                      .dwattr $C$DW$632, DW_AT_name("RSVD61")
    7197                      .dwattr $C$DW$632, DW_AT_TI_symbol_name("_RSVD61")
    7198                      .dwattr $C$DW$632, DW_AT_data_member_location[DW_OP_plus_uconst 0x4092]
    7199                      .dwattr $C$DW$632, DW_AT_accessibility(DW_ACCESS_public)
    7200              $C$DW$633       .dwtag  DW_TAG_member
    7201                      .dwattr $C$DW$633, DW_AT_type(*$C$DW$T$20)
    7202                      .dwattr $C$DW$633, DW_AT_name("PEND2")
    7203                      .dwattr $C$DW$633, DW_AT_TI_symbol_name("_PEND2")
    7204                      .dwattr $C$DW$633, DW_AT_data_member_location[DW_OP_plus_uconst 0x4094]
    7205                      .dwattr $C$DW$633, DW_AT_accessibility(DW_ACCESS_public)
    7206              $C$DW$634       .dwtag  DW_TAG_member
    7207                      .dwattr $C$DW$634, DW_AT_type(*$C$DW$T$20)
    7208                      .dwattr $C$DW$634, DW_AT_name("PEND3")
    7209                      .dwattr $C$DW$634, DW_AT_TI_symbol_name("_PEND3")
    7210                      .dwattr $C$DW$634, DW_AT_data_member_location[DW_OP_plus_uconst 0x4095]
    7211                      .dwattr $C$DW$634, DW_AT_accessibility(DW_ACCESS_public)
    7212              $C$DW$635       .dwtag  DW_TAG_member
    7213                      .dwattr $C$DW$635, DW_AT_type(*$C$DW$T$21)
    7214                      .dwattr $C$DW$635, DW_AT_name("RSVD62")
    7215                      .dwattr $C$DW$635, DW_AT_TI_symbol_name("_RSVD62")
    7216                      .dwattr $C$DW$635, DW_AT_data_member_location[DW_OP_plus_uconst 0x4096]
    7217                      .dwattr $C$DW$635, DW_AT_accessibility(DW_ACCESS_public)
    7218              $C$DW$636       .dwtag  DW_TAG_member
    7219                      .dwattr $C$DW$636, DW_AT_type(*$C$DW$T$20)
    7220                      .dwattr $C$DW$636, DW_AT_name("PEND4")
    7221                      .dwattr $C$DW$636, DW_AT_TI_symbol_name("_PEND4")
    7222                      .dwattr $C$DW$636, DW_AT_data_member_location[DW_OP_plus_uconst 0x4098]
    7223                      .dwattr $C$DW$636, DW_AT_accessibility(DW_ACCESS_public)
    7224              $C$DW$637       .dwtag  DW_TAG_member
    7225                      .dwattr $C$DW$637, DW_AT_type(*$C$DW$T$20)
    7226                      .dwattr $C$DW$637, DW_AT_name("PEND5")
    7227                      .dwattr $C$DW$637, DW_AT_TI_symbol_name("_PEND5")
    7228                      .dwattr $C$DW$637, DW_AT_data_member_location[DW_OP_plus_uconst 0x4099]
    7229                      .dwattr $C$DW$637, DW_AT_accessibility(DW_ACCESS_public)
    7230              $C$DW$638       .dwtag  DW_TAG_member
    7231                      .dwattr $C$DW$638, DW_AT_type(*$C$DW$T$55)
    7232                      .dwattr $C$DW$638, DW_AT_name("RSVD64")
    7233                      .dwattr $C$DW$638, DW_AT_TI_symbol_name("_RSVD64")
    7234                      .dwattr $C$DW$638, DW_AT_data_member_location[DW_OP_plus_uconst 0x409a]
    7235                      .dwattr $C$DW$638, DW_AT_accessibility(DW_ACCESS_public)
    7236              $C$DW$639       .dwtag  DW_TAG_member
    7237                      .dwattr $C$DW$639, DW_AT_type(*$C$DW$T$57)
    7238                      .dwattr $C$DW$639, DW_AT_name("QMMEMREGR")
    7239                      .dwattr $C$DW$639, DW_AT_TI_symbol_name("_QMMEMREGR")
    7240                      .dwattr $C$DW$639, DW_AT_data_member_location[DW_OP_plus_uconst 0x5000]
    7241                      .dwattr $C$DW$639, DW_AT_accessibility(DW_ACCESS_public)
    7242              $C$DW$640       .dwtag  DW_TAG_member
    7243                      .dwattr $C$DW$640, DW_AT_type(*$C$DW$T$58)
    7244                      .dwattr $C$DW$640, DW_AT_name("RSVD66")
    7245                      .dwattr $C$DW$640, DW_AT_TI_symbol_name("_RSVD66")
    7246                      .dwattr $C$DW$640, DW_AT_data_member_location[DW_OP_plus_uconst 0x5100]
    7247                      .dwattr $C$DW$640, DW_AT_accessibility(DW_ACCESS_public)
    7248              $C$DW$641       .dwtag  DW_TAG_member
TMS320C55x Assembler PC v4.4.1 Sat Sep 29 23:08:40 2018

Tools Copyright (c) 1996-2012 Texas Instruments Incorporated
csl_usb_dma_example.asm                                              PAGE  170

    7249                      .dwattr $C$DW$641, DW_AT_type(*$C$DW$T$60)
    7250                      .dwattr $C$DW$641, DW_AT_name("QMQN")
    7251                      .dwattr $C$DW$641, DW_AT_TI_symbol_name("_QMQN")
    7252                      .dwattr $C$DW$641, DW_AT_data_member_location[DW_OP_plus_uconst 0x6000]
    7253                      .dwattr $C$DW$641, DW_AT_accessibility(DW_ACCESS_public)
    7254              $C$DW$642       .dwtag  DW_TAG_member
    7255                      .dwattr $C$DW$642, DW_AT_type(*$C$DW$T$61)
    7256                      .dwattr $C$DW$642, DW_AT_name("RSVD68")
    7257                      .dwattr $C$DW$642, DW_AT_TI_symbol_name("_RSVD68")
    7258                      .dwattr $C$DW$642, DW_AT_data_member_location[DW_OP_plus_uconst 0x6400]
    7259                      .dwattr $C$DW$642, DW_AT_accessibility(DW_ACCESS_public)
    7260              $C$DW$643       .dwtag  DW_TAG_member
    7261                      .dwattr $C$DW$643, DW_AT_type(*$C$DW$T$63)
    7262                      .dwattr $C$DW$643, DW_AT_name("QMQNS")
    7263                      .dwattr $C$DW$643, DW_AT_TI_symbol_name("_QMQNS")
    7264                      .dwattr $C$DW$643, DW_AT_data_member_location[DW_OP_plus_uconst 0x6800]
    7265                      .dwattr $C$DW$643, DW_AT_accessibility(DW_ACCESS_public)
    7266                      .dwendtag $C$DW$T$64
    7267              
    7268              $C$DW$T$151     .dwtag  DW_TAG_typedef, DW_AT_name("CSL_UsbRegs")
    7269                      .dwattr $C$DW$T$151, DW_AT_type(*$C$DW$T$64)
    7270                      .dwattr $C$DW$T$151, DW_AT_language(DW_LANG_C)
    7271              $C$DW$644       .dwtag  DW_TAG_TI_far_type
    7272                      .dwattr $C$DW$644, DW_AT_type(*$C$DW$T$151)
    7273              $C$DW$645       .dwtag  DW_TAG_TI_ioport_type
    7274                      .dwattr $C$DW$645, DW_AT_type(*$C$DW$644)
    7275              $C$DW$T$152     .dwtag  DW_TAG_volatile_type
    7276                      .dwattr $C$DW$T$152, DW_AT_type(*$C$DW$645)
    7277              $C$DW$T$153     .dwtag  DW_TAG_pointer_type
    7278                      .dwattr $C$DW$T$153, DW_AT_type(*$C$DW$T$152)
    7279                      .dwattr $C$DW$T$153, DW_AT_address_class(0x10)
    7280              $C$DW$T$154     .dwtag  DW_TAG_typedef, DW_AT_name("CSL_UsbRegsOvly")
    7281                      .dwattr $C$DW$T$154, DW_AT_type(*$C$DW$T$153)
    7282                      .dwattr $C$DW$T$154, DW_AT_language(DW_LANG_C)
    7283              
    7284              $C$DW$T$66      .dwtag  DW_TAG_structure_type
    7285                      .dwattr $C$DW$T$66, DW_AT_byte_size(0x48)
    7286              $C$DW$646       .dwtag  DW_TAG_member
    7287                      .dwattr $C$DW$646, DW_AT_type(*$C$DW$T$20)
    7288                      .dwattr $C$DW$646, DW_AT_name("EBSR")
    7289                      .dwattr $C$DW$646, DW_AT_TI_symbol_name("_EBSR")
    7290                      .dwattr $C$DW$646, DW_AT_data_member_location[DW_OP_plus_uconst 0x0]
    7291                      .dwattr $C$DW$646, DW_AT_accessibility(DW_ACCESS_public)
    7292              $C$DW$647       .dwtag  DW_TAG_member
    7293                      .dwattr $C$DW$647, DW_AT_type(*$C$DW$T$20)
    7294                      .dwattr $C$DW$647, DW_AT_name("RSVD0")
    7295                      .dwattr $C$DW$647, DW_AT_TI_symbol_name("_RSVD0")
    7296                      .dwattr $C$DW$647, DW_AT_data_member_location[DW_OP_plus_uconst 0x1]
    7297                      .dwattr $C$DW$647, DW_AT_accessibility(DW_ACCESS_public)
    7298              $C$DW$648       .dwtag  DW_TAG_member
    7299                      .dwattr $C$DW$648, DW_AT_type(*$C$DW$T$20)
    7300                      .dwattr $C$DW$648, DW_AT_name("PCGCR1")
    7301                      .dwattr $C$DW$648, DW_AT_TI_symbol_name("_PCGCR1")
    7302                      .dwattr $C$DW$648, DW_AT_data_member_location[DW_OP_plus_uconst 0x2]
    7303                      .dwattr $C$DW$648, DW_AT_accessibility(DW_ACCESS_public)
TMS320C55x Assembler PC v4.4.1 Sat Sep 29 23:08:40 2018

Tools Copyright (c) 1996-2012 Texas Instruments Incorporated
csl_usb_dma_example.asm                                              PAGE  171

    7304              $C$DW$649       .dwtag  DW_TAG_member
    7305                      .dwattr $C$DW$649, DW_AT_type(*$C$DW$T$20)
    7306                      .dwattr $C$DW$649, DW_AT_name("PCGCR2")
    7307                      .dwattr $C$DW$649, DW_AT_TI_symbol_name("_PCGCR2")
    7308                      .dwattr $C$DW$649, DW_AT_data_member_location[DW_OP_plus_uconst 0x3]
    7309                      .dwattr $C$DW$649, DW_AT_accessibility(DW_ACCESS_public)
    7310              $C$DW$650       .dwtag  DW_TAG_member
    7311                      .dwattr $C$DW$650, DW_AT_type(*$C$DW$T$20)
    7312                      .dwattr $C$DW$650, DW_AT_name("PSRCR")
    7313                      .dwattr $C$DW$650, DW_AT_TI_symbol_name("_PSRCR")
    7314                      .dwattr $C$DW$650, DW_AT_data_member_location[DW_OP_plus_uconst 0x4]
    7315                      .dwattr $C$DW$650, DW_AT_accessibility(DW_ACCESS_public)
    7316              $C$DW$651       .dwtag  DW_TAG_member
    7317                      .dwattr $C$DW$651, DW_AT_type(*$C$DW$T$20)
    7318                      .dwattr $C$DW$651, DW_AT_name("PRCR")
    7319                      .dwattr $C$DW$651, DW_AT_TI_symbol_name("_PRCR")
    7320                      .dwattr $C$DW$651, DW_AT_data_member_location[DW_OP_plus_uconst 0x5]
    7321                      .dwattr $C$DW$651, DW_AT_accessibility(DW_ACCESS_public)
    7322              $C$DW$652       .dwtag  DW_TAG_member
    7323                      .dwattr $C$DW$652, DW_AT_type(*$C$DW$T$26)
    7324                      .dwattr $C$DW$652, DW_AT_name("RSVD1")
    7325                      .dwattr $C$DW$652, DW_AT_TI_symbol_name("_RSVD1")
    7326                      .dwattr $C$DW$652, DW_AT_data_member_location[DW_OP_plus_uconst 0x6]
    7327                      .dwattr $C$DW$652, DW_AT_accessibility(DW_ACCESS_public)
    7328              $C$DW$653       .dwtag  DW_TAG_member
    7329                      .dwattr $C$DW$653, DW_AT_type(*$C$DW$T$20)
    7330                      .dwattr $C$DW$653, DW_AT_name("TIAFR")
    7331                      .dwattr $C$DW$653, DW_AT_TI_symbol_name("_TIAFR")
    7332                      .dwattr $C$DW$653, DW_AT_data_member_location[DW_OP_plus_uconst 0x14]
    7333                      .dwattr $C$DW$653, DW_AT_accessibility(DW_ACCESS_public)
    7334              $C$DW$654       .dwtag  DW_TAG_member
    7335                      .dwattr $C$DW$654, DW_AT_type(*$C$DW$T$20)
    7336                      .dwattr $C$DW$654, DW_AT_name("RSVD2")
    7337                      .dwattr $C$DW$654, DW_AT_TI_symbol_name("_RSVD2")
    7338                      .dwattr $C$DW$654, DW_AT_data_member_location[DW_OP_plus_uconst 0x15]
    7339                      .dwattr $C$DW$654, DW_AT_accessibility(DW_ACCESS_public)
    7340              $C$DW$655       .dwtag  DW_TAG_member
    7341                      .dwattr $C$DW$655, DW_AT_type(*$C$DW$T$20)
    7342                      .dwattr $C$DW$655, DW_AT_name("ODSCR")
    7343                      .dwattr $C$DW$655, DW_AT_TI_symbol_name("_ODSCR")
    7344                      .dwattr $C$DW$655, DW_AT_data_member_location[DW_OP_plus_uconst 0x16]
    7345                      .dwattr $C$DW$655, DW_AT_accessibility(DW_ACCESS_public)
    7346              $C$DW$656       .dwtag  DW_TAG_member
    7347                      .dwattr $C$DW$656, DW_AT_type(*$C$DW$T$20)
    7348                      .dwattr $C$DW$656, DW_AT_name("PDINHIBR1")
    7349                      .dwattr $C$DW$656, DW_AT_TI_symbol_name("_PDINHIBR1")
    7350                      .dwattr $C$DW$656, DW_AT_data_member_location[DW_OP_plus_uconst 0x17]
    7351                      .dwattr $C$DW$656, DW_AT_accessibility(DW_ACCESS_public)
    7352              $C$DW$657       .dwtag  DW_TAG_member
    7353                      .dwattr $C$DW$657, DW_AT_type(*$C$DW$T$20)
    7354                      .dwattr $C$DW$657, DW_AT_name("PDINHIBR2")
    7355                      .dwattr $C$DW$657, DW_AT_TI_symbol_name("_PDINHIBR2")
    7356                      .dwattr $C$DW$657, DW_AT_data_member_location[DW_OP_plus_uconst 0x18]
    7357                      .dwattr $C$DW$657, DW_AT_accessibility(DW_ACCESS_public)
    7358              $C$DW$658       .dwtag  DW_TAG_member
TMS320C55x Assembler PC v4.4.1 Sat Sep 29 23:08:40 2018

Tools Copyright (c) 1996-2012 Texas Instruments Incorporated
csl_usb_dma_example.asm                                              PAGE  172

    7359                      .dwattr $C$DW$658, DW_AT_type(*$C$DW$T$20)
    7360                      .dwattr $C$DW$658, DW_AT_name("PDINHIBR3")
    7361                      .dwattr $C$DW$658, DW_AT_TI_symbol_name("_PDINHIBR3")
    7362                      .dwattr $C$DW$658, DW_AT_data_member_location[DW_OP_plus_uconst 0x19]
    7363                      .dwattr $C$DW$658, DW_AT_accessibility(DW_ACCESS_public)
    7364              $C$DW$659       .dwtag  DW_TAG_member
    7365                      .dwattr $C$DW$659, DW_AT_type(*$C$DW$T$20)
    7366                      .dwattr $C$DW$659, DW_AT_name("DMA0CESR1")
    7367                      .dwattr $C$DW$659, DW_AT_TI_symbol_name("_DMA0CESR1")
    7368                      .dwattr $C$DW$659, DW_AT_data_member_location[DW_OP_plus_uconst 0x1a]
    7369                      .dwattr $C$DW$659, DW_AT_accessibility(DW_ACCESS_public)
    7370              $C$DW$660       .dwtag  DW_TAG_member
    7371                      .dwattr $C$DW$660, DW_AT_type(*$C$DW$T$20)
    7372                      .dwattr $C$DW$660, DW_AT_name("DMA0CESR2")
    7373                      .dwattr $C$DW$660, DW_AT_TI_symbol_name("_DMA0CESR2")
    7374                      .dwattr $C$DW$660, DW_AT_data_member_location[DW_OP_plus_uconst 0x1b]
    7375                      .dwattr $C$DW$660, DW_AT_accessibility(DW_ACCESS_public)
    7376              $C$DW$661       .dwtag  DW_TAG_member
    7377                      .dwattr $C$DW$661, DW_AT_type(*$C$DW$T$20)
    7378                      .dwattr $C$DW$661, DW_AT_name("DMA1CESR1")
    7379                      .dwattr $C$DW$661, DW_AT_TI_symbol_name("_DMA1CESR1")
    7380                      .dwattr $C$DW$661, DW_AT_data_member_location[DW_OP_plus_uconst 0x1c]
    7381                      .dwattr $C$DW$661, DW_AT_accessibility(DW_ACCESS_public)
    7382              $C$DW$662       .dwtag  DW_TAG_member
    7383                      .dwattr $C$DW$662, DW_AT_type(*$C$DW$T$20)
    7384                      .dwattr $C$DW$662, DW_AT_name("DMA1CESR2")
    7385                      .dwattr $C$DW$662, DW_AT_TI_symbol_name("_DMA1CESR2")
    7386                      .dwattr $C$DW$662, DW_AT_data_member_location[DW_OP_plus_uconst 0x1d]
    7387                      .dwattr $C$DW$662, DW_AT_accessibility(DW_ACCESS_public)
    7388              $C$DW$663       .dwtag  DW_TAG_member
    7389                      .dwattr $C$DW$663, DW_AT_type(*$C$DW$T$20)
    7390                      .dwattr $C$DW$663, DW_AT_name("SDRAMCCR")
    7391                      .dwattr $C$DW$663, DW_AT_TI_symbol_name("_SDRAMCCR")
    7392                      .dwattr $C$DW$663, DW_AT_data_member_location[DW_OP_plus_uconst 0x1e]
    7393                      .dwattr $C$DW$663, DW_AT_accessibility(DW_ACCESS_public)
    7394              $C$DW$664       .dwtag  DW_TAG_member
    7395                      .dwattr $C$DW$664, DW_AT_type(*$C$DW$T$20)
    7396                      .dwattr $C$DW$664, DW_AT_name("CCR2")
    7397                      .dwattr $C$DW$664, DW_AT_TI_symbol_name("_CCR2")
    7398                      .dwattr $C$DW$664, DW_AT_data_member_location[DW_OP_plus_uconst 0x1f]
    7399                      .dwattr $C$DW$664, DW_AT_accessibility(DW_ACCESS_public)
    7400              $C$DW$665       .dwtag  DW_TAG_member
    7401                      .dwattr $C$DW$665, DW_AT_type(*$C$DW$T$20)
    7402                      .dwattr $C$DW$665, DW_AT_name("CGCR1")
    7403                      .dwattr $C$DW$665, DW_AT_TI_symbol_name("_CGCR1")
    7404                      .dwattr $C$DW$665, DW_AT_data_member_location[DW_OP_plus_uconst 0x20]
    7405                      .dwattr $C$DW$665, DW_AT_accessibility(DW_ACCESS_public)
    7406              $C$DW$666       .dwtag  DW_TAG_member
    7407                      .dwattr $C$DW$666, DW_AT_type(*$C$DW$T$20)
    7408                      .dwattr $C$DW$666, DW_AT_name("CGICR")
    7409                      .dwattr $C$DW$666, DW_AT_TI_symbol_name("_CGICR")
    7410                      .dwattr $C$DW$666, DW_AT_data_member_location[DW_OP_plus_uconst 0x21]
    7411                      .dwattr $C$DW$666, DW_AT_accessibility(DW_ACCESS_public)
    7412              $C$DW$667       .dwtag  DW_TAG_member
    7413                      .dwattr $C$DW$667, DW_AT_type(*$C$DW$T$20)
TMS320C55x Assembler PC v4.4.1 Sat Sep 29 23:08:40 2018

Tools Copyright (c) 1996-2012 Texas Instruments Incorporated
csl_usb_dma_example.asm                                              PAGE  173

    7414                      .dwattr $C$DW$667, DW_AT_name("CGCR2")
    7415                      .dwattr $C$DW$667, DW_AT_TI_symbol_name("_CGCR2")
    7416                      .dwattr $C$DW$667, DW_AT_data_member_location[DW_OP_plus_uconst 0x22]
    7417                      .dwattr $C$DW$667, DW_AT_accessibility(DW_ACCESS_public)
    7418              $C$DW$668       .dwtag  DW_TAG_member
    7419                      .dwattr $C$DW$668, DW_AT_type(*$C$DW$T$20)
    7420                      .dwattr $C$DW$668, DW_AT_name("CGOCR")
    7421                      .dwattr $C$DW$668, DW_AT_TI_symbol_name("_CGOCR")
    7422                      .dwattr $C$DW$668, DW_AT_data_member_location[DW_OP_plus_uconst 0x23]
    7423                      .dwattr $C$DW$668, DW_AT_accessibility(DW_ACCESS_public)
    7424              $C$DW$669       .dwtag  DW_TAG_member
    7425                      .dwattr $C$DW$669, DW_AT_type(*$C$DW$T$20)
    7426                      .dwattr $C$DW$669, DW_AT_name("CCSSR")
    7427                      .dwattr $C$DW$669, DW_AT_TI_symbol_name("_CCSSR")
    7428                      .dwattr $C$DW$669, DW_AT_data_member_location[DW_OP_plus_uconst 0x24]
    7429                      .dwattr $C$DW$669, DW_AT_accessibility(DW_ACCESS_public)
    7430              $C$DW$670       .dwtag  DW_TAG_member
    7431                      .dwattr $C$DW$670, DW_AT_type(*$C$DW$T$20)
    7432                      .dwattr $C$DW$670, DW_AT_name("RSVD3")
    7433                      .dwattr $C$DW$670, DW_AT_TI_symbol_name("_RSVD3")
    7434                      .dwattr $C$DW$670, DW_AT_data_member_location[DW_OP_plus_uconst 0x25]
    7435                      .dwattr $C$DW$670, DW_AT_accessibility(DW_ACCESS_public)
    7436              $C$DW$671       .dwtag  DW_TAG_member
    7437                      .dwattr $C$DW$671, DW_AT_type(*$C$DW$T$20)
    7438                      .dwattr $C$DW$671, DW_AT_name("ECDR")
    7439                      .dwattr $C$DW$671, DW_AT_TI_symbol_name("_ECDR")
    7440                      .dwattr $C$DW$671, DW_AT_data_member_location[DW_OP_plus_uconst 0x26]
    7441                      .dwattr $C$DW$671, DW_AT_accessibility(DW_ACCESS_public)
    7442              $C$DW$672       .dwtag  DW_TAG_member
    7443                      .dwattr $C$DW$672, DW_AT_type(*$C$DW$T$20)
    7444                      .dwattr $C$DW$672, DW_AT_name("RSVD4")
    7445                      .dwattr $C$DW$672, DW_AT_TI_symbol_name("_RSVD4")
    7446                      .dwattr $C$DW$672, DW_AT_data_member_location[DW_OP_plus_uconst 0x27]
    7447                      .dwattr $C$DW$672, DW_AT_accessibility(DW_ACCESS_public)
    7448              $C$DW$673       .dwtag  DW_TAG_member
    7449                      .dwattr $C$DW$673, DW_AT_type(*$C$DW$T$20)
    7450                      .dwattr $C$DW$673, DW_AT_name("RAMSLPMDCNTLR1")
    7451                      .dwattr $C$DW$673, DW_AT_TI_symbol_name("_RAMSLPMDCNTLR1")
    7452                      .dwattr $C$DW$673, DW_AT_data_member_location[DW_OP_plus_uconst 0x28]
    7453                      .dwattr $C$DW$673, DW_AT_accessibility(DW_ACCESS_public)
    7454              $C$DW$674       .dwtag  DW_TAG_member
    7455                      .dwattr $C$DW$674, DW_AT_type(*$C$DW$T$20)
    7456                      .dwattr $C$DW$674, DW_AT_name("RSVD5")
    7457                      .dwattr $C$DW$674, DW_AT_TI_symbol_name("_RSVD5")
    7458                      .dwattr $C$DW$674, DW_AT_data_member_location[DW_OP_plus_uconst 0x29]
    7459                      .dwattr $C$DW$674, DW_AT_accessibility(DW_ACCESS_public)
    7460              $C$DW$675       .dwtag  DW_TAG_member
    7461                      .dwattr $C$DW$675, DW_AT_type(*$C$DW$T$20)
    7462                      .dwattr $C$DW$675, DW_AT_name("RAMSLPMDCNTLR2")
    7463                      .dwattr $C$DW$675, DW_AT_TI_symbol_name("_RAMSLPMDCNTLR2")
    7464                      .dwattr $C$DW$675, DW_AT_data_member_location[DW_OP_plus_uconst 0x2a]
    7465                      .dwattr $C$DW$675, DW_AT_accessibility(DW_ACCESS_public)
    7466              $C$DW$676       .dwtag  DW_TAG_member
    7467                      .dwattr $C$DW$676, DW_AT_type(*$C$DW$T$20)
    7468                      .dwattr $C$DW$676, DW_AT_name("RAMSLPMDCNTLR3")
TMS320C55x Assembler PC v4.4.1 Sat Sep 29 23:08:40 2018

Tools Copyright (c) 1996-2012 Texas Instruments Incorporated
csl_usb_dma_example.asm                                              PAGE  174

    7469                      .dwattr $C$DW$676, DW_AT_TI_symbol_name("_RAMSLPMDCNTLR3")
    7470                      .dwattr $C$DW$676, DW_AT_data_member_location[DW_OP_plus_uconst 0x2b]
    7471                      .dwattr $C$DW$676, DW_AT_accessibility(DW_ACCESS_public)
    7472              $C$DW$677       .dwtag  DW_TAG_member
    7473                      .dwattr $C$DW$677, DW_AT_type(*$C$DW$T$20)
    7474                      .dwattr $C$DW$677, DW_AT_name("RAMSLPMDCNTLR4")
    7475                      .dwattr $C$DW$677, DW_AT_TI_symbol_name("_RAMSLPMDCNTLR4")
    7476                      .dwattr $C$DW$677, DW_AT_data_member_location[DW_OP_plus_uconst 0x2c]
    7477                      .dwattr $C$DW$677, DW_AT_accessibility(DW_ACCESS_public)
    7478              $C$DW$678       .dwtag  DW_TAG_member
    7479                      .dwattr $C$DW$678, DW_AT_type(*$C$DW$T$20)
    7480                      .dwattr $C$DW$678, DW_AT_name("RAMSLPMDCNTLR5")
    7481                      .dwattr $C$DW$678, DW_AT_TI_symbol_name("_RAMSLPMDCNTLR5")
    7482                      .dwattr $C$DW$678, DW_AT_data_member_location[DW_OP_plus_uconst 0x2d]
    7483                      .dwattr $C$DW$678, DW_AT_accessibility(DW_ACCESS_public)
    7484              $C$DW$679       .dwtag  DW_TAG_member
    7485                      .dwattr $C$DW$679, DW_AT_type(*$C$DW$T$21)
    7486                      .dwattr $C$DW$679, DW_AT_name("RSVD6")
    7487                      .dwattr $C$DW$679, DW_AT_TI_symbol_name("_RSVD6")
    7488                      .dwattr $C$DW$679, DW_AT_data_member_location[DW_OP_plus_uconst 0x2e]
    7489                      .dwattr $C$DW$679, DW_AT_accessibility(DW_ACCESS_public)
    7490              $C$DW$680       .dwtag  DW_TAG_member
    7491                      .dwattr $C$DW$680, DW_AT_type(*$C$DW$T$20)
    7492                      .dwattr $C$DW$680, DW_AT_name("DMAIFR")
    7493                      .dwattr $C$DW$680, DW_AT_TI_symbol_name("_DMAIFR")
    7494                      .dwattr $C$DW$680, DW_AT_data_member_location[DW_OP_plus_uconst 0x30]
    7495                      .dwattr $C$DW$680, DW_AT_accessibility(DW_ACCESS_public)
    7496              $C$DW$681       .dwtag  DW_TAG_member
    7497                      .dwattr $C$DW$681, DW_AT_type(*$C$DW$T$20)
    7498                      .dwattr $C$DW$681, DW_AT_name("DMAIER")
    7499                      .dwattr $C$DW$681, DW_AT_TI_symbol_name("_DMAIER")
    7500                      .dwattr $C$DW$681, DW_AT_data_member_location[DW_OP_plus_uconst 0x31]
    7501                      .dwattr $C$DW$681, DW_AT_accessibility(DW_ACCESS_public)
    7502              $C$DW$682       .dwtag  DW_TAG_member
    7503                      .dwattr $C$DW$682, DW_AT_type(*$C$DW$T$20)
    7504                      .dwattr $C$DW$682, DW_AT_name("USBSCR")
    7505                      .dwattr $C$DW$682, DW_AT_TI_symbol_name("_USBSCR")
    7506                      .dwattr $C$DW$682, DW_AT_data_member_location[DW_OP_plus_uconst 0x32]
    7507                      .dwattr $C$DW$682, DW_AT_accessibility(DW_ACCESS_public)
    7508              $C$DW$683       .dwtag  DW_TAG_member
    7509                      .dwattr $C$DW$683, DW_AT_type(*$C$DW$T$20)
    7510                      .dwattr $C$DW$683, DW_AT_name("ESCR")
    7511                      .dwattr $C$DW$683, DW_AT_TI_symbol_name("_ESCR")
    7512                      .dwattr $C$DW$683, DW_AT_data_member_location[DW_OP_plus_uconst 0x33]
    7513                      .dwattr $C$DW$683, DW_AT_accessibility(DW_ACCESS_public)
    7514              $C$DW$684       .dwtag  DW_TAG_member
    7515                      .dwattr $C$DW$684, DW_AT_type(*$C$DW$T$21)
    7516                      .dwattr $C$DW$684, DW_AT_name("RSVD7")
    7517                      .dwattr $C$DW$684, DW_AT_TI_symbol_name("_RSVD7")
    7518                      .dwattr $C$DW$684, DW_AT_data_member_location[DW_OP_plus_uconst 0x34]
    7519                      .dwattr $C$DW$684, DW_AT_accessibility(DW_ACCESS_public)
    7520              $C$DW$685       .dwtag  DW_TAG_member
    7521                      .dwattr $C$DW$685, DW_AT_type(*$C$DW$T$20)
    7522                      .dwattr $C$DW$685, DW_AT_name("DMA2CESR1")
    7523                      .dwattr $C$DW$685, DW_AT_TI_symbol_name("_DMA2CESR1")
TMS320C55x Assembler PC v4.4.1 Sat Sep 29 23:08:40 2018

Tools Copyright (c) 1996-2012 Texas Instruments Incorporated
csl_usb_dma_example.asm                                              PAGE  175

    7524                      .dwattr $C$DW$685, DW_AT_data_member_location[DW_OP_plus_uconst 0x36]
    7525                      .dwattr $C$DW$685, DW_AT_accessibility(DW_ACCESS_public)
    7526              $C$DW$686       .dwtag  DW_TAG_member
    7527                      .dwattr $C$DW$686, DW_AT_type(*$C$DW$T$20)
    7528                      .dwattr $C$DW$686, DW_AT_name("DMA2CESR2")
    7529                      .dwattr $C$DW$686, DW_AT_TI_symbol_name("_DMA2CESR2")
    7530                      .dwattr $C$DW$686, DW_AT_data_member_location[DW_OP_plus_uconst 0x37]
    7531                      .dwattr $C$DW$686, DW_AT_accessibility(DW_ACCESS_public)
    7532              $C$DW$687       .dwtag  DW_TAG_member
    7533                      .dwattr $C$DW$687, DW_AT_type(*$C$DW$T$20)
    7534                      .dwattr $C$DW$687, DW_AT_name("DMA3CESR1")
    7535                      .dwattr $C$DW$687, DW_AT_TI_symbol_name("_DMA3CESR1")
    7536                      .dwattr $C$DW$687, DW_AT_data_member_location[DW_OP_plus_uconst 0x38]
    7537                      .dwattr $C$DW$687, DW_AT_accessibility(DW_ACCESS_public)
    7538              $C$DW$688       .dwtag  DW_TAG_member
    7539                      .dwattr $C$DW$688, DW_AT_type(*$C$DW$T$20)
    7540                      .dwattr $C$DW$688, DW_AT_name("DMA3CESR2")
    7541                      .dwattr $C$DW$688, DW_AT_TI_symbol_name("_DMA3CESR2")
    7542                      .dwattr $C$DW$688, DW_AT_data_member_location[DW_OP_plus_uconst 0x39]
    7543                      .dwattr $C$DW$688, DW_AT_accessibility(DW_ACCESS_public)
    7544              $C$DW$689       .dwtag  DW_TAG_member
    7545                      .dwattr $C$DW$689, DW_AT_type(*$C$DW$T$20)
    7546                      .dwattr $C$DW$689, DW_AT_name("CLKSTOP")
    7547                      .dwattr $C$DW$689, DW_AT_TI_symbol_name("_CLKSTOP")
    7548                      .dwattr $C$DW$689, DW_AT_data_member_location[DW_OP_plus_uconst 0x3a]
    7549                      .dwattr $C$DW$689, DW_AT_accessibility(DW_ACCESS_public)
    7550              $C$DW$690       .dwtag  DW_TAG_member
    7551                      .dwattr $C$DW$690, DW_AT_type(*$C$DW$T$65)
    7552                      .dwattr $C$DW$690, DW_AT_name("RSVD8")
    7553                      .dwattr $C$DW$690, DW_AT_TI_symbol_name("_RSVD8")
    7554                      .dwattr $C$DW$690, DW_AT_data_member_location[DW_OP_plus_uconst 0x3b]
    7555                      .dwattr $C$DW$690, DW_AT_accessibility(DW_ACCESS_public)
    7556              $C$DW$691       .dwtag  DW_TAG_member
    7557                      .dwattr $C$DW$691, DW_AT_type(*$C$DW$T$20)
    7558                      .dwattr $C$DW$691, DW_AT_name("DIEIDR0")
    7559                      .dwattr $C$DW$691, DW_AT_TI_symbol_name("_DIEIDR0")
    7560                      .dwattr $C$DW$691, DW_AT_data_member_location[DW_OP_plus_uconst 0x40]
    7561                      .dwattr $C$DW$691, DW_AT_accessibility(DW_ACCESS_public)
    7562              $C$DW$692       .dwtag  DW_TAG_member
    7563                      .dwattr $C$DW$692, DW_AT_type(*$C$DW$T$20)
    7564                      .dwattr $C$DW$692, DW_AT_name("DIEIDR1")
    7565                      .dwattr $C$DW$692, DW_AT_TI_symbol_name("_DIEIDR1")
    7566                      .dwattr $C$DW$692, DW_AT_data_member_location[DW_OP_plus_uconst 0x41]
    7567                      .dwattr $C$DW$692, DW_AT_accessibility(DW_ACCESS_public)
    7568              $C$DW$693       .dwtag  DW_TAG_member
    7569                      .dwattr $C$DW$693, DW_AT_type(*$C$DW$T$20)
    7570                      .dwattr $C$DW$693, DW_AT_name("DIEIDR2")
    7571                      .dwattr $C$DW$693, DW_AT_TI_symbol_name("_DIEIDR2")
    7572                      .dwattr $C$DW$693, DW_AT_data_member_location[DW_OP_plus_uconst 0x42]
    7573                      .dwattr $C$DW$693, DW_AT_accessibility(DW_ACCESS_public)
    7574              $C$DW$694       .dwtag  DW_TAG_member
    7575                      .dwattr $C$DW$694, DW_AT_type(*$C$DW$T$20)
    7576                      .dwattr $C$DW$694, DW_AT_name("DIEIDR3")
    7577                      .dwattr $C$DW$694, DW_AT_TI_symbol_name("_DIEIDR3")
    7578                      .dwattr $C$DW$694, DW_AT_data_member_location[DW_OP_plus_uconst 0x43]
TMS320C55x Assembler PC v4.4.1 Sat Sep 29 23:08:40 2018

Tools Copyright (c) 1996-2012 Texas Instruments Incorporated
csl_usb_dma_example.asm                                              PAGE  176

    7579                      .dwattr $C$DW$694, DW_AT_accessibility(DW_ACCESS_public)
    7580              $C$DW$695       .dwtag  DW_TAG_member
    7581                      .dwattr $C$DW$695, DW_AT_type(*$C$DW$T$20)
    7582                      .dwattr $C$DW$695, DW_AT_name("DIEIDR4")
    7583                      .dwattr $C$DW$695, DW_AT_TI_symbol_name("_DIEIDR4")
    7584                      .dwattr $C$DW$695, DW_AT_data_member_location[DW_OP_plus_uconst 0x44]
    7585                      .dwattr $C$DW$695, DW_AT_accessibility(DW_ACCESS_public)
    7586              $C$DW$696       .dwtag  DW_TAG_member
    7587                      .dwattr $C$DW$696, DW_AT_type(*$C$DW$T$20)
    7588                      .dwattr $C$DW$696, DW_AT_name("DIEIDR5")
    7589                      .dwattr $C$DW$696, DW_AT_TI_symbol_name("_DIEIDR5")
    7590                      .dwattr $C$DW$696, DW_AT_data_member_location[DW_OP_plus_uconst 0x45]
    7591                      .dwattr $C$DW$696, DW_AT_accessibility(DW_ACCESS_public)
    7592              $C$DW$697       .dwtag  DW_TAG_member
    7593                      .dwattr $C$DW$697, DW_AT_type(*$C$DW$T$20)
    7594                      .dwattr $C$DW$697, DW_AT_name("DIEIDR6")
    7595                      .dwattr $C$DW$697, DW_AT_TI_symbol_name("_DIEIDR6")
    7596                      .dwattr $C$DW$697, DW_AT_data_member_location[DW_OP_plus_uconst 0x46]
    7597                      .dwattr $C$DW$697, DW_AT_accessibility(DW_ACCESS_public)
    7598              $C$DW$698       .dwtag  DW_TAG_member
    7599                      .dwattr $C$DW$698, DW_AT_type(*$C$DW$T$20)
    7600                      .dwattr $C$DW$698, DW_AT_name("DIEIDR7")
    7601                      .dwattr $C$DW$698, DW_AT_TI_symbol_name("_DIEIDR7")
    7602                      .dwattr $C$DW$698, DW_AT_data_member_location[DW_OP_plus_uconst 0x47]
    7603                      .dwattr $C$DW$698, DW_AT_accessibility(DW_ACCESS_public)
    7604                      .dwendtag $C$DW$T$66
    7605              
    7606              $C$DW$T$155     .dwtag  DW_TAG_typedef, DW_AT_name("CSL_SysRegs")
    7607                      .dwattr $C$DW$T$155, DW_AT_type(*$C$DW$T$66)
    7608                      .dwattr $C$DW$T$155, DW_AT_language(DW_LANG_C)
    7609              $C$DW$699       .dwtag  DW_TAG_TI_far_type
    7610                      .dwattr $C$DW$699, DW_AT_type(*$C$DW$T$155)
    7611              $C$DW$700       .dwtag  DW_TAG_TI_ioport_type
    7612                      .dwattr $C$DW$700, DW_AT_type(*$C$DW$699)
    7613              $C$DW$T$156     .dwtag  DW_TAG_volatile_type
    7614                      .dwattr $C$DW$T$156, DW_AT_type(*$C$DW$700)
    7615              $C$DW$T$157     .dwtag  DW_TAG_pointer_type
    7616                      .dwattr $C$DW$T$157, DW_AT_type(*$C$DW$T$156)
    7617                      .dwattr $C$DW$T$157, DW_AT_address_class(0x10)
    7618              $C$DW$T$158     .dwtag  DW_TAG_typedef, DW_AT_name("CSL_SysRegsOvly")
    7619                      .dwattr $C$DW$T$158, DW_AT_type(*$C$DW$T$157)
    7620                      .dwattr $C$DW$T$158, DW_AT_language(DW_LANG_C)
    7621              
    7622              $C$DW$T$71      .dwtag  DW_TAG_structure_type
    7623                      .dwattr $C$DW$T$71, DW_AT_byte_size(0x08)
    7624              $C$DW$701       .dwtag  DW_TAG_member
    7625                      .dwattr $C$DW$701, DW_AT_type(*$C$DW$T$69)
    7626                      .dwattr $C$DW$701, DW_AT_name("funcAddr")
    7627                      .dwattr $C$DW$701, DW_AT_TI_symbol_name("_funcAddr")
    7628                      .dwattr $C$DW$701, DW_AT_data_member_location[DW_OP_plus_uconst 0x0]
    7629                      .dwattr $C$DW$701, DW_AT_accessibility(DW_ACCESS_public)
    7630              $C$DW$702       .dwtag  DW_TAG_member
    7631                      .dwattr $C$DW$702, DW_AT_type(*$C$DW$T$70)
    7632                      .dwattr $C$DW$702, DW_AT_name("funcArg")
    7633                      .dwattr $C$DW$702, DW_AT_TI_symbol_name("_funcArg")
TMS320C55x Assembler PC v4.4.1 Sat Sep 29 23:08:40 2018

Tools Copyright (c) 1996-2012 Texas Instruments Incorporated
csl_usb_dma_example.asm                                              PAGE  177

    7634                      .dwattr $C$DW$702, DW_AT_data_member_location[DW_OP_plus_uconst 0x2]
    7635                      .dwattr $C$DW$702, DW_AT_accessibility(DW_ACCESS_public)
    7636              $C$DW$703       .dwtag  DW_TAG_member
    7637                      .dwattr $C$DW$703, DW_AT_type(*$C$DW$T$70)
    7638                      .dwattr $C$DW$703, DW_AT_name("ierMask")
    7639                      .dwattr $C$DW$703, DW_AT_TI_symbol_name("_ierMask")
    7640                      .dwattr $C$DW$703, DW_AT_data_member_location[DW_OP_plus_uconst 0x4]
    7641                      .dwattr $C$DW$703, DW_AT_accessibility(DW_ACCESS_public)
    7642              $C$DW$704       .dwtag  DW_TAG_member
    7643                      .dwattr $C$DW$704, DW_AT_type(*$C$DW$T$70)
    7644                      .dwattr $C$DW$704, DW_AT_name("cacheCtrl")
    7645                      .dwattr $C$DW$704, DW_AT_TI_symbol_name("_cacheCtrl")
    7646                      .dwattr $C$DW$704, DW_AT_data_member_location[DW_OP_plus_uconst 0x6]
    7647                      .dwattr $C$DW$704, DW_AT_accessibility(DW_ACCESS_public)
    7648                      .dwendtag $C$DW$T$71
    7649              
    7650              $C$DW$T$159     .dwtag  DW_TAG_typedef, DW_AT_name("CSL_IRQ_Config")
    7651                      .dwattr $C$DW$T$159, DW_AT_type(*$C$DW$T$71)
    7652                      .dwattr $C$DW$T$159, DW_AT_language(DW_LANG_C)
    7653              
    7654              $C$DW$T$84      .dwtag  DW_TAG_structure_type
    7655                      .dwattr $C$DW$T$84, DW_AT_name("CSL_UsbConfig")
    7656                      .dwattr $C$DW$T$84, DW_AT_byte_size(0x0c)
    7657              $C$DW$705       .dwtag  DW_TAG_member
    7658                      .dwattr $C$DW$705, DW_AT_type(*$C$DW$T$73)
    7659                      .dwattr $C$DW$705, DW_AT_name("devNum")
    7660                      .dwattr $C$DW$705, DW_AT_TI_symbol_name("_devNum")
    7661                      .dwattr $C$DW$705, DW_AT_data_member_location[DW_OP_plus_uconst 0x0]
    7662                      .dwattr $C$DW$705, DW_AT_accessibility(DW_ACCESS_public)
    7663              $C$DW$706       .dwtag  DW_TAG_member
    7664                      .dwattr $C$DW$706, DW_AT_type(*$C$DW$T$75)
    7665                      .dwattr $C$DW$706, DW_AT_name("opMode")
    7666                      .dwattr $C$DW$706, DW_AT_TI_symbol_name("_opMode")
    7667                      .dwattr $C$DW$706, DW_AT_data_member_location[DW_OP_plus_uconst 0x1]
    7668                      .dwattr $C$DW$706, DW_AT_accessibility(DW_ACCESS_public)
    7669              $C$DW$707       .dwtag  DW_TAG_member
    7670                      .dwattr $C$DW$707, DW_AT_type(*$C$DW$T$19)
    7671                      .dwattr $C$DW$707, DW_AT_name("maxCurrent")
    7672                      .dwattr $C$DW$707, DW_AT_TI_symbol_name("_maxCurrent")
    7673                      .dwattr $C$DW$707, DW_AT_data_member_location[DW_OP_plus_uconst 0x2]
    7674                      .dwattr $C$DW$707, DW_AT_accessibility(DW_ACCESS_public)
    7675              $C$DW$708       .dwtag  DW_TAG_member
    7676                      .dwattr $C$DW$708, DW_AT_type(*$C$DW$T$78)
    7677                      .dwattr $C$DW$708, DW_AT_name("appSuspendCallBack")
    7678                      .dwattr $C$DW$708, DW_AT_TI_symbol_name("_appSuspendCallBack")
    7679                      .dwattr $C$DW$708, DW_AT_data_member_location[DW_OP_plus_uconst 0x4]
    7680                      .dwattr $C$DW$708, DW_AT_accessibility(DW_ACCESS_public)
    7681              $C$DW$709       .dwtag  DW_TAG_member
    7682                      .dwattr $C$DW$709, DW_AT_type(*$C$DW$T$78)
    7683                      .dwattr $C$DW$709, DW_AT_name("appWakeupCallBack")
    7684                      .dwattr $C$DW$709, DW_AT_TI_symbol_name("_appWakeupCallBack")
    7685                      .dwattr $C$DW$709, DW_AT_data_member_location[DW_OP_plus_uconst 0x6]
    7686                      .dwattr $C$DW$709, DW_AT_accessibility(DW_ACCESS_public)
    7687              $C$DW$710       .dwtag  DW_TAG_member
    7688                      .dwattr $C$DW$710, DW_AT_type(*$C$DW$T$83)
TMS320C55x Assembler PC v4.4.1 Sat Sep 29 23:08:40 2018

Tools Copyright (c) 1996-2012 Texas Instruments Incorporated
csl_usb_dma_example.asm                                              PAGE  178

    7689                      .dwattr $C$DW$710, DW_AT_name("startTransferCallback")
    7690                      .dwattr $C$DW$710, DW_AT_TI_symbol_name("_startTransferCallback")
    7691                      .dwattr $C$DW$710, DW_AT_data_member_location[DW_OP_plus_uconst 0x8]
    7692                      .dwattr $C$DW$710, DW_AT_accessibility(DW_ACCESS_public)
    7693              $C$DW$711       .dwtag  DW_TAG_member
    7694                      .dwattr $C$DW$711, DW_AT_type(*$C$DW$T$83)
    7695                      .dwattr $C$DW$711, DW_AT_name("completeTransferCallback")
    7696                      .dwattr $C$DW$711, DW_AT_TI_symbol_name("_completeTransferCallback")
    7697                      .dwattr $C$DW$711, DW_AT_data_member_location[DW_OP_plus_uconst 0xa]
    7698                      .dwattr $C$DW$711, DW_AT_accessibility(DW_ACCESS_public)
    7699                      .dwendtag $C$DW$T$84
    7700              
    7701              $C$DW$T$160     .dwtag  DW_TAG_typedef, DW_AT_name("CSL_UsbConfig")
    7702                      .dwattr $C$DW$T$160, DW_AT_type(*$C$DW$T$84)
    7703                      .dwattr $C$DW$T$160, DW_AT_language(DW_LANG_C)
    7704              $C$DW$T$161     .dwtag  DW_TAG_pointer_type
    7705                      .dwattr $C$DW$T$161, DW_AT_type(*$C$DW$T$160)
    7706                      .dwattr $C$DW$T$161, DW_AT_address_class(0x17)
    7707              
    7708              $C$DW$T$108     .dwtag  DW_TAG_structure_type
    7709                      .dwattr $C$DW$T$108, DW_AT_name("CSL_UsbContext")
    7710                      .dwattr $C$DW$T$108, DW_AT_byte_size(0xc8)
    7711              $C$DW$712       .dwtag  DW_TAG_member
    7712                      .dwattr $C$DW$712, DW_AT_type(*$C$DW$T$75)
    7713                      .dwattr $C$DW$712, DW_AT_name("opMode")
    7714                      .dwattr $C$DW$712, DW_AT_TI_symbol_name("_opMode")
    7715                      .dwattr $C$DW$712, DW_AT_data_member_location[DW_OP_plus_uconst 0x0]
    7716                      .dwattr $C$DW$712, DW_AT_accessibility(DW_ACCESS_public)
    7717              $C$DW$713       .dwtag  DW_TAG_member
    7718                      .dwattr $C$DW$713, DW_AT_type(*$C$DW$T$85)
    7719                      .dwattr $C$DW$713, DW_AT_name("maxCurrent")
    7720                      .dwattr $C$DW$713, DW_AT_TI_symbol_name("_maxCurrent")
    7721                      .dwattr $C$DW$713, DW_AT_data_member_location[DW_OP_plus_uconst 0x1]
    7722                      .dwattr $C$DW$713, DW_AT_accessibility(DW_ACCESS_public)
    7723              $C$DW$714       .dwtag  DW_TAG_member
    7724                      .dwattr $C$DW$714, DW_AT_type(*$C$DW$T$86)
    7725                      .dwattr $C$DW$714, DW_AT_name("fInitialized")
    7726                      .dwattr $C$DW$714, DW_AT_TI_symbol_name("_fInitialized")
    7727                      .dwattr $C$DW$714, DW_AT_data_member_location[DW_OP_plus_uconst 0x2]
    7728                      .dwattr $C$DW$714, DW_AT_accessibility(DW_ACCESS_public)
    7729              $C$DW$715       .dwtag  DW_TAG_member
    7730                      .dwattr $C$DW$715, DW_AT_type(*$C$DW$T$86)
    7731                      .dwattr $C$DW$715, DW_AT_name("fSetupPktCmd")
    7732                      .dwattr $C$DW$715, DW_AT_TI_symbol_name("_fSetupPktCmd")
    7733                      .dwattr $C$DW$715, DW_AT_data_member_location[DW_OP_plus_uconst 0x3]
    7734                      .dwattr $C$DW$715, DW_AT_accessibility(DW_ACCESS_public)
    7735              $C$DW$716       .dwtag  DW_TAG_member
    7736                      .dwattr $C$DW$716, DW_AT_type(*$C$DW$T$86)
    7737                      .dwattr $C$DW$716, DW_AT_name("fOutPhaseCmd")
    7738                      .dwattr $C$DW$716, DW_AT_TI_symbol_name("_fOutPhaseCmd")
    7739                      .dwattr $C$DW$716, DW_AT_data_member_location[DW_OP_plus_uconst 0x4]
    7740                      .dwattr $C$DW$716, DW_AT_accessibility(DW_ACCESS_public)
    7741              $C$DW$717       .dwtag  DW_TAG_member
    7742                      .dwattr $C$DW$717, DW_AT_type(*$C$DW$T$86)
    7743                      .dwattr $C$DW$717, DW_AT_name("fWaitingOnFlagA")
TMS320C55x Assembler PC v4.4.1 Sat Sep 29 23:08:40 2018

Tools Copyright (c) 1996-2012 Texas Instruments Incorporated
csl_usb_dma_example.asm                                              PAGE  179

    7744                      .dwattr $C$DW$717, DW_AT_TI_symbol_name("_fWaitingOnFlagA")
    7745                      .dwattr $C$DW$717, DW_AT_data_member_location[DW_OP_plus_uconst 0x5]
    7746                      .dwattr $C$DW$717, DW_AT_accessibility(DW_ACCESS_public)
    7747              $C$DW$718       .dwtag  DW_TAG_member
    7748                      .dwattr $C$DW$718, DW_AT_type(*$C$DW$T$86)
    7749                      .dwattr $C$DW$718, DW_AT_name("fWaitingOnFlagB")
    7750                      .dwattr $C$DW$718, DW_AT_TI_symbol_name("_fWaitingOnFlagB")
    7751                      .dwattr $C$DW$718, DW_AT_data_member_location[DW_OP_plus_uconst 0x6]
    7752                      .dwattr $C$DW$718, DW_AT_accessibility(DW_ACCESS_public)
    7753              $C$DW$719       .dwtag  DW_TAG_member
    7754                      .dwattr $C$DW$719, DW_AT_type(*$C$DW$T$86)
    7755                      .dwattr $C$DW$719, DW_AT_name("fWaitingOnEP0BUFAvail")
    7756                      .dwattr $C$DW$719, DW_AT_TI_symbol_name("_fWaitingOnEP0BUFAvail")
    7757                      .dwattr $C$DW$719, DW_AT_data_member_location[DW_OP_plus_uconst 0x7]
    7758                      .dwattr $C$DW$719, DW_AT_accessibility(DW_ACCESS_public)
    7759              $C$DW$720       .dwtag  DW_TAG_member
    7760                      .dwattr $C$DW$720, DW_AT_type(*$C$DW$T$86)
    7761                      .dwattr $C$DW$720, DW_AT_name("fWaitingOnEP1InBUFAvail")
    7762                      .dwattr $C$DW$720, DW_AT_TI_symbol_name("_fWaitingOnEP1InBUFAvail")
    7763                      .dwattr $C$DW$720, DW_AT_data_member_location[DW_OP_plus_uconst 0x8]
    7764                      .dwattr $C$DW$720, DW_AT_accessibility(DW_ACCESS_public)
    7765              $C$DW$721       .dwtag  DW_TAG_member
    7766                      .dwattr $C$DW$721, DW_AT_type(*$C$DW$T$87)
    7767                      .dwattr $C$DW$721, DW_AT_name("rgbDescriptors")
    7768                      .dwattr $C$DW$721, DW_AT_TI_symbol_name("_rgbDescriptors")
    7769                      .dwattr $C$DW$721, DW_AT_data_member_location[DW_OP_plus_uconst 0xa]
    7770                      .dwattr $C$DW$721, DW_AT_accessibility(DW_ACCESS_public)
    7771              $C$DW$722       .dwtag  DW_TAG_member
    7772                      .dwattr $C$DW$722, DW_AT_type(*$C$DW$T$85)
    7773                      .dwattr $C$DW$722, DW_AT_name("cbDescriptors")
    7774                      .dwattr $C$DW$722, DW_AT_TI_symbol_name("_cbDescriptors")
    7775                      .dwattr $C$DW$722, DW_AT_data_member_location[DW_OP_plus_uconst 0xc]
    7776                      .dwattr $C$DW$722, DW_AT_accessibility(DW_ACCESS_public)
    7777              $C$DW$723       .dwtag  DW_TAG_member
    7778                      .dwattr $C$DW$723, DW_AT_type(*$C$DW$T$88)
    7779                      .dwattr $C$DW$723, DW_AT_name("dwFlagAEndpointAssigned")
    7780                      .dwattr $C$DW$723, DW_AT_TI_symbol_name("_dwFlagAEndpointAssigned")
    7781                      .dwattr $C$DW$723, DW_AT_data_member_location[DW_OP_plus_uconst 0xe]
    7782                      .dwattr $C$DW$723, DW_AT_accessibility(DW_ACCESS_public)
    7783              $C$DW$724       .dwtag  DW_TAG_member
    7784                      .dwattr $C$DW$724, DW_AT_type(*$C$DW$T$88)
    7785                      .dwattr $C$DW$724, DW_AT_name("dwFlagBEndpointAssigned")
    7786                      .dwattr $C$DW$724, DW_AT_TI_symbol_name("_dwFlagBEndpointAssigned")
    7787                      .dwattr $C$DW$724, DW_AT_data_member_location[DW_OP_plus_uconst 0x10]
    7788                      .dwattr $C$DW$724, DW_AT_accessibility(DW_ACCESS_public)
    7789              $C$DW$725       .dwtag  DW_TAG_member
    7790                      .dwattr $C$DW$725, DW_AT_type(*$C$DW$T$89)
    7791                      .dwattr $C$DW$725, DW_AT_name("pFIFOBaseAddress")
    7792                      .dwattr $C$DW$725, DW_AT_TI_symbol_name("_pFIFOBaseAddress")
    7793                      .dwattr $C$DW$725, DW_AT_data_member_location[DW_OP_plus_uconst 0x12]
    7794                      .dwattr $C$DW$725, DW_AT_accessibility(DW_ACCESS_public)
    7795              $C$DW$726       .dwtag  DW_TAG_member
    7796                      .dwattr $C$DW$726, DW_AT_type(*$C$DW$T$89)
    7797                      .dwattr $C$DW$726, DW_AT_name("pInterruptAddr")
    7798                      .dwattr $C$DW$726, DW_AT_TI_symbol_name("_pInterruptAddr")
TMS320C55x Assembler PC v4.4.1 Sat Sep 29 23:08:40 2018

Tools Copyright (c) 1996-2012 Texas Instruments Incorporated
csl_usb_dma_example.asm                                              PAGE  180

    7799                      .dwattr $C$DW$726, DW_AT_data_member_location[DW_OP_plus_uconst 0x14]
    7800                      .dwattr $C$DW$726, DW_AT_accessibility(DW_ACCESS_public)
    7801              $C$DW$727       .dwtag  DW_TAG_member
    7802                      .dwattr $C$DW$727, DW_AT_type(*$C$DW$T$86)
    7803                      .dwattr $C$DW$727, DW_AT_name("fSendHandshake")
    7804                      .dwattr $C$DW$727, DW_AT_TI_symbol_name("_fSendHandshake")
    7805                      .dwattr $C$DW$727, DW_AT_data_member_location[DW_OP_plus_uconst 0x16]
    7806                      .dwattr $C$DW$727, DW_AT_accessibility(DW_ACCESS_public)
    7807              $C$DW$728       .dwtag  DW_TAG_member
    7808                      .dwattr $C$DW$728, DW_AT_type(*$C$DW$T$86)
    7809                      .dwattr $C$DW$728, DW_AT_name("fMUSBIsReady")
    7810                      .dwattr $C$DW$728, DW_AT_TI_symbol_name("_fMUSBIsReady")
    7811                      .dwattr $C$DW$728, DW_AT_data_member_location[DW_OP_plus_uconst 0x17]
    7812                      .dwattr $C$DW$728, DW_AT_accessibility(DW_ACCESS_public)
    7813              $C$DW$729       .dwtag  DW_TAG_member
    7814                      .dwattr $C$DW$729, DW_AT_type(*$C$DW$T$85)
    7815                      .dwattr $C$DW$729, DW_AT_name("cbOutEP0Buf")
    7816                      .dwattr $C$DW$729, DW_AT_TI_symbol_name("_cbOutEP0Buf")
    7817                      .dwattr $C$DW$729, DW_AT_data_member_location[DW_OP_plus_uconst 0x18]
    7818                      .dwattr $C$DW$729, DW_AT_accessibility(DW_ACCESS_public)
    7819              $C$DW$730       .dwtag  DW_TAG_member
    7820                      .dwattr $C$DW$730, DW_AT_type(*$C$DW$T$85)
    7821                      .dwattr $C$DW$730, DW_AT_name("cbOutEP0DataReceived")
    7822                      .dwattr $C$DW$730, DW_AT_TI_symbol_name("_cbOutEP0DataReceived")
    7823                      .dwattr $C$DW$730, DW_AT_data_member_location[DW_OP_plus_uconst 0x19]
    7824                      .dwattr $C$DW$730, DW_AT_accessibility(DW_ACCESS_public)
    7825              $C$DW$731       .dwtag  DW_TAG_member
    7826                      .dwattr $C$DW$731, DW_AT_type(*$C$DW$T$90)
    7827                      .dwattr $C$DW$731, DW_AT_name("dwOutEP0Buf")
    7828                      .dwattr $C$DW$731, DW_AT_TI_symbol_name("_dwOutEP0Buf")
    7829                      .dwattr $C$DW$731, DW_AT_data_member_location[DW_OP_plus_uconst 0x1a]
    7830                      .dwattr $C$DW$731, DW_AT_accessibility(DW_ACCESS_public)
    7831              $C$DW$732       .dwtag  DW_TAG_member
    7832                      .dwattr $C$DW$732, DW_AT_type(*$C$DW$T$86)
    7833                      .dwattr $C$DW$732, DW_AT_name("fEP0BUFAvailable")
    7834                      .dwattr $C$DW$732, DW_AT_TI_symbol_name("_fEP0BUFAvailable")
    7835                      .dwattr $C$DW$732, DW_AT_data_member_location[DW_OP_plus_uconst 0x5a]
    7836                      .dwattr $C$DW$732, DW_AT_accessibility(DW_ACCESS_public)
    7837              $C$DW$733       .dwtag  DW_TAG_member
    7838                      .dwattr $C$DW$733, DW_AT_type(*$C$DW$T$86)
    7839                      .dwattr $C$DW$733, DW_AT_name("fEP1InBUFAvailable")
    7840                      .dwattr $C$DW$733, DW_AT_TI_symbol_name("_fEP1InBUFAvailable")
    7841                      .dwattr $C$DW$733, DW_AT_data_member_location[DW_OP_plus_uconst 0x5b]
    7842                      .dwattr $C$DW$733, DW_AT_accessibility(DW_ACCESS_public)
    7843              $C$DW$734       .dwtag  DW_TAG_member
    7844                      .dwattr $C$DW$734, DW_AT_type(*$C$DW$T$85)
    7845                      .dwattr $C$DW$734, DW_AT_name("dwQueuePend1")
    7846                      .dwattr $C$DW$734, DW_AT_TI_symbol_name("_dwQueuePend1")
    7847                      .dwattr $C$DW$734, DW_AT_data_member_location[DW_OP_plus_uconst 0x5c]
    7848                      .dwattr $C$DW$734, DW_AT_accessibility(DW_ACCESS_public)
    7849              $C$DW$735       .dwtag  DW_TAG_member
    7850                      .dwattr $C$DW$735, DW_AT_type(*$C$DW$T$86)
    7851                      .dwattr $C$DW$735, DW_AT_name("fEP3InBUFAvailable")
    7852                      .dwattr $C$DW$735, DW_AT_TI_symbol_name("_fEP3InBUFAvailable")
    7853                      .dwattr $C$DW$735, DW_AT_data_member_location[DW_OP_plus_uconst 0x5d]
TMS320C55x Assembler PC v4.4.1 Sat Sep 29 23:08:40 2018

Tools Copyright (c) 1996-2012 Texas Instruments Incorporated
csl_usb_dma_example.asm                                              PAGE  181

    7854                      .dwattr $C$DW$735, DW_AT_accessibility(DW_ACCESS_public)
    7855              $C$DW$736       .dwtag  DW_TAG_member
    7856                      .dwattr $C$DW$736, DW_AT_type(*$C$DW$T$85)
    7857                      .dwattr $C$DW$736, DW_AT_name("dwIntSourceL")
    7858                      .dwattr $C$DW$736, DW_AT_TI_symbol_name("_dwIntSourceL")
    7859                      .dwattr $C$DW$736, DW_AT_data_member_location[DW_OP_plus_uconst 0x5e]
    7860                      .dwattr $C$DW$736, DW_AT_accessibility(DW_ACCESS_public)
    7861              $C$DW$737       .dwtag  DW_TAG_member
    7862                      .dwattr $C$DW$737, DW_AT_type(*$C$DW$T$85)
    7863                      .dwattr $C$DW$737, DW_AT_name("dwIntSourceH")
    7864                      .dwattr $C$DW$737, DW_AT_TI_symbol_name("_dwIntSourceH")
    7865                      .dwattr $C$DW$737, DW_AT_data_member_location[DW_OP_plus_uconst 0x5f]
    7866                      .dwattr $C$DW$737, DW_AT_accessibility(DW_ACCESS_public)
    7867              $C$DW$738       .dwtag  DW_TAG_member
    7868                      .dwattr $C$DW$738, DW_AT_type(*$C$DW$T$92)
    7869                      .dwattr $C$DW$738, DW_AT_name("remoteWkpStat")
    7870                      .dwattr $C$DW$738, DW_AT_TI_symbol_name("_remoteWkpStat")
    7871                      .dwattr $C$DW$738, DW_AT_data_member_location[DW_OP_plus_uconst 0x60]
    7872                      .dwattr $C$DW$738, DW_AT_accessibility(DW_ACCESS_public)
    7873              $C$DW$739       .dwtag  DW_TAG_member
    7874                      .dwattr $C$DW$739, DW_AT_type(*$C$DW$T$94)
    7875                      .dwattr $C$DW$739, DW_AT_name("pEpStatus")
    7876                      .dwattr $C$DW$739, DW_AT_TI_symbol_name("_pEpStatus")
    7877                      .dwattr $C$DW$739, DW_AT_data_member_location[DW_OP_plus_uconst 0x62]
    7878                      .dwattr $C$DW$739, DW_AT_accessibility(DW_ACCESS_public)
    7879              $C$DW$740       .dwtag  DW_TAG_member
    7880                      .dwattr $C$DW$740, DW_AT_type(*$C$DW$T$96)
    7881                      .dwattr $C$DW$740, DW_AT_name("busSpeed")
    7882                      .dwattr $C$DW$740, DW_AT_TI_symbol_name("_busSpeed")
    7883                      .dwattr $C$DW$740, DW_AT_data_member_location[DW_OP_plus_uconst 0x64]
    7884                      .dwattr $C$DW$740, DW_AT_accessibility(DW_ACCESS_public)
    7885              $C$DW$741       .dwtag  DW_TAG_member
    7886                      .dwattr $C$DW$741, DW_AT_type(*$C$DW$T$98)
    7887                      .dwattr $C$DW$741, DW_AT_name("ep0State")
    7888                      .dwattr $C$DW$741, DW_AT_TI_symbol_name("_ep0State")
    7889                      .dwattr $C$DW$741, DW_AT_data_member_location[DW_OP_plus_uconst 0x65]
    7890                      .dwattr $C$DW$741, DW_AT_accessibility(DW_ACCESS_public)
    7891              $C$DW$742       .dwtag  DW_TAG_member
    7892                      .dwattr $C$DW$742, DW_AT_type(*$C$DW$T$100)
    7893                      .dwattr $C$DW$742, DW_AT_name("cableState")
    7894                      .dwattr $C$DW$742, DW_AT_TI_symbol_name("_cableState")
    7895                      .dwattr $C$DW$742, DW_AT_data_member_location[DW_OP_plus_uconst 0x66]
    7896                      .dwattr $C$DW$742, DW_AT_accessibility(DW_ACCESS_public)
    7897              $C$DW$743       .dwtag  DW_TAG_member
    7898                      .dwattr $C$DW$743, DW_AT_type(*$C$DW$T$101)
    7899                      .dwattr $C$DW$743, DW_AT_name("usbSetup")
    7900                      .dwattr $C$DW$743, DW_AT_TI_symbol_name("_usbSetup")
    7901                      .dwattr $C$DW$743, DW_AT_data_member_location[DW_OP_plus_uconst 0x67]
    7902                      .dwattr $C$DW$743, DW_AT_accessibility(DW_ACCESS_public)
    7903              $C$DW$744       .dwtag  DW_TAG_member
    7904                      .dwattr $C$DW$744, DW_AT_type(*$C$DW$T$78)
    7905                      .dwattr $C$DW$744, DW_AT_name("suspendCallBackFxn")
    7906                      .dwattr $C$DW$744, DW_AT_TI_symbol_name("_suspendCallBackFxn")
    7907                      .dwattr $C$DW$744, DW_AT_data_member_location[DW_OP_plus_uconst 0x6e]
    7908                      .dwattr $C$DW$744, DW_AT_accessibility(DW_ACCESS_public)
TMS320C55x Assembler PC v4.4.1 Sat Sep 29 23:08:40 2018

Tools Copyright (c) 1996-2012 Texas Instruments Incorporated
csl_usb_dma_example.asm                                              PAGE  182

    7909              $C$DW$745       .dwtag  DW_TAG_member
    7910                      .dwattr $C$DW$745, DW_AT_type(*$C$DW$T$78)
    7911                      .dwattr $C$DW$745, DW_AT_name("wakeupCallBackFxn")
    7912                      .dwattr $C$DW$745, DW_AT_TI_symbol_name("_wakeupCallBackFxn")
    7913                      .dwattr $C$DW$745, DW_AT_data_member_location[DW_OP_plus_uconst 0x70]
    7914                      .dwattr $C$DW$745, DW_AT_accessibility(DW_ACCESS_public)
    7915              $C$DW$746       .dwtag  DW_TAG_member
    7916                      .dwattr $C$DW$746, DW_AT_type(*$C$DW$T$83)
    7917                      .dwattr $C$DW$746, DW_AT_name("startTransferCallback")
    7918                      .dwattr $C$DW$746, DW_AT_TI_symbol_name("_startTransferCallback")
    7919                      .dwattr $C$DW$746, DW_AT_data_member_location[DW_OP_plus_uconst 0x72]
    7920                      .dwattr $C$DW$746, DW_AT_accessibility(DW_ACCESS_public)
    7921              $C$DW$747       .dwtag  DW_TAG_member
    7922                      .dwattr $C$DW$747, DW_AT_type(*$C$DW$T$83)
    7923                      .dwattr $C$DW$747, DW_AT_name("completeTransferCallback")
    7924                      .dwattr $C$DW$747, DW_AT_TI_symbol_name("_completeTransferCallback")
    7925                      .dwattr $C$DW$747, DW_AT_data_member_location[DW_OP_plus_uconst 0x74]
    7926                      .dwattr $C$DW$747, DW_AT_accessibility(DW_ACCESS_public)
    7927              $C$DW$748       .dwtag  DW_TAG_member
    7928                      .dwattr $C$DW$748, DW_AT_type(*$C$DW$T$85)
    7929                      .dwattr $C$DW$748, DW_AT_name("dwFIFOStartAddr")
    7930                      .dwattr $C$DW$748, DW_AT_TI_symbol_name("_dwFIFOStartAddr")
    7931                      .dwattr $C$DW$748, DW_AT_data_member_location[DW_OP_plus_uconst 0x76]
    7932                      .dwattr $C$DW$748, DW_AT_accessibility(DW_ACCESS_public)
    7933              $C$DW$749       .dwtag  DW_TAG_member
    7934                      .dwattr $C$DW$749, DW_AT_type(*$C$DW$T$102)
    7935                      .dwattr $C$DW$749, DW_AT_name("deviceDescPtr")
    7936                      .dwattr $C$DW$749, DW_AT_TI_symbol_name("_deviceDescPtr")
    7937                      .dwattr $C$DW$749, DW_AT_data_member_location[DW_OP_plus_uconst 0x78]
    7938                      .dwattr $C$DW$749, DW_AT_accessibility(DW_ACCESS_public)
    7939              $C$DW$750       .dwtag  DW_TAG_member
    7940                      .dwattr $C$DW$750, DW_AT_type(*$C$DW$T$102)
    7941                      .dwattr $C$DW$750, DW_AT_name("deviceQualDescPtr")
    7942                      .dwattr $C$DW$750, DW_AT_TI_symbol_name("_deviceQualDescPtr")
    7943                      .dwattr $C$DW$750, DW_AT_data_member_location[DW_OP_plus_uconst 0x7a]
    7944                      .dwattr $C$DW$750, DW_AT_accessibility(DW_ACCESS_public)
    7945              $C$DW$751       .dwtag  DW_TAG_member
    7946                      .dwattr $C$DW$751, DW_AT_type(*$C$DW$T$102)
    7947                      .dwattr $C$DW$751, DW_AT_name("cfgDescPtr")
    7948                      .dwattr $C$DW$751, DW_AT_TI_symbol_name("_cfgDescPtr")
    7949                      .dwattr $C$DW$751, DW_AT_data_member_location[DW_OP_plus_uconst 0x7c]
    7950                      .dwattr $C$DW$751, DW_AT_accessibility(DW_ACCESS_public)
    7951              $C$DW$752       .dwtag  DW_TAG_member
    7952                      .dwattr $C$DW$752, DW_AT_type(*$C$DW$T$102)
    7953                      .dwattr $C$DW$752, DW_AT_name("cfgDescFSPtr")
    7954                      .dwattr $C$DW$752, DW_AT_TI_symbol_name("_cfgDescFSPtr")
    7955                      .dwattr $C$DW$752, DW_AT_data_member_location[DW_OP_plus_uconst 0x7e]
    7956                      .dwattr $C$DW$752, DW_AT_accessibility(DW_ACCESS_public)
    7957              $C$DW$753       .dwtag  DW_TAG_member
    7958                      .dwattr $C$DW$753, DW_AT_type(*$C$DW$T$103)
    7959                      .dwattr $C$DW$753, DW_AT_name("strDescPtr")
    7960                      .dwattr $C$DW$753, DW_AT_TI_symbol_name("_strDescPtr")
    7961                      .dwattr $C$DW$753, DW_AT_data_member_location[DW_OP_plus_uconst 0x80]
    7962                      .dwattr $C$DW$753, DW_AT_accessibility(DW_ACCESS_public)
    7963              $C$DW$754       .dwtag  DW_TAG_member
TMS320C55x Assembler PC v4.4.1 Sat Sep 29 23:08:40 2018

Tools Copyright (c) 1996-2012 Texas Instruments Incorporated
csl_usb_dma_example.asm                                              PAGE  183

    7964                      .dwattr $C$DW$754, DW_AT_type(*$C$DW$T$19)
    7965                      .dwattr $C$DW$754, DW_AT_name("devAddr")
    7966                      .dwattr $C$DW$754, DW_AT_TI_symbol_name("_devAddr")
    7967                      .dwattr $C$DW$754, DW_AT_data_member_location[DW_OP_plus_uconst 0x88]
    7968                      .dwattr $C$DW$754, DW_AT_accessibility(DW_ACCESS_public)
    7969              $C$DW$755       .dwtag  DW_TAG_member
    7970                      .dwattr $C$DW$755, DW_AT_type(*$C$DW$T$104)
    7971                      .dwattr $C$DW$755, DW_AT_name("ctrlInEpObj")
    7972                      .dwattr $C$DW$755, DW_AT_TI_symbol_name("_ctrlInEpObj")
    7973                      .dwattr $C$DW$755, DW_AT_data_member_location[DW_OP_plus_uconst 0x8a]
    7974                      .dwattr $C$DW$755, DW_AT_accessibility(DW_ACCESS_public)
    7975              $C$DW$756       .dwtag  DW_TAG_member
    7976                      .dwattr $C$DW$756, DW_AT_type(*$C$DW$T$73)
    7977                      .dwattr $C$DW$756, DW_AT_name("devNum")
    7978                      .dwattr $C$DW$756, DW_AT_TI_symbol_name("_devNum")
    7979                      .dwattr $C$DW$756, DW_AT_data_member_location[DW_OP_plus_uconst 0x9e]
    7980                      .dwattr $C$DW$756, DW_AT_accessibility(DW_ACCESS_public)
    7981              $C$DW$757       .dwtag  DW_TAG_member
    7982                      .dwattr $C$DW$757, DW_AT_type(*$C$DW$T$104)
    7983                      .dwattr $C$DW$757, DW_AT_name("ctrlOutEpObj")
    7984                      .dwattr $C$DW$757, DW_AT_TI_symbol_name("_ctrlOutEpObj")
    7985                      .dwattr $C$DW$757, DW_AT_data_member_location[DW_OP_plus_uconst 0xa0]
    7986                      .dwattr $C$DW$757, DW_AT_accessibility(DW_ACCESS_public)
    7987              $C$DW$758       .dwtag  DW_TAG_member
    7988                      .dwattr $C$DW$758, DW_AT_type(*$C$DW$T$19)
    7989                      .dwattr $C$DW$758, DW_AT_name("suspendFlag")
    7990                      .dwattr $C$DW$758, DW_AT_TI_symbol_name("_suspendFlag")
    7991                      .dwattr $C$DW$758, DW_AT_data_member_location[DW_OP_plus_uconst 0xb4]
    7992                      .dwattr $C$DW$758, DW_AT_accessibility(DW_ACCESS_public)
    7993              $C$DW$759       .dwtag  DW_TAG_member
    7994                      .dwattr $C$DW$759, DW_AT_type(*$C$DW$T$107)
    7995                      .dwattr $C$DW$759, DW_AT_name("hEpObjArray")
    7996                      .dwattr $C$DW$759, DW_AT_TI_symbol_name("_hEpObjArray")
    7997                      .dwattr $C$DW$759, DW_AT_data_member_location[DW_OP_plus_uconst 0xb6]
    7998                      .dwattr $C$DW$759, DW_AT_accessibility(DW_ACCESS_public)
    7999              $C$DW$760       .dwtag  DW_TAG_member
    8000                      .dwattr $C$DW$760, DW_AT_type(*$C$DW$T$19)
    8001                      .dwattr $C$DW$760, DW_AT_name("curConfigStat")
    8002                      .dwattr $C$DW$760, DW_AT_TI_symbol_name("_curConfigStat")
    8003                      .dwattr $C$DW$760, DW_AT_data_member_location[DW_OP_plus_uconst 0xc6]
    8004                      .dwattr $C$DW$760, DW_AT_accessibility(DW_ACCESS_public)
    8005              $C$DW$761       .dwtag  DW_TAG_member
    8006                      .dwattr $C$DW$761, DW_AT_type(*$C$DW$T$86)
    8007                      .dwattr $C$DW$761, DW_AT_name("usbSpeedCfg")
    8008                      .dwattr $C$DW$761, DW_AT_TI_symbol_name("_usbSpeedCfg")
    8009                      .dwattr $C$DW$761, DW_AT_data_member_location[DW_OP_plus_uconst 0xc7]
    8010                      .dwattr $C$DW$761, DW_AT_accessibility(DW_ACCESS_public)
    8011                      .dwendtag $C$DW$T$108
    8012              
    8013              $C$DW$T$162     .dwtag  DW_TAG_typedef, DW_AT_name("CSL_UsbContext")
    8014                      .dwattr $C$DW$T$162, DW_AT_type(*$C$DW$T$108)
    8015                      .dwattr $C$DW$T$162, DW_AT_language(DW_LANG_C)
    8016              $C$DW$T$163     .dwtag  DW_TAG_pointer_type
    8017                      .dwattr $C$DW$T$163, DW_AT_type(*$C$DW$T$162)
    8018                      .dwattr $C$DW$T$163, DW_AT_address_class(0x17)
TMS320C55x Assembler PC v4.4.1 Sat Sep 29 23:08:40 2018

Tools Copyright (c) 1996-2012 Texas Instruments Incorporated
csl_usb_dma_example.asm                                              PAGE  184

    8019              $C$DW$T$164     .dwtag  DW_TAG_typedef, DW_AT_name("pUsbContext")
    8020                      .dwattr $C$DW$T$164, DW_AT_type(*$C$DW$T$163)
    8021                      .dwattr $C$DW$T$164, DW_AT_language(DW_LANG_C)
    8022              
    8023              $C$DW$T$110     .dwtag  DW_TAG_structure_type
    8024                      .dwattr $C$DW$T$110, DW_AT_name("CSL_UsbDataStruct")
    8025                      .dwattr $C$DW$T$110, DW_AT_byte_size(0x06)
    8026              $C$DW$762       .dwtag  DW_TAG_member
    8027                      .dwattr $C$DW$762, DW_AT_type(*$C$DW$T$19)
    8028                      .dwattr $C$DW$762, DW_AT_name("bytes")
    8029                      .dwattr $C$DW$762, DW_AT_TI_symbol_name("_bytes")
    8030                      .dwattr $C$DW$762, DW_AT_data_member_location[DW_OP_plus_uconst 0x0]
    8031                      .dwattr $C$DW$762, DW_AT_accessibility(DW_ACCESS_public)
    8032              $C$DW$763       .dwtag  DW_TAG_member
    8033                      .dwattr $C$DW$763, DW_AT_type(*$C$DW$T$102)
    8034                      .dwattr $C$DW$763, DW_AT_name("pBuffer")
    8035                      .dwattr $C$DW$763, DW_AT_TI_symbol_name("_pBuffer")
    8036                      .dwattr $C$DW$763, DW_AT_data_member_location[DW_OP_plus_uconst 0x2]
    8037                      .dwattr $C$DW$763, DW_AT_accessibility(DW_ACCESS_public)
    8038              $C$DW$764       .dwtag  DW_TAG_member
    8039                      .dwattr $C$DW$764, DW_AT_type(*$C$DW$T$109)
    8040                      .dwattr $C$DW$764, DW_AT_name("pNextBuffer")
    8041                      .dwattr $C$DW$764, DW_AT_TI_symbol_name("_pNextBuffer")
    8042                      .dwattr $C$DW$764, DW_AT_data_member_location[DW_OP_plus_uconst 0x4]
    8043                      .dwattr $C$DW$764, DW_AT_accessibility(DW_ACCESS_public)
    8044                      .dwendtag $C$DW$T$110
    8045              
    8046              $C$DW$T$118     .dwtag  DW_TAG_typedef, DW_AT_name("CSL_UsbDataStruct")
    8047                      .dwattr $C$DW$T$118, DW_AT_type(*$C$DW$T$110)
    8048                      .dwattr $C$DW$T$118, DW_AT_language(DW_LANG_C)
    8049              $C$DW$T$119     .dwtag  DW_TAG_pointer_type
    8050                      .dwattr $C$DW$T$119, DW_AT_type(*$C$DW$T$118)
    8051                      .dwattr $C$DW$T$119, DW_AT_address_class(0x17)
    8052              $C$DW$T$109     .dwtag  DW_TAG_pointer_type
    8053                      .dwattr $C$DW$T$109, DW_AT_type(*$C$DW$T$110)
    8054                      .dwattr $C$DW$T$109, DW_AT_address_class(0x17)
    8055              
    8056              $C$DW$T$120     .dwtag  DW_TAG_structure_type
    8057                      .dwattr $C$DW$T$120, DW_AT_name("CSL_UsbEpObj")
    8058                      .dwattr $C$DW$T$120, DW_AT_byte_size(0x14)
    8059              $C$DW$765       .dwtag  DW_TAG_member
    8060                      .dwattr $C$DW$765, DW_AT_type(*$C$DW$T$112)
    8061                      .dwattr $C$DW$765, DW_AT_name("epNum")
    8062                      .dwattr $C$DW$765, DW_AT_TI_symbol_name("_epNum")
    8063                      .dwattr $C$DW$765, DW_AT_data_member_location[DW_OP_plus_uconst 0x0]
    8064                      .dwattr $C$DW$765, DW_AT_accessibility(DW_ACCESS_public)
    8065              $C$DW$766       .dwtag  DW_TAG_member
    8066                      .dwattr $C$DW$766, DW_AT_type(*$C$DW$T$114)
    8067                      .dwattr $C$DW$766, DW_AT_name("xferType")
    8068                      .dwattr $C$DW$766, DW_AT_TI_symbol_name("_xferType")
    8069                      .dwattr $C$DW$766, DW_AT_data_member_location[DW_OP_plus_uconst 0x1]
    8070                      .dwattr $C$DW$766, DW_AT_accessibility(DW_ACCESS_public)
    8071              $C$DW$767       .dwtag  DW_TAG_member
    8072                      .dwattr $C$DW$767, DW_AT_type(*$C$DW$T$19)
    8073                      .dwattr $C$DW$767, DW_AT_name("maxPktSiz")
TMS320C55x Assembler PC v4.4.1 Sat Sep 29 23:08:40 2018

Tools Copyright (c) 1996-2012 Texas Instruments Incorporated
csl_usb_dma_example.asm                                              PAGE  185

    8074                      .dwattr $C$DW$767, DW_AT_TI_symbol_name("_maxPktSiz")
    8075                      .dwattr $C$DW$767, DW_AT_data_member_location[DW_OP_plus_uconst 0x2]
    8076                      .dwattr $C$DW$767, DW_AT_accessibility(DW_ACCESS_public)
    8077              $C$DW$768       .dwtag  DW_TAG_member
    8078                      .dwattr $C$DW$768, DW_AT_type(*$C$DW$T$19)
    8079                      .dwattr $C$DW$768, DW_AT_name("eventMask")
    8080                      .dwattr $C$DW$768, DW_AT_TI_symbol_name("_eventMask")
    8081                      .dwattr $C$DW$768, DW_AT_data_member_location[DW_OP_plus_uconst 0x3]
    8082                      .dwattr $C$DW$768, DW_AT_accessibility(DW_ACCESS_public)
    8083              $C$DW$769       .dwtag  DW_TAG_member
    8084                      .dwattr $C$DW$769, DW_AT_type(*$C$DW$T$117)
    8085                      .dwattr $C$DW$769, DW_AT_name("fxn")
    8086                      .dwattr $C$DW$769, DW_AT_TI_symbol_name("_fxn")
    8087                      .dwattr $C$DW$769, DW_AT_data_member_location[DW_OP_plus_uconst 0x4]
    8088                      .dwattr $C$DW$769, DW_AT_accessibility(DW_ACCESS_public)
    8089              $C$DW$770       .dwtag  DW_TAG_member
    8090                      .dwattr $C$DW$770, DW_AT_type(*$C$DW$T$19)
    8091                      .dwattr $C$DW$770, DW_AT_name("dataFlags")
    8092                      .dwattr $C$DW$770, DW_AT_TI_symbol_name("_dataFlags")
    8093                      .dwattr $C$DW$770, DW_AT_data_member_location[DW_OP_plus_uconst 0x6]
    8094                      .dwattr $C$DW$770, DW_AT_accessibility(DW_ACCESS_public)
    8095              $C$DW$771       .dwtag  DW_TAG_member
    8096                      .dwattr $C$DW$771, DW_AT_type(*$C$DW$T$19)
    8097                      .dwattr $C$DW$771, DW_AT_name("status")
    8098                      .dwattr $C$DW$771, DW_AT_TI_symbol_name("_status")
    8099                      .dwattr $C$DW$771, DW_AT_data_member_location[DW_OP_plus_uconst 0x7]
    8100                      .dwattr $C$DW$771, DW_AT_accessibility(DW_ACCESS_public)
    8101              $C$DW$772       .dwtag  DW_TAG_member
    8102                      .dwattr $C$DW$772, DW_AT_type(*$C$DW$T$19)
    8103                      .dwattr $C$DW$772, DW_AT_name("epDescRegSAddr")
    8104                      .dwattr $C$DW$772, DW_AT_TI_symbol_name("_epDescRegSAddr")
    8105                      .dwattr $C$DW$772, DW_AT_data_member_location[DW_OP_plus_uconst 0x8]
    8106                      .dwattr $C$DW$772, DW_AT_accessibility(DW_ACCESS_public)
    8107              $C$DW$773       .dwtag  DW_TAG_member
    8108                      .dwattr $C$DW$773, DW_AT_type(*$C$DW$T$19)
    8109                      .dwattr $C$DW$773, DW_AT_name("dmaRegSAddr")
    8110                      .dwattr $C$DW$773, DW_AT_TI_symbol_name("_dmaRegSAddr")
    8111                      .dwattr $C$DW$773, DW_AT_data_member_location[DW_OP_plus_uconst 0x9]
    8112                      .dwattr $C$DW$773, DW_AT_accessibility(DW_ACCESS_public)
    8113              $C$DW$774       .dwtag  DW_TAG_member
    8114                      .dwattr $C$DW$774, DW_AT_type(*$C$DW$T$19)
    8115                      .dwattr $C$DW$774, DW_AT_name("totByteCnt")
    8116                      .dwattr $C$DW$774, DW_AT_TI_symbol_name("_totByteCnt")
    8117                      .dwattr $C$DW$774, DW_AT_data_member_location[DW_OP_plus_uconst 0xa]
    8118                      .dwattr $C$DW$774, DW_AT_accessibility(DW_ACCESS_public)
    8119              $C$DW$775       .dwtag  DW_TAG_member
    8120                      .dwattr $C$DW$775, DW_AT_type(*$C$DW$T$19)
    8121                      .dwattr $C$DW$775, DW_AT_name("byteInThisSeg")
    8122                      .dwattr $C$DW$775, DW_AT_TI_symbol_name("_byteInThisSeg")
    8123                      .dwattr $C$DW$775, DW_AT_data_member_location[DW_OP_plus_uconst 0xb]
    8124                      .dwattr $C$DW$775, DW_AT_accessibility(DW_ACCESS_public)
    8125              $C$DW$776       .dwtag  DW_TAG_member
    8126                      .dwattr $C$DW$776, DW_AT_type(*$C$DW$T$102)
    8127                      .dwattr $C$DW$776, DW_AT_name("xferBytCnt")
    8128                      .dwattr $C$DW$776, DW_AT_TI_symbol_name("_xferBytCnt")
TMS320C55x Assembler PC v4.4.1 Sat Sep 29 23:08:40 2018

Tools Copyright (c) 1996-2012 Texas Instruments Incorporated
csl_usb_dma_example.asm                                              PAGE  186

    8129                      .dwattr $C$DW$776, DW_AT_data_member_location[DW_OP_plus_uconst 0xc]
    8130                      .dwattr $C$DW$776, DW_AT_accessibility(DW_ACCESS_public)
    8131              $C$DW$777       .dwtag  DW_TAG_member
    8132                      .dwattr $C$DW$777, DW_AT_type(*$C$DW$T$102)
    8133                      .dwattr $C$DW$777, DW_AT_name("pBuffer")
    8134                      .dwattr $C$DW$777, DW_AT_TI_symbol_name("_pBuffer")
    8135                      .dwattr $C$DW$777, DW_AT_data_member_location[DW_OP_plus_uconst 0xe]
    8136                      .dwattr $C$DW$777, DW_AT_accessibility(DW_ACCESS_public)
    8137              $C$DW$778       .dwtag  DW_TAG_member
    8138                      .dwattr $C$DW$778, DW_AT_type(*$C$DW$T$119)
    8139                      .dwattr $C$DW$778, DW_AT_name("pNextBuffer")
    8140                      .dwattr $C$DW$778, DW_AT_TI_symbol_name("_pNextBuffer")
    8141                      .dwattr $C$DW$778, DW_AT_data_member_location[DW_OP_plus_uconst 0x10]
    8142                      .dwattr $C$DW$778, DW_AT_accessibility(DW_ACCESS_public)
    8143              $C$DW$779       .dwtag  DW_TAG_member
    8144                      .dwattr $C$DW$779, DW_AT_type(*$C$DW$T$19)
    8145                      .dwattr $C$DW$779, DW_AT_name("eventFlag")
    8146                      .dwattr $C$DW$779, DW_AT_TI_symbol_name("_eventFlag")
    8147                      .dwattr $C$DW$779, DW_AT_data_member_location[DW_OP_plus_uconst 0x12]
    8148                      .dwattr $C$DW$779, DW_AT_accessibility(DW_ACCESS_public)
    8149                      .dwendtag $C$DW$T$120
    8150              
    8151              $C$DW$T$104     .dwtag  DW_TAG_typedef, DW_AT_name("CSL_UsbEpObj")
    8152                      .dwattr $C$DW$T$104, DW_AT_type(*$C$DW$T$120)
    8153                      .dwattr $C$DW$T$104, DW_AT_language(DW_LANG_C)
    8154              $C$DW$T$105     .dwtag  DW_TAG_pointer_type
    8155                      .dwattr $C$DW$T$105, DW_AT_type(*$C$DW$T$104)
    8156                      .dwattr $C$DW$T$105, DW_AT_address_class(0x17)
    8157              $C$DW$T$106     .dwtag  DW_TAG_typedef, DW_AT_name("pUsbEpHandle")
    8158                      .dwattr $C$DW$T$106, DW_AT_type(*$C$DW$T$105)
    8159                      .dwattr $C$DW$T$106, DW_AT_language(DW_LANG_C)
    8160              
    8161              $C$DW$T$107     .dwtag  DW_TAG_array_type
    8162                      .dwattr $C$DW$T$107, DW_AT_type(*$C$DW$T$106)
    8163                      .dwattr $C$DW$T$107, DW_AT_language(DW_LANG_C)
    8164                      .dwattr $C$DW$T$107, DW_AT_byte_size(0x10)
    8165              $C$DW$780       .dwtag  DW_TAG_subrange_type
    8166                      .dwattr $C$DW$780, DW_AT_upper_bound(0x07)
    8167                      .dwendtag $C$DW$T$107
    8168              
    8169              $C$DW$T$167     .dwtag  DW_TAG_pointer_type
    8170                      .dwattr $C$DW$T$167, DW_AT_type(*$C$DW$T$106)
    8171                      .dwattr $C$DW$T$167, DW_AT_address_class(0x17)
    8172              
    8173              $C$DW$T$123     .dwtag  DW_TAG_structure_type
    8174                      .dwattr $C$DW$T$123, DW_AT_name("CSL_UsbEpStatus")
    8175                      .dwattr $C$DW$T$123, DW_AT_byte_size(0x12)
    8176              $C$DW$781       .dwtag  DW_TAG_member
    8177                      .dwattr $C$DW$781, DW_AT_type(*$C$DW$T$88)
    8178                      .dwattr $C$DW$781, DW_AT_name("dwEndpoint")
    8179                      .dwattr $C$DW$781, DW_AT_TI_symbol_name("_dwEndpoint")
    8180                      .dwattr $C$DW$781, DW_AT_data_member_location[DW_OP_plus_uconst 0x0]
    8181                      .dwattr $C$DW$781, DW_AT_accessibility(DW_ACCESS_public)
    8182              $C$DW$782       .dwtag  DW_TAG_member
    8183                      .dwattr $C$DW$782, DW_AT_type(*$C$DW$T$114)
TMS320C55x Assembler PC v4.4.1 Sat Sep 29 23:08:40 2018

Tools Copyright (c) 1996-2012 Texas Instruments Incorporated
csl_usb_dma_example.asm                                              PAGE  187

    8184                      .dwattr $C$DW$782, DW_AT_name("xferType")
    8185                      .dwattr $C$DW$782, DW_AT_TI_symbol_name("_xferType")
    8186                      .dwattr $C$DW$782, DW_AT_data_member_location[DW_OP_plus_uconst 0x2]
    8187                      .dwattr $C$DW$782, DW_AT_accessibility(DW_ACCESS_public)
    8188              $C$DW$783       .dwtag  DW_TAG_member
    8189                      .dwattr $C$DW$783, DW_AT_type(*$C$DW$T$88)
    8190                      .dwattr $C$DW$783, DW_AT_name("dwPacketSizeAssigned")
    8191                      .dwattr $C$DW$783, DW_AT_TI_symbol_name("_dwPacketSizeAssigned")
    8192                      .dwattr $C$DW$783, DW_AT_data_member_location[DW_OP_plus_uconst 0x4]
    8193                      .dwattr $C$DW$783, DW_AT_accessibility(DW_ACCESS_public)
    8194              $C$DW$784       .dwtag  DW_TAG_member
    8195                      .dwattr $C$DW$784, DW_AT_type(*$C$DW$T$86)
    8196                      .dwattr $C$DW$784, DW_AT_name("fInitialized")
    8197                      .dwattr $C$DW$784, DW_AT_TI_symbol_name("_fInitialized")
    8198                      .dwattr $C$DW$784, DW_AT_data_member_location[DW_OP_plus_uconst 0x6]
    8199                      .dwattr $C$DW$784, DW_AT_accessibility(DW_ACCESS_public)
    8200              $C$DW$785       .dwtag  DW_TAG_member
    8201                      .dwattr $C$DW$785, DW_AT_type(*$C$DW$T$89)
    8202                      .dwattr $C$DW$785, DW_AT_name("pFifoAddr")
    8203                      .dwattr $C$DW$785, DW_AT_TI_symbol_name("_pFifoAddr")
    8204                      .dwattr $C$DW$785, DW_AT_data_member_location[DW_OP_plus_uconst 0x8]
    8205                      .dwattr $C$DW$785, DW_AT_accessibility(DW_ACCESS_public)
    8206              $C$DW$786       .dwtag  DW_TAG_member
    8207                      .dwattr $C$DW$786, DW_AT_type(*$C$DW$T$122)
    8208                      .dwattr $C$DW$786, DW_AT_name("pTransfer")
    8209                      .dwattr $C$DW$786, DW_AT_TI_symbol_name("_pTransfer")
    8210                      .dwattr $C$DW$786, DW_AT_data_member_location[DW_OP_plus_uconst 0xa]
    8211                      .dwattr $C$DW$786, DW_AT_accessibility(DW_ACCESS_public)
    8212              $C$DW$787       .dwtag  DW_TAG_member
    8213                      .dwattr $C$DW$787, DW_AT_type(*$C$DW$T$85)
    8214                      .dwattr $C$DW$787, DW_AT_name("wUSBEvents")
    8215                      .dwattr $C$DW$787, DW_AT_TI_symbol_name("_wUSBEvents")
    8216                      .dwattr $C$DW$787, DW_AT_data_member_location[DW_OP_plus_uconst 0xc]
    8217                      .dwattr $C$DW$787, DW_AT_accessibility(DW_ACCESS_public)
    8218              $C$DW$788       .dwtag  DW_TAG_member
    8219                      .dwattr $C$DW$788, DW_AT_type(*$C$DW$T$85)
    8220                      .dwattr $C$DW$788, DW_AT_name("dataReadFromFifo")
    8221                      .dwattr $C$DW$788, DW_AT_TI_symbol_name("_dataReadFromFifo")
    8222                      .dwattr $C$DW$788, DW_AT_data_member_location[DW_OP_plus_uconst 0xd]
    8223                      .dwattr $C$DW$788, DW_AT_accessibility(DW_ACCESS_public)
    8224              $C$DW$789       .dwtag  DW_TAG_member
    8225                      .dwattr $C$DW$789, DW_AT_type(*$C$DW$T$117)
    8226                      .dwattr $C$DW$789, DW_AT_name("hEventHandler")
    8227                      .dwattr $C$DW$789, DW_AT_TI_symbol_name("_hEventHandler")
    8228                      .dwattr $C$DW$789, DW_AT_data_member_location[DW_OP_plus_uconst 0xe]
    8229                      .dwattr $C$DW$789, DW_AT_accessibility(DW_ACCESS_public)
    8230              $C$DW$790       .dwtag  DW_TAG_member
    8231                      .dwattr $C$DW$790, DW_AT_type(*$C$DW$T$86)
    8232                      .dwattr $C$DW$790, DW_AT_name("fStalled")
    8233                      .dwattr $C$DW$790, DW_AT_TI_symbol_name("_fStalled")
    8234                      .dwattr $C$DW$790, DW_AT_data_member_location[DW_OP_plus_uconst 0x10]
    8235                      .dwattr $C$DW$790, DW_AT_accessibility(DW_ACCESS_public)
    8236              $C$DW$791       .dwtag  DW_TAG_member
    8237                      .dwattr $C$DW$791, DW_AT_type(*$C$DW$T$86)
    8238                      .dwattr $C$DW$791, DW_AT_name("fSelected")
TMS320C55x Assembler PC v4.4.1 Sat Sep 29 23:08:40 2018

Tools Copyright (c) 1996-2012 Texas Instruments Incorporated
csl_usb_dma_example.asm                                              PAGE  188

    8239                      .dwattr $C$DW$791, DW_AT_TI_symbol_name("_fSelected")
    8240                      .dwattr $C$DW$791, DW_AT_data_member_location[DW_OP_plus_uconst 0x11]
    8241                      .dwattr $C$DW$791, DW_AT_accessibility(DW_ACCESS_public)
    8242                      .dwendtag $C$DW$T$123
    8243              
    8244              $C$DW$T$93      .dwtag  DW_TAG_typedef, DW_AT_name("CSL_UsbEpStatus")
    8245                      .dwattr $C$DW$T$93, DW_AT_type(*$C$DW$T$123)
    8246                      .dwattr $C$DW$T$93, DW_AT_language(DW_LANG_C)
    8247              $C$DW$T$94      .dwtag  DW_TAG_pointer_type
    8248                      .dwattr $C$DW$T$94, DW_AT_type(*$C$DW$T$93)
    8249                      .dwattr $C$DW$T$94, DW_AT_address_class(0x17)
    8250              $C$DW$T$168     .dwtag  DW_TAG_typedef, DW_AT_name("pUsbEpStatus")
    8251                      .dwattr $C$DW$T$168, DW_AT_type(*$C$DW$T$94)
    8252                      .dwattr $C$DW$T$168, DW_AT_language(DW_LANG_C)
    8253              
    8254              $C$DW$T$125     .dwtag  DW_TAG_structure_type
    8255                      .dwattr $C$DW$T$125, DW_AT_name("CSL_UsbHostPktDescr")
    8256                      .dwattr $C$DW$T$125, DW_AT_byte_size(0x10)
    8257              $C$DW$792       .dwtag  DW_TAG_member
    8258                      .dwattr $C$DW$792, DW_AT_type(*$C$DW$T$124)
    8259                      .dwattr $C$DW$792, DW_AT_name("PacketInfoWord0")
    8260                      .dwattr $C$DW$792, DW_AT_TI_symbol_name("_PacketInfoWord0")
    8261                      .dwattr $C$DW$792, DW_AT_data_member_location[DW_OP_plus_uconst 0x0]
    8262                      .dwattr $C$DW$792, DW_AT_accessibility(DW_ACCESS_public)
    8263              $C$DW$793       .dwtag  DW_TAG_member
    8264                      .dwattr $C$DW$793, DW_AT_type(*$C$DW$T$124)
    8265                      .dwattr $C$DW$793, DW_AT_name("PacketInfoWord1")
    8266                      .dwattr $C$DW$793, DW_AT_TI_symbol_name("_PacketInfoWord1")
    8267                      .dwattr $C$DW$793, DW_AT_data_member_location[DW_OP_plus_uconst 0x2]
    8268                      .dwattr $C$DW$793, DW_AT_accessibility(DW_ACCESS_public)
    8269              $C$DW$794       .dwtag  DW_TAG_member
    8270                      .dwattr $C$DW$794, DW_AT_type(*$C$DW$T$124)
    8271                      .dwattr $C$DW$794, DW_AT_name("PacketInfoWord2")
    8272                      .dwattr $C$DW$794, DW_AT_TI_symbol_name("_PacketInfoWord2")
    8273                      .dwattr $C$DW$794, DW_AT_data_member_location[DW_OP_plus_uconst 0x4]
    8274                      .dwattr $C$DW$794, DW_AT_accessibility(DW_ACCESS_public)
    8275              $C$DW$795       .dwtag  DW_TAG_member
    8276                      .dwattr $C$DW$795, DW_AT_type(*$C$DW$T$124)
    8277                      .dwattr $C$DW$795, DW_AT_name("Buffer0InfoWord0")
    8278                      .dwattr $C$DW$795, DW_AT_TI_symbol_name("_Buffer0InfoWord0")
    8279                      .dwattr $C$DW$795, DW_AT_data_member_location[DW_OP_plus_uconst 0x6]
    8280                      .dwattr $C$DW$795, DW_AT_accessibility(DW_ACCESS_public)
    8281              $C$DW$796       .dwtag  DW_TAG_member
    8282                      .dwattr $C$DW$796, DW_AT_type(*$C$DW$T$124)
    8283                      .dwattr $C$DW$796, DW_AT_name("Buffer0InfoWord1")
    8284                      .dwattr $C$DW$796, DW_AT_TI_symbol_name("_Buffer0InfoWord1")
    8285                      .dwattr $C$DW$796, DW_AT_data_member_location[DW_OP_plus_uconst 0x8]
    8286                      .dwattr $C$DW$796, DW_AT_accessibility(DW_ACCESS_public)
    8287              $C$DW$797       .dwtag  DW_TAG_member
    8288                      .dwattr $C$DW$797, DW_AT_type(*$C$DW$T$124)
    8289                      .dwattr $C$DW$797, DW_AT_name("LinkingWord")
    8290                      .dwattr $C$DW$797, DW_AT_TI_symbol_name("_LinkingWord")
    8291                      .dwattr $C$DW$797, DW_AT_data_member_location[DW_OP_plus_uconst 0xa]
    8292                      .dwattr $C$DW$797, DW_AT_accessibility(DW_ACCESS_public)
    8293              $C$DW$798       .dwtag  DW_TAG_member
TMS320C55x Assembler PC v4.4.1 Sat Sep 29 23:08:40 2018

Tools Copyright (c) 1996-2012 Texas Instruments Incorporated
csl_usb_dma_example.asm                                              PAGE  189

    8294                      .dwattr $C$DW$798, DW_AT_type(*$C$DW$T$124)
    8295                      .dwattr $C$DW$798, DW_AT_name("OriginalBuffer0InfoWord0")
    8296                      .dwattr $C$DW$798, DW_AT_TI_symbol_name("_OriginalBuffer0InfoWord0")
    8297                      .dwattr $C$DW$798, DW_AT_data_member_location[DW_OP_plus_uconst 0xc]
    8298                      .dwattr $C$DW$798, DW_AT_accessibility(DW_ACCESS_public)
    8299              $C$DW$799       .dwtag  DW_TAG_member
    8300                      .dwattr $C$DW$799, DW_AT_type(*$C$DW$T$124)
    8301                      .dwattr $C$DW$799, DW_AT_name("OriginalBuffer0InfoWord1")
    8302                      .dwattr $C$DW$799, DW_AT_TI_symbol_name("_OriginalBuffer0InfoWord1")
    8303                      .dwattr $C$DW$799, DW_AT_data_member_location[DW_OP_plus_uconst 0xe]
    8304                      .dwattr $C$DW$799, DW_AT_accessibility(DW_ACCESS_public)
    8305                      .dwendtag $C$DW$T$125
    8306              
    8307              $C$DW$T$169     .dwtag  DW_TAG_typedef, DW_AT_name("CSL_UsbHostPktDescr")
    8308                      .dwattr $C$DW$T$169, DW_AT_type(*$C$DW$T$125)
    8309                      .dwattr $C$DW$T$169, DW_AT_language(DW_LANG_C)
    8310              $C$DW$T$170     .dwtag  DW_TAG_pointer_type
    8311                      .dwattr $C$DW$T$170, DW_AT_type(*$C$DW$T$169)
    8312                      .dwattr $C$DW$T$170, DW_AT_address_class(0x17)
    8313              
    8314              $C$DW$T$126     .dwtag  DW_TAG_structure_type
    8315                      .dwattr $C$DW$T$126, DW_AT_name("CSL_UsbSetupStruct")
    8316                      .dwattr $C$DW$T$126, DW_AT_byte_size(0x06)
    8317              $C$DW$800       .dwtag  DW_TAG_member
    8318                      .dwattr $C$DW$800, DW_AT_type(*$C$DW$T$10)
    8319                      .dwattr $C$DW$800, DW_AT_name("newPacket")
    8320                      .dwattr $C$DW$800, DW_AT_TI_symbol_name("_newPacket")
    8321                      .dwattr $C$DW$800, DW_AT_data_member_location[DW_OP_plus_uconst 0x0]
    8322                      .dwattr $C$DW$800, DW_AT_accessibility(DW_ACCESS_public)
    8323              $C$DW$801       .dwtag  DW_TAG_member
    8324                      .dwattr $C$DW$801, DW_AT_type(*$C$DW$T$19)
    8325                      .dwattr $C$DW$801, DW_AT_name("bmRequestType")
    8326                      .dwattr $C$DW$801, DW_AT_TI_symbol_name("_bmRequestType")
    8327                      .dwattr $C$DW$801, DW_AT_data_member_location[DW_OP_plus_uconst 0x1]
    8328                      .dwattr $C$DW$801, DW_AT_accessibility(DW_ACCESS_public)
    8329              $C$DW$802       .dwtag  DW_TAG_member
    8330                      .dwattr $C$DW$802, DW_AT_type(*$C$DW$T$19)
    8331                      .dwattr $C$DW$802, DW_AT_name("bRequest")
    8332                      .dwattr $C$DW$802, DW_AT_TI_symbol_name("_bRequest")
    8333                      .dwattr $C$DW$802, DW_AT_data_member_location[DW_OP_plus_uconst 0x2]
    8334                      .dwattr $C$DW$802, DW_AT_accessibility(DW_ACCESS_public)
    8335              $C$DW$803       .dwtag  DW_TAG_member
    8336                      .dwattr $C$DW$803, DW_AT_type(*$C$DW$T$19)
    8337                      .dwattr $C$DW$803, DW_AT_name("wValue")
    8338                      .dwattr $C$DW$803, DW_AT_TI_symbol_name("_wValue")
    8339                      .dwattr $C$DW$803, DW_AT_data_member_location[DW_OP_plus_uconst 0x3]
    8340                      .dwattr $C$DW$803, DW_AT_accessibility(DW_ACCESS_public)
    8341              $C$DW$804       .dwtag  DW_TAG_member
    8342                      .dwattr $C$DW$804, DW_AT_type(*$C$DW$T$19)
    8343                      .dwattr $C$DW$804, DW_AT_name("wIndex")
    8344                      .dwattr $C$DW$804, DW_AT_TI_symbol_name("_wIndex")
    8345                      .dwattr $C$DW$804, DW_AT_data_member_location[DW_OP_plus_uconst 0x4]
    8346                      .dwattr $C$DW$804, DW_AT_accessibility(DW_ACCESS_public)
    8347              $C$DW$805       .dwtag  DW_TAG_member
    8348                      .dwattr $C$DW$805, DW_AT_type(*$C$DW$T$19)
TMS320C55x Assembler PC v4.4.1 Sat Sep 29 23:08:40 2018

Tools Copyright (c) 1996-2012 Texas Instruments Incorporated
csl_usb_dma_example.asm                                              PAGE  190

    8349                      .dwattr $C$DW$805, DW_AT_name("wLength")
    8350                      .dwattr $C$DW$805, DW_AT_TI_symbol_name("_wLength")
    8351                      .dwattr $C$DW$805, DW_AT_data_member_location[DW_OP_plus_uconst 0x5]
    8352                      .dwattr $C$DW$805, DW_AT_accessibility(DW_ACCESS_public)
    8353                      .dwendtag $C$DW$T$126
    8354              
    8355              $C$DW$T$101     .dwtag  DW_TAG_typedef, DW_AT_name("CSL_UsbSetupStruct")
    8356                      .dwattr $C$DW$T$101, DW_AT_type(*$C$DW$T$126)
    8357                      .dwattr $C$DW$T$101, DW_AT_language(DW_LANG_C)
    8358              $C$DW$T$171     .dwtag  DW_TAG_pointer_type
    8359                      .dwattr $C$DW$T$171, DW_AT_type(*$C$DW$T$101)
    8360                      .dwattr $C$DW$T$171, DW_AT_address_class(0x17)
    8361              
    8362              $C$DW$T$129     .dwtag  DW_TAG_structure_type
    8363                      .dwattr $C$DW$T$129, DW_AT_name("CSL_UsbTransfer")
    8364                      .dwattr $C$DW$T$129, DW_AT_byte_size(0x0e)
    8365              $C$DW$806       .dwtag  DW_TAG_member
    8366                      .dwattr $C$DW$806, DW_AT_type(*$C$DW$T$88)
    8367                      .dwattr $C$DW$806, DW_AT_name("dwFlags")
    8368                      .dwattr $C$DW$806, DW_AT_TI_symbol_name("_dwFlags")
    8369                      .dwattr $C$DW$806, DW_AT_data_member_location[DW_OP_plus_uconst 0x0]
    8370                      .dwattr $C$DW$806, DW_AT_accessibility(DW_ACCESS_public)
    8371              $C$DW$807       .dwtag  DW_TAG_member
    8372                      .dwattr $C$DW$807, DW_AT_type(*$C$DW$T$88)
    8373                      .dwattr $C$DW$807, DW_AT_name("dwEndpoint")
    8374                      .dwattr $C$DW$807, DW_AT_TI_symbol_name("_dwEndpoint")
    8375                      .dwattr $C$DW$807, DW_AT_data_member_location[DW_OP_plus_uconst 0x2]
    8376                      .dwattr $C$DW$807, DW_AT_accessibility(DW_ACCESS_public)
    8377              $C$DW$808       .dwtag  DW_TAG_member
    8378                      .dwattr $C$DW$808, DW_AT_type(*$C$DW$T$127)
    8379                      .dwattr $C$DW$808, DW_AT_name("pvBuffer")
    8380                      .dwattr $C$DW$808, DW_AT_TI_symbol_name("_pvBuffer")
    8381                      .dwattr $C$DW$808, DW_AT_data_member_location[DW_OP_plus_uconst 0x4]
    8382                      .dwattr $C$DW$808, DW_AT_accessibility(DW_ACCESS_public)
    8383              $C$DW$809       .dwtag  DW_TAG_member
    8384                      .dwattr $C$DW$809, DW_AT_type(*$C$DW$T$88)
    8385                      .dwattr $C$DW$809, DW_AT_name("cbBuffer")
    8386                      .dwattr $C$DW$809, DW_AT_TI_symbol_name("_cbBuffer")
    8387                      .dwattr $C$DW$809, DW_AT_data_member_location[DW_OP_plus_uconst 0x6]
    8388                      .dwattr $C$DW$809, DW_AT_accessibility(DW_ACCESS_public)
    8389              $C$DW$810       .dwtag  DW_TAG_member
    8390                      .dwattr $C$DW$810, DW_AT_type(*$C$DW$T$88)
    8391                      .dwattr $C$DW$810, DW_AT_name("cbTransferred")
    8392                      .dwattr $C$DW$810, DW_AT_TI_symbol_name("_cbTransferred")
    8393                      .dwattr $C$DW$810, DW_AT_data_member_location[DW_OP_plus_uconst 0x8]
    8394                      .dwattr $C$DW$810, DW_AT_accessibility(DW_ACCESS_public)
    8395              $C$DW$811       .dwtag  DW_TAG_member
    8396                      .dwattr $C$DW$811, DW_AT_type(*$C$DW$T$88)
    8397                      .dwattr $C$DW$811, DW_AT_name("prevTxferLen")
    8398                      .dwattr $C$DW$811, DW_AT_TI_symbol_name("_prevTxferLen")
    8399                      .dwattr $C$DW$811, DW_AT_data_member_location[DW_OP_plus_uconst 0xa]
    8400                      .dwattr $C$DW$811, DW_AT_accessibility(DW_ACCESS_public)
    8401              $C$DW$812       .dwtag  DW_TAG_member
    8402                      .dwattr $C$DW$812, DW_AT_type(*$C$DW$T$86)
    8403                      .dwattr $C$DW$812, DW_AT_name("fComplete")
TMS320C55x Assembler PC v4.4.1 Sat Sep 29 23:08:40 2018

Tools Copyright (c) 1996-2012 Texas Instruments Incorporated
csl_usb_dma_example.asm                                              PAGE  191

    8404                      .dwattr $C$DW$812, DW_AT_TI_symbol_name("_fComplete")
    8405                      .dwattr $C$DW$812, DW_AT_data_member_location[DW_OP_plus_uconst 0xc]
    8406                      .dwattr $C$DW$812, DW_AT_accessibility(DW_ACCESS_public)
    8407              $C$DW$813       .dwtag  DW_TAG_member
    8408                      .dwattr $C$DW$813, DW_AT_type(*$C$DW$T$128)
    8409                      .dwattr $C$DW$813, DW_AT_name("ioFlags")
    8410                      .dwattr $C$DW$813, DW_AT_TI_symbol_name("_ioFlags")
    8411                      .dwattr $C$DW$813, DW_AT_data_member_location[DW_OP_plus_uconst 0xd]
    8412                      .dwattr $C$DW$813, DW_AT_accessibility(DW_ACCESS_public)
    8413                      .dwendtag $C$DW$T$129
    8414              
    8415              $C$DW$T$121     .dwtag  DW_TAG_typedef, DW_AT_name("CSL_UsbTransfer")
    8416                      .dwattr $C$DW$T$121, DW_AT_type(*$C$DW$T$129)
    8417                      .dwattr $C$DW$T$121, DW_AT_language(DW_LANG_C)
    8418              $C$DW$T$122     .dwtag  DW_TAG_pointer_type
    8419                      .dwattr $C$DW$T$122, DW_AT_type(*$C$DW$T$121)
    8420                      .dwattr $C$DW$T$122, DW_AT_address_class(0x17)
    8421              $C$DW$T$172     .dwtag  DW_TAG_typedef, DW_AT_name("pUsbTransfer")
    8422                      .dwattr $C$DW$T$172, DW_AT_type(*$C$DW$T$122)
    8423                      .dwattr $C$DW$T$172, DW_AT_language(DW_LANG_C)
    8424              $C$DW$T$3       .dwtag  DW_TAG_pointer_type
    8425                      .dwattr $C$DW$T$3, DW_AT_address_class(0x17)
    8426              $C$DW$T$127     .dwtag  DW_TAG_typedef, DW_AT_name("PVOID")
    8427                      .dwattr $C$DW$T$127, DW_AT_type(*$C$DW$T$3)
    8428                      .dwattr $C$DW$T$127, DW_AT_language(DW_LANG_C)
    8429              
    8430              $C$DW$T$67      .dwtag  DW_TAG_subroutine_type
    8431                      .dwattr $C$DW$T$67, DW_AT_language(DW_LANG_C)
    8432              $C$DW$T$68      .dwtag  DW_TAG_pointer_type
    8433                      .dwattr $C$DW$T$68, DW_AT_type(*$C$DW$T$67)
    8434                      .dwattr $C$DW$T$68, DW_AT_address_class(0x20)
    8435              $C$DW$T$69      .dwtag  DW_TAG_typedef, DW_AT_name("IRQ_IsrPtr")
    8436                      .dwattr $C$DW$T$69, DW_AT_type(*$C$DW$T$68)
    8437                      .dwattr $C$DW$T$69, DW_AT_language(DW_LANG_C)
    8438              
    8439              $C$DW$T$76      .dwtag  DW_TAG_subroutine_type
    8440                      .dwattr $C$DW$T$76, DW_AT_language(DW_LANG_C)
    8441              $C$DW$814       .dwtag  DW_TAG_formal_parameter
    8442                      .dwattr $C$DW$814, DW_AT_type(*$C$DW$T$19)
    8443                      .dwendtag $C$DW$T$76
    8444              
    8445              $C$DW$T$77      .dwtag  DW_TAG_pointer_type
    8446                      .dwattr $C$DW$T$77, DW_AT_type(*$C$DW$T$76)
    8447                      .dwattr $C$DW$T$77, DW_AT_address_class(0x20)
    8448              $C$DW$T$78      .dwtag  DW_TAG_typedef, DW_AT_name("CSL_USB_APP_CALLBACK")
    8449                      .dwattr $C$DW$T$78, DW_AT_type(*$C$DW$T$77)
    8450                      .dwattr $C$DW$T$78, DW_AT_language(DW_LANG_C)
    8451              
    8452              $C$DW$T$115     .dwtag  DW_TAG_subroutine_type
    8453                      .dwattr $C$DW$T$115, DW_AT_language(DW_LANG_C)
    8454              $C$DW$T$116     .dwtag  DW_TAG_pointer_type
    8455                      .dwattr $C$DW$T$116, DW_AT_type(*$C$DW$T$115)
    8456                      .dwattr $C$DW$T$116, DW_AT_address_class(0x20)
    8457              $C$DW$T$117     .dwtag  DW_TAG_typedef, DW_AT_name("CSL_USB_EVENT_ISR")
    8458                      .dwattr $C$DW$T$117, DW_AT_type(*$C$DW$T$116)
TMS320C55x Assembler PC v4.4.1 Sat Sep 29 23:08:40 2018

Tools Copyright (c) 1996-2012 Texas Instruments Incorporated
csl_usb_dma_example.asm                                              PAGE  192

    8459                      .dwattr $C$DW$T$117, DW_AT_language(DW_LANG_C)
    8460              $C$DW$815       .dwtag  DW_TAG_TI_far_type
    8461              $C$DW$T$173     .dwtag  DW_TAG_const_type
    8462                      .dwattr $C$DW$T$173, DW_AT_type(*$C$DW$815)
    8463              $C$DW$T$174     .dwtag  DW_TAG_pointer_type
    8464                      .dwattr $C$DW$T$174, DW_AT_type(*$C$DW$T$173)
    8465                      .dwattr $C$DW$T$174, DW_AT_address_class(0x17)
    8466              $C$DW$T$4       .dwtag  DW_TAG_base_type
    8467                      .dwattr $C$DW$T$4, DW_AT_encoding(DW_ATE_boolean)
    8468                      .dwattr $C$DW$T$4, DW_AT_name("bool")
    8469                      .dwattr $C$DW$T$4, DW_AT_byte_size(0x01)
    8470              $C$DW$T$5       .dwtag  DW_TAG_base_type
    8471                      .dwattr $C$DW$T$5, DW_AT_encoding(DW_ATE_signed_char)
    8472                      .dwattr $C$DW$T$5, DW_AT_name("signed char")
    8473                      .dwattr $C$DW$T$5, DW_AT_byte_size(0x01)
    8474              $C$DW$T$6       .dwtag  DW_TAG_base_type
    8475                      .dwattr $C$DW$T$6, DW_AT_encoding(DW_ATE_unsigned_char)
    8476                      .dwattr $C$DW$T$6, DW_AT_name("unsigned char")
    8477                      .dwattr $C$DW$T$6, DW_AT_byte_size(0x01)
    8478              $C$DW$T$7       .dwtag  DW_TAG_base_type
    8479                      .dwattr $C$DW$T$7, DW_AT_encoding(DW_ATE_signed_char)
    8480                      .dwattr $C$DW$T$7, DW_AT_name("wchar_t")
    8481                      .dwattr $C$DW$T$7, DW_AT_byte_size(0x01)
    8482              $C$DW$T$8       .dwtag  DW_TAG_base_type
    8483                      .dwattr $C$DW$T$8, DW_AT_encoding(DW_ATE_signed)
    8484                      .dwattr $C$DW$T$8, DW_AT_name("short")
    8485                      .dwattr $C$DW$T$8, DW_AT_byte_size(0x01)
    8486              $C$DW$T$79      .dwtag  DW_TAG_typedef, DW_AT_name("Int16")
    8487                      .dwattr $C$DW$T$79, DW_AT_type(*$C$DW$T$8)
    8488                      .dwattr $C$DW$T$79, DW_AT_language(DW_LANG_C)
    8489              $C$DW$T$80      .dwtag  DW_TAG_typedef, DW_AT_name("CSL_Status")
    8490                      .dwattr $C$DW$T$80, DW_AT_type(*$C$DW$T$79)
    8491                      .dwattr $C$DW$T$80, DW_AT_language(DW_LANG_C)
    8492              
    8493              $C$DW$T$81      .dwtag  DW_TAG_subroutine_type
    8494                      .dwattr $C$DW$T$81, DW_AT_type(*$C$DW$T$80)
    8495                      .dwattr $C$DW$T$81, DW_AT_language(DW_LANG_C)
    8496              $C$DW$816       .dwtag  DW_TAG_formal_parameter
    8497                      .dwattr $C$DW$816, DW_AT_type(*$C$DW$T$3)
    8498              $C$DW$817       .dwtag  DW_TAG_formal_parameter
    8499                      .dwattr $C$DW$817, DW_AT_type(*$C$DW$T$3)
    8500                      .dwendtag $C$DW$T$81
    8501              
    8502              $C$DW$T$82      .dwtag  DW_TAG_pointer_type
    8503                      .dwattr $C$DW$T$82, DW_AT_type(*$C$DW$T$81)
    8504                      .dwattr $C$DW$T$82, DW_AT_address_class(0x20)
    8505              $C$DW$T$83      .dwtag  DW_TAG_typedef, DW_AT_name("CSL_USB_APP_TRANSFER_CALLBACK")
    8506                      .dwattr $C$DW$T$83, DW_AT_type(*$C$DW$T$82)
    8507                      .dwattr $C$DW$T$83, DW_AT_language(DW_LANG_C)
    8508              $C$DW$T$130     .dwtag  DW_TAG_pointer_type
    8509                      .dwattr $C$DW$T$130, DW_AT_type(*$C$DW$T$80)
    8510                      .dwattr $C$DW$T$130, DW_AT_address_class(0x17)
    8511              $C$DW$818       .dwtag  DW_TAG_TI_far_type
    8512                      .dwattr $C$DW$818, DW_AT_type(*$C$DW$T$79)
    8513              $C$DW$T$225     .dwtag  DW_TAG_volatile_type
TMS320C55x Assembler PC v4.4.1 Sat Sep 29 23:08:40 2018

Tools Copyright (c) 1996-2012 Texas Instruments Incorporated
csl_usb_dma_example.asm                                              PAGE  193

    8514                      .dwattr $C$DW$T$225, DW_AT_type(*$C$DW$818)
    8515              $C$DW$T$9       .dwtag  DW_TAG_base_type
    8516                      .dwattr $C$DW$T$9, DW_AT_encoding(DW_ATE_unsigned)
    8517                      .dwattr $C$DW$T$9, DW_AT_name("unsigned short")
    8518                      .dwattr $C$DW$T$9, DW_AT_byte_size(0x01)
    8519              $C$DW$T$19      .dwtag  DW_TAG_typedef, DW_AT_name("Uint16")
    8520                      .dwattr $C$DW$T$19, DW_AT_type(*$C$DW$T$9)
    8521                      .dwattr $C$DW$T$19, DW_AT_language(DW_LANG_C)
    8522              $C$DW$T$128     .dwtag  DW_TAG_typedef, DW_AT_name("CSL_UsbIoFlags")
    8523                      .dwattr $C$DW$T$128, DW_AT_type(*$C$DW$T$19)
    8524                      .dwattr $C$DW$T$128, DW_AT_language(DW_LANG_C)
    8525              $C$DW$819       .dwtag  DW_TAG_TI_far_type
    8526                      .dwattr $C$DW$819, DW_AT_type(*$C$DW$T$19)
    8527              $C$DW$T$20      .dwtag  DW_TAG_volatile_type
    8528                      .dwattr $C$DW$T$20, DW_AT_type(*$C$DW$819)
    8529              
    8530              $C$DW$T$21      .dwtag  DW_TAG_array_type
    8531                      .dwattr $C$DW$T$21, DW_AT_type(*$C$DW$T$20)
    8532                      .dwattr $C$DW$T$21, DW_AT_language(DW_LANG_C)
    8533                      .dwattr $C$DW$T$21, DW_AT_byte_size(0x02)
    8534              $C$DW$820       .dwtag  DW_TAG_subrange_type
    8535                      .dwattr $C$DW$820, DW_AT_upper_bound(0x01)
    8536                      .dwendtag $C$DW$T$21
    8537              
    8538              
    8539              $C$DW$T$23      .dwtag  DW_TAG_array_type
    8540                      .dwattr $C$DW$T$23, DW_AT_type(*$C$DW$T$20)
    8541                      .dwattr $C$DW$T$23, DW_AT_language(DW_LANG_C)
    8542                      .dwattr $C$DW$T$23, DW_AT_byte_size(0x07)
    8543              $C$DW$821       .dwtag  DW_TAG_subrange_type
    8544                      .dwattr $C$DW$821, DW_AT_upper_bound(0x06)
    8545                      .dwendtag $C$DW$T$23
    8546              
    8547              
    8548              $C$DW$T$25      .dwtag  DW_TAG_array_type
    8549                      .dwattr $C$DW$T$25, DW_AT_type(*$C$DW$T$20)
    8550                      .dwattr $C$DW$T$25, DW_AT_language(DW_LANG_C)
    8551                      .dwattr $C$DW$T$25, DW_AT_byte_size(0x06)
    8552              $C$DW$822       .dwtag  DW_TAG_subrange_type
    8553                      .dwattr $C$DW$822, DW_AT_upper_bound(0x05)
    8554                      .dwendtag $C$DW$T$25
    8555              
    8556              
    8557              $C$DW$T$26      .dwtag  DW_TAG_array_type
    8558                      .dwattr $C$DW$T$26, DW_AT_type(*$C$DW$T$20)
    8559                      .dwattr $C$DW$T$26, DW_AT_language(DW_LANG_C)
    8560                      .dwattr $C$DW$T$26, DW_AT_byte_size(0x0e)
    8561              $C$DW$823       .dwtag  DW_TAG_subrange_type
    8562                      .dwattr $C$DW$823, DW_AT_upper_bound(0x0d)
    8563                      .dwendtag $C$DW$T$26
    8564              
    8565              
    8566              $C$DW$T$29      .dwtag  DW_TAG_array_type
    8567                      .dwattr $C$DW$T$29, DW_AT_type(*$C$DW$T$20)
    8568                      .dwattr $C$DW$T$29, DW_AT_language(DW_LANG_C)
TMS320C55x Assembler PC v4.4.1 Sat Sep 29 23:08:40 2018

Tools Copyright (c) 1996-2012 Texas Instruments Incorporated
csl_usb_dma_example.asm                                              PAGE  194

    8569                      .dwattr $C$DW$T$29, DW_AT_byte_size(0x0a)
    8570              $C$DW$824       .dwtag  DW_TAG_subrange_type
    8571                      .dwattr $C$DW$824, DW_AT_upper_bound(0x09)
    8572                      .dwendtag $C$DW$T$29
    8573              
    8574              
    8575              $C$DW$T$31      .dwtag  DW_TAG_array_type
    8576                      .dwattr $C$DW$T$31, DW_AT_type(*$C$DW$T$20)
    8577                      .dwattr $C$DW$T$31, DW_AT_language(DW_LANG_C)
    8578                      .dwattr $C$DW$T$31, DW_AT_byte_size(0x0c)
    8579              $C$DW$825       .dwtag  DW_TAG_subrange_type
    8580                      .dwattr $C$DW$825, DW_AT_upper_bound(0x0b)
    8581                      .dwendtag $C$DW$T$31
    8582              
    8583              
    8584              $C$DW$T$33      .dwtag  DW_TAG_array_type
    8585                      .dwattr $C$DW$T$33, DW_AT_type(*$C$DW$T$20)
    8586                      .dwattr $C$DW$T$33, DW_AT_language(DW_LANG_C)
    8587                      .dwattr $C$DW$T$33, DW_AT_byte_size(0x03)
    8588              $C$DW$826       .dwtag  DW_TAG_subrange_type
    8589                      .dwattr $C$DW$826, DW_AT_upper_bound(0x02)
    8590                      .dwendtag $C$DW$T$33
    8591              
    8592              
    8593              $C$DW$T$35      .dwtag  DW_TAG_array_type
    8594                      .dwattr $C$DW$T$35, DW_AT_type(*$C$DW$T$20)
    8595                      .dwattr $C$DW$T$35, DW_AT_language(DW_LANG_C)
    8596                      .dwattr $C$DW$T$35, DW_AT_byte_size(0x3a3)
    8597              $C$DW$827       .dwtag  DW_TAG_subrange_type
    8598                      .dwattr $C$DW$827, DW_AT_upper_bound(0x3a2)
    8599                      .dwendtag $C$DW$T$35
    8600              
    8601              
    8602              $C$DW$T$36      .dwtag  DW_TAG_array_type
    8603                      .dwattr $C$DW$T$36, DW_AT_type(*$C$DW$T$20)
    8604                      .dwattr $C$DW$T$36, DW_AT_language(DW_LANG_C)
    8605                      .dwattr $C$DW$T$36, DW_AT_byte_size(0x04)
    8606              $C$DW$828       .dwtag  DW_TAG_subrange_type
    8607                      .dwattr $C$DW$828, DW_AT_upper_bound(0x03)
    8608                      .dwendtag $C$DW$T$36
    8609              
    8610              
    8611              $C$DW$T$37      .dwtag  DW_TAG_array_type
    8612                      .dwattr $C$DW$T$37, DW_AT_type(*$C$DW$T$20)
    8613                      .dwattr $C$DW$T$37, DW_AT_language(DW_LANG_C)
    8614                      .dwattr $C$DW$T$37, DW_AT_byte_size(0x2e)
    8615              $C$DW$829       .dwtag  DW_TAG_subrange_type
    8616                      .dwattr $C$DW$829, DW_AT_upper_bound(0x2d)
    8617                      .dwendtag $C$DW$T$37
    8618              
    8619              
    8620              $C$DW$T$38      .dwtag  DW_TAG_array_type
    8621                      .dwattr $C$DW$T$38, DW_AT_type(*$C$DW$T$20)
    8622                      .dwattr $C$DW$T$38, DW_AT_language(DW_LANG_C)
    8623                      .dwattr $C$DW$T$38, DW_AT_byte_size(0x13)
TMS320C55x Assembler PC v4.4.1 Sat Sep 29 23:08:40 2018

Tools Copyright (c) 1996-2012 Texas Instruments Incorporated
csl_usb_dma_example.asm                                              PAGE  195

    8624              $C$DW$830       .dwtag  DW_TAG_subrange_type
    8625                      .dwattr $C$DW$830, DW_AT_upper_bound(0x12)
    8626                      .dwendtag $C$DW$T$38
    8627              
    8628              
    8629              $C$DW$T$41      .dwtag  DW_TAG_array_type
    8630                      .dwattr $C$DW$T$41, DW_AT_type(*$C$DW$T$20)
    8631                      .dwattr $C$DW$T$41, DW_AT_language(DW_LANG_C)
    8632                      .dwattr $C$DW$T$41, DW_AT_byte_size(0x59)
    8633              $C$DW$831       .dwtag  DW_TAG_subrange_type
    8634                      .dwattr $C$DW$831, DW_AT_upper_bound(0x58)
    8635                      .dwendtag $C$DW$T$41
    8636              
    8637              
    8638              $C$DW$T$44      .dwtag  DW_TAG_array_type
    8639                      .dwattr $C$DW$T$44, DW_AT_type(*$C$DW$T$20)
    8640                      .dwattr $C$DW$T$44, DW_AT_language(DW_LANG_C)
    8641                      .dwattr $C$DW$T$44, DW_AT_byte_size(0xaaf)
    8642              $C$DW$832       .dwtag  DW_TAG_subrange_type
    8643                      .dwattr $C$DW$832, DW_AT_upper_bound(0xaae)
    8644                      .dwendtag $C$DW$T$44
    8645              
    8646              
    8647              $C$DW$T$45      .dwtag  DW_TAG_array_type
    8648                      .dwattr $C$DW$T$45, DW_AT_type(*$C$DW$T$20)
    8649                      .dwattr $C$DW$T$45, DW_AT_language(DW_LANG_C)
    8650                      .dwattr $C$DW$T$45, DW_AT_byte_size(0x7f7)
    8651              $C$DW$833       .dwtag  DW_TAG_subrange_type
    8652                      .dwattr $C$DW$833, DW_AT_upper_bound(0x7f6)
    8653                      .dwendtag $C$DW$T$45
    8654              
    8655              
    8656              $C$DW$T$48      .dwtag  DW_TAG_array_type
    8657                      .dwattr $C$DW$T$48, DW_AT_type(*$C$DW$T$20)
    8658                      .dwattr $C$DW$T$48, DW_AT_language(DW_LANG_C)
    8659                      .dwattr $C$DW$T$48, DW_AT_byte_size(0x780)
    8660              $C$DW$834       .dwtag  DW_TAG_subrange_type
    8661                      .dwattr $C$DW$834, DW_AT_upper_bound(0x77f)
    8662                      .dwendtag $C$DW$T$48
    8663              
    8664              
    8665              $C$DW$T$49      .dwtag  DW_TAG_array_type
    8666                      .dwattr $C$DW$T$49, DW_AT_type(*$C$DW$T$20)
    8667                      .dwattr $C$DW$T$49, DW_AT_language(DW_LANG_C)
    8668                      .dwattr $C$DW$T$49, DW_AT_byte_size(0x7fe)
    8669              $C$DW$835       .dwtag  DW_TAG_subrange_type
    8670                      .dwattr $C$DW$835, DW_AT_upper_bound(0x7fd)
    8671                      .dwendtag $C$DW$T$49
    8672              
    8673              
    8674              $C$DW$T$52      .dwtag  DW_TAG_array_type
    8675                      .dwattr $C$DW$T$52, DW_AT_type(*$C$DW$T$20)
    8676                      .dwattr $C$DW$T$52, DW_AT_language(DW_LANG_C)
    8677                      .dwattr $C$DW$T$52, DW_AT_byte_size(0x1700)
    8678              $C$DW$836       .dwtag  DW_TAG_subrange_type
TMS320C55x Assembler PC v4.4.1 Sat Sep 29 23:08:40 2018

Tools Copyright (c) 1996-2012 Texas Instruments Incorporated
csl_usb_dma_example.asm                                              PAGE  196

    8679                      .dwattr $C$DW$836, DW_AT_upper_bound(0x16ff)
    8680                      .dwendtag $C$DW$T$52
    8681              
    8682              
    8683              $C$DW$T$53      .dwtag  DW_TAG_array_type
    8684                      .dwattr $C$DW$T$53, DW_AT_type(*$C$DW$T$20)
    8685                      .dwattr $C$DW$T$53, DW_AT_language(DW_LANG_C)
    8686                      .dwattr $C$DW$T$53, DW_AT_byte_size(0x16)
    8687              $C$DW$837       .dwtag  DW_TAG_subrange_type
    8688                      .dwattr $C$DW$837, DW_AT_upper_bound(0x15)
    8689                      .dwendtag $C$DW$T$53
    8690              
    8691              
    8692              $C$DW$T$54      .dwtag  DW_TAG_array_type
    8693                      .dwattr $C$DW$T$54, DW_AT_type(*$C$DW$T$20)
    8694                      .dwattr $C$DW$T$54, DW_AT_language(DW_LANG_C)
    8695                      .dwattr $C$DW$T$54, DW_AT_byte_size(0x52)
    8696              $C$DW$838       .dwtag  DW_TAG_subrange_type
    8697                      .dwattr $C$DW$838, DW_AT_upper_bound(0x51)
    8698                      .dwendtag $C$DW$T$54
    8699              
    8700              
    8701              $C$DW$T$55      .dwtag  DW_TAG_array_type
    8702                      .dwattr $C$DW$T$55, DW_AT_type(*$C$DW$T$20)
    8703                      .dwattr $C$DW$T$55, DW_AT_language(DW_LANG_C)
    8704                      .dwattr $C$DW$T$55, DW_AT_byte_size(0xf66)
    8705              $C$DW$839       .dwtag  DW_TAG_subrange_type
    8706                      .dwattr $C$DW$839, DW_AT_upper_bound(0xf65)
    8707                      .dwendtag $C$DW$T$55
    8708              
    8709              
    8710              $C$DW$T$58      .dwtag  DW_TAG_array_type
    8711                      .dwattr $C$DW$T$58, DW_AT_type(*$C$DW$T$20)
    8712                      .dwattr $C$DW$T$58, DW_AT_language(DW_LANG_C)
    8713                      .dwattr $C$DW$T$58, DW_AT_byte_size(0xf00)
    8714              $C$DW$840       .dwtag  DW_TAG_subrange_type
    8715                      .dwattr $C$DW$840, DW_AT_upper_bound(0xeff)
    8716                      .dwendtag $C$DW$T$58
    8717              
    8718              
    8719              $C$DW$T$61      .dwtag  DW_TAG_array_type
    8720                      .dwattr $C$DW$T$61, DW_AT_type(*$C$DW$T$20)
    8721                      .dwattr $C$DW$T$61, DW_AT_language(DW_LANG_C)
    8722                      .dwattr $C$DW$T$61, DW_AT_byte_size(0x400)
    8723              $C$DW$841       .dwtag  DW_TAG_subrange_type
    8724                      .dwattr $C$DW$841, DW_AT_upper_bound(0x3ff)
    8725                      .dwendtag $C$DW$T$61
    8726              
    8727              
    8728              $C$DW$T$65      .dwtag  DW_TAG_array_type
    8729                      .dwattr $C$DW$T$65, DW_AT_type(*$C$DW$T$20)
    8730                      .dwattr $C$DW$T$65, DW_AT_language(DW_LANG_C)
    8731                      .dwattr $C$DW$T$65, DW_AT_byte_size(0x05)
    8732              $C$DW$842       .dwtag  DW_TAG_subrange_type
    8733                      .dwattr $C$DW$842, DW_AT_upper_bound(0x04)
TMS320C55x Assembler PC v4.4.1 Sat Sep 29 23:08:40 2018

Tools Copyright (c) 1996-2012 Texas Instruments Incorporated
csl_usb_dma_example.asm                                              PAGE  197

    8734                      .dwendtag $C$DW$T$65
    8735              
    8736              $C$DW$843       .dwtag  DW_TAG_TI_far_type
    8737                      .dwattr $C$DW$843, DW_AT_type(*$C$DW$T$19)
    8738              $C$DW$844       .dwtag  DW_TAG_TI_ioport_type
    8739                      .dwattr $C$DW$844, DW_AT_type(*$C$DW$843)
    8740              $C$DW$T$226     .dwtag  DW_TAG_volatile_type
    8741                      .dwattr $C$DW$T$226, DW_AT_type(*$C$DW$844)
    8742              $C$DW$T$227     .dwtag  DW_TAG_pointer_type
    8743                      .dwattr $C$DW$T$227, DW_AT_type(*$C$DW$T$226)
    8744                      .dwattr $C$DW$T$227, DW_AT_address_class(0x10)
    8745              $C$DW$T$85      .dwtag  DW_TAG_typedef, DW_AT_name("WORD")
    8746                      .dwattr $C$DW$T$85, DW_AT_type(*$C$DW$T$19)
    8747                      .dwattr $C$DW$T$85, DW_AT_language(DW_LANG_C)
    8748              $C$DW$T$87      .dwtag  DW_TAG_pointer_type
    8749                      .dwattr $C$DW$T$87, DW_AT_type(*$C$DW$T$85)
    8750                      .dwattr $C$DW$T$87, DW_AT_address_class(0x17)
    8751              $C$DW$T$102     .dwtag  DW_TAG_pointer_type
    8752                      .dwattr $C$DW$T$102, DW_AT_type(*$C$DW$T$19)
    8753                      .dwattr $C$DW$T$102, DW_AT_address_class(0x17)
    8754              $C$DW$T$228     .dwtag  DW_TAG_typedef, DW_AT_name("PWORD")
    8755                      .dwattr $C$DW$T$228, DW_AT_type(*$C$DW$T$102)
    8756                      .dwattr $C$DW$T$228, DW_AT_language(DW_LANG_C)
    8757              
    8758              $C$DW$T$103     .dwtag  DW_TAG_array_type
    8759                      .dwattr $C$DW$T$103, DW_AT_type(*$C$DW$T$102)
    8760                      .dwattr $C$DW$T$103, DW_AT_language(DW_LANG_C)
    8761                      .dwattr $C$DW$T$103, DW_AT_byte_size(0x08)
    8762              $C$DW$845       .dwtag  DW_TAG_subrange_type
    8763                      .dwattr $C$DW$845, DW_AT_upper_bound(0x03)
    8764                      .dwendtag $C$DW$T$103
    8765              
    8766              
    8767              $C$DW$T$229     .dwtag  DW_TAG_array_type
    8768                      .dwattr $C$DW$T$229, DW_AT_type(*$C$DW$T$19)
    8769                      .dwattr $C$DW$T$229, DW_AT_language(DW_LANG_C)
    8770                      .dwattr $C$DW$T$229, DW_AT_byte_size(0x200)
    8771              $C$DW$846       .dwtag  DW_TAG_subrange_type
    8772                      .dwattr $C$DW$846, DW_AT_upper_bound(0x1ff)
    8773                      .dwendtag $C$DW$T$229
    8774              
    8775              
    8776              $C$DW$T$230     .dwtag  DW_TAG_array_type
    8777                      .dwattr $C$DW$T$230, DW_AT_type(*$C$DW$T$19)
    8778                      .dwattr $C$DW$T$230, DW_AT_language(DW_LANG_C)
    8779                      .dwattr $C$DW$T$230, DW_AT_byte_size(0x09)
    8780              $C$DW$847       .dwtag  DW_TAG_subrange_type
    8781                      .dwattr $C$DW$847, DW_AT_upper_bound(0x08)
    8782                      .dwendtag $C$DW$T$230
    8783              
    8784              
    8785              $C$DW$T$231     .dwtag  DW_TAG_array_type
    8786                      .dwattr $C$DW$T$231, DW_AT_type(*$C$DW$T$19)
    8787                      .dwattr $C$DW$T$231, DW_AT_language(DW_LANG_C)
    8788                      .dwattr $C$DW$T$231, DW_AT_byte_size(0x28)
TMS320C55x Assembler PC v4.4.1 Sat Sep 29 23:08:40 2018

Tools Copyright (c) 1996-2012 Texas Instruments Incorporated
csl_usb_dma_example.asm                                              PAGE  198

    8789              $C$DW$848       .dwtag  DW_TAG_subrange_type
    8790                      .dwattr $C$DW$848, DW_AT_upper_bound(0x27)
    8791                      .dwendtag $C$DW$T$231
    8792              
    8793              
    8794              $C$DW$T$232     .dwtag  DW_TAG_array_type
    8795                      .dwattr $C$DW$T$232, DW_AT_type(*$C$DW$T$19)
    8796                      .dwattr $C$DW$T$232, DW_AT_language(DW_LANG_C)
    8797                      .dwattr $C$DW$T$232, DW_AT_byte_size(0x14)
    8798              $C$DW$849       .dwtag  DW_TAG_subrange_type
    8799                      .dwattr $C$DW$849, DW_AT_upper_bound(0x13)
    8800                      .dwendtag $C$DW$T$232
    8801              
    8802              
    8803              $C$DW$T$233     .dwtag  DW_TAG_array_type
    8804                      .dwattr $C$DW$T$233, DW_AT_type(*$C$DW$T$19)
    8805                      .dwattr $C$DW$T$233, DW_AT_language(DW_LANG_C)
    8806                      .dwattr $C$DW$T$233, DW_AT_byte_size(0x50)
    8807              $C$DW$850       .dwtag  DW_TAG_subrange_type
    8808                      .dwattr $C$DW$850, DW_AT_upper_bound(0x03)
    8809              $C$DW$851       .dwtag  DW_TAG_subrange_type
    8810                      .dwattr $C$DW$851, DW_AT_upper_bound(0x13)
    8811                      .dwendtag $C$DW$T$233
    8812              
    8813              $C$DW$T$10      .dwtag  DW_TAG_base_type
    8814                      .dwattr $C$DW$T$10, DW_AT_encoding(DW_ATE_signed)
    8815                      .dwattr $C$DW$T$10, DW_AT_name("int")
    8816                      .dwattr $C$DW$T$10, DW_AT_byte_size(0x01)
    8817              $C$DW$T$86      .dwtag  DW_TAG_typedef, DW_AT_name("Bool")
    8818                      .dwattr $C$DW$T$86, DW_AT_type(*$C$DW$T$10)
    8819                      .dwattr $C$DW$T$86, DW_AT_language(DW_LANG_C)
    8820              $C$DW$852       .dwtag  DW_TAG_TI_far_type
    8821                      .dwattr $C$DW$852, DW_AT_type(*$C$DW$T$86)
    8822              $C$DW$T$235     .dwtag  DW_TAG_volatile_type
    8823                      .dwattr $C$DW$T$235, DW_AT_type(*$C$DW$852)
    8824              $C$DW$T$11      .dwtag  DW_TAG_base_type
    8825                      .dwattr $C$DW$T$11, DW_AT_encoding(DW_ATE_unsigned)
    8826                      .dwattr $C$DW$T$11, DW_AT_name("unsigned int")
    8827                      .dwattr $C$DW$T$11, DW_AT_byte_size(0x01)
    8828              $C$DW$T$12      .dwtag  DW_TAG_base_type
    8829                      .dwattr $C$DW$T$12, DW_AT_encoding(DW_ATE_signed)
    8830                      .dwattr $C$DW$T$12, DW_AT_name("long")
    8831                      .dwattr $C$DW$T$12, DW_AT_byte_size(0x02)
    8832              $C$DW$T$13      .dwtag  DW_TAG_base_type
    8833                      .dwattr $C$DW$T$13, DW_AT_encoding(DW_ATE_unsigned)
    8834                      .dwattr $C$DW$T$13, DW_AT_name("unsigned long")
    8835                      .dwattr $C$DW$T$13, DW_AT_byte_size(0x02)
    8836              $C$DW$T$70      .dwtag  DW_TAG_typedef, DW_AT_name("Uint32")
    8837                      .dwattr $C$DW$T$70, DW_AT_type(*$C$DW$T$13)
    8838                      .dwattr $C$DW$T$70, DW_AT_language(DW_LANG_C)
    8839              $C$DW$T$88      .dwtag  DW_TAG_typedef, DW_AT_name("DWORD")
    8840                      .dwattr $C$DW$T$88, DW_AT_type(*$C$DW$T$70)
    8841                      .dwattr $C$DW$T$88, DW_AT_language(DW_LANG_C)
    8842              $C$DW$T$89      .dwtag  DW_TAG_pointer_type
    8843                      .dwattr $C$DW$T$89, DW_AT_type(*$C$DW$T$88)
TMS320C55x Assembler PC v4.4.1 Sat Sep 29 23:08:40 2018

Tools Copyright (c) 1996-2012 Texas Instruments Incorporated
csl_usb_dma_example.asm                                              PAGE  199

    8844                      .dwattr $C$DW$T$89, DW_AT_address_class(0x17)
    8845              
    8846              $C$DW$T$90      .dwtag  DW_TAG_array_type
    8847                      .dwattr $C$DW$T$90, DW_AT_type(*$C$DW$T$88)
    8848                      .dwattr $C$DW$T$90, DW_AT_language(DW_LANG_C)
    8849                      .dwattr $C$DW$T$90, DW_AT_byte_size(0x40)
    8850              $C$DW$853       .dwtag  DW_TAG_subrange_type
    8851                      .dwattr $C$DW$853, DW_AT_upper_bound(0x1f)
    8852                      .dwendtag $C$DW$T$90
    8853              
    8854              $C$DW$854       .dwtag  DW_TAG_TI_far_type
    8855                      .dwattr $C$DW$854, DW_AT_type(*$C$DW$T$70)
    8856              $C$DW$T$124     .dwtag  DW_TAG_volatile_type
    8857                      .dwattr $C$DW$T$124, DW_AT_type(*$C$DW$854)
    8858              $C$DW$T$214     .dwtag  DW_TAG_pointer_type
    8859                      .dwattr $C$DW$T$214, DW_AT_type(*$C$DW$T$70)
    8860                      .dwattr $C$DW$T$214, DW_AT_address_class(0x17)
    8861              
    8862              $C$DW$T$247     .dwtag  DW_TAG_array_type
    8863                      .dwattr $C$DW$T$247, DW_AT_type(*$C$DW$T$70)
    8864                      .dwattr $C$DW$T$247, DW_AT_language(DW_LANG_C)
    8865                      .dwattr $C$DW$T$247, DW_AT_byte_size(0x200)
    8866              $C$DW$855       .dwtag  DW_TAG_subrange_type
    8867                      .dwattr $C$DW$855, DW_AT_upper_bound(0xff)
    8868                      .dwendtag $C$DW$T$247
    8869              
    8870              $C$DW$T$14      .dwtag  DW_TAG_base_type
    8871                      .dwattr $C$DW$T$14, DW_AT_encoding(DW_ATE_signed)
    8872                      .dwattr $C$DW$T$14, DW_AT_name("long long")
    8873                      .dwattr $C$DW$T$14, DW_AT_byte_size(0x04)
    8874                      .dwattr $C$DW$T$14, DW_AT_bit_size(0x28)
    8875                      .dwattr $C$DW$T$14, DW_AT_bit_offset(0x18)
    8876              $C$DW$T$15      .dwtag  DW_TAG_base_type
    8877                      .dwattr $C$DW$T$15, DW_AT_encoding(DW_ATE_unsigned)
    8878                      .dwattr $C$DW$T$15, DW_AT_name("unsigned long long")
    8879                      .dwattr $C$DW$T$15, DW_AT_byte_size(0x04)
    8880                      .dwattr $C$DW$T$15, DW_AT_bit_size(0x28)
    8881                      .dwattr $C$DW$T$15, DW_AT_bit_offset(0x18)
    8882              $C$DW$T$16      .dwtag  DW_TAG_base_type
    8883                      .dwattr $C$DW$T$16, DW_AT_encoding(DW_ATE_float)
    8884                      .dwattr $C$DW$T$16, DW_AT_name("float")
    8885                      .dwattr $C$DW$T$16, DW_AT_byte_size(0x02)
    8886              $C$DW$T$17      .dwtag  DW_TAG_base_type
    8887                      .dwattr $C$DW$T$17, DW_AT_encoding(DW_ATE_float)
    8888                      .dwattr $C$DW$T$17, DW_AT_name("double")
    8889                      .dwattr $C$DW$T$17, DW_AT_byte_size(0x02)
    8890              $C$DW$T$18      .dwtag  DW_TAG_base_type
    8891                      .dwattr $C$DW$T$18, DW_AT_encoding(DW_ATE_float)
    8892                      .dwattr $C$DW$T$18, DW_AT_name("long double")
    8893                      .dwattr $C$DW$T$18, DW_AT_byte_size(0x02)
    8894              $C$DW$T$186     .dwtag  DW_TAG_base_type
    8895                      .dwattr $C$DW$T$186, DW_AT_encoding(DW_ATE_signed_char)
    8896                      .dwattr $C$DW$T$186, DW_AT_name("signed char")
    8897                      .dwattr $C$DW$T$186, DW_AT_byte_size(0x01)
    8898              $C$DW$T$187     .dwtag  DW_TAG_pointer_type
TMS320C55x Assembler PC v4.4.1 Sat Sep 29 23:08:40 2018

Tools Copyright (c) 1996-2012 Texas Instruments Incorporated
csl_usb_dma_example.asm                                              PAGE  200

    8899                      .dwattr $C$DW$T$187, DW_AT_type(*$C$DW$T$186)
    8900                      .dwattr $C$DW$T$187, DW_AT_address_class(0x17)
    8901              $C$DW$856       .dwtag  DW_TAG_TI_far_type
    8902                      .dwattr $C$DW$856, DW_AT_type(*$C$DW$T$186)
    8903              $C$DW$T$238     .dwtag  DW_TAG_const_type
    8904                      .dwattr $C$DW$T$238, DW_AT_type(*$C$DW$856)
    8905              $C$DW$T$239     .dwtag  DW_TAG_pointer_type
    8906                      .dwattr $C$DW$T$239, DW_AT_type(*$C$DW$T$238)
    8907                      .dwattr $C$DW$T$239, DW_AT_address_class(0x17)
    8908                      .dwattr $C$DW$CU, DW_AT_language(DW_LANG_C)
    8909              
    8910              ;***************************************************************
    8911              ;* DWARF CIE ENTRIES                                           *
    8912              ;***************************************************************
    8913              
    8914              $C$DW$CIE       .dwcie 91
    8915                      .dwcfi  cfa_register, 36
    8916                      .dwcfi  cfa_offset, 0
    8917                      .dwcfi  undefined, 0
    8918                      .dwcfi  undefined, 1
    8919                      .dwcfi  undefined, 2
    8920                      .dwcfi  undefined, 3
    8921                      .dwcfi  undefined, 4
    8922                      .dwcfi  undefined, 5
    8923                      .dwcfi  undefined, 6
    8924                      .dwcfi  undefined, 7
    8925                      .dwcfi  undefined, 8
    8926                      .dwcfi  undefined, 9
    8927                      .dwcfi  undefined, 10
    8928                      .dwcfi  undefined, 11
    8929                      .dwcfi  undefined, 12
    8930                      .dwcfi  undefined, 13
    8931                      .dwcfi  same_value, 14
    8932                      .dwcfi  same_value, 15
    8933                      .dwcfi  undefined, 16
    8934                      .dwcfi  undefined, 17
    8935                      .dwcfi  undefined, 18
    8936                      .dwcfi  undefined, 19
    8937                      .dwcfi  undefined, 20
    8938                      .dwcfi  undefined, 21
    8939                      .dwcfi  undefined, 22
    8940                      .dwcfi  undefined, 23
    8941                      .dwcfi  undefined, 24
    8942                      .dwcfi  undefined, 25
    8943                      .dwcfi  same_value, 26
    8944                      .dwcfi  same_value, 27
    8945                      .dwcfi  same_value, 28
    8946                      .dwcfi  same_value, 29
    8947                      .dwcfi  same_value, 30
    8948                      .dwcfi  same_value, 31
    8949                      .dwcfi  undefined, 32
    8950                      .dwcfi  undefined, 33
    8951                      .dwcfi  undefined, 34
    8952                      .dwcfi  undefined, 35
    8953                      .dwcfi  undefined, 36
TMS320C55x Assembler PC v4.4.1 Sat Sep 29 23:08:40 2018

Tools Copyright (c) 1996-2012 Texas Instruments Incorporated
csl_usb_dma_example.asm                                              PAGE  201

    8954                      .dwcfi  undefined, 37
    8955                      .dwcfi  undefined, 38
    8956                      .dwcfi  undefined, 39
    8957                      .dwcfi  undefined, 40
    8958                      .dwcfi  undefined, 41
    8959                      .dwcfi  undefined, 42
    8960                      .dwcfi  undefined, 43
    8961                      .dwcfi  undefined, 44
    8962                      .dwcfi  undefined, 45
    8963                      .dwcfi  undefined, 46
    8964                      .dwcfi  undefined, 47
    8965                      .dwcfi  undefined, 48
    8966                      .dwcfi  undefined, 49
    8967                      .dwcfi  undefined, 50
    8968                      .dwcfi  undefined, 51
    8969                      .dwcfi  undefined, 52
    8970                      .dwcfi  undefined, 53
    8971                      .dwcfi  undefined, 54
    8972                      .dwcfi  undefined, 55
    8973                      .dwcfi  undefined, 56
    8974                      .dwcfi  undefined, 57
    8975                      .dwcfi  undefined, 58
    8976                      .dwcfi  undefined, 59
    8977                      .dwcfi  undefined, 60
    8978                      .dwcfi  undefined, 61
    8979                      .dwcfi  undefined, 62
    8980                      .dwcfi  undefined, 63
    8981                      .dwcfi  undefined, 64
    8982                      .dwcfi  undefined, 65
    8983                      .dwcfi  undefined, 66
    8984                      .dwcfi  undefined, 67
    8985                      .dwcfi  undefined, 68
    8986                      .dwcfi  undefined, 69
    8987                      .dwcfi  undefined, 70
    8988                      .dwcfi  undefined, 71
    8989                      .dwcfi  undefined, 72
    8990                      .dwcfi  undefined, 73
    8991                      .dwcfi  undefined, 74
    8992                      .dwcfi  undefined, 75
    8993                      .dwcfi  undefined, 76
    8994                      .dwcfi  undefined, 77
    8995                      .dwcfi  undefined, 78
    8996                      .dwcfi  undefined, 79
    8997                      .dwcfi  undefined, 80
    8998                      .dwcfi  undefined, 81
    8999                      .dwcfi  undefined, 82
    9000                      .dwcfi  undefined, 83
    9001                      .dwcfi  undefined, 84
    9002                      .dwcfi  undefined, 85
    9003                      .dwcfi  undefined, 86
    9004                      .dwcfi  undefined, 87
    9005                      .dwcfi  undefined, 88
    9006                      .dwcfi  undefined, 89
    9007                      .dwcfi  undefined, 90
    9008                      .dwcfi  undefined, 91
TMS320C55x Assembler PC v4.4.1 Sat Sep 29 23:08:40 2018

Tools Copyright (c) 1996-2012 Texas Instruments Incorporated
csl_usb_dma_example.asm                                              PAGE  202

    9009                      .dwendentry
    9010              
    9011              ;***************************************************************
    9012              ;* DWARF REGISTER MAP                                          *
    9013              ;***************************************************************
    9014              
    9015              $C$DW$857       .dwtag  DW_TAG_TI_assign_register, DW_AT_name("AC0")
    9016                      .dwattr $C$DW$857, DW_AT_location[DW_OP_reg0]
    9017              $C$DW$858       .dwtag  DW_TAG_TI_assign_register, DW_AT_name("AC0")
    9018                      .dwattr $C$DW$858, DW_AT_location[DW_OP_reg1]
    9019              $C$DW$859       .dwtag  DW_TAG_TI_assign_register, DW_AT_name("AC0_G")
    9020                      .dwattr $C$DW$859, DW_AT_location[DW_OP_reg2]
    9021              $C$DW$860       .dwtag  DW_TAG_TI_assign_register, DW_AT_name("AC1")
    9022                      .dwattr $C$DW$860, DW_AT_location[DW_OP_reg3]
    9023              $C$DW$861       .dwtag  DW_TAG_TI_assign_register, DW_AT_name("AC1")
    9024                      .dwattr $C$DW$861, DW_AT_location[DW_OP_reg4]
    9025              $C$DW$862       .dwtag  DW_TAG_TI_assign_register, DW_AT_name("AC1_G")
    9026                      .dwattr $C$DW$862, DW_AT_location[DW_OP_reg5]
    9027              $C$DW$863       .dwtag  DW_TAG_TI_assign_register, DW_AT_name("AC2")
    9028                      .dwattr $C$DW$863, DW_AT_location[DW_OP_reg6]
    9029              $C$DW$864       .dwtag  DW_TAG_TI_assign_register, DW_AT_name("AC2")
    9030                      .dwattr $C$DW$864, DW_AT_location[DW_OP_reg7]
    9031              $C$DW$865       .dwtag  DW_TAG_TI_assign_register, DW_AT_name("AC2_G")
    9032                      .dwattr $C$DW$865, DW_AT_location[DW_OP_reg8]
    9033              $C$DW$866       .dwtag  DW_TAG_TI_assign_register, DW_AT_name("AC3")
    9034                      .dwattr $C$DW$866, DW_AT_location[DW_OP_reg9]
    9035              $C$DW$867       .dwtag  DW_TAG_TI_assign_register, DW_AT_name("AC3")
    9036                      .dwattr $C$DW$867, DW_AT_location[DW_OP_reg10]
    9037              $C$DW$868       .dwtag  DW_TAG_TI_assign_register, DW_AT_name("AC3_G")
    9038                      .dwattr $C$DW$868, DW_AT_location[DW_OP_reg11]
    9039              $C$DW$869       .dwtag  DW_TAG_TI_assign_register, DW_AT_name("T0")
    9040                      .dwattr $C$DW$869, DW_AT_location[DW_OP_reg12]
    9041              $C$DW$870       .dwtag  DW_TAG_TI_assign_register, DW_AT_name("T1")
    9042                      .dwattr $C$DW$870, DW_AT_location[DW_OP_reg13]
    9043              $C$DW$871       .dwtag  DW_TAG_TI_assign_register, DW_AT_name("T2")
    9044                      .dwattr $C$DW$871, DW_AT_location[DW_OP_reg14]
    9045              $C$DW$872       .dwtag  DW_TAG_TI_assign_register, DW_AT_name("T3")
    9046                      .dwattr $C$DW$872, DW_AT_location[DW_OP_reg15]
    9047              $C$DW$873       .dwtag  DW_TAG_TI_assign_register, DW_AT_name("AR0")
    9048                      .dwattr $C$DW$873, DW_AT_location[DW_OP_reg16]
    9049              $C$DW$874       .dwtag  DW_TAG_TI_assign_register, DW_AT_name("XAR0")
    9050                      .dwattr $C$DW$874, DW_AT_location[DW_OP_reg17]
    9051              $C$DW$875       .dwtag  DW_TAG_TI_assign_register, DW_AT_name("AR1")
    9052                      .dwattr $C$DW$875, DW_AT_location[DW_OP_reg18]
    9053              $C$DW$876       .dwtag  DW_TAG_TI_assign_register, DW_AT_name("XAR1")
    9054                      .dwattr $C$DW$876, DW_AT_location[DW_OP_reg19]
    9055              $C$DW$877       .dwtag  DW_TAG_TI_assign_register, DW_AT_name("AR2")
    9056                      .dwattr $C$DW$877, DW_AT_location[DW_OP_reg20]
    9057              $C$DW$878       .dwtag  DW_TAG_TI_assign_register, DW_AT_name("XAR2")
    9058                      .dwattr $C$DW$878, DW_AT_location[DW_OP_reg21]
    9059              $C$DW$879       .dwtag  DW_TAG_TI_assign_register, DW_AT_name("AR3")
    9060                      .dwattr $C$DW$879, DW_AT_location[DW_OP_reg22]
    9061              $C$DW$880       .dwtag  DW_TAG_TI_assign_register, DW_AT_name("XAR3")
    9062                      .dwattr $C$DW$880, DW_AT_location[DW_OP_reg23]
    9063              $C$DW$881       .dwtag  DW_TAG_TI_assign_register, DW_AT_name("AR4")
TMS320C55x Assembler PC v4.4.1 Sat Sep 29 23:08:40 2018

Tools Copyright (c) 1996-2012 Texas Instruments Incorporated
csl_usb_dma_example.asm                                              PAGE  203

    9064                      .dwattr $C$DW$881, DW_AT_location[DW_OP_reg24]
    9065              $C$DW$882       .dwtag  DW_TAG_TI_assign_register, DW_AT_name("XAR4")
    9066                      .dwattr $C$DW$882, DW_AT_location[DW_OP_reg25]
    9067              $C$DW$883       .dwtag  DW_TAG_TI_assign_register, DW_AT_name("AR5")
    9068                      .dwattr $C$DW$883, DW_AT_location[DW_OP_reg26]
    9069              $C$DW$884       .dwtag  DW_TAG_TI_assign_register, DW_AT_name("XAR5")
    9070                      .dwattr $C$DW$884, DW_AT_location[DW_OP_reg27]
    9071              $C$DW$885       .dwtag  DW_TAG_TI_assign_register, DW_AT_name("AR6")
    9072                      .dwattr $C$DW$885, DW_AT_location[DW_OP_reg28]
    9073              $C$DW$886       .dwtag  DW_TAG_TI_assign_register, DW_AT_name("XAR6")
    9074                      .dwattr $C$DW$886, DW_AT_location[DW_OP_reg29]
    9075              $C$DW$887       .dwtag  DW_TAG_TI_assign_register, DW_AT_name("AR7")
    9076                      .dwattr $C$DW$887, DW_AT_location[DW_OP_reg30]
    9077              $C$DW$888       .dwtag  DW_TAG_TI_assign_register, DW_AT_name("XAR7")
    9078                      .dwattr $C$DW$888, DW_AT_location[DW_OP_reg31]
    9079              $C$DW$889       .dwtag  DW_TAG_TI_assign_register, DW_AT_name("FP")
    9080                      .dwattr $C$DW$889, DW_AT_location[DW_OP_regx 0x20]
    9081              $C$DW$890       .dwtag  DW_TAG_TI_assign_register, DW_AT_name("XFP")
    9082                      .dwattr $C$DW$890, DW_AT_location[DW_OP_regx 0x21]
    9083              $C$DW$891       .dwtag  DW_TAG_TI_assign_register, DW_AT_name("PC")
    9084                      .dwattr $C$DW$891, DW_AT_location[DW_OP_regx 0x22]
    9085              $C$DW$892       .dwtag  DW_TAG_TI_assign_register, DW_AT_name("SP")
    9086                      .dwattr $C$DW$892, DW_AT_location[DW_OP_regx 0x23]
    9087              $C$DW$893       .dwtag  DW_TAG_TI_assign_register, DW_AT_name("XSP")
    9088                      .dwattr $C$DW$893, DW_AT_location[DW_OP_regx 0x24]
    9089              $C$DW$894       .dwtag  DW_TAG_TI_assign_register, DW_AT_name("BKC")
    9090                      .dwattr $C$DW$894, DW_AT_location[DW_OP_regx 0x25]
    9091              $C$DW$895       .dwtag  DW_TAG_TI_assign_register, DW_AT_name("BK03")
    9092                      .dwattr $C$DW$895, DW_AT_location[DW_OP_regx 0x26]
    9093              $C$DW$896       .dwtag  DW_TAG_TI_assign_register, DW_AT_name("BK47")
    9094                      .dwattr $C$DW$896, DW_AT_location[DW_OP_regx 0x27]
    9095              $C$DW$897       .dwtag  DW_TAG_TI_assign_register, DW_AT_name("ST0")
    9096                      .dwattr $C$DW$897, DW_AT_location[DW_OP_regx 0x28]
    9097              $C$DW$898       .dwtag  DW_TAG_TI_assign_register, DW_AT_name("ST1")
    9098                      .dwattr $C$DW$898, DW_AT_location[DW_OP_regx 0x29]
    9099              $C$DW$899       .dwtag  DW_TAG_TI_assign_register, DW_AT_name("ST2")
    9100                      .dwattr $C$DW$899, DW_AT_location[DW_OP_regx 0x2a]
    9101              $C$DW$900       .dwtag  DW_TAG_TI_assign_register, DW_AT_name("ST3")
    9102                      .dwattr $C$DW$900, DW_AT_location[DW_OP_regx 0x2b]
    9103              $C$DW$901       .dwtag  DW_TAG_TI_assign_register, DW_AT_name("MDP")
    9104                      .dwattr $C$DW$901, DW_AT_location[DW_OP_regx 0x2c]
    9105              $C$DW$902       .dwtag  DW_TAG_TI_assign_register, DW_AT_name("MDP05")
    9106                      .dwattr $C$DW$902, DW_AT_location[DW_OP_regx 0x2d]
    9107              $C$DW$903       .dwtag  DW_TAG_TI_assign_register, DW_AT_name("MDP67")
    9108                      .dwattr $C$DW$903, DW_AT_location[DW_OP_regx 0x2e]
    9109              $C$DW$904       .dwtag  DW_TAG_TI_assign_register, DW_AT_name("BRC0")
    9110                      .dwattr $C$DW$904, DW_AT_location[DW_OP_regx 0x2f]
    9111              $C$DW$905       .dwtag  DW_TAG_TI_assign_register, DW_AT_name("RSA0")
    9112                      .dwattr $C$DW$905, DW_AT_location[DW_OP_regx 0x30]
    9113              $C$DW$906       .dwtag  DW_TAG_TI_assign_register, DW_AT_name("RSA0_H")
    9114                      .dwattr $C$DW$906, DW_AT_location[DW_OP_regx 0x31]
    9115              $C$DW$907       .dwtag  DW_TAG_TI_assign_register, DW_AT_name("REA0")
    9116                      .dwattr $C$DW$907, DW_AT_location[DW_OP_regx 0x32]
    9117              $C$DW$908       .dwtag  DW_TAG_TI_assign_register, DW_AT_name("REA0_H")
    9118                      .dwattr $C$DW$908, DW_AT_location[DW_OP_regx 0x33]
TMS320C55x Assembler PC v4.4.1 Sat Sep 29 23:08:40 2018

Tools Copyright (c) 1996-2012 Texas Instruments Incorporated
csl_usb_dma_example.asm                                              PAGE  204

    9119              $C$DW$909       .dwtag  DW_TAG_TI_assign_register, DW_AT_name("BRS1")
    9120                      .dwattr $C$DW$909, DW_AT_location[DW_OP_regx 0x34]
    9121              $C$DW$910       .dwtag  DW_TAG_TI_assign_register, DW_AT_name("BRC1")
    9122                      .dwattr $C$DW$910, DW_AT_location[DW_OP_regx 0x35]
    9123              $C$DW$911       .dwtag  DW_TAG_TI_assign_register, DW_AT_name("RSA1")
    9124                      .dwattr $C$DW$911, DW_AT_location[DW_OP_regx 0x36]
    9125              $C$DW$912       .dwtag  DW_TAG_TI_assign_register, DW_AT_name("RSA1_H")
    9126                      .dwattr $C$DW$912, DW_AT_location[DW_OP_regx 0x37]
    9127              $C$DW$913       .dwtag  DW_TAG_TI_assign_register, DW_AT_name("REA1")
    9128                      .dwattr $C$DW$913, DW_AT_location[DW_OP_regx 0x38]
    9129              $C$DW$914       .dwtag  DW_TAG_TI_assign_register, DW_AT_name("REA1_H")
    9130                      .dwattr $C$DW$914, DW_AT_location[DW_OP_regx 0x39]
    9131              $C$DW$915       .dwtag  DW_TAG_TI_assign_register, DW_AT_name("CSR")
    9132                      .dwattr $C$DW$915, DW_AT_location[DW_OP_regx 0x3a]
    9133              $C$DW$916       .dwtag  DW_TAG_TI_assign_register, DW_AT_name("RPTC")
    9134                      .dwattr $C$DW$916, DW_AT_location[DW_OP_regx 0x3b]
    9135              $C$DW$917       .dwtag  DW_TAG_TI_assign_register, DW_AT_name("CDP")
    9136                      .dwattr $C$DW$917, DW_AT_location[DW_OP_regx 0x3c]
    9137              $C$DW$918       .dwtag  DW_TAG_TI_assign_register, DW_AT_name("XCDP")
    9138                      .dwattr $C$DW$918, DW_AT_location[DW_OP_regx 0x3d]
    9139              $C$DW$919       .dwtag  DW_TAG_TI_assign_register, DW_AT_name("TRN0")
    9140                      .dwattr $C$DW$919, DW_AT_location[DW_OP_regx 0x3e]
    9141              $C$DW$920       .dwtag  DW_TAG_TI_assign_register, DW_AT_name("TRN1")
    9142                      .dwattr $C$DW$920, DW_AT_location[DW_OP_regx 0x3f]
    9143              $C$DW$921       .dwtag  DW_TAG_TI_assign_register, DW_AT_name("BSA01")
    9144                      .dwattr $C$DW$921, DW_AT_location[DW_OP_regx 0x40]
    9145              $C$DW$922       .dwtag  DW_TAG_TI_assign_register, DW_AT_name("BSA23")
    9146                      .dwattr $C$DW$922, DW_AT_location[DW_OP_regx 0x41]
    9147              $C$DW$923       .dwtag  DW_TAG_TI_assign_register, DW_AT_name("BSA45")
    9148                      .dwattr $C$DW$923, DW_AT_location[DW_OP_regx 0x42]
    9149              $C$DW$924       .dwtag  DW_TAG_TI_assign_register, DW_AT_name("BSA67")
    9150                      .dwattr $C$DW$924, DW_AT_location[DW_OP_regx 0x43]
    9151              $C$DW$925       .dwtag  DW_TAG_TI_assign_register, DW_AT_name("BSAC")
    9152                      .dwattr $C$DW$925, DW_AT_location[DW_OP_regx 0x44]
    9153              $C$DW$926       .dwtag  DW_TAG_TI_assign_register, DW_AT_name("CARRY")
    9154                      .dwattr $C$DW$926, DW_AT_location[DW_OP_regx 0x45]
    9155              $C$DW$927       .dwtag  DW_TAG_TI_assign_register, DW_AT_name("TC1")
    9156                      .dwattr $C$DW$927, DW_AT_location[DW_OP_regx 0x46]
    9157              $C$DW$928       .dwtag  DW_TAG_TI_assign_register, DW_AT_name("TC2")
    9158                      .dwattr $C$DW$928, DW_AT_location[DW_OP_regx 0x47]
    9159              $C$DW$929       .dwtag  DW_TAG_TI_assign_register, DW_AT_name("M40")
    9160                      .dwattr $C$DW$929, DW_AT_location[DW_OP_regx 0x48]
    9161              $C$DW$930       .dwtag  DW_TAG_TI_assign_register, DW_AT_name("SXMD")
    9162                      .dwattr $C$DW$930, DW_AT_location[DW_OP_regx 0x49]
    9163              $C$DW$931       .dwtag  DW_TAG_TI_assign_register, DW_AT_name("ARMS")
    9164                      .dwattr $C$DW$931, DW_AT_location[DW_OP_regx 0x4a]
    9165              $C$DW$932       .dwtag  DW_TAG_TI_assign_register, DW_AT_name("C54CM")
    9166                      .dwattr $C$DW$932, DW_AT_location[DW_OP_regx 0x4b]
    9167              $C$DW$933       .dwtag  DW_TAG_TI_assign_register, DW_AT_name("SATA")
    9168                      .dwattr $C$DW$933, DW_AT_location[DW_OP_regx 0x4c]
    9169              $C$DW$934       .dwtag  DW_TAG_TI_assign_register, DW_AT_name("SATD")
    9170                      .dwattr $C$DW$934, DW_AT_location[DW_OP_regx 0x4d]
    9171              $C$DW$935       .dwtag  DW_TAG_TI_assign_register, DW_AT_name("RDM")
    9172                      .dwattr $C$DW$935, DW_AT_location[DW_OP_regx 0x4e]
    9173              $C$DW$936       .dwtag  DW_TAG_TI_assign_register, DW_AT_name("FRCT")
TMS320C55x Assembler PC v4.4.1 Sat Sep 29 23:08:40 2018

Tools Copyright (c) 1996-2012 Texas Instruments Incorporated
csl_usb_dma_example.asm                                              PAGE  205

    9174                      .dwattr $C$DW$936, DW_AT_location[DW_OP_regx 0x4f]
    9175              $C$DW$937       .dwtag  DW_TAG_TI_assign_register, DW_AT_name("SMUL")
    9176                      .dwattr $C$DW$937, DW_AT_location[DW_OP_regx 0x50]
    9177              $C$DW$938       .dwtag  DW_TAG_TI_assign_register, DW_AT_name("INTM")
    9178                      .dwattr $C$DW$938, DW_AT_location[DW_OP_regx 0x51]
    9179              $C$DW$939       .dwtag  DW_TAG_TI_assign_register, DW_AT_name("AR0LC")
    9180                      .dwattr $C$DW$939, DW_AT_location[DW_OP_regx 0x52]
    9181              $C$DW$940       .dwtag  DW_TAG_TI_assign_register, DW_AT_name("AR1LC")
    9182                      .dwattr $C$DW$940, DW_AT_location[DW_OP_regx 0x53]
    9183              $C$DW$941       .dwtag  DW_TAG_TI_assign_register, DW_AT_name("AR2LC")
    9184                      .dwattr $C$DW$941, DW_AT_location[DW_OP_regx 0x54]
    9185              $C$DW$942       .dwtag  DW_TAG_TI_assign_register, DW_AT_name("AR3LC")
    9186                      .dwattr $C$DW$942, DW_AT_location[DW_OP_regx 0x55]
    9187              $C$DW$943       .dwtag  DW_TAG_TI_assign_register, DW_AT_name("AR4LC")
    9188                      .dwattr $C$DW$943, DW_AT_location[DW_OP_regx 0x56]
    9189              $C$DW$944       .dwtag  DW_TAG_TI_assign_register, DW_AT_name("AR5LC")
    9190                      .dwattr $C$DW$944, DW_AT_location[DW_OP_regx 0x57]
    9191              $C$DW$945       .dwtag  DW_TAG_TI_assign_register, DW_AT_name("AR6LC")
    9192                      .dwattr $C$DW$945, DW_AT_location[DW_OP_regx 0x58]
    9193              $C$DW$946       .dwtag  DW_TAG_TI_assign_register, DW_AT_name("AR7LC")
    9194                      .dwattr $C$DW$946, DW_AT_location[DW_OP_regx 0x59]
    9195              $C$DW$947       .dwtag  DW_TAG_TI_assign_register, DW_AT_name("CDPLC")
    9196                      .dwattr $C$DW$947, DW_AT_location[DW_OP_regx 0x5a]
    9197              $C$DW$948       .dwtag  DW_TAG_TI_assign_register, DW_AT_name("CIE_RETA")
    9198                      .dwattr $C$DW$948, DW_AT_location[DW_OP_regx 0x5b]
    9199                      .dwendtag $C$DW$CU
    9200              
    9200              
    9200              

No Assembly Errors, No Assembly Warnings
