TMS320C55x Assembler PC v4.4.1 Sat Sep 29 23:08:40 2018

Tools Copyright (c) 1996-2012 Texas Instruments Incorporated
csl_usb_dma_example.asm                                              PAGE    1

    9200              ; Temporary Registers Used: None
       1              ;*******************************************************************************
       2              ;* TMS320C55x C/C++ Codegen                                          PC v4.4.1 *
       3              ;* Date/Time created: Sat Sep 29 23:08:37 2018                                 *
       4              ;*******************************************************************************
       5                      .compiler_opts --hll_source=on --mem_model:code=flat --mem_model:data=large --object_format=coff --si
       6                      .mmregs
       7                      .cpl_on
       8                      .arms_on
       9                      .c54cm_off
      10                      .asg AR6, FP
      11                      .asg XAR6, XFP
      12                      .asg DPH, MDP
      13                      .model call=c55_std
      14                      .model mem=large
      15                      .noremark 5002  ; code respects overwrite rules
      16              ;*******************************************************************************
      17              ;* GLOBAL FILE PARAMETERS                                                      *
      18              ;*                                                                             *
      19              ;*   Architecture       : TMS320C55x                                           *
      20              ;*   Optimizing for     : Speed                                                *
      21              ;*   Memory             : Large Model (23-Bit Data Pointers)                   *
      22              ;*   Calls              : Normal Library ASM calls                             *
      23              ;*   Debug Info         : Standard TI Debug Information                        *
      24              ;*******************************************************************************
      25              
      26              $C$DW$CU        .dwtag  DW_TAG_compile_unit
      27                      .dwattr $C$DW$CU, DW_AT_name("../c5535_bsl_revc/ezdsp5535_v1/c55xx_csl/ccs_v4.0_examples/usb/CSL_USB_
      28                      .dwattr $C$DW$CU, DW_AT_producer("TMS320C55x C/C++ Codegen PC v4.4.1 Copyright (c) 1996-2012 Texas In
      29                      .dwattr $C$DW$CU, DW_AT_TI_version(0x01)
      30                      .dwattr $C$DW$CU, DW_AT_comp_dir("F:\eZdsp_DBG\tmp1\c55x-sim2\foo\Debug")
      31              ;******************************************************************************
      32              ;* CINIT RECORDS                                                              *
      33              ;******************************************************************************
      34 000000               .sect   ".cinit"
      35                      .align  1
      36 000000 0009          .field          $C$IR_1,16
      37 000001 0000-         .field          _deviceDesc+0,24
         000002 0000 
      38 000002 0000          .field          0,8
      39 000003 0112          .field  274,16                  ; _deviceDesc[0] @ 0
      40 000004 0200          .field  512,16                  ; _deviceDesc[1] @ 16
      41 000005 0000          .field  0,16                    ; _deviceDesc[2] @ 32
      42 000006 4000          .field  16384,16                        ; _deviceDesc[3] @ 48
      43 000007 0451          .field  1105,16                 ; _deviceDesc[4] @ 64
      44 000008 9010          .field  36880,16                        ; _deviceDesc[5] @ 80
      45 000009 0100          .field  256,16                  ; _deviceDesc[6] @ 96
      46 00000a 0201          .field  513,16                  ; _deviceDesc[7] @ 112
      47 00000b 0103          .field  259,16                  ; _deviceDesc[8] @ 128
      48              $C$IR_1:        .set    9
      49              
      50 00000c               .sect   ".cinit"
      51                      .align  1
      52 00000c 0025          .field          $C$IR_2,16
      53 00000d 0000-         .field          _cfgDesc+0,24
TMS320C55x Assembler PC v4.4.1 Sat Sep 29 23:08:40 2018

Tools Copyright (c) 1996-2012 Texas Instruments Incorporated
csl_usb_dma_example.asm                                              PAGE    2

         00000e 0900 
      54 00000e 0900          .field          0,8
      55 00000f 0209          .field  521,16                  ; _cfgDesc[0] @ 0
      56 000010 003C          .field  60,16                   ; _cfgDesc[1] @ 16
      57 000011 0101          .field  257,16                  ; _cfgDesc[2] @ 32
      58 000012 C001          .field  49153,16                        ; _cfgDesc[3] @ 48
      59 000013 0928          .field  2344,16                 ; _cfgDesc[4] @ 64
      60 000014 0004          .field  4,16                    ; _cfgDesc[5] @ 80
      61 000015 0600          .field  1536,16                 ; _cfgDesc[6] @ 96
      62 000016 0000          .field  0,16                    ; _cfgDesc[7] @ 112
      63 000017 0000          .field  0,16                    ; _cfgDesc[8] @ 128
      64 000018 0507          .field  1287,16                 ; _cfgDesc[9] @ 144
      65 000019 0281          .field  641,16                  ; _cfgDesc[10] @ 160
      66 00001a 0040          .field  64,16                   ; _cfgDesc[11] @ 176
      67 00001b 0700          .field  1792,16                 ; _cfgDesc[12] @ 192
      68 00001c 0105          .field  261,16                  ; _cfgDesc[13] @ 208
      69 00001d 4002          .field  16386,16                        ; _cfgDesc[14] @ 224
      70 00001e 0000          .field  0,16                    ; _cfgDesc[15] @ 240
      71 00001f 0507          .field  1287,16                 ; _cfgDesc[16] @ 256
      72 000020 0282          .field  642,16                  ; _cfgDesc[17] @ 272
      73 000021 0040          .field  64,16                   ; _cfgDesc[18] @ 288
      74 000022 0700          .field  1792,16                 ; _cfgDesc[19] @ 304
      75 000023 0205          .field  517,16                  ; _cfgDesc[20] @ 320
      76 000024 4002          .field  16386,16                        ; _cfgDesc[21] @ 336
      77 000025 0000          .field  0,16                    ; _cfgDesc[22] @ 352
      78 000026 0507          .field  1287,16                 ; _cfgDesc[23] @ 368
      79 000027 0283          .field  643,16                  ; _cfgDesc[24] @ 384
      80 000028 0040          .field  64,16                   ; _cfgDesc[25] @ 400
      81 000029 0700          .field  1792,16                 ; _cfgDesc[26] @ 416
      82 00002a 0305          .field  773,16                  ; _cfgDesc[27] @ 432
      83 00002b 4002          .field  16386,16                        ; _cfgDesc[28] @ 448
      84 00002c 0000          .field  0,16                    ; _cfgDesc[29] @ 464
      85 00002d 0507          .field  1287,16                 ; _cfgDesc[30] @ 480
      86 00002e 0284          .field  644,16                  ; _cfgDesc[31] @ 496
      87 00002f 0040          .field  64,16                   ; _cfgDesc[32] @ 512
      88 000030 0700          .field  1792,16                 ; _cfgDesc[33] @ 528
      89 000031 0405          .field  1029,16                 ; _cfgDesc[34] @ 544
      90 000032 4002          .field  16386,16                        ; _cfgDesc[35] @ 560
      91 000033 0000          .field  0,16                    ; _cfgDesc[36] @ 576
      92              $C$IR_2:        .set    37
      93              
      94 000034               .sect   ".cinit"
      95                      .align  1
      96 000034 0002          .field          $C$IR_3,16
      97 000035 0000-         .field          _strDesc+0,24
         000036 3100 
      98 000036 3100          .field          0,8
      99 000037 0304          .field  772,16                  ; _strDesc[0][0] @ 0
     100 000038 0409          .field  1033,16                 ; _strDesc[0][1] @ 16
     101              $C$IR_3:        .set    2
     102              
     103 000039               .sect   ".cinit"
     104                      .align  1
     105 000039 002E          .field          $C$IR_4,16
     106 00003a 0000-         .field          _strDesc+20,24
TMS320C55x Assembler PC v4.4.1 Sat Sep 29 23:08:40 2018

Tools Copyright (c) 1996-2012 Texas Instruments Incorporated
csl_usb_dma_example.asm                                              PAGE    3

         00003b 4500 
     107 00003b 4500          .field          0,8
     108 00003c 0324          .field  804,16                  ; _strDesc[1][0] @ 320
     109 00003d 0045          .field  69,16                   ; _strDesc[1][1] @ 336
     110 00003e 0054          .field  84,16                   ; _strDesc[1][2] @ 352
     111 00003f 0041          .field  65,16                   ; _strDesc[1][3] @ 368
     112 000040 0058          .field  88,16                   ; _strDesc[1][4] @ 384
     113 000041 0020          .field  32,16                   ; _strDesc[1][5] @ 400
     114 000042 0053          .field  83,16                   ; _strDesc[1][6] @ 416
     115 000043 004E          .field  78,16                   ; _strDesc[1][7] @ 432
     116 000044 0049          .field  73,16                   ; _strDesc[1][8] @ 448
     117 000045 0054          .field  84,16                   ; _strDesc[1][9] @ 464
     118 000046 0053          .field  83,16                   ; _strDesc[1][10] @ 480
     119 000047 0055          .field  85,16                   ; _strDesc[1][11] @ 496
     120 000048 0052          .field  82,16                   ; _strDesc[1][12] @ 512
     121 000049 0045          .field  69,16                   ; _strDesc[1][13] @ 528
     122 00004a 004D          .field  77,16                   ; _strDesc[1][14] @ 544
     123 00004b 0054          .field  84,16                   ; _strDesc[1][15] @ 560
     124 00004c 004E          .field  78,16                   ; _strDesc[1][16] @ 576
     125 00004d 0053          .field  83,16                   ; _strDesc[1][17] @ 592
     126 00004e               .space  32
     127 000050 030C          .field  780,16                  ; _strDesc[2][0] @ 640
     128 000051 0043          .field  67,16                   ; _strDesc[2][1] @ 656
     129 000052 0035          .field  53,16                   ; _strDesc[2][2] @ 672
     130 000053 0035          .field  53,16                   ; _strDesc[2][3] @ 688
     131 000054 0031          .field  49,16                   ; _strDesc[2][4] @ 704
     132 000055 0035          .field  53,16                   ; _strDesc[2][5] @ 720
     133 000056               .space  224
     134 000064 030C          .field  780,16                  ; _strDesc[3][0] @ 960
     135 000065 0030          .field  48,16                   ; _strDesc[3][1] @ 976
     136 000066 0030          .field  48,16                   ; _strDesc[3][2] @ 992
     137 000067 0030          .field  48,16                   ; _strDesc[3][3] @ 1008
     138 000068 0030          .field  48,16                   ; _strDesc[3][4] @ 1024
     139 000069 0031          .field  49,16                   ; _strDesc[3][5] @ 1040
     140              $C$IR_4:        .set    46
     141              
     142 00006a               .sect   ".cinit"
     143                      .align  1
     144 00006a 0001          .field          1,16
     145 00006b 0000-         .field          _queuePend0+0,24
         00006c 8100 
     146 00006c 8100          .field          0,8
     147 00006d 0000          .field  0,16                    ; _queuePend0 @ 0
     148              
     149 00006e               .sect   ".cinit"
     150                      .align  1
     151 00006e 0001          .field          1,16
     152 00006f 0000-         .field          _queuePend1+0,24
         000070 8200 
     153 000070 8200          .field          0,8
     154 000071 0000          .field  0,16                    ; _queuePend1 @ 0
     155              
     156 000072               .sect   ".cinit"
     157                      .align  1
     158 000072 0001          .field          1,16
TMS320C55x Assembler PC v4.4.1 Sat Sep 29 23:08:40 2018

Tools Copyright (c) 1996-2012 Texas Instruments Incorporated
csl_usb_dma_example.asm                                              PAGE    4

     159 000073 0000-         .field          _stopRunning+0,24
         000074 8E00 
     160 000074 8E00          .field          0,8
     161 000075 0000          .field  0,16                    ; _stopRunning @ 0
     162              
     163 000076               .sect   ".cinit"
     164                      .align  1
     165 000076 0001          .field          1,16
     166 000077 0000-         .field          _usbDevDisconnect+0,24
         000078 8F00 
     167 000078 8F00          .field          0,8
     168 000079 0001          .field  1,16                    ; _usbDevDisconnect @ 0
     169              
     170 00007a               .sect   ".cinit"
     171                      .align  1
     172 00007a 0002          .field          2,16
     173 00007b 0001-         .field          _pContext+0,24
         00007c 0C00 
     174 00007c 0C00          .field          0,8
     175 00007d 0000!         .field  _gUsbContext,32         ; _pContext @ 0
         00007e 0000 
     176              
     177 00007f               .sect   ".cinit"
     178                      .align  1
     179 00007f 0001          .field          1,16
     180 000080 0001-         .field          _PaSs_StAtE+0,24
         000081 0F00 
     181 000081 0F00          .field          0,8
     182 000082 0001          .field  1,16                    ; _PaSs_StAtE @ 0
     183              
     184 000083               .sect   ".cinit"
     185                      .align  1
     186 000083 0001          .field          1,16
     187 000084 0001-         .field          _PaSs+0,24
         000085 1000 
     188 000085 1000          .field          0,8
     189 000086 0000          .field  0,16                    ; _PaSs @ 0
     190              
     191              
     192              $C$DW$1 .dwtag  DW_TAG_subprogram, DW_AT_name("memcpy")
     193                      .dwattr $C$DW$1, DW_AT_TI_symbol_name("_memcpy")
     194                      .dwattr $C$DW$1, DW_AT_type(*$C$DW$T$3)
     195                      .dwattr $C$DW$1, DW_AT_declaration
     196                      .dwattr $C$DW$1, DW_AT_external
     197              $C$DW$2 .dwtag  DW_TAG_formal_parameter
     198                      .dwattr $C$DW$2, DW_AT_type(*$C$DW$T$3)
     199              $C$DW$3 .dwtag  DW_TAG_formal_parameter
     200                      .dwattr $C$DW$3, DW_AT_type(*$C$DW$T$174)
     201              $C$DW$4 .dwtag  DW_TAG_formal_parameter
     202                      .dwattr $C$DW$4, DW_AT_type(*$C$DW$T$11)
     203                      .dwendtag $C$DW$1
     204              
     205              
     206              $C$DW$5 .dwtag  DW_TAG_subprogram, DW_AT_name("printf")
     207                      .dwattr $C$DW$5, DW_AT_TI_symbol_name("_printf")
TMS320C55x Assembler PC v4.4.1 Sat Sep 29 23:08:40 2018

Tools Copyright (c) 1996-2012 Texas Instruments Incorporated
csl_usb_dma_example.asm                                              PAGE    5

     208                      .dwattr $C$DW$5, DW_AT_type(*$C$DW$T$10)
     209                      .dwattr $C$DW$5, DW_AT_declaration
     210                      .dwattr $C$DW$5, DW_AT_external
     211              $C$DW$6 .dwtag  DW_TAG_formal_parameter
     212                      .dwattr $C$DW$6, DW_AT_type(*$C$DW$T$239)
     213              $C$DW$7 .dwtag  DW_TAG_unspecified_parameters
     214                      .dwendtag $C$DW$5
     215              
     216              
     217              $C$DW$8 .dwtag  DW_TAG_subprogram, DW_AT_name("USB_init")
     218                      .dwattr $C$DW$8, DW_AT_TI_symbol_name("_USB_init")
     219                      .dwattr $C$DW$8, DW_AT_type(*$C$DW$T$80)
     220                      .dwattr $C$DW$8, DW_AT_declaration
     221                      .dwattr $C$DW$8, DW_AT_external
     222              $C$DW$9 .dwtag  DW_TAG_formal_parameter
     223                      .dwattr $C$DW$9, DW_AT_type(*$C$DW$T$161)
     224                      .dwendtag $C$DW$8
     225              
     226              
     227              $C$DW$10        .dwtag  DW_TAG_subprogram, DW_AT_name("USB_resetDev")
     228                      .dwattr $C$DW$10, DW_AT_TI_symbol_name("_USB_resetDev")
     229                      .dwattr $C$DW$10, DW_AT_type(*$C$DW$T$80)
     230                      .dwattr $C$DW$10, DW_AT_declaration
     231                      .dwattr $C$DW$10, DW_AT_external
     232              $C$DW$11        .dwtag  DW_TAG_formal_parameter
     233                      .dwattr $C$DW$11, DW_AT_type(*$C$DW$T$73)
     234                      .dwendtag $C$DW$10
     235              
     236              
     237              $C$DW$12        .dwtag  DW_TAG_subprogram, DW_AT_name("USB_initEndptObj")
     238                      .dwattr $C$DW$12, DW_AT_TI_symbol_name("_USB_initEndptObj")
     239                      .dwattr $C$DW$12, DW_AT_type(*$C$DW$T$80)
     240                      .dwattr $C$DW$12, DW_AT_declaration
     241                      .dwattr $C$DW$12, DW_AT_external
     242              $C$DW$13        .dwtag  DW_TAG_formal_parameter
     243                      .dwattr $C$DW$13, DW_AT_type(*$C$DW$T$73)
     244              $C$DW$14        .dwtag  DW_TAG_formal_parameter
     245                      .dwattr $C$DW$14, DW_AT_type(*$C$DW$T$106)
     246              $C$DW$15        .dwtag  DW_TAG_formal_parameter
     247                      .dwattr $C$DW$15, DW_AT_type(*$C$DW$T$112)
     248              $C$DW$16        .dwtag  DW_TAG_formal_parameter
     249                      .dwattr $C$DW$16, DW_AT_type(*$C$DW$T$114)
     250              $C$DW$17        .dwtag  DW_TAG_formal_parameter
     251                      .dwattr $C$DW$17, DW_AT_type(*$C$DW$T$19)
     252              $C$DW$18        .dwtag  DW_TAG_formal_parameter
     253                      .dwattr $C$DW$18, DW_AT_type(*$C$DW$T$19)
     254              $C$DW$19        .dwtag  DW_TAG_formal_parameter
     255                      .dwattr $C$DW$19, DW_AT_type(*$C$DW$T$117)
     256                      .dwendtag $C$DW$12
     257              
     258              
     259              $C$DW$20        .dwtag  DW_TAG_subprogram, DW_AT_name("USB_getSetupPacket")
     260                      .dwattr $C$DW$20, DW_AT_TI_symbol_name("_USB_getSetupPacket")
     261                      .dwattr $C$DW$20, DW_AT_type(*$C$DW$T$80)
     262                      .dwattr $C$DW$20, DW_AT_declaration
TMS320C55x Assembler PC v4.4.1 Sat Sep 29 23:08:40 2018

Tools Copyright (c) 1996-2012 Texas Instruments Incorporated
csl_usb_dma_example.asm                                              PAGE    6

     263                      .dwattr $C$DW$20, DW_AT_external
     264              $C$DW$21        .dwtag  DW_TAG_formal_parameter
     265                      .dwattr $C$DW$21, DW_AT_type(*$C$DW$T$73)
     266              $C$DW$22        .dwtag  DW_TAG_formal_parameter
     267                      .dwattr $C$DW$22, DW_AT_type(*$C$DW$T$171)
     268              $C$DW$23        .dwtag  DW_TAG_formal_parameter
     269                      .dwattr $C$DW$23, DW_AT_type(*$C$DW$T$86)
     270                      .dwendtag $C$DW$20
     271              
     272              
     273              $C$DW$24        .dwtag  DW_TAG_subprogram, DW_AT_name("USB_postTransaction")
     274                      .dwattr $C$DW$24, DW_AT_TI_symbol_name("_USB_postTransaction")
     275                      .dwattr $C$DW$24, DW_AT_type(*$C$DW$T$80)
     276                      .dwattr $C$DW$24, DW_AT_declaration
     277                      .dwattr $C$DW$24, DW_AT_external
     278              $C$DW$25        .dwtag  DW_TAG_formal_parameter
     279                      .dwattr $C$DW$25, DW_AT_type(*$C$DW$T$106)
     280              $C$DW$26        .dwtag  DW_TAG_formal_parameter
     281                      .dwattr $C$DW$26, DW_AT_type(*$C$DW$T$19)
     282              $C$DW$27        .dwtag  DW_TAG_formal_parameter
     283                      .dwattr $C$DW$27, DW_AT_type(*$C$DW$T$3)
     284              $C$DW$28        .dwtag  DW_TAG_formal_parameter
     285                      .dwattr $C$DW$28, DW_AT_type(*$C$DW$T$128)
     286                      .dwendtag $C$DW$24
     287              
     288              
     289              $C$DW$29        .dwtag  DW_TAG_subprogram, DW_AT_name("USB_stallEndpt")
     290                      .dwattr $C$DW$29, DW_AT_TI_symbol_name("_USB_stallEndpt")
     291                      .dwattr $C$DW$29, DW_AT_type(*$C$DW$T$80)
     292                      .dwattr $C$DW$29, DW_AT_declaration
     293                      .dwattr $C$DW$29, DW_AT_external
     294              $C$DW$30        .dwtag  DW_TAG_formal_parameter
     295                      .dwattr $C$DW$30, DW_AT_type(*$C$DW$T$106)
     296                      .dwendtag $C$DW$29
     297              
     298              
     299              $C$DW$31        .dwtag  DW_TAG_subprogram, DW_AT_name("USB_clearEndptStall")
     300                      .dwattr $C$DW$31, DW_AT_TI_symbol_name("_USB_clearEndptStall")
     301                      .dwattr $C$DW$31, DW_AT_type(*$C$DW$T$80)
     302                      .dwattr $C$DW$31, DW_AT_declaration
     303                      .dwattr $C$DW$31, DW_AT_external
     304              $C$DW$32        .dwtag  DW_TAG_formal_parameter
     305                      .dwattr $C$DW$32, DW_AT_type(*$C$DW$T$106)
     306                      .dwendtag $C$DW$31
     307              
     308              
     309              $C$DW$33        .dwtag  DW_TAG_subprogram, DW_AT_name("USB_getEndptStall")
     310                      .dwattr $C$DW$33, DW_AT_TI_symbol_name("_USB_getEndptStall")
     311                      .dwattr $C$DW$33, DW_AT_type(*$C$DW$T$92)
     312                      .dwattr $C$DW$33, DW_AT_declaration
     313                      .dwattr $C$DW$33, DW_AT_external
     314              $C$DW$34        .dwtag  DW_TAG_formal_parameter
     315                      .dwattr $C$DW$34, DW_AT_type(*$C$DW$T$106)
     316              $C$DW$35        .dwtag  DW_TAG_formal_parameter
     317                      .dwattr $C$DW$35, DW_AT_type(*$C$DW$T$130)
TMS320C55x Assembler PC v4.4.1 Sat Sep 29 23:08:40 2018

Tools Copyright (c) 1996-2012 Texas Instruments Incorporated
csl_usb_dma_example.asm                                              PAGE    7

     318                      .dwendtag $C$DW$33
     319              
     320              
     321              $C$DW$36        .dwtag  DW_TAG_subprogram, DW_AT_name("USB_epNumToHandle")
     322                      .dwattr $C$DW$36, DW_AT_TI_symbol_name("_USB_epNumToHandle")
     323                      .dwattr $C$DW$36, DW_AT_type(*$C$DW$T$106)
     324                      .dwattr $C$DW$36, DW_AT_declaration
     325                      .dwattr $C$DW$36, DW_AT_external
     326              $C$DW$37        .dwtag  DW_TAG_formal_parameter
     327                      .dwattr $C$DW$37, DW_AT_type(*$C$DW$T$73)
     328              $C$DW$38        .dwtag  DW_TAG_formal_parameter
     329                      .dwattr $C$DW$38, DW_AT_type(*$C$DW$T$19)
     330                      .dwendtag $C$DW$36
     331              
     332              
     333              $C$DW$39        .dwtag  DW_TAG_subprogram, DW_AT_name("USB_connectDev")
     334                      .dwattr $C$DW$39, DW_AT_TI_symbol_name("_USB_connectDev")
     335                      .dwattr $C$DW$39, DW_AT_type(*$C$DW$T$80)
     336                      .dwattr $C$DW$39, DW_AT_declaration
     337                      .dwattr $C$DW$39, DW_AT_external
     338              $C$DW$40        .dwtag  DW_TAG_formal_parameter
     339                      .dwattr $C$DW$40, DW_AT_type(*$C$DW$T$73)
     340                      .dwendtag $C$DW$39
     341              
     342              
     343              $C$DW$41        .dwtag  DW_TAG_subprogram, DW_AT_name("USB_disconnectDev")
     344                      .dwattr $C$DW$41, DW_AT_TI_symbol_name("_USB_disconnectDev")
     345                      .dwattr $C$DW$41, DW_AT_type(*$C$DW$T$80)
     346                      .dwattr $C$DW$41, DW_AT_declaration
     347                      .dwattr $C$DW$41, DW_AT_external
     348              $C$DW$42        .dwtag  DW_TAG_formal_parameter
     349                      .dwattr $C$DW$42, DW_AT_type(*$C$DW$T$73)
     350                      .dwendtag $C$DW$41
     351              
     352              
     353              $C$DW$43        .dwtag  DW_TAG_subprogram, DW_AT_name("USB_setRemoteWakeup")
     354                      .dwattr $C$DW$43, DW_AT_TI_symbol_name("_USB_setRemoteWakeup")
     355                      .dwattr $C$DW$43, DW_AT_type(*$C$DW$T$80)
     356                      .dwattr $C$DW$43, DW_AT_declaration
     357                      .dwattr $C$DW$43, DW_AT_external
     358              $C$DW$44        .dwtag  DW_TAG_formal_parameter
     359                      .dwattr $C$DW$44, DW_AT_type(*$C$DW$T$73)
     360              $C$DW$45        .dwtag  DW_TAG_formal_parameter
     361                      .dwattr $C$DW$45, DW_AT_type(*$C$DW$T$92)
     362                      .dwendtag $C$DW$43
     363              
     364              
     365              $C$DW$46        .dwtag  DW_TAG_subprogram, DW_AT_name("USB_getRemoteWakeupStat")
     366                      .dwattr $C$DW$46, DW_AT_TI_symbol_name("_USB_getRemoteWakeupStat")
     367                      .dwattr $C$DW$46, DW_AT_type(*$C$DW$T$92)
     368                      .dwattr $C$DW$46, DW_AT_declaration
     369                      .dwattr $C$DW$46, DW_AT_external
     370              $C$DW$47        .dwtag  DW_TAG_formal_parameter
     371                      .dwattr $C$DW$47, DW_AT_type(*$C$DW$T$73)
     372                      .dwendtag $C$DW$46
TMS320C55x Assembler PC v4.4.1 Sat Sep 29 23:08:40 2018

Tools Copyright (c) 1996-2012 Texas Instruments Incorporated
csl_usb_dma_example.asm                                              PAGE    8

     373              
     374              
     375              $C$DW$48        .dwtag  DW_TAG_subprogram, DW_AT_name("USB_issueRemoteWakeup")
     376                      .dwattr $C$DW$48, DW_AT_TI_symbol_name("_USB_issueRemoteWakeup")
     377                      .dwattr $C$DW$48, DW_AT_type(*$C$DW$T$80)
     378                      .dwattr $C$DW$48, DW_AT_declaration
     379                      .dwattr $C$DW$48, DW_AT_external
     380              $C$DW$49        .dwtag  DW_TAG_formal_parameter
     381                      .dwattr $C$DW$49, DW_AT_type(*$C$DW$T$73)
     382              $C$DW$50        .dwtag  DW_TAG_formal_parameter
     383                      .dwattr $C$DW$50, DW_AT_type(*$C$DW$T$86)
     384                      .dwendtag $C$DW$48
     385              
     386              
     387              $C$DW$51        .dwtag  DW_TAG_subprogram, DW_AT_name("USB_setDevAddr")
     388                      .dwattr $C$DW$51, DW_AT_TI_symbol_name("_USB_setDevAddr")
     389                      .dwattr $C$DW$51, DW_AT_type(*$C$DW$T$80)
     390                      .dwattr $C$DW$51, DW_AT_declaration
     391                      .dwattr $C$DW$51, DW_AT_external
     392              $C$DW$52        .dwtag  DW_TAG_formal_parameter
     393                      .dwattr $C$DW$52, DW_AT_type(*$C$DW$T$73)
     394              $C$DW$53        .dwtag  DW_TAG_formal_parameter
     395                      .dwattr $C$DW$53, DW_AT_type(*$C$DW$T$19)
     396                      .dwendtag $C$DW$51
     397              
     398              
     399              $C$DW$54        .dwtag  DW_TAG_subprogram, DW_AT_name("USB_suspendDevice")
     400                      .dwattr $C$DW$54, DW_AT_TI_symbol_name("_USB_suspendDevice")
     401                      .dwattr $C$DW$54, DW_AT_type(*$C$DW$T$80)
     402                      .dwattr $C$DW$54, DW_AT_declaration
     403                      .dwattr $C$DW$54, DW_AT_external
     404              $C$DW$55        .dwtag  DW_TAG_formal_parameter
     405                      .dwattr $C$DW$55, DW_AT_type(*$C$DW$T$73)
     406                      .dwendtag $C$DW$54
     407              
     408              
     409              $C$DW$56        .dwtag  DW_TAG_subprogram, DW_AT_name("USB_setParams")
     410                      .dwattr $C$DW$56, DW_AT_TI_symbol_name("_USB_setParams")
     411                      .dwattr $C$DW$56, DW_AT_type(*$C$DW$T$80)
     412                      .dwattr $C$DW$56, DW_AT_declaration
     413                      .dwattr $C$DW$56, DW_AT_external
     414              $C$DW$57        .dwtag  DW_TAG_formal_parameter
     415                      .dwattr $C$DW$57, DW_AT_type(*$C$DW$T$73)
     416              $C$DW$58        .dwtag  DW_TAG_formal_parameter
     417                      .dwattr $C$DW$58, DW_AT_type(*$C$DW$T$167)
     418              $C$DW$59        .dwtag  DW_TAG_formal_parameter
     419                      .dwattr $C$DW$59, DW_AT_type(*$C$DW$T$19)
     420                      .dwendtag $C$DW$56
     421              
     422              
     423              $C$DW$60        .dwtag  DW_TAG_subprogram, DW_AT_name("IRQ_plug")
     424                      .dwattr $C$DW$60, DW_AT_TI_symbol_name("_IRQ_plug")
     425                      .dwattr $C$DW$60, DW_AT_type(*$C$DW$T$10)
     426                      .dwattr $C$DW$60, DW_AT_declaration
     427                      .dwattr $C$DW$60, DW_AT_external
TMS320C55x Assembler PC v4.4.1 Sat Sep 29 23:08:40 2018

Tools Copyright (c) 1996-2012 Texas Instruments Incorporated
csl_usb_dma_example.asm                                              PAGE    9

     428              $C$DW$61        .dwtag  DW_TAG_formal_parameter
     429                      .dwattr $C$DW$61, DW_AT_type(*$C$DW$T$19)
     430              $C$DW$62        .dwtag  DW_TAG_formal_parameter
     431                      .dwattr $C$DW$62, DW_AT_type(*$C$DW$T$69)
     432                      .dwendtag $C$DW$60
     433              
     434              
     435              $C$DW$63        .dwtag  DW_TAG_subprogram, DW_AT_name("IRQ_enable")
     436                      .dwattr $C$DW$63, DW_AT_TI_symbol_name("_IRQ_enable")
     437                      .dwattr $C$DW$63, DW_AT_type(*$C$DW$T$10)
     438                      .dwattr $C$DW$63, DW_AT_declaration
     439                      .dwattr $C$DW$63, DW_AT_external
     440              $C$DW$64        .dwtag  DW_TAG_formal_parameter
     441                      .dwattr $C$DW$64, DW_AT_type(*$C$DW$T$19)
     442                      .dwendtag $C$DW$63
     443              
     444              
     445              $C$DW$65        .dwtag  DW_TAG_subprogram, DW_AT_name("IRQ_setVecs")
     446                      .dwattr $C$DW$65, DW_AT_TI_symbol_name("_IRQ_setVecs")
     447                      .dwattr $C$DW$65, DW_AT_type(*$C$DW$T$80)
     448                      .dwattr $C$DW$65, DW_AT_declaration
     449                      .dwattr $C$DW$65, DW_AT_external
     450              $C$DW$66        .dwtag  DW_TAG_formal_parameter
     451                      .dwattr $C$DW$66, DW_AT_type(*$C$DW$T$70)
     452                      .dwendtag $C$DW$65
     453              
     454              
     455              $C$DW$67        .dwtag  DW_TAG_subprogram, DW_AT_name("IRQ_globalDisable")
     456                      .dwattr $C$DW$67, DW_AT_TI_symbol_name("_IRQ_globalDisable")
     457                      .dwattr $C$DW$67, DW_AT_type(*$C$DW$T$86)
     458                      .dwattr $C$DW$67, DW_AT_declaration
     459                      .dwattr $C$DW$67, DW_AT_external
     460              
     461              $C$DW$68        .dwtag  DW_TAG_subprogram, DW_AT_name("IRQ_globalEnable")
     462                      .dwattr $C$DW$68, DW_AT_TI_symbol_name("_IRQ_globalEnable")
     463                      .dwattr $C$DW$68, DW_AT_type(*$C$DW$T$86)
     464                      .dwattr $C$DW$68, DW_AT_declaration
     465                      .dwattr $C$DW$68, DW_AT_external
     466              
     467              $C$DW$69        .dwtag  DW_TAG_subprogram, DW_AT_name("IRQ_globalRestore")
     468                      .dwattr $C$DW$69, DW_AT_TI_symbol_name("_IRQ_globalRestore")
     469                      .dwattr $C$DW$69, DW_AT_declaration
     470                      .dwattr $C$DW$69, DW_AT_external
     471              $C$DW$70        .dwtag  DW_TAG_formal_parameter
     472                      .dwattr $C$DW$70, DW_AT_type(*$C$DW$T$86)
     473                      .dwendtag $C$DW$69
     474              
     475              
     476              $C$DW$71        .dwtag  DW_TAG_subprogram, DW_AT_name("VECSTART")
     477                      .dwattr $C$DW$71, DW_AT_TI_symbol_name("_VECSTART")
     478                      .dwattr $C$DW$71, DW_AT_declaration
     479                      .dwattr $C$DW$71, DW_AT_external
     480              $C$DW$72        .dwtag  DW_TAG_variable, DW_AT_name("usbRegisters")
     481                      .dwattr $C$DW$72, DW_AT_TI_symbol_name("_usbRegisters")
     482                      .dwattr $C$DW$72, DW_AT_type(*$C$DW$T$154)
TMS320C55x Assembler PC v4.4.1 Sat Sep 29 23:08:40 2018

Tools Copyright (c) 1996-2012 Texas Instruments Incorporated
csl_usb_dma_example.asm                                              PAGE   10

     483                      .dwattr $C$DW$72, DW_AT_declaration
     484                      .dwattr $C$DW$72, DW_AT_external
     485              $C$DW$73        .dwtag  DW_TAG_variable, DW_AT_name("sysCtrlRegs")
     486                      .dwattr $C$DW$73, DW_AT_TI_symbol_name("_sysCtrlRegs")
     487                      .dwattr $C$DW$73, DW_AT_type(*$C$DW$T$158)
     488                      .dwattr $C$DW$73, DW_AT_declaration
     489                      .dwattr $C$DW$73, DW_AT_external
     490              $C$DW$74        .dwtag  DW_TAG_variable, DW_AT_name("gUsbContext")
     491                      .dwattr $C$DW$74, DW_AT_TI_symbol_name("_gUsbContext")
     492                      .dwattr $C$DW$74, DW_AT_type(*$C$DW$T$162)
     493                      .dwattr $C$DW$74, DW_AT_declaration
     494                      .dwattr $C$DW$74, DW_AT_external
     495                      .global _linking_ram0
     496 000000       _linking_ram0:  .usect  ".buffer2",512,0,2
     497              $C$DW$75        .dwtag  DW_TAG_variable, DW_AT_name("linking_ram0")
     498                      .dwattr $C$DW$75, DW_AT_TI_symbol_name("_linking_ram0")
     499                      .dwattr $C$DW$75, DW_AT_location[DW_OP_addr _linking_ram0]
     500                      .dwattr $C$DW$75, DW_AT_type(*$C$DW$T$247)
     501                      .dwattr $C$DW$75, DW_AT_external
     502                      .global _hpdtx
     503 000000       _hpdtx: .usect  ".buffer1",16,0,2
     504              $C$DW$76        .dwtag  DW_TAG_variable, DW_AT_name("hpdtx")
     505                      .dwattr $C$DW$76, DW_AT_TI_symbol_name("_hpdtx")
     506                      .dwattr $C$DW$76, DW_AT_location[DW_OP_addr _hpdtx]
     507                      .dwattr $C$DW$76, DW_AT_type(*$C$DW$T$169)
     508                      .dwattr $C$DW$76, DW_AT_external
     509                      .global _hpdrx
     510 000010       _hpdrx: .usect  ".buffer1",16,0,2
     511              $C$DW$77        .dwtag  DW_TAG_variable, DW_AT_name("hpdrx")
     512                      .dwattr $C$DW$77, DW_AT_TI_symbol_name("_hpdrx")
     513                      .dwattr $C$DW$77, DW_AT_location[DW_OP_addr _hpdrx]
     514                      .dwattr $C$DW$77, DW_AT_type(*$C$DW$T$169)
     515                      .dwattr $C$DW$77, DW_AT_external
     516                      .global _usbDataBuffer
     517 000000       _usbDataBuffer: .usect  ".buffer3",512,0,0
     518              $C$DW$78        .dwtag  DW_TAG_variable, DW_AT_name("usbDataBuffer")
     519                      .dwattr $C$DW$78, DW_AT_TI_symbol_name("_usbDataBuffer")
     520                      .dwattr $C$DW$78, DW_AT_location[DW_OP_addr _usbDataBuffer]
     521                      .dwattr $C$DW$78, DW_AT_type(*$C$DW$T$229)
     522                      .dwattr $C$DW$78, DW_AT_external
     523                      .global _deviceDesc
     524 000000               .bss    _deviceDesc,9,0,0
     525              $C$DW$79        .dwtag  DW_TAG_variable, DW_AT_name("deviceDesc")
     526                      .dwattr $C$DW$79, DW_AT_TI_symbol_name("_deviceDesc")
     527                      .dwattr $C$DW$79, DW_AT_location[DW_OP_addr _deviceDesc]
     528                      .dwattr $C$DW$79, DW_AT_type(*$C$DW$T$230)
     529                      .dwattr $C$DW$79, DW_AT_external
     530                      .global _cfgDesc
     531 000009               .bss    _cfgDesc,40,0,0
     532              $C$DW$80        .dwtag  DW_TAG_variable, DW_AT_name("cfgDesc")
     533                      .dwattr $C$DW$80, DW_AT_TI_symbol_name("_cfgDesc")
     534                      .dwattr $C$DW$80, DW_AT_location[DW_OP_addr _cfgDesc]
     535                      .dwattr $C$DW$80, DW_AT_type(*$C$DW$T$231)
     536                      .dwattr $C$DW$80, DW_AT_external
     537                      .global _strDesc
TMS320C55x Assembler PC v4.4.1 Sat Sep 29 23:08:40 2018

Tools Copyright (c) 1996-2012 Texas Instruments Incorporated
csl_usb_dma_example.asm                                              PAGE   11

     538 000031               .bss    _strDesc,80,0,0
     539              $C$DW$81        .dwtag  DW_TAG_variable, DW_AT_name("strDesc")
     540                      .dwattr $C$DW$81, DW_AT_TI_symbol_name("_strDesc")
     541                      .dwattr $C$DW$81, DW_AT_location[DW_OP_addr _strDesc]
     542                      .dwattr $C$DW$81, DW_AT_type(*$C$DW$T$233)
     543                      .dwattr $C$DW$81, DW_AT_external
     544                      .global _queuePend0
     545 000081               .bss    _queuePend0,1,0,0
     546              $C$DW$82        .dwtag  DW_TAG_variable, DW_AT_name("queuePend0")
     547                      .dwattr $C$DW$82, DW_AT_TI_symbol_name("_queuePend0")
     548                      .dwattr $C$DW$82, DW_AT_location[DW_OP_addr _queuePend0]
     549                      .dwattr $C$DW$82, DW_AT_type(*$C$DW$T$19)
     550                      .dwattr $C$DW$82, DW_AT_external
     551                      .global _queuePend1
     552 000082               .bss    _queuePend1,1,0,0
     553              $C$DW$83        .dwtag  DW_TAG_variable, DW_AT_name("queuePend1")
     554                      .dwattr $C$DW$83, DW_AT_TI_symbol_name("_queuePend1")
     555                      .dwattr $C$DW$83, DW_AT_location[DW_OP_addr _queuePend1]
     556                      .dwattr $C$DW$83, DW_AT_type(*$C$DW$T$19)
     557                      .dwattr $C$DW$83, DW_AT_external
     558                      .global _deviceDescPtr
     559 000084               .bss    _deviceDescPtr,2,0,2
     560              $C$DW$84        .dwtag  DW_TAG_variable, DW_AT_name("deviceDescPtr")
     561                      .dwattr $C$DW$84, DW_AT_TI_symbol_name("_deviceDescPtr")
     562                      .dwattr $C$DW$84, DW_AT_location[DW_OP_addr _deviceDescPtr]
     563                      .dwattr $C$DW$84, DW_AT_type(*$C$DW$T$102)
     564                      .dwattr $C$DW$84, DW_AT_external
     565                      .global _cfgDescPtr
     566 000086               .bss    _cfgDescPtr,2,0,2
     567              $C$DW$85        .dwtag  DW_TAG_variable, DW_AT_name("cfgDescPtr")
     568                      .dwattr $C$DW$85, DW_AT_TI_symbol_name("_cfgDescPtr")
     569                      .dwattr $C$DW$85, DW_AT_location[DW_OP_addr _cfgDescPtr]
     570                      .dwattr $C$DW$85, DW_AT_type(*$C$DW$T$102)
     571                      .dwattr $C$DW$85, DW_AT_external
     572                      .global _strDescPtr
     573 000088               .bss    _strDescPtr,2,0,2
     574              $C$DW$86        .dwtag  DW_TAG_variable, DW_AT_name("strDescPtr")
     575                      .dwattr $C$DW$86, DW_AT_TI_symbol_name("_strDescPtr")
     576                      .dwattr $C$DW$86, DW_AT_location[DW_OP_addr _strDescPtr]
     577                      .dwattr $C$DW$86, DW_AT_type(*$C$DW$T$102)
     578                      .dwattr $C$DW$86, DW_AT_external
     579                      .global _saveIndex
     580 000083               .bss    _saveIndex,1,0,0
     581              $C$DW$87        .dwtag  DW_TAG_variable, DW_AT_name("saveIndex")
     582                      .dwattr $C$DW$87, DW_AT_TI_symbol_name("_saveIndex")
     583                      .dwattr $C$DW$87, DW_AT_location[DW_OP_addr _saveIndex]
     584                      .dwattr $C$DW$87, DW_AT_type(*$C$DW$T$19)
     585                      .dwattr $C$DW$87, DW_AT_external
     586                      .global _eventMask
     587 00008a               .bss    _eventMask,1,0,0
     588              $C$DW$88        .dwtag  DW_TAG_variable, DW_AT_name("eventMask")
     589                      .dwattr $C$DW$88, DW_AT_TI_symbol_name("_eventMask")
     590                      .dwattr $C$DW$88, DW_AT_location[DW_OP_addr _eventMask]
     591                      .dwattr $C$DW$88, DW_AT_type(*$C$DW$T$19)
     592                      .dwattr $C$DW$88, DW_AT_external
TMS320C55x Assembler PC v4.4.1 Sat Sep 29 23:08:40 2018

Tools Copyright (c) 1996-2012 Texas Instruments Incorporated
csl_usb_dma_example.asm                                              PAGE   12

     593                      .global _queRegVal
     594 00008b               .bss    _queRegVal,1,0,0
     595              $C$DW$89        .dwtag  DW_TAG_variable, DW_AT_name("queRegVal")
     596                      .dwattr $C$DW$89, DW_AT_TI_symbol_name("_queRegVal")
     597                      .dwattr $C$DW$89, DW_AT_location[DW_OP_addr _queRegVal]
     598                      .dwattr $C$DW$89, DW_AT_type(*$C$DW$T$19)
     599                      .dwattr $C$DW$89, DW_AT_external
     600                      .global _devAddr
     601 00008c               .bss    _devAddr,1,0,0
     602              $C$DW$90        .dwtag  DW_TAG_variable, DW_AT_name("devAddr")
     603                      .dwattr $C$DW$90, DW_AT_TI_symbol_name("_devAddr")
     604                      .dwattr $C$DW$90, DW_AT_location[DW_OP_addr _devAddr]
     605                      .dwattr $C$DW$90, DW_AT_type(*$C$DW$T$19)
     606                      .dwattr $C$DW$90, DW_AT_external
     607                      .global _endpt
     608 00008d               .bss    _endpt,1,0,0
     609              $C$DW$91        .dwtag  DW_TAG_variable, DW_AT_name("endpt")
     610                      .dwattr $C$DW$91, DW_AT_TI_symbol_name("_endpt")
     611                      .dwattr $C$DW$91, DW_AT_location[DW_OP_addr _endpt]
     612                      .dwattr $C$DW$91, DW_AT_type(*$C$DW$T$19)
     613                      .dwattr $C$DW$91, DW_AT_external
     614                      .global _stopRunning
     615 00008e               .bss    _stopRunning,1,0,0
     616              $C$DW$92        .dwtag  DW_TAG_variable, DW_AT_name("stopRunning")
     617                      .dwattr $C$DW$92, DW_AT_TI_symbol_name("_stopRunning")
     618                      .dwattr $C$DW$92, DW_AT_location[DW_OP_addr _stopRunning]
     619                      .dwattr $C$DW$92, DW_AT_type(*$C$DW$T$235)
     620                      .dwattr $C$DW$92, DW_AT_external
     621                      .global _usbDevDisconnect
     622 00008f               .bss    _usbDevDisconnect,1,0,0
     623              $C$DW$93        .dwtag  DW_TAG_variable, DW_AT_name("usbDevDisconnect")
     624                      .dwattr $C$DW$93, DW_AT_TI_symbol_name("_usbDevDisconnect")
     625                      .dwattr $C$DW$93, DW_AT_location[DW_OP_addr _usbDevDisconnect]
     626                      .dwattr $C$DW$93, DW_AT_type(*$C$DW$T$86)
     627                      .dwattr $C$DW$93, DW_AT_external
     628                      .global _usbSetup
     629 000090               .bss    _usbSetup,6,0,0
     630              $C$DW$94        .dwtag  DW_TAG_variable, DW_AT_name("usbSetup")
     631                      .dwattr $C$DW$94, DW_AT_TI_symbol_name("_usbSetup")
     632                      .dwattr $C$DW$94, DW_AT_location[DW_OP_addr _usbSetup]
     633                      .dwattr $C$DW$94, DW_AT_type(*$C$DW$T$101)
     634                      .dwattr $C$DW$94, DW_AT_external
     635                      .global _config
     636 000096               .bss    _config,8,0,2
     637              $C$DW$95        .dwtag  DW_TAG_variable, DW_AT_name("config")
     638                      .dwattr $C$DW$95, DW_AT_TI_symbol_name("_config")
     639                      .dwattr $C$DW$95, DW_AT_location[DW_OP_addr _config]
     640                      .dwattr $C$DW$95, DW_AT_type(*$C$DW$T$159)
     641                      .dwattr $C$DW$95, DW_AT_external
     642                      .global _usbConfig
     643 00009e               .bss    _usbConfig,12,0,2
     644              $C$DW$96        .dwtag  DW_TAG_variable, DW_AT_name("usbConfig")
     645                      .dwattr $C$DW$96, DW_AT_TI_symbol_name("_usbConfig")
     646                      .dwattr $C$DW$96, DW_AT_location[DW_OP_addr _usbConfig]
     647                      .dwattr $C$DW$96, DW_AT_type(*$C$DW$T$160)
TMS320C55x Assembler PC v4.4.1 Sat Sep 29 23:08:40 2018

Tools Copyright (c) 1996-2012 Texas Instruments Incorporated
csl_usb_dma_example.asm                                              PAGE   13

     648                      .dwattr $C$DW$96, DW_AT_external
     649                      .global _hEpObjArray
     650 0000aa               .bss    _hEpObjArray,16,0,2
     651              $C$DW$97        .dwtag  DW_TAG_variable, DW_AT_name("hEpObjArray")
     652                      .dwattr $C$DW$97, DW_AT_TI_symbol_name("_hEpObjArray")
     653                      .dwattr $C$DW$97, DW_AT_location[DW_OP_addr _hEpObjArray]
     654                      .dwattr $C$DW$97, DW_AT_type(*$C$DW$T$107)
     655                      .dwattr $C$DW$97, DW_AT_external
     656                      .global _hEPx
     657 0000ba               .bss    _hEPx,2,0,2
     658              $C$DW$98        .dwtag  DW_TAG_variable, DW_AT_name("hEPx")
     659                      .dwattr $C$DW$98, DW_AT_TI_symbol_name("_hEPx")
     660                      .dwattr $C$DW$98, DW_AT_location[DW_OP_addr _hEPx]
     661                      .dwattr $C$DW$98, DW_AT_type(*$C$DW$T$106)
     662                      .dwattr $C$DW$98, DW_AT_external
     663                      .global _usbCtrlOutEpObj
     664 0000bc               .bss    _usbCtrlOutEpObj,20,0,2
     665              $C$DW$99        .dwtag  DW_TAG_variable, DW_AT_name("usbCtrlOutEpObj")
     666                      .dwattr $C$DW$99, DW_AT_TI_symbol_name("_usbCtrlOutEpObj")
     667                      .dwattr $C$DW$99, DW_AT_location[DW_OP_addr _usbCtrlOutEpObj]
     668                      .dwattr $C$DW$99, DW_AT_type(*$C$DW$T$104)
     669                      .dwattr $C$DW$99, DW_AT_external
     670                      .global _usbCtrlInEpObj
     671 0000d0               .bss    _usbCtrlInEpObj,20,0,2
     672              $C$DW$100       .dwtag  DW_TAG_variable, DW_AT_name("usbCtrlInEpObj")
     673                      .dwattr $C$DW$100, DW_AT_TI_symbol_name("_usbCtrlInEpObj")
     674                      .dwattr $C$DW$100, DW_AT_location[DW_OP_addr _usbCtrlInEpObj]
     675                      .dwattr $C$DW$100, DW_AT_type(*$C$DW$T$104)
     676                      .dwattr $C$DW$100, DW_AT_external
     677                      .global _usbBulkOutEpObj
     678 0000e4               .bss    _usbBulkOutEpObj,20,0,2
     679              $C$DW$101       .dwtag  DW_TAG_variable, DW_AT_name("usbBulkOutEpObj")
     680                      .dwattr $C$DW$101, DW_AT_TI_symbol_name("_usbBulkOutEpObj")
     681                      .dwattr $C$DW$101, DW_AT_location[DW_OP_addr _usbBulkOutEpObj]
     682                      .dwattr $C$DW$101, DW_AT_type(*$C$DW$T$104)
     683                      .dwattr $C$DW$101, DW_AT_external
     684                      .global _usbBulkInEpObj
     685 0000f8               .bss    _usbBulkInEpObj,20,0,2
     686              $C$DW$102       .dwtag  DW_TAG_variable, DW_AT_name("usbBulkInEpObj")
     687                      .dwattr $C$DW$102, DW_AT_TI_symbol_name("_usbBulkInEpObj")
     688                      .dwattr $C$DW$102, DW_AT_location[DW_OP_addr _usbBulkInEpObj]
     689                      .dwattr $C$DW$102, DW_AT_type(*$C$DW$T$104)
     690                      .dwattr $C$DW$102, DW_AT_external
     691                      .global _pContext
     692 00010c               .bss    _pContext,2,0,2
     693              $C$DW$103       .dwtag  DW_TAG_variable, DW_AT_name("pContext")
     694                      .dwattr $C$DW$103, DW_AT_TI_symbol_name("_pContext")
     695                      .dwattr $C$DW$103, DW_AT_location[DW_OP_addr _pContext]
     696                      .dwattr $C$DW$103, DW_AT_type(*$C$DW$T$164)
     697                      .dwattr $C$DW$103, DW_AT_external
     698                      .global _status
     699 00010e               .bss    _status,1,0,0
     700              $C$DW$104       .dwtag  DW_TAG_variable, DW_AT_name("status")
     701                      .dwattr $C$DW$104, DW_AT_TI_symbol_name("_status")
     702                      .dwattr $C$DW$104, DW_AT_location[DW_OP_addr _status]
TMS320C55x Assembler PC v4.4.1 Sat Sep 29 23:08:40 2018

Tools Copyright (c) 1996-2012 Texas Instruments Incorporated
csl_usb_dma_example.asm                                              PAGE   14

     703                      .dwattr $C$DW$104, DW_AT_type(*$C$DW$T$80)
     704                      .dwattr $C$DW$104, DW_AT_external
     705                      .global _PaSs_StAtE
     706 00010f               .bss    _PaSs_StAtE,1,0,0
     707              $C$DW$105       .dwtag  DW_TAG_variable, DW_AT_name("PaSs_StAtE")
     708                      .dwattr $C$DW$105, DW_AT_TI_symbol_name("_PaSs_StAtE")
     709                      .dwattr $C$DW$105, DW_AT_location[DW_OP_addr _PaSs_StAtE]
     710                      .dwattr $C$DW$105, DW_AT_type(*$C$DW$T$225)
     711                      .dwattr $C$DW$105, DW_AT_external
     712                      .global _PaSs
     713 000110               .bss    _PaSs,1,0,0
     714              $C$DW$106       .dwtag  DW_TAG_variable, DW_AT_name("PaSs")
     715                      .dwattr $C$DW$106, DW_AT_TI_symbol_name("_PaSs")
     716                      .dwattr $C$DW$106, DW_AT_location[DW_OP_addr _PaSs]
     717                      .dwattr $C$DW$106, DW_AT_type(*$C$DW$T$225)
     718                      .dwattr $C$DW$106, DW_AT_external
     719              ;       F:\t\cc5p5\ccsv5\tools\compiler\c5500_4.4.1\bin\acp55.exe -@f:\\AppData\\Local\\Temp\\0374012 
     720 000000               .sect   ".text"
     721                      .align 4
     722              
     723              $C$DW$107       .dwtag  DW_TAG_subprogram, DW_AT_name("USB_swapWords")
     724                      .dwattr $C$DW$107, DW_AT_low_pc(_USB_swapWords)
     725                      .dwattr $C$DW$107, DW_AT_high_pc(0x00)
     726                      .dwattr $C$DW$107, DW_AT_TI_symbol_name("_USB_swapWords")
     727                      .dwattr $C$DW$107, DW_AT_type(*$C$DW$T$80)
     728                      .dwattr $C$DW$107, DW_AT_TI_begin_file("F:/eZdsp_DBG/tmp1/c55x-sim2/foo/c5535_bsl_revc/ezdsp5535_v1/c
     729                      .dwattr $C$DW$107, DW_AT_TI_begin_line(0x53)
     730                      .dwattr $C$DW$107, DW_AT_TI_begin_column(0x0c)
     731                      .dwattr $C$DW$107, DW_AT_TI_max_frame_size(0x0a)
     732                      .dwpsn  file "F:/eZdsp_DBG/tmp1/c55x-sim2/foo/c5535_bsl_revc/ezdsp5535_v1/c55xx_csl/inc/csl_usbAux.h"
     733              
     734                      .dwfde $C$DW$CIE, _USB_swapWords
     735              $C$DW$108       .dwtag  DW_TAG_formal_parameter, DW_AT_name("dataBuffer")
     736                      .dwattr $C$DW$108, DW_AT_TI_symbol_name("_dataBuffer")
     737                      .dwattr $C$DW$108, DW_AT_type(*$C$DW$T$102)
     738                      .dwattr $C$DW$108, DW_AT_location[DW_OP_reg17]
     739              $C$DW$109       .dwtag  DW_TAG_formal_parameter, DW_AT_name("dataLength")
     740                      .dwattr $C$DW$109, DW_AT_TI_symbol_name("_dataLength")
     741                      .dwattr $C$DW$109, DW_AT_type(*$C$DW$T$70)
     742                      .dwattr $C$DW$109, DW_AT_location[DW_OP_reg0]
     743              ;*******************************************************************************
     744              ;* FUNCTION NAME: USB_swapWords                                                *
     745              ;*                                                                             *
     746              ;*   Function Uses Regs : AC0,AC0,AC1,AC1,T0,AR0,XAR0,AR1,AR2,XAR2,AR3,XAR3,SP,*
     747              ;*                        CARRY,TC1,M40,SATA,SATD,RDM,FRCT,SMUL                *
     748              ;*   Stack Frame        : Compact (No Frame Pointer, w/ debug)                 *
     749              ;*   Total Frame Size   : 10 words                                             *
     750              ;*                        (1 return address/alignment)                         *
     751              ;*                        (9 local values)                                     *
     752              ;*   Min System Stack   : 1 word                                               *
     753              ;*******************************************************************************
     754 000000       _USB_swapWords:
     755                      .dwcfi  cfa_offset, 1
     756                      .dwcfi  save_reg_to_mem, 91, -1
     757 000000 4EF7          AADD #-9, SP
TMS320C55x Assembler PC v4.4.1 Sat Sep 29 23:08:40 2018

Tools Copyright (c) 1996-2012 Texas Instruments Incorporated
csl_usb_dma_example.asm                                              PAGE   15

     758                      .dwcfi  cfa_offset, 10
     759              $C$DW$110       .dwtag  DW_TAG_variable, DW_AT_name("dataBuffer")
     760                      .dwattr $C$DW$110, DW_AT_TI_symbol_name("_dataBuffer")
     761                      .dwattr $C$DW$110, DW_AT_type(*$C$DW$T$102)
     762                      .dwattr $C$DW$110, DW_AT_location[DW_OP_bregx 0x24 0]
     763              $C$DW$111       .dwtag  DW_TAG_variable, DW_AT_name("dataLength")
     764                      .dwattr $C$DW$111, DW_AT_TI_symbol_name("_dataLength")
     765                      .dwattr $C$DW$111, DW_AT_type(*$C$DW$T$70)
     766                      .dwattr $C$DW$111, DW_AT_location[DW_OP_bregx 0x24 2]
     767              $C$DW$112       .dwtag  DW_TAG_variable, DW_AT_name("status")
     768                      .dwattr $C$DW$112, DW_AT_TI_symbol_name("_status")
     769                      .dwattr $C$DW$112, DW_AT_type(*$C$DW$T$80)
     770                      .dwattr $C$DW$112, DW_AT_location[DW_OP_bregx 0x24 4]
     771              $C$DW$113       .dwtag  DW_TAG_variable, DW_AT_name("looper")
     772                      .dwattr $C$DW$113, DW_AT_TI_symbol_name("_looper")
     773                      .dwattr $C$DW$113, DW_AT_type(*$C$DW$T$70)
     774                      .dwattr $C$DW$113, DW_AT_location[DW_OP_bregx 0x24 6]
     775              $C$DW$114       .dwtag  DW_TAG_variable, DW_AT_name("tempData")
     776                      .dwattr $C$DW$114, DW_AT_TI_symbol_name("_tempData")
     777                      .dwattr $C$DW$114, DW_AT_type(*$C$DW$T$19)
     778                      .dwattr $C$DW$114, DW_AT_location[DW_OP_bregx 0x24 8]
     779 000002 EB04          MOV AC0, dbl(*SP(#2)) ; |85| 
         000004 08   
     780 000005 EB00          MOV XAR0, dbl(*SP(#0))
         000007 85   
     781                      .dwpsn  file "F:/eZdsp_DBG/tmp1/c55x-sim2/foo/c5535_bsl_revc/ezdsp5535_v1/c55xx_csl/inc/csl_usbAux.h"
     782 000008 E608          MOV #0, *SP(#4) ; |90| 
         00000a 00   
     783                      .dwpsn  file "F:/eZdsp_DBG/tmp1/c55x-sim2/foo/c5535_bsl_revc/ezdsp5535_v1/c55xx_csl/inc/csl_usbAux.h"
     784 00000b ED00          MOV dbl(*SP(#0)), XAR3
         00000d BF   
     785 00000e 90B0          MOV XAR3, AC0
     786 000010 0400          BCC $C$L2,AC0 == #0 ; |93| 
         000012 53   
     787                                                      ; branchcc occurs ; |93| 
     788 000013 ED04          MOV dbl(*SP(#2)), AC0 ; |93| 
         000015 08   
     789 000016 0400          BCC $C$L2,AC0 == #0 ; |93| 
         000018 4D   
     790                                                      ; branchcc occurs ; |93| 
     791                      .dwpsn  file "F:/eZdsp_DBG/tmp1/c55x-sim2/foo/c5535_bsl_revc/ezdsp5535_v1/c55xx_csl/inc/csl_usbAux.h"
     792 000019 3C00          MOV #0, AC0 ; |96| 
     793 00001b EB0C          MOV AC0, dbl(*SP(#6)) ; |96| 
         00001d 08   
     794                      .dwpsn  file "F:/eZdsp_DBG/tmp1/c55x-sim2/foo/c5535_bsl_revc/ezdsp5535_v1/c55xx_csl/inc/csl_usbAux.h"
     795 00001e ED04          MOV dbl(*SP(#2)), AC0 ; |96| 
         000020 08   
     796              
     797 000024 5101          SFTL AC0, #-1 ; |96| 
     798 000021 ED0C  ||      MOV dbl(*SP(#6)), AC1 ; |96| 
         000023 18   
     799              
     800 000026 1218          CMPU AC1 >= AC0, TC1 ; |96| 
         000028 04   
     801 000029 0464          BCC $C$L3,TC1 ; |96| 
TMS320C55x Assembler PC v4.4.1 Sat Sep 29 23:08:40 2018

Tools Copyright (c) 1996-2012 Texas Instruments Incorporated
csl_usb_dma_example.asm                                              PAGE   16

         00002b 3D   
     802                                                      ; branchcc occurs ; |96| 
     803 00002c       $C$L1:    
     804 00002c       $C$DW$L$_USB_swapWords$4$B:
     805                      .dwpsn  file "F:/eZdsp_DBG/tmp1/c55x-sim2/foo/c5535_bsl_revc/ezdsp5535_v1/c55xx_csl/inc/csl_usbAux.h"
     806 00002c ED00          MOV dbl(*SP(#0)), XAR3
         00002e BF   
     807 00002f A963          MOV *AR3+, AR1 ; |98| 
     808 000031 EB00          MOV XAR3, dbl(*SP(#0))
         000033 B5   
     809 000034 C910          MOV AR1, *SP(#8) ; |98| 
     810                      .dwpsn  file "F:/eZdsp_DBG/tmp1/c55x-sim2/foo/c5535_bsl_revc/ezdsp5535_v1/c55xx_csl/inc/csl_usbAux.h"
     811 000036 ED00          MOV dbl(*SP(#0)), XAR3
         000038 BF   
     812 000039 A961          MOV *AR3, AR1 ; |99| 
     813 00003b C96D          MOV AR1, *AR3(#-1) ; |99| 
         00003d FFFF 
     814                      .dwpsn  file "F:/eZdsp_DBG/tmp1/c55x-sim2/foo/c5535_bsl_revc/ezdsp5535_v1/c55xx_csl/inc/csl_usbAux.h"
     815 00003f ED00          MOV dbl(*SP(#0)), XAR2
         000041 AF   
     816 000042 EC41          AMAR *AR2, XAR3
         000044 BE   
     817 000045 B463          AMAR *AR3+
     818 000047 EB00          MOV XAR3, dbl(*SP(#0))
         000049 B5   
     819 00004a A910          MOV *SP(#8), AR1 ; |100| 
     820 00004c C941          MOV AR1, *AR2 ; |100| 
     821                      .dwpsn  file "F:/eZdsp_DBG/tmp1/c55x-sim2/foo/c5535_bsl_revc/ezdsp5535_v1/c55xx_csl/inc/csl_usbAux.h"
     822 00004e ED0C          MOV dbl(*SP(#6)), AC0 ; |96| 
         000050 08   
     823 000051 4010          ADD #1, AC0 ; |96| 
     824 000053 EB0C          MOV AC0, dbl(*SP(#6)) ; |96| 
         000055 08   
     825                      .dwpsn  file "F:/eZdsp_DBG/tmp1/c55x-sim2/foo/c5535_bsl_revc/ezdsp5535_v1/c55xx_csl/inc/csl_usbAux.h"
     826 000056 ED04          MOV dbl(*SP(#2)), AC0 ; |96| 
         000058 08   
     827              
     828 00005c 5101          SFTL AC0, #-1 ; |96| 
     829 000059 ED0C  ||      MOV dbl(*SP(#6)), AC1 ; |96| 
         00005b 18   
     830              
     831 00005e 1214          CMPU AC1 < AC0, TC1 ; |96| 
         000060 04   
     832 000061 0464          BCC $C$L1,TC1 ; |96| 
         000063 C8   
     833                                                      ; branchcc occurs ; |96| 
     834 000064       $C$DW$L$_USB_swapWords$4$E:
     835                      .dwpsn  file "F:/eZdsp_DBG/tmp1/c55x-sim2/foo/c5535_bsl_revc/ezdsp5535_v1/c55xx_csl/inc/csl_usbAux.h"
     836 000064 4A03          B $C$L3   ; |102| 
     837                                                      ; branch occurs ; |102| 
     838 000066       $C$L2:    
     839                      .dwpsn  file "F:/eZdsp_DBG/tmp1/c55x-sim2/foo/c5535_bsl_revc/ezdsp5535_v1/c55xx_csl/inc/csl_usbAux.h"
     840 000066 E608          MOV #-6, *SP(#4) ; |105| 
         000068 FA   
     841 000069       $C$L3:    
TMS320C55x Assembler PC v4.4.1 Sat Sep 29 23:08:40 2018

Tools Copyright (c) 1996-2012 Texas Instruments Incorporated
csl_usb_dma_example.asm                                              PAGE   17

     842                      .dwpsn  file "F:/eZdsp_DBG/tmp1/c55x-sim2/foo/c5535_bsl_revc/ezdsp5535_v1/c55xx_csl/inc/csl_usbAux.h"
     843 000069 A408          MOV *SP(#4), T0 ; |108| 
     844                      .dwpsn  file "F:/eZdsp_DBG/tmp1/c55x-sim2/foo/c5535_bsl_revc/ezdsp5535_v1/c55xx_csl/inc/csl_usbAux.h"
     845 00006b 4E09          AADD #9, SP
     846                      .dwcfi  cfa_offset, 1
     847              $C$DW$115       .dwtag  DW_TAG_TI_branch
     848                      .dwattr $C$DW$115, DW_AT_low_pc(0x00)
     849                      .dwattr $C$DW$115, DW_AT_TI_return
     850 00006d 4804          RET
     851                                                      ; return occurs
     852              
     853              $C$DW$116       .dwtag  DW_TAG_TI_loop
     854                      .dwattr $C$DW$116, DW_AT_name("F:\eZdsp_DBG\tmp1\c55x-sim2\foo\Debug\csl_usb_dma_example.asm:$C$L1:1:
     855                      .dwattr $C$DW$116, DW_AT_TI_begin_file("F:/eZdsp_DBG/tmp1/c55x-sim2/foo/c5535_bsl_revc/ezdsp5535_v1/c
     856                      .dwattr $C$DW$116, DW_AT_TI_begin_line(0x60)
     857                      .dwattr $C$DW$116, DW_AT_TI_end_line(0x65)
     858              $C$DW$117       .dwtag  DW_TAG_TI_loop_range
     859                      .dwattr $C$DW$117, DW_AT_low_pc($C$DW$L$_USB_swapWords$4$B)
     860                      .dwattr $C$DW$117, DW_AT_high_pc($C$DW$L$_USB_swapWords$4$E)
     861                      .dwendtag $C$DW$116
     862              
     863                      .dwattr $C$DW$107, DW_AT_TI_end_file("F:/eZdsp_DBG/tmp1/c55x-sim2/foo/c5535_bsl_revc/ezdsp5535_v1/c55
     864                      .dwattr $C$DW$107, DW_AT_TI_end_line(0x6d)
     865                      .dwattr $C$DW$107, DW_AT_TI_end_column(0x01)
     866                      .dwendentry
     867                      .dwendtag $C$DW$107
     868              
     869 00006f               .sect   ".text"
     870                      .align 4
     871              
     872              $C$DW$118       .dwtag  DW_TAG_subprogram, DW_AT_name("USB_initDma")
     873                      .dwattr $C$DW$118, DW_AT_low_pc(_USB_initDma)
     874                      .dwattr $C$DW$118, DW_AT_high_pc(0x00)
     875                      .dwattr $C$DW$118, DW_AT_TI_symbol_name("_USB_initDma")
     876                      .dwattr $C$DW$118, DW_AT_TI_begin_file("F:/eZdsp_DBG/tmp1/c55x-sim2/foo/c5535_bsl_revc/ezdsp5535_v1/c
     877                      .dwattr $C$DW$118, DW_AT_TI_begin_line(0x95)
     878                      .dwattr $C$DW$118, DW_AT_TI_begin_column(0x06)
     879                      .dwattr $C$DW$118, DW_AT_TI_max_frame_size(0x02)
     880                      .dwpsn  file "F:/eZdsp_DBG/tmp1/c55x-sim2/foo/c5535_bsl_revc/ezdsp5535_v1/c55xx_csl/inc/csl_usbAux.h"
     881              
     882                      .dwfde $C$DW$CIE, _USB_initDma
     883              ;*******************************************************************************
     884              ;* FUNCTION NAME: USB_initDma                                                  *
     885              ;*                                                                             *
     886              ;*   Function Uses Regs : T0,AR3,SP,M40,SATA,SATD,RDM,FRCT,SMUL                *
     887              ;*   Stack Frame        : Compact (No Frame Pointer, w/ debug)                 *
     888              ;*   Total Frame Size   : 2 words                                              *
     889              ;*                        (1 return address/alignment)                         *
     890              ;*                        (1 local values)                                     *
     891              ;*   Min System Stack   : 1 word                                               *
     892              ;*******************************************************************************
     893 000070       _USB_initDma:
     894                      .dwcfi  cfa_offset, 1
     895                      .dwcfi  save_reg_to_mem, 91, -1
     896 000070 4EFF          AADD #-1, SP
TMS320C55x Assembler PC v4.4.1 Sat Sep 29 23:08:40 2018

Tools Copyright (c) 1996-2012 Texas Instruments Incorporated
csl_usb_dma_example.asm                                              PAGE   18

     897                      .dwcfi  cfa_offset, 2
     898              $C$DW$119       .dwtag  DW_TAG_variable, DW_AT_name("value")
     899                      .dwattr $C$DW$119, DW_AT_TI_symbol_name("_value")
     900                      .dwattr $C$DW$119, DW_AT_type(*$C$DW$T$86)
     901                      .dwattr $C$DW$119, DW_AT_location[DW_OP_bregx 0x24 0]
     902                      .dwpsn  file "F:/eZdsp_DBG/tmp1/c55x-sim2/foo/c5535_bsl_revc/ezdsp5535_v1/c55xx_csl/inc/csl_usbAux.h"
     903              $C$DW$120       .dwtag  DW_TAG_TI_branch
     904                      .dwattr $C$DW$120, DW_AT_low_pc(0x00)
     905                      .dwattr $C$DW$120, DW_AT_name("_IRQ_globalDisable")
     906                      .dwattr $C$DW$120, DW_AT_TI_call
     907 000072 6C00          CALL #_IRQ_globalDisable ; |156| 
         000074 0000!
     908                                                      ; call occurs [#_IRQ_globalDisable] ; |156| 
     909 000076 C400          MOV T0, *SP(#0) ; |156| 
     910                      .dwpsn  file "F:/eZdsp_DBG/tmp1/c55x-sim2/foo/c5535_bsl_revc/ezdsp5535_v1/c55xx_csl/inc/csl_usbAux.h"
     911 000078 7618          MOV #6144, T0 ; |158| 
         00007a 0048 
     912 00007c AB31          MOV *(#_usbRegisters), AR3 ; |158| 
         00007e 0000 
         000080 00!  
     913 000081 E66B          MOV #0, port(*AR3(T0)) ; |158| 
         000083 00   
         000084 9A   
     914                      .dwpsn  file "F:/eZdsp_DBG/tmp1/c55x-sim2/foo/c5535_bsl_revc/ezdsp5535_v1/c55xx_csl/inc/csl_usbAux.h"
     915 000085 7618          MOV #6145, T0 ; |161| 
         000087 0148 
     916 000089 AB31          MOV *(#_usbRegisters), AR3 ; |161| 
         00008b 0000 
         00008d 00!  
     917 00008e FB6B          MOV #32768, port(*AR3(T0)) ; |161| 
         000090 8000 
         000092 9A   
     918                      .dwpsn  file "F:/eZdsp_DBG/tmp1/c55x-sim2/foo/c5535_bsl_revc/ezdsp5535_v1/c55xx_csl/inc/csl_usbAux.h"
     919 000093 7618          MOV #6184, T0 ; |167| 
         000095 2848 
     920 000097 AB31          MOV *(#_usbRegisters), AR3 ; |167| 
         000099 0000 
         00009b 00!  
     921 00009c FB6B          MOV #16410, port(*AR3(T0)) ; |167| 
         00009e 401A 
         0000a0 9A   
     922                      .dwpsn  file "F:/eZdsp_DBG/tmp1/c55x-sim2/foo/c5535_bsl_revc/ezdsp5535_v1/c55xx_csl/inc/csl_usbAux.h"
     923 0000a1 7618          MOV #6185, T0 ; |173| 
         0000a3 2948 
     924 0000a5 AB31          MOV *(#_usbRegisters), AR3 ; |173| 
         0000a7 0000 
         0000a9 00!  
     925 0000aa FB6B          MOV #33024, port(*AR3(T0)) ; |173| 
         0000ac 8100 
         0000ae 9A   
     926                      .dwpsn  file "F:/eZdsp_DBG/tmp1/c55x-sim2/foo/c5535_bsl_revc/ezdsp5535_v1/c55xx_csl/inc/csl_usbAux.h"
     927 0000af 7618          MOV #6188, T0 ; |175| 
         0000b1 2C48 
     928 0000b3 AB31          MOV *(#_usbRegisters), AR3 ; |175| 
         0000b5 0000 
TMS320C55x Assembler PC v4.4.1 Sat Sep 29 23:08:40 2018

Tools Copyright (c) 1996-2012 Texas Instruments Incorporated
csl_usb_dma_example.asm                                              PAGE   19

         0000b7 00!  
     929 0000b8 E66B          MOV #0, port(*AR3(T0)) ; |175| 
         0000ba 00   
         0000bb 9A   
     930                      .dwpsn  file "F:/eZdsp_DBG/tmp1/c55x-sim2/foo/c5535_bsl_revc/ezdsp5535_v1/c55xx_csl/inc/csl_usbAux.h"
     931 0000bc 7618          MOV #6189, T0 ; |176| 
         0000be 2D48 
     932 0000c0 AB31          MOV *(#_usbRegisters), AR3 ; |176| 
         0000c2 0000 
         0000c4 00!  
     933 0000c5 E66B          MOV #0, port(*AR3(T0)) ; |176| 
         0000c7 00   
         0000c8 9A   
     934                      .dwpsn  file "F:/eZdsp_DBG/tmp1/c55x-sim2/foo/c5535_bsl_revc/ezdsp5535_v1/c55xx_csl/inc/csl_usbAux.h"
     935 0000c9 7618          MOV #6192, T0 ; |177| 
         0000cb 3048 
     936 0000cd AB31          MOV *(#_usbRegisters), AR3 ; |177| 
         0000cf 0000 
         0000d1 00!  
     937 0000d2 E66B          MOV #0, port(*AR3(T0)) ; |177| 
         0000d4 00   
         0000d5 9A   
     938                      .dwpsn  file "F:/eZdsp_DBG/tmp1/c55x-sim2/foo/c5535_bsl_revc/ezdsp5535_v1/c55xx_csl/inc/csl_usbAux.h"
     939 0000d6 7618          MOV #6193, T0 ; |178| 
         0000d8 3148 
     940 0000da AB31          MOV *(#_usbRegisters), AR3 ; |178| 
         0000dc 0000 
         0000de 00!  
     941 0000df E66B          MOV #0, port(*AR3(T0)) ; |178| 
         0000e1 00   
         0000e2 9A   
     942                      .dwpsn  file "F:/eZdsp_DBG/tmp1/c55x-sim2/foo/c5535_bsl_revc/ezdsp5535_v1/c55xx_csl/inc/csl_usbAux.h"
     943 0000e3 7628          MOV #10240, T0 ; |183| 
         0000e5 0048 
     944 0000e7 AB31          MOV *(#_usbRegisters), AR3 ; |183| 
         0000e9 0000 
         0000eb 00!  
     945 0000ec FB6B          MOV #129, port(*AR3(T0)) ; |183| 
         0000ee 0081 
         0000f0 9A   
     946                      .dwpsn  file "F:/eZdsp_DBG/tmp1/c55x-sim2/foo/c5535_bsl_revc/ezdsp5535_v1/c55xx_csl/inc/csl_usbAux.h"
     947 0000f1 7628          MOV #10241, T0 ; |184| 
         0000f3 0148 
     948 0000f5 AB31          MOV *(#_usbRegisters), AR3 ; |184| 
         0000f7 0000 
         0000f9 00!  
     949 0000fa E66B          MOV #0, port(*AR3(T0)) ; |184| 
         0000fc 00   
         0000fd 9A   
     950                      .dwpsn  file "F:/eZdsp_DBG/tmp1/c55x-sim2/foo/c5535_bsl_revc/ezdsp5535_v1/c55xx_csl/inc/csl_usbAux.h"
     951 0000fe 7620          MOV #8192, T0 ; |187| 
         000100 0048 
     952 000102 AB31          MOV *(#_usbRegisters), AR3 ; |187| 
         000104 0000 
         000106 00!  
TMS320C55x Assembler PC v4.4.1 Sat Sep 29 23:08:40 2018

Tools Copyright (c) 1996-2012 Texas Instruments Incorporated
csl_usb_dma_example.asm                                              PAGE   20

     953 000107 E66B          MOV #1, port(*AR3(T0)) ; |187| 
         000109 01   
         00010a 9A   
     954                      .dwpsn  file "F:/eZdsp_DBG/tmp1/c55x-sim2/foo/c5535_bsl_revc/ezdsp5535_v1/c55xx_csl/inc/csl_usbAux.h"
     955 00010b 7620          MOV #8193, T0 ; |190| 
         00010d 0148 
     956 00010f AB31          MOV *(#_usbRegisters), AR3 ; |190| 
         000111 0000 
         000113 00!  
     957 000114 FB6B          MOV #32768, port(*AR3(T0)) ; |190| 
         000116 8000 
         000118 9A   
     958                      .dwpsn  file "F:/eZdsp_DBG/tmp1/c55x-sim2/foo/c5535_bsl_revc/ezdsp5535_v1/c55xx_csl/inc/csl_usbAux.h"
     959 000119 A400          MOV *SP(#0), T0 ; |194| 
     960              $C$DW$121       .dwtag  DW_TAG_TI_branch
     961                      .dwattr $C$DW$121, DW_AT_low_pc(0x00)
     962                      .dwattr $C$DW$121, DW_AT_name("_IRQ_globalRestore")
     963                      .dwattr $C$DW$121, DW_AT_TI_call
     964 00011b 6C00          CALL #_IRQ_globalRestore ; |194| 
         00011d 0000!
     965                                                      ; call occurs [#_IRQ_globalRestore] ; |194| 
     966                      .dwpsn  file "F:/eZdsp_DBG/tmp1/c55x-sim2/foo/c5535_bsl_revc/ezdsp5535_v1/c55xx_csl/inc/csl_usbAux.h"
     967 00011f 4E01          AADD #1, SP
     968                      .dwcfi  cfa_offset, 1
     969              $C$DW$122       .dwtag  DW_TAG_TI_branch
     970                      .dwattr $C$DW$122, DW_AT_low_pc(0x00)
     971                      .dwattr $C$DW$122, DW_AT_TI_return
     972 000121 4804          RET
     973                                                      ; return occurs
     974                      .dwattr $C$DW$118, DW_AT_TI_end_file("F:/eZdsp_DBG/tmp1/c55x-sim2/foo/c5535_bsl_revc/ezdsp5535_v1/c55
     975                      .dwattr $C$DW$118, DW_AT_TI_end_line(0xc3)
     976                      .dwattr $C$DW$118, DW_AT_TI_end_column(0x01)
     977                      .dwendentry
     978                      .dwendtag $C$DW$118
     979              
     980 000123               .sect   ".text"
     981                      .align 4
     982              
     983              $C$DW$123       .dwtag  DW_TAG_subprogram, DW_AT_name("USB_initQueueManager")
     984                      .dwattr $C$DW$123, DW_AT_low_pc(_USB_initQueueManager)
     985                      .dwattr $C$DW$123, DW_AT_high_pc(0x00)
     986                      .dwattr $C$DW$123, DW_AT_TI_symbol_name("_USB_initQueueManager")
     987                      .dwattr $C$DW$123, DW_AT_type(*$C$DW$T$80)
     988                      .dwattr $C$DW$123, DW_AT_TI_begin_file("F:/eZdsp_DBG/tmp1/c55x-sim2/foo/c5535_bsl_revc/ezdsp5535_v1/c
     989                      .dwattr $C$DW$123, DW_AT_TI_begin_line(0xe9)
     990                      .dwattr $C$DW$123, DW_AT_TI_begin_column(0x0c)
     991                      .dwattr $C$DW$123, DW_AT_TI_max_frame_size(0x0a)
     992                      .dwpsn  file "F:/eZdsp_DBG/tmp1/c55x-sim2/foo/c5535_bsl_revc/ezdsp5535_v1/c55xx_csl/inc/csl_usbAux.h"
     993              
     994                      .dwfde $C$DW$CIE, _USB_initQueueManager
     995              $C$DW$124       .dwtag  DW_TAG_formal_parameter, DW_AT_name("hpdtx")
     996                      .dwattr $C$DW$124, DW_AT_TI_symbol_name("_hpdtx")
     997                      .dwattr $C$DW$124, DW_AT_type(*$C$DW$T$170)
     998                      .dwattr $C$DW$124, DW_AT_location[DW_OP_reg17]
     999              $C$DW$125       .dwtag  DW_TAG_formal_parameter, DW_AT_name("pLinkingRam")
TMS320C55x Assembler PC v4.4.1 Sat Sep 29 23:08:40 2018

Tools Copyright (c) 1996-2012 Texas Instruments Incorporated
csl_usb_dma_example.asm                                              PAGE   21

    1000                      .dwattr $C$DW$125, DW_AT_TI_symbol_name("_pLinkingRam")
    1001                      .dwattr $C$DW$125, DW_AT_type(*$C$DW$T$214)
    1002                      .dwattr $C$DW$125, DW_AT_location[DW_OP_reg19]
    1003              ;*******************************************************************************
    1004              ;* FUNCTION NAME: USB_initQueueManager                                         *
    1005              ;*                                                                             *
    1006              ;*   Function Uses Regs : AC0,AC0,T0,AR0,XAR0,AR1,XAR1,AR3,XAR3,SP,CARRY,M40,  *
    1007              ;*                        SATA,SATD,RDM,FRCT,SMUL                              *
    1008              ;*   Stack Frame        : Compact (No Frame Pointer, w/ debug)                 *
    1009              ;*   Total Frame Size   : 10 words                                             *
    1010              ;*                        (1 return address/alignment)                         *
    1011              ;*                        (9 local values)                                     *
    1012              ;*   Min System Stack   : 1 word                                               *
    1013              ;*******************************************************************************
    1014 000124       _USB_initQueueManager:
    1015                      .dwcfi  cfa_offset, 1
    1016                      .dwcfi  save_reg_to_mem, 91, -1
    1017 000124 4EF7          AADD #-9, SP
    1018                      .dwcfi  cfa_offset, 10
    1019              $C$DW$126       .dwtag  DW_TAG_variable, DW_AT_name("hpdtx")
    1020                      .dwattr $C$DW$126, DW_AT_TI_symbol_name("_hpdtx")
    1021                      .dwattr $C$DW$126, DW_AT_type(*$C$DW$T$170)
    1022                      .dwattr $C$DW$126, DW_AT_location[DW_OP_bregx 0x24 0]
    1023              $C$DW$127       .dwtag  DW_TAG_variable, DW_AT_name("pLinkingRam")
    1024                      .dwattr $C$DW$127, DW_AT_TI_symbol_name("_pLinkingRam")
    1025                      .dwattr $C$DW$127, DW_AT_type(*$C$DW$T$214)
    1026                      .dwattr $C$DW$127, DW_AT_location[DW_OP_bregx 0x24 2]
    1027              $C$DW$128       .dwtag  DW_TAG_variable, DW_AT_name("u32Addr")
    1028                      .dwattr $C$DW$128, DW_AT_TI_symbol_name("_u32Addr")
    1029                      .dwattr $C$DW$128, DW_AT_type(*$C$DW$T$70)
    1030                      .dwattr $C$DW$128, DW_AT_location[DW_OP_bregx 0x24 4]
    1031              $C$DW$129       .dwtag  DW_TAG_variable, DW_AT_name("u16CpyReg")
    1032                      .dwattr $C$DW$129, DW_AT_TI_symbol_name("_u16CpyReg")
    1033                      .dwattr $C$DW$129, DW_AT_type(*$C$DW$T$19)
    1034                      .dwattr $C$DW$129, DW_AT_location[DW_OP_bregx 0x24 6]
    1035              $C$DW$130       .dwtag  DW_TAG_variable, DW_AT_name("status")
    1036                      .dwattr $C$DW$130, DW_AT_TI_symbol_name("_status")
    1037                      .dwattr $C$DW$130, DW_AT_type(*$C$DW$T$80)
    1038                      .dwattr $C$DW$130, DW_AT_location[DW_OP_bregx 0x24 7]
    1039              $C$DW$131       .dwtag  DW_TAG_variable, DW_AT_name("value")
    1040                      .dwattr $C$DW$131, DW_AT_TI_symbol_name("_value")
    1041                      .dwattr $C$DW$131, DW_AT_type(*$C$DW$T$86)
    1042                      .dwattr $C$DW$131, DW_AT_location[DW_OP_bregx 0x24 8]
    1043 000126 EB04          MOV XAR1, dbl(*SP(#2))
         000128 95   
    1044 000129 EB00          MOV XAR0, dbl(*SP(#0))
         00012b 85   
    1045                      .dwpsn  file "F:/eZdsp_DBG/tmp1/c55x-sim2/foo/c5535_bsl_revc/ezdsp5535_v1/c55xx_csl/inc/csl_usbAux.h"
    1046 00012c E60E          MOV #0, *SP(#7) ; |241| 
         00012e 00   
    1047                      .dwpsn  file "F:/eZdsp_DBG/tmp1/c55x-sim2/foo/c5535_bsl_revc/ezdsp5535_v1/c55xx_csl/inc/csl_usbAux.h"
    1048 00012f ED00          MOV dbl(*SP(#0)), XAR3
         000131 BF   
    1049 000132 90B0          MOV XAR3, AC0
    1050 000134 6D00          BCC $C$L4,AC0 == #0 ; |243| 
TMS320C55x Assembler PC v4.4.1 Sat Sep 29 23:08:40 2018

Tools Copyright (c) 1996-2012 Texas Instruments Incorporated
csl_usb_dma_example.asm                                              PAGE   22

         000136 00FA 
    1051                                                      ; branchcc occurs ; |243| 
    1052 000138 ED04          MOV dbl(*SP(#2)), XAR3
         00013a BF   
    1053 00013b 90B0          MOV XAR3, AC0
    1054 00013d 6D00          BCC $C$L4,AC0 == #0 ; |243| 
         00013f 00F1 
    1055                                                      ; branchcc occurs ; |243| 
    1056                      .dwpsn  file "F:/eZdsp_DBG/tmp1/c55x-sim2/foo/c5535_bsl_revc/ezdsp5535_v1/c55xx_csl/inc/csl_usbAux.h"
    1057 000141 EB08          MOV AC0, dbl(*SP(#4)) ; |246| 
         000143 08   
    1058                      .dwpsn  file "F:/eZdsp_DBG/tmp1/c55x-sim2/foo/c5535_bsl_revc/ezdsp5535_v1/c55xx_csl/inc/csl_usbAux.h"
    1059 000144 ED08          MOV dbl(*SP(#4)), AC0 ; |247| 
         000146 08   
    1060 000147 5000          SFTL AC0, #1 ; |247| 
    1061 000149 7DFF          AND #0xffff, AC0, AC0 ; |247| 
         00014b FF00 
    1062 00014d C00C          MOV AC0, *SP(#6) ; |247| 
    1063                      .dwpsn  file "F:/eZdsp_DBG/tmp1/c55x-sim2/foo/c5535_bsl_revc/ezdsp5535_v1/c55xx_csl/inc/csl_usbAux.h"
    1064              $C$DW$132       .dwtag  DW_TAG_TI_branch
    1065                      .dwattr $C$DW$132, DW_AT_low_pc(0x00)
    1066                      .dwattr $C$DW$132, DW_AT_name("_IRQ_globalDisable")
    1067                      .dwattr $C$DW$132, DW_AT_TI_call
    1068 00014f 6C00          CALL #_IRQ_globalDisable ; |251| 
         000151 0000!
    1069                                                      ; call occurs [#_IRQ_globalDisable] ; |251| 
    1070 000153 C410          MOV T0, *SP(#8) ; |251| 
    1071                      .dwpsn  file "F:/eZdsp_DBG/tmp1/c55x-sim2/foo/c5535_bsl_revc/ezdsp5535_v1/c55xx_csl/inc/csl_usbAux.h"
    1072 000155 7640          MOV #16512, T0 ; |252| 
         000157 8048 
    1073 000159 AB31          MOV *(#_usbRegisters), AR3 ; |252| 
         00015b 0000 
         00015d 00!  
    1074 00015e A90C          MOV *SP(#6), AR1 ; |252| 
    1075 000160 C96B          MOV AR1, port(*AR3(T0)) ; |252| 
         000162 9A   
    1076                      .dwpsn  file "F:/eZdsp_DBG/tmp1/c55x-sim2/foo/c5535_bsl_revc/ezdsp5535_v1/c55xx_csl/inc/csl_usbAux.h"
    1077 000163 ED08          MOV dbl(*SP(#4)), AC0 ; |253| 
         000165 08   
    1078 000166 5000          SFTL AC0, #1 ; |253| 
    1079 000168 1007          SFTL AC0, #-16, AC0 ; |253| 
         00016a 30   
    1080 00016b 7DFF          AND #0xffff, AC0, AC0 ; |253| 
         00016d FF00 
    1081 00016f C00C          MOV AC0, *SP(#6) ; |253| 
    1082                      .dwpsn  file "F:/eZdsp_DBG/tmp1/c55x-sim2/foo/c5535_bsl_revc/ezdsp5535_v1/c55xx_csl/inc/csl_usbAux.h"
    1083 000171 7640          MOV #16513, T0 ; |256| 
         000173 8148 
    1084 000175 AB31          MOV *(#_usbRegisters), AR3 ; |256| 
         000177 0000 
         000179 00!  
    1085 00017a 2209          MOV AC0, AR1 ; |256| 
    1086 00017c EC06          BSET @#3, AR1 ; |256| 
         00017e 90   
    1087 00017f C96B          MOV AR1, port(*AR3(T0)) ; |256| 
TMS320C55x Assembler PC v4.4.1 Sat Sep 29 23:08:40 2018

Tools Copyright (c) 1996-2012 Texas Instruments Incorporated
csl_usb_dma_example.asm                                              PAGE   23

         000181 9A   
    1088                      .dwpsn  file "F:/eZdsp_DBG/tmp1/c55x-sim2/foo/c5535_bsl_revc/ezdsp5535_v1/c55xx_csl/inc/csl_usbAux.h"
    1089 000182 7640          MOV #16516, T0 ; |258| 
         000184 8448 
    1090 000186 AB31          MOV *(#_usbRegisters), AR3 ; |258| 
         000188 0000 
         00018a 00!  
    1091 00018b FB6B          MOV #512, port(*AR3(T0)) ; |258| 
         00018d 0200 
         00018f 9A   
    1092                      .dwpsn  file "F:/eZdsp_DBG/tmp1/c55x-sim2/foo/c5535_bsl_revc/ezdsp5535_v1/c55xx_csl/inc/csl_usbAux.h"
    1093 000190 ED04          MOV dbl(*SP(#2)), XAR3
         000192 BF   
    1094 000193 90B0          MOV XAR3, AC0
    1095 000195 EB08          MOV AC0, dbl(*SP(#4)) ; |261| 
         000197 08   
    1096                      .dwpsn  file "F:/eZdsp_DBG/tmp1/c55x-sim2/foo/c5535_bsl_revc/ezdsp5535_v1/c55xx_csl/inc/csl_usbAux.h"
    1097 000198 ED08          MOV dbl(*SP(#4)), AC0 ; |262| 
         00019a 08   
    1098 00019b 5000          SFTL AC0, #1 ; |262| 
    1099 00019d 7DFF          AND #0xffff, AC0, AC0 ; |262| 
         00019f FF00 
    1100 0001a1 C00C          MOV AC0, *SP(#6) ; |262| 
    1101                      .dwpsn  file "F:/eZdsp_DBG/tmp1/c55x-sim2/foo/c5535_bsl_revc/ezdsp5535_v1/c55xx_csl/inc/csl_usbAux.h"
    1102 0001a3 7640          MOV #16520, T0 ; |263| 
         0001a5 8848 
    1103 0001a7 AB31          MOV *(#_usbRegisters), AR3 ; |263| 
         0001a9 0000 
         0001ab 00!  
    1104 0001ac 2209          MOV AC0, AR1 ; |263| 
    1105 0001ae C96B          MOV AR1, port(*AR3(T0)) ; |263| 
         0001b0 9A   
    1106                      .dwpsn  file "F:/eZdsp_DBG/tmp1/c55x-sim2/foo/c5535_bsl_revc/ezdsp5535_v1/c55xx_csl/inc/csl_usbAux.h"
    1107 0001b1 ED08          MOV dbl(*SP(#4)), AC0 ; |264| 
         0001b3 08   
    1108 0001b4 5000          SFTL AC0, #1 ; |264| 
    1109 0001b6 1007          SFTL AC0, #-16, AC0 ; |264| 
         0001b8 30   
    1110 0001b9 7DFF          AND #0xffff, AC0, AC0 ; |264| 
         0001bb FF00 
    1111 0001bd C00C          MOV AC0, *SP(#6) ; |264| 
    1112                      .dwpsn  file "F:/eZdsp_DBG/tmp1/c55x-sim2/foo/c5535_bsl_revc/ezdsp5535_v1/c55xx_csl/inc/csl_usbAux.h"
    1113 0001bf 7640          MOV #16521, T0 ; |267| 
         0001c1 8948 
    1114 0001c3 AB31          MOV *(#_usbRegisters), AR3 ; |267| 
         0001c5 0000 
         0001c7 00!  
    1115 0001c8 2209          MOV AC0, AR1 ; |267| 
    1116 0001ca EC06          BSET @#3, AR1 ; |267| 
         0001cc 90   
    1117 0001cd C96B          MOV AR1, port(*AR3(T0)) ; |267| 
         0001cf 9A   
    1118                      .dwpsn  file "F:/eZdsp_DBG/tmp1/c55x-sim2/foo/c5535_bsl_revc/ezdsp5535_v1/c55xx_csl/inc/csl_usbAux.h"
    1119 0001d0 ED00          MOV dbl(*SP(#0)), XAR3
         0001d2 BF   
TMS320C55x Assembler PC v4.4.1 Sat Sep 29 23:08:40 2018

Tools Copyright (c) 1996-2012 Texas Instruments Incorporated
csl_usb_dma_example.asm                                              PAGE   24

    1120 0001d3 90B0          MOV XAR3, AC0
    1121 0001d5 EB08          MOV AC0, dbl(*SP(#4)) ; |270| 
         0001d7 08   
    1122                      .dwpsn  file "F:/eZdsp_DBG/tmp1/c55x-sim2/foo/c5535_bsl_revc/ezdsp5535_v1/c55xx_csl/inc/csl_usbAux.h"
    1123 0001d8 ED08          MOV dbl(*SP(#4)), AC0 ; |271| 
         0001da 08   
    1124 0001db 5000          SFTL AC0, #1 ; |271| 
    1125 0001dd 7DFF          AND #0xffff, AC0, AC0 ; |271| 
         0001df FF00 
    1126 0001e1 C00C          MOV AC0, *SP(#6) ; |271| 
    1127                      .dwpsn  file "F:/eZdsp_DBG/tmp1/c55x-sim2/foo/c5535_bsl_revc/ezdsp5535_v1/c55xx_csl/inc/csl_usbAux.h"
    1128 0001e3 7650          MOV #20480, T0 ; |272| 
         0001e5 0048 
    1129 0001e7 AB31          MOV *(#_usbRegisters), AR3 ; |272| 
         0001e9 0000 
         0001eb 00!  
    1130 0001ec 2209          MOV AC0, AR1 ; |272| 
    1131 0001ee C96B          MOV AR1, port(*AR3(T0)) ; |272| 
         0001f0 9A   
    1132                      .dwpsn  file "F:/eZdsp_DBG/tmp1/c55x-sim2/foo/c5535_bsl_revc/ezdsp5535_v1/c55xx_csl/inc/csl_usbAux.h"
    1133 0001f1 ED08          MOV dbl(*SP(#4)), AC0 ; |275| 
         0001f3 08   
    1134 0001f4 5000          SFTL AC0, #1 ; |275| 
    1135 0001f6 1007          SFTL AC0, #-16, AC0 ; |275| 
         0001f8 30   
    1136 0001f9 7DFF          AND #0xffff, AC0, AC0 ; |275| 
         0001fb FF00 
    1137 0001fd C00C          MOV AC0, *SP(#6) ; |275| 
    1138                      .dwpsn  file "F:/eZdsp_DBG/tmp1/c55x-sim2/foo/c5535_bsl_revc/ezdsp5535_v1/c55xx_csl/inc/csl_usbAux.h"
    1139 0001ff 7650          MOV #20481, T0 ; |277| 
         000201 0148 
    1140 000203 AB31          MOV *(#_usbRegisters), AR3 ; |277| 
         000205 0000 
         000207 00!  
    1141 000208 2209          MOV AC0, AR1 ; |277| 
    1142 00020a EC06          BSET @#3, AR1 ; |277| 
         00020c 90   
    1143 00020d C96B          MOV AR1, port(*AR3(T0)) ; |277| 
         00020f 9A   
    1144                      .dwpsn  file "F:/eZdsp_DBG/tmp1/c55x-sim2/foo/c5535_bsl_revc/ezdsp5535_v1/c55xx_csl/inc/csl_usbAux.h"
    1145 000210 7650          MOV #20484, T0 ; |280| 
         000212 0448 
    1146 000214 AB31          MOV *(#_usbRegisters), AR3 ; |280| 
         000216 0000 
         000218 00!  
    1147 000219 E66B          MOV #0, port(*AR3(T0)) ; |280| 
         00021b 00   
         00021c 9A   
    1148                      .dwpsn  file "F:/eZdsp_DBG/tmp1/c55x-sim2/foo/c5535_bsl_revc/ezdsp5535_v1/c55xx_csl/inc/csl_usbAux.h"
    1149 00021d 7650          MOV #20485, T0 ; |281| 
         00021f 0548 
    1150 000221 AB31          MOV *(#_usbRegisters), AR3 ; |281| 
         000223 0000 
         000225 00!  
    1151 000226 E66B          MOV #0, port(*AR3(T0)) ; |281| 
TMS320C55x Assembler PC v4.4.1 Sat Sep 29 23:08:40 2018

Tools Copyright (c) 1996-2012 Texas Instruments Incorporated
csl_usb_dma_example.asm                                              PAGE   25

         000228 00   
         000229 9A   
    1152                      .dwpsn  file "F:/eZdsp_DBG/tmp1/c55x-sim2/foo/c5535_bsl_revc/ezdsp5535_v1/c55xx_csl/inc/csl_usbAux.h"
    1153 00022a A410          MOV *SP(#8), T0 ; |283| 
    1154              $C$DW$133       .dwtag  DW_TAG_TI_branch
    1155                      .dwattr $C$DW$133, DW_AT_low_pc(0x00)
    1156                      .dwattr $C$DW$133, DW_AT_name("_IRQ_globalRestore")
    1157                      .dwattr $C$DW$133, DW_AT_TI_call
    1158 00022c 6C00          CALL #_IRQ_globalRestore ; |283| 
         00022e 0000!
    1159                                                      ; call occurs [#_IRQ_globalRestore] ; |283| 
    1160                      .dwpsn  file "F:/eZdsp_DBG/tmp1/c55x-sim2/foo/c5535_bsl_revc/ezdsp5535_v1/c55xx_csl/inc/csl_usbAux.h"
    1161 000230 4A03          B $C$L5   ; |284| 
    1162                                                      ; branch occurs ; |284| 
    1163 000232       $C$L4:    
    1164                      .dwpsn  file "F:/eZdsp_DBG/tmp1/c55x-sim2/foo/c5535_bsl_revc/ezdsp5535_v1/c55xx_csl/inc/csl_usbAux.h"
    1165 000232 E60E          MOV #-6, *SP(#7) ; |287| 
         000234 FA   
    1166 000235       $C$L5:    
    1167                      .dwpsn  file "F:/eZdsp_DBG/tmp1/c55x-sim2/foo/c5535_bsl_revc/ezdsp5535_v1/c55xx_csl/inc/csl_usbAux.h"
    1168 000235 A40E          MOV *SP(#7), T0 ; |290| 
    1169                      .dwpsn  file "F:/eZdsp_DBG/tmp1/c55x-sim2/foo/c5535_bsl_revc/ezdsp5535_v1/c55xx_csl/inc/csl_usbAux.h"
    1170 000237 4E09          AADD #9, SP
    1171                      .dwcfi  cfa_offset, 1
    1172              $C$DW$134       .dwtag  DW_TAG_TI_branch
    1173                      .dwattr $C$DW$134, DW_AT_low_pc(0x00)
    1174                      .dwattr $C$DW$134, DW_AT_TI_return
    1175 000239 4804          RET
    1176                                                      ; return occurs
    1177                      .dwattr $C$DW$123, DW_AT_TI_end_file("F:/eZdsp_DBG/tmp1/c55x-sim2/foo/c5535_bsl_revc/ezdsp5535_v1/c55
    1178                      .dwattr $C$DW$123, DW_AT_TI_end_line(0x123)
    1179                      .dwattr $C$DW$123, DW_AT_TI_end_column(0x01)
    1180                      .dwendentry
    1181                      .dwendtag $C$DW$123
    1182              
    1183 00023b               .sect   ".text"
    1184                      .align 4
    1185              
    1186              $C$DW$135       .dwtag  DW_TAG_subprogram, DW_AT_name("USB_dmaRxStart")
    1187                      .dwattr $C$DW$135, DW_AT_low_pc(_USB_dmaRxStart)
    1188                      .dwattr $C$DW$135, DW_AT_high_pc(0x00)
    1189                      .dwattr $C$DW$135, DW_AT_TI_symbol_name("_USB_dmaRxStart")
    1190                      .dwattr $C$DW$135, DW_AT_TI_begin_file("F:/eZdsp_DBG/tmp1/c55x-sim2/foo/c5535_bsl_revc/ezdsp5535_v1/c
    1191                      .dwattr $C$DW$135, DW_AT_TI_begin_line(0x180)
    1192                      .dwattr $C$DW$135, DW_AT_TI_begin_column(0x06)
    1193                      .dwattr $C$DW$135, DW_AT_TI_max_frame_size(0x04)
    1194                      .dwpsn  file "F:/eZdsp_DBG/tmp1/c55x-sim2/foo/c5535_bsl_revc/ezdsp5535_v1/c55xx_csl/inc/csl_usbAux.h"
    1195              
    1196                      .dwfde $C$DW$CIE, _USB_dmaRxStart
    1197              $C$DW$136       .dwtag  DW_TAG_formal_parameter, DW_AT_name("dwEndpoint")
    1198                      .dwattr $C$DW$136, DW_AT_TI_symbol_name("_dwEndpoint")
    1199                      .dwattr $C$DW$136, DW_AT_type(*$C$DW$T$88)
    1200                      .dwattr $C$DW$136, DW_AT_location[DW_OP_reg0]
    1201              ;*******************************************************************************
    1202              ;* FUNCTION NAME: USB_dmaRxStart                                               *
TMS320C55x Assembler PC v4.4.1 Sat Sep 29 23:08:40 2018

Tools Copyright (c) 1996-2012 Texas Instruments Incorporated
csl_usb_dma_example.asm                                              PAGE   26

    1203              ;*                                                                             *
    1204              ;*   Function Uses Regs : AC0,AC0,T0,AR1,AR3,SP,M40,SATA,SATD,RDM,FRCT,SMUL    *
    1205              ;*   Stack Frame        : Compact (No Frame Pointer, w/ debug)                 *
    1206              ;*   Total Frame Size   : 4 words                                              *
    1207              ;*                        (1 return address/alignment)                         *
    1208              ;*                        (3 local values)                                     *
    1209              ;*   Min System Stack   : 1 word                                               *
    1210              ;*******************************************************************************
    1211 00023c       _USB_dmaRxStart:
    1212                      .dwcfi  cfa_offset, 1
    1213                      .dwcfi  save_reg_to_mem, 91, -1
    1214 00023c 4EFD          AADD #-3, SP
    1215                      .dwcfi  cfa_offset, 4
    1216              $C$DW$137       .dwtag  DW_TAG_variable, DW_AT_name("dwEndpoint")
    1217                      .dwattr $C$DW$137, DW_AT_TI_symbol_name("_dwEndpoint")
    1218                      .dwattr $C$DW$137, DW_AT_type(*$C$DW$T$88)
    1219                      .dwattr $C$DW$137, DW_AT_location[DW_OP_bregx 0x24 0]
    1220              $C$DW$138       .dwtag  DW_TAG_variable, DW_AT_name("saveIndex")
    1221                      .dwattr $C$DW$138, DW_AT_TI_symbol_name("_saveIndex")
    1222                      .dwattr $C$DW$138, DW_AT_type(*$C$DW$T$19)
    1223                      .dwattr $C$DW$138, DW_AT_location[DW_OP_bregx 0x24 2]
    1224 00023e EB00          MOV AC0, dbl(*SP(#0)) ; |385| 
         000240 08   
    1225                      .dwpsn  file "F:/eZdsp_DBG/tmp1/c55x-sim2/foo/c5535_bsl_revc/ezdsp5535_v1/c55xx_csl/inc/csl_usbAux.h"
    1226 000241 7604          MOV #1038, T0 ; |389| 
         000243 0E48 
    1227 000245 AB31          MOV *(#_usbRegisters), AR3 ; |389| 
         000247 0000 
         000249 00!  
    1228 00024a A96B          MOV port(*AR3(T0)), AR1 ; |389| 
         00024c 99   
    1229 00024d C904          MOV AR1, *SP(#2) ; |389| 
    1230                      .dwpsn  file "F:/eZdsp_DBG/tmp1/c55x-sim2/foo/c5535_bsl_revc/ezdsp5535_v1/c55xx_csl/inc/csl_usbAux.h"
    1231 00024f F46B          AND #0xfff0, port(*AR3(T0)) ; |392| 
         000251 FFF0 
         000253 9A   
    1232                      .dwpsn  file "F:/eZdsp_DBG/tmp1/c55x-sim2/foo/c5535_bsl_revc/ezdsp5535_v1/c55xx_csl/inc/csl_usbAux.h"
    1233 000254 AB31          MOV *(#_usbRegisters), AR3 ; |393| 
         000256 0000 
         000258 00!  
    1234 000259 ED00          MOV dbl(*SP(#0)), AC0 ; |393| 
         00025b 08   
    1235 00025c DA6B          OR port(*AR3(T0)), AC0, AC0 ; |393| 
         00025e 00   
         00025f 99   
    1236 000260 C06B          MOV AC0, port(*AR3(T0)) ; |393| 
         000262 9A   
    1237                      .dwpsn  file "F:/eZdsp_DBG/tmp1/c55x-sim2/foo/c5535_bsl_revc/ezdsp5535_v1/c55xx_csl/inc/csl_usbAux.h"
    1238 000263 7604          MOV #1046, T0 ; |396| 
         000265 1648 
    1239 000267 AB31          MOV *(#_usbRegisters), AR3 ; |396| 
         000269 0000 
         00026b 00!  
    1240 00026c F46B          AND #0x6fff, port(*AR3(T0)) ; |396| 
         00026e 6FFF 
TMS320C55x Assembler PC v4.4.1 Sat Sep 29 23:08:40 2018

Tools Copyright (c) 1996-2012 Texas Instruments Incorporated
csl_usb_dma_example.asm                                              PAGE   27

         000270 9A   
    1241                      .dwpsn  file "F:/eZdsp_DBG/tmp1/c55x-sim2/foo/c5535_bsl_revc/ezdsp5535_v1/c55xx_csl/inc/csl_usbAux.h"
    1242 000271 AB31          MOV *(#_usbRegisters), AR3 ; |399| 
         000273 0000 
         000275 00!  
    1243 000276 F56B          OR #0x2000, port(*AR3(T0)) ; |399| 
         000278 2000 
         00027a 9A   
    1244                      .dwpsn  file "F:/eZdsp_DBG/tmp1/c55x-sim2/foo/c5535_bsl_revc/ezdsp5535_v1/c55xx_csl/inc/csl_usbAux.h"
    1245 00027b 7604          MOV #1038, T0 ; |402| 
         00027d 0E48 
    1246 00027f AB31          MOV *(#_usbRegisters), AR3 ; |402| 
         000281 0000 
         000283 00!  
    1247 000284 A904          MOV *SP(#2), AR1 ; |402| 
    1248 000286 C96B          MOV AR1, port(*AR3(T0)) ; |402| 
         000288 9A   
    1249                      .dwpsn  file "F:/eZdsp_DBG/tmp1/c55x-sim2/foo/c5535_bsl_revc/ezdsp5535_v1/c55xx_csl/inc/csl_usbAux.h"
    1250 000289 4E03          AADD #3, SP
    1251                      .dwcfi  cfa_offset, 1
    1252              $C$DW$139       .dwtag  DW_TAG_TI_branch
    1253                      .dwattr $C$DW$139, DW_AT_low_pc(0x00)
    1254                      .dwattr $C$DW$139, DW_AT_TI_return
    1255 00028b 4804          RET
    1256                                                      ; return occurs
    1257                      .dwattr $C$DW$135, DW_AT_TI_end_file("F:/eZdsp_DBG/tmp1/c55x-sim2/foo/c5535_bsl_revc/ezdsp5535_v1/c55
    1258                      .dwattr $C$DW$135, DW_AT_TI_end_line(0x193)
    1259                      .dwattr $C$DW$135, DW_AT_TI_end_column(0x01)
    1260                      .dwendentry
    1261                      .dwendtag $C$DW$135
    1262              
    1263 00028d               .sect   ".text"
    1264                      .align 4
    1265              
    1266              $C$DW$140       .dwtag  DW_TAG_subprogram, DW_AT_name("USB_confDmaTx")
    1267                      .dwattr $C$DW$140, DW_AT_low_pc(_USB_confDmaTx)
    1268                      .dwattr $C$DW$140, DW_AT_high_pc(0x00)
    1269                      .dwattr $C$DW$140, DW_AT_TI_symbol_name("_USB_confDmaTx")
    1270                      .dwattr $C$DW$140, DW_AT_type(*$C$DW$T$80)
    1271                      .dwattr $C$DW$140, DW_AT_TI_begin_file("F:/eZdsp_DBG/tmp1/c55x-sim2/foo/c5535_bsl_revc/ezdsp5535_v1/c
    1272                      .dwattr $C$DW$140, DW_AT_TI_begin_line(0x221)
    1273                      .dwattr $C$DW$140, DW_AT_TI_begin_column(0x0c)
    1274                      .dwattr $C$DW$140, DW_AT_TI_max_frame_size(0x0a)
    1275                      .dwpsn  file "F:/eZdsp_DBG/tmp1/c55x-sim2/foo/c5535_bsl_revc/ezdsp5535_v1/c55xx_csl/inc/csl_usbAux.h"
    1276              
    1277                      .dwfde $C$DW$CIE, _USB_confDmaTx
    1278              $C$DW$141       .dwtag  DW_TAG_formal_parameter, DW_AT_name("hpdtx")
    1279                      .dwattr $C$DW$141, DW_AT_TI_symbol_name("_hpdtx")
    1280                      .dwattr $C$DW$141, DW_AT_type(*$C$DW$T$170)
    1281                      .dwattr $C$DW$141, DW_AT_location[DW_OP_reg17]
    1282              $C$DW$142       .dwtag  DW_TAG_formal_parameter, DW_AT_name("packetsize")
    1283                      .dwattr $C$DW$142, DW_AT_TI_symbol_name("_packetsize")
    1284                      .dwattr $C$DW$142, DW_AT_type(*$C$DW$T$70)
    1285                      .dwattr $C$DW$142, DW_AT_location[DW_OP_reg0]
    1286              $C$DW$143       .dwtag  DW_TAG_formal_parameter, DW_AT_name("pTxBuffer")
TMS320C55x Assembler PC v4.4.1 Sat Sep 29 23:08:40 2018

Tools Copyright (c) 1996-2012 Texas Instruments Incorporated
csl_usb_dma_example.asm                                              PAGE   28

    1287                      .dwattr $C$DW$143, DW_AT_TI_symbol_name("_pTxBuffer")
    1288                      .dwattr $C$DW$143, DW_AT_type(*$C$DW$T$102)
    1289                      .dwattr $C$DW$143, DW_AT_location[DW_OP_reg19]
    1290              $C$DW$144       .dwtag  DW_TAG_formal_parameter, DW_AT_name("swapWords")
    1291                      .dwattr $C$DW$144, DW_AT_TI_symbol_name("_swapWords")
    1292                      .dwattr $C$DW$144, DW_AT_type(*$C$DW$T$86)
    1293                      .dwattr $C$DW$144, DW_AT_location[DW_OP_reg12]
    1294              ;*******************************************************************************
    1295              ;* FUNCTION NAME: USB_confDmaTx                                                *
    1296              ;*                                                                             *
    1297              ;*   Function Uses Regs : AC0,AC0,T0,AR0,XAR0,AR1,XAR1,AR2,AR3,XAR3,SP,CARRY,  *
    1298              ;*                        TC1,M40,SATA,SATD,RDM,FRCT,SMUL                      *
    1299              ;*   Stack Frame        : Compact (No Frame Pointer, w/ debug)                 *
    1300              ;*   Total Frame Size   : 10 words                                             *
    1301              ;*                        (1 return address/alignment)                         *
    1302              ;*                        (9 local values)                                     *
    1303              ;*   Min System Stack   : 1 word                                               *
    1304              ;*******************************************************************************
    1305 000290       _USB_confDmaTx:
    1306                      .dwcfi  cfa_offset, 1
    1307                      .dwcfi  save_reg_to_mem, 91, -1
    1308 000290 4EF7          AADD #-9, SP
    1309                      .dwcfi  cfa_offset, 10
    1310              $C$DW$145       .dwtag  DW_TAG_variable, DW_AT_name("hpdtx")
    1311                      .dwattr $C$DW$145, DW_AT_TI_symbol_name("_hpdtx")
    1312                      .dwattr $C$DW$145, DW_AT_type(*$C$DW$T$170)
    1313                      .dwattr $C$DW$145, DW_AT_location[DW_OP_bregx 0x24 0]
    1314              $C$DW$146       .dwtag  DW_TAG_variable, DW_AT_name("packetsize")
    1315                      .dwattr $C$DW$146, DW_AT_TI_symbol_name("_packetsize")
    1316                      .dwattr $C$DW$146, DW_AT_type(*$C$DW$T$70)
    1317                      .dwattr $C$DW$146, DW_AT_location[DW_OP_bregx 0x24 2]
    1318              $C$DW$147       .dwtag  DW_TAG_variable, DW_AT_name("pTxBuffer")
    1319                      .dwattr $C$DW$147, DW_AT_TI_symbol_name("_pTxBuffer")
    1320                      .dwattr $C$DW$147, DW_AT_type(*$C$DW$T$102)
    1321                      .dwattr $C$DW$147, DW_AT_location[DW_OP_bregx 0x24 4]
    1322              $C$DW$148       .dwtag  DW_TAG_variable, DW_AT_name("swapWords")
    1323                      .dwattr $C$DW$148, DW_AT_TI_symbol_name("_swapWords")
    1324                      .dwattr $C$DW$148, DW_AT_type(*$C$DW$T$86)
    1325                      .dwattr $C$DW$148, DW_AT_location[DW_OP_bregx 0x24 6]
    1326              $C$DW$149       .dwtag  DW_TAG_variable, DW_AT_name("status")
    1327                      .dwattr $C$DW$149, DW_AT_TI_symbol_name("_status")
    1328                      .dwattr $C$DW$149, DW_AT_type(*$C$DW$T$80)
    1329                      .dwattr $C$DW$149, DW_AT_location[DW_OP_bregx 0x24 7]
    1330              $C$DW$150       .dwtag  DW_TAG_variable, DW_AT_name("value")
    1331                      .dwattr $C$DW$150, DW_AT_TI_symbol_name("_value")
    1332                      .dwattr $C$DW$150, DW_AT_type(*$C$DW$T$86)
    1333                      .dwattr $C$DW$150, DW_AT_location[DW_OP_bregx 0x24 8]
    1334 000292 C40C          MOV T0, *SP(#6) ; |549| 
    1335 000294 EB08          MOV XAR1, dbl(*SP(#4))
         000296 95   
    1336 000297 EB04          MOV AC0, dbl(*SP(#2)) ; |549| 
         000299 08   
    1337 00029a EB00          MOV XAR0, dbl(*SP(#0))
         00029c 85   
    1338                      .dwpsn  file "F:/eZdsp_DBG/tmp1/c55x-sim2/foo/c5535_bsl_revc/ezdsp5535_v1/c55xx_csl/inc/csl_usbAux.h"
TMS320C55x Assembler PC v4.4.1 Sat Sep 29 23:08:40 2018

Tools Copyright (c) 1996-2012 Texas Instruments Incorporated
csl_usb_dma_example.asm                                              PAGE   29

    1339 00029d E60E          MOV #0, *SP(#7) ; |553| 
         00029f 00   
    1340                      .dwpsn  file "F:/eZdsp_DBG/tmp1/c55x-sim2/foo/c5535_bsl_revc/ezdsp5535_v1/c55xx_csl/inc/csl_usbAux.h"
    1341 0002a0 ED00          MOV dbl(*SP(#0)), XAR3
         0002a2 BF   
    1342 0002a3 90B0          MOV XAR3, AC0
    1343 0002a5 6D00          BCC $C$L7,AC0 == #0 ; |555| 
         0002a7 00C3 
    1344                                                      ; branchcc occurs ; |555| 
    1345 0002a9 ED08          MOV dbl(*SP(#4)), XAR3
         0002ab BF   
    1346 0002ac 90B0          MOV XAR3, AC0
    1347 0002ae 6D00          BCC $C$L7,AC0 == #0 ; |555| 
         0002b0 00BA 
    1348                                                      ; branchcc occurs ; |555| 
    1349                      .dwpsn  file "F:/eZdsp_DBG/tmp1/c55x-sim2/foo/c5535_bsl_revc/ezdsp5535_v1/c55xx_csl/inc/csl_usbAux.h"
    1350              
    1351 0002b4 3D1A          MOV #1, AR2
    1352 0002b2 A90C  ||      MOV *SP(#6), AR1 ; |558| 
    1353              
    1354 0002b6 12AC          CMP AR2 != AR1, TC1 ; |558| 
         0002b8 90   
    1355 0002b9 65E4          BCC $C$L6,TC1 ; |558| 
    1356                                                      ; branchcc occurs ; |558| 
    1357                      .dwpsn  file "F:/eZdsp_DBG/tmp1/c55x-sim2/foo/c5535_bsl_revc/ezdsp5535_v1/c55xx_csl/inc/csl_usbAux.h"
    1358 0002bb ED08          MOV dbl(*SP(#4)), XAR0
         0002bd 8F   
    1359 0002be ED04          MOV dbl(*SP(#2)), AC0 ; |566| 
         0002c0 08   
    1360              $C$DW$151       .dwtag  DW_TAG_TI_branch
    1361                      .dwattr $C$DW$151, DW_AT_low_pc(0x00)
    1362                      .dwattr $C$DW$151, DW_AT_name("_USB_swapWords")
    1363                      .dwattr $C$DW$151, DW_AT_TI_call
    1364              
    1365 0002c1 08FD          CALL #_USB_swapWords ; |566| 
         0002c3 3A   
    1366 0002c4 5101  ||      SFTL AC0, #-1, AC0 ; |566| 
    1367              
    1368                                                      ; call occurs [#_USB_swapWords] ; |566| 
    1369 0002c6       $C$L6:    
    1370                      .dwpsn  file "F:/eZdsp_DBG/tmp1/c55x-sim2/foo/c5535_bsl_revc/ezdsp5535_v1/c55xx_csl/inc/csl_usbAux.h"
    1371 0002c6 ED00          MOV dbl(*SP(#0)), XAR3
         0002c8 BF   
    1372 0002c9 ED04          MOV dbl(*SP(#2)), AC0 ; |570| 
         0002cb 08   
    1373 0002cc EC3E          BSET @#31, AC0 ; |570| 
         0002ce 00   
    1374 0002cf EB61          MOV AC0, dbl(*AR3) ; |570| 
         0002d1 08   
    1375                      .dwpsn  file "F:/eZdsp_DBG/tmp1/c55x-sim2/foo/c5535_bsl_revc/ezdsp5535_v1/c55xx_csl/inc/csl_usbAux.h"
    1376 0002d2 ED00          MOV dbl(*SP(#0)), XAR3
         0002d4 BF   
    1377 0002d5 3C00          MOV #0, AC0 ; |572| 
    1378 0002d7 EB75          MOV AC0, dbl(*AR3(short(#2))) ; |572| 
         0002d9 08   
TMS320C55x Assembler PC v4.4.1 Sat Sep 29 23:08:40 2018

Tools Copyright (c) 1996-2012 Texas Instruments Incorporated
csl_usb_dma_example.asm                                              PAGE   30

    1379                      .dwpsn  file "F:/eZdsp_DBG/tmp1/c55x-sim2/foo/c5535_bsl_revc/ezdsp5535_v1/c55xx_csl/inc/csl_usbAux.h"
    1380 0002da ED00          MOV dbl(*SP(#0)), XAR3
         0002dc BF   
    1381 0002dd 7A14          MOV #5120 << #16, AC0 ; |577| 
         0002df 000A 
    1382 0002e1 1A18          OR #0x0018, AC0, AC0 ; |577| 
         0002e3 00   
    1383 0002e4 EB79          MOV AC0, dbl(*AR3(short(#4))) ; |577| 
         0002e6 08   
    1384                      .dwpsn  file "F:/eZdsp_DBG/tmp1/c55x-sim2/foo/c5535_bsl_revc/ezdsp5535_v1/c55xx_csl/inc/csl_usbAux.h"
    1385 0002e7 ED00          MOV dbl(*SP(#0)), XAR3
         0002e9 BF   
    1386 0002ea ED04          MOV dbl(*SP(#2)), AC0 ; |578| 
         0002ec 08   
    1387 0002ed EB7D          MOV AC0, dbl(*AR3(short(#6))) ; |578| 
         0002ef 08   
    1388                      .dwpsn  file "F:/eZdsp_DBG/tmp1/c55x-sim2/foo/c5535_bsl_revc/ezdsp5535_v1/c55xx_csl/inc/csl_usbAux.h"
    1389 0002f0 ED08          MOV dbl(*SP(#4)), XAR3
         0002f2 BF   
    1390 0002f3 90B0          MOV XAR3, AC0
    1391 0002f5 ED00          MOV dbl(*SP(#0)), XAR3
         0002f7 BF   
    1392 0002f8 5000          SFTL AC0, #1 ; |581| 
    1393 0002fa EC26          BSET @#19, AC0 ; |581| 
         0002fc 00   
    1394 0002fd EB6D          MOV AC0, dbl(*AR3(#8)) ; |581| 
         0002ff 0800 
         000301 08   
    1395                      .dwpsn  file "F:/eZdsp_DBG/tmp1/c55x-sim2/foo/c5535_bsl_revc/ezdsp5535_v1/c55xx_csl/inc/csl_usbAux.h"
    1396 000302 ED00          MOV dbl(*SP(#0)), XAR3
         000304 BF   
    1397 000305 3C00          MOV #0, AC0 ; |584| 
    1398 000307 EB6D          MOV AC0, dbl(*AR3(#10)) ; |584| 
         000309 0800 
         00030b 0A   
    1399                      .dwpsn  file "F:/eZdsp_DBG/tmp1/c55x-sim2/foo/c5535_bsl_revc/ezdsp5535_v1/c55xx_csl/inc/csl_usbAux.h"
    1400 00030c ED00          MOV dbl(*SP(#0)), XAR3
         00030e BF   
    1401 00030f ED04          MOV dbl(*SP(#2)), AC0 ; |585| 
         000311 08   
    1402 000312 EB6D          MOV AC0, dbl(*AR3(#12)) ; |585| 
         000314 0800 
         000316 0C   
    1403                      .dwpsn  file "F:/eZdsp_DBG/tmp1/c55x-sim2/foo/c5535_bsl_revc/ezdsp5535_v1/c55xx_csl/inc/csl_usbAux.h"
    1404 000317 ED08          MOV dbl(*SP(#4)), XAR3
         000319 BF   
    1405 00031a 90B0          MOV XAR3, AC0
    1406 00031c ED00          MOV dbl(*SP(#0)), XAR3
         00031e BF   
    1407 00031f 5000          SFTL AC0, #1 ; |588| 
    1408 000321 EC26          BSET @#19, AC0 ; |588| 
         000323 00   
    1409 000324 EB6D          MOV AC0, dbl(*AR3(#14)) ; |588| 
         000326 0800 
         000328 0E   
TMS320C55x Assembler PC v4.4.1 Sat Sep 29 23:08:40 2018

Tools Copyright (c) 1996-2012 Texas Instruments Incorporated
csl_usb_dma_example.asm                                              PAGE   31

    1410                      .dwpsn  file "F:/eZdsp_DBG/tmp1/c55x-sim2/foo/c5535_bsl_revc/ezdsp5535_v1/c55xx_csl/inc/csl_usbAux.h"
    1411              $C$DW$152       .dwtag  DW_TAG_TI_branch
    1412                      .dwattr $C$DW$152, DW_AT_low_pc(0x00)
    1413                      .dwattr $C$DW$152, DW_AT_name("_IRQ_globalDisable")
    1414                      .dwattr $C$DW$152, DW_AT_TI_call
    1415 000329 6C00          CALL #_IRQ_globalDisable ; |592| 
         00032b 0000!
    1416                                                      ; call occurs [#_IRQ_globalDisable] ; |592| 
    1417 00032d C410          MOV T0, *SP(#8) ; |592| 
    1418                      .dwpsn  file "F:/eZdsp_DBG/tmp1/c55x-sim2/foo/c5535_bsl_revc/ezdsp5535_v1/c55xx_csl/inc/csl_usbAux.h"
    1419 00032f 7661          MOV #24844, T0 ; |594| 
         000331 0C48 
    1420 000333 ED00          MOV dbl(*SP(#0)), XAR3
         000335 BF   
    1421 000336 90B0          MOV XAR3, AC0
    1422 000338 AB31          MOV *(#_usbRegisters), AR3 ; |594| 
         00033a 0000 
         00033c 00!  
    1423 00033d 5000          SFTL AC0, #1 ; |594| 
    1424 00033f 7DFF          AND #0xffff, AC0, AC0 ; |594| 
         000341 FF00 
    1425 000343 EC02          BSET @#1, AC0 ; |594| 
         000345 00   
    1426 000346 C06B          MOV AC0, port(*AR3(T0)) ; |594| 
         000348 9A   
    1427                      .dwpsn  file "F:/eZdsp_DBG/tmp1/c55x-sim2/foo/c5535_bsl_revc/ezdsp5535_v1/c55xx_csl/inc/csl_usbAux.h"
    1428 000349 7661          MOV #24845, T0 ; |596| 
         00034b 0D48 
    1429 00034d ED00          MOV dbl(*SP(#0)), XAR3
         00034f BF   
    1430 000350 90B0          MOV XAR3, AC0
    1431 000352 AB31          MOV *(#_usbRegisters), AR3 ; |596| 
         000354 0000 
         000356 00!  
    1432 000357 1005          SFTS AC0, #-15, AC0 ; |596| 
         000359 31   
    1433 00035a 7DFF          AND #0xffff, AC0, AC0 ; |596| 
         00035c FF00 
    1434 00035e EC06          BSET @#3, AC0 ; |596| 
         000360 00   
    1435 000361 C06B          MOV AC0, port(*AR3(T0)) ; |596| 
         000363 9A   
    1436                      .dwpsn  file "F:/eZdsp_DBG/tmp1/c55x-sim2/foo/c5535_bsl_revc/ezdsp5535_v1/c55xx_csl/inc/csl_usbAux.h"
    1437 000364 A410          MOV *SP(#8), T0 ; |599| 
    1438              $C$DW$153       .dwtag  DW_TAG_TI_branch
    1439                      .dwattr $C$DW$153, DW_AT_low_pc(0x00)
    1440                      .dwattr $C$DW$153, DW_AT_name("_IRQ_globalRestore")
    1441                      .dwattr $C$DW$153, DW_AT_TI_call
    1442 000366 6C00          CALL #_IRQ_globalRestore ; |599| 
         000368 0000!
    1443                                                      ; call occurs [#_IRQ_globalRestore] ; |599| 
    1444                      .dwpsn  file "F:/eZdsp_DBG/tmp1/c55x-sim2/foo/c5535_bsl_revc/ezdsp5535_v1/c55xx_csl/inc/csl_usbAux.h"
    1445 00036a 4A03          B $C$L8   ; |600| 
    1446                                                      ; branch occurs ; |600| 
    1447 00036c       $C$L7:    
TMS320C55x Assembler PC v4.4.1 Sat Sep 29 23:08:40 2018

Tools Copyright (c) 1996-2012 Texas Instruments Incorporated
csl_usb_dma_example.asm                                              PAGE   32

    1448                      .dwpsn  file "F:/eZdsp_DBG/tmp1/c55x-sim2/foo/c5535_bsl_revc/ezdsp5535_v1/c55xx_csl/inc/csl_usbAux.h"
    1449 00036c E60E          MOV #-6, *SP(#7) ; |603| 
         00036e FA   
    1450 00036f       $C$L8:    
    1451                      .dwpsn  file "F:/eZdsp_DBG/tmp1/c55x-sim2/foo/c5535_bsl_revc/ezdsp5535_v1/c55xx_csl/inc/csl_usbAux.h"
    1452 00036f A40E          MOV *SP(#7), T0 ; |606| 
    1453                      .dwpsn  file "F:/eZdsp_DBG/tmp1/c55x-sim2/foo/c5535_bsl_revc/ezdsp5535_v1/c55xx_csl/inc/csl_usbAux.h"
    1454 000371 4E09          AADD #9, SP
    1455                      .dwcfi  cfa_offset, 1
    1456              $C$DW$154       .dwtag  DW_TAG_TI_branch
    1457                      .dwattr $C$DW$154, DW_AT_low_pc(0x00)
    1458                      .dwattr $C$DW$154, DW_AT_TI_return
    1459 000373 4804          RET
    1460                                                      ; return occurs
    1461                      .dwattr $C$DW$140, DW_AT_TI_end_file("F:/eZdsp_DBG/tmp1/c55x-sim2/foo/c5535_bsl_revc/ezdsp5535_v1/c55
    1462                      .dwattr $C$DW$140, DW_AT_TI_end_line(0x25f)
    1463                      .dwattr $C$DW$140, DW_AT_TI_end_column(0x01)
    1464                      .dwendentry
    1465                      .dwendtag $C$DW$140
    1466              
    1467 000375               .sect   ".text"
    1468                      .align 4
    1469              
    1470              $C$DW$155       .dwtag  DW_TAG_subprogram, DW_AT_name("USB_dmaRxStop")
    1471                      .dwattr $C$DW$155, DW_AT_low_pc(_USB_dmaRxStop)
    1472                      .dwattr $C$DW$155, DW_AT_high_pc(0x00)
    1473                      .dwattr $C$DW$155, DW_AT_TI_symbol_name("_USB_dmaRxStop")
    1474                      .dwattr $C$DW$155, DW_AT_TI_begin_file("F:/eZdsp_DBG/tmp1/c55x-sim2/foo/c5535_bsl_revc/ezdsp5535_v1/c
    1475                      .dwattr $C$DW$155, DW_AT_TI_begin_line(0x28f)
    1476                      .dwattr $C$DW$155, DW_AT_TI_begin_column(0x06)
    1477                      .dwattr $C$DW$155, DW_AT_TI_max_frame_size(0x0a)
    1478                      .dwpsn  file "F:/eZdsp_DBG/tmp1/c55x-sim2/foo/c5535_bsl_revc/ezdsp5535_v1/c55xx_csl/inc/csl_usbAux.h"
    1479              
    1480                      .dwfde $C$DW$CIE, _USB_dmaRxStop
    1481              $C$DW$156       .dwtag  DW_TAG_formal_parameter, DW_AT_name("dwEndpoint")
    1482                      .dwattr $C$DW$156, DW_AT_TI_symbol_name("_dwEndpoint")
    1483                      .dwattr $C$DW$156, DW_AT_type(*$C$DW$T$88)
    1484                      .dwattr $C$DW$156, DW_AT_location[DW_OP_reg0]
    1485              $C$DW$157       .dwtag  DW_TAG_formal_parameter, DW_AT_name("pRxBuffer")
    1486                      .dwattr $C$DW$157, DW_AT_TI_symbol_name("_pRxBuffer")
    1487                      .dwattr $C$DW$157, DW_AT_type(*$C$DW$T$102)
    1488                      .dwattr $C$DW$157, DW_AT_location[DW_OP_reg17]
    1489              $C$DW$158       .dwtag  DW_TAG_formal_parameter, DW_AT_name("packetsize")
    1490                      .dwattr $C$DW$158, DW_AT_TI_symbol_name("_packetsize")
    1491                      .dwattr $C$DW$158, DW_AT_type(*$C$DW$T$70)
    1492                      .dwattr $C$DW$158, DW_AT_location[DW_OP_reg3]
    1493              $C$DW$159       .dwtag  DW_TAG_formal_parameter, DW_AT_name("swapWords")
    1494                      .dwattr $C$DW$159, DW_AT_TI_symbol_name("_swapWords")
    1495                      .dwattr $C$DW$159, DW_AT_type(*$C$DW$T$86)
    1496                      .dwattr $C$DW$159, DW_AT_location[DW_OP_reg12]
    1497              ;*******************************************************************************
    1498              ;* FUNCTION NAME: USB_dmaRxStop                                                *
    1499              ;*                                                                             *
    1500              ;*   Function Uses Regs : AC0,AC0,AC1,AC1,T0,AR0,XAR0,AR1,AR3,SP,CARRY,TC1,M40,*
    1501              ;*                        SATA,SATD,RDM,FRCT,SMUL                              *
TMS320C55x Assembler PC v4.4.1 Sat Sep 29 23:08:40 2018

Tools Copyright (c) 1996-2012 Texas Instruments Incorporated
csl_usb_dma_example.asm                                              PAGE   33

    1502              ;*   Stack Frame        : Compact (No Frame Pointer, w/ debug)                 *
    1503              ;*   Total Frame Size   : 10 words                                             *
    1504              ;*                        (2 return address/alignment)                         *
    1505              ;*                        (8 local values)                                     *
    1506              ;*   Min System Stack   : 1 word                                               *
    1507              ;*******************************************************************************
    1508 000378       _USB_dmaRxStop:
    1509                      .dwcfi  cfa_offset, 1
    1510                      .dwcfi  save_reg_to_mem, 91, -1
    1511 000378 4EF7          AADD #-9, SP
    1512                      .dwcfi  cfa_offset, 10
    1513              $C$DW$160       .dwtag  DW_TAG_variable, DW_AT_name("dwEndpoint")
    1514                      .dwattr $C$DW$160, DW_AT_TI_symbol_name("_dwEndpoint")
    1515                      .dwattr $C$DW$160, DW_AT_type(*$C$DW$T$88)
    1516                      .dwattr $C$DW$160, DW_AT_location[DW_OP_bregx 0x24 0]
    1517              $C$DW$161       .dwtag  DW_TAG_variable, DW_AT_name("pRxBuffer")
    1518                      .dwattr $C$DW$161, DW_AT_TI_symbol_name("_pRxBuffer")
    1519                      .dwattr $C$DW$161, DW_AT_type(*$C$DW$T$102)
    1520                      .dwattr $C$DW$161, DW_AT_location[DW_OP_bregx 0x24 2]
    1521              $C$DW$162       .dwtag  DW_TAG_variable, DW_AT_name("packetsize")
    1522                      .dwattr $C$DW$162, DW_AT_TI_symbol_name("_packetsize")
    1523                      .dwattr $C$DW$162, DW_AT_type(*$C$DW$T$70)
    1524                      .dwattr $C$DW$162, DW_AT_location[DW_OP_bregx 0x24 4]
    1525              $C$DW$163       .dwtag  DW_TAG_variable, DW_AT_name("swapWords")
    1526                      .dwattr $C$DW$163, DW_AT_TI_symbol_name("_swapWords")
    1527                      .dwattr $C$DW$163, DW_AT_type(*$C$DW$T$86)
    1528                      .dwattr $C$DW$163, DW_AT_location[DW_OP_bregx 0x24 6]
    1529              $C$DW$164       .dwtag  DW_TAG_variable, DW_AT_name("saveIndex")
    1530                      .dwattr $C$DW$164, DW_AT_TI_symbol_name("_saveIndex")
    1531                      .dwattr $C$DW$164, DW_AT_type(*$C$DW$T$19)
    1532                      .dwattr $C$DW$164, DW_AT_location[DW_OP_bregx 0x24 7]
    1533 00037a C40C          MOV T0, *SP(#6) ; |659| 
    1534 00037c EB08          MOV AC1, dbl(*SP(#4)) ; |659| 
         00037e 18   
    1535 00037f EB04          MOV XAR0, dbl(*SP(#2))
         000381 85   
    1536 000382 EB00          MOV AC0, dbl(*SP(#0)) ; |659| 
         000384 08   
    1537                      .dwpsn  file "F:/eZdsp_DBG/tmp1/c55x-sim2/foo/c5535_bsl_revc/ezdsp5535_v1/c55xx_csl/inc/csl_usbAux.h"
    1538 000385 E60E          MOV #0, *SP(#7) ; |660| 
         000387 00   
    1539                      .dwpsn  file "F:/eZdsp_DBG/tmp1/c55x-sim2/foo/c5535_bsl_revc/ezdsp5535_v1/c55xx_csl/inc/csl_usbAux.h"
    1540 000388 AB31          MOV *(#_usbRegisters), AR3 ; |663| 
         00038a 0000 
         00038c 00!  
    1541 00038d 7604          MOV #1038, T0 ; |663| 
         00038f 0E48 
    1542 000391 A96B          MOV port(*AR3(T0)), AR1 ; |663| 
         000393 99   
    1543 000394 C90E          MOV AR1, *SP(#7) ; |663| 
    1544                      .dwpsn  file "F:/eZdsp_DBG/tmp1/c55x-sim2/foo/c5535_bsl_revc/ezdsp5535_v1/c55xx_csl/inc/csl_usbAux.h"
    1545 000396 F46B          AND #0xfff0, port(*AR3(T0)) ; |666| 
         000398 FFF0 
         00039a 9A   
    1546                      .dwpsn  file "F:/eZdsp_DBG/tmp1/c55x-sim2/foo/c5535_bsl_revc/ezdsp5535_v1/c55xx_csl/inc/csl_usbAux.h"
TMS320C55x Assembler PC v4.4.1 Sat Sep 29 23:08:40 2018

Tools Copyright (c) 1996-2012 Texas Instruments Incorporated
csl_usb_dma_example.asm                                              PAGE   34

    1547 00039b AB31          MOV *(#_usbRegisters), AR3 ; |667| 
         00039d 0000 
         00039f 00!  
    1548 0003a0 ED00          MOV dbl(*SP(#0)), AC0 ; |667| 
         0003a2 08   
    1549 0003a3 DA6B          OR port(*AR3(T0)), AC0, AC0 ; |667| 
         0003a5 00   
         0003a6 99   
    1550 0003a7 C06B          MOV AC0, port(*AR3(T0)) ; |667| 
         0003a9 9A   
    1551                      .dwpsn  file "F:/eZdsp_DBG/tmp1/c55x-sim2/foo/c5535_bsl_revc/ezdsp5535_v1/c55xx_csl/inc/csl_usbAux.h"
    1552 0003aa 7604          MOV #1046, T0 ; |669| 
         0003ac 1648 
    1553 0003ae AB31          MOV *(#_usbRegisters), AR3 ; |669| 
         0003b0 0000 
         0003b2 00!  
    1554 0003b3 F46B          AND #0xdfff, port(*AR3(T0)) ; |669| 
         0003b5 DFFF 
         0003b7 9A   
    1555                      .dwpsn  file "F:/eZdsp_DBG/tmp1/c55x-sim2/foo/c5535_bsl_revc/ezdsp5535_v1/c55xx_csl/inc/csl_usbAux.h"
    1556 0003b8 7604          MOV #1038, T0 ; |672| 
         0003ba 0E48 
    1557 0003bc AB31          MOV *(#_usbRegisters), AR3 ; |672| 
         0003be 0000 
         0003c0 00!  
    1558 0003c1 A90E          MOV *SP(#7), AR1 ; |672| 
    1559 0003c3 C96B          MOV AR1, port(*AR3(T0)) ; |672| 
         0003c5 9A   
    1560                      .dwpsn  file "F:/eZdsp_DBG/tmp1/c55x-sim2/foo/c5535_bsl_revc/ezdsp5535_v1/c55xx_csl/inc/csl_usbAux.h"
    1561 0003c6 F00C          CMP *SP(#6) == #1, TC1 ; |674| 
         0003c8 0001 
    1562 0003ca 65F4          BCC $C$L9,!TC1 ; |674| 
    1563                                                      ; branchcc occurs ; |674| 
    1564                      .dwpsn  file "F:/eZdsp_DBG/tmp1/c55x-sim2/foo/c5535_bsl_revc/ezdsp5535_v1/c55xx_csl/inc/csl_usbAux.h"
    1565 0003cc ED08          MOV dbl(*SP(#4)), AC0 ; |683| 
         0003ce 08   
    1566 0003cf ED04          MOV dbl(*SP(#2)), XAR0
         0003d1 8F   
    1567 0003d2 5001          SFTL AC0, #-1, AC0 ; |683| 
    1568              $C$DW$165       .dwtag  DW_TAG_TI_branch
    1569                      .dwattr $C$DW$165, DW_AT_low_pc(0x00)
    1570                      .dwattr $C$DW$165, DW_AT_name("_USB_swapWords")
    1571                      .dwattr $C$DW$165, DW_AT_TI_call
    1572 0003d4 08FC          CALL #_USB_swapWords ; |683| 
         0003d6 29   
    1573                                                      ; call occurs [#_USB_swapWords] ; |683| 
    1574                      .dwpsn  file "F:/eZdsp_DBG/tmp1/c55x-sim2/foo/c5535_bsl_revc/ezdsp5535_v1/c55xx_csl/inc/csl_usbAux.h"
    1575 0003d7       $C$L9:    
    1576 0003d7 4E09          AADD #9, SP
    1577                      .dwcfi  cfa_offset, 1
    1578              $C$DW$166       .dwtag  DW_TAG_TI_branch
    1579                      .dwattr $C$DW$166, DW_AT_low_pc(0x00)
    1580                      .dwattr $C$DW$166, DW_AT_TI_return
    1581 0003d9 4804          RET
    1582                                                      ; return occurs
TMS320C55x Assembler PC v4.4.1 Sat Sep 29 23:08:40 2018

Tools Copyright (c) 1996-2012 Texas Instruments Incorporated
csl_usb_dma_example.asm                                              PAGE   35

    1583                      .dwattr $C$DW$155, DW_AT_TI_end_file("F:/eZdsp_DBG/tmp1/c55x-sim2/foo/c5535_bsl_revc/ezdsp5535_v1/c55
    1584                      .dwattr $C$DW$155, DW_AT_TI_end_line(0x2ad)
    1585                      .dwattr $C$DW$155, DW_AT_TI_end_column(0x01)
    1586                      .dwendentry
    1587                      .dwendtag $C$DW$155
    1588              
    1589 0003db               .sect   ".text"
    1590                      .align 4
    1591              
    1592              $C$DW$167       .dwtag  DW_TAG_subprogram, DW_AT_name("USB_dmaTxStart")
    1593                      .dwattr $C$DW$167, DW_AT_low_pc(_USB_dmaTxStart)
    1594                      .dwattr $C$DW$167, DW_AT_high_pc(0x00)
    1595                      .dwattr $C$DW$167, DW_AT_TI_symbol_name("_USB_dmaTxStart")
    1596                      .dwattr $C$DW$167, DW_AT_TI_begin_file("F:/eZdsp_DBG/tmp1/c55x-sim2/foo/c5535_bsl_revc/ezdsp5535_v1/c
    1597                      .dwattr $C$DW$167, DW_AT_TI_begin_line(0x2da)
    1598                      .dwattr $C$DW$167, DW_AT_TI_begin_column(0x06)
    1599                      .dwattr $C$DW$167, DW_AT_TI_max_frame_size(0x04)
    1600                      .dwpsn  file "F:/eZdsp_DBG/tmp1/c55x-sim2/foo/c5535_bsl_revc/ezdsp5535_v1/c55xx_csl/inc/csl_usbAux.h"
    1601              
    1602                      .dwfde $C$DW$CIE, _USB_dmaTxStart
    1603              $C$DW$168       .dwtag  DW_TAG_formal_parameter, DW_AT_name("dwEndpoint")
    1604                      .dwattr $C$DW$168, DW_AT_TI_symbol_name("_dwEndpoint")
    1605                      .dwattr $C$DW$168, DW_AT_type(*$C$DW$T$88)
    1606                      .dwattr $C$DW$168, DW_AT_location[DW_OP_reg0]
    1607              ;*******************************************************************************
    1608              ;* FUNCTION NAME: USB_dmaTxStart                                               *
    1609              ;*                                                                             *
    1610              ;*   Function Uses Regs : AC0,AC0,T0,AR1,AR3,SP,M40,SATA,SATD,RDM,FRCT,SMUL    *
    1611              ;*   Stack Frame        : Compact (No Frame Pointer, w/ debug)                 *
    1612              ;*   Total Frame Size   : 4 words                                              *
    1613              ;*                        (1 return address/alignment)                         *
    1614              ;*                        (3 local values)                                     *
    1615              ;*   Min System Stack   : 1 word                                               *
    1616              ;*******************************************************************************
    1617 0003dc       _USB_dmaTxStart:
    1618                      .dwcfi  cfa_offset, 1
    1619                      .dwcfi  save_reg_to_mem, 91, -1
    1620 0003dc 4EFD          AADD #-3, SP
    1621                      .dwcfi  cfa_offset, 4
    1622              $C$DW$169       .dwtag  DW_TAG_variable, DW_AT_name("dwEndpoint")
    1623                      .dwattr $C$DW$169, DW_AT_TI_symbol_name("_dwEndpoint")
    1624                      .dwattr $C$DW$169, DW_AT_type(*$C$DW$T$88)
    1625                      .dwattr $C$DW$169, DW_AT_location[DW_OP_bregx 0x24 0]
    1626              $C$DW$170       .dwtag  DW_TAG_variable, DW_AT_name("saveIndex")
    1627                      .dwattr $C$DW$170, DW_AT_TI_symbol_name("_saveIndex")
    1628                      .dwattr $C$DW$170, DW_AT_type(*$C$DW$T$19)
    1629                      .dwattr $C$DW$170, DW_AT_location[DW_OP_bregx 0x24 2]
    1630 0003de EB00          MOV AC0, dbl(*SP(#0)) ; |731| 
         0003e0 08   
    1631                      .dwpsn  file "F:/eZdsp_DBG/tmp1/c55x-sim2/foo/c5535_bsl_revc/ezdsp5535_v1/c55xx_csl/inc/csl_usbAux.h"
    1632 0003e1 7604          MOV #1038, T0 ; |735| 
         0003e3 0E48 
    1633 0003e5 AB31          MOV *(#_usbRegisters), AR3 ; |735| 
         0003e7 0000 
         0003e9 00!  
TMS320C55x Assembler PC v4.4.1 Sat Sep 29 23:08:40 2018

Tools Copyright (c) 1996-2012 Texas Instruments Incorporated
csl_usb_dma_example.asm                                              PAGE   36

    1634 0003ea A96B          MOV port(*AR3(T0)), AR1 ; |735| 
         0003ec 99   
    1635 0003ed C904          MOV AR1, *SP(#2) ; |735| 
    1636                      .dwpsn  file "F:/eZdsp_DBG/tmp1/c55x-sim2/foo/c5535_bsl_revc/ezdsp5535_v1/c55xx_csl/inc/csl_usbAux.h"
    1637 0003ef F46B          AND #0xfff0, port(*AR3(T0)) ; |738| 
         0003f1 FFF0 
         0003f3 9A   
    1638                      .dwpsn  file "F:/eZdsp_DBG/tmp1/c55x-sim2/foo/c5535_bsl_revc/ezdsp5535_v1/c55xx_csl/inc/csl_usbAux.h"
    1639 0003f4 AB31          MOV *(#_usbRegisters), AR3 ; |739| 
         0003f6 0000 
         0003f8 00!  
    1640 0003f9 ED00          MOV dbl(*SP(#0)), AC0 ; |739| 
         0003fb 08   
    1641 0003fc DA6B          OR port(*AR3(T0)), AC0, AC0 ; |739| 
         0003fe 00   
         0003ff 99   
    1642 000400 C06B          MOV AC0, port(*AR3(T0)) ; |739| 
         000402 9A   
    1643                      .dwpsn  file "F:/eZdsp_DBG/tmp1/c55x-sim2/foo/c5535_bsl_revc/ezdsp5535_v1/c55xx_csl/inc/csl_usbAux.h"
    1644 000403 7604          MOV #1042, T0 ; |742| 
         000405 1248 
    1645 000407 AB31          MOV *(#_usbRegisters), AR3 ; |742| 
         000409 0000 
         00040b 00!  
    1646 00040c A96B          MOV port(*AR3(T0)), AR1 ; |742| 
         00040e 99   
    1647 00040f EC06          BCLR @#3, AR1 ; |742| 
         000411 92   
    1648 000412 EC06          BSET @#3, AR1 ; |742| 
         000414 90   
    1649 000415 C96B          MOV AR1, port(*AR3(T0)) ; |742| 
         000417 9A   
    1650                      .dwpsn  file "F:/eZdsp_DBG/tmp1/c55x-sim2/foo/c5535_bsl_revc/ezdsp5535_v1/c55xx_csl/inc/csl_usbAux.h"
    1651 000418 AB31          MOV *(#_usbRegisters), AR3 ; |745| 
         00041a 0000 
         00041c 00!  
    1652 00041d F46B          AND #0x7fff, port(*AR3(T0)) ; |745| 
         00041f 7FFF 
         000421 9A   
    1653                      .dwpsn  file "F:/eZdsp_DBG/tmp1/c55x-sim2/foo/c5535_bsl_revc/ezdsp5535_v1/c55xx_csl/inc/csl_usbAux.h"
    1654 000422 AB31          MOV *(#_usbRegisters), AR3 ; |746| 
         000424 0000 
         000426 00!  
    1655 000427 F56B          OR #0x1000, port(*AR3(T0)) ; |746| 
         000429 1000 
         00042b 9A   
    1656                      .dwpsn  file "F:/eZdsp_DBG/tmp1/c55x-sim2/foo/c5535_bsl_revc/ezdsp5535_v1/c55xx_csl/inc/csl_usbAux.h"
    1657 00042c AB31          MOV *(#_usbRegisters), AR3 ; |749| 
         00042e 0000 
         000430 00!  
    1658 000431 F56B          OR #0x1000, port(*AR3(T0)) ; |749| 
         000433 1000 
         000435 9A   
    1659                      .dwpsn  file "F:/eZdsp_DBG/tmp1/c55x-sim2/foo/c5535_bsl_revc/ezdsp5535_v1/c55xx_csl/inc/csl_usbAux.h"
    1660 000436 7604          MOV #1038, T0 ; |752| 
TMS320C55x Assembler PC v4.4.1 Sat Sep 29 23:08:40 2018

Tools Copyright (c) 1996-2012 Texas Instruments Incorporated
csl_usb_dma_example.asm                                              PAGE   37

         000438 0E48 
    1661 00043a AB31          MOV *(#_usbRegisters), AR3 ; |752| 
         00043c 0000 
         00043e 00!  
    1662 00043f A904          MOV *SP(#2), AR1 ; |752| 
    1663 000441 C96B          MOV AR1, port(*AR3(T0)) ; |752| 
         000443 9A   
    1664                      .dwpsn  file "F:/eZdsp_DBG/tmp1/c55x-sim2/foo/c5535_bsl_revc/ezdsp5535_v1/c55xx_csl/inc/csl_usbAux.h"
    1665 000444 4E03          AADD #3, SP
    1666                      .dwcfi  cfa_offset, 1
    1667              $C$DW$171       .dwtag  DW_TAG_TI_branch
    1668                      .dwattr $C$DW$171, DW_AT_low_pc(0x00)
    1669                      .dwattr $C$DW$171, DW_AT_TI_return
    1670 000446 4804          RET
    1671                                                      ; return occurs
    1672                      .dwattr $C$DW$167, DW_AT_TI_end_file("F:/eZdsp_DBG/tmp1/c55x-sim2/foo/c5535_bsl_revc/ezdsp5535_v1/c55
    1673                      .dwattr $C$DW$167, DW_AT_TI_end_line(0x2f1)
    1674                      .dwattr $C$DW$167, DW_AT_TI_end_column(0x01)
    1675                      .dwendentry
    1676                      .dwendtag $C$DW$167
    1677              
    1678 000448               .sect   ".text"
    1679                      .align 4
    1680              
    1681              $C$DW$172       .dwtag  DW_TAG_subprogram, DW_AT_name("USB_processEP0Out")
    1682                      .dwattr $C$DW$172, DW_AT_low_pc(_USB_processEP0Out)
    1683                      .dwattr $C$DW$172, DW_AT_high_pc(0x00)
    1684                      .dwattr $C$DW$172, DW_AT_TI_symbol_name("_USB_processEP0Out")
    1685                      .dwattr $C$DW$172, DW_AT_type(*$C$DW$T$80)
    1686                      .dwattr $C$DW$172, DW_AT_TI_begin_file("F:/eZdsp_DBG/tmp1/c55x-sim2/foo/c5535_bsl_revc/ezdsp5535_v1/c
    1687                      .dwattr $C$DW$172, DW_AT_TI_begin_line(0x511)
    1688                      .dwattr $C$DW$172, DW_AT_TI_begin_column(0x0c)
    1689                      .dwattr $C$DW$172, DW_AT_TI_max_frame_size(0x0a)
    1690                      .dwpsn  file "F:/eZdsp_DBG/tmp1/c55x-sim2/foo/c5535_bsl_revc/ezdsp5535_v1/c55xx_csl/inc/csl_usbAux.h"
    1691              
    1692                      .dwfde $C$DW$CIE, _USB_processEP0Out
    1693              $C$DW$173       .dwtag  DW_TAG_formal_parameter, DW_AT_name("pContext")
    1694                      .dwattr $C$DW$173, DW_AT_TI_symbol_name("_pContext")
    1695                      .dwattr $C$DW$173, DW_AT_type(*$C$DW$T$164)
    1696                      .dwattr $C$DW$173, DW_AT_location[DW_OP_reg17]
    1697              ;*******************************************************************************
    1698              ;* FUNCTION NAME: USB_processEP0Out                                            *
    1699              ;*                                                                             *
    1700              ;*   Function Uses Regs : AC0,AC0,AC1,AC1,T0,AR0,XAR0,AR1,XAR1,AR2,XAR2,AR3,   *
    1701              ;*                        XAR3,SP,CARRY,TC1,M40,SATA,SATD,RDM,FRCT,SMUL        *
    1702              ;*   Stack Frame        : Compact (No Frame Pointer, w/ debug)                 *
    1703              ;*   Total Frame Size   : 10 words                                             *
    1704              ;*                        (1 return address/alignment)                         *
    1705              ;*                        (9 local values)                                     *
    1706              ;*   Min System Stack   : 1 word                                               *
    1707              ;*******************************************************************************
    1708 000448       _USB_processEP0Out:
    1709                      .dwcfi  cfa_offset, 1
    1710                      .dwcfi  save_reg_to_mem, 91, -1
    1711 000448 4EF7          AADD #-9, SP
TMS320C55x Assembler PC v4.4.1 Sat Sep 29 23:08:40 2018

Tools Copyright (c) 1996-2012 Texas Instruments Incorporated
csl_usb_dma_example.asm                                              PAGE   38

    1712                      .dwcfi  cfa_offset, 10
    1713              $C$DW$174       .dwtag  DW_TAG_variable, DW_AT_name("pContext")
    1714                      .dwattr $C$DW$174, DW_AT_TI_symbol_name("_pContext")
    1715                      .dwattr $C$DW$174, DW_AT_type(*$C$DW$T$164)
    1716                      .dwattr $C$DW$174, DW_AT_location[DW_OP_bregx 0x24 0]
    1717              $C$DW$175       .dwtag  DW_TAG_variable, DW_AT_name("peps")
    1718                      .dwattr $C$DW$175, DW_AT_TI_symbol_name("_peps")
    1719                      .dwattr $C$DW$175, DW_AT_type(*$C$DW$T$168)
    1720                      .dwattr $C$DW$175, DW_AT_location[DW_OP_bregx 0x24 2]
    1721              $C$DW$176       .dwtag  DW_TAG_variable, DW_AT_name("pTransfer")
    1722                      .dwattr $C$DW$176, DW_AT_TI_symbol_name("_pTransfer")
    1723                      .dwattr $C$DW$176, DW_AT_type(*$C$DW$T$172)
    1724                      .dwattr $C$DW$176, DW_AT_location[DW_OP_bregx 0x24 4]
    1725              $C$DW$177       .dwtag  DW_TAG_variable, DW_AT_name("pwBuffer")
    1726                      .dwattr $C$DW$177, DW_AT_TI_symbol_name("_pwBuffer")
    1727                      .dwattr $C$DW$177, DW_AT_type(*$C$DW$T$87)
    1728                      .dwattr $C$DW$177, DW_AT_location[DW_OP_bregx 0x24 6]
    1729              $C$DW$178       .dwtag  DW_TAG_variable, DW_AT_name("status")
    1730                      .dwattr $C$DW$178, DW_AT_TI_symbol_name("_status")
    1731                      .dwattr $C$DW$178, DW_AT_type(*$C$DW$T$80)
    1732                      .dwattr $C$DW$178, DW_AT_location[DW_OP_bregx 0x24 8]
    1733 00044a EB00          MOV XAR0, dbl(*SP(#0))
         00044c 85   
    1734                      .dwpsn  file "F:/eZdsp_DBG/tmp1/c55x-sim2/foo/c5535_bsl_revc/ezdsp5535_v1/c55xx_csl/inc/csl_usbAux.h"
    1735 00044d E610          MOV #0, *SP(#8) ; |1304| 
         00044f 00   
    1736                      .dwpsn  file "F:/eZdsp_DBG/tmp1/c55x-sim2/foo/c5535_bsl_revc/ezdsp5535_v1/c55xx_csl/inc/csl_usbAux.h"
    1737 000450 ED00          MOV dbl(*SP(#0)), XAR3
         000452 BF   
    1738 000453 90B0          MOV XAR3, AC0
    1739 000455 6D00          BCC $C$L13,AC0 == #0 ; |1306| 
         000457 00A9 
    1740                                                      ; branchcc occurs ; |1306| 
    1741                      .dwpsn  file "F:/eZdsp_DBG/tmp1/c55x-sim2/foo/c5535_bsl_revc/ezdsp5535_v1/c55xx_csl/inc/csl_usbAux.h"
    1742 000459 ED6D          MOV dbl(*AR3(#98)), XAR3
         00045b BF00 
         00045d 62   
    1743 00045e EB04          MOV XAR3, dbl(*SP(#2))
         000460 B5   
    1744                      .dwpsn  file "F:/eZdsp_DBG/tmp1/c55x-sim2/foo/c5535_bsl_revc/ezdsp5535_v1/c55xx_csl/inc/csl_usbAux.h"
    1745 000461 ED6D          MOV dbl(*AR3(#10)), XAR3
         000463 BF00 
         000465 0A   
    1746 000466 EB08          MOV XAR3, dbl(*SP(#4))
         000468 B5   
    1747                      .dwpsn  file "F:/eZdsp_DBG/tmp1/c55x-sim2/foo/c5535_bsl_revc/ezdsp5535_v1/c55xx_csl/inc/csl_usbAux.h"
    1748 000469 90B0          MOV XAR3, AC0
    1749 00046b 6D00          BCC $C$L12,AC0 == #0 ; |1311| 
         00046d 008E 
    1750                                                      ; branchcc occurs ; |1311| 
    1751 00046f A96D          MOV *AR3(#12), AR1 ; |1311| 
         000471 000C 
    1752 000473 6D19          BCC $C$L12,AR1 != #0 ; |1311| 
         000475 0086 
    1753                                                      ; branchcc occurs ; |1311| 
TMS320C55x Assembler PC v4.4.1 Sat Sep 29 23:08:40 2018

Tools Copyright (c) 1996-2012 Texas Instruments Incorporated
csl_usb_dma_example.asm                                              PAGE   39

    1754                      .dwpsn  file "F:/eZdsp_DBG/tmp1/c55x-sim2/foo/c5535_bsl_revc/ezdsp5535_v1/c55xx_csl/inc/csl_usbAux.h"
    1755 000477 ED6D          MOV dbl(*AR3(#8)), AC0 ; |1314| 
         000479 0800 
         00047b 08   
    1756 00047c ED79          MOV dbl(*AR3(short(#4))), XAR3
         00047e BF   
    1757 00047f 5001          SFTL AC0, #-1 ; |1314| 
    1758 000481 2209          MOV AC0, AR1 ; |1314| 
    1759              
    1760 000483 8E0C          MOV XAR3, dbl(*SP(#6))
         000485 BB10 
         000487 B590 
    1761              ||      AADD AR1, AR3 ; |1314| 
    1762              
    1763                      .dwpsn  file "F:/eZdsp_DBG/tmp1/c55x-sim2/foo/c5535_bsl_revc/ezdsp5535_v1/c55xx_csl/inc/csl_usbAux.h"
    1764 000489 ED08          MOV dbl(*SP(#4)), XAR3
         00048b BF   
    1765 00048c ED7D          MOV dbl(*AR3(short(#6))), AC0 ; |1323| 
         00048e 08   
    1766 00048f ED00          MOV dbl(*SP(#0)), XAR3
         000491 BF   
    1767 000492 DF6D          MOV uns(*AR3(#24)), AC1 ; |1323| 
         000494 1500 
         000496 18   
    1768 000497 1218          CMPU AC1 >= AC0, TC1 ; |1323| 
         000499 04   
    1769 00049a 63E4          BCC $C$L10,TC1 ; |1323| 
    1770                                                      ; branchcc occurs ; |1323| 
    1771 00049c DF6D          MOV uns(*AR3(#24)), AC0 ; |1323| 
         00049e 0500 
         0004a0 18   
    1772 0004a1 4A06          B $C$L11  ; |1323| 
    1773                                                      ; branch occurs ; |1323| 
    1774 0004a3       $C$L10:    
    1775 0004a3 ED08          MOV dbl(*SP(#4)), XAR3
         0004a5 BF   
    1776 0004a6 ED7D          MOV dbl(*AR3(short(#6))), AC0 ; |1323| 
         0004a8 08   
    1777 0004a9       $C$L11:    
    1778 0004a9 ED08          MOV dbl(*SP(#4)), XAR3
         0004ab BF   
    1779 0004ac EB6D          MOV AC0, dbl(*AR3(#8)) ; |1323| 
         0004ae 0800 
         0004b0 08   
    1780                      .dwpsn  file "F:/eZdsp_DBG/tmp1/c55x-sim2/foo/c5535_bsl_revc/ezdsp5535_v1/c55xx_csl/inc/csl_usbAux.h"
    1781 0004b1 ED08          MOV dbl(*SP(#4)), XAR3
         0004b3 BF   
    1782 0004b4 ED00          MOV dbl(*SP(#0)), XAR1
         0004b6 9F   
    1783 0004b7 ED0C          MOV dbl(*SP(#6)), XAR0
         0004b9 8F   
    1784 0004ba ED6D          MOV dbl(*AR3(#8)), AC0 ; |1326| 
         0004bc 0800 
         0004be 08   
    1785 0004bf 4010          ADD #1, AC0 ; |1326| 
TMS320C55x Assembler PC v4.4.1 Sat Sep 29 23:08:40 2018

Tools Copyright (c) 1996-2012 Texas Instruments Incorporated
csl_usb_dma_example.asm                                              PAGE   40

    1786              
    1787 0004c4 5101          SFTL AC0, #-1 ; |1326| 
    1788 0004c1 141A  ||      AADD #26, AR1 ; |1326| 
         0004c3 94   
    1789              
    1790              $C$DW$179       .dwtag  DW_TAG_TI_branch
    1791                      .dwattr $C$DW$179, DW_AT_low_pc(0x00)
    1792                      .dwattr $C$DW$179, DW_AT_name("_memcpy")
    1793                      .dwattr $C$DW$179, DW_AT_TI_call
    1794              
    1795 0004c6 6C00          CALL #_memcpy ; |1326| 
         0004c8 0000!
    1796 0004ca 2304  ||      MOV AC0, T0 ; |1326| 
    1797              
    1798                                                      ; call occurs [#_memcpy] ; |1326| 
    1799                      .dwpsn  file "F:/eZdsp_DBG/tmp1/c55x-sim2/foo/c5535_bsl_revc/ezdsp5535_v1/c55xx_csl/inc/csl_usbAux.h"
    1800 0004cc ED00          MOV dbl(*SP(#0)), XAR3
         0004ce BF   
    1801 0004cf E679          MOV #0, *AR3(short(#4)) ; |1329| 
         0004d1 00   
    1802                      .dwpsn  file "F:/eZdsp_DBG/tmp1/c55x-sim2/foo/c5535_bsl_revc/ezdsp5535_v1/c55xx_csl/inc/csl_usbAux.h"
    1803 0004d2 ED08          MOV dbl(*SP(#4)), XAR3
         0004d4 BF   
    1804 0004d5 E66D          MOV #1, *AR3(#12) ; |1330| 
         0004d7 0100 
         0004d9 0C   
    1805                      .dwpsn  file "F:/eZdsp_DBG/tmp1/c55x-sim2/foo/c5535_bsl_revc/ezdsp5535_v1/c55xx_csl/inc/csl_usbAux.h"
    1806 0004da ED08          MOV dbl(*SP(#4)), XAR2
         0004dc AF   
    1807 0004dd ED08          MOV dbl(*SP(#4)), XAR3
         0004df BF   
    1808              
    1809 0004e0 1408          AADD #8, AR3 ; |1331| 
         0004e2 B4   
    1810 0004e3 150A  ||      AADD #10, AR2 ; |1331| 
         0004e5 AC   
    1811              
    1812 0004e6 8061          MOV dbl(*AR3), dbl(*AR2) ; |1331| 
         0004e8 00   
    1813                      .dwpsn  file "F:/eZdsp_DBG/tmp1/c55x-sim2/foo/c5535_bsl_revc/ezdsp5535_v1/c55xx_csl/inc/csl_usbAux.h"
    1814 0004e9 ED00          MOV dbl(*SP(#0)), XAR3
         0004eb BF   
    1815 0004ec ED00          MOV dbl(*SP(#0)), XAR0
         0004ee 8F   
    1816 0004ef ED04          MOV dbl(*SP(#2)), XAR1
         0004f1 9F   
    1817 0004f2 ED6D          MOV dbl(*AR3(#116)), AC0 ; |1337| 
         0004f4 0800 
         0004f6 74   
    1818              $C$DW$180       .dwtag  DW_TAG_TI_branch
    1819                      .dwattr $C$DW$180, DW_AT_low_pc(0x00)
    1820                      .dwattr $C$DW$180, DW_AT_TI_call
    1821                      .dwattr $C$DW$180, DW_AT_TI_indirect
    1822 0004f7 9200          CALL AC0  ; |1337| 
    1823                                                      ; call occurs [AC0] ; |1337| 
TMS320C55x Assembler PC v4.4.1 Sat Sep 29 23:08:40 2018

Tools Copyright (c) 1996-2012 Texas Instruments Incorporated
csl_usb_dma_example.asm                                              PAGE   41

    1824 0004f9 C410          MOV T0, *SP(#8) ; |1337| 
    1825                      .dwpsn  file "F:/eZdsp_DBG/tmp1/c55x-sim2/foo/c5535_bsl_revc/ezdsp5535_v1/c55xx_csl/inc/csl_usbAux.h"
    1826 0004fb 4A08          B $C$L14  ; |1338| 
    1827                                                      ; branch occurs ; |1338| 
    1828 0004fd       $C$L12:    
    1829                      .dwpsn  file "F:/eZdsp_DBG/tmp1/c55x-sim2/foo/c5535_bsl_revc/ezdsp5535_v1/c55xx_csl/inc/csl_usbAux.h"
    1830 0004fd E610          MOV #-6, *SP(#8) ; |1341| 
         0004ff FA   
    1831                      .dwpsn  file "F:/eZdsp_DBG/tmp1/c55x-sim2/foo/c5535_bsl_revc/ezdsp5535_v1/c55xx_csl/inc/csl_usbAux.h"
    1832 000500 4A03          B $C$L14  ; |1343| 
    1833                                                      ; branch occurs ; |1343| 
    1834 000502       $C$L13:    
    1835                      .dwpsn  file "F:/eZdsp_DBG/tmp1/c55x-sim2/foo/c5535_bsl_revc/ezdsp5535_v1/c55xx_csl/inc/csl_usbAux.h"
    1836 000502 E610          MOV #-6, *SP(#8) ; |1346| 
         000504 FA   
    1837 000505       $C$L14:    
    1838                      .dwpsn  file "F:/eZdsp_DBG/tmp1/c55x-sim2/foo/c5535_bsl_revc/ezdsp5535_v1/c55xx_csl/inc/csl_usbAux.h"
    1839 000505 A410          MOV *SP(#8), T0 ; |1348| 
    1840                      .dwpsn  file "F:/eZdsp_DBG/tmp1/c55x-sim2/foo/c5535_bsl_revc/ezdsp5535_v1/c55xx_csl/inc/csl_usbAux.h"
    1841 000507 4E09          AADD #9, SP
    1842                      .dwcfi  cfa_offset, 1
    1843              $C$DW$181       .dwtag  DW_TAG_TI_branch
    1844                      .dwattr $C$DW$181, DW_AT_low_pc(0x00)
    1845                      .dwattr $C$DW$181, DW_AT_TI_return
    1846 000509 4804          RET
    1847                                                      ; return occurs
    1848                      .dwattr $C$DW$172, DW_AT_TI_end_file("F:/eZdsp_DBG/tmp1/c55x-sim2/foo/c5535_bsl_revc/ezdsp5535_v1/c55
    1849                      .dwattr $C$DW$172, DW_AT_TI_end_line(0x545)
    1850                      .dwattr $C$DW$172, DW_AT_TI_end_column(0x01)
    1851                      .dwendentry
    1852                      .dwendtag $C$DW$172
    1853              
    1854 00050b               .sect   ".text"
    1855                      .align 4
    1856              
    1857              $C$DW$182       .dwtag  DW_TAG_subprogram, DW_AT_name("USB_processEP0In")
    1858                      .dwattr $C$DW$182, DW_AT_low_pc(_USB_processEP0In)
    1859                      .dwattr $C$DW$182, DW_AT_high_pc(0x00)
    1860                      .dwattr $C$DW$182, DW_AT_TI_symbol_name("_USB_processEP0In")
    1861                      .dwattr $C$DW$182, DW_AT_type(*$C$DW$T$80)
    1862                      .dwattr $C$DW$182, DW_AT_TI_begin_file("F:/eZdsp_DBG/tmp1/c55x-sim2/foo/c5535_bsl_revc/ezdsp5535_v1/c
    1863                      .dwattr $C$DW$182, DW_AT_TI_begin_line(0x576)
    1864                      .dwattr $C$DW$182, DW_AT_TI_begin_column(0x0c)
    1865                      .dwattr $C$DW$182, DW_AT_TI_max_frame_size(0x12)
    1866                      .dwpsn  file "F:/eZdsp_DBG/tmp1/c55x-sim2/foo/c5535_bsl_revc/ezdsp5535_v1/c55xx_csl/inc/csl_usbAux.h"
    1867              
    1868                      .dwfde $C$DW$CIE, _USB_processEP0In
    1869              $C$DW$183       .dwtag  DW_TAG_formal_parameter, DW_AT_name("pContext")
    1870                      .dwattr $C$DW$183, DW_AT_TI_symbol_name("_pContext")
    1871                      .dwattr $C$DW$183, DW_AT_type(*$C$DW$T$164)
    1872                      .dwattr $C$DW$183, DW_AT_location[DW_OP_reg17]
    1873              ;*******************************************************************************
    1874              ;* FUNCTION NAME: USB_processEP0In                                             *
    1875              ;*                                                                             *
    1876              ;*   Function Uses Regs : AC0,AC0,AC1,AC1,T0,AR0,XAR0,AR1,XAR1,AR2,AR3,XAR3,   *
TMS320C55x Assembler PC v4.4.1 Sat Sep 29 23:08:40 2018

Tools Copyright (c) 1996-2012 Texas Instruments Incorporated
csl_usb_dma_example.asm                                              PAGE   42

    1877              ;*                        AR4,SP,CARRY,TC1,M40,SATA,SATD,RDM,FRCT,SMUL         *
    1878              ;*   Stack Frame        : Compact (No Frame Pointer, w/ debug)                 *
    1879              ;*   Total Frame Size   : 18 words                                             *
    1880              ;*                        (2 return address/alignment)                         *
    1881              ;*                        (16 local values)                                    *
    1882              ;*   Min System Stack   : 1 word                                               *
    1883              ;*******************************************************************************
    1884 00050c       _USB_processEP0In:
    1885                      .dwcfi  cfa_offset, 1
    1886                      .dwcfi  save_reg_to_mem, 91, -1
    1887 00050c 4EEF          AADD #-17, SP
    1888                      .dwcfi  cfa_offset, 18
    1889              $C$DW$184       .dwtag  DW_TAG_variable, DW_AT_name("pContext")
    1890                      .dwattr $C$DW$184, DW_AT_TI_symbol_name("_pContext")
    1891                      .dwattr $C$DW$184, DW_AT_type(*$C$DW$T$164)
    1892                      .dwattr $C$DW$184, DW_AT_location[DW_OP_bregx 0x24 0]
    1893              $C$DW$185       .dwtag  DW_TAG_variable, DW_AT_name("peps")
    1894                      .dwattr $C$DW$185, DW_AT_TI_symbol_name("_peps")
    1895                      .dwattr $C$DW$185, DW_AT_type(*$C$DW$T$168)
    1896                      .dwattr $C$DW$185, DW_AT_location[DW_OP_bregx 0x24 2]
    1897              $C$DW$186       .dwtag  DW_TAG_variable, DW_AT_name("pTransfer")
    1898                      .dwattr $C$DW$186, DW_AT_TI_symbol_name("_pTransfer")
    1899                      .dwattr $C$DW$186, DW_AT_type(*$C$DW$T$172)
    1900                      .dwattr $C$DW$186, DW_AT_location[DW_OP_bregx 0x24 4]
    1901              $C$DW$187       .dwtag  DW_TAG_variable, DW_AT_name("status")
    1902                      .dwattr $C$DW$187, DW_AT_TI_symbol_name("_status")
    1903                      .dwattr $C$DW$187, DW_AT_type(*$C$DW$T$80)
    1904                      .dwattr $C$DW$187, DW_AT_location[DW_OP_bregx 0x24 6]
    1905              $C$DW$188       .dwtag  DW_TAG_variable, DW_AT_name("pwBuffer")
    1906                      .dwattr $C$DW$188, DW_AT_TI_symbol_name("_pwBuffer")
    1907                      .dwattr $C$DW$188, DW_AT_type(*$C$DW$T$228)
    1908                      .dwattr $C$DW$188, DW_AT_location[DW_OP_bregx 0x24 8]
    1909              $C$DW$189       .dwtag  DW_TAG_variable, DW_AT_name("cbBuffer")
    1910                      .dwattr $C$DW$189, DW_AT_TI_symbol_name("_cbBuffer")
    1911                      .dwattr $C$DW$189, DW_AT_type(*$C$DW$T$88)
    1912                      .dwattr $C$DW$189, DW_AT_location[DW_OP_bregx 0x24 10]
    1913              $C$DW$190       .dwtag  DW_TAG_variable, DW_AT_name("cbToWrite")
    1914                      .dwattr $C$DW$190, DW_AT_TI_symbol_name("_cbToWrite")
    1915                      .dwattr $C$DW$190, DW_AT_type(*$C$DW$T$85)
    1916                      .dwattr $C$DW$190, DW_AT_location[DW_OP_bregx 0x24 12]
    1917              $C$DW$191       .dwtag  DW_TAG_variable, DW_AT_name("count")
    1918                      .dwattr $C$DW$191, DW_AT_TI_symbol_name("_count")
    1919                      .dwattr $C$DW$191, DW_AT_type(*$C$DW$T$19)
    1920                      .dwattr $C$DW$191, DW_AT_location[DW_OP_bregx 0x24 13]
    1921              $C$DW$192       .dwtag  DW_TAG_variable, DW_AT_name("flag")
    1922                      .dwattr $C$DW$192, DW_AT_TI_symbol_name("_flag")
    1923                      .dwattr $C$DW$192, DW_AT_type(*$C$DW$T$19)
    1924                      .dwattr $C$DW$192, DW_AT_location[DW_OP_bregx 0x24 14]
    1925              $C$DW$193       .dwtag  DW_TAG_variable, DW_AT_name("saveIndex")
    1926                      .dwattr $C$DW$193, DW_AT_TI_symbol_name("_saveIndex")
    1927                      .dwattr $C$DW$193, DW_AT_type(*$C$DW$T$19)
    1928                      .dwattr $C$DW$193, DW_AT_location[DW_OP_bregx 0x24 15]
    1929 00050e EB00          MOV XAR0, dbl(*SP(#0))
         000510 85   
    1930                      .dwpsn  file "F:/eZdsp_DBG/tmp1/c55x-sim2/foo/c5535_bsl_revc/ezdsp5535_v1/c55xx_csl/inc/csl_usbAux.h"
TMS320C55x Assembler PC v4.4.1 Sat Sep 29 23:08:40 2018

Tools Copyright (c) 1996-2012 Texas Instruments Incorporated
csl_usb_dma_example.asm                                              PAGE   43

    1931 000511 E61C          MOV #0, *SP(#14) ; |1410| 
         000513 00   
    1932                      .dwpsn  file "F:/eZdsp_DBG/tmp1/c55x-sim2/foo/c5535_bsl_revc/ezdsp5535_v1/c55xx_csl/inc/csl_usbAux.h"
    1933 000514 E60C          MOV #0, *SP(#6) ; |1411| 
         000516 00   
    1934                      .dwpsn  file "F:/eZdsp_DBG/tmp1/c55x-sim2/foo/c5535_bsl_revc/ezdsp5535_v1/c55xx_csl/inc/csl_usbAux.h"
    1935 000517 ED00          MOV dbl(*SP(#0)), XAR3
         000519 BF   
    1936 00051a 90B0          MOV XAR3, AC0
    1937 00051c 6D00          BCC $C$L27,AC0 == #0 ; |1413| 
         00051e 01BF 
    1938                                                      ; branchcc occurs ; |1413| 
    1939                      .dwpsn  file "F:/eZdsp_DBG/tmp1/c55x-sim2/foo/c5535_bsl_revc/ezdsp5535_v1/c55xx_csl/inc/csl_usbAux.h"
    1940 000520 ED6D          MOV dbl(*AR3(#98)), XAR3
         000522 BF00 
         000524 62   
    1941 000525 EB04          MOV XAR3, dbl(*SP(#2))
         000527 B5   
    1942                      .dwpsn  file "F:/eZdsp_DBG/tmp1/c55x-sim2/foo/c5535_bsl_revc/ezdsp5535_v1/c55xx_csl/inc/csl_usbAux.h"
    1943 000528 ED6D          MOV dbl(*AR3(#10)), XAR3
         00052a BF00 
         00052c 0A   
    1944 00052d EB08          MOV XAR3, dbl(*SP(#4))
         00052f B5   
    1945                      .dwpsn  file "F:/eZdsp_DBG/tmp1/c55x-sim2/foo/c5535_bsl_revc/ezdsp5535_v1/c55xx_csl/inc/csl_usbAux.h"
    1946 000530 90B0          MOV XAR3, AC0
    1947 000532 6D00          BCC $C$L26,AC0 == #0 ; |1418| 
         000534 01A4 
    1948                                                      ; branchcc occurs ; |1418| 
    1949 000536 A96D          MOV *AR3(#12), AR1 ; |1418| 
         000538 000C 
    1950 00053a 6D19          BCC $C$L26,AR1 != #0 ; |1418| 
         00053c 019C 
    1951                                                      ; branchcc occurs ; |1418| 
    1952                      .dwpsn  file "F:/eZdsp_DBG/tmp1/c55x-sim2/foo/c5535_bsl_revc/ezdsp5535_v1/c55xx_csl/inc/csl_usbAux.h"
    1953 00053e ED6D          MOV dbl(*AR3(#8)), AC0 ; |1421| 
         000540 0800 
         000542 08   
    1954 000543 ED79          MOV dbl(*AR3(short(#4))), XAR3
         000545 BF   
    1955 000546 5001          SFTL AC0, #-1 ; |1421| 
    1956 000548 2209          MOV AC0, AR1 ; |1421| 
    1957              
    1958 00054a 8E10          MOV XAR3, dbl(*SP(#8))
         00054c BB10 
         00054e B590 
    1959              ||      AADD AR1, AR3 ; |1421| 
    1960              
    1961                      .dwpsn  file "F:/eZdsp_DBG/tmp1/c55x-sim2/foo/c5535_bsl_revc/ezdsp5535_v1/c55xx_csl/inc/csl_usbAux.h"
    1962 000550 ED08          MOV dbl(*SP(#4)), XAR3
         000552 BF   
    1963 000553 ED6D          MOV dbl(*AR3(#8)), AC0 ; |1422| 
         000555 0800 
         000557 08   
    1964 000558 ED7D          SUB AC0, dbl(*AR3(short(#6))), AC0 ; |1422| 
TMS320C55x Assembler PC v4.4.1 Sat Sep 29 23:08:40 2018

Tools Copyright (c) 1996-2012 Texas Instruments Incorporated
csl_usb_dma_example.asm                                              PAGE   44

         00055a 04   
    1965 00055b EB14          MOV AC0, dbl(*SP(#10)) ; |1422| 
         00055d 08   
    1966                      .dwpsn  file "F:/eZdsp_DBG/tmp1/c55x-sim2/foo/c5535_bsl_revc/ezdsp5535_v1/c55xx_csl/inc/csl_usbAux.h"
    1967 00055e ED04          MOV dbl(*SP(#2)), XAR3
         000560 BF   
    1968 000561 ED14          MOV dbl(*SP(#10)), AC1 ; |1430| 
         000563 18   
    1969 000564 ED79          MOV dbl(*AR3(short(#4))), AC0 ; |1430| 
         000566 08   
    1970 000567 1218          CMPU AC1 >= AC0, TC1 ; |1430| 
         000569 04   
    1971 00056a 62E4          BCC $C$L15,TC1 ; |1430| 
    1972                                                      ; branchcc occurs ; |1430| 
    1973 00056c ED14          MOV dbl(*SP(#10)), AC0 ; |1430| 
         00056e 08   
    1974 00056f 4A03          B $C$L16  ; |1430| 
    1975                                                      ; branch occurs ; |1430| 
    1976 000571       $C$L15:    
    1977 000571 ED79          MOV dbl(*AR3(short(#4))), AC0 ; |1430| 
         000573 08   
    1978 000574       $C$L16:    
    1979 000574 7600          MOV #64, AR1 ; |1451| 
         000576 4098 
    1980              
    1981 000578 C018          MOV AC0, *SP(#12) ; |1430| 
    1982 00057a 3D1A  ||      MOV #1, AR2
    1983              
    1984                      .dwpsn  file "F:/eZdsp_DBG/tmp1/c55x-sim2/foo/c5535_bsl_revc/ezdsp5535_v1/c55xx_csl/inc/csl_usbAux.h"
    1985 00057c       $C$L17:    
    1986 00057c       $C$DW$L$_USB_processEP0In$8$B:
    1987                      .dwpsn  file "F:/eZdsp_DBG/tmp1/c55x-sim2/foo/c5535_bsl_revc/ezdsp5535_v1/c55xx_csl/inc/csl_usbAux.h"
    1988 00057c E61A          MOV #0, *SP(#13) ; |1435| 
         00057e 00   
    1989                      .dwpsn  file "F:/eZdsp_DBG/tmp1/c55x-sim2/foo/c5535_bsl_revc/ezdsp5535_v1/c55xx_csl/inc/csl_usbAux.h"
    1990 00057f AB18          MOV *SP(#12), AR3 ; |1435| 
    1991              
    1992 000583 51B1          SFTL AR3, #-1 ; |1435| 
    1993 000581 AC1A  ||      MOV *SP(#13), AR4 ; |1435| 
    1994              
    1995 000585 12C8          CMPU AR4 >= AR3, TC1 ; |1435| 
         000587 B4   
    1996 000588 0464          BCC $C$L19,TC1 ; |1435| 
         00058a 29   
    1997                                                      ; branchcc occurs ; |1435| 
    1998 00058b       $C$DW$L$_USB_processEP0In$8$E:
    1999 00058b       $C$L18:    
    2000 00058b       $C$DW$L$_USB_processEP0In$9$B:
    2001                      .dwpsn  file "F:/eZdsp_DBG/tmp1/c55x-sim2/foo/c5535_bsl_revc/ezdsp5535_v1/c55xx_csl/inc/csl_usbAux.h"
    2002 00058b ED10          MOV dbl(*SP(#8)), XAR3
         00058d BF   
    2003 00058e 7604          MOV #1057, T0 ; |1437| 
         000590 2148 
    2004 000592 AC61          MOV *AR3, AR4 ; |1437| 
    2005 000594 AB31          MOV *(#_usbRegisters), AR3 ; |1437| 
TMS320C55x Assembler PC v4.4.1 Sat Sep 29 23:08:40 2018

Tools Copyright (c) 1996-2012 Texas Instruments Incorporated
csl_usb_dma_example.asm                                              PAGE   45

         000596 0000 
         000598 00!  
    2006 000599 CC6B          MOV AR4, port(*AR3(T0)) ; |1437| 
         00059b 9A   
    2007                      .dwpsn  file "F:/eZdsp_DBG/tmp1/c55x-sim2/foo/c5535_bsl_revc/ezdsp5535_v1/c55xx_csl/inc/csl_usbAux.h"
    2008 00059c ED10          MOV dbl(*SP(#8)), XAR3
         00059e BF   
    2009 00059f B463          AMAR *AR3+
    2010 0005a1 EB10          MOV XAR3, dbl(*SP(#8))
         0005a3 B5   
    2011                      .dwpsn  file "F:/eZdsp_DBG/tmp1/c55x-sim2/foo/c5535_bsl_revc/ezdsp5535_v1/c55xx_csl/inc/csl_usbAux.h"
    2012 0005a4 F71A          ADD #1, *SP(#13) ; |1435| 
         0005a6 0001 
    2013                      .dwpsn  file "F:/eZdsp_DBG/tmp1/c55x-sim2/foo/c5535_bsl_revc/ezdsp5535_v1/c55xx_csl/inc/csl_usbAux.h"
    2014 0005a8 AB18          MOV *SP(#12), AR3 ; |1435| 
    2015              
    2016 0005ac 51B1          SFTL AR3, #-1 ; |1435| 
    2017 0005aa AC1A  ||      MOV *SP(#13), AR4 ; |1435| 
    2018              
    2019 0005ae 12C4          CMPU AR4 < AR3, TC1 ; |1435| 
         0005b0 B4   
    2020 0005b1 0464          BCC $C$L18,TC1 ; |1435| 
         0005b3 D7   
    2021                                                      ; branchcc occurs ; |1435| 
    2022 0005b4       $C$DW$L$_USB_processEP0In$9$E:
    2023 0005b4       $C$L19:    
    2024 0005b4       $C$DW$L$_USB_processEP0In$10$B:
    2025                      .dwpsn  file "F:/eZdsp_DBG/tmp1/c55x-sim2/foo/c5535_bsl_revc/ezdsp5535_v1/c55xx_csl/inc/csl_usbAux.h"
    2026 0005b4 AB18          MOV *SP(#12), AR3 ; |1441| 
    2027 0005b6 1801          AND #0x0001, AR3, AR3 ; |1441| 
         0005b8 BB   
    2028 0005b9 12BC          CMPU AR3 != AR2, TC1 ; |1441| 
         0005bb A4   
    2029 0005bc 0464          BCC $C$L20,TC1 ; |1441| 
         0005be 44   
    2030                                                      ; branchcc occurs ; |1441| 
    2031 0005bf       $C$DW$L$_USB_processEP0In$10$E:
    2032 0005bf       $C$DW$L$_USB_processEP0In$11$B:
    2033                      .dwpsn  file "F:/eZdsp_DBG/tmp1/c55x-sim2/foo/c5535_bsl_revc/ezdsp5535_v1/c55xx_csl/inc/csl_usbAux.h"
    2034 0005bf 7600          MOV #50, T0 ; |1444| 
         0005c1 3248 
    2035 0005c3 AB31          MOV *(#_sysCtrlRegs), AR3 ; |1444| 
         0005c5 0000 
         0005c7 00!  
    2036 0005c8 AB6B          MOV port(*AR3(T0)), AR3 ; |1444| 
         0005ca 99   
    2037 0005cb 7DFF          AND #0xfffc, AR3, AC0 ; |1444| 
         0005cd FC0B 
    2038 0005cf AB31          MOV *(#_sysCtrlRegs), AR3 ; |1444| 
         0005d1 0000 
         0005d3 00!  
    2039 0005d4 EC02          BSET @#1, AC0 ; |1444| 
         0005d6 00   
    2040 0005d7 C06B          MOV AC0, port(*AR3(T0)) ; |1444| 
         0005d9 9A   
TMS320C55x Assembler PC v4.4.1 Sat Sep 29 23:08:40 2018

Tools Copyright (c) 1996-2012 Texas Instruments Incorporated
csl_usb_dma_example.asm                                              PAGE   46

    2041                      .dwpsn  file "F:/eZdsp_DBG/tmp1/c55x-sim2/foo/c5535_bsl_revc/ezdsp5535_v1/c55xx_csl/inc/csl_usbAux.h"
    2042 0005da ED10          MOV dbl(*SP(#8)), XAR3
         0005dc BF   
    2043 0005dd 7604          MOV #1057, T0 ; |1445| 
         0005df 2148 
    2044 0005e1 AC61          MOV *AR3, AR4 ; |1445| 
    2045 0005e3 AB31          MOV *(#_usbRegisters), AR3 ; |1445| 
         0005e5 0000 
         0005e7 00!  
    2046 0005e8 CC6B          MOV AR4, port(*AR3(T0)) ; |1445| 
         0005ea 9A   
    2047                      .dwpsn  file "F:/eZdsp_DBG/tmp1/c55x-sim2/foo/c5535_bsl_revc/ezdsp5535_v1/c55xx_csl/inc/csl_usbAux.h"
    2048 0005eb 7600          MOV #50, T0 ; |1447| 
         0005ed 3248 
    2049 0005ef AB31          MOV *(#_sysCtrlRegs), AR3 ; |1447| 
         0005f1 0000 
         0005f3 00!  
    2050 0005f4 AB6B          MOV port(*AR3(T0)), AR3 ; |1447| 
         0005f6 99   
    2051 0005f7 7DFF          AND #0xfffc, AR3, AC0 ; |1447| 
         0005f9 FC0B 
    2052 0005fb AB31          MOV *(#_sysCtrlRegs), AR3 ; |1447| 
         0005fd 0000 
         0005ff 00!  
    2053 000600 C06B          MOV AC0, port(*AR3(T0)) ; |1447| 
         000602 9A   
    2054 000603       $C$DW$L$_USB_processEP0In$11$E:
    2055 000603       $C$L20:    
    2056 000603       $C$DW$L$_USB_processEP0In$12$B:
    2057                      .dwpsn  file "F:/eZdsp_DBG/tmp1/c55x-sim2/foo/c5535_bsl_revc/ezdsp5535_v1/c55xx_csl/inc/csl_usbAux.h"
    2058 000603 AB18          MOV *SP(#12), AR3 ; |1451| 
    2059 000605 1294          CMPU AR3 > AR1, TC1 ; |1451| 
         000607 B4   
    2060 000608 6164          BCC $C$L21,TC1 ; |1451| 
    2061                                                      ; branchcc occurs ; |1451| 
    2062 00060a       $C$DW$L$_USB_processEP0In$12$E:
    2063                      .dwpsn  file "F:/eZdsp_DBG/tmp1/c55x-sim2/foo/c5535_bsl_revc/ezdsp5535_v1/c55xx_csl/inc/csl_usbAux.h"
    2064 00060a 4A07          B $C$L22  ; |1453| 
    2065                                                      ; branch occurs ; |1453| 
    2066 00060c       $C$L21:    
    2067 00060c       $C$DW$L$_USB_processEP0In$15$B:
    2068                      .dwpsn  file "F:/eZdsp_DBG/tmp1/c55x-sim2/foo/c5535_bsl_revc/ezdsp5535_v1/c55xx_csl/inc/csl_usbAux.h"
    2069 00060c F718          SUB #64, *SP(#12) ; |1457| 
         00060e FFC0 
    2070                      .dwpsn  file "F:/eZdsp_DBG/tmp1/c55x-sim2/foo/c5535_bsl_revc/ezdsp5535_v1/c55xx_csl/inc/csl_usbAux.h"
    2071 000610 06FF          B $C$L17  ; |1432| 
         000612 69   
    2072                                                      ; branch occurs ; |1432| 
    2073 000613       $C$DW$L$_USB_processEP0In$15$E:
    2074 000613       $C$L22:    
    2075                      .dwpsn  file "F:/eZdsp_DBG/tmp1/c55x-sim2/foo/c5535_bsl_revc/ezdsp5535_v1/c55xx_csl/inc/csl_usbAux.h"
    2076 000613 ED00          MOV dbl(*SP(#0)), XAR3
         000615 BF   
    2077 000616 E66D          MOV #0, *AR3(#90) ; |1461| 
         000618 0000 
TMS320C55x Assembler PC v4.4.1 Sat Sep 29 23:08:40 2018

Tools Copyright (c) 1996-2012 Texas Instruments Incorporated
csl_usb_dma_example.asm                                              PAGE   47

         00061a 5A   
    2078                      .dwpsn  file "F:/eZdsp_DBG/tmp1/c55x-sim2/foo/c5535_bsl_revc/ezdsp5535_v1/c55xx_csl/inc/csl_usbAux.h"
    2079 00061b ED08          MOV dbl(*SP(#4)), XAR3
         00061d BF   
    2080 00061e DF18          MOV uns(*SP(#12)), AC0 ; |1463| 
         000620 05   
    2081 000621 ED6D          ADD dbl(*AR3(#8)), AC0, AC0 ; |1463| 
         000623 0000 
         000625 08   
    2082 000626 EB6D          MOV AC0, dbl(*AR3(#8)) ; |1463| 
         000628 0800 
         00062a 08   
    2083                      .dwpsn  file "F:/eZdsp_DBG/tmp1/c55x-sim2/foo/c5535_bsl_revc/ezdsp5535_v1/c55xx_csl/inc/csl_usbAux.h"
    2084 00062b ED08          MOV dbl(*SP(#4)), XAR3
         00062d BF   
    2085 00062e DF18          MOV uns(*SP(#12)), AC0 ; |1464| 
         000630 05   
    2086 000631 EB6D          MOV AC0, dbl(*AR3(#10)) ; |1464| 
         000633 0800 
         000635 0A   
    2087                      .dwpsn  file "F:/eZdsp_DBG/tmp1/c55x-sim2/foo/c5535_bsl_revc/ezdsp5535_v1/c55xx_csl/inc/csl_usbAux.h"
    2088 000636 ED08          MOV dbl(*SP(#4)), XAR3
         000638 BF   
    2089 000639 ED6D          MOV dbl(*AR3(#8)), AC1 ; |1465| 
         00063b 1800 
         00063d 08   
    2090 00063e ED7D          MOV dbl(*AR3(short(#6))), AC0 ; |1465| 
         000640 08   
    2091 000641 121C          CMPU AC1 != AC0, TC1 ; |1465| 
         000643 04   
    2092 000644 62E4          BCC $C$L23,TC1 ; |1465| 
    2093                                                      ; branchcc occurs ; |1465| 
    2094                      .dwpsn  file "F:/eZdsp_DBG/tmp1/c55x-sim2/foo/c5535_bsl_revc/ezdsp5535_v1/c55xx_csl/inc/csl_usbAux.h"
    2095 000646 E66D          MOV #1, *AR3(#12) ; |1467| 
         000648 0100 
         00064a 0C   
    2096 00064b       $C$L23:    
    2097                      .dwpsn  file "F:/eZdsp_DBG/tmp1/c55x-sim2/foo/c5535_bsl_revc/ezdsp5535_v1/c55xx_csl/inc/csl_usbAux.h"
    2098 00064b 7604          MOV #1038, T0 ; |1471| 
         00064d 0E48 
    2099 00064f AB31          MOV *(#_usbRegisters), AR3 ; |1471| 
         000651 0000 
         000653 00!  
    2100 000654 A96B          MOV port(*AR3(T0)), AR1 ; |1471| 
         000656 99   
    2101 000657 C91E          MOV AR1, *SP(#15) ; |1471| 
    2102                      .dwpsn  file "F:/eZdsp_DBG/tmp1/c55x-sim2/foo/c5535_bsl_revc/ezdsp5535_v1/c55xx_csl/inc/csl_usbAux.h"
    2103 000659 A96B          MOV port(*AR3(T0)), AR1 ; |1474| 
         00065b 99   
    2104 00065c 7DFF          AND #0xfff0, AR1, AC0 ; |1474| 
         00065e F009 
    2105 000660 C06B          MOV AC0, port(*AR3(T0)) ; |1474| 
         000662 9A   
    2106                      .dwpsn  file "F:/eZdsp_DBG/tmp1/c55x-sim2/foo/c5535_bsl_revc/ezdsp5535_v1/c55xx_csl/inc/csl_usbAux.h"
    2107 000663 AB31          MOV *(#_usbRegisters), AR3 ; |1479| 
TMS320C55x Assembler PC v4.4.1 Sat Sep 29 23:08:40 2018

Tools Copyright (c) 1996-2012 Texas Instruments Incorporated
csl_usb_dma_example.asm                                              PAGE   48

         000665 0000 
         000667 00!  
    2108 000668 A96B          MOV port(*AR3(T0)), AR1 ; |1479| 
         00066a 99   
    2109 00066b 7DFF          AND #0xfff0, AR1, AC0 ; |1479| 
         00066d F009 
    2110 00066f C06B          MOV AC0, port(*AR3(T0)) ; |1479| 
         000671 9A   
    2111                      .dwpsn  file "F:/eZdsp_DBG/tmp1/c55x-sim2/foo/c5535_bsl_revc/ezdsp5535_v1/c55xx_csl/inc/csl_usbAux.h"
    2112 000672 ED08          MOV dbl(*SP(#4)), XAR3
         000674 BF   
    2113 000675 F06D          CMP *AR3(#12) == #1, TC1 ; |1483| 
         000677 0001 
         000679 000C 
    2114 00067b 0474          BCC $C$L24,!TC1 ; |1483| 
         00067d 37   
    2115                                                      ; branchcc occurs ; |1483| 
    2116                      .dwpsn  file "F:/eZdsp_DBG/tmp1/c55x-sim2/foo/c5535_bsl_revc/ezdsp5535_v1/c55xx_csl/inc/csl_usbAux.h"
    2117 00067e ED00          MOV dbl(*SP(#0)), XAR3
         000680 BF   
    2118 000681 E67F          MOV #0, *AR3(short(#7)) ; |1485| 
         000683 00   
    2119                      .dwpsn  file "F:/eZdsp_DBG/tmp1/c55x-sim2/foo/c5535_bsl_revc/ezdsp5535_v1/c55xx_csl/inc/csl_usbAux.h"
    2120 000684 E61C          MOV #10, *SP(#14) ; |1488| 
         000686 0A   
    2121                      .dwpsn  file "F:/eZdsp_DBG/tmp1/c55x-sim2/foo/c5535_bsl_revc/ezdsp5535_v1/c55xx_csl/inc/csl_usbAux.h"
    2122 000687 ED00          MOV dbl(*SP(#0)), XAR3
         000689 BF   
    2123 00068a E66D          MOV #0, *AR3(#101) ; |1491| 
         00068c 0000 
         00068e 65   
    2124                      .dwpsn  file "F:/eZdsp_DBG/tmp1/c55x-sim2/foo/c5535_bsl_revc/ezdsp5535_v1/c55xx_csl/inc/csl_usbAux.h"
    2125 00068f 7604          MOV #1042, T0 ; |1493| 
         000691 1248 
    2126 000693 AB31          MOV *(#_usbRegisters), AR3 ; |1493| 
         000695 0000 
         000697 00!  
    2127 000698 A91C          MOV *SP(#14), AR1 ; |1493| 
    2128 00069a DA6B          OR port(*AR3(T0)), AR1, AR1 ; |1493| 
         00069c 99   
         00069d 99   
    2129 00069e C96B          MOV AR1, port(*AR3(T0)) ; |1493| 
         0006a0 9A   
    2130                      .dwpsn  file "F:/eZdsp_DBG/tmp1/c55x-sim2/foo/c5535_bsl_revc/ezdsp5535_v1/c55xx_csl/inc/csl_usbAux.h"
    2131 0006a1 ED00          MOV dbl(*SP(#0)), XAR3
         0006a3 BF   
    2132 0006a4 ED00          MOV dbl(*SP(#0)), XAR0
         0006a6 8F   
    2133 0006a7 ED04          MOV dbl(*SP(#2)), XAR1
         0006a9 9F   
    2134 0006aa ED6D          MOV dbl(*AR3(#116)), AC0 ; |1495| 
         0006ac 0800 
         0006ae 74   
    2135              $C$DW$194       .dwtag  DW_TAG_TI_branch
    2136                      .dwattr $C$DW$194, DW_AT_low_pc(0x00)
TMS320C55x Assembler PC v4.4.1 Sat Sep 29 23:08:40 2018

Tools Copyright (c) 1996-2012 Texas Instruments Incorporated
csl_usb_dma_example.asm                                              PAGE   49

    2137                      .dwattr $C$DW$194, DW_AT_TI_call
    2138                      .dwattr $C$DW$194, DW_AT_TI_indirect
    2139 0006af 9200          CALL AC0  ; |1495| 
    2140                                                      ; call occurs [AC0] ; |1495| 
    2141 0006b1 C40C          MOV T0, *SP(#6) ; |1495| 
    2142                      .dwpsn  file "F:/eZdsp_DBG/tmp1/c55x-sim2/foo/c5535_bsl_revc/ezdsp5535_v1/c55xx_csl/inc/csl_usbAux.h"
    2143 0006b3 4A15          B $C$L25  ; |1496| 
    2144                                                      ; branch occurs ; |1496| 
    2145 0006b5       $C$L24:    
    2146                      .dwpsn  file "F:/eZdsp_DBG/tmp1/c55x-sim2/foo/c5535_bsl_revc/ezdsp5535_v1/c55xx_csl/inc/csl_usbAux.h"
    2147 0006b5 E61C          MOV #2, *SP(#14) ; |1500| 
         0006b7 02   
    2148                      .dwpsn  file "F:/eZdsp_DBG/tmp1/c55x-sim2/foo/c5535_bsl_revc/ezdsp5535_v1/c55xx_csl/inc/csl_usbAux.h"
    2149 0006b8 7604          MOV #1042, T0 ; |1503| 
         0006ba 1248 
    2150 0006bc AB31          MOV *(#_usbRegisters), AR3 ; |1503| 
         0006be 0000 
         0006c0 00!  
    2151 0006c1 A91C          MOV *SP(#14), AR1 ; |1503| 
    2152 0006c3 DA6B          OR port(*AR3(T0)), AR1, AR1 ; |1503| 
         0006c5 99   
         0006c6 99   
    2153 0006c7 C96B          MOV AR1, port(*AR3(T0)) ; |1503| 
         0006c9 9A   
    2154 0006ca       $C$L25:    
    2155                      .dwpsn  file "F:/eZdsp_DBG/tmp1/c55x-sim2/foo/c5535_bsl_revc/ezdsp5535_v1/c55xx_csl/inc/csl_usbAux.h"
    2156 0006ca AB31          MOV *(#_usbRegisters), AR3 ; |1507| 
         0006cc 0000 
         0006ce 00!  
    2157 0006cf 7604          MOV #1038, T0 ; |1507| 
         0006d1 0E48 
    2158 0006d3 A91E          MOV *SP(#15), AR1 ; |1507| 
    2159 0006d5 C96B          MOV AR1, port(*AR3(T0)) ; |1507| 
         0006d7 9A   
    2160                      .dwpsn  file "F:/eZdsp_DBG/tmp1/c55x-sim2/foo/c5535_bsl_revc/ezdsp5535_v1/c55xx_csl/inc/csl_usbAux.h"
    2161 0006d8 4A08          B $C$L28  ; |1508| 
    2162                                                      ; branch occurs ; |1508| 
    2163 0006da       $C$L26:    
    2164                      .dwpsn  file "F:/eZdsp_DBG/tmp1/c55x-sim2/foo/c5535_bsl_revc/ezdsp5535_v1/c55xx_csl/inc/csl_usbAux.h"
    2165 0006da E60C          MOV #-6, *SP(#6) ; |1511| 
         0006dc FA   
    2166                      .dwpsn  file "F:/eZdsp_DBG/tmp1/c55x-sim2/foo/c5535_bsl_revc/ezdsp5535_v1/c55xx_csl/inc/csl_usbAux.h"
    2167 0006dd 4A03          B $C$L28  ; |1513| 
    2168                                                      ; branch occurs ; |1513| 
    2169 0006df       $C$L27:    
    2170                      .dwpsn  file "F:/eZdsp_DBG/tmp1/c55x-sim2/foo/c5535_bsl_revc/ezdsp5535_v1/c55xx_csl/inc/csl_usbAux.h"
    2171 0006df E60C          MOV #-6, *SP(#6) ; |1516| 
         0006e1 FA   
    2172 0006e2       $C$L28:    
    2173                      .dwpsn  file "F:/eZdsp_DBG/tmp1/c55x-sim2/foo/c5535_bsl_revc/ezdsp5535_v1/c55xx_csl/inc/csl_usbAux.h"
    2174 0006e2 A40C          MOV *SP(#6), T0 ; |1519| 
    2175                      .dwpsn  file "F:/eZdsp_DBG/tmp1/c55x-sim2/foo/c5535_bsl_revc/ezdsp5535_v1/c55xx_csl/inc/csl_usbAux.h"
    2176 0006e4 4E11          AADD #17, SP
    2177                      .dwcfi  cfa_offset, 1
    2178              $C$DW$195       .dwtag  DW_TAG_TI_branch
TMS320C55x Assembler PC v4.4.1 Sat Sep 29 23:08:40 2018

Tools Copyright (c) 1996-2012 Texas Instruments Incorporated
csl_usb_dma_example.asm                                              PAGE   50

    2179                      .dwattr $C$DW$195, DW_AT_low_pc(0x00)
    2180                      .dwattr $C$DW$195, DW_AT_TI_return
    2181 0006e6 4804          RET
    2182                                                      ; return occurs
    2183              
    2184              $C$DW$196       .dwtag  DW_TAG_TI_loop
    2185                      .dwattr $C$DW$196, DW_AT_name("F:\eZdsp_DBG\tmp1\c55x-sim2\foo\Debug\csl_usb_dma_example.asm:$C$L17:1
    2186                      .dwattr $C$DW$196, DW_AT_TI_begin_file("F:/eZdsp_DBG/tmp1/c55x-sim2/foo/c5535_bsl_revc/ezdsp5535_v1/c
    2187                      .dwattr $C$DW$196, DW_AT_TI_begin_line(0x598)
    2188                      .dwattr $C$DW$196, DW_AT_TI_end_line(0x5b3)
    2189              $C$DW$197       .dwtag  DW_TAG_TI_loop_range
    2190                      .dwattr $C$DW$197, DW_AT_low_pc($C$DW$L$_USB_processEP0In$8$B)
    2191                      .dwattr $C$DW$197, DW_AT_high_pc($C$DW$L$_USB_processEP0In$8$E)
    2192              $C$DW$198       .dwtag  DW_TAG_TI_loop_range
    2193                      .dwattr $C$DW$198, DW_AT_low_pc($C$DW$L$_USB_processEP0In$10$B)
    2194                      .dwattr $C$DW$198, DW_AT_high_pc($C$DW$L$_USB_processEP0In$10$E)
    2195              $C$DW$199       .dwtag  DW_TAG_TI_loop_range
    2196                      .dwattr $C$DW$199, DW_AT_low_pc($C$DW$L$_USB_processEP0In$11$B)
    2197                      .dwattr $C$DW$199, DW_AT_high_pc($C$DW$L$_USB_processEP0In$11$E)
    2198              $C$DW$200       .dwtag  DW_TAG_TI_loop_range
    2199                      .dwattr $C$DW$200, DW_AT_low_pc($C$DW$L$_USB_processEP0In$12$B)
    2200                      .dwattr $C$DW$200, DW_AT_high_pc($C$DW$L$_USB_processEP0In$12$E)
    2201              $C$DW$201       .dwtag  DW_TAG_TI_loop_range
    2202                      .dwattr $C$DW$201, DW_AT_low_pc($C$DW$L$_USB_processEP0In$15$B)
    2203                      .dwattr $C$DW$201, DW_AT_high_pc($C$DW$L$_USB_processEP0In$15$E)
    2204              
    2205              $C$DW$202       .dwtag  DW_TAG_TI_loop
    2206                      .dwattr $C$DW$202, DW_AT_name("F:\eZdsp_DBG\tmp1\c55x-sim2\foo\Debug\csl_usb_dma_example.asm:$C$L18:2
    2207                      .dwattr $C$DW$202, DW_AT_TI_begin_file("F:/eZdsp_DBG/tmp1/c55x-sim2/foo/c5535_bsl_revc/ezdsp5535_v1/c
    2208                      .dwattr $C$DW$202, DW_AT_TI_begin_line(0x59b)
    2209                      .dwattr $C$DW$202, DW_AT_TI_end_line(0x59f)
    2210              $C$DW$203       .dwtag  DW_TAG_TI_loop_range
    2211                      .dwattr $C$DW$203, DW_AT_low_pc($C$DW$L$_USB_processEP0In$9$B)
    2212                      .dwattr $C$DW$203, DW_AT_high_pc($C$DW$L$_USB_processEP0In$9$E)
    2213                      .dwendtag $C$DW$202
    2214              
    2215                      .dwendtag $C$DW$196
    2216              
    2217                      .dwattr $C$DW$182, DW_AT_TI_end_file("F:/eZdsp_DBG/tmp1/c55x-sim2/foo/c5535_bsl_revc/ezdsp5535_v1/c55
    2218                      .dwattr $C$DW$182, DW_AT_TI_end_line(0x5f0)
    2219                      .dwattr $C$DW$182, DW_AT_TI_end_column(0x01)
    2220                      .dwendentry
    2221                      .dwendtag $C$DW$182
    2222              
    2223 0006e8               .sect   ".text"
    2224                      .align 4
    2225              
    2226              $C$DW$204       .dwtag  DW_TAG_subprogram, DW_AT_name("USB_confDmaRx")
    2227                      .dwattr $C$DW$204, DW_AT_low_pc(_USB_confDmaRx)
    2228                      .dwattr $C$DW$204, DW_AT_high_pc(0x00)
    2229                      .dwattr $C$DW$204, DW_AT_TI_symbol_name("_USB_confDmaRx")
    2230                      .dwattr $C$DW$204, DW_AT_type(*$C$DW$T$80)
    2231                      .dwattr $C$DW$204, DW_AT_TI_begin_file("F:/eZdsp_DBG/tmp1/c55x-sim2/foo/c5535_bsl_revc/ezdsp5535_v1/c
    2232                      .dwattr $C$DW$204, DW_AT_TI_begin_line(0x1bf)
    2233                      .dwattr $C$DW$204, DW_AT_TI_begin_column(0x0c)
TMS320C55x Assembler PC v4.4.1 Sat Sep 29 23:08:40 2018

Tools Copyright (c) 1996-2012 Texas Instruments Incorporated
csl_usb_dma_example.asm                                              PAGE   51

    2234                      .dwattr $C$DW$204, DW_AT_TI_max_frame_size(0x0a)
    2235                      .dwpsn  file "F:/eZdsp_DBG/tmp1/c55x-sim2/foo/c5535_bsl_revc/ezdsp5535_v1/c55xx_csl/inc/csl_usbAux.h"
    2236              
    2237                      .dwfde $C$DW$CIE, _USB_confDmaRx
    2238              $C$DW$205       .dwtag  DW_TAG_formal_parameter, DW_AT_name("hpdrx")
    2239                      .dwattr $C$DW$205, DW_AT_TI_symbol_name("_hpdrx")
    2240                      .dwattr $C$DW$205, DW_AT_type(*$C$DW$T$170)
    2241                      .dwattr $C$DW$205, DW_AT_location[DW_OP_reg17]
    2242              $C$DW$206       .dwtag  DW_TAG_formal_parameter, DW_AT_name("packetsize")
    2243                      .dwattr $C$DW$206, DW_AT_TI_symbol_name("_packetsize")
    2244                      .dwattr $C$DW$206, DW_AT_type(*$C$DW$T$70)
    2245                      .dwattr $C$DW$206, DW_AT_location[DW_OP_reg0]
    2246              $C$DW$207       .dwtag  DW_TAG_formal_parameter, DW_AT_name("pRxBuffer")
    2247                      .dwattr $C$DW$207, DW_AT_TI_symbol_name("_pRxBuffer")
    2248                      .dwattr $C$DW$207, DW_AT_type(*$C$DW$T$102)
    2249                      .dwattr $C$DW$207, DW_AT_location[DW_OP_reg19]
    2250              ;*******************************************************************************
    2251              ;* FUNCTION NAME: USB_confDmaRx                                                *
    2252              ;*                                                                             *
    2253              ;*   Function Uses Regs : AC0,AC0,T0,AR0,XAR0,AR1,XAR1,AR3,XAR3,SP,CARRY,M40,  *
    2254              ;*                        SATA,SATD,RDM,FRCT,SMUL                              *
    2255              ;*   Stack Frame        : Compact (No Frame Pointer, w/ debug)                 *
    2256              ;*   Total Frame Size   : 10 words                                             *
    2257              ;*                        (2 return address/alignment)                         *
    2258              ;*                        (8 local values)                                     *
    2259              ;*   Min System Stack   : 1 word                                               *
    2260              ;*******************************************************************************
    2261 0006e8       _USB_confDmaRx:
    2262                      .dwcfi  cfa_offset, 1
    2263                      .dwcfi  save_reg_to_mem, 91, -1
    2264 0006e8 4EF7          AADD #-9, SP
    2265                      .dwcfi  cfa_offset, 10
    2266              $C$DW$208       .dwtag  DW_TAG_variable, DW_AT_name("hpdrx")
    2267                      .dwattr $C$DW$208, DW_AT_TI_symbol_name("_hpdrx")
    2268                      .dwattr $C$DW$208, DW_AT_type(*$C$DW$T$170)
    2269                      .dwattr $C$DW$208, DW_AT_location[DW_OP_bregx 0x24 0]
    2270              $C$DW$209       .dwtag  DW_TAG_variable, DW_AT_name("packetsize")
    2271                      .dwattr $C$DW$209, DW_AT_TI_symbol_name("_packetsize")
    2272                      .dwattr $C$DW$209, DW_AT_type(*$C$DW$T$70)
    2273                      .dwattr $C$DW$209, DW_AT_location[DW_OP_bregx 0x24 2]
    2274              $C$DW$210       .dwtag  DW_TAG_variable, DW_AT_name("pRxBuffer")
    2275                      .dwattr $C$DW$210, DW_AT_TI_symbol_name("_pRxBuffer")
    2276                      .dwattr $C$DW$210, DW_AT_type(*$C$DW$T$102)
    2277                      .dwattr $C$DW$210, DW_AT_location[DW_OP_bregx 0x24 4]
    2278              $C$DW$211       .dwtag  DW_TAG_variable, DW_AT_name("status")
    2279                      .dwattr $C$DW$211, DW_AT_TI_symbol_name("_status")
    2280                      .dwattr $C$DW$211, DW_AT_type(*$C$DW$T$80)
    2281                      .dwattr $C$DW$211, DW_AT_location[DW_OP_bregx 0x24 6]
    2282              $C$DW$212       .dwtag  DW_TAG_variable, DW_AT_name("value")
    2283                      .dwattr $C$DW$212, DW_AT_TI_symbol_name("_value")
    2284                      .dwattr $C$DW$212, DW_AT_type(*$C$DW$T$86)
    2285                      .dwattr $C$DW$212, DW_AT_location[DW_OP_bregx 0x24 7]
    2286 0006ea EB08          MOV XAR1, dbl(*SP(#4))
         0006ec 95   
    2287 0006ed EB04          MOV AC0, dbl(*SP(#2)) ; |450| 
TMS320C55x Assembler PC v4.4.1 Sat Sep 29 23:08:40 2018

Tools Copyright (c) 1996-2012 Texas Instruments Incorporated
csl_usb_dma_example.asm                                              PAGE   52

         0006ef 08   
    2288 0006f0 EB00          MOV XAR0, dbl(*SP(#0))
         0006f2 85   
    2289                      .dwpsn  file "F:/eZdsp_DBG/tmp1/c55x-sim2/foo/c5535_bsl_revc/ezdsp5535_v1/c55xx_csl/inc/csl_usbAux.h"
    2290 0006f3 E60C          MOV #0, *SP(#6) ; |455| 
         0006f5 00   
    2291                      .dwpsn  file "F:/eZdsp_DBG/tmp1/c55x-sim2/foo/c5535_bsl_revc/ezdsp5535_v1/c55xx_csl/inc/csl_usbAux.h"
    2292 0006f6 ED00          MOV dbl(*SP(#0)), XAR3
         0006f8 BF   
    2293 0006f9 90B0          MOV XAR3, AC0
    2294 0006fb 6D00          BCC $C$L29,AC0 == #0 ; |457| 
         0006fd 00AF 
    2295                                                      ; branchcc occurs ; |457| 
    2296 0006ff ED08          MOV dbl(*SP(#4)), XAR3
         000701 BF   
    2297 000702 90B0          MOV XAR3, AC0
    2298 000704 6D00          BCC $C$L29,AC0 == #0 ; |457| 
         000706 00A6 
    2299                                                      ; branchcc occurs ; |457| 
    2300                      .dwpsn  file "F:/eZdsp_DBG/tmp1/c55x-sim2/foo/c5535_bsl_revc/ezdsp5535_v1/c55xx_csl/inc/csl_usbAux.h"
    2301 000708 ED00          MOV dbl(*SP(#0)), XAR3
         00070a BF   
    2302 00070b ED04          MOV dbl(*SP(#2)), AC0 ; |460| 
         00070d 08   
    2303 00070e EC3E          BSET @#31, AC0 ; |460| 
         000710 00   
    2304 000711 EB61          MOV AC0, dbl(*AR3) ; |460| 
         000713 08   
    2305                      .dwpsn  file "F:/eZdsp_DBG/tmp1/c55x-sim2/foo/c5535_bsl_revc/ezdsp5535_v1/c55xx_csl/inc/csl_usbAux.h"
    2306 000714 ED00          MOV dbl(*SP(#0)), XAR3
         000716 BF   
    2307 000717 3C00          MOV #0, AC0 ; |462| 
    2308 000719 EB75          MOV AC0, dbl(*AR3(short(#2))) ; |462| 
         00071b 08   
    2309                      .dwpsn  file "F:/eZdsp_DBG/tmp1/c55x-sim2/foo/c5535_bsl_revc/ezdsp5535_v1/c55xx_csl/inc/csl_usbAux.h"
    2310 00071c ED00          MOV dbl(*SP(#0)), XAR3
         00071e BF   
    2311 00071f 7A14          MOV #5120 << #16, AC0 ; |467| 
         000721 000A 
    2312 000723 1A1A          OR #0x001a, AC0, AC0 ; |467| 
         000725 00   
    2313 000726 EB79          MOV AC0, dbl(*AR3(short(#4))) ; |467| 
         000728 08   
    2314                      .dwpsn  file "F:/eZdsp_DBG/tmp1/c55x-sim2/foo/c5535_bsl_revc/ezdsp5535_v1/c55xx_csl/inc/csl_usbAux.h"
    2315 000729 ED00          MOV dbl(*SP(#0)), XAR3
         00072b BF   
    2316 00072c ED04          MOV dbl(*SP(#2)), AC0 ; |468| 
         00072e 08   
    2317 00072f EB7D          MOV AC0, dbl(*AR3(short(#6))) ; |468| 
         000731 08   
    2318                      .dwpsn  file "F:/eZdsp_DBG/tmp1/c55x-sim2/foo/c5535_bsl_revc/ezdsp5535_v1/c55xx_csl/inc/csl_usbAux.h"
    2319 000732 ED08          MOV dbl(*SP(#4)), XAR3
         000734 BF   
    2320 000735 90B0          MOV XAR3, AC0
    2321 000737 ED00          MOV dbl(*SP(#0)), XAR3
TMS320C55x Assembler PC v4.4.1 Sat Sep 29 23:08:40 2018

Tools Copyright (c) 1996-2012 Texas Instruments Incorporated
csl_usb_dma_example.asm                                              PAGE   53

         000739 BF   
    2322 00073a 5000          SFTL AC0, #1 ; |471| 
    2323 00073c EC26          BSET @#19, AC0 ; |471| 
         00073e 00   
    2324 00073f EB6D          MOV AC0, dbl(*AR3(#8)) ; |471| 
         000741 0800 
         000743 08   
    2325                      .dwpsn  file "F:/eZdsp_DBG/tmp1/c55x-sim2/foo/c5535_bsl_revc/ezdsp5535_v1/c55xx_csl/inc/csl_usbAux.h"
    2326 000744 ED00          MOV dbl(*SP(#0)), XAR3
         000746 BF   
    2327 000747 3C00          MOV #0, AC0 ; |474| 
    2328 000749 EB6D          MOV AC0, dbl(*AR3(#10)) ; |474| 
         00074b 0800 
         00074d 0A   
    2329                      .dwpsn  file "F:/eZdsp_DBG/tmp1/c55x-sim2/foo/c5535_bsl_revc/ezdsp5535_v1/c55xx_csl/inc/csl_usbAux.h"
    2330 00074e ED00          MOV dbl(*SP(#0)), XAR3
         000750 BF   
    2331 000751 ED04          MOV dbl(*SP(#2)), AC0 ; |475| 
         000753 08   
    2332 000754 EB6D          MOV AC0, dbl(*AR3(#12)) ; |475| 
         000756 0800 
         000758 0C   
    2333                      .dwpsn  file "F:/eZdsp_DBG/tmp1/c55x-sim2/foo/c5535_bsl_revc/ezdsp5535_v1/c55xx_csl/inc/csl_usbAux.h"
    2334 000759 ED08          MOV dbl(*SP(#4)), XAR3
         00075b BF   
    2335 00075c 90B0          MOV XAR3, AC0
    2336 00075e ED00          MOV dbl(*SP(#0)), XAR3
         000760 BF   
    2337 000761 5000          SFTL AC0, #1 ; |478| 
    2338 000763 EC26          BSET @#19, AC0 ; |478| 
         000765 00   
    2339 000766 EB6D          MOV AC0, dbl(*AR3(#14)) ; |478| 
         000768 0800 
         00076a 0E   
    2340                      .dwpsn  file "F:/eZdsp_DBG/tmp1/c55x-sim2/foo/c5535_bsl_revc/ezdsp5535_v1/c55xx_csl/inc/csl_usbAux.h"
    2341              $C$DW$213       .dwtag  DW_TAG_TI_branch
    2342                      .dwattr $C$DW$213, DW_AT_low_pc(0x00)
    2343                      .dwattr $C$DW$213, DW_AT_name("_IRQ_globalDisable")
    2344                      .dwattr $C$DW$213, DW_AT_TI_call
    2345 00076b 6C00          CALL #_IRQ_globalDisable ; |482| 
         00076d 0000!
    2346                                                      ; call occurs [#_IRQ_globalDisable] ; |482| 
    2347 00076f C40E          MOV T0, *SP(#7) ; |482| 
    2348                      .dwpsn  file "F:/eZdsp_DBG/tmp1/c55x-sim2/foo/c5535_bsl_revc/ezdsp5535_v1/c55xx_csl/inc/csl_usbAux.h"
    2349 000771 7660          MOV #24588, T0 ; |483| 
         000773 0C48 
    2350 000775 ED00          MOV dbl(*SP(#0)), XAR3
         000777 BF   
    2351 000778 90B0          MOV XAR3, AC0
    2352 00077a AB31          MOV *(#_usbRegisters), AR3 ; |483| 
         00077c 0000 
         00077e 00!  
    2353 00077f 5000          SFTL AC0, #1 ; |483| 
    2354 000781 7DFF          AND #0xffff, AC0, AC0 ; |483| 
         000783 FF00 
TMS320C55x Assembler PC v4.4.1 Sat Sep 29 23:08:40 2018

Tools Copyright (c) 1996-2012 Texas Instruments Incorporated
csl_usb_dma_example.asm                                              PAGE   54

    2355 000785 EC02          BSET @#1, AC0 ; |483| 
         000787 00   
    2356 000788 C06B          MOV AC0, port(*AR3(T0)) ; |483| 
         00078a 9A   
    2357                      .dwpsn  file "F:/eZdsp_DBG/tmp1/c55x-sim2/foo/c5535_bsl_revc/ezdsp5535_v1/c55xx_csl/inc/csl_usbAux.h"
    2358 00078b 7660          MOV #24589, T0 ; |485| 
         00078d 0D48 
    2359 00078f ED00          MOV dbl(*SP(#0)), XAR3
         000791 BF   
    2360 000792 90B0          MOV XAR3, AC0
    2361 000794 AB31          MOV *(#_usbRegisters), AR3 ; |485| 
         000796 0000 
         000798 00!  
    2362 000799 1005          SFTS AC0, #-15, AC0 ; |485| 
         00079b 31   
    2363 00079c 7DFF          AND #0xffff, AC0, AC0 ; |485| 
         00079e FF00 
    2364 0007a0 EC06          BSET @#3, AC0 ; |485| 
         0007a2 00   
    2365 0007a3 C06B          MOV AC0, port(*AR3(T0)) ; |485| 
         0007a5 9A   
    2366                      .dwpsn  file "F:/eZdsp_DBG/tmp1/c55x-sim2/foo/c5535_bsl_revc/ezdsp5535_v1/c55xx_csl/inc/csl_usbAux.h"
    2367 0007a6 A40E          MOV *SP(#7), T0 ; |488| 
    2368              $C$DW$214       .dwtag  DW_TAG_TI_branch
    2369                      .dwattr $C$DW$214, DW_AT_low_pc(0x00)
    2370                      .dwattr $C$DW$214, DW_AT_name("_IRQ_globalRestore")
    2371                      .dwattr $C$DW$214, DW_AT_TI_call
    2372 0007a8 6C00          CALL #_IRQ_globalRestore ; |488| 
         0007aa 0000!
    2373                                                      ; call occurs [#_IRQ_globalRestore] ; |488| 
    2374                      .dwpsn  file "F:/eZdsp_DBG/tmp1/c55x-sim2/foo/c5535_bsl_revc/ezdsp5535_v1/c55xx_csl/inc/csl_usbAux.h"
    2375 0007ac 4A03          B $C$L30  ; |489| 
    2376                                                      ; branch occurs ; |489| 
    2377 0007ae       $C$L29:    
    2378                      .dwpsn  file "F:/eZdsp_DBG/tmp1/c55x-sim2/foo/c5535_bsl_revc/ezdsp5535_v1/c55xx_csl/inc/csl_usbAux.h"
    2379 0007ae E60C          MOV #-6, *SP(#6) ; |492| 
         0007b0 FA   
    2380 0007b1       $C$L30:    
    2381                      .dwpsn  file "F:/eZdsp_DBG/tmp1/c55x-sim2/foo/c5535_bsl_revc/ezdsp5535_v1/c55xx_csl/inc/csl_usbAux.h"
    2382 0007b1 A40C          MOV *SP(#6), T0 ; |495| 
    2383                      .dwpsn  file "F:/eZdsp_DBG/tmp1/c55x-sim2/foo/c5535_bsl_revc/ezdsp5535_v1/c55xx_csl/inc/csl_usbAux.h"
    2384 0007b3 4E09          AADD #9, SP
    2385                      .dwcfi  cfa_offset, 1
    2386              $C$DW$215       .dwtag  DW_TAG_TI_branch
    2387                      .dwattr $C$DW$215, DW_AT_low_pc(0x00)
    2388                      .dwattr $C$DW$215, DW_AT_TI_return
    2389 0007b5 4804          RET
    2390                                                      ; return occurs
    2391                      .dwattr $C$DW$204, DW_AT_TI_end_file("F:/eZdsp_DBG/tmp1/c55x-sim2/foo/c5535_bsl_revc/ezdsp5535_v1/c55
    2392                      .dwattr $C$DW$204, DW_AT_TI_end_line(0x1f0)
    2393                      .dwattr $C$DW$204, DW_AT_TI_end_column(0x01)
    2394                      .dwendentry
    2395                      .dwendtag $C$DW$204
    2396              
    2397 0007b7               .sect   ".text"
TMS320C55x Assembler PC v4.4.1 Sat Sep 29 23:08:40 2018

Tools Copyright (c) 1996-2012 Texas Instruments Incorporated
csl_usb_dma_example.asm                                              PAGE   55

    2398                      .align 4
    2399              
    2400              $C$DW$216       .dwtag  DW_TAG_subprogram, DW_AT_name("USB_handleTx")
    2401                      .dwattr $C$DW$216, DW_AT_low_pc(_USB_handleTx)
    2402                      .dwattr $C$DW$216, DW_AT_high_pc(0x00)
    2403                      .dwattr $C$DW$216, DW_AT_TI_symbol_name("_USB_handleTx")
    2404                      .dwattr $C$DW$216, DW_AT_type(*$C$DW$T$80)
    2405                      .dwattr $C$DW$216, DW_AT_TI_begin_file("F:/eZdsp_DBG/tmp1/c55x-sim2/foo/c5535_bsl_revc/ezdsp5535_v1/c
    2406                      .dwattr $C$DW$216, DW_AT_TI_begin_line(0x371)
    2407                      .dwattr $C$DW$216, DW_AT_TI_begin_column(0x0c)
    2408                      .dwattr $C$DW$216, DW_AT_TI_max_frame_size(0x16)
    2409                      .dwpsn  file "F:/eZdsp_DBG/tmp1/c55x-sim2/foo/c5535_bsl_revc/ezdsp5535_v1/c55xx_csl/inc/csl_usbAux.h"
    2410              
    2411                      .dwfde $C$DW$CIE, _USB_handleTx
    2412              $C$DW$217       .dwtag  DW_TAG_formal_parameter, DW_AT_name("pContext")
    2413                      .dwattr $C$DW$217, DW_AT_TI_symbol_name("_pContext")
    2414                      .dwattr $C$DW$217, DW_AT_type(*$C$DW$T$164)
    2415                      .dwattr $C$DW$217, DW_AT_location[DW_OP_reg17]
    2416              $C$DW$218       .dwtag  DW_TAG_formal_parameter, DW_AT_name("dwEndpoint")
    2417                      .dwattr $C$DW$218, DW_AT_TI_symbol_name("_dwEndpoint")
    2418                      .dwattr $C$DW$218, DW_AT_type(*$C$DW$T$88)
    2419                      .dwattr $C$DW$218, DW_AT_location[DW_OP_reg0]
    2420              ;*******************************************************************************
    2421              ;* FUNCTION NAME: USB_handleTx                                                 *
    2422              ;*                                                                             *
    2423              ;*   Function Uses Regs : AC0,AC0,AC1,AC1,T0,AR0,XAR0,AR1,XAR1,AR3,XAR3,SP,    *
    2424              ;*                        CARRY,TC1,M40,SATA,SATD,RDM,FRCT,SMUL                *
    2425              ;*   Stack Frame        : Compact (No Frame Pointer, w/ debug)                 *
    2426              ;*   Total Frame Size   : 22 words                                             *
    2427              ;*                        (1 return address/alignment)                         *
    2428              ;*                        (21 local values)                                    *
    2429              ;*   Min System Stack   : 1 word                                               *
    2430              ;*******************************************************************************
    2431 0007b8       _USB_handleTx:
    2432                      .dwcfi  cfa_offset, 1
    2433                      .dwcfi  save_reg_to_mem, 91, -1
    2434 0007b8 4EEB          AADD #-21, SP
    2435                      .dwcfi  cfa_offset, 22
    2436              $C$DW$219       .dwtag  DW_TAG_variable, DW_AT_name("pContext")
    2437                      .dwattr $C$DW$219, DW_AT_TI_symbol_name("_pContext")
    2438                      .dwattr $C$DW$219, DW_AT_type(*$C$DW$T$164)
    2439                      .dwattr $C$DW$219, DW_AT_location[DW_OP_bregx 0x24 0]
    2440              $C$DW$220       .dwtag  DW_TAG_variable, DW_AT_name("dwEndpoint")
    2441                      .dwattr $C$DW$220, DW_AT_TI_symbol_name("_dwEndpoint")
    2442                      .dwattr $C$DW$220, DW_AT_type(*$C$DW$T$88)
    2443                      .dwattr $C$DW$220, DW_AT_location[DW_OP_bregx 0x24 2]
    2444              $C$DW$221       .dwtag  DW_TAG_variable, DW_AT_name("cbToWrite")
    2445                      .dwattr $C$DW$221, DW_AT_TI_symbol_name("_cbToWrite")
    2446                      .dwattr $C$DW$221, DW_AT_type(*$C$DW$T$88)
    2447                      .dwattr $C$DW$221, DW_AT_location[DW_OP_bregx 0x24 4]
    2448              $C$DW$222       .dwtag  DW_TAG_variable, DW_AT_name("pwBuffer")
    2449                      .dwattr $C$DW$222, DW_AT_TI_symbol_name("_pwBuffer")
    2450                      .dwattr $C$DW$222, DW_AT_type(*$C$DW$T$87)
    2451                      .dwattr $C$DW$222, DW_AT_location[DW_OP_bregx 0x24 6]
    2452              $C$DW$223       .dwtag  DW_TAG_variable, DW_AT_name("cbBuffer")
TMS320C55x Assembler PC v4.4.1 Sat Sep 29 23:08:40 2018

Tools Copyright (c) 1996-2012 Texas Instruments Incorporated
csl_usb_dma_example.asm                                              PAGE   56

    2453                      .dwattr $C$DW$223, DW_AT_TI_symbol_name("_cbBuffer")
    2454                      .dwattr $C$DW$223, DW_AT_type(*$C$DW$T$88)
    2455                      .dwattr $C$DW$223, DW_AT_location[DW_OP_bregx 0x24 8]
    2456              $C$DW$224       .dwtag  DW_TAG_variable, DW_AT_name("cbWritten")
    2457                      .dwattr $C$DW$224, DW_AT_TI_symbol_name("_cbWritten")
    2458                      .dwattr $C$DW$224, DW_AT_type(*$C$DW$T$88)
    2459                      .dwattr $C$DW$224, DW_AT_location[DW_OP_bregx 0x24 10]
    2460              $C$DW$225       .dwtag  DW_TAG_variable, DW_AT_name("count")
    2461                      .dwattr $C$DW$225, DW_AT_TI_symbol_name("_count")
    2462                      .dwattr $C$DW$225, DW_AT_type(*$C$DW$T$19)
    2463                      .dwattr $C$DW$225, DW_AT_location[DW_OP_bregx 0x24 12]
    2464              $C$DW$226       .dwtag  DW_TAG_variable, DW_AT_name("saveIndex")
    2465                      .dwattr $C$DW$226, DW_AT_TI_symbol_name("_saveIndex")
    2466                      .dwattr $C$DW$226, DW_AT_type(*$C$DW$T$19)
    2467                      .dwattr $C$DW$226, DW_AT_location[DW_OP_bregx 0x24 13]
    2468              $C$DW$227       .dwtag  DW_TAG_variable, DW_AT_name("status")
    2469                      .dwattr $C$DW$227, DW_AT_TI_symbol_name("_status")
    2470                      .dwattr $C$DW$227, DW_AT_type(*$C$DW$T$80)
    2471                      .dwattr $C$DW$227, DW_AT_location[DW_OP_bregx 0x24 14]
    2472              $C$DW$228       .dwtag  DW_TAG_variable, DW_AT_name("peps")
    2473                      .dwattr $C$DW$228, DW_AT_TI_symbol_name("_peps")
    2474                      .dwattr $C$DW$228, DW_AT_type(*$C$DW$T$168)
    2475                      .dwattr $C$DW$228, DW_AT_location[DW_OP_bregx 0x24 16]
    2476              $C$DW$229       .dwtag  DW_TAG_variable, DW_AT_name("pTransfer")
    2477                      .dwattr $C$DW$229, DW_AT_TI_symbol_name("_pTransfer")
    2478                      .dwattr $C$DW$229, DW_AT_type(*$C$DW$T$172)
    2479                      .dwattr $C$DW$229, DW_AT_location[DW_OP_bregx 0x24 18]
    2480              $C$DW$230       .dwtag  DW_TAG_variable, DW_AT_name("pFifoAddr")
    2481                      .dwattr $C$DW$230, DW_AT_TI_symbol_name("_pFifoAddr")
    2482                      .dwattr $C$DW$230, DW_AT_type(*$C$DW$T$227)
    2483                      .dwattr $C$DW$230, DW_AT_location[DW_OP_bregx 0x24 20]
    2484 0007ba EB04          MOV AC0, dbl(*SP(#2)) ; |883| 
         0007bc 08   
    2485 0007bd EB00          MOV XAR0, dbl(*SP(#0))
         0007bf 85   
    2486                      .dwpsn  file "F:/eZdsp_DBG/tmp1/c55x-sim2/foo/c5535_bsl_revc/ezdsp5535_v1/c55xx_csl/inc/csl_usbAux.h"
    2487 0007c0 E61C          MOV #0, *SP(#14) ; |896| 
         0007c2 00   
    2488                      .dwpsn  file "F:/eZdsp_DBG/tmp1/c55x-sim2/foo/c5535_bsl_revc/ezdsp5535_v1/c55xx_csl/inc/csl_usbAux.h"
    2489 0007c3 E618          MOV #0, *SP(#12) ; |897| 
         0007c5 00   
    2490                      .dwpsn  file "F:/eZdsp_DBG/tmp1/c55x-sim2/foo/c5535_bsl_revc/ezdsp5535_v1/c55xx_csl/inc/csl_usbAux.h"
    2491 0007c6 E61A          MOV #0, *SP(#13) ; |898| 
         0007c8 00   
    2492                      .dwpsn  file "F:/eZdsp_DBG/tmp1/c55x-sim2/foo/c5535_bsl_revc/ezdsp5535_v1/c55xx_csl/inc/csl_usbAux.h"
    2493 0007c9 3C00          MOV #0, AC0 ; |899| 
    2494 0007cb EB14          MOV AC0, dbl(*SP(#10)) ; |899| 
         0007cd 08   
    2495                      .dwpsn  file "F:/eZdsp_DBG/tmp1/c55x-sim2/foo/c5535_bsl_revc/ezdsp5535_v1/c55xx_csl/inc/csl_usbAux.h"
    2496 0007ce ED00          MOV dbl(*SP(#0)), XAR3
         0007d0 BF   
    2497 0007d1 90B0          MOV XAR3, AC0
    2498 0007d3 6D00          BCC $C$L45,AC0 == #0 ; |901| 
         0007d5 0258 
    2499                                                      ; branchcc occurs ; |901| 
TMS320C55x Assembler PC v4.4.1 Sat Sep 29 23:08:40 2018

Tools Copyright (c) 1996-2012 Texas Instruments Incorporated
csl_usb_dma_example.asm                                              PAGE   57

    2500                      .dwpsn  file "F:/eZdsp_DBG/tmp1/c55x-sim2/foo/c5535_bsl_revc/ezdsp5535_v1/c55xx_csl/inc/csl_usbAux.h"
    2501 0007d7 ED6D          MOV dbl(*AR3(#98)), XAR3
         0007d9 BF00 
         0007db 62   
    2502 0007dc F806          MPYMK *SP(#3), #18, AC0 ; |903| 
         0007de 1200 
    2503 0007e0 2209          MOV AC0, AR1 ; |903| 
    2504              
    2505 0007e2 8E20          MOV XAR3, dbl(*SP(#16))
         0007e4 BB10 
         0007e6 B590 
    2506              ||      AADD AR1, AR3 ; |903| 
    2507              
    2508                      .dwpsn  file "F:/eZdsp_DBG/tmp1/c55x-sim2/foo/c5535_bsl_revc/ezdsp5535_v1/c55xx_csl/inc/csl_usbAux.h"
    2509 0007e8 ED6D          MOV dbl(*AR3(#10)), XAR3
         0007ea BF00 
         0007ec 0A   
    2510 0007ed EB24          MOV XAR3, dbl(*SP(#18))
         0007ef B5   
    2511                      .dwpsn  file "F:/eZdsp_DBG/tmp1/c55x-sim2/foo/c5535_bsl_revc/ezdsp5535_v1/c55xx_csl/inc/csl_usbAux.h"
    2512 0007f0 90B0          MOV XAR3, AC0
    2513 0007f2 6D00          BCC $C$L44,AC0 == #0 ; |906| 
         0007f4 0234 
    2514                                                      ; branchcc occurs ; |906| 
    2515 0007f6 A96D          MOV *AR3(#12), AR1 ; |906| 
         0007f8 000C 
    2516 0007fa 6D19          BCC $C$L44,AR1 != #0 ; |906| 
         0007fc 022C 
    2517                                                      ; branchcc occurs ; |906| 
    2518                      .dwpsn  file "F:/eZdsp_DBG/tmp1/c55x-sim2/foo/c5535_bsl_revc/ezdsp5535_v1/c55xx_csl/inc/csl_usbAux.h"
    2519 0007fe ED6D          MOV dbl(*AR3(#8)), AC0 ; |908| 
         000800 0800 
         000802 08   
    2520 000803 ED79          MOV dbl(*AR3(short(#4))), XAR3
         000805 BF   
    2521 000806 5001          SFTL AC0, #-1 ; |908| 
    2522 000808 2209          MOV AC0, AR1 ; |908| 
    2523              
    2524 00080a 8E0C          MOV XAR3, dbl(*SP(#6))
         00080c BB10 
         00080e B590 
    2525              ||      AADD AR1, AR3 ; |908| 
    2526              
    2527                      .dwpsn  file "F:/eZdsp_DBG/tmp1/c55x-sim2/foo/c5535_bsl_revc/ezdsp5535_v1/c55xx_csl/inc/csl_usbAux.h"
    2528 000810 ED24          MOV dbl(*SP(#18)), XAR3
         000812 BF   
    2529 000813 ED6D          MOV dbl(*AR3(#8)), AC0 ; |909| 
         000815 0800 
         000817 08   
    2530 000818 ED7D          SUB AC0, dbl(*AR3(short(#6))), AC0 ; |909| 
         00081a 04   
    2531 00081b EB10          MOV AC0, dbl(*SP(#8)) ; |909| 
         00081d 08   
    2532                      .dwpsn  file "F:/eZdsp_DBG/tmp1/c55x-sim2/foo/c5535_bsl_revc/ezdsp5535_v1/c55xx_csl/inc/csl_usbAux.h"
    2533 00081e ED20          MOV dbl(*SP(#16)), XAR3
TMS320C55x Assembler PC v4.4.1 Sat Sep 29 23:08:40 2018

Tools Copyright (c) 1996-2012 Texas Instruments Incorporated
csl_usb_dma_example.asm                                              PAGE   58

         000820 BF   
    2534 000821 A96D          MOV *AR3(#9), AR1 ; |910| 
         000823 0009 
    2535 000825 C928          MOV AR1, *SP(#20) ; |910| 
    2536                      .dwpsn  file "F:/eZdsp_DBG/tmp1/c55x-sim2/foo/c5535_bsl_revc/ezdsp5535_v1/c55xx_csl/inc/csl_usbAux.h"
    2537 000827 ED20          MOV dbl(*SP(#16)), XAR3
         000829 BF   
    2538 00082a ED10          MOV dbl(*SP(#8)), AC1 ; |913| 
         00082c 18   
    2539 00082d ED79          MOV dbl(*AR3(short(#4))), AC0 ; |913| 
         00082f 08   
    2540 000830 1218          CMPU AC1 >= AC0, TC1 ; |913| 
         000832 04   
    2541 000833 62E4          BCC $C$L31,TC1 ; |913| 
    2542                                                      ; branchcc occurs ; |913| 
    2543 000835 ED10          MOV dbl(*SP(#8)), AC0 ; |913| 
         000837 08   
    2544 000838 4A03          B $C$L32  ; |913| 
    2545                                                      ; branch occurs ; |913| 
    2546 00083a       $C$L31:    
    2547 00083a ED79          MOV dbl(*AR3(short(#4))), AC0 ; |913| 
         00083c 08   
    2548 00083d       $C$L32:    
    2549 00083d EB08          MOV AC0, dbl(*SP(#4)) ; |913| 
         00083f 08   
    2550                      .dwpsn  file "F:/eZdsp_DBG/tmp1/c55x-sim2/foo/c5535_bsl_revc/ezdsp5535_v1/c55xx_csl/inc/csl_usbAux.h"
    2551 000840 ED24          MOV dbl(*SP(#18)), XAR3
         000842 BF   
    2552 000843 F06D          CMP *AR3(#13) == #32, TC1 ; |916| 
         000845 0020 
         000847 000D 
    2553 000849 6474          BCC $C$L33,!TC1 ; |916| 
    2554                                                      ; branchcc occurs ; |916| 
    2555                      .dwpsn  file "F:/eZdsp_DBG/tmp1/c55x-sim2/foo/c5535_bsl_revc/ezdsp5535_v1/c55xx_csl/inc/csl_usbAux.h"
    2556 00084b E66D          MOV #1, *AR3(#12) ; |918| 
         00084d 0100 
         00084f 0C   
    2557                      .dwpsn  file "F:/eZdsp_DBG/tmp1/c55x-sim2/foo/c5535_bsl_revc/ezdsp5535_v1/c55xx_csl/inc/csl_usbAux.h"
    2558 000850 0601          B $C$L43  ; |919| 
         000852 B3   
    2559                                                      ; branch occurs ; |919| 
    2560 000853       $C$L33:    
    2561                      .dwpsn  file "F:/eZdsp_DBG/tmp1/c55x-sim2/foo/c5535_bsl_revc/ezdsp5535_v1/c55xx_csl/inc/csl_usbAux.h"
    2562 000853 ED20          MOV dbl(*SP(#16)), XAR3
         000855 BF   
    2563 000856 F06D          CMP *AR3(#16) == #1, TC1 ; |922| 
         000858 0001 
         00085a 0010 
    2564 00085c 6D64          BCC $C$L43,TC1 ; |922| 
         00085e 01A6 
    2565                                                      ; branchcc occurs ; |922| 
    2566                      .dwpsn  file "F:/eZdsp_DBG/tmp1/c55x-sim2/foo/c5535_bsl_revc/ezdsp5535_v1/c55xx_csl/inc/csl_usbAux.h"
    2567 000860 7602          MOV #512, AC0 ; |925| 
         000862 0008 
    2568 000864 ED08          MOV dbl(*SP(#4)), AC1 ; |925| 
TMS320C55x Assembler PC v4.4.1 Sat Sep 29 23:08:40 2018

Tools Copyright (c) 1996-2012 Texas Instruments Incorporated
csl_usb_dma_example.asm                                              PAGE   59

         000866 18   
    2569 000867 1210          CMPU AC1 == AC0, TC1 ; |925| 
         000869 04   
    2570 00086a 66E4          BCC $C$L34,TC1 ; |925| 
    2571                                                      ; branchcc occurs ; |925| 
    2572 00086c 7600          MOV #64, AC0 ; |925| 
         00086e 4008 
    2573 000870 ED08          MOV dbl(*SP(#4)), AC1 ; |925| 
         000872 18   
    2574 000873 121C          CMPU AC1 != AC0, TC1 ; |925| 
         000875 04   
    2575 000876 0464          BCC $C$L37,TC1 ; |925| 
         000878 5E   
    2576                                                      ; branchcc occurs ; |925| 
    2577 000879       $C$L34:    
    2578 000879 ED00          MOV dbl(*SP(#0)), XAR3
         00087b BF   
    2579 00087c F061          CMP *AR3 == #1, TC1 ; |925| 
         00087e 0001 
    2580 000880 63E4          BCC $C$L35,TC1 ; |925| 
    2581                                                      ; branchcc occurs ; |925| 
    2582 000882 F061          CMP *AR3 == #2, TC1 ; |925| 
         000884 0002 
    2583 000886 0474          BCC $C$L37,!TC1 ; |925| 
         000888 4E   
    2584                                                      ; branchcc occurs ; |925| 
    2585 000889       $C$L35:    
    2586                      .dwpsn  file "F:/eZdsp_DBG/tmp1/c55x-sim2/foo/c5535_bsl_revc/ezdsp5535_v1/c55xx_csl/inc/csl_usbAux.h"
    2587 000889 ED24          MOV dbl(*SP(#18)), XAR3
         00088b BF   
    2588 00088c ED08          MOV dbl(*SP(#4)), AC0 ; |929| 
         00088e 08   
    2589 00088f ED6D          ADD dbl(*AR3(#8)), AC0, AC0 ; |929| 
         000891 0000 
         000893 08   
    2590 000894 EB6D          MOV AC0, dbl(*AR3(#8)) ; |929| 
         000896 0800 
         000898 08   
    2591                      .dwpsn  file "F:/eZdsp_DBG/tmp1/c55x-sim2/foo/c5535_bsl_revc/ezdsp5535_v1/c55xx_csl/inc/csl_usbAux.h"
    2592 000899 ED24          MOV dbl(*SP(#18)), XAR3
         00089b BF   
    2593 00089c ED08          MOV dbl(*SP(#4)), AC0 ; |930| 
         00089e 08   
    2594 00089f EB6D          MOV AC0, dbl(*AR3(#10)) ; |930| 
         0008a1 0800 
         0008a3 0A   
    2595                      .dwpsn  file "F:/eZdsp_DBG/tmp1/c55x-sim2/foo/c5535_bsl_revc/ezdsp5535_v1/c55xx_csl/inc/csl_usbAux.h"
    2596 0008a4 ED04          MOV dbl(*SP(#2)), AC0 ; |932| 
         0008a6 08   
    2597              $C$DW$231       .dwtag  DW_TAG_TI_branch
    2598                      .dwattr $C$DW$231, DW_AT_low_pc(0x00)
    2599                      .dwattr $C$DW$231, DW_AT_name("_USB_dmaTxStart")
    2600                      .dwattr $C$DW$231, DW_AT_TI_call
    2601 0008a7 08FB          CALL #_USB_dmaTxStart ; |932| 
         0008a9 32   
TMS320C55x Assembler PC v4.4.1 Sat Sep 29 23:08:40 2018

Tools Copyright (c) 1996-2012 Texas Instruments Incorporated
csl_usb_dma_example.asm                                              PAGE   60

    2602                                                      ; call occurs [#_USB_dmaTxStart] ; |932| 
    2603                      .dwpsn  file "F:/eZdsp_DBG/tmp1/c55x-sim2/foo/c5535_bsl_revc/ezdsp5535_v1/c55xx_csl/inc/csl_usbAux.h"
    2604 0008aa ED24          MOV dbl(*SP(#18)), XAR3
         0008ac BF   
    2605 0008ad ED6D          MOV dbl(*AR3(#8)), AC1 ; |934| 
         0008af 1800 
         0008b1 08   
    2606 0008b2 ED7D          MOV dbl(*AR3(short(#6))), AC0 ; |934| 
         0008b4 08   
    2607 0008b5 121C          CMPU AC1 != AC0, TC1 ; |934| 
         0008b7 04   
    2608 0008b8 6464          BCC $C$L36,TC1 ; |934| 
    2609                                                      ; branchcc occurs ; |934| 
    2610                      .dwpsn  file "F:/eZdsp_DBG/tmp1/c55x-sim2/foo/c5535_bsl_revc/ezdsp5535_v1/c55xx_csl/inc/csl_usbAux.h"
    2611 0008ba E66D          MOV #1, *AR3(#12) ; |936| 
         0008bc 0100 
         0008be 0C   
    2612                      .dwpsn  file "F:/eZdsp_DBG/tmp1/c55x-sim2/foo/c5535_bsl_revc/ezdsp5535_v1/c55xx_csl/inc/csl_usbAux.h"
    2613 0008bf 0601          B $C$L43  ; |937| 
         0008c1 44   
    2614                                                      ; branch occurs ; |937| 
    2615 0008c2       $C$L36:    
    2616                      .dwpsn  file "F:/eZdsp_DBG/tmp1/c55x-sim2/foo/c5535_bsl_revc/ezdsp5535_v1/c55xx_csl/inc/csl_usbAux.h"
    2617 0008c2 ED00          MOV dbl(*SP(#0)), XAR3
         0008c4 BF   
    2618 0008c5 ED00          MOV dbl(*SP(#0)), XAR0
         0008c7 8F   
    2619 0008c8 ED20          MOV dbl(*SP(#16)), XAR1
         0008ca 9F   
    2620 0008cb ED6D          MOV dbl(*AR3(#116)), AC0 ; |940| 
         0008cd 0800 
         0008cf 74   
    2621              $C$DW$232       .dwtag  DW_TAG_TI_branch
    2622                      .dwattr $C$DW$232, DW_AT_low_pc(0x00)
    2623                      .dwattr $C$DW$232, DW_AT_TI_call
    2624                      .dwattr $C$DW$232, DW_AT_TI_indirect
    2625 0008d0 9200          CALL AC0  ; |940| 
    2626                                                      ; call occurs [AC0] ; |940| 
    2627 0008d2 C41C          MOV T0, *SP(#14) ; |940| 
    2628                      .dwpsn  file "F:/eZdsp_DBG/tmp1/c55x-sim2/foo/c5535_bsl_revc/ezdsp5535_v1/c55xx_csl/inc/csl_usbAux.h"
    2629 0008d4 0601          B $C$L43  ; |942| 
         0008d6 2F   
    2630                                                      ; branch occurs ; |942| 
    2631 0008d7       $C$L37:    
    2632                      .dwpsn  file "F:/eZdsp_DBG/tmp1/c55x-sim2/foo/c5535_bsl_revc/ezdsp5535_v1/c55xx_csl/inc/csl_usbAux.h"
    2633 0008d7 7604          MOV #1038, T0 ; |957| 
         0008d9 0E48 
    2634 0008db AB31          MOV *(#_usbRegisters), AR3 ; |957| 
         0008dd 0000 
         0008df 00!  
    2635 0008e0 A96B          MOV port(*AR3(T0)), AR1 ; |957| 
         0008e2 99   
    2636 0008e3 C91A          MOV AR1, *SP(#13) ; |957| 
    2637                      .dwpsn  file "F:/eZdsp_DBG/tmp1/c55x-sim2/foo/c5535_bsl_revc/ezdsp5535_v1/c55xx_csl/inc/csl_usbAux.h"
    2638 0008e5 A96B          MOV port(*AR3(T0)), AR1 ; |960| 
TMS320C55x Assembler PC v4.4.1 Sat Sep 29 23:08:40 2018

Tools Copyright (c) 1996-2012 Texas Instruments Incorporated
csl_usb_dma_example.asm                                              PAGE   61

         0008e7 99   
    2639 0008e8 7DFF          AND #0xfff0, AR1, AC0 ; |960| 
         0008ea F009 
    2640 0008ec C06B          MOV AC0, port(*AR3(T0)) ; |960| 
         0008ee 9A   
    2641                      .dwpsn  file "F:/eZdsp_DBG/tmp1/c55x-sim2/foo/c5535_bsl_revc/ezdsp5535_v1/c55xx_csl/inc/csl_usbAux.h"
    2642 0008ef AB31          MOV *(#_usbRegisters), AR3 ; |964| 
         0008f1 0000 
         0008f3 00!  
    2643 0008f4 ED04          MOV dbl(*SP(#2)), AC0 ; |964| 
         0008f6 08   
    2644 0008f7 180F          AND #0x000f, AC0, AC0 ; |964| 
         0008f9 00   
    2645 0008fa A96B          MOV port(*AR3(T0)), AR1 ; |964| 
         0008fc 99   
    2646 0008fd 7DFF          AND #0xfff0, AR1, AC1 ; |964| 
         0008ff F019 
    2647 000901 2A10          OR AC1, AC0 ; |964| 
    2648 000903 C06B          MOV AC0, port(*AR3(T0)) ; |964| 
         000905 9A   
    2649                      .dwpsn  file "F:/eZdsp_DBG/tmp1/c55x-sim2/foo/c5535_bsl_revc/ezdsp5535_v1/c55xx_csl/inc/csl_usbAux.h"
    2650 000906 7604          MOV #1042, T0 ; |969| 
         000908 1248 
    2651 00090a AB31          MOV *(#_usbRegisters), AR3 ; |969| 
         00090c 0000 
         00090e 00!  
    2652 00090f A96B          MOV port(*AR3(T0)), AR1 ; |969| 
         000911 99   
    2653 000912 EC06          BCLR @#3, AR1 ; |969| 
         000914 92   
    2654 000915 EC06          BSET @#3, AR1 ; |969| 
         000917 90   
    2655 000918 C96B          MOV AR1, port(*AR3(T0)) ; |969| 
         00091a 9A   
    2656                      .dwpsn  file "F:/eZdsp_DBG/tmp1/c55x-sim2/foo/c5535_bsl_revc/ezdsp5535_v1/c55xx_csl/inc/csl_usbAux.h"
    2657 00091b ED08          MOV dbl(*SP(#4)), AC0 ; |972| 
         00091d 08   
    2658 00091e 0400          BCC $C$L40,AC0 == #0 ; |972| 
         000920 76   
    2659                                                      ; branchcc occurs ; |972| 
    2660                      .dwpsn  file "F:/eZdsp_DBG/tmp1/c55x-sim2/foo/c5535_bsl_revc/ezdsp5535_v1/c55xx_csl/inc/csl_usbAux.h"
    2661 000921 ED08          MOV dbl(*SP(#4)), AC0 ; |975| 
         000923 08   
    2662 000924 EB14          MOV AC0, dbl(*SP(#10)) ; |975| 
         000926 08   
    2663                      .dwpsn  file "F:/eZdsp_DBG/tmp1/c55x-sim2/foo/c5535_bsl_revc/ezdsp5535_v1/c55xx_csl/inc/csl_usbAux.h"
    2664 000927 E618          MOV #0, *SP(#12) ; |977| 
         000929 00   
    2665                      .dwpsn  file "F:/eZdsp_DBG/tmp1/c55x-sim2/foo/c5535_bsl_revc/ezdsp5535_v1/c55xx_csl/inc/csl_usbAux.h"
    2666 00092a ED08          MOV dbl(*SP(#4)), AC0 ; |977| 
         00092c 08   
    2667              
    2668 000930 5101          SFTL AC0, #-1 ; |977| 
    2669 00092d DF18  ||      MOV uns(*SP(#12)), AC1 ; |977| 
         00092f 15   
TMS320C55x Assembler PC v4.4.1 Sat Sep 29 23:08:40 2018

Tools Copyright (c) 1996-2012 Texas Instruments Incorporated
csl_usb_dma_example.asm                                              PAGE   62

    2670              
    2671 000932 1218          CMPU AC1 >= AC0, TC1 ; |977| 
         000934 04   
    2672 000935 0464          BCC $C$L39,TC1 ; |977| 
         000937 1F   
    2673                                                      ; branchcc occurs ; |977| 
    2674 000938       $C$L38:    
    2675 000938       $C$DW$L$_USB_handleTx$19$B:
    2676                      .dwpsn  file "F:/eZdsp_DBG/tmp1/c55x-sim2/foo/c5535_bsl_revc/ezdsp5535_v1/c55xx_csl/inc/csl_usbAux.h"
    2677 000938 ED0C          MOV dbl(*SP(#6)), XAR3
         00093a BF   
    2678 00093b A963          MOV *AR3+, AR1 ; |979| 
    2679 00093d EB0C          MOV XAR3, dbl(*SP(#6))
         00093f B5   
    2680 000940 AB28          MOV *SP(#20), AR3 ; |979| 
    2681 000942 C961          MOV AR1, port(*AR3) ; |979| 
         000944 9A   
    2682                      .dwpsn  file "F:/eZdsp_DBG/tmp1/c55x-sim2/foo/c5535_bsl_revc/ezdsp5535_v1/c55xx_csl/inc/csl_usbAux.h"
    2683 000945 F718          ADD #1, *SP(#12) ; |977| 
         000947 0001 
    2684                      .dwpsn  file "F:/eZdsp_DBG/tmp1/c55x-sim2/foo/c5535_bsl_revc/ezdsp5535_v1/c55xx_csl/inc/csl_usbAux.h"
    2685 000949 ED08          MOV dbl(*SP(#4)), AC0 ; |977| 
         00094b 08   
    2686              
    2687 00094f 5101          SFTL AC0, #-1 ; |977| 
    2688 00094c DF18  ||      MOV uns(*SP(#12)), AC1 ; |977| 
         00094e 15   
    2689              
    2690 000951 1214          CMPU AC1 < AC0, TC1 ; |977| 
         000953 04   
    2691 000954 0464          BCC $C$L38,TC1 ; |977| 
         000956 E1   
    2692                                                      ; branchcc occurs ; |977| 
    2693 000957       $C$DW$L$_USB_handleTx$19$E:
    2694 000957       $C$L39:    
    2695                      .dwpsn  file "F:/eZdsp_DBG/tmp1/c55x-sim2/foo/c5535_bsl_revc/ezdsp5535_v1/c55xx_csl/inc/csl_usbAux.h"
    2696 000957 ED08          MOV dbl(*SP(#4)), AC0 ; |982| 
         000959 08   
    2697 00095a 1801          AND #0x0001, AC0, AC0 ; |982| 
         00095c 00   
    2698 00095d 0400          BCC $C$L40,AC0 == #0 ; |982| 
         00095f 37   
    2699                                                      ; branchcc occurs ; |982| 
    2700                      .dwpsn  file "F:/eZdsp_DBG/tmp1/c55x-sim2/foo/c5535_bsl_revc/ezdsp5535_v1/c55xx_csl/inc/csl_usbAux.h"
    2701 000960 7600          MOV #50, T0 ; |985| 
         000962 3248 
    2702 000964 AB31          MOV *(#_sysCtrlRegs), AR3 ; |985| 
         000966 0000 
         000968 00!  
    2703 000969 A96B          MOV port(*AR3(T0)), AR1 ; |985| 
         00096b 99   
    2704 00096c 7DFF          AND #0xfffc, AR1, AC0 ; |985| 
         00096e FC09 
    2705 000970 EC02          BSET @#1, AC0 ; |985| 
         000972 00   
TMS320C55x Assembler PC v4.4.1 Sat Sep 29 23:08:40 2018

Tools Copyright (c) 1996-2012 Texas Instruments Incorporated
csl_usb_dma_example.asm                                              PAGE   63

    2706 000973 C06B          MOV AC0, port(*AR3(T0)) ; |985| 
         000975 9A   
    2707                      .dwpsn  file "F:/eZdsp_DBG/tmp1/c55x-sim2/foo/c5535_bsl_revc/ezdsp5535_v1/c55xx_csl/inc/csl_usbAux.h"
    2708 000976 AB28          MOV *SP(#20), AR3 ; |987| 
    2709 000978 A961          MOV port(*AR3), AR1 ; |987| 
         00097a 99   
    2710 00097b ED0C          MOV dbl(*SP(#6)), XAR3
         00097d BF   
    2711 00097e A961          MOV *AR3, AR1 ; |987| 
    2712 000980 AB28          MOV *SP(#20), AR3 ; |987| 
    2713 000982 1A00          OR #0x0000, AR1, AR1 ; |987| 
         000984 99   
    2714 000985 C961          MOV AR1, port(*AR3) ; |987| 
         000987 9A   
    2715                      .dwpsn  file "F:/eZdsp_DBG/tmp1/c55x-sim2/foo/c5535_bsl_revc/ezdsp5535_v1/c55xx_csl/inc/csl_usbAux.h"
    2716 000988 AB31          MOV *(#_sysCtrlRegs), AR3 ; |990| 
         00098a 0000 
         00098c 00!  
    2717 00098d A96B          MOV port(*AR3(T0)), AR1 ; |990| 
         00098f 99   
    2718 000990 7DFF          AND #0xfffc, AR1, AC0 ; |990| 
         000992 FC09 
    2719 000994 C06B          MOV AC0, port(*AR3(T0)) ; |990| 
         000996 9A   
    2720 000997       $C$L40:    
    2721                      .dwpsn  file "F:/eZdsp_DBG/tmp1/c55x-sim2/foo/c5535_bsl_revc/ezdsp5535_v1/c55xx_csl/inc/csl_usbAux.h"
    2722 000997 ED20          MOV dbl(*SP(#16)), XAR3
         000999 BF   
    2723 00099a F075          CMP *AR3(short(#2)) == #3, TC1 ; |995| 
         00099c 0003 
    2724 00099e 6774          BCC $C$L41,!TC1 ; |995| 
    2725                                                      ; branchcc occurs ; |995| 
    2726                      .dwpsn  file "F:/eZdsp_DBG/tmp1/c55x-sim2/foo/c5535_bsl_revc/ezdsp5535_v1/c55xx_csl/inc/csl_usbAux.h"
    2727 0009a0 7604          MOV #1042, T0 ; |997| 
         0009a2 1248 
    2728 0009a4 AB31          MOV *(#_usbRegisters), AR3 ; |997| 
         0009a6 0000 
         0009a8 00!  
    2729 0009a9 F56B          OR #0x0040, port(*AR3(T0)) ; |997| 
         0009ab 0040 
         0009ad 9A   
    2730 0009ae       $C$L41:    
    2731                      .dwpsn  file "F:/eZdsp_DBG/tmp1/c55x-sim2/foo/c5535_bsl_revc/ezdsp5535_v1/c55xx_csl/inc/csl_usbAux.h"
    2732 0009ae 7604          MOV #1042, T0 ; |1002| 
         0009b0 1248 
    2733 0009b2 AB31          MOV *(#_usbRegisters), AR3 ; |1002| 
         0009b4 0000 
         0009b6 00!  
    2734 0009b7 A96B          MOV port(*AR3(T0)), AR1 ; |1002| 
         0009b9 99   
    2735 0009ba EC00          BCLR @#0, AR1 ; |1002| 
         0009bc 92   
    2736 0009bd EC00          BSET @#0, AR1 ; |1002| 
         0009bf 90   
    2737 0009c0 C96B          MOV AR1, port(*AR3(T0)) ; |1002| 
TMS320C55x Assembler PC v4.4.1 Sat Sep 29 23:08:40 2018

Tools Copyright (c) 1996-2012 Texas Instruments Incorporated
csl_usb_dma_example.asm                                              PAGE   64

         0009c2 9A   
    2738                      .dwpsn  file "F:/eZdsp_DBG/tmp1/c55x-sim2/foo/c5535_bsl_revc/ezdsp5535_v1/c55xx_csl/inc/csl_usbAux.h"
    2739 0009c3 7604          MOV #1038, T0 ; |1006| 
         0009c5 0E48 
    2740 0009c7 AB31          MOV *(#_usbRegisters), AR3 ; |1006| 
         0009c9 0000 
         0009cb 00!  
    2741 0009cc A91A          MOV *SP(#13), AR1 ; |1006| 
    2742 0009ce C96B          MOV AR1, port(*AR3(T0)) ; |1006| 
         0009d0 9A   
    2743                      .dwpsn  file "F:/eZdsp_DBG/tmp1/c55x-sim2/foo/c5535_bsl_revc/ezdsp5535_v1/c55xx_csl/inc/csl_usbAux.h"
    2744 0009d1 ED24          MOV dbl(*SP(#18)), XAR3
         0009d3 BF   
    2745 0009d4 ED14          MOV dbl(*SP(#10)), AC0 ; |1009| 
         0009d6 08   
    2746 0009d7 ED6D          ADD dbl(*AR3(#8)), AC0, AC0 ; |1009| 
         0009d9 0000 
         0009db 08   
    2747 0009dc EB6D          MOV AC0, dbl(*AR3(#8)) ; |1009| 
         0009de 0800 
         0009e0 08   
    2748                      .dwpsn  file "F:/eZdsp_DBG/tmp1/c55x-sim2/foo/c5535_bsl_revc/ezdsp5535_v1/c55xx_csl/inc/csl_usbAux.h"
    2749 0009e1 ED24          MOV dbl(*SP(#18)), XAR3
         0009e3 BF   
    2750 0009e4 ED14          MOV dbl(*SP(#10)), AC0 ; |1010| 
         0009e6 08   
    2751 0009e7 EB6D          MOV AC0, dbl(*AR3(#10)) ; |1010| 
         0009e9 0800 
         0009eb 0A   
    2752                      .dwpsn  file "F:/eZdsp_DBG/tmp1/c55x-sim2/foo/c5535_bsl_revc/ezdsp5535_v1/c55xx_csl/inc/csl_usbAux.h"
    2753 0009ec ED24          MOV dbl(*SP(#18)), XAR3
         0009ee BF   
    2754 0009ef ED6D          MOV dbl(*AR3(#8)), AC1 ; |1012| 
         0009f1 1800 
         0009f3 08   
    2755 0009f4 ED7D          MOV dbl(*AR3(short(#6))), AC0 ; |1012| 
         0009f6 08   
    2756 0009f7 1210          CMPU AC1 == AC0, TC1 ; |1012| 
         0009f9 04   
    2757 0009fa 62E4          BCC $C$L42,TC1 ; |1012| 
    2758                                                      ; branchcc occurs ; |1012| 
    2759 0009fc ED14          MOV dbl(*SP(#10)), AC0 ; |1012| 
         0009fe 08   
    2760 0009ff 6290          BCC $C$L43,AC0 != #0 ; |1012| 
    2761                                                      ; branchcc occurs ; |1012| 
    2762 000a01       $C$L42:    
    2763                      .dwpsn  file "F:/eZdsp_DBG/tmp1/c55x-sim2/foo/c5535_bsl_revc/ezdsp5535_v1/c55xx_csl/inc/csl_usbAux.h"
    2764 000a01 E66D          MOV #1, *AR3(#12) ; |1015| 
         000a03 0100 
         000a05 0C   
    2765 000a06       $C$L43:    
    2766                      .dwpsn  file "F:/eZdsp_DBG/tmp1/c55x-sim2/foo/c5535_bsl_revc/ezdsp5535_v1/c55xx_csl/inc/csl_usbAux.h"
    2767 000a06 ED24          MOV dbl(*SP(#18)), XAR3
         000a08 BF   
    2768 000a09 A96D          MOV *AR3(#12), AR1 ; |1021| 
TMS320C55x Assembler PC v4.4.1 Sat Sep 29 23:08:40 2018

Tools Copyright (c) 1996-2012 Texas Instruments Incorporated
csl_usb_dma_example.asm                                              PAGE   65

         000a0b 000C 
    2769 000a0d 0409          BCC $C$L46,AR1 == #0 ; |1021| 
         000a0f 22   
    2770                                                      ; branchcc occurs ; |1021| 
    2771                      .dwpsn  file "F:/eZdsp_DBG/tmp1/c55x-sim2/foo/c5535_bsl_revc/ezdsp5535_v1/c55xx_csl/inc/csl_usbAux.h"
    2772 000a10 ED00          MOV dbl(*SP(#0)), XAR3
         000a12 BF   
    2773 000a13 E67B          MOV #0, *AR3(short(#5)) ; |1023| 
         000a15 00   
    2774                      .dwpsn  file "F:/eZdsp_DBG/tmp1/c55x-sim2/foo/c5535_bsl_revc/ezdsp5535_v1/c55xx_csl/inc/csl_usbAux.h"
    2775 000a16 ED00          MOV dbl(*SP(#0)), XAR3
         000a18 BF   
    2776 000a19 ED00          MOV dbl(*SP(#0)), XAR0
         000a1b 8F   
    2777 000a1c ED20          MOV dbl(*SP(#16)), XAR1
         000a1e 9F   
    2778 000a1f ED6D          MOV dbl(*AR3(#116)), AC0 ; |1024| 
         000a21 0800 
         000a23 74   
    2779              $C$DW$233       .dwtag  DW_TAG_TI_branch
    2780                      .dwattr $C$DW$233, DW_AT_low_pc(0x00)
    2781                      .dwattr $C$DW$233, DW_AT_TI_call
    2782                      .dwattr $C$DW$233, DW_AT_TI_indirect
    2783 000a24 9200          CALL AC0  ; |1024| 
    2784                                                      ; call occurs [AC0] ; |1024| 
    2785 000a26 C41C          MOV T0, *SP(#14) ; |1024| 
    2786                      .dwpsn  file "F:/eZdsp_DBG/tmp1/c55x-sim2/foo/c5535_bsl_revc/ezdsp5535_v1/c55xx_csl/inc/csl_usbAux.h"
    2787 000a28 4A08          B $C$L46  ; |1026| 
    2788                                                      ; branch occurs ; |1026| 
    2789 000a2a       $C$L44:    
    2790                      .dwpsn  file "F:/eZdsp_DBG/tmp1/c55x-sim2/foo/c5535_bsl_revc/ezdsp5535_v1/c55xx_csl/inc/csl_usbAux.h"
    2791 000a2a E61C          MOV #-6, *SP(#14) ; |1029| 
         000a2c FA   
    2792                      .dwpsn  file "F:/eZdsp_DBG/tmp1/c55x-sim2/foo/c5535_bsl_revc/ezdsp5535_v1/c55xx_csl/inc/csl_usbAux.h"
    2793 000a2d 4A03          B $C$L46  ; |1031| 
    2794                                                      ; branch occurs ; |1031| 
    2795 000a2f       $C$L45:    
    2796                      .dwpsn  file "F:/eZdsp_DBG/tmp1/c55x-sim2/foo/c5535_bsl_revc/ezdsp5535_v1/c55xx_csl/inc/csl_usbAux.h"
    2797 000a2f E61C          MOV #-6, *SP(#14) ; |1034| 
         000a31 FA   
    2798 000a32       $C$L46:    
    2799                      .dwpsn  file "F:/eZdsp_DBG/tmp1/c55x-sim2/foo/c5535_bsl_revc/ezdsp5535_v1/c55xx_csl/inc/csl_usbAux.h"
    2800 000a32 A41C          MOV *SP(#14), T0 ; |1037| 
    2801                      .dwpsn  file "F:/eZdsp_DBG/tmp1/c55x-sim2/foo/c5535_bsl_revc/ezdsp5535_v1/c55xx_csl/inc/csl_usbAux.h"
    2802 000a34 4E15          AADD #21, SP
    2803                      .dwcfi  cfa_offset, 1
    2804              $C$DW$234       .dwtag  DW_TAG_TI_branch
    2805                      .dwattr $C$DW$234, DW_AT_low_pc(0x00)
    2806                      .dwattr $C$DW$234, DW_AT_TI_return
    2807 000a36 4804          RET
    2808                                                      ; return occurs
    2809              
    2810              $C$DW$235       .dwtag  DW_TAG_TI_loop
    2811                      .dwattr $C$DW$235, DW_AT_name("F:\eZdsp_DBG\tmp1\c55x-sim2\foo\Debug\csl_usb_dma_example.asm:$C$L38:1
    2812                      .dwattr $C$DW$235, DW_AT_TI_begin_file("F:/eZdsp_DBG/tmp1/c55x-sim2/foo/c5535_bsl_revc/ezdsp5535_v1/c
TMS320C55x Assembler PC v4.4.1 Sat Sep 29 23:08:40 2018

Tools Copyright (c) 1996-2012 Texas Instruments Incorporated
csl_usb_dma_example.asm                                              PAGE   66

    2813                      .dwattr $C$DW$235, DW_AT_TI_begin_line(0x3d1)
    2814                      .dwattr $C$DW$235, DW_AT_TI_end_line(0x3d4)
    2815              $C$DW$236       .dwtag  DW_TAG_TI_loop_range
    2816                      .dwattr $C$DW$236, DW_AT_low_pc($C$DW$L$_USB_handleTx$19$B)
    2817                      .dwattr $C$DW$236, DW_AT_high_pc($C$DW$L$_USB_handleTx$19$E)
    2818                      .dwendtag $C$DW$235
    2819              
    2820                      .dwattr $C$DW$216, DW_AT_TI_end_file("F:/eZdsp_DBG/tmp1/c55x-sim2/foo/c5535_bsl_revc/ezdsp5535_v1/c55
    2821                      .dwattr $C$DW$216, DW_AT_TI_end_line(0x40e)
    2822                      .dwattr $C$DW$216, DW_AT_TI_end_column(0x01)
    2823                      .dwendentry
    2824                      .dwendtag $C$DW$216
    2825              
    2826 000a38               .sect   ".text"
    2827                      .align 4
    2828              
    2829              $C$DW$237       .dwtag  DW_TAG_subprogram, DW_AT_name("USB_handleRx")
    2830                      .dwattr $C$DW$237, DW_AT_low_pc(_USB_handleRx)
    2831                      .dwattr $C$DW$237, DW_AT_high_pc(0x00)
    2832                      .dwattr $C$DW$237, DW_AT_TI_symbol_name("_USB_handleRx")
    2833                      .dwattr $C$DW$237, DW_AT_type(*$C$DW$T$80)
    2834                      .dwattr $C$DW$237, DW_AT_TI_begin_file("F:/eZdsp_DBG/tmp1/c55x-sim2/foo/c5535_bsl_revc/ezdsp5535_v1/c
    2835                      .dwattr $C$DW$237, DW_AT_TI_begin_line(0x453)
    2836                      .dwattr $C$DW$237, DW_AT_TI_begin_column(0x0c)
    2837                      .dwattr $C$DW$237, DW_AT_TI_max_frame_size(0x16)
    2838                      .dwpsn  file "F:/eZdsp_DBG/tmp1/c55x-sim2/foo/c5535_bsl_revc/ezdsp5535_v1/c55xx_csl/inc/csl_usbAux.h"
    2839              
    2840                      .dwfde $C$DW$CIE, _USB_handleRx
    2841              $C$DW$238       .dwtag  DW_TAG_formal_parameter, DW_AT_name("pContext")
    2842                      .dwattr $C$DW$238, DW_AT_TI_symbol_name("_pContext")
    2843                      .dwattr $C$DW$238, DW_AT_type(*$C$DW$T$164)
    2844                      .dwattr $C$DW$238, DW_AT_location[DW_OP_reg17]
    2845              $C$DW$239       .dwtag  DW_TAG_formal_parameter, DW_AT_name("dwEndpoint")
    2846                      .dwattr $C$DW$239, DW_AT_TI_symbol_name("_dwEndpoint")
    2847                      .dwattr $C$DW$239, DW_AT_type(*$C$DW$T$88)
    2848                      .dwattr $C$DW$239, DW_AT_location[DW_OP_reg0]
    2849              ;*******************************************************************************
    2850              ;* FUNCTION NAME: USB_handleRx                                                 *
    2851              ;*                                                                             *
    2852              ;*   Function Uses Regs : AC0,AC0,AC1,AC1,T0,AR0,XAR0,AR1,XAR1,AR2,XAR2,AR3,   *
    2853              ;*                        XAR3,SP,CARRY,TC1,M40,SATA,SATD,RDM,FRCT,SMUL        *
    2854              ;*   Stack Frame        : Compact (No Frame Pointer, w/ debug)                 *
    2855              ;*   Total Frame Size   : 22 words                                             *
    2856              ;*                        (2 return address/alignment)                         *
    2857              ;*                        (20 local values)                                    *
    2858              ;*   Min System Stack   : 1 word                                               *
    2859              ;*******************************************************************************
    2860 000a38       _USB_handleRx:
    2861                      .dwcfi  cfa_offset, 1
    2862                      .dwcfi  save_reg_to_mem, 91, -1
    2863 000a38 4EEB          AADD #-21, SP
    2864                      .dwcfi  cfa_offset, 22
    2865              $C$DW$240       .dwtag  DW_TAG_variable, DW_AT_name("pContext")
    2866                      .dwattr $C$DW$240, DW_AT_TI_symbol_name("_pContext")
    2867                      .dwattr $C$DW$240, DW_AT_type(*$C$DW$T$164)
TMS320C55x Assembler PC v4.4.1 Sat Sep 29 23:08:40 2018

Tools Copyright (c) 1996-2012 Texas Instruments Incorporated
csl_usb_dma_example.asm                                              PAGE   67

    2868                      .dwattr $C$DW$240, DW_AT_location[DW_OP_bregx 0x24 0]
    2869              $C$DW$241       .dwtag  DW_TAG_variable, DW_AT_name("dwEndpoint")
    2870                      .dwattr $C$DW$241, DW_AT_TI_symbol_name("_dwEndpoint")
    2871                      .dwattr $C$DW$241, DW_AT_type(*$C$DW$T$88)
    2872                      .dwattr $C$DW$241, DW_AT_location[DW_OP_bregx 0x24 2]
    2873              $C$DW$242       .dwtag  DW_TAG_variable, DW_AT_name("cbToRead")
    2874                      .dwattr $C$DW$242, DW_AT_TI_symbol_name("_cbToRead")
    2875                      .dwattr $C$DW$242, DW_AT_type(*$C$DW$T$88)
    2876                      .dwattr $C$DW$242, DW_AT_location[DW_OP_bregx 0x24 4]
    2877              $C$DW$243       .dwtag  DW_TAG_variable, DW_AT_name("cbBuffer")
    2878                      .dwattr $C$DW$243, DW_AT_TI_symbol_name("_cbBuffer")
    2879                      .dwattr $C$DW$243, DW_AT_type(*$C$DW$T$88)
    2880                      .dwattr $C$DW$243, DW_AT_location[DW_OP_bregx 0x24 6]
    2881              $C$DW$244       .dwtag  DW_TAG_variable, DW_AT_name("dwBytesRead")
    2882                      .dwattr $C$DW$244, DW_AT_TI_symbol_name("_dwBytesRead")
    2883                      .dwattr $C$DW$244, DW_AT_type(*$C$DW$T$88)
    2884                      .dwattr $C$DW$244, DW_AT_location[DW_OP_bregx 0x24 8]
    2885              $C$DW$245       .dwtag  DW_TAG_variable, DW_AT_name("pwBuffer")
    2886                      .dwattr $C$DW$245, DW_AT_TI_symbol_name("_pwBuffer")
    2887                      .dwattr $C$DW$245, DW_AT_type(*$C$DW$T$87)
    2888                      .dwattr $C$DW$245, DW_AT_location[DW_OP_bregx 0x24 10]
    2889              $C$DW$246       .dwtag  DW_TAG_variable, DW_AT_name("pTransfer")
    2890                      .dwattr $C$DW$246, DW_AT_TI_symbol_name("_pTransfer")
    2891                      .dwattr $C$DW$246, DW_AT_type(*$C$DW$T$172)
    2892                      .dwattr $C$DW$246, DW_AT_location[DW_OP_bregx 0x24 12]
    2893              $C$DW$247       .dwtag  DW_TAG_variable, DW_AT_name("status")
    2894                      .dwattr $C$DW$247, DW_AT_TI_symbol_name("_status")
    2895                      .dwattr $C$DW$247, DW_AT_type(*$C$DW$T$80)
    2896                      .dwattr $C$DW$247, DW_AT_location[DW_OP_bregx 0x24 14]
    2897              $C$DW$248       .dwtag  DW_TAG_variable, DW_AT_name("saveIndex")
    2898                      .dwattr $C$DW$248, DW_AT_TI_symbol_name("_saveIndex")
    2899                      .dwattr $C$DW$248, DW_AT_type(*$C$DW$T$19)
    2900                      .dwattr $C$DW$248, DW_AT_location[DW_OP_bregx 0x24 15]
    2901              $C$DW$249       .dwtag  DW_TAG_variable, DW_AT_name("peps")
    2902                      .dwattr $C$DW$249, DW_AT_TI_symbol_name("_peps")
    2903                      .dwattr $C$DW$249, DW_AT_type(*$C$DW$T$168)
    2904                      .dwattr $C$DW$249, DW_AT_location[DW_OP_bregx 0x24 16]
    2905              $C$DW$250       .dwtag  DW_TAG_variable, DW_AT_name("count")
    2906                      .dwattr $C$DW$250, DW_AT_TI_symbol_name("_count")
    2907                      .dwattr $C$DW$250, DW_AT_type(*$C$DW$T$20)
    2908                      .dwattr $C$DW$250, DW_AT_location[DW_OP_bregx 0x24 18]
    2909              $C$DW$251       .dwtag  DW_TAG_variable, DW_AT_name("pFifoAddr")
    2910                      .dwattr $C$DW$251, DW_AT_TI_symbol_name("_pFifoAddr")
    2911                      .dwattr $C$DW$251, DW_AT_type(*$C$DW$T$227)
    2912                      .dwattr $C$DW$251, DW_AT_location[DW_OP_bregx 0x24 19]
    2913 000a3a EB04          MOV AC0, dbl(*SP(#2)) ; |1109| 
         000a3c 08   
    2914 000a3d EB00          MOV XAR0, dbl(*SP(#0))
         000a3f 85   
    2915                      .dwpsn  file "F:/eZdsp_DBG/tmp1/c55x-sim2/foo/c5535_bsl_revc/ezdsp5535_v1/c55xx_csl/inc/csl_usbAux.h"
    2916 000a40 E61C          MOV #0, *SP(#14) ; |1121| 
         000a42 00   
    2917                      .dwpsn  file "F:/eZdsp_DBG/tmp1/c55x-sim2/foo/c5535_bsl_revc/ezdsp5535_v1/c55xx_csl/inc/csl_usbAux.h"
    2918 000a43 3C00          MOV #0, AC0 ; |1122| 
    2919 000a45 EB10          MOV AC0, dbl(*SP(#8)) ; |1122| 
TMS320C55x Assembler PC v4.4.1 Sat Sep 29 23:08:40 2018

Tools Copyright (c) 1996-2012 Texas Instruments Incorporated
csl_usb_dma_example.asm                                              PAGE   68

         000a47 08   
    2920                      .dwpsn  file "F:/eZdsp_DBG/tmp1/c55x-sim2/foo/c5535_bsl_revc/ezdsp5535_v1/c55xx_csl/inc/csl_usbAux.h"
    2921 000a48 ED00          MOV dbl(*SP(#0)), XAR3
         000a4a BF   
    2922 000a4b 90B0          MOV XAR3, AC0
    2923 000a4d 6D00          BCC $C$L59,AC0 == #0 ; |1124| 
         000a4f 0221 
    2924                                                      ; branchcc occurs ; |1124| 
    2925                      .dwpsn  file "F:/eZdsp_DBG/tmp1/c55x-sim2/foo/c5535_bsl_revc/ezdsp5535_v1/c55xx_csl/inc/csl_usbAux.h"
    2926 000a51 ED6D          MOV dbl(*AR3(#98)), XAR3
         000a53 BF00 
         000a55 62   
    2927 000a56 F806          MPYMK *SP(#3), #18, AC0 ; |1126| 
         000a58 1200 
    2928 000a5a 2209          MOV AC0, AR1 ; |1126| 
    2929              
    2930 000a5c 8E20          MOV XAR3, dbl(*SP(#16))
         000a5e BB10 
         000a60 B590 
    2931              ||      AADD AR1, AR3 ; |1126| 
    2932              
    2933                      .dwpsn  file "F:/eZdsp_DBG/tmp1/c55x-sim2/foo/c5535_bsl_revc/ezdsp5535_v1/c55xx_csl/inc/csl_usbAux.h"
    2934 000a62 ED6D          MOV dbl(*AR3(#10)), XAR3
         000a64 BF00 
         000a66 0A   
    2935 000a67 EB18          MOV XAR3, dbl(*SP(#12))
         000a69 B5   
    2936                      .dwpsn  file "F:/eZdsp_DBG/tmp1/c55x-sim2/foo/c5535_bsl_revc/ezdsp5535_v1/c55xx_csl/inc/csl_usbAux.h"
    2937 000a6a 90B0          MOV XAR3, AC0
    2938 000a6c 6D00          BCC $C$L58,AC0 == #0 ; |1129| 
         000a6e 01FD 
    2939                                                      ; branchcc occurs ; |1129| 
    2940 000a70 A96D          MOV *AR3(#12), AR1 ; |1129| 
         000a72 000C 
    2941 000a74 6D19          BCC $C$L58,AR1 != #0 ; |1129| 
         000a76 01F5 
    2942                                                      ; branchcc occurs ; |1129| 
    2943                      .dwpsn  file "F:/eZdsp_DBG/tmp1/c55x-sim2/foo/c5535_bsl_revc/ezdsp5535_v1/c55xx_csl/inc/csl_usbAux.h"
    2944 000a78 ED6D          MOV dbl(*AR3(#8)), AC0 ; |1131| 
         000a7a 0800 
         000a7c 08   
    2945 000a7d ED7D          SUB AC0, dbl(*AR3(short(#6))), AC0 ; |1131| 
         000a7f 04   
    2946 000a80 EB0C          MOV AC0, dbl(*SP(#6)) ; |1131| 
         000a82 08   
    2947                      .dwpsn  file "F:/eZdsp_DBG/tmp1/c55x-sim2/foo/c5535_bsl_revc/ezdsp5535_v1/c55xx_csl/inc/csl_usbAux.h"
    2948 000a83 ED18          MOV dbl(*SP(#12)), XAR3
         000a85 BF   
    2949 000a86 ED6D          MOV dbl(*AR3(#8)), AC0 ; |1132| 
         000a88 0800 
         000a8a 08   
    2950 000a8b 5001          SFTL AC0, #-1 ; |1132| 
    2951 000a8d 2209          MOV AC0, AR1 ; |1132| 
    2952 000a8f ED79          MOV dbl(*AR3(short(#4))), XAR3
         000a91 BF   
TMS320C55x Assembler PC v4.4.1 Sat Sep 29 23:08:40 2018

Tools Copyright (c) 1996-2012 Texas Instruments Incorporated
csl_usb_dma_example.asm                                              PAGE   69

    2953              
    2954 000a92 8E14          MOV XAR3, dbl(*SP(#10))
         000a94 BB10 
         000a96 B590 
    2955              ||      AADD AR1, AR3 ; |1132| 
    2956              
    2957                      .dwpsn  file "F:/eZdsp_DBG/tmp1/c55x-sim2/foo/c5535_bsl_revc/ezdsp5535_v1/c55xx_csl/inc/csl_usbAux.h"
    2958 000a98 ED20          MOV dbl(*SP(#16)), XAR3
         000a9a BF   
    2959 000a9b A96D          MOV *AR3(#9), AR1 ; |1133| 
         000a9d 0009 
    2960 000a9f C926          MOV AR1, *SP(#19) ; |1133| 
    2961                      .dwpsn  file "F:/eZdsp_DBG/tmp1/c55x-sim2/foo/c5535_bsl_revc/ezdsp5535_v1/c55xx_csl/inc/csl_usbAux.h"
    2962 000aa1 ED20          MOV dbl(*SP(#16)), XAR3
         000aa3 BF   
    2963 000aa4 ED0C          MOV dbl(*SP(#6)), AC1 ; |1136| 
         000aa6 18   
    2964 000aa7 ED79          MOV dbl(*AR3(short(#4))), AC0 ; |1136| 
         000aa9 08   
    2965 000aaa 1218          CMPU AC1 >= AC0, TC1 ; |1136| 
         000aac 04   
    2966 000aad 62E4          BCC $C$L47,TC1 ; |1136| 
    2967                                                      ; branchcc occurs ; |1136| 
    2968 000aaf ED0C          MOV dbl(*SP(#6)), AC0 ; |1136| 
         000ab1 08   
    2969 000ab2 4A03          B $C$L48  ; |1136| 
    2970                                                      ; branch occurs ; |1136| 
    2971 000ab4       $C$L47:    
    2972 000ab4 ED79          MOV dbl(*AR3(short(#4))), AC0 ; |1136| 
         000ab6 08   
    2973 000ab7       $C$L48:    
    2974 000ab7 EB08          MOV AC0, dbl(*SP(#4)) ; |1136| 
         000ab9 08   
    2975                      .dwpsn  file "F:/eZdsp_DBG/tmp1/c55x-sim2/foo/c5535_bsl_revc/ezdsp5535_v1/c55xx_csl/inc/csl_usbAux.h"
    2976 000aba 7602          MOV #512, AC0 ; |1138| 
         000abc 0008 
    2977 000abe ED08          MOV dbl(*SP(#4)), AC1 ; |1138| 
         000ac0 18   
    2978 000ac1 1210          CMPU AC1 == AC0, TC1 ; |1138| 
         000ac3 04   
    2979 000ac4 66E4          BCC $C$L49,TC1 ; |1138| 
    2980                                                      ; branchcc occurs ; |1138| 
    2981 000ac6 7600          MOV #64, AC0 ; |1138| 
         000ac8 4008 
    2982 000aca ED08          MOV dbl(*SP(#4)), AC1 ; |1138| 
         000acc 18   
    2983 000acd 121C          CMPU AC1 != AC0, TC1 ; |1138| 
         000acf 04   
    2984 000ad0 0464          BCC $C$L51,TC1 ; |1138| 
         000ad2 5B   
    2985                                                      ; branchcc occurs ; |1138| 
    2986 000ad3       $C$L49:    
    2987 000ad3 ED00          MOV dbl(*SP(#0)), XAR3
         000ad5 BF   
    2988 000ad6 F061          CMP *AR3 == #1, TC1 ; |1138| 
TMS320C55x Assembler PC v4.4.1 Sat Sep 29 23:08:40 2018

Tools Copyright (c) 1996-2012 Texas Instruments Incorporated
csl_usb_dma_example.asm                                              PAGE   70

         000ad8 0001 
    2989 000ada 0474          BCC $C$L51,!TC1 ; |1138| 
         000adc 51   
