TMS320C55x Assembler PC v4.4.1 Sat Sep 29 23:09:37 2018

Tools Copyright (c) 1996-2012 Texas Instruments Incorporated
csl_i2c_dmaWordSwap_example.asm                                      PAGE    1

    3936              ; Temporary Registers Used: None
       1              ;*******************************************************************************
       2              ;* TMS320C55x C/C++ Codegen                                          PC v4.4.1 *
       3              ;* Date/Time created: Sat Sep 29 23:09:36 2018                                 *
       4              ;*******************************************************************************
       5                      .compiler_opts --hll_source=on --mem_model:code=flat --mem_model:data=large --object_format=coff --si
       6                      .mmregs
       7                      .cpl_on
       8                      .arms_on
       9                      .c54cm_off
      10                      .asg AR6, FP
      11                      .asg XAR6, XFP
      12                      .asg DPH, MDP
      13                      .model call=c55_std
      14                      .model mem=large
      15                      .noremark 5002  ; code respects overwrite rules
      16              ;*******************************************************************************
      17              ;* GLOBAL FILE PARAMETERS                                                      *
      18              ;*                                                                             *
      19              ;*   Architecture       : TMS320C55x                                           *
      20              ;*   Optimizing for     : Speed                                                *
      21              ;*   Memory             : Large Model (23-Bit Data Pointers)                   *
      22              ;*   Calls              : Normal Library ASM calls                             *
      23              ;*   Debug Info         : Standard TI Debug Information                        *
      24              ;*******************************************************************************
      25              
      26              $C$DW$CU        .dwtag  DW_TAG_compile_unit
      27                      .dwattr $C$DW$CU, DW_AT_name("../c5535_bsl_revc/ezdsp5535_v1/c55xx_csl/ccs_v4.0_examples/i2c/CSL_I2C_
      28                      .dwattr $C$DW$CU, DW_AT_producer("TMS320C55x C/C++ Codegen PC v4.4.1 Copyright (c) 1996-2012 Texas In
      29                      .dwattr $C$DW$CU, DW_AT_TI_version(0x01)
      30                      .dwattr $C$DW$CU, DW_AT_comp_dir("F:\eZdsp_DBG\tmp1\c55x-sim2\foo\Debug")
      31              ;******************************************************************************
      32              ;* CINIT RECORDS                                                              *
      33              ;******************************************************************************
      34 000000               .sect   ".cinit"
      35                      .align  1
      36 000000 0001          .field          1,16
      37 000001 0001-         .field          _PaSs_StAtE+0,24
         000002 9D00 
      38 000002 9D00          .field          0,8
      39 000003 0001          .field  1,16                    ; _PaSs_StAtE @ 0
      40              
      41 000004               .sect   ".cinit"
      42                      .align  1
      43 000004 0001          .field          1,16
      44 000005 0001-         .field          _PaSs+0,24
         000006 BE00 
      45 000006 BE00          .field          0,8
      46 000007 0000          .field  0,16                    ; _PaSs @ 0
      47              
      48              
      49              $C$DW$1 .dwtag  DW_TAG_subprogram, DW_AT_name("printf")
      50                      .dwattr $C$DW$1, DW_AT_TI_symbol_name("_printf")
      51                      .dwattr $C$DW$1, DW_AT_type(*$C$DW$T$10)
      52                      .dwattr $C$DW$1, DW_AT_declaration
TMS320C55x Assembler PC v4.4.1 Sat Sep 29 23:09:37 2018

Tools Copyright (c) 1996-2012 Texas Instruments Incorporated
csl_i2c_dmaWordSwap_example.asm                                      PAGE    2

      53                      .dwattr $C$DW$1, DW_AT_external
      54              $C$DW$2 .dwtag  DW_TAG_formal_parameter
      55                      .dwattr $C$DW$2, DW_AT_type(*$C$DW$T$128)
      56              $C$DW$3 .dwtag  DW_TAG_unspecified_parameters
      57                      .dwendtag $C$DW$1
      58              
      59              
      60              $C$DW$4 .dwtag  DW_TAG_subprogram, DW_AT_name("I2C_init")
      61                      .dwattr $C$DW$4, DW_AT_TI_symbol_name("_I2C_init")
      62                      .dwattr $C$DW$4, DW_AT_type(*$C$DW$T$86)
      63                      .dwattr $C$DW$4, DW_AT_declaration
      64                      .dwattr $C$DW$4, DW_AT_external
      65              $C$DW$5 .dwtag  DW_TAG_formal_parameter
      66                      .dwattr $C$DW$5, DW_AT_type(*$C$DW$T$19)
      67                      .dwendtag $C$DW$4
      68              
      69              
      70              $C$DW$6 .dwtag  DW_TAG_subprogram, DW_AT_name("I2C_config")
      71                      .dwattr $C$DW$6, DW_AT_TI_symbol_name("_I2C_config")
      72                      .dwattr $C$DW$6, DW_AT_type(*$C$DW$T$86)
      73                      .dwattr $C$DW$6, DW_AT_declaration
      74                      .dwattr $C$DW$6, DW_AT_external
      75              $C$DW$7 .dwtag  DW_TAG_formal_parameter
      76                      .dwattr $C$DW$7, DW_AT_type(*$C$DW$T$95)
      77                      .dwendtag $C$DW$6
      78              
      79              
      80              $C$DW$8 .dwtag  DW_TAG_subprogram, DW_AT_name("I2C_setup")
      81                      .dwattr $C$DW$8, DW_AT_TI_symbol_name("_I2C_setup")
      82                      .dwattr $C$DW$8, DW_AT_type(*$C$DW$T$86)
      83                      .dwattr $C$DW$8, DW_AT_declaration
      84                      .dwattr $C$DW$8, DW_AT_external
      85              $C$DW$9 .dwtag  DW_TAG_formal_parameter
      86                      .dwattr $C$DW$9, DW_AT_type(*$C$DW$T$100)
      87                      .dwendtag $C$DW$8
      88              
      89              
      90              $C$DW$10        .dwtag  DW_TAG_subprogram, DW_AT_name("I2C_write")
      91                      .dwattr $C$DW$10, DW_AT_TI_symbol_name("_I2C_write")
      92                      .dwattr $C$DW$10, DW_AT_type(*$C$DW$T$86)
      93                      .dwattr $C$DW$10, DW_AT_declaration
      94                      .dwattr $C$DW$10, DW_AT_external
      95              $C$DW$11        .dwtag  DW_TAG_formal_parameter
      96                      .dwattr $C$DW$11, DW_AT_type(*$C$DW$T$107)
      97              $C$DW$12        .dwtag  DW_TAG_formal_parameter
      98                      .dwattr $C$DW$12, DW_AT_type(*$C$DW$T$19)
      99              $C$DW$13        .dwtag  DW_TAG_formal_parameter
     100                      .dwattr $C$DW$13, DW_AT_type(*$C$DW$T$19)
     101              $C$DW$14        .dwtag  DW_TAG_formal_parameter
     102                      .dwattr $C$DW$14, DW_AT_type(*$C$DW$T$31)
     103              $C$DW$15        .dwtag  DW_TAG_formal_parameter
     104                      .dwattr $C$DW$15, DW_AT_type(*$C$DW$T$19)
     105              $C$DW$16        .dwtag  DW_TAG_formal_parameter
     106                      .dwattr $C$DW$16, DW_AT_type(*$C$DW$T$19)
     107                      .dwendtag $C$DW$10
TMS320C55x Assembler PC v4.4.1 Sat Sep 29 23:09:37 2018

Tools Copyright (c) 1996-2012 Texas Instruments Incorporated
csl_i2c_dmaWordSwap_example.asm                                      PAGE    3

     108              
     109              
     110              $C$DW$17        .dwtag  DW_TAG_subprogram, DW_AT_name("I2C_read")
     111                      .dwattr $C$DW$17, DW_AT_TI_symbol_name("_I2C_read")
     112                      .dwattr $C$DW$17, DW_AT_type(*$C$DW$T$86)
     113                      .dwattr $C$DW$17, DW_AT_declaration
     114                      .dwattr $C$DW$17, DW_AT_external
     115              $C$DW$18        .dwtag  DW_TAG_formal_parameter
     116                      .dwattr $C$DW$18, DW_AT_type(*$C$DW$T$107)
     117              $C$DW$19        .dwtag  DW_TAG_formal_parameter
     118                      .dwattr $C$DW$19, DW_AT_type(*$C$DW$T$19)
     119              $C$DW$20        .dwtag  DW_TAG_formal_parameter
     120                      .dwattr $C$DW$20, DW_AT_type(*$C$DW$T$19)
     121              $C$DW$21        .dwtag  DW_TAG_formal_parameter
     122                      .dwattr $C$DW$21, DW_AT_type(*$C$DW$T$31)
     123              $C$DW$22        .dwtag  DW_TAG_formal_parameter
     124                      .dwattr $C$DW$22, DW_AT_type(*$C$DW$T$19)
     125              $C$DW$23        .dwtag  DW_TAG_formal_parameter
     126                      .dwattr $C$DW$23, DW_AT_type(*$C$DW$T$19)
     127              $C$DW$24        .dwtag  DW_TAG_formal_parameter
     128                      .dwattr $C$DW$24, DW_AT_type(*$C$DW$T$31)
     129                      .dwendtag $C$DW$17
     130              
     131              
     132              $C$DW$25        .dwtag  DW_TAG_subprogram, DW_AT_name("DMA_init")
     133                      .dwattr $C$DW$25, DW_AT_TI_symbol_name("_DMA_init")
     134                      .dwattr $C$DW$25, DW_AT_type(*$C$DW$T$86)
     135                      .dwattr $C$DW$25, DW_AT_declaration
     136                      .dwattr $C$DW$25, DW_AT_external
     137              
     138              $C$DW$26        .dwtag  DW_TAG_subprogram, DW_AT_name("DMA_open")
     139                      .dwattr $C$DW$26, DW_AT_TI_symbol_name("_DMA_open")
     140                      .dwattr $C$DW$26, DW_AT_type(*$C$DW$T$84)
     141                      .dwattr $C$DW$26, DW_AT_declaration
     142                      .dwattr $C$DW$26, DW_AT_external
     143              $C$DW$27        .dwtag  DW_TAG_formal_parameter
     144                      .dwattr $C$DW$27, DW_AT_type(*$C$DW$T$28)
     145              $C$DW$28        .dwtag  DW_TAG_formal_parameter
     146                      .dwattr $C$DW$28, DW_AT_type(*$C$DW$T$83)
     147              $C$DW$29        .dwtag  DW_TAG_formal_parameter
     148                      .dwattr $C$DW$29, DW_AT_type(*$C$DW$T$87)
     149                      .dwendtag $C$DW$26
     150              
     151              
     152              $C$DW$30        .dwtag  DW_TAG_subprogram, DW_AT_name("DMA_config")
     153                      .dwattr $C$DW$30, DW_AT_TI_symbol_name("_DMA_config")
     154                      .dwattr $C$DW$30, DW_AT_type(*$C$DW$T$86)
     155                      .dwattr $C$DW$30, DW_AT_declaration
     156                      .dwattr $C$DW$30, DW_AT_external
     157              $C$DW$31        .dwtag  DW_TAG_formal_parameter
     158                      .dwattr $C$DW$31, DW_AT_type(*$C$DW$T$84)
     159              $C$DW$32        .dwtag  DW_TAG_formal_parameter
     160                      .dwattr $C$DW$32, DW_AT_type(*$C$DW$T$93)
     161                      .dwendtag $C$DW$30
     162              
TMS320C55x Assembler PC v4.4.1 Sat Sep 29 23:09:37 2018

Tools Copyright (c) 1996-2012 Texas Instruments Incorporated
csl_i2c_dmaWordSwap_example.asm                                      PAGE    4

     163              
     164              $C$DW$33        .dwtag  DW_TAG_subprogram, DW_AT_name("DMA_start")
     165                      .dwattr $C$DW$33, DW_AT_TI_symbol_name("_DMA_start")
     166                      .dwattr $C$DW$33, DW_AT_type(*$C$DW$T$86)
     167                      .dwattr $C$DW$33, DW_AT_declaration
     168                      .dwattr $C$DW$33, DW_AT_external
     169              $C$DW$34        .dwtag  DW_TAG_formal_parameter
     170                      .dwattr $C$DW$34, DW_AT_type(*$C$DW$T$84)
     171                      .dwendtag $C$DW$33
     172              
     173              $C$DW$35        .dwtag  DW_TAG_variable, DW_AT_name("i2cHandle")
     174                      .dwattr $C$DW$35, DW_AT_TI_symbol_name("_i2cHandle")
     175                      .dwattr $C$DW$35, DW_AT_type(*$C$DW$T$98)
     176                      .dwattr $C$DW$35, DW_AT_declaration
     177                      .dwattr $C$DW$35, DW_AT_external
     178                      .global _gI2cDmaWrBuf
     179 000000               .bss    _gI2cDmaWrBuf,132,0,8
     180              $C$DW$36        .dwtag  DW_TAG_variable, DW_AT_name("gI2cDmaWrBuf")
     181                      .dwattr $C$DW$36, DW_AT_TI_symbol_name("_gI2cDmaWrBuf")
     182                      .dwattr $C$DW$36, DW_AT_location[DW_OP_addr _gI2cDmaWrBuf]
     183                      .dwattr $C$DW$36, DW_AT_type(*$C$DW$T$131)
     184                      .dwattr $C$DW$36, DW_AT_external
     185                      .global _gI2cDmaRdBuf
     186 000088               .bss    _gI2cDmaRdBuf,128,0,8
     187              $C$DW$37        .dwtag  DW_TAG_variable, DW_AT_name("gI2cDmaRdBuf")
     188                      .dwattr $C$DW$37, DW_AT_TI_symbol_name("_gI2cDmaRdBuf")
     189                      .dwattr $C$DW$37, DW_AT_location[DW_OP_addr _gI2cDmaRdBuf]
     190                      .dwattr $C$DW$37, DW_AT_type(*$C$DW$T$133)
     191                      .dwattr $C$DW$37, DW_AT_external
     192                      .global _gI2cPollWrBuf
     193 000108               .bss    _gI2cPollWrBuf,66,0,0
     194              $C$DW$38        .dwtag  DW_TAG_variable, DW_AT_name("gI2cPollWrBuf")
     195                      .dwattr $C$DW$38, DW_AT_TI_symbol_name("_gI2cPollWrBuf")
     196                      .dwattr $C$DW$38, DW_AT_location[DW_OP_addr _gI2cPollWrBuf]
     197                      .dwattr $C$DW$38, DW_AT_type(*$C$DW$T$121)
     198                      .dwattr $C$DW$38, DW_AT_external
     199                      .global _gI2cPollRdBuf
     200 00014a               .bss    _gI2cPollRdBuf,64,0,0
     201              $C$DW$39        .dwtag  DW_TAG_variable, DW_AT_name("gI2cPollRdBuf")
     202                      .dwattr $C$DW$39, DW_AT_TI_symbol_name("_gI2cPollRdBuf")
     203                      .dwattr $C$DW$39, DW_AT_location[DW_OP_addr _gI2cPollRdBuf]
     204                      .dwattr $C$DW$39, DW_AT_type(*$C$DW$T$122)
     205                      .dwattr $C$DW$39, DW_AT_external
     206                      .global _i2cSetup
     207 00018a               .bss    _i2cSetup,10,0,2
     208              $C$DW$40        .dwtag  DW_TAG_variable, DW_AT_name("i2cSetup")
     209                      .dwattr $C$DW$40, DW_AT_TI_symbol_name("_i2cSetup")
     210                      .dwattr $C$DW$40, DW_AT_location[DW_OP_addr _i2cSetup]
     211                      .dwattr $C$DW$40, DW_AT_type(*$C$DW$T$99)
     212                      .dwattr $C$DW$40, DW_AT_external
     213                      .global _i2cConfig
     214 000194               .bss    _i2cConfig,9,0,0
     215              $C$DW$41        .dwtag  DW_TAG_variable, DW_AT_name("i2cConfig")
     216                      .dwattr $C$DW$41, DW_AT_TI_symbol_name("_i2cConfig")
     217                      .dwattr $C$DW$41, DW_AT_location[DW_OP_addr _i2cConfig]
TMS320C55x Assembler PC v4.4.1 Sat Sep 29 23:09:37 2018

Tools Copyright (c) 1996-2012 Texas Instruments Incorporated
csl_i2c_dmaWordSwap_example.asm                                      PAGE    5

     218                      .dwattr $C$DW$41, DW_AT_type(*$C$DW$T$94)
     219                      .dwattr $C$DW$41, DW_AT_external
     220                      .global _dmaWrHandle
     221 000084               .bss    _dmaWrHandle,2,0,2
     222              $C$DW$42        .dwtag  DW_TAG_variable, DW_AT_name("dmaWrHandle")
     223                      .dwattr $C$DW$42, DW_AT_TI_symbol_name("_dmaWrHandle")
     224                      .dwattr $C$DW$42, DW_AT_location[DW_OP_addr _dmaWrHandle]
     225                      .dwattr $C$DW$42, DW_AT_type(*$C$DW$T$84)
     226                      .dwattr $C$DW$42, DW_AT_external
     227                      .global _dmaRdHandle
     228 000086               .bss    _dmaRdHandle,2,0,2
     229              $C$DW$43        .dwtag  DW_TAG_variable, DW_AT_name("dmaRdHandle")
     230                      .dwattr $C$DW$43, DW_AT_TI_symbol_name("_dmaRdHandle")
     231                      .dwattr $C$DW$43, DW_AT_location[DW_OP_addr _dmaRdHandle]
     232                      .dwattr $C$DW$43, DW_AT_type(*$C$DW$T$84)
     233                      .dwattr $C$DW$43, DW_AT_external
     234                      .global _dmaConfig
     235 00019e               .bss    _dmaConfig,14,0,2
     236              $C$DW$44        .dwtag  DW_TAG_variable, DW_AT_name("dmaConfig")
     237                      .dwattr $C$DW$44, DW_AT_TI_symbol_name("_dmaConfig")
     238                      .dwattr $C$DW$44, DW_AT_location[DW_OP_addr _dmaConfig]
     239                      .dwattr $C$DW$44, DW_AT_type(*$C$DW$T$92)
     240                      .dwattr $C$DW$44, DW_AT_external
     241                      .global _dmaWrChanObj
     242 0001ac               .bss    _dmaWrChanObj,9,0,0
     243              $C$DW$45        .dwtag  DW_TAG_variable, DW_AT_name("dmaWrChanObj")
     244                      .dwattr $C$DW$45, DW_AT_TI_symbol_name("_dmaWrChanObj")
     245                      .dwattr $C$DW$45, DW_AT_location[DW_OP_addr _dmaWrChanObj]
     246                      .dwattr $C$DW$45, DW_AT_type(*$C$DW$T$82)
     247                      .dwattr $C$DW$45, DW_AT_external
     248                      .global _dmaRdChanObj
     249 0001b5               .bss    _dmaRdChanObj,9,0,0
     250              $C$DW$46        .dwtag  DW_TAG_variable, DW_AT_name("dmaRdChanObj")
     251                      .dwattr $C$DW$46, DW_AT_TI_symbol_name("_dmaRdChanObj")
     252                      .dwattr $C$DW$46, DW_AT_location[DW_OP_addr _dmaRdChanObj]
     253                      .dwattr $C$DW$46, DW_AT_type(*$C$DW$T$82)
     254                      .dwattr $C$DW$46, DW_AT_external
     255                      .global _PaSs_StAtE
     256 00019d               .bss    _PaSs_StAtE,1,0,0
     257              $C$DW$47        .dwtag  DW_TAG_variable, DW_AT_name("PaSs_StAtE")
     258                      .dwattr $C$DW$47, DW_AT_TI_symbol_name("_PaSs_StAtE")
     259                      .dwattr $C$DW$47, DW_AT_location[DW_OP_addr _PaSs_StAtE]
     260                      .dwattr $C$DW$47, DW_AT_type(*$C$DW$T$118)
     261                      .dwattr $C$DW$47, DW_AT_external
     262                      .global _PaSs
     263 0001be               .bss    _PaSs,1,0,0
     264              $C$DW$48        .dwtag  DW_TAG_variable, DW_AT_name("PaSs")
     265                      .dwattr $C$DW$48, DW_AT_TI_symbol_name("_PaSs")
     266                      .dwattr $C$DW$48, DW_AT_location[DW_OP_addr _PaSs]
     267                      .dwattr $C$DW$48, DW_AT_type(*$C$DW$T$118)
     268                      .dwattr $C$DW$48, DW_AT_external
     269              ;       F:\t\cc5p5\ccsv5\tools\compiler\c5500_4.4.1\bin\acp55.exe -@f:\\AppData\\Local\\Temp\\1119212 
     270 000000               .sect   ".text"
     271                      .align 4
     272              
TMS320C55x Assembler PC v4.4.1 Sat Sep 29 23:09:37 2018

Tools Copyright (c) 1996-2012 Texas Instruments Incorporated
csl_i2c_dmaWordSwap_example.asm                                      PAGE    6

     273              $C$DW$49        .dwtag  DW_TAG_subprogram, DW_AT_name("DMA_getStatus")
     274                      .dwattr $C$DW$49, DW_AT_low_pc(_DMA_getStatus)
     275                      .dwattr $C$DW$49, DW_AT_high_pc(0x00)
     276                      .dwattr $C$DW$49, DW_AT_TI_symbol_name("_DMA_getStatus")
     277                      .dwattr $C$DW$49, DW_AT_type(*$C$DW$T$123)
     278                      .dwattr $C$DW$49, DW_AT_TI_begin_file("F:/eZdsp_DBG/tmp1/c55x-sim2/foo/c5535_bsl_revc/ezdsp5535_v1/c5
     279                      .dwattr $C$DW$49, DW_AT_TI_begin_line(0x3f0)
     280                      .dwattr $C$DW$49, DW_AT_TI_begin_column(0x05)
     281                      .dwattr $C$DW$49, DW_AT_TI_max_frame_size(0x06)
     282                      .dwpsn  file "F:/eZdsp_DBG/tmp1/c55x-sim2/foo/c5535_bsl_revc/ezdsp5535_v1/c55xx_csl/inc/csl_dma.h",li
     283              
     284                      .dwfde $C$DW$CIE, _DMA_getStatus
     285              $C$DW$50        .dwtag  DW_TAG_formal_parameter, DW_AT_name("hDMA")
     286                      .dwattr $C$DW$50, DW_AT_TI_symbol_name("_hDMA")
     287                      .dwattr $C$DW$50, DW_AT_type(*$C$DW$T$84)
     288                      .dwattr $C$DW$50, DW_AT_location[DW_OP_reg17]
     289              ;*******************************************************************************
     290              ;* FUNCTION NAME: DMA_getStatus                                                *
     291              ;*                                                                             *
     292              ;*   Function Uses Regs : AC0,AC0,T0,AR0,XAR0,AR1,AR2,AR3,XAR3,SP,CARRY,TC1,   *
     293              ;*                        M40,SATA,SATD,RDM,FRCT,SMUL                          *
     294              ;*   Stack Frame        : Compact (No Frame Pointer, w/ debug)                 *
     295              ;*   Total Frame Size   : 6 words                                              *
     296              ;*                        (2 return address/alignment)                         *
     297              ;*                        (4 local values)                                     *
     298              ;*   Min System Stack   : 1 word                                               *
     299              ;*******************************************************************************
     300 000000       _DMA_getStatus:
     301                      .dwcfi  cfa_offset, 1
     302                      .dwcfi  save_reg_to_mem, 91, -1
     303 000000 4EFB          AADD #-5, SP
     304                      .dwcfi  cfa_offset, 6
     305              $C$DW$51        .dwtag  DW_TAG_variable, DW_AT_name("hDMA")
     306                      .dwattr $C$DW$51, DW_AT_TI_symbol_name("_hDMA")
     307                      .dwattr $C$DW$51, DW_AT_type(*$C$DW$T$84)
     308                      .dwattr $C$DW$51, DW_AT_location[DW_OP_bregx 0x24 0]
     309              $C$DW$52        .dwtag  DW_TAG_variable, DW_AT_name("status")
     310                      .dwattr $C$DW$52, DW_AT_TI_symbol_name("_status")
     311                      .dwattr $C$DW$52, DW_AT_type(*$C$DW$T$123)
     312                      .dwattr $C$DW$52, DW_AT_location[DW_OP_bregx 0x24 2]
     313              $C$DW$53        .dwtag  DW_TAG_variable, DW_AT_name("chanNum")
     314                      .dwattr $C$DW$53, DW_AT_TI_symbol_name("_chanNum")
     315                      .dwattr $C$DW$53, DW_AT_type(*$C$DW$T$19)
     316                      .dwattr $C$DW$53, DW_AT_location[DW_OP_bregx 0x24 3]
     317 000002 EB00          MOV XAR0, dbl(*SP(#0))
         000004 85   
     318                      .dwpsn  file "F:/eZdsp_DBG/tmp1/c55x-sim2/foo/c5535_bsl_revc/ezdsp5535_v1/c55xx_csl/inc/csl_dma.h",li
     319 000005 ED00          MOV dbl(*SP(#0)), XAR3
         000007 BF   
     320 000008 90B0          MOV XAR3, AC0
     321 00000a 6D00          BCC $C$L7,AC0 == #0 ; |1018| 
         00000c 0094 
     322                                                      ; branchcc occurs ; |1018| 
     323                      .dwpsn  file "F:/eZdsp_DBG/tmp1/c55x-sim2/foo/c5535_bsl_revc/ezdsp5535_v1/c55xx_csl/inc/csl_dma.h",li
     324 00000e A973          MOV *AR3(short(#1)), AR1 ; |1020| 
TMS320C55x Assembler PC v4.4.1 Sat Sep 29 23:09:37 2018

Tools Copyright (c) 1996-2012 Texas Instruments Incorporated
csl_i2c_dmaWordSwap_example.asm                                      PAGE    7

     325 000010 C906          MOV AR1, *SP(#3) ; |1020| 
     326                      .dwpsn  file "F:/eZdsp_DBG/tmp1/c55x-sim2/foo/c5535_bsl_revc/ezdsp5535_v1/c55xx_csl/inc/csl_dma.h",li
     327 000012 3C4A          MOV #4, AR2
     328 000014 1294          CMPU AR1 < AR2, TC1 ; |1022| 
         000016 A4   
     329 000017 0464          BCC $C$L6,TC1 ; |1022| 
         000019 69   
     330                                                      ; branchcc occurs ; |1022| 
     331 00001a       $C$L1:    
     332 00001a       $C$DW$L$_DMA_getStatus$3$B:
     333                      .dwpsn  file "F:/eZdsp_DBG/tmp1/c55x-sim2/foo/c5535_bsl_revc/ezdsp5535_v1/c55xx_csl/inc/csl_dma.h",li
     334 00001a F706          SUB #4, *SP(#3) ; |1024| 
         00001c FFFC 
     335                      .dwpsn  file "F:/eZdsp_DBG/tmp1/c55x-sim2/foo/c5535_bsl_revc/ezdsp5535_v1/c55xx_csl/inc/csl_dma.h",li
     336 00001e A906          MOV *SP(#3), AR1 ; |1022| 
     337 000020 1298          CMPU AR1 >= AR2, TC1 ; |1022| 
         000022 A4   
     338 000023 0464          BCC $C$L1,TC1 ; |1022| 
         000025 F4   
     339                                                      ; branchcc occurs ; |1022| 
     340 000026       $C$DW$L$_DMA_getStatus$3$E:
     341                      .dwpsn  file "F:/eZdsp_DBG/tmp1/c55x-sim2/foo/c5535_bsl_revc/ezdsp5535_v1/c55xx_csl/inc/csl_dma.h",li
     342 000026 0600          B $C$L6   ; |1027| 
         000028 5A   
     343                                                      ; branch occurs ; |1027| 
     344 000029       $C$L2:    
     345                      .dwpsn  file "F:/eZdsp_DBG/tmp1/c55x-sim2/foo/c5535_bsl_revc/ezdsp5535_v1/c55xx_csl/inc/csl_dma.h",li
     346 000029 ED00          MOV dbl(*SP(#0)), XAR3
         00002b BF   
     347 00002c AB61          MOV *AR3, AR3 ; |1030| 
     348 00002e A97B          MOV port(*AR3(short(#5))), AR1 ; |1030| 
         000030 99   
     349 000031 7D80          AND #0x8000, AR1, AC0 ; |1030| 
         000033 0009 
     350 000035 1005          SFTS AC0, #-15, AC0 ; |1030| 
         000037 31   
     351 000038 C004          MOV AC0, *SP(#2) ; |1030| 
     352                      .dwpsn  file "F:/eZdsp_DBG/tmp1/c55x-sim2/foo/c5535_bsl_revc/ezdsp5535_v1/c55xx_csl/inc/csl_dma.h",li
     353 00003a 0600          B $C$L8   ; |1031| 
         00003c 68   
     354                                                      ; branch occurs ; |1031| 
     355 00003d       $C$L3:    
     356                      .dwpsn  file "F:/eZdsp_DBG/tmp1/c55x-sim2/foo/c5535_bsl_revc/ezdsp5535_v1/c55xx_csl/inc/csl_dma.h",li
     357 00003d ED00          MOV dbl(*SP(#0)), XAR3
         00003f BF   
     358 000040 7600          MOV #37, T0 ; |1033| 
         000042 2548 
     359 000044 AB61          MOV *AR3, AR3 ; |1033| 
     360 000046 A96B          MOV port(*AR3(T0)), AR1 ; |1033| 
         000048 99   
     361 000049 7D80          AND #0x8000, AR1, AC0 ; |1033| 
         00004b 0009 
     362 00004d 1005          SFTS AC0, #-15, AC0 ; |1033| 
         00004f 31   
     363 000050 C004          MOV AC0, *SP(#2) ; |1033| 
TMS320C55x Assembler PC v4.4.1 Sat Sep 29 23:09:37 2018

Tools Copyright (c) 1996-2012 Texas Instruments Incorporated
csl_i2c_dmaWordSwap_example.asm                                      PAGE    8

     364                      .dwpsn  file "F:/eZdsp_DBG/tmp1/c55x-sim2/foo/c5535_bsl_revc/ezdsp5535_v1/c55xx_csl/inc/csl_dma.h",li
     365 000052 0600          B $C$L8   ; |1034| 
         000054 50   
     366                                                      ; branch occurs ; |1034| 
     367 000055       $C$L4:    
     368                      .dwpsn  file "F:/eZdsp_DBG/tmp1/c55x-sim2/foo/c5535_bsl_revc/ezdsp5535_v1/c55xx_csl/inc/csl_dma.h",li
     369 000055 ED00          MOV dbl(*SP(#0)), XAR3
         000057 BF   
     370 000058 7600          MOV #69, T0 ; |1036| 
         00005a 4548 
     371 00005c AB61          MOV *AR3, AR3 ; |1036| 
     372 00005e A96B          MOV port(*AR3(T0)), AR1 ; |1036| 
         000060 99   
     373 000061 7D80          AND #0x8000, AR1, AC0 ; |1036| 
         000063 0009 
     374 000065 1005          SFTS AC0, #-15, AC0 ; |1036| 
         000067 31   
     375 000068 C004          MOV AC0, *SP(#2) ; |1036| 
     376                      .dwpsn  file "F:/eZdsp_DBG/tmp1/c55x-sim2/foo/c5535_bsl_revc/ezdsp5535_v1/c55xx_csl/inc/csl_dma.h",li
     377 00006a 4A39          B $C$L8   ; |1037| 
     378                                                      ; branch occurs ; |1037| 
     379 00006c       $C$L5:    
     380                      .dwpsn  file "F:/eZdsp_DBG/tmp1/c55x-sim2/foo/c5535_bsl_revc/ezdsp5535_v1/c55xx_csl/inc/csl_dma.h",li
     381 00006c ED00          MOV dbl(*SP(#0)), XAR3
         00006e BF   
     382 00006f 7600          MOV #101, T0 ; |1039| 
         000071 6548 
     383 000073 AB61          MOV *AR3, AR3 ; |1039| 
     384 000075 A96B          MOV port(*AR3(T0)), AR1 ; |1039| 
         000077 99   
     385 000078 7D80          AND #0x8000, AR1, AC0 ; |1039| 
         00007a 0009 
     386 00007c 1005          SFTS AC0, #-15, AC0 ; |1039| 
         00007e 31   
     387 00007f C004          MOV AC0, *SP(#2) ; |1039| 
     388                      .dwpsn  file "F:/eZdsp_DBG/tmp1/c55x-sim2/foo/c5535_bsl_revc/ezdsp5535_v1/c55xx_csl/inc/csl_dma.h",li
     389 000081 4A22          B $C$L8   ; |1040| 
     390                                                      ; branch occurs ; |1040| 
     391 000083       $C$L6:    
     392                      .dwpsn  file "F:/eZdsp_DBG/tmp1/c55x-sim2/foo/c5535_bsl_revc/ezdsp5535_v1/c55xx_csl/inc/csl_dma.h",li
     393 000083 A906          MOV *SP(#3), AR1 ; |1027| 
     394 000085 0409          BCC $C$L2,AR1 == #0 ; |1027| 
         000087 A1   
     395                                                      ; branchcc occurs ; |1027| 
     396 000088 3C1A          MOV #1, AR2
     397 00008a 1290          CMP AR1 == AR2, TC1 ; |1027| 
         00008c A0   
     398 00008d 0464          BCC $C$L3,TC1 ; |1027| 
         00008f AD   
     399                                                      ; branchcc occurs ; |1027| 
     400 000090 3C2A          MOV #2, AR2
     401 000092 1290          CMP AR1 == AR2, TC1 ; |1027| 
         000094 A0   
     402 000095 0464          BCC $C$L4,TC1 ; |1027| 
         000097 BD   
TMS320C55x Assembler PC v4.4.1 Sat Sep 29 23:09:37 2018

Tools Copyright (c) 1996-2012 Texas Instruments Incorporated
csl_i2c_dmaWordSwap_example.asm                                      PAGE    9

     403                                                      ; branchcc occurs ; |1027| 
     404 000098 3C3A          MOV #3, AR2
     405 00009a 1290          CMP AR1 == AR2, TC1 ; |1027| 
         00009c A0   
     406 00009d 0464          BCC $C$L5,TC1 ; |1027| 
         00009f CC   
     407                                                      ; branchcc occurs ; |1027| 
     408 0000a0 4A03          B $C$L8   ; |1027| 
     409                                                      ; branch occurs ; |1027| 
     410 0000a2       $C$L7:    
     411                      .dwpsn  file "F:/eZdsp_DBG/tmp1/c55x-sim2/foo/c5535_bsl_revc/ezdsp5535_v1/c55xx_csl/inc/csl_dma.h",li
     412 0000a2 E604          MOV #-5, *SP(#2) ; |1045| 
         0000a4 FB   
     413 0000a5       $C$L8:    
     414                      .dwpsn  file "F:/eZdsp_DBG/tmp1/c55x-sim2/foo/c5535_bsl_revc/ezdsp5535_v1/c55xx_csl/inc/csl_dma.h",li
     415 0000a5 A404          MOV *SP(#2), T0 ; |1048| 
     416                      .dwpsn  file "F:/eZdsp_DBG/tmp1/c55x-sim2/foo/c5535_bsl_revc/ezdsp5535_v1/c55xx_csl/inc/csl_dma.h",li
     417 0000a7 4E05          AADD #5, SP
     418                      .dwcfi  cfa_offset, 1
     419              $C$DW$54        .dwtag  DW_TAG_TI_branch
     420                      .dwattr $C$DW$54, DW_AT_low_pc(0x00)
     421                      .dwattr $C$DW$54, DW_AT_TI_return
     422 0000a9 4804          RET
     423                                                      ; return occurs
     424              
     425              $C$DW$55        .dwtag  DW_TAG_TI_loop
     426                      .dwattr $C$DW$55, DW_AT_name("F:\eZdsp_DBG\tmp1\c55x-sim2\foo\Debug\csl_i2c_dmaWordSwap_example.asm:$
     427                      .dwattr $C$DW$55, DW_AT_TI_begin_file("F:/eZdsp_DBG/tmp1/c55x-sim2/foo/c5535_bsl_revc/ezdsp5535_v1/c5
     428                      .dwattr $C$DW$55, DW_AT_TI_begin_line(0x3fe)
     429                      .dwattr $C$DW$55, DW_AT_TI_end_line(0x401)
     430              $C$DW$56        .dwtag  DW_TAG_TI_loop_range
     431                      .dwattr $C$DW$56, DW_AT_low_pc($C$DW$L$_DMA_getStatus$3$B)
     432                      .dwattr $C$DW$56, DW_AT_high_pc($C$DW$L$_DMA_getStatus$3$E)
     433                      .dwendtag $C$DW$55
     434              
     435                      .dwattr $C$DW$49, DW_AT_TI_end_file("F:/eZdsp_DBG/tmp1/c55x-sim2/foo/c5535_bsl_revc/ezdsp5535_v1/c55x
     436                      .dwattr $C$DW$49, DW_AT_TI_end_line(0x419)
     437                      .dwattr $C$DW$49, DW_AT_TI_end_column(0x01)
     438                      .dwendentry
     439                      .dwendtag $C$DW$49
     440              
     441 0000ab               .sect   ".text"
     442                      .align 4
     443                      .global _main
     444              
     445              $C$DW$57        .dwtag  DW_TAG_subprogram, DW_AT_name("main")
     446                      .dwattr $C$DW$57, DW_AT_low_pc(_main)
     447                      .dwattr $C$DW$57, DW_AT_high_pc(0x00)
     448                      .dwattr $C$DW$57, DW_AT_TI_symbol_name("_main")
     449                      .dwattr $C$DW$57, DW_AT_external
     450                      .dwattr $C$DW$57, DW_AT_TI_begin_file("../c5535_bsl_revc/ezdsp5535_v1/c55xx_csl/ccs_v4.0_examples/i2c
     451                      .dwattr $C$DW$57, DW_AT_TI_begin_line(0xc1)
     452                      .dwattr $C$DW$57, DW_AT_TI_begin_column(0x06)
     453                      .dwattr $C$DW$57, DW_AT_TI_max_frame_size(0x04)
     454                      .dwpsn  file "../c5535_bsl_revc/ezdsp5535_v1/c55xx_csl/ccs_v4.0_examples/i2c/CSL_I2C_DmaWordSwapExapm
TMS320C55x Assembler PC v4.4.1 Sat Sep 29 23:09:37 2018

Tools Copyright (c) 1996-2012 Texas Instruments Incorporated
csl_i2c_dmaWordSwap_example.asm                                      PAGE   10

     455              
     456                      .dwfde $C$DW$CIE, _main
     457              ;*******************************************************************************
     458              ;* FUNCTION NAME: main                                                         *
     459              ;*                                                                             *
     460              ;*   Function Uses Regs : T0,AR1,AR3,XAR3,SP,M40,SATA,SATD,RDM,FRCT,SMUL       *
     461              ;*   Stack Frame        : Compact (No Frame Pointer, w/ debug)                 *
     462              ;*   Total Frame Size   : 4 words                                              *
     463              ;*                        (1 return address/alignment)                         *
     464              ;*                        (2 function parameters)                              *
     465              ;*                        (1 local values)                                     *
     466              ;*   Min System Stack   : 1 word                                               *
     467              ;*******************************************************************************
     468 0000ac       _main:
     469                      .dwcfi  cfa_offset, 1
     470                      .dwcfi  save_reg_to_mem, 91, -1
     471 0000ac 4EFD          AADD #-3, SP
     472                      .dwcfi  cfa_offset, 4
     473              $C$DW$58        .dwtag  DW_TAG_variable, DW_AT_name("result")
     474                      .dwattr $C$DW$58, DW_AT_TI_symbol_name("_result")
     475                      .dwattr $C$DW$58, DW_AT_type(*$C$DW$T$86)
     476                      .dwattr $C$DW$58, DW_AT_location[DW_OP_bregx 0x24 2]
     477                      .dwpsn  file "../c5535_bsl_revc/ezdsp5535_v1/c55xx_csl/ccs_v4.0_examples/i2c/CSL_I2C_DmaWordSwapExapm
     478 0000ae EC31          AMOV #$C$FSL1, XAR3 ; |197| 
         0000b0 BE00 
         0000b2 0000+
     479 0000b4 EB00          MOV XAR3, dbl(*SP(#0))
         0000b6 B5   
     480              $C$DW$59        .dwtag  DW_TAG_TI_branch
     481                      .dwattr $C$DW$59, DW_AT_low_pc(0x00)
     482                      .dwattr $C$DW$59, DW_AT_name("_printf")
     483                      .dwattr $C$DW$59, DW_AT_TI_call
     484 0000b7 6C00          CALL #_printf ; |197| 
         0000b9 0000!
     485                                                      ; call occurs [#_printf] ; |197| 
     486                      .dwpsn  file "../c5535_bsl_revc/ezdsp5535_v1/c55xx_csl/ccs_v4.0_examples/i2c/CSL_I2C_DmaWordSwapExapm
     487 0000bb EC31          AMOV #$C$FSL2, XAR3 ; |199| 
         0000bd BE00 
         0000bf 001C+
     488 0000c1 EB00          MOV XAR3, dbl(*SP(#0))
         0000c3 B5   
     489              $C$DW$60        .dwtag  DW_TAG_TI_branch
     490                      .dwattr $C$DW$60, DW_AT_low_pc(0x00)
     491                      .dwattr $C$DW$60, DW_AT_name("_printf")
     492                      .dwattr $C$DW$60, DW_AT_TI_call
     493 0000c4 6C00          CALL #_printf ; |199| 
         0000c6 0000!
     494                                                      ; call occurs [#_printf] ; |199| 
     495                      .dwpsn  file "../c5535_bsl_revc/ezdsp5535_v1/c55xx_csl/ccs_v4.0_examples/i2c/CSL_I2C_DmaWordSwapExapm
     496              $C$DW$61        .dwtag  DW_TAG_TI_branch
     497                      .dwattr $C$DW$61, DW_AT_low_pc(0x00)
     498                      .dwattr $C$DW$61, DW_AT_name("_CSL_i2c_dmaWrite_pollRead")
     499                      .dwattr $C$DW$61, DW_AT_TI_call
     500 0000c8 0800          CALL #_CSL_i2c_dmaWrite_pollRead ; |200| 
         0000ca 7D   
TMS320C55x Assembler PC v4.4.1 Sat Sep 29 23:09:37 2018

Tools Copyright (c) 1996-2012 Texas Instruments Incorporated
csl_i2c_dmaWordSwap_example.asm                                      PAGE   11

     501                                                      ; call occurs [#_CSL_i2c_dmaWrite_pollRead] ; |200| 
     502 0000cb C404          MOV T0, *SP(#2) ; |200| 
     503                      .dwpsn  file "../c5535_bsl_revc/ezdsp5535_v1/c55xx_csl/ccs_v4.0_examples/i2c/CSL_I2C_DmaWordSwapExapm
     504 0000cd 2249          MOV T0, AR1
     505 0000cf 6799          BCC $C$L9,AR1 != #0 ; |201| 
     506                                                      ; branchcc occurs ; |201| 
     507                      .dwpsn  file "../c5535_bsl_revc/ezdsp5535_v1/c55xx_csl/ccs_v4.0_examples/i2c/CSL_I2C_DmaWordSwapExapm
     508 0000d1 EC31          AMOV #$C$FSL3, XAR3 ; |203| 
         0000d3 BE00 
         0000d5 0042+
     509 0000d7 EB00          MOV XAR3, dbl(*SP(#0))
         0000d9 B5   
     510              $C$DW$62        .dwtag  DW_TAG_TI_branch
     511                      .dwattr $C$DW$62, DW_AT_low_pc(0x00)
     512                      .dwattr $C$DW$62, DW_AT_name("_printf")
     513                      .dwattr $C$DW$62, DW_AT_TI_call
     514 0000da 6C00          CALL #_printf ; |203| 
         0000dc 0000!
     515                                                      ; call occurs [#_printf] ; |203| 
     516                      .dwpsn  file "../c5535_bsl_revc/ezdsp5535_v1/c55xx_csl/ccs_v4.0_examples/i2c/CSL_I2C_DmaWordSwapExapm
     517 0000de 4A13          B $C$L10  ; |204| 
     518                                                      ; branch occurs ; |204| 
     519 0000e0       $C$L9:    
     520                      .dwpsn  file "../c5535_bsl_revc/ezdsp5535_v1/c55xx_csl/ccs_v4.0_examples/i2c/CSL_I2C_DmaWordSwapExapm
     521 0000e0 EC31          AMOV #$C$FSL4, XAR3 ; |207| 
         0000e2 BE00 
         0000e4 0070+
     522 0000e6 EB00          MOV XAR3, dbl(*SP(#0))
         0000e8 B5   
     523              $C$DW$63        .dwtag  DW_TAG_TI_branch
     524                      .dwattr $C$DW$63, DW_AT_low_pc(0x00)
     525                      .dwattr $C$DW$63, DW_AT_name("_printf")
     526                      .dwattr $C$DW$63, DW_AT_TI_call
     527 0000e9 6C00          CALL #_printf ; |207| 
         0000eb 0000!
     528                                                      ; call occurs [#_printf] ; |207| 
     529                      .dwpsn  file "../c5535_bsl_revc/ezdsp5535_v1/c55xx_csl/ccs_v4.0_examples/i2c/CSL_I2C_DmaWordSwapExapm
     530 0000ed E631          MOV #0, *(#_PaSs_StAtE) ; |210| 
         0000ef 0000 
         0000f1 019D-
     531 0000f3       $C$L10:    
     532                      .dwpsn  file "../c5535_bsl_revc/ezdsp5535_v1/c55xx_csl/ccs_v4.0_examples/i2c/CSL_I2C_DmaWordSwapExapm
     533 0000f3 EC31          AMOV #$C$FSL5, XAR3 ; |214| 
         0000f5 BE00 
         0000f7 009E+
     534 0000f9 EB00          MOV XAR3, dbl(*SP(#0))
         0000fb B5   
     535              $C$DW$64        .dwtag  DW_TAG_TI_branch
     536                      .dwattr $C$DW$64, DW_AT_low_pc(0x00)
     537                      .dwattr $C$DW$64, DW_AT_name("_printf")
     538                      .dwattr $C$DW$64, DW_AT_TI_call
     539 0000fc 6C00          CALL #_printf ; |214| 
         0000fe 0000!
     540                                                      ; call occurs [#_printf] ; |214| 
     541                      .dwpsn  file "../c5535_bsl_revc/ezdsp5535_v1/c55xx_csl/ccs_v4.0_examples/i2c/CSL_I2C_DmaWordSwapExapm
TMS320C55x Assembler PC v4.4.1 Sat Sep 29 23:09:37 2018

Tools Copyright (c) 1996-2012 Texas Instruments Incorporated
csl_i2c_dmaWordSwap_example.asm                                      PAGE   12

     542              $C$DW$65        .dwtag  DW_TAG_TI_branch
     543                      .dwattr $C$DW$65, DW_AT_low_pc(0x00)
     544                      .dwattr $C$DW$65, DW_AT_name("_CSL_i2c_pollWrite_dmaRead")
     545                      .dwattr $C$DW$65, DW_AT_TI_call
     546 000100 0804          CALL #_CSL_i2c_pollWrite_dmaRead ; |215| 
         000102 85   
     547                                                      ; call occurs [#_CSL_i2c_pollWrite_dmaRead] ; |215| 
     548 000103 C404          MOV T0, *SP(#2) ; |215| 
     549                      .dwpsn  file "../c5535_bsl_revc/ezdsp5535_v1/c55xx_csl/ccs_v4.0_examples/i2c/CSL_I2C_DmaWordSwapExapm
     550 000105 2249          MOV T0, AR1
     551 000107 6799          BCC $C$L11,AR1 != #0 ; |216| 
     552                                                      ; branchcc occurs ; |216| 
     553                      .dwpsn  file "../c5535_bsl_revc/ezdsp5535_v1/c55xx_csl/ccs_v4.0_examples/i2c/CSL_I2C_DmaWordSwapExapm
     554 000109 EC31          AMOV #$C$FSL6, XAR3 ; |218| 
         00010b BE00 
         00010d 00C4+
     555 00010f EB00          MOV XAR3, dbl(*SP(#0))
         000111 B5   
     556              $C$DW$66        .dwtag  DW_TAG_TI_branch
     557                      .dwattr $C$DW$66, DW_AT_low_pc(0x00)
     558                      .dwattr $C$DW$66, DW_AT_name("_printf")
     559                      .dwattr $C$DW$66, DW_AT_TI_call
     560 000112 6C00          CALL #_printf ; |218| 
         000114 0000!
     561                                                      ; call occurs [#_printf] ; |218| 
     562                      .dwpsn  file "../c5535_bsl_revc/ezdsp5535_v1/c55xx_csl/ccs_v4.0_examples/i2c/CSL_I2C_DmaWordSwapExapm
     563 000116 4A13          B $C$L12  ; |219| 
     564                                                      ; branch occurs ; |219| 
     565 000118       $C$L11:    
     566                      .dwpsn  file "../c5535_bsl_revc/ezdsp5535_v1/c55xx_csl/ccs_v4.0_examples/i2c/CSL_I2C_DmaWordSwapExapm
     567 000118 EC31          AMOV #$C$FSL7, XAR3 ; |222| 
         00011a BE00 
         00011c 00F2+
     568 00011e EB00          MOV XAR3, dbl(*SP(#0))
         000120 B5   
     569              $C$DW$67        .dwtag  DW_TAG_TI_branch
     570                      .dwattr $C$DW$67, DW_AT_low_pc(0x00)
     571                      .dwattr $C$DW$67, DW_AT_name("_printf")
     572                      .dwattr $C$DW$67, DW_AT_TI_call
     573 000121 6C00          CALL #_printf ; |222| 
         000123 0000!
     574                                                      ; call occurs [#_printf] ; |222| 
     575                      .dwpsn  file "../c5535_bsl_revc/ezdsp5535_v1/c55xx_csl/ccs_v4.0_examples/i2c/CSL_I2C_DmaWordSwapExapm
     576 000125 E631          MOV #0, *(#_PaSs_StAtE) ; |225| 
         000127 0000 
         000129 019D-
     577 00012b       $C$L12:    
     578                      .dwpsn  file "../c5535_bsl_revc/ezdsp5535_v1/c55xx_csl/ccs_v4.0_examples/i2c/CSL_I2C_DmaWordSwapExapm
     579 00012b EC31          AMOV #$C$FSL8, XAR3 ; |229| 
         00012d BE00 
         00012f 0120+
     580 000131 EB00          MOV XAR3, dbl(*SP(#0))
         000133 B5   
     581              $C$DW$68        .dwtag  DW_TAG_TI_branch
     582                      .dwattr $C$DW$68, DW_AT_low_pc(0x00)
TMS320C55x Assembler PC v4.4.1 Sat Sep 29 23:09:37 2018

Tools Copyright (c) 1996-2012 Texas Instruments Incorporated
csl_i2c_dmaWordSwap_example.asm                                      PAGE   13

     583                      .dwattr $C$DW$68, DW_AT_name("_printf")
     584                      .dwattr $C$DW$68, DW_AT_TI_call
     585 000134 6C00          CALL #_printf ; |229| 
         000136 0000!
     586                                                      ; call occurs [#_printf] ; |229| 
     587                      .dwpsn  file "../c5535_bsl_revc/ezdsp5535_v1/c55xx_csl/ccs_v4.0_examples/i2c/CSL_I2C_DmaWordSwapExapm
     588 000138 A931          MOV *(#_PaSs_StAtE), AR1 ; |232| 
         00013a 0001 
         00013c 9D-  
     589 00013d C931          MOV AR1, *(#_PaSs) ; |232| 
         00013f 0001 
         000141 BE-  
     590                      .dwpsn  file "../c5535_bsl_revc/ezdsp5535_v1/c55xx_csl/ccs_v4.0_examples/i2c/CSL_I2C_DmaWordSwapExapm
     591 000142 4E03          AADD #3, SP
     592                      .dwcfi  cfa_offset, 1
     593              $C$DW$69        .dwtag  DW_TAG_TI_branch
     594                      .dwattr $C$DW$69, DW_AT_low_pc(0x00)
     595                      .dwattr $C$DW$69, DW_AT_TI_return
     596 000144 4804          RET
     597                                                      ; return occurs
     598                      .dwattr $C$DW$57, DW_AT_TI_end_file("../c5535_bsl_revc/ezdsp5535_v1/c55xx_csl/ccs_v4.0_examples/i2c/C
     599                      .dwattr $C$DW$57, DW_AT_TI_end_line(0xed)
     600                      .dwattr $C$DW$57, DW_AT_TI_end_column(0x01)
     601                      .dwendentry
     602                      .dwendtag $C$DW$57
     603              
     604 000146               .sect   ".text"
     605                      .align 4
     606                      .global _CSL_i2c_dmaWrite_pollRead
     607              
     608              $C$DW$70        .dwtag  DW_TAG_subprogram, DW_AT_name("CSL_i2c_dmaWrite_pollRead")
     609                      .dwattr $C$DW$70, DW_AT_low_pc(_CSL_i2c_dmaWrite_pollRead)
     610                      .dwattr $C$DW$70, DW_AT_high_pc(0x00)
     611                      .dwattr $C$DW$70, DW_AT_TI_symbol_name("_CSL_i2c_dmaWrite_pollRead")
     612                      .dwattr $C$DW$70, DW_AT_external
     613                      .dwattr $C$DW$70, DW_AT_type(*$C$DW$T$86)
     614                      .dwattr $C$DW$70, DW_AT_TI_begin_file("../c5535_bsl_revc/ezdsp5535_v1/c55xx_csl/ccs_v4.0_examples/i2c
     615                      .dwattr $C$DW$70, DW_AT_TI_begin_line(0xf6)
     616                      .dwattr $C$DW$70, DW_AT_TI_begin_column(0x0d)
     617                      .dwattr $C$DW$70, DW_AT_TI_max_frame_size(0x08)
     618                      .dwpsn  file "../c5535_bsl_revc/ezdsp5535_v1/c55xx_csl/ccs_v4.0_examples/i2c/CSL_I2C_DmaWordSwapExapm
     619              
     620                      .dwfde $C$DW$CIE, _CSL_i2c_dmaWrite_pollRead
     621              ;*******************************************************************************
     622              ;* FUNCTION NAME: CSL_i2c_dmaWrite_pollRead                                    *
     623              ;*                                                                             *
     624              ;*   Function Uses Regs : AC0,AC0,AC1,AC1,T0,T1,AR0,XAR0,AR1,AR2,AR3,XAR3,AR4, *
     625              ;*                        SP,CARRY,TC1,M40,SATA,SATD,RDM,FRCT,SMUL             *
     626              ;*   Stack Frame        : Compact (No Frame Pointer, w/ debug)                 *
     627              ;*   Total Frame Size   : 8 words                                              *
     628              ;*                        (2 return address/alignment)                         *
     629              ;*                        (2 function parameters)                              *
     630              ;*                        (4 local values)                                     *
     631              ;*   Min System Stack   : 1 word                                               *
     632              ;*******************************************************************************
TMS320C55x Assembler PC v4.4.1 Sat Sep 29 23:09:37 2018

Tools Copyright (c) 1996-2012 Texas Instruments Incorporated
csl_i2c_dmaWordSwap_example.asm                                      PAGE   14

     633 000148       _CSL_i2c_dmaWrite_pollRead:
     634                      .dwcfi  cfa_offset, 1
     635                      .dwcfi  save_reg_to_mem, 91, -1
     636 000148 4EF9          AADD #-7, SP
     637                      .dwcfi  cfa_offset, 8
     638              $C$DW$71        .dwtag  DW_TAG_variable, DW_AT_name("status")
     639                      .dwattr $C$DW$71, DW_AT_TI_symbol_name("_status")
     640                      .dwattr $C$DW$71, DW_AT_type(*$C$DW$T$86)
     641                      .dwattr $C$DW$71, DW_AT_location[DW_OP_bregx 0x24 2]
     642              $C$DW$72        .dwtag  DW_TAG_variable, DW_AT_name("result")
     643                      .dwattr $C$DW$72, DW_AT_TI_symbol_name("_result")
     644                      .dwattr $C$DW$72, DW_AT_type(*$C$DW$T$86)
     645                      .dwattr $C$DW$72, DW_AT_location[DW_OP_bregx 0x24 3]
     646              $C$DW$73        .dwtag  DW_TAG_variable, DW_AT_name("startStop")
     647                      .dwattr $C$DW$73, DW_AT_TI_symbol_name("_startStop")
     648                      .dwattr $C$DW$73, DW_AT_type(*$C$DW$T$19)
     649                      .dwattr $C$DW$73, DW_AT_location[DW_OP_bregx 0x24 4]
     650              $C$DW$74        .dwtag  DW_TAG_variable, DW_AT_name("looper")
     651                      .dwattr $C$DW$74, DW_AT_TI_symbol_name("_looper")
     652                      .dwattr $C$DW$74, DW_AT_type(*$C$DW$T$20)
     653                      .dwattr $C$DW$74, DW_AT_location[DW_OP_bregx 0x24 5]
     654                      .dwpsn  file "../c5535_bsl_revc/ezdsp5535_v1/c55xx_csl/ccs_v4.0_examples/i2c/CSL_I2C_DmaWordSwapExapm
     655 00014a E606          MOV #1, *SP(#3) ; |253| 
         00014c 01   
     656                      .dwpsn  file "../c5535_bsl_revc/ezdsp5535_v1/c55xx_csl/ccs_v4.0_examples/i2c/CSL_I2C_DmaWordSwapExapm
     657 00014d 3C00          MOV #0, AC0 ; |256| 
     658 00014f EB31          MOV AC0, dbl(*(#_gI2cDmaWrBuf)) ; |256| 
         000151 0800 
         000153 0000-
     659                      .dwpsn  file "../c5535_bsl_revc/ezdsp5535_v1/c55xx_csl/ccs_v4.0_examples/i2c/CSL_I2C_DmaWordSwapExapm
     660 000155 EB31          MOV AC0, dbl(*(#(_gI2cDmaWrBuf+2))) ; |257| 
         000157 0800 
         000159 0002-
     661                      .dwpsn  file "../c5535_bsl_revc/ezdsp5535_v1/c55xx_csl/ccs_v4.0_examples/i2c/CSL_I2C_DmaWordSwapExapm
     662 00015b FB08          MOV #768, *SP(#4) ; |258| 
         00015d 0300 
     663                      .dwpsn  file "../c5535_bsl_revc/ezdsp5535_v1/c55xx_csl/ccs_v4.0_examples/i2c/CSL_I2C_DmaWordSwapExapm
     664 00015f E60A          MOV #0, *SP(#5) ; |261| 
         000161 00   
     665 000162 20            NOP
     666 000163 20            NOP
     667                      .dwpsn  file "../c5535_bsl_revc/ezdsp5535_v1/c55xx_csl/ccs_v4.0_examples/i2c/CSL_I2C_DmaWordSwapExapm
     668 000164 7600          MOV #64, AR2 ; |261| 
         000166 40A8 
     669 000168 A90A          MOV *SP(#5), AR1 ; |261| 
     670 00016a 1298          CMPU AR1 >= AR2, TC1 ; |261| 
         00016c A4   
     671 00016d 0464          BCC $C$L14,TC1 ; |261| 
         00016f 2C   
     672                                                      ; branchcc occurs ; |261| 
     673 000170       $C$L13:    
     674 000170       $C$DW$L$_CSL_i2c_dmaWrite_pollRead$2$B:
     675                      .dwpsn  file "../c5535_bsl_revc/ezdsp5535_v1/c55xx_csl/ccs_v4.0_examples/i2c/CSL_I2C_DmaWordSwapExapm
     676 000170 A40A          MOV *SP(#5), T0 ; |263| 
     677 000172 4024          ADD #2, T0 ; |263| 
TMS320C55x Assembler PC v4.4.1 Sat Sep 29 23:09:37 2018

Tools Copyright (c) 1996-2012 Texas Instruments Incorporated
csl_i2c_dmaWordSwap_example.asm                                      PAGE   15

     678 000174 5040          SFTL T0, #1 ; |263| 
     679 000176 EC31          AMOV #_gI2cDmaWrBuf, XAR3 ; |263| 
         000178 BE00 
         00017a 0000-
     680 00017c DF0A          MOV uns(*SP(#5)), AC0 ; |263| 
         00017e 05   
     681 00017f EB6B          MOV AC0, dbl(*AR3(T0)) ; |263| 
         000181 08   
     682                      .dwpsn  file "../c5535_bsl_revc/ezdsp5535_v1/c55xx_csl/ccs_v4.0_examples/i2c/CSL_I2C_DmaWordSwapExapm
     683 000182 A40A          MOV *SP(#5), T0 ; |264| 
     684 000184 EC31          AMOV #_gI2cPollRdBuf, XAR3 ; |264| 
         000186 BE00 
         000188 014A-
     685 00018a E66B          MOV #0, *AR3(T0) ; |264| 
         00018c 00   
     686                      .dwpsn  file "../c5535_bsl_revc/ezdsp5535_v1/c55xx_csl/ccs_v4.0_examples/i2c/CSL_I2C_DmaWordSwapExapm
     687 00018d F70A          ADD #1, *SP(#5) ; |261| 
         00018f 0001 
     688 000191 20            NOP
     689 000192 20            NOP
     690 000193 20            NOP
     691                      .dwpsn  file "../c5535_bsl_revc/ezdsp5535_v1/c55xx_csl/ccs_v4.0_examples/i2c/CSL_I2C_DmaWordSwapExapm
     692 000194 A90A          MOV *SP(#5), AR1 ; |261| 
     693 000196 1294          CMPU AR1 < AR2, TC1 ; |261| 
         000198 A4   
     694 000199 0464          BCC $C$L13,TC1 ; |261| 
         00019b D4   
     695                                                      ; branchcc occurs ; |261| 
     696 00019c       $C$DW$L$_CSL_i2c_dmaWrite_pollRead$2$E:
     697 00019c       $C$L14:    
     698                      .dwpsn  file "../c5535_bsl_revc/ezdsp5535_v1/c55xx_csl/ccs_v4.0_examples/i2c/CSL_I2C_DmaWordSwapExapm
     699              $C$DW$75        .dwtag  DW_TAG_TI_branch
     700                      .dwattr $C$DW$75, DW_AT_low_pc(0x00)
     701                      .dwattr $C$DW$75, DW_AT_name("_I2C_init")
     702                      .dwattr $C$DW$75, DW_AT_TI_call
     703              
     704 00019c 6C00          CALL #_I2C_init ; |268| 
         00019e 0000!
     705 0001a0 3D04  ||      MOV #0, T0
     706              
     707                                                      ; call occurs [#_I2C_init] ; |268| 
     708 0001a2 C404          MOV T0, *SP(#2) ; |268| 
     709                      .dwpsn  file "../c5535_bsl_revc/ezdsp5535_v1/c55xx_csl/ccs_v4.0_examples/i2c/CSL_I2C_DmaWordSwapExapm
     710 0001a4 2249          MOV T0, AR1
     711 0001a6 0409          BCC $C$L15,AR1 == #0 ; |269| 
         0001a8 12   
     712                                                      ; branchcc occurs ; |269| 
     713                      .dwpsn  file "../c5535_bsl_revc/ezdsp5535_v1/c55xx_csl/ccs_v4.0_examples/i2c/CSL_I2C_DmaWordSwapExapm
     714 0001a9 EC31          AMOV #$C$FSL9, XAR3 ; |271| 
         0001ab BE00 
         0001ad 0146+
     715 0001af EB00          MOV XAR3, dbl(*SP(#0))
         0001b1 B5   
     716              $C$DW$76        .dwtag  DW_TAG_TI_branch
     717                      .dwattr $C$DW$76, DW_AT_low_pc(0x00)
TMS320C55x Assembler PC v4.4.1 Sat Sep 29 23:09:37 2018

Tools Copyright (c) 1996-2012 Texas Instruments Incorporated
csl_i2c_dmaWordSwap_example.asm                                      PAGE   16

     718                      .dwattr $C$DW$76, DW_AT_name("_printf")
     719                      .dwattr $C$DW$76, DW_AT_TI_call
     720 0001b2 6C00          CALL #_printf ; |271| 
         0001b4 0000!
     721                                                      ; call occurs [#_printf] ; |271| 
     722                      .dwpsn  file "../c5535_bsl_revc/ezdsp5535_v1/c55xx_csl/ccs_v4.0_examples/i2c/CSL_I2C_DmaWordSwapExapm
     723 0001b6 A406          MOV *SP(#3), T0 ; |272| 
     724 0001b8 0603          B $C$L37  ; |272| 
         0001ba C8   
     725                                                      ; branch occurs ; |272| 
     726 0001bb       $C$L15:    
     727                      .dwpsn  file "../c5535_bsl_revc/ezdsp5535_v1/c55xx_csl/ccs_v4.0_examples/i2c/CSL_I2C_DmaWordSwapExapm
     728              $C$DW$77        .dwtag  DW_TAG_TI_branch
     729                      .dwattr $C$DW$77, DW_AT_low_pc(0x00)
     730                      .dwattr $C$DW$77, DW_AT_name("_DMA_init")
     731                      .dwattr $C$DW$77, DW_AT_TI_call
     732 0001bb 6C00          CALL #_DMA_init ; |276| 
         0001bd 0000!
     733                                                      ; call occurs [#_DMA_init] ; |276| 
     734 0001bf C404          MOV T0, *SP(#2) ; |276| 
     735                      .dwpsn  file "../c5535_bsl_revc/ezdsp5535_v1/c55xx_csl/ccs_v4.0_examples/i2c/CSL_I2C_DmaWordSwapExapm
     736 0001c1 2249          MOV T0, AR1
     737 0001c3 0409          BCC $C$L16,AR1 == #0 ; |277| 
         0001c5 12   
     738                                                      ; branchcc occurs ; |277| 
     739                      .dwpsn  file "../c5535_bsl_revc/ezdsp5535_v1/c55xx_csl/ccs_v4.0_examples/i2c/CSL_I2C_DmaWordSwapExapm
     740 0001c6 EC31          AMOV #$C$FSL10, XAR3 ; |279| 
         0001c8 BE00 
         0001ca 015A+
     741 0001cc EB00          MOV XAR3, dbl(*SP(#0))
         0001ce B5   
     742              $C$DW$78        .dwtag  DW_TAG_TI_branch
     743                      .dwattr $C$DW$78, DW_AT_low_pc(0x00)
     744                      .dwattr $C$DW$78, DW_AT_name("_printf")
     745                      .dwattr $C$DW$78, DW_AT_TI_call
     746 0001cf 6C00          CALL #_printf ; |279| 
         0001d1 0000!
     747                                                      ; call occurs [#_printf] ; |279| 
     748                      .dwpsn  file "../c5535_bsl_revc/ezdsp5535_v1/c55xx_csl/ccs_v4.0_examples/i2c/CSL_I2C_DmaWordSwapExapm
     749 0001d3 A404          MOV *SP(#2), T0 ; |280| 
     750 0001d5 0603          B $C$L37  ; |280| 
         0001d7 AB   
     751                                                      ; branch occurs ; |280| 
     752 0001d8       $C$L16:    
     753                      .dwpsn  file "../c5535_bsl_revc/ezdsp5535_v1/c55xx_csl/ccs_v4.0_examples/i2c/CSL_I2C_DmaWordSwapExapm
     754 0001d8 E631          MOV #0, *(#_dmaConfig) ; |285| 
         0001da 0000 
         0001dc 019E-
     755                      .dwpsn  file "../c5535_bsl_revc/ezdsp5535_v1/c55xx_csl/ccs_v4.0_examples/i2c/CSL_I2C_DmaWordSwapExapm
     756 0001de E631          MOV #0, *(#(_dmaConfig+1)) ; |287| 
         0001e0 0000 
         0001e2 019F-
     757                      .dwpsn  file "../c5535_bsl_revc/ezdsp5535_v1/c55xx_csl/ccs_v4.0_examples/i2c/CSL_I2C_DmaWordSwapExapm
     758 0001e4 E631          MOV #0, *(#(_dmaConfig+2)) ; |288| 
         0001e6 0000 
TMS320C55x Assembler PC v4.4.1 Sat Sep 29 23:09:37 2018

Tools Copyright (c) 1996-2012 Texas Instruments Incorporated
csl_i2c_dmaWordSwap_example.asm                                      PAGE   17

         0001e8 01A0-
     759                      .dwpsn  file "../c5535_bsl_revc/ezdsp5535_v1/c55xx_csl/ccs_v4.0_examples/i2c/CSL_I2C_DmaWordSwapExapm
     760 0001ea E631          MOV #1, *(#(_dmaConfig+3)) ; |289| 
         0001ec 0100 
         0001ee 01A1-
     761                      .dwpsn  file "../c5535_bsl_revc/ezdsp5535_v1/c55xx_csl/ccs_v4.0_examples/i2c/CSL_I2C_DmaWordSwapExapm
     762 0001f0 E631          MOV #1, *(#(_dmaConfig+4)) ; |290| 
         0001f2 0100 
         0001f4 01A2-
     763                      .dwpsn  file "../c5535_bsl_revc/ezdsp5535_v1/c55xx_csl/ccs_v4.0_examples/i2c/CSL_I2C_DmaWordSwapExapm
     764 0001f6 E631          MOV #0, *(#(_dmaConfig+5)) ; |291| 
         0001f8 0000 
         0001fa 01A3-
     765                      .dwpsn  file "../c5535_bsl_revc/ezdsp5535_v1/c55xx_csl/ccs_v4.0_examples/i2c/CSL_I2C_DmaWordSwapExapm
     766 0001fc E631          MOV #1, *(#(_dmaConfig+6)) ; |292| 
         0001fe 0100 
         000200 01A4-
     767                      .dwpsn  file "../c5535_bsl_revc/ezdsp5535_v1/c55xx_csl/ccs_v4.0_examples/i2c/CSL_I2C_DmaWordSwapExapm
     768 000202 E631          MOV #0, *(#(_dmaConfig+7)) ; |293| 
         000204 0000 
         000206 01A5-
     769                      .dwpsn  file "../c5535_bsl_revc/ezdsp5535_v1/c55xx_csl/ccs_v4.0_examples/i2c/CSL_I2C_DmaWordSwapExapm
     770 000208 FB31          MOV #264, *(#(_dmaConfig+8)) ; |294| 
         00020a 0108 
         00020c 0001 
         00020e A6-  
     771                      .dwpsn  file "../c5535_bsl_revc/ezdsp5535_v1/c55xx_csl/ccs_v4.0_examples/i2c/CSL_I2C_DmaWordSwapExapm
     772 00020f 7A00          MOV #(_gI2cDmaWrBuf >> 16) << #16, AC0 ; |295| 
         000211 000A%
     773 000213 7E00          OR #(_gI2cDmaWrBuf & 0xffff), AC0, AC0 ; |295| 
         000215 0000%
     774 000217 EB31          MOV AC0, dbl(*(#(_dmaConfig+10))) ; |295| 
         000219 0800 
         00021b 01A8-
     775                      .dwpsn  file "../c5535_bsl_revc/ezdsp5535_v1/c55xx_csl/ccs_v4.0_examples/i2c/CSL_I2C_DmaWordSwapExapm
     776 00021d ED31          MOV dbl(*(#_i2cHandle)), XAR3
         00021f BF00 
         000221 0000!
     777 000223 DF61          MOV uns(*AR3), AC0 ; |296| 
         000225 05   
     778 000226 900B          MOV AC0, XAR3
     779 000228 1420          AADD #32, AR3 ; |296| 
         00022a B4   
     780 00022b 90B0          MOV XAR3, AC0
     781 00022d EB31          MOV AC0, dbl(*(#(_dmaConfig+12))) ; |296| 
         00022f 0800 
         000231 01AA-
     782                      .dwpsn  file "../c5535_bsl_revc/ezdsp5535_v1/c55xx_csl/ccs_v4.0_examples/i2c/CSL_I2C_DmaWordSwapExapm
     783 000233 EC31          AMOV #_dmaWrChanObj, XAR0 ; |298| 
         000235 8E00 
         000237 01AC-
     784              $C$DW$79        .dwtag  DW_TAG_TI_branch
     785                      .dwattr $C$DW$79, DW_AT_low_pc(0x00)
     786                      .dwattr $C$DW$79, DW_AT_name("_CSL_configDmaForI2c")
     787                      .dwattr $C$DW$79, DW_AT_TI_call
TMS320C55x Assembler PC v4.4.1 Sat Sep 29 23:09:37 2018

Tools Copyright (c) 1996-2012 Texas Instruments Incorporated
csl_i2c_dmaWordSwap_example.asm                                      PAGE   18

     788              
     789 000239 0806          CALL #_CSL_configDmaForI2c ; |298| 
         00023b 8A   
     790 00023c 3D84  ||      MOV #8, T0
     791              
     792                                                      ; call occurs [#_CSL_configDmaForI2c] ; |298| 
     793 00023e EB31          MOV XAR0, dbl(*(#_dmaWrHandle))
         000240 8500 
         000242 0084-
     794                      .dwpsn  file "../c5535_bsl_revc/ezdsp5535_v1/c55xx_csl/ccs_v4.0_examples/i2c/CSL_I2C_DmaWordSwapExapm
     795 000244 ED31          MOV dbl(*(#_dmaWrHandle)), XAR3
         000246 BF00 
         000248 0084-
     796 00024a 90B0          MOV XAR3, AC0
     797 00024c 0410          BCC $C$L17,AC0 != #0 ; |299| 
         00024e 12   
     798                                                      ; branchcc occurs ; |299| 
     799                      .dwpsn  file "../c5535_bsl_revc/ezdsp5535_v1/c55xx_csl/ccs_v4.0_examples/i2c/CSL_I2C_DmaWordSwapExapm
     800 00024f EC31          AMOV #$C$FSL11, XAR3 ; |301| 
         000251 BE00 
         000253 016C+
     801 000255 EB00          MOV XAR3, dbl(*SP(#0))
         000257 B5   
     802              $C$DW$80        .dwtag  DW_TAG_TI_branch
     803                      .dwattr $C$DW$80, DW_AT_low_pc(0x00)
     804                      .dwattr $C$DW$80, DW_AT_name("_printf")
     805                      .dwattr $C$DW$80, DW_AT_TI_call
     806 000258 6C00          CALL #_printf ; |301| 
         00025a 0000!
     807                                                      ; call occurs [#_printf] ; |301| 
     808                      .dwpsn  file "../c5535_bsl_revc/ezdsp5535_v1/c55xx_csl/ccs_v4.0_examples/i2c/CSL_I2C_DmaWordSwapExapm
     809 00025c 3C14          MOV #1, T0
     810 00025e 0603          B $C$L37  ; |302| 
         000260 22   
     811                                                      ; branch occurs ; |302| 
     812 000261       $C$L17:    
     813                      .dwpsn  file "../c5535_bsl_revc/ezdsp5535_v1/c55xx_csl/ccs_v4.0_examples/i2c/CSL_I2C_DmaWordSwapExapm
     814 000261 E631          MOV #47, *(#_i2cConfig) ; |306| 
         000263 2F00 
         000265 0194-
     815                      .dwpsn  file "../c5535_bsl_revc/ezdsp5535_v1/c55xx_csl/ccs_v4.0_examples/i2c/CSL_I2C_DmaWordSwapExapm
     816 000267 E631          MOV #0, *(#(_i2cConfig+1)) ; |307| 
         000269 0000 
         00026b 0195-
     817                      .dwpsn  file "../c5535_bsl_revc/ezdsp5535_v1/c55xx_csl/ccs_v4.0_examples/i2c/CSL_I2C_DmaWordSwapExapm
     818 00026d FB31          MOV #620, *(#(_i2cConfig+2)) ; |308| 
         00026f 026C 
         000271 0001 
         000273 96-  
     819                      .dwpsn  file "../c5535_bsl_revc/ezdsp5535_v1/c55xx_csl/ccs_v4.0_examples/i2c/CSL_I2C_DmaWordSwapExapm
     820 000274 FB31          MOV #620, *(#(_i2cConfig+3)) ; |309| 
         000276 026C 
         000278 0001 
         00027a 97-  
     821                      .dwpsn  file "../c5535_bsl_revc/ezdsp5535_v1/c55xx_csl/ccs_v4.0_examples/i2c/CSL_I2C_DmaWordSwapExapm
TMS320C55x Assembler PC v4.4.1 Sat Sep 29 23:09:37 2018

Tools Copyright (c) 1996-2012 Texas Instruments Incorporated
csl_i2c_dmaWordSwap_example.asm                                      PAGE   19

     822 00027b E631          MOV #66, *(#(_i2cConfig+4)) ; |310| 
         00027d 4200 
         00027f 0198-
     823                      .dwpsn  file "../c5535_bsl_revc/ezdsp5535_v1/c55xx_csl/ccs_v4.0_examples/i2c/CSL_I2C_DmaWordSwapExapm
     824 000281 E631          MOV #80, *(#(_i2cConfig+5)) ; |311| 
         000283 5000 
         000285 0199-
     825                      .dwpsn  file "../c5535_bsl_revc/ezdsp5535_v1/c55xx_csl/ccs_v4.0_examples/i2c/CSL_I2C_DmaWordSwapExapm
     826 000287 FB31          MOV #3616, *(#(_i2cConfig+6)) ; |312| 
         000289 0E20 
         00028b 0001 
         00028d 9A-  
     827                      .dwpsn  file "../c5535_bsl_revc/ezdsp5535_v1/c55xx_csl/ccs_v4.0_examples/i2c/CSL_I2C_DmaWordSwapExapm
     828 00028e E631          MOV #0, *(#(_i2cConfig+7)) ; |313| 
         000290 0000 
         000292 019B-
     829                      .dwpsn  file "../c5535_bsl_revc/ezdsp5535_v1/c55xx_csl/ccs_v4.0_examples/i2c/CSL_I2C_DmaWordSwapExapm
     830 000294 E631          MOV #7, *(#(_i2cConfig+8)) ; |314| 
         000296 0700 
         000298 019C-
     831                      .dwpsn  file "../c5535_bsl_revc/ezdsp5535_v1/c55xx_csl/ccs_v4.0_examples/i2c/CSL_I2C_DmaWordSwapExapm
     832 00029a EC31          AMOV #_i2cConfig, XAR0 ; |316| 
         00029c 8E00 
         00029e 0194-
     833              $C$DW$81        .dwtag  DW_TAG_TI_branch
     834                      .dwattr $C$DW$81, DW_AT_low_pc(0x00)
     835                      .dwattr $C$DW$81, DW_AT_name("_I2C_config")
     836                      .dwattr $C$DW$81, DW_AT_TI_call
     837 0002a0 6C00          CALL #_I2C_config ; |316| 
         0002a2 0000!
     838                                                      ; call occurs [#_I2C_config] ; |316| 
     839 0002a4 C404          MOV T0, *SP(#2) ; |316| 
     840                      .dwpsn  file "../c5535_bsl_revc/ezdsp5535_v1/c55xx_csl/ccs_v4.0_examples/i2c/CSL_I2C_DmaWordSwapExapm
     841 0002a6 2249          MOV T0, AR1
     842 0002a8 0409          BCC $C$L18,AR1 == #0 ; |317| 
         0002aa 12   
     843                                                      ; branchcc occurs ; |317| 
     844                      .dwpsn  file "../c5535_bsl_revc/ezdsp5535_v1/c55xx_csl/ccs_v4.0_examples/i2c/CSL_I2C_DmaWordSwapExapm
     845 0002ab EC31          AMOV #$C$FSL12, XAR3 ; |319| 
         0002ad BE00 
         0002af 0190+
     846 0002b1 EB00          MOV XAR3, dbl(*SP(#0))
         0002b3 B5   
     847              $C$DW$82        .dwtag  DW_TAG_TI_branch
     848                      .dwattr $C$DW$82, DW_AT_low_pc(0x00)
     849                      .dwattr $C$DW$82, DW_AT_name("_printf")
     850                      .dwattr $C$DW$82, DW_AT_TI_call
     851 0002b4 6C00          CALL #_printf ; |319| 
         0002b6 0000!
     852                                                      ; call occurs [#_printf] ; |319| 
     853                      .dwpsn  file "../c5535_bsl_revc/ezdsp5535_v1/c55xx_csl/ccs_v4.0_examples/i2c/CSL_I2C_DmaWordSwapExapm
     854 0002b8 A406          MOV *SP(#3), T0 ; |320| 
     855 0002ba 0602          B $C$L37  ; |320| 
         0002bc C6   
     856                                                      ; branch occurs ; |320| 
TMS320C55x Assembler PC v4.4.1 Sat Sep 29 23:09:37 2018

Tools Copyright (c) 1996-2012 Texas Instruments Incorporated
csl_i2c_dmaWordSwap_example.asm                                      PAGE   20

     857 0002bd       $C$L18:    
     858                      .dwpsn  file "../c5535_bsl_revc/ezdsp5535_v1/c55xx_csl/ccs_v4.0_examples/i2c/CSL_I2C_DmaWordSwapExapm
     859 0002bd ED31          MOV dbl(*(#_dmaWrHandle)), XAR0
         0002bf 8F00 
         0002c1 0084-
     860              $C$DW$83        .dwtag  DW_TAG_TI_branch
     861                      .dwattr $C$DW$83, DW_AT_low_pc(0x00)
     862                      .dwattr $C$DW$83, DW_AT_name("_DMA_start")
     863                      .dwattr $C$DW$83, DW_AT_TI_call
     864 0002c3 6C00          CALL #_DMA_start ; |324| 
         0002c5 0000!
     865                                                      ; call occurs [#_DMA_start] ; |324| 
     866 0002c7 C404          MOV T0, *SP(#2) ; |324| 
     867                      .dwpsn  file "../c5535_bsl_revc/ezdsp5535_v1/c55xx_csl/ccs_v4.0_examples/i2c/CSL_I2C_DmaWordSwapExapm
     868 0002c9 2249          MOV T0, AR1
     869 0002cb 0409          BCC $C$L19,AR1 == #0 ; |325| 
         0002cd 12   
     870                                                      ; branchcc occurs ; |325| 
     871                      .dwpsn  file "../c5535_bsl_revc/ezdsp5535_v1/c55xx_csl/ccs_v4.0_examples/i2c/CSL_I2C_DmaWordSwapExapm
     872 0002ce EC31          AMOV #$C$FSL13, XAR3 ; |327| 
         0002d0 BE00 
         0002d2 01A6+
     873 0002d4 EB00          MOV XAR3, dbl(*SP(#0))
         0002d6 B5   
     874              $C$DW$84        .dwtag  DW_TAG_TI_branch
     875                      .dwattr $C$DW$84, DW_AT_low_pc(0x00)
     876                      .dwattr $C$DW$84, DW_AT_name("_printf")
     877                      .dwattr $C$DW$84, DW_AT_TI_call
     878 0002d7 6C00          CALL #_printf ; |327| 
         0002d9 0000!
     879                                                      ; call occurs [#_printf] ; |327| 
     880                      .dwpsn  file "../c5535_bsl_revc/ezdsp5535_v1/c55xx_csl/ccs_v4.0_examples/i2c/CSL_I2C_DmaWordSwapExapm
     881 0002db A406          MOV *SP(#3), T0 ; |328| 
     882 0002dd 0602          B $C$L37  ; |328| 
         0002df A3   
     883                                                      ; branch occurs ; |328| 
     884 0002e0       $C$L19:    
     885                      .dwpsn  file "../c5535_bsl_revc/ezdsp5535_v1/c55xx_csl/ccs_v4.0_examples/i2c/CSL_I2C_DmaWordSwapExapm
     886 0002e0 A951          MOV *port(#6692), AR1 ; |332| 
         0002e2 1A24 
     887 0002e4 EC1A          BCLR @#13, AR1 ; |332| 
         0002e6 92   
     888 0002e7 EC1A          BSET @#13, AR1 ; |332| 
         0002e9 90   
     889 0002ea C951          MOV AR1, *port(#6692) ; |332| 
         0002ec 1A24 
     890                      .dwpsn  file "../c5535_bsl_revc/ezdsp5535_v1/c55xx_csl/ccs_v4.0_examples/i2c/CSL_I2C_DmaWordSwapExapm
     891 0002ee ED31          MOV dbl(*(#_dmaWrHandle)), XAR0
         0002f0 8F00 
         0002f2 0084-
     892              $C$DW$85        .dwtag  DW_TAG_TI_branch
     893                      .dwattr $C$DW$85, DW_AT_low_pc(0x00)
     894                      .dwattr $C$DW$85, DW_AT_name("_DMA_getStatus")
     895                      .dwattr $C$DW$85, DW_AT_TI_call
     896 0002f4 08FD          CALL #_DMA_getStatus ; |335| 
TMS320C55x Assembler PC v4.4.1 Sat Sep 29 23:09:37 2018

Tools Copyright (c) 1996-2012 Texas Instruments Incorporated
csl_i2c_dmaWordSwap_example.asm                                      PAGE   21

         0002f6 09   
     897                                                      ; call occurs [#_DMA_getStatus] ; |335| 
     898 0002f7 6604          BCC $C$L21,T0 == #0 ; |335| 
     899                                                      ; branchcc occurs ; |335| 
     900 0002f9       $C$L20:    
     901 0002f9       $C$DW$L$_CSL_i2c_dmaWrite_pollRead$14$B:
     902 0002f9 ED31          MOV dbl(*(#_dmaWrHandle)), XAR0
         0002fb 8F00 
         0002fd 0084-
     903              $C$DW$86        .dwtag  DW_TAG_TI_branch
     904                      .dwattr $C$DW$86, DW_AT_low_pc(0x00)
     905                      .dwattr $C$DW$86, DW_AT_name("_DMA_getStatus")
     906                      .dwattr $C$DW$86, DW_AT_TI_call
     907 0002ff 08FC          CALL #_DMA_getStatus ; |335| 
         000301 FE   
     908                                                      ; call occurs [#_DMA_getStatus] ; |335| 
     909 000302 0414          BCC $C$L20,T0 != #0 ; |335| 
         000304 F4   
     910                                                      ; branchcc occurs ; |335| 
     911 000305       $C$DW$L$_CSL_i2c_dmaWrite_pollRead$14$E:
     912 000305       $C$L21:    
     913                      .dwpsn  file "../c5535_bsl_revc/ezdsp5535_v1/c55xx_csl/ccs_v4.0_examples/i2c/CSL_I2C_DmaWordSwapExapm
     914 000305 EC31          AMOV #$C$FSL14, XAR3 ; |337| 
         000307 BE00 
         000309 01BE+
     915 00030b EB00          MOV XAR3, dbl(*SP(#0))
         00030d B5   
     916              $C$DW$87        .dwtag  DW_TAG_TI_branch
     917                      .dwattr $C$DW$87, DW_AT_low_pc(0x00)
     918                      .dwattr $C$DW$87, DW_AT_name("_printf")
     919                      .dwattr $C$DW$87, DW_AT_TI_call
     920 00030e 6C00          CALL #_printf ; |337| 
         000310 0000!
     921                                                      ; call occurs [#_printf] ; |337| 
     922                      .dwpsn  file "../c5535_bsl_revc/ezdsp5535_v1/c55xx_csl/ccs_v4.0_examples/i2c/CSL_I2C_DmaWordSwapExapm
     923 000312 E60A          MOV #0, *SP(#5) ; |340| 
         000314 00   
     924 000315 20            NOP
     925 000316 20            NOP
     926                      .dwpsn  file "../c5535_bsl_revc/ezdsp5535_v1/c55xx_csl/ccs_v4.0_examples/i2c/CSL_I2C_DmaWordSwapExapm
     927 000317 76FF          MOV #65535, AR2 ; |340| 
         000319 FFA8 
     928 00031b A90A          MOV *SP(#5), AR1 ; |340| 
     929 00031d 1298          CMPU AR1 >= AR2, TC1 ; |340| 
         00031f A4   
     930 000320 67E4          BCC $C$L23,TC1 ; |340| 
     931                                                      ; branchcc occurs ; |340| 
     932 000322       $C$L22:    
     933 000322       $C$DW$L$_CSL_i2c_dmaWrite_pollRead$16$B:
     934                      .dwpsn  file "../c5535_bsl_revc/ezdsp5535_v1/c55xx_csl/ccs_v4.0_examples/i2c/CSL_I2C_DmaWordSwapExapm
     935 000322 F70A          ADD #1, *SP(#5) ; |340| 
         000324 0001 
     936 000326 20            NOP
     937 000327 20            NOP
     938 000328 20            NOP
TMS320C55x Assembler PC v4.4.1 Sat Sep 29 23:09:37 2018

Tools Copyright (c) 1996-2012 Texas Instruments Incorporated
csl_i2c_dmaWordSwap_example.asm                                      PAGE   22

     939                      .dwpsn  file "../c5535_bsl_revc/ezdsp5535_v1/c55xx_csl/ccs_v4.0_examples/i2c/CSL_I2C_DmaWordSwapExapm
     940 000329 A90A          MOV *SP(#5), AR1 ; |340| 
     941 00032b 1294          CMPU AR1 < AR2, TC1 ; |340| 
         00032d A4   
     942 00032e 0464          BCC $C$L22,TC1 ; |340| 
         000330 F1   
     943                                                      ; branchcc occurs ; |340| 
     944 000331       $C$DW$L$_CSL_i2c_dmaWrite_pollRead$16$E:
     945 000331       $C$L23:    
     946                      .dwpsn  file "../c5535_bsl_revc/ezdsp5535_v1/c55xx_csl/ccs_v4.0_examples/i2c/CSL_I2C_DmaWordSwapExapm
     947 000331 E631          MOV #0, *(#_dmaConfig) ; |344| 
         000333 0000 
         000335 019E-
     948                      .dwpsn  file "../c5535_bsl_revc/ezdsp5535_v1/c55xx_csl/ccs_v4.0_examples/i2c/CSL_I2C_DmaWordSwapExapm
     949 000337 E631          MOV #0, *(#(_dmaConfig+1)) ; |346| 
         000339 0000 
         00033b 019F-
     950                      .dwpsn  file "../c5535_bsl_revc/ezdsp5535_v1/c55xx_csl/ccs_v4.0_examples/i2c/CSL_I2C_DmaWordSwapExapm
     951 00033d E631          MOV #0, *(#(_dmaConfig+2)) ; |347| 
         00033f 0000 
         000341 01A0-
     952                      .dwpsn  file "../c5535_bsl_revc/ezdsp5535_v1/c55xx_csl/ccs_v4.0_examples/i2c/CSL_I2C_DmaWordSwapExapm
     953 000343 E631          MOV #1, *(#(_dmaConfig+3)) ; |348| 
         000345 0100 
         000347 01A1-
     954                      .dwpsn  file "../c5535_bsl_revc/ezdsp5535_v1/c55xx_csl/ccs_v4.0_examples/i2c/CSL_I2C_DmaWordSwapExapm
     955 000349 E631          MOV #1, *(#(_dmaConfig+4)) ; |349| 
         00034b 0100 
         00034d 01A2-
     956                      .dwpsn  file "../c5535_bsl_revc/ezdsp5535_v1/c55xx_csl/ccs_v4.0_examples/i2c/CSL_I2C_DmaWordSwapExapm
     957 00034f E631          MOV #0, *(#(_dmaConfig+5)) ; |350| 
         000351 0000 
         000353 01A3-
     958                      .dwpsn  file "../c5535_bsl_revc/ezdsp5535_v1/c55xx_csl/ccs_v4.0_examples/i2c/CSL_I2C_DmaWordSwapExapm
     959 000355 E631          MOV #1, *(#(_dmaConfig+6)) ; |351| 
         000357 0100 
         000359 01A4-
     960                      .dwpsn  file "../c5535_bsl_revc/ezdsp5535_v1/c55xx_csl/ccs_v4.0_examples/i2c/CSL_I2C_DmaWordSwapExapm
     961 00035b E631          MOV #0, *(#(_dmaConfig+7)) ; |352| 
         00035d 0000 
         00035f 01A5-
     962                      .dwpsn  file "../c5535_bsl_revc/ezdsp5535_v1/c55xx_csl/ccs_v4.0_examples/i2c/CSL_I2C_DmaWordSwapExapm
     963 000361 E631          MOV #8, *(#(_dmaConfig+8)) ; |353| 
         000363 0800 
         000365 01A6-
     964                      .dwpsn  file "../c5535_bsl_revc/ezdsp5535_v1/c55xx_csl/ccs_v4.0_examples/i2c/CSL_I2C_DmaWordSwapExapm
     965 000367 7A00          MOV #(_gI2cDmaWrBuf >> 16) << #16, AC0 ; |354| 
         000369 000A%
     966 00036b 7E00          OR #(_gI2cDmaWrBuf & 0xffff), AC0, AC0 ; |354| 
         00036d 0000%
     967 00036f EB31          MOV AC0, dbl(*(#(_dmaConfig+10))) ; |354| 
         000371 0800 
         000373 01A8-
     968                      .dwpsn  file "../c5535_bsl_revc/ezdsp5535_v1/c55xx_csl/ccs_v4.0_examples/i2c/CSL_I2C_DmaWordSwapExapm
     969 000375 ED31          MOV dbl(*(#_i2cHandle)), XAR3
TMS320C55x Assembler PC v4.4.1 Sat Sep 29 23:09:37 2018

Tools Copyright (c) 1996-2012 Texas Instruments Incorporated
csl_i2c_dmaWordSwap_example.asm                                      PAGE   23

         000377 BF00 
         000379 0000!
     970 00037b DF61          MOV uns(*AR3), AC0 ; |355| 
         00037d 05   
     971 00037e 900B          MOV AC0, XAR3
     972 000380 1420          AADD #32, AR3 ; |355| 
         000382 B4   
     973 000383 90B0          MOV XAR3, AC0
     974 000385 EB31          MOV AC0, dbl(*(#(_dmaConfig+12))) ; |355| 
         000387 0800 
         000389 01AA-
     975                      .dwpsn  file "../c5535_bsl_revc/ezdsp5535_v1/c55xx_csl/ccs_v4.0_examples/i2c/CSL_I2C_DmaWordSwapExapm
     976 00038b EC31          AMOV #_dmaWrChanObj, XAR0 ; |357| 
         00038d 8E00 
         00038f 01AC-
     977              $C$DW$88        .dwtag  DW_TAG_TI_branch
     978                      .dwattr $C$DW$88, DW_AT_low_pc(0x00)
     979                      .dwattr $C$DW$88, DW_AT_name("_CSL_configDmaForI2c")
     980                      .dwattr $C$DW$88, DW_AT_TI_call
     981              
     982 000391 0805          CALL #_CSL_configDmaForI2c ; |357| 
         000393 32   
     983 000394 3D84  ||      MOV #8, T0
     984              
     985                                                      ; call occurs [#_CSL_configDmaForI2c] ; |357| 
     986 000396 EB31          MOV XAR0, dbl(*(#_dmaWrHandle))
         000398 8500 
         00039a 0084-
     987                      .dwpsn  file "../c5535_bsl_revc/ezdsp5535_v1/c55xx_csl/ccs_v4.0_examples/i2c/CSL_I2C_DmaWordSwapExapm
     988 00039c ED31          MOV dbl(*(#_dmaWrHandle)), XAR3
         00039e BF00 
         0003a0 0084-
     989 0003a2 90B0          MOV XAR3, AC0
     990 0003a4 0410          BCC $C$L24,AC0 != #0 ; |358| 
         0003a6 12   
     991                                                      ; branchcc occurs ; |358| 
     992                      .dwpsn  file "../c5535_bsl_revc/ezdsp5535_v1/c55xx_csl/ccs_v4.0_examples/i2c/CSL_I2C_DmaWordSwapExapm
     993 0003a7 EC31          AMOV #$C$FSL11, XAR3 ; |360| 
         0003a9 BE00 
         0003ab 016C+
     994 0003ad EB00          MOV XAR3, dbl(*SP(#0))
         0003af B5   
     995              $C$DW$89        .dwtag  DW_TAG_TI_branch
     996                      .dwattr $C$DW$89, DW_AT_low_pc(0x00)
     997                      .dwattr $C$DW$89, DW_AT_name("_printf")
     998                      .dwattr $C$DW$89, DW_AT_TI_call
     999 0003b0 6C00          CALL #_printf ; |360| 
         0003b2 0000!
    1000                                                      ; call occurs [#_printf] ; |360| 
    1001                      .dwpsn  file "../c5535_bsl_revc/ezdsp5535_v1/c55xx_csl/ccs_v4.0_examples/i2c/CSL_I2C_DmaWordSwapExapm
    1002 0003b4 3C14          MOV #1, T0
    1003 0003b6 0601          B $C$L37  ; |361| 
         0003b8 CA   
    1004                                                      ; branch occurs ; |361| 
    1005 0003b9       $C$L24:    
TMS320C55x Assembler PC v4.4.1 Sat Sep 29 23:09:37 2018

Tools Copyright (c) 1996-2012 Texas Instruments Incorporated
csl_i2c_dmaWordSwap_example.asm                                      PAGE   24

    1006                      .dwpsn  file "../c5535_bsl_revc/ezdsp5535_v1/c55xx_csl/ccs_v4.0_examples/i2c/CSL_I2C_DmaWordSwapExapm
    1007 0003b9 E631          MOV #47, *(#_i2cConfig) ; |365| 
         0003bb 2F00 
         0003bd 0194-
    1008                      .dwpsn  file "../c5535_bsl_revc/ezdsp5535_v1/c55xx_csl/ccs_v4.0_examples/i2c/CSL_I2C_DmaWordSwapExapm
    1009 0003bf E631          MOV #0, *(#(_i2cConfig+1)) ; |366| 
         0003c1 0000 
         0003c3 0195-
    1010                      .dwpsn  file "../c5535_bsl_revc/ezdsp5535_v1/c55xx_csl/ccs_v4.0_examples/i2c/CSL_I2C_DmaWordSwapExapm
    1011 0003c5 FB31          MOV #620, *(#(_i2cConfig+2)) ; |367| 
         0003c7 026C 
         0003c9 0001 
         0003cb 96-  
    1012                      .dwpsn  file "../c5535_bsl_revc/ezdsp5535_v1/c55xx_csl/ccs_v4.0_examples/i2c/CSL_I2C_DmaWordSwapExapm
    1013 0003cc FB31          MOV #620, *(#(_i2cConfig+3)) ; |368| 
         0003ce 026C 
         0003d0 0001 
         0003d2 97-  
    1014                      .dwpsn  file "../c5535_bsl_revc/ezdsp5535_v1/c55xx_csl/ccs_v4.0_examples/i2c/CSL_I2C_DmaWordSwapExapm
    1015 0003d3 E631          MOV #2, *(#(_i2cConfig+4)) ; |369| 
         0003d5 0200 
         0003d7 0198-
    1016                      .dwpsn  file "../c5535_bsl_revc/ezdsp5535_v1/c55xx_csl/ccs_v4.0_examples/i2c/CSL_I2C_DmaWordSwapExapm
    1017 0003d9 E631          MOV #80, *(#(_i2cConfig+5)) ; |370| 
         0003db 5000 
         0003dd 0199-
    1018                      .dwpsn  file "../c5535_bsl_revc/ezdsp5535_v1/c55xx_csl/ccs_v4.0_examples/i2c/CSL_I2C_DmaWordSwapExapm
    1019 0003df FB31          MOV #3616, *(#(_i2cConfig+6)) ; |371| 
         0003e1 0E20 
         0003e3 0001 
         0003e5 9A-  
    1020                      .dwpsn  file "../c5535_bsl_revc/ezdsp5535_v1/c55xx_csl/ccs_v4.0_examples/i2c/CSL_I2C_DmaWordSwapExapm
    1021 0003e6 E631          MOV #0, *(#(_i2cConfig+7)) ; |372| 
         0003e8 0000 
         0003ea 019B-
    1022                      .dwpsn  file "../c5535_bsl_revc/ezdsp5535_v1/c55xx_csl/ccs_v4.0_examples/i2c/CSL_I2C_DmaWordSwapExapm
    1023 0003ec E631          MOV #7, *(#(_i2cConfig+8)) ; |373| 
         0003ee 0700 
         0003f0 019C-
    1024                      .dwpsn  file "../c5535_bsl_revc/ezdsp5535_v1/c55xx_csl/ccs_v4.0_examples/i2c/CSL_I2C_DmaWordSwapExapm
    1025 0003f2 EC31          AMOV #_i2cConfig, XAR0 ; |375| 
         0003f4 8E00 
         0003f6 0194-
    1026              $C$DW$90        .dwtag  DW_TAG_TI_branch
    1027                      .dwattr $C$DW$90, DW_AT_low_pc(0x00)
    1028                      .dwattr $C$DW$90, DW_AT_name("_I2C_config")
    1029                      .dwattr $C$DW$90, DW_AT_TI_call
    1030 0003f8 6C00          CALL #_I2C_config ; |375| 
         0003fa 0000!
    1031                                                      ; call occurs [#_I2C_config] ; |375| 
    1032 0003fc C404          MOV T0, *SP(#2) ; |375| 
    1033                      .dwpsn  file "../c5535_bsl_revc/ezdsp5535_v1/c55xx_csl/ccs_v4.0_examples/i2c/CSL_I2C_DmaWordSwapExapm
    1034 0003fe 2249          MOV T0, AR1
    1035 000400 0409          BCC $C$L25,AR1 == #0 ; |376| 
         000402 12   
TMS320C55x Assembler PC v4.4.1 Sat Sep 29 23:09:37 2018

Tools Copyright (c) 1996-2012 Texas Instruments Incorporated
csl_i2c_dmaWordSwap_example.asm                                      PAGE   25

    1036                                                      ; branchcc occurs ; |376| 
    1037                      .dwpsn  file "../c5535_bsl_revc/ezdsp5535_v1/c55xx_csl/ccs_v4.0_examples/i2c/CSL_I2C_DmaWordSwapExapm
    1038 000403 EC31          AMOV #$C$FSL12, XAR3 ; |378| 
         000405 BE00 
         000407 0190+
    1039 000409 EB00          MOV XAR3, dbl(*SP(#0))
         00040b B5   
    1040              $C$DW$91        .dwtag  DW_TAG_TI_branch
    1041                      .dwattr $C$DW$91, DW_AT_low_pc(0x00)
    1042                      .dwattr $C$DW$91, DW_AT_name("_printf")
    1043                      .dwattr $C$DW$91, DW_AT_TI_call
    1044 00040c 6C00          CALL #_printf ; |378| 
         00040e 0000!
    1045                                                      ; call occurs [#_printf] ; |378| 
    1046                      .dwpsn  file "../c5535_bsl_revc/ezdsp5535_v1/c55xx_csl/ccs_v4.0_examples/i2c/CSL_I2C_DmaWordSwapExapm
    1047 000410 A406          MOV *SP(#3), T0 ; |379| 
    1048 000412 0601          B $C$L37  ; |379| 
         000414 6E   
    1049                                                      ; branch occurs ; |379| 
    1050 000415       $C$L25:    
    1051                      .dwpsn  file "../c5535_bsl_revc/ezdsp5535_v1/c55xx_csl/ccs_v4.0_examples/i2c/CSL_I2C_DmaWordSwapExapm
    1052 000415 ED31          MOV dbl(*(#_dmaWrHandle)), XAR0
         000417 8F00 
         000419 0084-
    1053              $C$DW$92        .dwtag  DW_TAG_TI_branch
    1054                      .dwattr $C$DW$92, DW_AT_low_pc(0x00)
    1055                      .dwattr $C$DW$92, DW_AT_name("_DMA_start")
    1056                      .dwattr $C$DW$92, DW_AT_TI_call
    1057 00041b 6C00          CALL #_DMA_start ; |383| 
         00041d 0000!
    1058                                                      ; call occurs [#_DMA_start] ; |383| 
    1059 00041f C404          MOV T0, *SP(#2) ; |383| 
    1060                      .dwpsn  file "../c5535_bsl_revc/ezdsp5535_v1/c55xx_csl/ccs_v4.0_examples/i2c/CSL_I2C_DmaWordSwapExapm
    1061 000421 2249          MOV T0, AR1
    1062 000423 0409          BCC $C$L26,AR1 == #0 ; |384| 
         000425 12   
    1063                                                      ; branchcc occurs ; |384| 
    1064                      .dwpsn  file "../c5535_bsl_revc/ezdsp5535_v1/c55xx_csl/ccs_v4.0_examples/i2c/CSL_I2C_DmaWordSwapExapm
    1065 000426 EC31          AMOV #$C$FSL13, XAR3 ; |386| 
         000428 BE00 
         00042a 01A6+
    1066 00042c EB00          MOV XAR3, dbl(*SP(#0))
         00042e B5   
    1067              $C$DW$93        .dwtag  DW_TAG_TI_branch
    1068                      .dwattr $C$DW$93, DW_AT_low_pc(0x00)
    1069                      .dwattr $C$DW$93, DW_AT_name("_printf")
    1070                      .dwattr $C$DW$93, DW_AT_TI_call
    1071 00042f 6C00          CALL #_printf ; |386| 
         000431 0000!
    1072                                                      ; call occurs [#_printf] ; |386| 
    1073                      .dwpsn  file "../c5535_bsl_revc/ezdsp5535_v1/c55xx_csl/ccs_v4.0_examples/i2c/CSL_I2C_DmaWordSwapExapm
    1074 000433 A406          MOV *SP(#3), T0 ; |387| 
    1075 000435 0601          B $C$L37  ; |387| 
         000437 4B   
    1076                                                      ; branch occurs ; |387| 
TMS320C55x Assembler PC v4.4.1 Sat Sep 29 23:09:37 2018

Tools Copyright (c) 1996-2012 Texas Instruments Incorporated
csl_i2c_dmaWordSwap_example.asm                                      PAGE   26

    1077 000438       $C$L26:    
    1078                      .dwpsn  file "../c5535_bsl_revc/ezdsp5535_v1/c55xx_csl/ccs_v4.0_examples/i2c/CSL_I2C_DmaWordSwapExapm
    1079 000438 A951          MOV *port(#6692), AR1 ; |391| 
         00043a 1A24 
    1080 00043c EC1A          BCLR @#13, AR1 ; |391| 
         00043e 92   
    1081 00043f EC1A          BSET @#13, AR1 ; |391| 
         000441 90   
    1082 000442 C951          MOV AR1, *port(#6692) ; |391| 
         000444 1A24 
    1083                      .dwpsn  file "../c5535_bsl_revc/ezdsp5535_v1/c55xx_csl/ccs_v4.0_examples/i2c/CSL_I2C_DmaWordSwapExapm
    1084 000446 ED31          MOV dbl(*(#_dmaWrHandle)), XAR0
         000448 8F00 
         00044a 0084-
    1085              $C$DW$94        .dwtag  DW_TAG_TI_branch
    1086                      .dwattr $C$DW$94, DW_AT_low_pc(0x00)
    1087                      .dwattr $C$DW$94, DW_AT_name("_DMA_getStatus")
    1088                      .dwattr $C$DW$94, DW_AT_TI_call
    1089 00044c 08FB          CALL #_DMA_getStatus ; |394| 
         00044e B1   
    1090                                                      ; call occurs [#_DMA_getStatus] ; |394| 
    1091 00044f 6604          BCC $C$L28,T0 == #0 ; |394| 
    1092                                                      ; branchcc occurs ; |394| 
    1093 000451       $C$L27:    
    1094 000451       $C$DW$L$_CSL_i2c_dmaWrite_pollRead$24$B:
    1095 000451 ED31          MOV dbl(*(#_dmaWrHandle)), XAR0
         000453 8F00 
         000455 0084-
    1096              $C$DW$95        .dwtag  DW_TAG_TI_branch
    1097                      .dwattr $C$DW$95, DW_AT_low_pc(0x00)
    1098                      .dwattr $C$DW$95, DW_AT_name("_DMA_getStatus")
    1099                      .dwattr $C$DW$95, DW_AT_TI_call
    1100 000457 08FB          CALL #_DMA_getStatus ; |394| 
         000459 A6   
    1101                                                      ; call occurs [#_DMA_getStatus] ; |394| 
    1102 00045a 0414          BCC $C$L27,T0 != #0 ; |394| 
         00045c F4   
    1103                                                      ; branchcc occurs ; |394| 
    1104 00045d       $C$DW$L$_CSL_i2c_dmaWrite_pollRead$24$E:
    1105 00045d       $C$L28:    
    1106                      .dwpsn  file "../c5535_bsl_revc/ezdsp5535_v1/c55xx_csl/ccs_v4.0_examples/i2c/CSL_I2C_DmaWordSwapExapm
    1107 00045d E60A          MOV #0, *SP(#5) ; |397| 
         00045f 00   
    1108 000460 20            NOP
    1109 000461 20            NOP
    1110                      .dwpsn  file "../c5535_bsl_revc/ezdsp5535_v1/c55xx_csl/ccs_v4.0_examples/i2c/CSL_I2C_DmaWordSwapExapm
    1111 000462 76FF          MOV #65535, AR2 ; |397| 
         000464 FFA8 
    1112 000466 A90A          MOV *SP(#5), AR1 ; |397| 
    1113 000468 1298          CMPU AR1 >= AR2, TC1 ; |397| 
         00046a A4   
    1114 00046b 67E4          BCC $C$L30,TC1 ; |397| 
    1115                                                      ; branchcc occurs ; |397| 
    1116 00046d       $C$L29:    
    1117 00046d       $C$DW$L$_CSL_i2c_dmaWrite_pollRead$26$B:
TMS320C55x Assembler PC v4.4.1 Sat Sep 29 23:09:37 2018

Tools Copyright (c) 1996-2012 Texas Instruments Incorporated
csl_i2c_dmaWordSwap_example.asm                                      PAGE   27

    1118                      .dwpsn  file "../c5535_bsl_revc/ezdsp5535_v1/c55xx_csl/ccs_v4.0_examples/i2c/CSL_I2C_DmaWordSwapExapm
    1119 00046d F70A          ADD #1, *SP(#5) ; |397| 
         00046f 0001 
    1120 000471 20            NOP
    1121 000472 20            NOP
    1122 000473 20            NOP
    1123                      .dwpsn  file "../c5535_bsl_revc/ezdsp5535_v1/c55xx_csl/ccs_v4.0_examples/i2c/CSL_I2C_DmaWordSwapExapm
    1124 000474 A90A          MOV *SP(#5), AR1 ; |397| 
    1125 000476 1294          CMPU AR1 < AR2, TC1 ; |397| 
         000478 A4   
    1126 000479 0464          BCC $C$L29,TC1 ; |397| 
         00047b F1   
    1127                                                      ; branchcc occurs ; |397| 
    1128 00047c       $C$DW$L$_CSL_i2c_dmaWrite_pollRead$26$E:
    1129 00047c       $C$L30:    
    1130                      .dwpsn  file "../c5535_bsl_revc/ezdsp5535_v1/c55xx_csl/ccs_v4.0_examples/i2c/CSL_I2C_DmaWordSwapExapm
    1131 00047c E631          MOV #47, *(#_i2cConfig) ; |400| 
         00047e 2F00 
         000480 0194-
    1132                      .dwpsn  file "../c5535_bsl_revc/ezdsp5535_v1/c55xx_csl/ccs_v4.0_examples/i2c/CSL_I2C_DmaWordSwapExapm
    1133 000482 E631          MOV #0, *(#(_i2cConfig+1)) ; |401| 
         000484 0000 
         000486 0195-
    1134                      .dwpsn  file "../c5535_bsl_revc/ezdsp5535_v1/c55xx_csl/ccs_v4.0_examples/i2c/CSL_I2C_DmaWordSwapExapm
    1135 000488 FB31          MOV #620, *(#(_i2cConfig+2)) ; |402| 
         00048a 026C 
         00048c 0001 
         00048e 96-  
    1136                      .dwpsn  file "../c5535_bsl_revc/ezdsp5535_v1/c55xx_csl/ccs_v4.0_examples/i2c/CSL_I2C_DmaWordSwapExapm
    1137 00048f FB31          MOV #620, *(#(_i2cConfig+3)) ; |403| 
         000491 026C 
         000493 0001 
         000495 97-  
    1138                      .dwpsn  file "../c5535_bsl_revc/ezdsp5535_v1/c55xx_csl/ccs_v4.0_examples/i2c/CSL_I2C_DmaWordSwapExapm
    1139 000496 E631          MOV #64, *(#(_i2cConfig+4)) ; |404| 
         000498 4000 
         00049a 0198-
    1140                      .dwpsn  file "../c5535_bsl_revc/ezdsp5535_v1/c55xx_csl/ccs_v4.0_examples/i2c/CSL_I2C_DmaWordSwapExapm
    1141 00049c E631          MOV #80, *(#(_i2cConfig+5)) ; |405| 
         00049e 5000 
         0004a0 0199-
    1142                      .dwpsn  file "../c5535_bsl_revc/ezdsp5535_v1/c55xx_csl/ccs_v4.0_examples/i2c/CSL_I2C_DmaWordSwapExapm
    1143 0004a2 FB31          MOV #3104, *(#(_i2cConfig+6)) ; |406| 
         0004a4 0C20 
         0004a6 0001 
         0004a8 9A-  
    1144                      .dwpsn  file "../c5535_bsl_revc/ezdsp5535_v1/c55xx_csl/ccs_v4.0_examples/i2c/CSL_I2C_DmaWordSwapExapm
    1145 0004a9 E631          MOV #0, *(#(_i2cConfig+7)) ; |407| 
         0004ab 0000 
         0004ad 019B-
    1146                      .dwpsn  file "../c5535_bsl_revc/ezdsp5535_v1/c55xx_csl/ccs_v4.0_examples/i2c/CSL_I2C_DmaWordSwapExapm
    1147 0004af E631          MOV #7, *(#(_i2cConfig+8)) ; |408| 
         0004b1 0700 
         0004b3 019C-
    1148                      .dwpsn  file "../c5535_bsl_revc/ezdsp5535_v1/c55xx_csl/ccs_v4.0_examples/i2c/CSL_I2C_DmaWordSwapExapm
TMS320C55x Assembler PC v4.4.1 Sat Sep 29 23:09:37 2018

Tools Copyright (c) 1996-2012 Texas Instruments Incorporated
csl_i2c_dmaWordSwap_example.asm                                      PAGE   28

    1149 0004b5 EC31          AMOV #_i2cConfig, XAR0 ; |410| 
         0004b7 8E00 
         0004b9 0194-
    1150              $C$DW$96        .dwtag  DW_TAG_TI_branch
    1151                      .dwattr $C$DW$96, DW_AT_low_pc(0x00)
    1152                      .dwattr $C$DW$96, DW_AT_name("_I2C_config")
    1153                      .dwattr $C$DW$96, DW_AT_TI_call
    1154 0004bb 6C00          CALL #_I2C_config ; |410| 
         0004bd 0000!
    1155                                                      ; call occurs [#_I2C_config] ; |410| 
    1156 0004bf C404          MOV T0, *SP(#2) ; |410| 
    1157                      .dwpsn  file "../c5535_bsl_revc/ezdsp5535_v1/c55xx_csl/ccs_v4.0_examples/i2c/CSL_I2C_DmaWordSwapExapm
    1158 0004c1 2249          MOV T0, AR1
    1159 0004c3 0409          BCC $C$L31,AR1 == #0 ; |411| 
         0004c5 12   
    1160                                                      ; branchcc occurs ; |411| 
    1161                      .dwpsn  file "../c5535_bsl_revc/ezdsp5535_v1/c55xx_csl/ccs_v4.0_examples/i2c/CSL_I2C_DmaWordSwapExapm
    1162 0004c6 EC31          AMOV #$C$FSL12, XAR3 ; |413| 
         0004c8 BE00 
         0004ca 0190+
    1163 0004cc EB00          MOV XAR3, dbl(*SP(#0))
         0004ce B5   
    1164              $C$DW$97        .dwtag  DW_TAG_TI_branch
    1165                      .dwattr $C$DW$97, DW_AT_low_pc(0x00)
    1166                      .dwattr $C$DW$97, DW_AT_name("_printf")
    1167                      .dwattr $C$DW$97, DW_AT_TI_call
    1168 0004cf 6C00          CALL #_printf ; |413| 
         0004d1 0000!
    1169                                                      ; call occurs [#_printf] ; |413| 
    1170                      .dwpsn  file "../c5535_bsl_revc/ezdsp5535_v1/c55xx_csl/ccs_v4.0_examples/i2c/CSL_I2C_DmaWordSwapExapm
    1171 0004d3 A406          MOV *SP(#3), T0 ; |414| 
    1172 0004d5 0600          B $C$L37  ; |414| 
         0004d7 AB   
    1173                                                      ; branch occurs ; |414| 
    1174 0004d8       $C$L31:    
    1175                      .dwpsn  file "../c5535_bsl_revc/ezdsp5535_v1/c55xx_csl/ccs_v4.0_examples/i2c/CSL_I2C_DmaWordSwapExapm
    1176 0004d8 AA08          MOV *SP(#4), AR2 ; |418| 
    1177 0004da EC31          AMOV #_gI2cPollRdBuf, XAR0 ; |418| 
         0004dc 8E00 
         0004de 014A-
    1178 0004e0 76FF          MOV #65535, AR3 ; |418| 
         0004e2 FFB8 
    1179 0004e4 7600          MOV #80, T1 ; |418| 
         0004e6 5058 
    1180              
    1181 0004e8 7600          MOV #64, T0 ; |418| 
         0004ea 4048 
    1182 0004ec 3D19  ||      MOV #1, AR1
    1183              
    1184              $C$DW$98        .dwtag  DW_TAG_TI_branch
    1185                      .dwattr $C$DW$98, DW_AT_low_pc(0x00)
    1186                      .dwattr $C$DW$98, DW_AT_name("_I2C_read")
    1187                      .dwattr $C$DW$98, DW_AT_TI_call
    1188              
    1189 0004ee 6C00          CALL #_I2C_read ; |418| 
TMS320C55x Assembler PC v4.4.1 Sat Sep 29 23:09:37 2018

Tools Copyright (c) 1996-2012 Texas Instruments Incorporated
csl_i2c_dmaWordSwap_example.asm                                      PAGE   29

         0004f0 0000!
    1190 0004f2 3D0C  ||      MOV #0, AR4
    1191              
    1192                                                      ; call occurs [#_I2C_read] ; |418| 
    1193 0004f4 C404          MOV T0, *SP(#2) ; |418| 
    1194                      .dwpsn  file "../c5535_bsl_revc/ezdsp5535_v1/c55xx_csl/ccs_v4.0_examples/i2c/CSL_I2C_DmaWordSwapExapm
    1195 0004f6 2249          MOV T0, AR1
    1196 0004f8 0409          BCC $C$L32,AR1 == #0 ; |420| 
         0004fa 12   
    1197                                                      ; branchcc occurs ; |420| 
    1198                      .dwpsn  file "../c5535_bsl_revc/ezdsp5535_v1/c55xx_csl/ccs_v4.0_examples/i2c/CSL_I2C_DmaWordSwapExapm
    1199 0004fb EC31          AMOV #$C$FSL15, XAR3 ; |422| 
         0004fd BE00 
         0004ff 01DE+
    1200 000501 EB00          MOV XAR3, dbl(*SP(#0))
         000503 B5   
    1201              $C$DW$99        .dwtag  DW_TAG_TI_branch
    1202                      .dwattr $C$DW$99, DW_AT_low_pc(0x00)
    1203                      .dwattr $C$DW$99, DW_AT_name("_printf")
    1204                      .dwattr $C$DW$99, DW_AT_TI_call
    1205 000504 6C00          CALL #_printf ; |422| 
         000506 0000!
    1206                                                      ; call occurs [#_printf] ; |422| 
    1207                      .dwpsn  file "../c5535_bsl_revc/ezdsp5535_v1/c55xx_csl/ccs_v4.0_examples/i2c/CSL_I2C_DmaWordSwapExapm
    1208 000508 A406          MOV *SP(#3), T0 ; |423| 
    1209 00050a 0600          B $C$L37  ; |423| 
         00050c 76   
    1210                                                      ; branch occurs ; |423| 
    1211 00050d       $C$L32:    
    1212                      .dwpsn  file "../c5535_bsl_revc/ezdsp5535_v1/c55xx_csl/ccs_v4.0_examples/i2c/CSL_I2C_DmaWordSwapExapm
    1213 00050d EC31          AMOV #$C$FSL16, XAR3 ; |426| 
         00050f BE00 
         000511 01F2+
    1214 000513 EB00          MOV XAR3, dbl(*SP(#0))
         000515 B5   
    1215              $C$DW$100       .dwtag  DW_TAG_TI_branch
    1216                      .dwattr $C$DW$100, DW_AT_low_pc(0x00)
    1217                      .dwattr $C$DW$100, DW_AT_name("_printf")
    1218                      .dwattr $C$DW$100, DW_AT_TI_call
    1219 000516 6C00          CALL #_printf ; |426| 
         000518 0000!
    1220                                                      ; call occurs [#_printf] ; |426| 
    1221                      .dwpsn  file "../c5535_bsl_revc/ezdsp5535_v1/c55xx_csl/ccs_v4.0_examples/i2c/CSL_I2C_DmaWordSwapExapm
    1222 00051a E60A          MOV #0, *SP(#5) ; |429| 
         00051c 00   
    1223 00051d 20            NOP
    1224 00051e 20            NOP
    1225                      .dwpsn  file "../c5535_bsl_revc/ezdsp5535_v1/c55xx_csl/ccs_v4.0_examples/i2c/CSL_I2C_DmaWordSwapExapm
    1226 00051f 7600          MOV #64, AR2 ; |429| 
         000521 40A8 
    1227 000523 A90A          MOV *SP(#5), AR1 ; |429| 
    1228 000525 1298          CMPU AR1 >= AR2, TC1 ; |429| 
         000527 A4   
    1229 000528 0464          BCC $C$L35,TC1 ; |429| 
         00052a 40   
TMS320C55x Assembler PC v4.4.1 Sat Sep 29 23:09:37 2018

Tools Copyright (c) 1996-2012 Texas Instruments Incorporated
csl_i2c_dmaWordSwap_example.asm                                      PAGE   30

    1230                                                      ; branchcc occurs ; |429| 
    1231 00052b       $C$L33:    
    1232 00052b       $C$DW$L$_CSL_i2c_dmaWrite_pollRead$32$B:
    1233                      .dwpsn  file "../c5535_bsl_revc/ezdsp5535_v1/c55xx_csl/ccs_v4.0_examples/i2c/CSL_I2C_DmaWordSwapExapm
    1234 00052b A40A          MOV *SP(#5), T0 ; |431| 
    1235 00052d EC31          AMOV #_gI2cPollRdBuf, XAR3 ; |431| 
         00052f BE00 
         000531 014A-
    1236 000533 DF6B          MOV uns(*AR3(T0)), AC0 ; |431| 
         000535 05   
    1237 000536 A40A          MOV *SP(#5), T0 ; |431| 
    1238 000538 4024          ADD #2, T0 ; |431| 
    1239 00053a 5040          SFTL T0, #1 ; |431| 
    1240 00053c EC31          AMOV #_gI2cDmaWrBuf, XAR3 ; |431| 
         00053e BE00 
         000540 0000-
    1241 000542 ED6B          MOV dbl(*AR3(T0)), AC1 ; |431| 
         000544 18   
    1242 000545 1210          CMPU AC1 == AC0, TC1 ; |431| 
         000547 04   
    1243 000548 0464          BCC $C$L34,TC1 ; |431| 
         00054a 11   
    1244                                                      ; branchcc occurs ; |431| 
    1245 00054b       $C$DW$L$_CSL_i2c_dmaWrite_pollRead$32$E:
    1246                      .dwpsn  file "../c5535_bsl_revc/ezdsp5535_v1/c55xx_csl/ccs_v4.0_examples/i2c/CSL_I2C_DmaWordSwapExapm
    1247 00054b EC31          AMOV #$C$FSL17, XAR3 ; |433| 
         00054d BE00 
         00054f 0206+
    1248 000551 EB00          MOV XAR3, dbl(*SP(#0))
         000553 B5   
    1249              $C$DW$101       .dwtag  DW_TAG_TI_branch
    1250                      .dwattr $C$DW$101, DW_AT_low_pc(0x00)
    1251                      .dwattr $C$DW$101, DW_AT_name("_printf")
    1252                      .dwattr $C$DW$101, DW_AT_TI_call
    1253 000554 6C00          CALL #_printf ; |433| 
         000556 0000!
    1254                                                      ; call occurs [#_printf] ; |433| 
    1255                      .dwpsn  file "../c5535_bsl_revc/ezdsp5535_v1/c55xx_csl/ccs_v4.0_examples/i2c/CSL_I2C_DmaWordSwapExapm
    1256 000558 A406          MOV *SP(#3), T0 ; |434| 
    1257 00055a 4A27          B $C$L37  ; |434| 
    1258                                                      ; branch occurs ; |434| 
    1259 00055c       $C$L34:    
    1260 00055c       $C$DW$L$_CSL_i2c_dmaWrite_pollRead$34$B:
    1261                      .dwpsn  file "../c5535_bsl_revc/ezdsp5535_v1/c55xx_csl/ccs_v4.0_examples/i2c/CSL_I2C_DmaWordSwapExapm
    1262 00055c F70A          ADD #1, *SP(#5) ; |429| 
         00055e 0001 
    1263 000560 20            NOP
    1264 000561 20            NOP
    1265 000562 20            NOP
    1266                      .dwpsn  file "../c5535_bsl_revc/ezdsp5535_v1/c55xx_csl/ccs_v4.0_examples/i2c/CSL_I2C_DmaWordSwapExapm
    1267 000563 A90A          MOV *SP(#5), AR1 ; |429| 
    1268 000565 1294          CMPU AR1 < AR2, TC1 ; |429| 
         000567 A4   
    1269 000568 0464          BCC $C$L33,TC1 ; |429| 
         00056a C0   
TMS320C55x Assembler PC v4.4.1 Sat Sep 29 23:09:37 2018

Tools Copyright (c) 1996-2012 Texas Instruments Incorporated
csl_i2c_dmaWordSwap_example.asm                                      PAGE   31

    1270                                                      ; branchcc occurs ; |429| 
    1271 00056b       $C$DW$L$_CSL_i2c_dmaWrite_pollRead$34$E:
    1272 00056b       $C$L35:    
    1273                      .dwpsn  file "../c5535_bsl_revc/ezdsp5535_v1/c55xx_csl/ccs_v4.0_examples/i2c/CSL_I2C_DmaWordSwapExapm
    1274 00056b F00A          CMP *SP(#5) == #64, TC1 ; |438| 
         00056d 0040 
    1275 00056f 66F4          BCC $C$L36,!TC1 ; |438| 
    1276                                                      ; branchcc occurs ; |438| 
    1277                      .dwpsn  file "../c5535_bsl_revc/ezdsp5535_v1/c55xx_csl/ccs_v4.0_examples/i2c/CSL_I2C_DmaWordSwapExapm
    1278 000571 EC31          AMOV #$C$FSL18, XAR3 ; |440| 
         000573 BE00 
         000575 022C+
    1279 000577 EB00          MOV XAR3, dbl(*SP(#0))
         000579 B5   
    1280              $C$DW$102       .dwtag  DW_TAG_TI_branch
    1281                      .dwattr $C$DW$102, DW_AT_low_pc(0x00)
    1282                      .dwattr $C$DW$102, DW_AT_name("_printf")
    1283                      .dwattr $C$DW$102, DW_AT_TI_call
    1284 00057a 6C00          CALL #_printf ; |440| 
         00057c 0000!
    1285                                                      ; call occurs [#_printf] ; |440| 
    1286 00057e       $C$L36:    
    1287                      .dwpsn  file "../c5535_bsl_revc/ezdsp5535_v1/c55xx_csl/ccs_v4.0_examples/i2c/CSL_I2C_DmaWordSwapExapm
    1288 00057e E606          MOV #0, *SP(#3) ; |443| 
         000580 00   
    1289                      .dwpsn  file "../c5535_bsl_revc/ezdsp5535_v1/c55xx_csl/ccs_v4.0_examples/i2c/CSL_I2C_DmaWordSwapExapm
    1290 000581 A406          MOV *SP(#3), T0 ; |445| 
    1291 000583       $C$L37:    
    1292                      .dwpsn  file "../c5535_bsl_revc/ezdsp5535_v1/c55xx_csl/ccs_v4.0_examples/i2c/CSL_I2C_DmaWordSwapExapm
    1293 000583 4E07          AADD #7, SP
    1294                      .dwcfi  cfa_offset, 1
    1295              $C$DW$103       .dwtag  DW_TAG_TI_branch
    1296                      .dwattr $C$DW$103, DW_AT_low_pc(0x00)
    1297                      .dwattr $C$DW$103, DW_AT_TI_return
    1298 000585 4804          RET
    1299                                                      ; return occurs
    1300              
    1301              $C$DW$104       .dwtag  DW_TAG_TI_loop
    1302                      .dwattr $C$DW$104, DW_AT_name("F:\eZdsp_DBG\tmp1\c55x-sim2\foo\Debug\csl_i2c_dmaWordSwap_example.asm:
    1303                      .dwattr $C$DW$104, DW_AT_TI_begin_file("../c5535_bsl_revc/ezdsp5535_v1/c55xx_csl/ccs_v4.0_examples/i2
    1304                      .dwattr $C$DW$104, DW_AT_TI_begin_line(0x1ad)
    1305                      .dwattr $C$DW$104, DW_AT_TI_end_line(0x1b4)
    1306              $C$DW$105       .dwtag  DW_TAG_TI_loop_range
    1307                      .dwattr $C$DW$105, DW_AT_low_pc($C$DW$L$_CSL_i2c_dmaWrite_pollRead$32$B)
    1308                      .dwattr $C$DW$105, DW_AT_high_pc($C$DW$L$_CSL_i2c_dmaWrite_pollRead$32$E)
    1309              $C$DW$106       .dwtag  DW_TAG_TI_loop_range
    1310                      .dwattr $C$DW$106, DW_AT_low_pc($C$DW$L$_CSL_i2c_dmaWrite_pollRead$34$B)
    1311                      .dwattr $C$DW$106, DW_AT_high_pc($C$DW$L$_CSL_i2c_dmaWrite_pollRead$34$E)
    1312                      .dwendtag $C$DW$104
    1313              
    1314              
    1315              $C$DW$107       .dwtag  DW_TAG_TI_loop
    1316                      .dwattr $C$DW$107, DW_AT_name("F:\eZdsp_DBG\tmp1\c55x-sim2\foo\Debug\csl_i2c_dmaWordSwap_example.asm:
    1317                      .dwattr $C$DW$107, DW_AT_TI_begin_file("../c5535_bsl_revc/ezdsp5535_v1/c55xx_csl/ccs_v4.0_examples/i2
    1318                      .dwattr $C$DW$107, DW_AT_TI_begin_line(0x18d)
TMS320C55x Assembler PC v4.4.1 Sat Sep 29 23:09:37 2018

Tools Copyright (c) 1996-2012 Texas Instruments Incorporated
csl_i2c_dmaWordSwap_example.asm                                      PAGE   32

    1319                      .dwattr $C$DW$107, DW_AT_TI_end_line(0x18d)
    1320              $C$DW$108       .dwtag  DW_TAG_TI_loop_range
    1321                      .dwattr $C$DW$108, DW_AT_low_pc($C$DW$L$_CSL_i2c_dmaWrite_pollRead$26$B)
    1322                      .dwattr $C$DW$108, DW_AT_high_pc($C$DW$L$_CSL_i2c_dmaWrite_pollRead$26$E)
    1323                      .dwendtag $C$DW$107
    1324              
    1325              
    1326              $C$DW$109       .dwtag  DW_TAG_TI_loop
    1327                      .dwattr $C$DW$109, DW_AT_name("F:\eZdsp_DBG\tmp1\c55x-sim2\foo\Debug\csl_i2c_dmaWordSwap_example.asm:
    1328                      .dwattr $C$DW$109, DW_AT_TI_begin_file("../c5535_bsl_revc/ezdsp5535_v1/c55xx_csl/ccs_v4.0_examples/i2
    1329                      .dwattr $C$DW$109, DW_AT_TI_begin_line(0x18a)
    1330                      .dwattr $C$DW$109, DW_AT_TI_end_line(0x18a)
    1331              $C$DW$110       .dwtag  DW_TAG_TI_loop_range
    1332                      .dwattr $C$DW$110, DW_AT_low_pc($C$DW$L$_CSL_i2c_dmaWrite_pollRead$24$B)
    1333                      .dwattr $C$DW$110, DW_AT_high_pc($C$DW$L$_CSL_i2c_dmaWrite_pollRead$24$E)
    1334                      .dwendtag $C$DW$109
    1335              
    1336              
    1337              $C$DW$111       .dwtag  DW_TAG_TI_loop
    1338                      .dwattr $C$DW$111, DW_AT_name("F:\eZdsp_DBG\tmp1\c55x-sim2\foo\Debug\csl_i2c_dmaWordSwap_example.asm:
    1339                      .dwattr $C$DW$111, DW_AT_TI_begin_file("../c5535_bsl_revc/ezdsp5535_v1/c55xx_csl/ccs_v4.0_examples/i2
    1340                      .dwattr $C$DW$111, DW_AT_TI_begin_line(0x154)
    1341                      .dwattr $C$DW$111, DW_AT_TI_end_line(0x154)
    1342              $C$DW$112       .dwtag  DW_TAG_TI_loop_range
    1343                      .dwattr $C$DW$112, DW_AT_low_pc($C$DW$L$_CSL_i2c_dmaWrite_pollRead$16$B)
    1344                      .dwattr $C$DW$112, DW_AT_high_pc($C$DW$L$_CSL_i2c_dmaWrite_pollRead$16$E)
    1345                      .dwendtag $C$DW$111
    1346              
    1347              
    1348              $C$DW$113       .dwtag  DW_TAG_TI_loop
    1349                      .dwattr $C$DW$113, DW_AT_name("F:\eZdsp_DBG\tmp1\c55x-sim2\foo\Debug\csl_i2c_dmaWordSwap_example.asm:
    1350                      .dwattr $C$DW$113, DW_AT_TI_begin_file("../c5535_bsl_revc/ezdsp5535_v1/c55xx_csl/ccs_v4.0_examples/i2
    1351                      .dwattr $C$DW$113, DW_AT_TI_begin_line(0x14f)
    1352                      .dwattr $C$DW$113, DW_AT_TI_end_line(0x14f)
    1353              $C$DW$114       .dwtag  DW_TAG_TI_loop_range
    1354                      .dwattr $C$DW$114, DW_AT_low_pc($C$DW$L$_CSL_i2c_dmaWrite_pollRead$14$B)
    1355                      .dwattr $C$DW$114, DW_AT_high_pc($C$DW$L$_CSL_i2c_dmaWrite_pollRead$14$E)
    1356                      .dwendtag $C$DW$113
    1357              
    1358              
    1359              $C$DW$115       .dwtag  DW_TAG_TI_loop
    1360                      .dwattr $C$DW$115, DW_AT_name("F:\eZdsp_DBG\tmp1\c55x-sim2\foo\Debug\csl_i2c_dmaWordSwap_example.asm:
    1361                      .dwattr $C$DW$115, DW_AT_TI_begin_file("../c5535_bsl_revc/ezdsp5535_v1/c55xx_csl/ccs_v4.0_examples/i2
    1362                      .dwattr $C$DW$115, DW_AT_TI_begin_line(0x105)
    1363                      .dwattr $C$DW$115, DW_AT_TI_end_line(0x109)
    1364              $C$DW$116       .dwtag  DW_TAG_TI_loop_range
    1365                      .dwattr $C$DW$116, DW_AT_low_pc($C$DW$L$_CSL_i2c_dmaWrite_pollRead$2$B)
    1366                      .dwattr $C$DW$116, DW_AT_high_pc($C$DW$L$_CSL_i2c_dmaWrite_pollRead$2$E)
    1367                      .dwendtag $C$DW$115
    1368              
    1369                      .dwattr $C$DW$70, DW_AT_TI_end_file("../c5535_bsl_revc/ezdsp5535_v1/c55xx_csl/ccs_v4.0_examples/i2c/C
    1370                      .dwattr $C$DW$70, DW_AT_TI_end_line(0x1be)
    1371                      .dwattr $C$DW$70, DW_AT_TI_end_column(0x01)
    1372                      .dwendentry
    1373                      .dwendtag $C$DW$70
TMS320C55x Assembler PC v4.4.1 Sat Sep 29 23:09:37 2018

Tools Copyright (c) 1996-2012 Texas Instruments Incorporated
csl_i2c_dmaWordSwap_example.asm                                      PAGE   33

    1374              
    1375 000587               .sect   ".text"
    1376                      .align 4
    1377                      .global _CSL_i2c_pollWrite_dmaRead
    1378              
    1379              $C$DW$117       .dwtag  DW_TAG_subprogram, DW_AT_name("CSL_i2c_pollWrite_dmaRead")
    1380                      .dwattr $C$DW$117, DW_AT_low_pc(_CSL_i2c_pollWrite_dmaRead)
    1381                      .dwattr $C$DW$117, DW_AT_high_pc(0x00)
    1382                      .dwattr $C$DW$117, DW_AT_TI_symbol_name("_CSL_i2c_pollWrite_dmaRead")
    1383                      .dwattr $C$DW$117, DW_AT_external
    1384                      .dwattr $C$DW$117, DW_AT_type(*$C$DW$T$86)
    1385                      .dwattr $C$DW$117, DW_AT_TI_begin_file("../c5535_bsl_revc/ezdsp5535_v1/c55xx_csl/ccs_v4.0_examples/i2
    1386                      .dwattr $C$DW$117, DW_AT_TI_begin_line(0x1c7)
    1387                      .dwattr $C$DW$117, DW_AT_TI_begin_column(0x0d)
    1388                      .dwattr $C$DW$117, DW_AT_TI_max_frame_size(0x08)
    1389                      .dwpsn  file "../c5535_bsl_revc/ezdsp5535_v1/c55xx_csl/ccs_v4.0_examples/i2c/CSL_I2C_DmaWordSwapExapm
    1390              
    1391                      .dwfde $C$DW$CIE, _CSL_i2c_pollWrite_dmaRead
    1392              ;*******************************************************************************
    1393              ;* FUNCTION NAME: CSL_i2c_pollWrite_dmaRead                                    *
    1394              ;*                                                                             *
    1395              ;*   Function Uses Regs : AC0,AC0,AC1,AC1,T0,T1,AR0,XAR0,AR1,AR2,AR3,XAR3,SP,  *
    1396              ;*                        CARRY,TC1,M40,SATA,SATD,RDM,FRCT,SMUL                *
    1397              ;*   Stack Frame        : Compact (No Frame Pointer, w/ debug)                 *
    1398              ;*   Total Frame Size   : 8 words                                              *
    1399              ;*                        (2 return address/alignment)                         *
    1400              ;*                        (2 function parameters)                              *
    1401              ;*                        (4 local values)                                     *
    1402              ;*   Min System Stack   : 1 word                                               *
    1403              ;*******************************************************************************
    1404 000588       _CSL_i2c_pollWrite_dmaRead:
    1405                      .dwcfi  cfa_offset, 1
    1406                      .dwcfi  save_reg_to_mem, 91, -1
    1407 000588 4EF9          AADD #-7, SP
    1408                      .dwcfi  cfa_offset, 8
    1409              $C$DW$118       .dwtag  DW_TAG_variable, DW_AT_name("status")
    1410                      .dwattr $C$DW$118, DW_AT_TI_symbol_name("_status")
    1411                      .dwattr $C$DW$118, DW_AT_type(*$C$DW$T$86)
    1412                      .dwattr $C$DW$118, DW_AT_location[DW_OP_bregx 0x24 2]
    1413              $C$DW$119       .dwtag  DW_TAG_variable, DW_AT_name("result")
    1414                      .dwattr $C$DW$119, DW_AT_TI_symbol_name("_result")
    1415                      .dwattr $C$DW$119, DW_AT_type(*$C$DW$T$86)
    1416                      .dwattr $C$DW$119, DW_AT_location[DW_OP_bregx 0x24 3]
    1417              $C$DW$120       .dwtag  DW_TAG_variable, DW_AT_name("startStop")
    1418                      .dwattr $C$DW$120, DW_AT_TI_symbol_name("_startStop")
    1419                      .dwattr $C$DW$120, DW_AT_type(*$C$DW$T$19)
    1420                      .dwattr $C$DW$120, DW_AT_location[DW_OP_bregx 0x24 4]
    1421              $C$DW$121       .dwtag  DW_TAG_variable, DW_AT_name("looper")
    1422                      .dwattr $C$DW$121, DW_AT_TI_symbol_name("_looper")
    1423                      .dwattr $C$DW$121, DW_AT_type(*$C$DW$T$20)
    1424                      .dwattr $C$DW$121, DW_AT_location[DW_OP_bregx 0x24 5]
    1425                      .dwpsn  file "../c5535_bsl_revc/ezdsp5535_v1/c55xx_csl/ccs_v4.0_examples/i2c/CSL_I2C_DmaWordSwapExapm
    1426 00058a E606          MOV #1, *SP(#3) ; |463| 
         00058c 01   
    1427                      .dwpsn  file "../c5535_bsl_revc/ezdsp5535_v1/c55xx_csl/ccs_v4.0_examples/i2c/CSL_I2C_DmaWordSwapExapm
TMS320C55x Assembler PC v4.4.1 Sat Sep 29 23:09:37 2018

Tools Copyright (c) 1996-2012 Texas Instruments Incorporated
csl_i2c_dmaWordSwap_example.asm                                      PAGE   34

    1428 00058d E631          MOV #0, *(#_gI2cPollWrBuf) ; |466| 
         00058f 0000 
         000591 0108-
    1429                      .dwpsn  file "../c5535_bsl_revc/ezdsp5535_v1/c55xx_csl/ccs_v4.0_examples/i2c/CSL_I2C_DmaWordSwapExapm
    1430 000593 E631          MOV #0, *(#(_gI2cPollWrBuf+1)) ; |467| 
         000595 0000 
         000597 0109-
    1431                      .dwpsn  file "../c5535_bsl_revc/ezdsp5535_v1/c55xx_csl/ccs_v4.0_examples/i2c/CSL_I2C_DmaWordSwapExapm
    1432 000599 E60A          MOV #0, *SP(#5) ; |469| 
         00059b 00   
    1433 00059c 20            NOP
    1434 00059d 20            NOP
    1435                      .dwpsn  file "../c5535_bsl_revc/ezdsp5535_v1/c55xx_csl/ccs_v4.0_examples/i2c/CSL_I2C_DmaWordSwapExapm
    1436 00059e 7600          MOV #64, AR2 ; |469| 
         0005a0 40A8 
    1437 0005a2 A90A          MOV *SP(#5), AR1 ; |469| 
    1438 0005a4 1298          CMPU AR1 >= AR2, TC1 ; |469| 
         0005a6 A4   
    1439 0005a7 0464          BCC $C$L39,TC1 ; |469| 
         0005a9 2C   
    1440                                                      ; branchcc occurs ; |469| 
    1441 0005aa       $C$L38:    
    1442 0005aa       $C$DW$L$_CSL_i2c_pollWrite_dmaRead$2$B:
    1443                      .dwpsn  file "../c5535_bsl_revc/ezdsp5535_v1/c55xx_csl/ccs_v4.0_examples/i2c/CSL_I2C_DmaWordSwapExapm
    1444 0005aa A40A          MOV *SP(#5), T0 ; |471| 
    1445 0005ac 4024          ADD #2, T0 ; |471| 
    1446 0005ae EC31          AMOV #_gI2cPollWrBuf, XAR3 ; |471| 
         0005b0 BE00 
         0005b2 0108-
    1447 0005b4 A90A          MOV *SP(#5), AR1 ; |471| 
    1448 0005b6 C96B          MOV AR1, *AR3(T0) ; |471| 
    1449                      .dwpsn  file "../c5535_bsl_revc/ezdsp5535_v1/c55xx_csl/ccs_v4.0_examples/i2c/CSL_I2C_DmaWordSwapExapm
    1450 0005b8 A40A          MOV *SP(#5), T0 ; |472| 
    1451 0005ba 5040          SFTL T0, #1 ; |472| 
    1452 0005bc 3C00          MOV #0, AC0 ; |472| 
    1453 0005be EC31          AMOV #_gI2cDmaRdBuf, XAR3 ; |472| 
         0005c0 BE00 
         0005c2 0088-
    1454 0005c4 EB6B          MOV AC0, dbl(*AR3(T0)) ; |472| 
         0005c6 08   
    1455                      .dwpsn  file "../c5535_bsl_revc/ezdsp5535_v1/c55xx_csl/ccs_v4.0_examples/i2c/CSL_I2C_DmaWordSwapExapm
    1456 0005c7 F70A          ADD #1, *SP(#5) ; |469| 
         0005c9 0001 
    1457 0005cb 20            NOP
    1458 0005cc 20            NOP
    1459 0005cd 20            NOP
    1460                      .dwpsn  file "../c5535_bsl_revc/ezdsp5535_v1/c55xx_csl/ccs_v4.0_examples/i2c/CSL_I2C_DmaWordSwapExapm
    1461 0005ce A90A          MOV *SP(#5), AR1 ; |469| 
    1462 0005d0 1294          CMPU AR1 < AR2, TC1 ; |469| 
         0005d2 A4   
    1463 0005d3 0464          BCC $C$L38,TC1 ; |469| 
         0005d5 D4   
    1464                                                      ; branchcc occurs ; |469| 
    1465 0005d6       $C$DW$L$_CSL_i2c_pollWrite_dmaRead$2$E:
    1466 0005d6       $C$L39:    
TMS320C55x Assembler PC v4.4.1 Sat Sep 29 23:09:37 2018

Tools Copyright (c) 1996-2012 Texas Instruments Incorporated
csl_i2c_dmaWordSwap_example.asm                                      PAGE   35

    1467                      .dwpsn  file "../c5535_bsl_revc/ezdsp5535_v1/c55xx_csl/ccs_v4.0_examples/i2c/CSL_I2C_DmaWordSwapExapm
    1468              $C$DW$122       .dwtag  DW_TAG_TI_branch
    1469                      .dwattr $C$DW$122, DW_AT_low_pc(0x00)
    1470                      .dwattr $C$DW$122, DW_AT_name("_I2C_init")
    1471                      .dwattr $C$DW$122, DW_AT_TI_call
    1472              
    1473 0005d6 6C00          CALL #_I2C_init ; |476| 
         0005d8 0000!
    1474 0005da 3D04  ||      MOV #0, T0
    1475              
    1476                                                      ; call occurs [#_I2C_init] ; |476| 
    1477 0005dc C404          MOV T0, *SP(#2) ; |476| 
    1478                      .dwpsn  file "../c5535_bsl_revc/ezdsp5535_v1/c55xx_csl/ccs_v4.0_examples/i2c/CSL_I2C_DmaWordSwapExapm
    1479 0005de 2249          MOV T0, AR1
    1480 0005e0 0409          BCC $C$L40,AR1 == #0 ; |477| 
         0005e2 12   
    1481                                                      ; branchcc occurs ; |477| 
    1482                      .dwpsn  file "../c5535_bsl_revc/ezdsp5535_v1/c55xx_csl/ccs_v4.0_examples/i2c/CSL_I2C_DmaWordSwapExapm
    1483 0005e3 EC31          AMOV #$C$FSL9, XAR3 ; |479| 
         0005e5 BE00 
         0005e7 0146+
    1484 0005e9 EB00          MOV XAR3, dbl(*SP(#0))
         0005eb B5   
    1485              $C$DW$123       .dwtag  DW_TAG_TI_branch
    1486                      .dwattr $C$DW$123, DW_AT_low_pc(0x00)
    1487                      .dwattr $C$DW$123, DW_AT_name("_printf")
    1488                      .dwattr $C$DW$123, DW_AT_TI_call
    1489 0005ec 6C00          CALL #_printf ; |479| 
         0005ee 0000!
    1490                                                      ; call occurs [#_printf] ; |479| 
    1491                      .dwpsn  file "../c5535_bsl_revc/ezdsp5535_v1/c55xx_csl/ccs_v4.0_examples/i2c/CSL_I2C_DmaWordSwapExapm
    1492 0005f0 A406          MOV *SP(#3), T0 ; |480| 
    1493 0005f2 0602          B $C$L58  ; |480| 
         0005f4 CC   
    1494                                                      ; branch occurs ; |480| 
    1495 0005f5       $C$L40:    
    1496                      .dwpsn  file "../c5535_bsl_revc/ezdsp5535_v1/c55xx_csl/ccs_v4.0_examples/i2c/CSL_I2C_DmaWordSwapExapm
    1497              $C$DW$124       .dwtag  DW_TAG_TI_branch
    1498                      .dwattr $C$DW$124, DW_AT_low_pc(0x00)
    1499                      .dwattr $C$DW$124, DW_AT_name("_DMA_init")
    1500                      .dwattr $C$DW$124, DW_AT_TI_call
    1501 0005f5 6C00          CALL #_DMA_init ; |484| 
         0005f7 0000!
    1502                                                      ; call occurs [#_DMA_init] ; |484| 
    1503 0005f9 C404          MOV T0, *SP(#2) ; |484| 
    1504                      .dwpsn  file "../c5535_bsl_revc/ezdsp5535_v1/c55xx_csl/ccs_v4.0_examples/i2c/CSL_I2C_DmaWordSwapExapm
    1505 0005fb 2249          MOV T0, AR1
    1506 0005fd 0409          BCC $C$L41,AR1 == #0 ; |485| 
         0005ff 12   
    1507                                                      ; branchcc occurs ; |485| 
    1508                      .dwpsn  file "../c5535_bsl_revc/ezdsp5535_v1/c55xx_csl/ccs_v4.0_examples/i2c/CSL_I2C_DmaWordSwapExapm
    1509 000600 EC31          AMOV #$C$FSL10, XAR3 ; |487| 
         000602 BE00 
         000604 015A+
    1510 000606 EB00          MOV XAR3, dbl(*SP(#0))
TMS320C55x Assembler PC v4.4.1 Sat Sep 29 23:09:37 2018

Tools Copyright (c) 1996-2012 Texas Instruments Incorporated
csl_i2c_dmaWordSwap_example.asm                                      PAGE   36

         000608 B5   
    1511              $C$DW$125       .dwtag  DW_TAG_TI_branch
    1512                      .dwattr $C$DW$125, DW_AT_low_pc(0x00)
    1513                      .dwattr $C$DW$125, DW_AT_name("_printf")
    1514                      .dwattr $C$DW$125, DW_AT_TI_call
    1515 000609 6C00          CALL #_printf ; |487| 
         00060b 0000!
    1516                                                      ; call occurs [#_printf] ; |487| 
    1517                      .dwpsn  file "../c5535_bsl_revc/ezdsp5535_v1/c55xx_csl/ccs_v4.0_examples/i2c/CSL_I2C_DmaWordSwapExapm
    1518 00060d A404          MOV *SP(#2), T0 ; |488| 
    1519 00060f 0602          B $C$L58  ; |488| 
         000611 AF   
    1520                                                      ; branch occurs ; |488| 
    1521 000612       $C$L41:    
    1522                      .dwpsn  file "../c5535_bsl_revc/ezdsp5535_v1/c55xx_csl/ccs_v4.0_examples/i2c/CSL_I2C_DmaWordSwapExapm
    1523 000612 E631          MOV #0, *(#_dmaConfig) ; |493| 
         000614 0000 
         000616 019E-
    1524                      .dwpsn  file "../c5535_bsl_revc/ezdsp5535_v1/c55xx_csl/ccs_v4.0_examples/i2c/CSL_I2C_DmaWordSwapExapm
    1525 000618 E631          MOV #0, *(#(_dmaConfig+1)) ; |495| 
         00061a 0000 
         00061c 019F-
    1526                      .dwpsn  file "../c5535_bsl_revc/ezdsp5535_v1/c55xx_csl/ccs_v4.0_examples/i2c/CSL_I2C_DmaWordSwapExapm
    1527 00061e E631          MOV #0, *(#(_dmaConfig+2)) ; |496| 
         000620 0000 
         000622 01A0-
    1528                      .dwpsn  file "../c5535_bsl_revc/ezdsp5535_v1/c55xx_csl/ccs_v4.0_examples/i2c/CSL_I2C_DmaWordSwapExapm
    1529 000624 E631          MOV #1, *(#(_dmaConfig+3)) ; |497| 
         000626 0100 
         000628 01A1-
    1530                      .dwpsn  file "../c5535_bsl_revc/ezdsp5535_v1/c55xx_csl/ccs_v4.0_examples/i2c/CSL_I2C_DmaWordSwapExapm
    1531 00062a E631          MOV #2, *(#(_dmaConfig+4)) ; |498| 
         00062c 0200 
         00062e 01A2-
    1532                      .dwpsn  file "../c5535_bsl_revc/ezdsp5535_v1/c55xx_csl/ccs_v4.0_examples/i2c/CSL_I2C_DmaWordSwapExapm
    1533 000630 E631          MOV #0, *(#(_dmaConfig+5)) ; |499| 
         000632 0000 
         000634 01A3-
    1534                      .dwpsn  file "../c5535_bsl_revc/ezdsp5535_v1/c55xx_csl/ccs_v4.0_examples/i2c/CSL_I2C_DmaWordSwapExapm
    1535 000636 E631          MOV #0, *(#(_dmaConfig+6)) ; |500| 
         000638 0000 
         00063a 01A4-
    1536                      .dwpsn  file "../c5535_bsl_revc/ezdsp5535_v1/c55xx_csl/ccs_v4.0_examples/i2c/CSL_I2C_DmaWordSwapExapm
    1537 00063c E631          MOV #0, *(#(_dmaConfig+7)) ; |501| 
         00063e 0000 
         000640 01A5-
    1538                      .dwpsn  file "../c5535_bsl_revc/ezdsp5535_v1/c55xx_csl/ccs_v4.0_examples/i2c/CSL_I2C_DmaWordSwapExapm
    1539 000642 FB31          MOV #256, *(#(_dmaConfig+8)) ; |502| 
         000644 0100 
         000646 0001 
         000648 A6-  
    1540                      .dwpsn  file "../c5535_bsl_revc/ezdsp5535_v1/c55xx_csl/ccs_v4.0_examples/i2c/CSL_I2C_DmaWordSwapExapm
    1541 000649 ED31          MOV dbl(*(#_i2cHandle)), XAR3
         00064b BF00 
         00064d 0000!
TMS320C55x Assembler PC v4.4.1 Sat Sep 29 23:09:37 2018

Tools Copyright (c) 1996-2012 Texas Instruments Incorporated
csl_i2c_dmaWordSwap_example.asm                                      PAGE   37

    1542 00064f DF61          MOV uns(*AR3), AC0 ; |503| 
         000651 05   
    1543 000652 900B          MOV AC0, XAR3
    1544 000654 1418          AADD #24, AR3 ; |503| 
         000656 B4   
    1545 000657 90B0          MOV XAR3, AC0
    1546 000659 EB31          MOV AC0, dbl(*(#(_dmaConfig+10))) ; |503| 
         00065b 0800 
         00065d 01A8-
    1547                      .dwpsn  file "../c5535_bsl_revc/ezdsp5535_v1/c55xx_csl/ccs_v4.0_examples/i2c/CSL_I2C_DmaWordSwapExapm
    1548 00065f 7A00          MOV #(_gI2cDmaRdBuf >> 16) << #16, AC0 ; |504| 
         000661 000A%
    1549 000663 7E00          OR #(_gI2cDmaRdBuf & 0xffff), AC0, AC0 ; |504| 
         000665 0000%
    1550 000667 EB31          MOV AC0, dbl(*(#(_dmaConfig+12))) ; |504| 
         000669 0800 
         00066b 01AA-
    1551                      .dwpsn  file "../c5535_bsl_revc/ezdsp5535_v1/c55xx_csl/ccs_v4.0_examples/i2c/CSL_I2C_DmaWordSwapExapm
    1552 00066d EC31          AMOV #_dmaRdChanObj, XAR0 ; |506| 
         00066f 8E00 
         000671 01B5-
    1553              $C$DW$126       .dwtag  DW_TAG_TI_branch
    1554                      .dwattr $C$DW$126, DW_AT_low_pc(0x00)
    1555                      .dwattr $C$DW$126, DW_AT_name("_CSL_configDmaForI2c")
    1556                      .dwattr $C$DW$126, DW_AT_TI_call
    1557              
    1558 000673 0802          CALL #_CSL_configDmaForI2c ; |506| 
         000675 50   
    1559 000676 3D94  ||      MOV #9, T0
    1560              
    1561                                                      ; call occurs [#_CSL_configDmaForI2c] ; |506| 
    1562 000678 EB31          MOV XAR0, dbl(*(#_dmaRdHandle))
         00067a 8500 
         00067c 0086-
    1563                      .dwpsn  file "../c5535_bsl_revc/ezdsp5535_v1/c55xx_csl/ccs_v4.0_examples/i2c/CSL_I2C_DmaWordSwapExapm
    1564 00067e ED31          MOV dbl(*(#_dmaRdHandle)), XAR3
         000680 BF00 
         000682 0086-
    1565 000684 90B0          MOV XAR3, AC0
    1566 000686 0410          BCC $C$L42,AC0 != #0 ; |507| 
         000688 12   
    1567                                                      ; branchcc occurs ; |507| 
    1568                      .dwpsn  file "../c5535_bsl_revc/ezdsp5535_v1/c55xx_csl/ccs_v4.0_examples/i2c/CSL_I2C_DmaWordSwapExapm
    1569 000689 EC31          AMOV #$C$FSL19, XAR3 ; |509| 
         00068b BE00 
         00068d 0248+
    1570 00068f EB00          MOV XAR3, dbl(*SP(#0))
         000691 B5   
    1571              $C$DW$127       .dwtag  DW_TAG_TI_branch
    1572                      .dwattr $C$DW$127, DW_AT_low_pc(0x00)
    1573                      .dwattr $C$DW$127, DW_AT_name("_printf")
    1574                      .dwattr $C$DW$127, DW_AT_TI_call
    1575 000692 6C00          CALL #_printf ; |509| 
         000694 0000!
    1576                                                      ; call occurs [#_printf] ; |509| 
TMS320C55x Assembler PC v4.4.1 Sat Sep 29 23:09:37 2018

Tools Copyright (c) 1996-2012 Texas Instruments Incorporated
csl_i2c_dmaWordSwap_example.asm                                      PAGE   38

    1577                      .dwpsn  file "../c5535_bsl_revc/ezdsp5535_v1/c55xx_csl/ccs_v4.0_examples/i2c/CSL_I2C_DmaWordSwapExapm
    1578 000696 3C14          MOV #1, T0
    1579 000698 0602          B $C$L58  ; |510| 
         00069a 26   
    1580                                                      ; branch occurs ; |510| 
    1581 00069b       $C$L42:    
    1582                      .dwpsn  file "../c5535_bsl_revc/ezdsp5535_v1/c55xx_csl/ccs_v4.0_examples/i2c/CSL_I2C_DmaWordSwapExapm
    1583 00069b E631          MOV #0, *(#_i2cSetup) ; |514| 
         00069d 0000 
         00069f 018A-
    1584                      .dwpsn  file "../c5535_bsl_revc/ezdsp5535_v1/c55xx_csl/ccs_v4.0_examples/i2c/CSL_I2C_DmaWordSwapExapm
    1585 0006a1 E631          MOV #0, *(#(_i2cSetup+1)) ; |515| 
         0006a3 0000 
         0006a5 018B-
    1586                      .dwpsn  file "../c5535_bsl_revc/ezdsp5535_v1/c55xx_csl/ccs_v4.0_examples/i2c/CSL_I2C_DmaWordSwapExapm
    1587 0006a7 E631          MOV #0, *(#(_i2cSetup+2)) ; |516| 
         0006a9 0000 
         0006ab 018C-
    1588                      .dwpsn  file "../c5535_bsl_revc/ezdsp5535_v1/c55xx_csl/ccs_v4.0_examples/i2c/CSL_I2C_DmaWordSwapExapm
    1589 0006ad E631          MOV #0, *(#(_i2cSetup+3)) ; |517| 
         0006af 0000 
         0006b1 018D-
    1590                      .dwpsn  file "../c5535_bsl_revc/ezdsp5535_v1/c55xx_csl/ccs_v4.0_examples/i2c/CSL_I2C_DmaWordSwapExapm
    1591 0006b3 E631          MOV #0, *(#(_i2cSetup+4)) ; |518| 
         0006b5 0000 
         0006b7 018E-
    1592                      .dwpsn  file "../c5535_bsl_revc/ezdsp5535_v1/c55xx_csl/ccs_v4.0_examples/i2c/CSL_I2C_DmaWordSwapExapm
    1593 0006b9 E631          MOV #47, *(#(_i2cSetup+5)) ; |519| 
         0006bb 2F00 
         0006bd 018F-
    1594                      .dwpsn  file "../c5535_bsl_revc/ezdsp5535_v1/c55xx_csl/ccs_v4.0_examples/i2c/CSL_I2C_DmaWordSwapExapm
    1595 0006bf 7600          MOV #100, AC0 ; |520| 
         0006c1 6408 
    1596 0006c3 EB31          MOV AC0, dbl(*(#(_i2cSetup+6))) ; |520| 
         0006c5 0800 
         0006c7 0190-
    1597                      .dwpsn  file "../c5535_bsl_revc/ezdsp5535_v1/c55xx_csl/ccs_v4.0_examples/i2c/CSL_I2C_DmaWordSwapExapm
    1598 0006c9 3CA0          MOV #10, AC0 ; |521| 
    1599 0006cb EB31          MOV AC0, dbl(*(#(_i2cSetup+8))) ; |521| 
         0006cd 0800 
         0006cf 0192-
    1600                      .dwpsn  file "../c5535_bsl_revc/ezdsp5535_v1/c55xx_csl/ccs_v4.0_examples/i2c/CSL_I2C_DmaWordSwapExapm
    1601 0006d1 FB08          MOV #768, *SP(#4) ; |522| 
         0006d3 0300 
    1602                      .dwpsn  file "../c5535_bsl_revc/ezdsp5535_v1/c55xx_csl/ccs_v4.0_examples/i2c/CSL_I2C_DmaWordSwapExapm
    1603 0006d5 EC31          AMOV #_i2cSetup, XAR0 ; |524| 
         0006d7 8E00 
         0006d9 018A-
    1604              $C$DW$128       .dwtag  DW_TAG_TI_branch
    1605                      .dwattr $C$DW$128, DW_AT_low_pc(0x00)
    1606                      .dwattr $C$DW$128, DW_AT_name("_I2C_setup")
    1607                      .dwattr $C$DW$128, DW_AT_TI_call
    1608 0006db 6C00          CALL #_I2C_setup ; |524| 
         0006dd 0000!
    1609                                                      ; call occurs [#_I2C_setup] ; |524| 
TMS320C55x Assembler PC v4.4.1 Sat Sep 29 23:09:37 2018

Tools Copyright (c) 1996-2012 Texas Instruments Incorporated
csl_i2c_dmaWordSwap_example.asm                                      PAGE   39

    1610 0006df C404          MOV T0, *SP(#2) ; |524| 
    1611                      .dwpsn  file "../c5535_bsl_revc/ezdsp5535_v1/c55xx_csl/ccs_v4.0_examples/i2c/CSL_I2C_DmaWordSwapExapm
    1612 0006e1 2249          MOV T0, AR1
    1613 0006e3 0409          BCC $C$L43,AR1 == #0 ; |525| 
         0006e5 12   
    1614                                                      ; branchcc occurs ; |525| 
    1615                      .dwpsn  file "../c5535_bsl_revc/ezdsp5535_v1/c55xx_csl/ccs_v4.0_examples/i2c/CSL_I2C_DmaWordSwapExapm
    1616 0006e6 EC31          AMOV #$C$FSL20, XAR3 ; |527| 
         0006e8 BE00 
         0006ea 026A+
    1617 0006ec EB00          MOV XAR3, dbl(*SP(#0))
         0006ee B5   
    1618              $C$DW$129       .dwtag  DW_TAG_TI_branch
    1619                      .dwattr $C$DW$129, DW_AT_low_pc(0x00)
    1620                      .dwattr $C$DW$129, DW_AT_name("_printf")
    1621                      .dwattr $C$DW$129, DW_AT_TI_call
    1622 0006ef 6C00          CALL #_printf ; |527| 
         0006f1 0000!
    1623                                                      ; call occurs [#_printf] ; |527| 
    1624                      .dwpsn  file "../c5535_bsl_revc/ezdsp5535_v1/c55xx_csl/ccs_v4.0_examples/i2c/CSL_I2C_DmaWordSwapExapm
    1625 0006f3 A406          MOV *SP(#3), T0 ; |528| 
    1626 0006f5 0601          B $C$L58  ; |528| 
         0006f7 C9   
    1627                                                      ; branch occurs ; |528| 
    1628 0006f8       $C$L43:    
    1629                      .dwpsn  file "../c5535_bsl_revc/ezdsp5535_v1/c55xx_csl/ccs_v4.0_examples/i2c/CSL_I2C_DmaWordSwapExapm
    1630 0006f8 AA08          MOV *SP(#4), AR2 ; |532| 
    1631 0006fa EC31          AMOV #_gI2cPollWrBuf, XAR0 ; |532| 
         0006fc 8E00 
         0006fe 0108-
    1632 000700 76FF          MOV #65535, AR3 ; |532| 
         000702 FFB8 
    1633 000704 7600          MOV #80, T1 ; |532| 
         000706 5058 
    1634 000708 7600          MOV #66, T0 ; |532| 
         00070a 4248 
    1635              $C$DW$130       .dwtag  DW_TAG_TI_branch
    1636                      .dwattr $C$DW$130, DW_AT_low_pc(0x00)
    1637                      .dwattr $C$DW$130, DW_AT_name("_I2C_write")
    1638                      .dwattr $C$DW$130, DW_AT_TI_call
    1639              
    1640 00070c 6C00          CALL #_I2C_write ; |532| 
         00070e 0000!
    1641 000710 3D19  ||      MOV #1, AR1
    1642              
    1643                                                      ; call occurs [#_I2C_write] ; |532| 
    1644 000712 C404          MOV T0, *SP(#2) ; |532| 
    1645                      .dwpsn  file "../c5535_bsl_revc/ezdsp5535_v1/c55xx_csl/ccs_v4.0_examples/i2c/CSL_I2C_DmaWordSwapExapm
    1646 000714 2249          MOV T0, AR1
    1647 000716 0409          BCC $C$L44,AR1 == #0 ; |535| 
         000718 12   
    1648                                                      ; branchcc occurs ; |535| 
    1649                      .dwpsn  file "../c5535_bsl_revc/ezdsp5535_v1/c55xx_csl/ccs_v4.0_examples/i2c/CSL_I2C_DmaWordSwapExapm
    1650 000719 EC31          AMOV #$C$FSL21, XAR3 ; |537| 
         00071b BE00 
TMS320C55x Assembler PC v4.4.1 Sat Sep 29 23:09:37 2018

Tools Copyright (c) 1996-2012 Texas Instruments Incorporated
csl_i2c_dmaWordSwap_example.asm                                      PAGE   40

         00071d 027E+
    1651 00071f EB00          MOV XAR3, dbl(*SP(#0))
         000721 B5   
    1652              $C$DW$131       .dwtag  DW_TAG_TI_branch
    1653                      .dwattr $C$DW$131, DW_AT_low_pc(0x00)
    1654                      .dwattr $C$DW$131, DW_AT_name("_printf")
    1655                      .dwattr $C$DW$131, DW_AT_TI_call
    1656 000722 6C00          CALL #_printf ; |537| 
         000724 0000!
    1657                                                      ; call occurs [#_printf] ; |537| 
    1658                      .dwpsn  file "../c5535_bsl_revc/ezdsp5535_v1/c55xx_csl/ccs_v4.0_examples/i2c/CSL_I2C_DmaWordSwapExapm
    1659 000726 A406          MOV *SP(#3), T0 ; |538| 
    1660 000728 0601          B $C$L58  ; |538| 
         00072a 96   
    1661                                                      ; branch occurs ; |538| 
    1662 00072b       $C$L44:    
    1663                      .dwpsn  file "../c5535_bsl_revc/ezdsp5535_v1/c55xx_csl/ccs_v4.0_examples/i2c/CSL_I2C_DmaWordSwapExapm
    1664 00072b EC31          AMOV #$C$FSL22, XAR3 ; |541| 
         00072d BE00 
         00072f 0292+
    1665 000731 EB00          MOV XAR3, dbl(*SP(#0))
         000733 B5   
    1666              $C$DW$132       .dwtag  DW_TAG_TI_branch
    1667                      .dwattr $C$DW$132, DW_AT_low_pc(0x00)
    1668                      .dwattr $C$DW$132, DW_AT_name("_printf")
    1669                      .dwattr $C$DW$132, DW_AT_TI_call
    1670 000734 6C00          CALL #_printf ; |541| 
         000736 0000!
    1671                                                      ; call occurs [#_printf] ; |541| 
    1672                      .dwpsn  file "../c5535_bsl_revc/ezdsp5535_v1/c55xx_csl/ccs_v4.0_examples/i2c/CSL_I2C_DmaWordSwapExapm
    1673 000738 E60A          MOV #0, *SP(#5) ; |544| 
         00073a 00   
    1674 00073b 20            NOP
    1675 00073c 20            NOP
    1676                      .dwpsn  file "../c5535_bsl_revc/ezdsp5535_v1/c55xx_csl/ccs_v4.0_examples/i2c/CSL_I2C_DmaWordSwapExapm
    1677 00073d 76FF          MOV #65535, AR2 ; |544| 
         00073f FFA8 
    1678 000741 A90A          MOV *SP(#5), AR1 ; |544| 
    1679 000743 1298          CMPU AR1 >= AR2, TC1 ; |544| 
         000745 A4   
    1680 000746 67E4          BCC $C$L46,TC1 ; |544| 
    1681                                                      ; branchcc occurs ; |544| 
    1682 000748       $C$L45:    
    1683 000748       $C$DW$L$_CSL_i2c_pollWrite_dmaRead$14$B:
    1684                      .dwpsn  file "../c5535_bsl_revc/ezdsp5535_v1/c55xx_csl/ccs_v4.0_examples/i2c/CSL_I2C_DmaWordSwapExapm
    1685 000748 F70A          ADD #1, *SP(#5) ; |544| 
         00074a 0001 
    1686 00074c 20            NOP
    1687 00074d 20            NOP
    1688 00074e 20            NOP
    1689                      .dwpsn  file "../c5535_bsl_revc/ezdsp5535_v1/c55xx_csl/ccs_v4.0_examples/i2c/CSL_I2C_DmaWordSwapExapm
    1690 00074f A90A          MOV *SP(#5), AR1 ; |544| 
    1691 000751 1294          CMPU AR1 < AR2, TC1 ; |544| 
         000753 A4   
    1692 000754 0464          BCC $C$L45,TC1 ; |544| 
TMS320C55x Assembler PC v4.4.1 Sat Sep 29 23:09:37 2018

Tools Copyright (c) 1996-2012 Texas Instruments Incorporated
csl_i2c_dmaWordSwap_example.asm                                      PAGE   41

         000756 F1   
    1693                                                      ; branchcc occurs ; |544| 
    1694 000757       $C$DW$L$_CSL_i2c_pollWrite_dmaRead$14$E:
    1695 000757       $C$L46:    
    1696                      .dwpsn  file "../c5535_bsl_revc/ezdsp5535_v1/c55xx_csl/ccs_v4.0_examples/i2c/CSL_I2C_DmaWordSwapExapm
    1697 000757 AA08          MOV *SP(#4), AR2 ; |547| 
    1698 000759 EC31          AMOV #_gI2cPollWrBuf, XAR0 ; |547| 
         00075b 8E00 
         00075d 0108-
    1699 00075f 7600          MOV #80, T1 ; |547| 
         000761 5058 
    1700              
    1701 000767 3D24          MOV #2, T0
    1702 000763 76FF  ||      MOV #65535, AR3 ; |547| 
         000765 FFB8 
    1703              
    1704              $C$DW$133       .dwtag  DW_TAG_TI_branch
    1705                      .dwattr $C$DW$133, DW_AT_low_pc(0x00)
    1706                      .dwattr $C$DW$133, DW_AT_name("_I2C_write")
    1707                      .dwattr $C$DW$133, DW_AT_TI_call
    1708              
    1709 000769 6C00          CALL #_I2C_write ; |547| 
         00076b 0000!
    1710 00076d 3D19  ||      MOV #1, AR1
    1711              
    1712                                                      ; call occurs [#_I2C_write] ; |547| 
    1713 00076f C404          MOV T0, *SP(#2) ; |547| 
    1714                      .dwpsn  file "../c5535_bsl_revc/ezdsp5535_v1/c55xx_csl/ccs_v4.0_examples/i2c/CSL_I2C_DmaWordSwapExapm
    1715 000771 2249          MOV T0, AR1
    1716 000773 0409          BCC $C$L47,AR1 == #0 ; |549| 
         000775 12   
    1717                                                      ; branchcc occurs ; |549| 
    1718                      .dwpsn  file "../c5535_bsl_revc/ezdsp5535_v1/c55xx_csl/ccs_v4.0_examples/i2c/CSL_I2C_DmaWordSwapExapm
    1719 000776 EC31          AMOV #$C$FSL21, XAR3 ; |551| 
         000778 BE00 
         00077a 027E+
    1720 00077c EB00          MOV XAR3, dbl(*SP(#0))
         00077e B5   
    1721              $C$DW$134       .dwtag  DW_TAG_TI_branch
    1722                      .dwattr $C$DW$134, DW_AT_low_pc(0x00)
    1723                      .dwattr $C$DW$134, DW_AT_name("_printf")
    1724                      .dwattr $C$DW$134, DW_AT_TI_call
    1725 00077f 6C00          CALL #_printf ; |551| 
         000781 0000!
    1726                                                      ; call occurs [#_printf] ; |551| 
    1727                      .dwpsn  file "../c5535_bsl_revc/ezdsp5535_v1/c55xx_csl/ccs_v4.0_examples/i2c/CSL_I2C_DmaWordSwapExapm
    1728 000783 A406          MOV *SP(#3), T0 ; |552| 
    1729 000785 0601          B $C$L58  ; |552| 
         000787 39   
    1730                                                      ; branch occurs ; |552| 
    1731 000788       $C$L47:    
    1732                      .dwpsn  file "../c5535_bsl_revc/ezdsp5535_v1/c55xx_csl/ccs_v4.0_examples/i2c/CSL_I2C_DmaWordSwapExapm
    1733 000788 E60A          MOV #0, *SP(#5) ; |556| 
         00078a 00   
    1734 00078b 20            NOP
TMS320C55x Assembler PC v4.4.1 Sat Sep 29 23:09:37 2018

Tools Copyright (c) 1996-2012 Texas Instruments Incorporated
csl_i2c_dmaWordSwap_example.asm                                      PAGE   42

    1735 00078c 20            NOP
    1736                      .dwpsn  file "../c5535_bsl_revc/ezdsp5535_v1/c55xx_csl/ccs_v4.0_examples/i2c/CSL_I2C_DmaWordSwapExapm
    1737 00078d 76FF          MOV #65535, AR2 ; |556| 
         00078f FFA8 
    1738 000791 A90A          MOV *SP(#5), AR1 ; |556| 
    1739 000793 1298          CMPU AR1 >= AR2, TC1 ; |556| 
         000795 A4   
    1740 000796 67E4          BCC $C$L49,TC1 ; |556| 
    1741                                                      ; branchcc occurs ; |556| 
    1742 000798       $C$L48:    
    1743 000798       $C$DW$L$_CSL_i2c_pollWrite_dmaRead$18$B:
    1744                      .dwpsn  file "../c5535_bsl_revc/ezdsp5535_v1/c55xx_csl/ccs_v4.0_examples/i2c/CSL_I2C_DmaWordSwapExapm
    1745 000798 F70A          ADD #1, *SP(#5) ; |556| 
         00079a 0001 
    1746 00079c 20            NOP
    1747 00079d 20            NOP
    1748 00079e 20            NOP
    1749                      .dwpsn  file "../c5535_bsl_revc/ezdsp5535_v1/c55xx_csl/ccs_v4.0_examples/i2c/CSL_I2C_DmaWordSwapExapm
    1750 00079f A90A          MOV *SP(#5), AR1 ; |556| 
    1751 0007a1 1294          CMPU AR1 < AR2, TC1 ; |556| 
         0007a3 A4   
    1752 0007a4 0464          BCC $C$L48,TC1 ; |556| 
         0007a6 F1   
    1753                                                      ; branchcc occurs ; |556| 
    1754 0007a7       $C$DW$L$_CSL_i2c_pollWrite_dmaRead$18$E:
    1755 0007a7       $C$L49:    
    1756                      .dwpsn  file "../c5535_bsl_revc/ezdsp5535_v1/c55xx_csl/ccs_v4.0_examples/i2c/CSL_I2C_DmaWordSwapExapm
    1757 0007a7 E631          MOV #47, *(#_i2cConfig) ; |559| 
         0007a9 2F00 
         0007ab 0194-
    1758                      .dwpsn  file "../c5535_bsl_revc/ezdsp5535_v1/c55xx_csl/ccs_v4.0_examples/i2c/CSL_I2C_DmaWordSwapExapm
    1759 0007ad E631          MOV #0, *(#(_i2cConfig+1)) ; |560| 
         0007af 0000 
         0007b1 0195-
    1760                      .dwpsn  file "../c5535_bsl_revc/ezdsp5535_v1/c55xx_csl/ccs_v4.0_examples/i2c/CSL_I2C_DmaWordSwapExapm
    1761 0007b3 FB31          MOV #620, *(#(_i2cConfig+2)) ; |561| 
         0007b5 026C 
         0007b7 0001 
         0007b9 96-  
    1762                      .dwpsn  file "../c5535_bsl_revc/ezdsp5535_v1/c55xx_csl/ccs_v4.0_examples/i2c/CSL_I2C_DmaWordSwapExapm
    1763 0007ba FB31          MOV #620, *(#(_i2cConfig+3)) ; |562| 
         0007bc 026C 
         0007be 0001 
         0007c0 97-  
    1764                      .dwpsn  file "../c5535_bsl_revc/ezdsp5535_v1/c55xx_csl/ccs_v4.0_examples/i2c/CSL_I2C_DmaWordSwapExapm
    1765 0007c1 E631          MOV #64, *(#(_i2cConfig+4)) ; |563| 
         0007c3 4000 
         0007c5 0198-
    1766                      .dwpsn  file "../c5535_bsl_revc/ezdsp5535_v1/c55xx_csl/ccs_v4.0_examples/i2c/CSL_I2C_DmaWordSwapExapm
    1767 0007c7 E631          MOV #80, *(#(_i2cConfig+5)) ; |564| 
         0007c9 5000 
         0007cb 0199-
    1768                      .dwpsn  file "../c5535_bsl_revc/ezdsp5535_v1/c55xx_csl/ccs_v4.0_examples/i2c/CSL_I2C_DmaWordSwapExapm
    1769 0007cd FB31          MOV #3104, *(#(_i2cConfig+6)) ; |565| 
         0007cf 0C20 
TMS320C55x Assembler PC v4.4.1 Sat Sep 29 23:09:37 2018

Tools Copyright (c) 1996-2012 Texas Instruments Incorporated
csl_i2c_dmaWordSwap_example.asm                                      PAGE   43

         0007d1 0001 
         0007d3 9A-  
    1770                      .dwpsn  file "../c5535_bsl_revc/ezdsp5535_v1/c55xx_csl/ccs_v4.0_examples/i2c/CSL_I2C_DmaWordSwapExapm
    1771 0007d4 E631          MOV #0, *(#(_i2cConfig+7)) ; |566| 
         0007d6 0000 
         0007d8 019B-
    1772                      .dwpsn  file "../c5535_bsl_revc/ezdsp5535_v1/c55xx_csl/ccs_v4.0_examples/i2c/CSL_I2C_DmaWordSwapExapm
    1773 0007da E631          MOV #7, *(#(_i2cConfig+8)) ; |567| 
         0007dc 0700 
         0007de 019C-
    1774                      .dwpsn  file "../c5535_bsl_revc/ezdsp5535_v1/c55xx_csl/ccs_v4.0_examples/i2c/CSL_I2C_DmaWordSwapExapm
    1775 0007e0 EC31          AMOV #_i2cConfig, XAR0 ; |569| 
         0007e2 8E00 
         0007e4 0194-
    1776              $C$DW$135       .dwtag  DW_TAG_TI_branch
    1777                      .dwattr $C$DW$135, DW_AT_low_pc(0x00)
    1778                      .dwattr $C$DW$135, DW_AT_name("_I2C_config")
    1779                      .dwattr $C$DW$135, DW_AT_TI_call
    1780 0007e6 6C00          CALL #_I2C_config ; |569| 
         0007e8 0000!
    1781                                                      ; call occurs [#_I2C_config] ; |569| 
    1782 0007ea C404          MOV T0, *SP(#2) ; |569| 
    1783                      .dwpsn  file "../c5535_bsl_revc/ezdsp5535_v1/c55xx_csl/ccs_v4.0_examples/i2c/CSL_I2C_DmaWordSwapExapm
    1784 0007ec 2249          MOV T0, AR1
    1785 0007ee 0409          BCC $C$L50,AR1 == #0 ; |570| 
         0007f0 12   
    1786                                                      ; branchcc occurs ; |570| 
    1787                      .dwpsn  file "../c5535_bsl_revc/ezdsp5535_v1/c55xx_csl/ccs_v4.0_examples/i2c/CSL_I2C_DmaWordSwapExapm
    1788 0007f1 EC31          AMOV #$C$FSL12, XAR3 ; |572| 
         0007f3 BE00 
         0007f5 0190+
    1789 0007f7 EB00          MOV XAR3, dbl(*SP(#0))
         0007f9 B5   
    1790              $C$DW$136       .dwtag  DW_TAG_TI_branch
    1791                      .dwattr $C$DW$136, DW_AT_low_pc(0x00)
    1792                      .dwattr $C$DW$136, DW_AT_name("_printf")
    1793                      .dwattr $C$DW$136, DW_AT_TI_call
    1794 0007fa 6C00          CALL #_printf ; |572| 
         0007fc 0000!
    1795                                                      ; call occurs [#_printf] ; |572| 
    1796                      .dwpsn  file "../c5535_bsl_revc/ezdsp5535_v1/c55xx_csl/ccs_v4.0_examples/i2c/CSL_I2C_DmaWordSwapExapm
    1797 0007fe A406          MOV *SP(#3), T0 ; |573| 
    1798 000800 0600          B $C$L58  ; |573| 
         000802 BE   
    1799                                                      ; branch occurs ; |573| 
    1800 000803       $C$L50:    
    1801                      .dwpsn  file "../c5535_bsl_revc/ezdsp5535_v1/c55xx_csl/ccs_v4.0_examples/i2c/CSL_I2C_DmaWordSwapExapm
    1802 000803 A951          MOV *port(#6692), AR1 ; |577| 
         000805 1A24 
    1803 000807 EC1A          BCLR @#13, AR1 ; |577| 
         000809 92   
    1804 00080a EC1A          BSET @#13, AR1 ; |577| 
         00080c 90   
    1805 00080d C951          MOV AR1, *port(#6692) ; |577| 
         00080f 1A24 
TMS320C55x Assembler PC v4.4.1 Sat Sep 29 23:09:37 2018

Tools Copyright (c) 1996-2012 Texas Instruments Incorporated
csl_i2c_dmaWordSwap_example.asm                                      PAGE   44

    1806                      .dwpsn  file "../c5535_bsl_revc/ezdsp5535_v1/c55xx_csl/ccs_v4.0_examples/i2c/CSL_I2C_DmaWordSwapExapm
    1807 000811 ED31          MOV dbl(*(#_dmaRdHandle)), XAR0
         000813 8F00 
         000815 0086-
    1808              $C$DW$137       .dwtag  DW_TAG_TI_branch
    1809                      .dwattr $C$DW$137, DW_AT_low_pc(0x00)
    1810                      .dwattr $C$DW$137, DW_AT_name("_DMA_start")
    1811                      .dwattr $C$DW$137, DW_AT_TI_call
    1812 000817 6C00          CALL #_DMA_start ; |580| 
         000819 0000!
    1813                                                      ; call occurs [#_DMA_start] ; |580| 
    1814 00081b C404          MOV T0, *SP(#2) ; |580| 
    1815                      .dwpsn  file "../c5535_bsl_revc/ezdsp5535_v1/c55xx_csl/ccs_v4.0_examples/i2c/CSL_I2C_DmaWordSwapExapm
    1816 00081d 2249          MOV T0, AR1
    1817 00081f 0409          BCC $C$L51,AR1 == #0 ; |581| 
         000821 12   
    1818                                                      ; branchcc occurs ; |581| 
    1819                      .dwpsn  file "../c5535_bsl_revc/ezdsp5535_v1/c55xx_csl/ccs_v4.0_examples/i2c/CSL_I2C_DmaWordSwapExapm
    1820 000822 EC31          AMOV #$C$FSL23, XAR3 ; |583| 
         000824 BE00 
         000826 02A6+
    1821 000828 EB00          MOV XAR3, dbl(*SP(#0))
         00082a B5   
    1822              $C$DW$138       .dwtag  DW_TAG_TI_branch
    1823                      .dwattr $C$DW$138, DW_AT_low_pc(0x00)
    1824                      .dwattr $C$DW$138, DW_AT_name("_printf")
    1825                      .dwattr $C$DW$138, DW_AT_TI_call
    1826 00082b 6C00          CALL #_printf ; |583| 
         00082d 0000!
    1827                                                      ; call occurs [#_printf] ; |583| 
    1828                      .dwpsn  file "../c5535_bsl_revc/ezdsp5535_v1/c55xx_csl/ccs_v4.0_examples/i2c/CSL_I2C_DmaWordSwapExapm
    1829 00082f A406          MOV *SP(#3), T0 ; |584| 
    1830 000831 0600          B $C$L58  ; |584| 
         000833 8D   
    1831                                                      ; branch occurs ; |584| 
    1832 000834       $C$L51:    
    1833                      .dwpsn  file "../c5535_bsl_revc/ezdsp5535_v1/c55xx_csl/ccs_v4.0_examples/i2c/CSL_I2C_DmaWordSwapExapm
    1834 000834 ED31          MOV dbl(*(#_dmaRdHandle)), XAR0
         000836 8F00 
         000838 0086-
    1835              $C$DW$139       .dwtag  DW_TAG_TI_branch
    1836                      .dwattr $C$DW$139, DW_AT_low_pc(0x00)
    1837                      .dwattr $C$DW$139, DW_AT_name("_DMA_getStatus")
    1838                      .dwattr $C$DW$139, DW_AT_TI_call
    1839 00083a 08F7          CALL #_DMA_getStatus ; |588| 
         00083c C3   
    1840                                                      ; call occurs [#_DMA_getStatus] ; |588| 
    1841 00083d 6604          BCC $C$L53,T0 == #0 ; |588| 
    1842                                                      ; branchcc occurs ; |588| 
    1843 00083f       $C$L52:    
    1844 00083f       $C$DW$L$_CSL_i2c_pollWrite_dmaRead$24$B:
    1845 00083f ED31          MOV dbl(*(#_dmaRdHandle)), XAR0
         000841 8F00 
         000843 0086-
    1846              $C$DW$140       .dwtag  DW_TAG_TI_branch
TMS320C55x Assembler PC v4.4.1 Sat Sep 29 23:09:37 2018

Tools Copyright (c) 1996-2012 Texas Instruments Incorporated
csl_i2c_dmaWordSwap_example.asm                                      PAGE   45

    1847                      .dwattr $C$DW$140, DW_AT_low_pc(0x00)
    1848                      .dwattr $C$DW$140, DW_AT_name("_DMA_getStatus")
    1849                      .dwattr $C$DW$140, DW_AT_TI_call
    1850 000845 08F7          CALL #_DMA_getStatus ; |588| 
         000847 B8   
    1851                                                      ; call occurs [#_DMA_getStatus] ; |588| 
    1852 000848 0414          BCC $C$L52,T0 != #0 ; |588| 
         00084a F4   
    1853                                                      ; branchcc occurs ; |588| 
    1854 00084b       $C$DW$L$_CSL_i2c_pollWrite_dmaRead$24$E:
    1855 00084b       $C$L53:    
    1856                      .dwpsn  file "../c5535_bsl_revc/ezdsp5535_v1/c55xx_csl/ccs_v4.0_examples/i2c/CSL_I2C_DmaWordSwapExapm
    1857 00084b EC31          AMOV #$C$FSL24, XAR3 ; |590| 
         00084d BE00 
         00084f 02BE+
    1858 000851 EB00          MOV XAR3, dbl(*SP(#0))
         000853 B5   
    1859              $C$DW$141       .dwtag  DW_TAG_TI_branch
    1860                      .dwattr $C$DW$141, DW_AT_low_pc(0x00)
    1861                      .dwattr $C$DW$141, DW_AT_name("_printf")
    1862                      .dwattr $C$DW$141, DW_AT_TI_call
    1863 000854 6C00          CALL #_printf ; |590| 
         000856 0000!
    1864                                                      ; call occurs [#_printf] ; |590| 
    1865                      .dwpsn  file "../c5535_bsl_revc/ezdsp5535_v1/c55xx_csl/ccs_v4.0_examples/i2c/CSL_I2C_DmaWordSwapExapm
    1866 000858 E60A          MOV #0, *SP(#5) ; |593| 
         00085a 00   
    1867 00085b 20            NOP
    1868 00085c 20            NOP
    1869                      .dwpsn  file "../c5535_bsl_revc/ezdsp5535_v1/c55xx_csl/ccs_v4.0_examples/i2c/CSL_I2C_DmaWordSwapExapm
    1870 00085d 7600          MOV #64, AR2 ; |593| 
         00085f 40A8 
    1871 000861 A90A          MOV *SP(#5), AR1 ; |593| 
    1872 000863 1298          CMPU AR1 >= AR2, TC1 ; |593| 
         000865 A4   
    1873 000866 0464          BCC $C$L56,TC1 ; |593| 
         000868 40   
    1874                                                      ; branchcc occurs ; |593| 
    1875 000869       $C$L54:    
    1876 000869       $C$DW$L$_CSL_i2c_pollWrite_dmaRead$26$B:
    1877                      .dwpsn  file "../c5535_bsl_revc/ezdsp5535_v1/c55xx_csl/ccs_v4.0_examples/i2c/CSL_I2C_DmaWordSwapExapm
    1878 000869 A40A          MOV *SP(#5), T0 ; |595| 
    1879 00086b 5040          SFTL T0, #1 ; |595| 
    1880 00086d EC31          AMOV #_gI2cDmaRdBuf, XAR3 ; |595| 
         00086f BE00 
         000871 0088-
    1881 000873 ED6B          MOV dbl(*AR3(T0)), AC0 ; |595| 
         000875 08   
    1882 000876 A40A          MOV *SP(#5), T0 ; |595| 
    1883 000878 4024          ADD #2, T0 ; |595| 
    1884 00087a EC31          AMOV #_gI2cPollWrBuf, XAR3 ; |595| 
         00087c BE00 
         00087e 0108-
    1885 000880 DF6B          MOV uns(*AR3(T0)), AC1 ; |595| 
         000882 15   
TMS320C55x Assembler PC v4.4.1 Sat Sep 29 23:09:37 2018

Tools Copyright (c) 1996-2012 Texas Instruments Incorporated
csl_i2c_dmaWordSwap_example.asm                                      PAGE   46

    1886 000883 1210          CMPU AC1 == AC0, TC1 ; |595| 
         000885 04   
    1887 000886 0464          BCC $C$L55,TC1 ; |595| 
         000888 11   
    1888                                                      ; branchcc occurs ; |595| 
    1889 000889       $C$DW$L$_CSL_i2c_pollWrite_dmaRead$26$E:
    1890                      .dwpsn  file "../c5535_bsl_revc/ezdsp5535_v1/c55xx_csl/ccs_v4.0_examples/i2c/CSL_I2C_DmaWordSwapExapm
    1891 000889 EC31          AMOV #$C$FSL17, XAR3 ; |597| 
         00088b BE00 
         00088d 0206+
    1892 00088f EB00          MOV XAR3, dbl(*SP(#0))
         000891 B5   
    1893              $C$DW$142       .dwtag  DW_TAG_TI_branch
    1894                      .dwattr $C$DW$142, DW_AT_low_pc(0x00)
    1895                      .dwattr $C$DW$142, DW_AT_name("_printf")
    1896                      .dwattr $C$DW$142, DW_AT_TI_call
    1897 000892 6C00          CALL #_printf ; |597| 
         000894 0000!
    1898                                                      ; call occurs [#_printf] ; |597| 
    1899                      .dwpsn  file "../c5535_bsl_revc/ezdsp5535_v1/c55xx_csl/ccs_v4.0_examples/i2c/CSL_I2C_DmaWordSwapExapm
    1900 000896 A406          MOV *SP(#3), T0 ; |598| 
    1901 000898 4A27          B $C$L58  ; |598| 
    1902                                                      ; branch occurs ; |598| 
    1903 00089a       $C$L55:    
    1904 00089a       $C$DW$L$_CSL_i2c_pollWrite_dmaRead$28$B:
    1905                      .dwpsn  file "../c5535_bsl_revc/ezdsp5535_v1/c55xx_csl/ccs_v4.0_examples/i2c/CSL_I2C_DmaWordSwapExapm
    1906 00089a F70A          ADD #1, *SP(#5) ; |593| 
         00089c 0001 
    1907 00089e 20            NOP
    1908 00089f 20            NOP
    1909 0008a0 20            NOP
    1910                      .dwpsn  file "../c5535_bsl_revc/ezdsp5535_v1/c55xx_csl/ccs_v4.0_examples/i2c/CSL_I2C_DmaWordSwapExapm
    1911 0008a1 A90A          MOV *SP(#5), AR1 ; |593| 
    1912 0008a3 1294          CMPU AR1 < AR2, TC1 ; |593| 
         0008a5 A4   
    1913 0008a6 0464          BCC $C$L54,TC1 ; |593| 
         0008a8 C0   
    1914                                                      ; branchcc occurs ; |593| 
    1915 0008a9       $C$DW$L$_CSL_i2c_pollWrite_dmaRead$28$E:
    1916 0008a9       $C$L56:    
    1917                      .dwpsn  file "../c5535_bsl_revc/ezdsp5535_v1/c55xx_csl/ccs_v4.0_examples/i2c/CSL_I2C_DmaWordSwapExapm
    1918 0008a9 F00A          CMP *SP(#5) == #64, TC1 ; |602| 
         0008ab 0040 
    1919 0008ad 66F4          BCC $C$L57,!TC1 ; |602| 
    1920                                                      ; branchcc occurs ; |602| 
    1921                      .dwpsn  file "../c5535_bsl_revc/ezdsp5535_v1/c55xx_csl/ccs_v4.0_examples/i2c/CSL_I2C_DmaWordSwapExapm
    1922 0008af EC31          AMOV #$C$FSL18, XAR3 ; |604| 
         0008b1 BE00 
         0008b3 022C+
    1923 0008b5 EB00          MOV XAR3, dbl(*SP(#0))
         0008b7 B5   
    1924              $C$DW$143       .dwtag  DW_TAG_TI_branch
    1925                      .dwattr $C$DW$143, DW_AT_low_pc(0x00)
    1926                      .dwattr $C$DW$143, DW_AT_name("_printf")
    1927                      .dwattr $C$DW$143, DW_AT_TI_call
TMS320C55x Assembler PC v4.4.1 Sat Sep 29 23:09:37 2018

Tools Copyright (c) 1996-2012 Texas Instruments Incorporated
csl_i2c_dmaWordSwap_example.asm                                      PAGE   47

    1928 0008b8 6C00          CALL #_printf ; |604| 
         0008ba 0000!
    1929                                                      ; call occurs [#_printf] ; |604| 
    1930 0008bc       $C$L57:    
    1931                      .dwpsn  file "../c5535_bsl_revc/ezdsp5535_v1/c55xx_csl/ccs_v4.0_examples/i2c/CSL_I2C_DmaWordSwapExapm
    1932 0008bc E606          MOV #0, *SP(#3) ; |607| 
         0008be 00   
    1933                      .dwpsn  file "../c5535_bsl_revc/ezdsp5535_v1/c55xx_csl/ccs_v4.0_examples/i2c/CSL_I2C_DmaWordSwapExapm
    1934 0008bf A406          MOV *SP(#3), T0 ; |609| 
    1935 0008c1       $C$L58:    
    1936                      .dwpsn  file "../c5535_bsl_revc/ezdsp5535_v1/c55xx_csl/ccs_v4.0_examples/i2c/CSL_I2C_DmaWordSwapExapm
    1937 0008c1 4E07          AADD #7, SP
    1938                      .dwcfi  cfa_offset, 1
    1939              $C$DW$144       .dwtag  DW_TAG_TI_branch
    1940                      .dwattr $C$DW$144, DW_AT_low_pc(0x00)
    1941                      .dwattr $C$DW$144, DW_AT_TI_return
    1942 0008c3 4804          RET
    1943                                                      ; return occurs
    1944              
    1945              $C$DW$145       .dwtag  DW_TAG_TI_loop
    1946                      .dwattr $C$DW$145, DW_AT_name("F:\eZdsp_DBG\tmp1\c55x-sim2\foo\Debug\csl_i2c_dmaWordSwap_example.asm:
    1947                      .dwattr $C$DW$145, DW_AT_TI_begin_file("../c5535_bsl_revc/ezdsp5535_v1/c55xx_csl/ccs_v4.0_examples/i2
    1948                      .dwattr $C$DW$145, DW_AT_TI_begin_line(0x251)
    1949                      .dwattr $C$DW$145, DW_AT_TI_end_line(0x258)
    1950              $C$DW$146       .dwtag  DW_TAG_TI_loop_range
    1951                      .dwattr $C$DW$146, DW_AT_low_pc($C$DW$L$_CSL_i2c_pollWrite_dmaRead$26$B)
    1952                      .dwattr $C$DW$146, DW_AT_high_pc($C$DW$L$_CSL_i2c_pollWrite_dmaRead$26$E)
    1953              $C$DW$147       .dwtag  DW_TAG_TI_loop_range
    1954                      .dwattr $C$DW$147, DW_AT_low_pc($C$DW$L$_CSL_i2c_pollWrite_dmaRead$28$B)
    1955                      .dwattr $C$DW$147, DW_AT_high_pc($C$DW$L$_CSL_i2c_pollWrite_dmaRead$28$E)
    1956                      .dwendtag $C$DW$145
    1957              
    1958              
    1959              $C$DW$148       .dwtag  DW_TAG_TI_loop
    1960                      .dwattr $C$DW$148, DW_AT_name("F:\eZdsp_DBG\tmp1\c55x-sim2\foo\Debug\csl_i2c_dmaWordSwap_example.asm:
    1961                      .dwattr $C$DW$148, DW_AT_TI_begin_file("../c5535_bsl_revc/ezdsp5535_v1/c55xx_csl/ccs_v4.0_examples/i2
    1962                      .dwattr $C$DW$148, DW_AT_TI_begin_line(0x24c)
    1963                      .dwattr $C$DW$148, DW_AT_TI_end_line(0x24c)
    1964              $C$DW$149       .dwtag  DW_TAG_TI_loop_range
    1965                      .dwattr $C$DW$149, DW_AT_low_pc($C$DW$L$_CSL_i2c_pollWrite_dmaRead$24$B)
    1966                      .dwattr $C$DW$149, DW_AT_high_pc($C$DW$L$_CSL_i2c_pollWrite_dmaRead$24$E)
    1967                      .dwendtag $C$DW$148
    1968              
    1969              
    1970              $C$DW$150       .dwtag  DW_TAG_TI_loop
    1971                      .dwattr $C$DW$150, DW_AT_name("F:\eZdsp_DBG\tmp1\c55x-sim2\foo\Debug\csl_i2c_dmaWordSwap_example.asm:
    1972                      .dwattr $C$DW$150, DW_AT_TI_begin_file("../c5535_bsl_revc/ezdsp5535_v1/c55xx_csl/ccs_v4.0_examples/i2
    1973                      .dwattr $C$DW$150, DW_AT_TI_begin_line(0x22c)
    1974                      .dwattr $C$DW$150, DW_AT_TI_end_line(0x22c)
    1975              $C$DW$151       .dwtag  DW_TAG_TI_loop_range
    1976                      .dwattr $C$DW$151, DW_AT_low_pc($C$DW$L$_CSL_i2c_pollWrite_dmaRead$18$B)
    1977                      .dwattr $C$DW$151, DW_AT_high_pc($C$DW$L$_CSL_i2c_pollWrite_dmaRead$18$E)
    1978                      .dwendtag $C$DW$150
    1979              
    1980              
TMS320C55x Assembler PC v4.4.1 Sat Sep 29 23:09:37 2018

Tools Copyright (c) 1996-2012 Texas Instruments Incorporated
csl_i2c_dmaWordSwap_example.asm                                      PAGE   48

    1981              $C$DW$152       .dwtag  DW_TAG_TI_loop
    1982                      .dwattr $C$DW$152, DW_AT_name("F:\eZdsp_DBG\tmp1\c55x-sim2\foo\Debug\csl_i2c_dmaWordSwap_example.asm:
    1983                      .dwattr $C$DW$152, DW_AT_TI_begin_file("../c5535_bsl_revc/ezdsp5535_v1/c55xx_csl/ccs_v4.0_examples/i2
    1984                      .dwattr $C$DW$152, DW_AT_TI_begin_line(0x220)
    1985                      .dwattr $C$DW$152, DW_AT_TI_end_line(0x220)
    1986              $C$DW$153       .dwtag  DW_TAG_TI_loop_range
    1987                      .dwattr $C$DW$153, DW_AT_low_pc($C$DW$L$_CSL_i2c_pollWrite_dmaRead$14$B)
    1988                      .dwattr $C$DW$153, DW_AT_high_pc($C$DW$L$_CSL_i2c_pollWrite_dmaRead$14$E)
    1989                      .dwendtag $C$DW$152
    1990              
    1991              
    1992              $C$DW$154       .dwtag  DW_TAG_TI_loop
    1993                      .dwattr $C$DW$154, DW_AT_name("F:\eZdsp_DBG\tmp1\c55x-sim2\foo\Debug\csl_i2c_dmaWordSwap_example.asm:
    1994                      .dwattr $C$DW$154, DW_AT_TI_begin_file("../c5535_bsl_revc/ezdsp5535_v1/c55xx_csl/ccs_v4.0_examples/i2
    1995                      .dwattr $C$DW$154, DW_AT_TI_begin_line(0x1d5)
    1996                      .dwattr $C$DW$154, DW_AT_TI_end_line(0x1d9)
    1997              $C$DW$155       .dwtag  DW_TAG_TI_loop_range
    1998                      .dwattr $C$DW$155, DW_AT_low_pc($C$DW$L$_CSL_i2c_pollWrite_dmaRead$2$B)
    1999                      .dwattr $C$DW$155, DW_AT_high_pc($C$DW$L$_CSL_i2c_pollWrite_dmaRead$2$E)
    2000                      .dwendtag $C$DW$154
    2001              
    2002                      .dwattr $C$DW$117, DW_AT_TI_end_file("../c5535_bsl_revc/ezdsp5535_v1/c55xx_csl/ccs_v4.0_examples/i2c/
    2003                      .dwattr $C$DW$117, DW_AT_TI_end_line(0x262)
    2004                      .dwattr $C$DW$117, DW_AT_TI_end_column(0x01)
    2005                      .dwendentry
    2006                      .dwendtag $C$DW$117
    2007              
    2008 0008c5               .sect   ".text"
    2009                      .align 4
    2010                      .global _CSL_configDmaForI2c
    2011              
    2012              $C$DW$156       .dwtag  DW_TAG_subprogram, DW_AT_name("CSL_configDmaForI2c")
    2013                      .dwattr $C$DW$156, DW_AT_low_pc(_CSL_configDmaForI2c)
    2014                      .dwattr $C$DW$156, DW_AT_high_pc(0x00)
    2015                      .dwattr $C$DW$156, DW_AT_TI_symbol_name("_CSL_configDmaForI2c")
    2016                      .dwattr $C$DW$156, DW_AT_external
    2017                      .dwattr $C$DW$156, DW_AT_type(*$C$DW$T$84)
    2018                      .dwattr $C$DW$156, DW_AT_TI_begin_file("../c5535_bsl_revc/ezdsp5535_v1/c55xx_csl/ccs_v4.0_examples/i2
    2019                      .dwattr $C$DW$156, DW_AT_TI_begin_line(0x26b)
    2020                      .dwattr $C$DW$156, DW_AT_TI_begin_column(0x10)
    2021                      .dwattr $C$DW$156, DW_AT_TI_max_frame_size(0x0a)
    2022                      .dwpsn  file "../c5535_bsl_revc/ezdsp5535_v1/c55xx_csl/ccs_v4.0_examples/i2c/CSL_I2C_DmaWordSwapExapm
    2023              
    2024                      .dwfde $C$DW$CIE, _CSL_configDmaForI2c
    2025              $C$DW$157       .dwtag  DW_TAG_formal_parameter, DW_AT_name("dmaChanObj")
    2026                      .dwattr $C$DW$157, DW_AT_TI_symbol_name("_dmaChanObj")
    2027                      .dwattr $C$DW$157, DW_AT_type(*$C$DW$T$83)
    2028                      .dwattr $C$DW$157, DW_AT_location[DW_OP_reg17]
    2029              $C$DW$158       .dwtag  DW_TAG_formal_parameter, DW_AT_name("chanNum")
    2030                      .dwattr $C$DW$158, DW_AT_TI_symbol_name("_chanNum")
    2031                      .dwattr $C$DW$158, DW_AT_type(*$C$DW$T$28)
    2032                      .dwattr $C$DW$158, DW_AT_location[DW_OP_reg12]
    2033              ;*******************************************************************************
    2034              ;* FUNCTION NAME: CSL_configDmaForI2c                                          *
    2035              ;*                                                                             *
TMS320C55x Assembler PC v4.4.1 Sat Sep 29 23:09:37 2018

Tools Copyright (c) 1996-2012 Texas Instruments Incorporated
csl_i2c_dmaWordSwap_example.asm                                      PAGE   49

    2036              ;*   Function Uses Regs : AC0,AC0,T0,AR0,XAR0,AR1,XAR1,AR3,XAR3,SP,M40,SATA,   *
    2037              ;*                        SATD,RDM,FRCT,SMUL                                   *
    2038              ;*   Stack Frame        : Compact (No Frame Pointer, w/ debug)                 *
    2039              ;*   Total Frame Size   : 10 words                                             *
    2040              ;*                        (1 return address/alignment)                         *
    2041              ;*                        (2 function parameters)                              *
    2042              ;*                        (7 local values)                                     *
    2043              ;*   Min System Stack   : 1 word                                               *
    2044              ;*******************************************************************************
    2045 0008c8       _CSL_configDmaForI2c:
    2046                      .dwcfi  cfa_offset, 1
    2047                      .dwcfi  save_reg_to_mem, 91, -1
    2048 0008c8 4EF7          AADD #-9, SP
    2049                      .dwcfi  cfa_offset, 10
    2050              $C$DW$159       .dwtag  DW_TAG_variable, DW_AT_name("dmaChanObj")
    2051                      .dwattr $C$DW$159, DW_AT_TI_symbol_name("_dmaChanObj")
    2052                      .dwattr $C$DW$159, DW_AT_type(*$C$DW$T$83)
    2053                      .dwattr $C$DW$159, DW_AT_location[DW_OP_bregx 0x24 2]
    2054              $C$DW$160       .dwtag  DW_TAG_variable, DW_AT_name("chanNum")
    2055                      .dwattr $C$DW$160, DW_AT_TI_symbol_name("_chanNum")
    2056                      .dwattr $C$DW$160, DW_AT_type(*$C$DW$T$28)
    2057                      .dwattr $C$DW$160, DW_AT_location[DW_OP_bregx 0x24 4]
    2058              $C$DW$161       .dwtag  DW_TAG_variable, DW_AT_name("dmaHandle")
    2059                      .dwattr $C$DW$161, DW_AT_TI_symbol_name("_dmaHandle")
    2060                      .dwattr $C$DW$161, DW_AT_type(*$C$DW$T$84)
    2061                      .dwattr $C$DW$161, DW_AT_location[DW_OP_bregx 0x24 6]
    2062              $C$DW$162       .dwtag  DW_TAG_variable, DW_AT_name("status")
    2063                      .dwattr $C$DW$162, DW_AT_TI_symbol_name("_status")
    2064                      .dwattr $C$DW$162, DW_AT_type(*$C$DW$T$86)
    2065                      .dwattr $C$DW$162, DW_AT_location[DW_OP_bregx 0x24 8]
    2066 0008ca C408          MOV T0, *SP(#4) ; |621| 
    2067 0008cc EB04          MOV XAR0, dbl(*SP(#2))
         0008ce 85   
    2068                      .dwpsn  file "../c5535_bsl_revc/ezdsp5535_v1/c55xx_csl/ccs_v4.0_examples/i2c/CSL_I2C_DmaWordSwapExapm
    2069 0008cf 3C00          MOV #0, AC0 ; |625| 
    2070 0008d1 EB0C          MOV AC0, dbl(*SP(#6))
         0008d3 08   
    2071                      .dwpsn  file "../c5535_bsl_revc/ezdsp5535_v1/c55xx_csl/ccs_v4.0_examples/i2c/CSL_I2C_DmaWordSwapExapm
    2072 0008d4 EC10          AMAR *SP(#8), XAR1
         0008d6 9E   
    2073 0008d7 A408          MOV *SP(#4), T0 ; |628| 
    2074 0008d9 ED04          MOV dbl(*SP(#2)), XAR0
         0008db 8F   
    2075              $C$DW$163       .dwtag  DW_TAG_TI_branch
    2076                      .dwattr $C$DW$163, DW_AT_low_pc(0x00)
    2077                      .dwattr $C$DW$163, DW_AT_name("_DMA_open")
    2078                      .dwattr $C$DW$163, DW_AT_TI_call
    2079 0008dc 6C00          CALL #_DMA_open ; |628| 
         0008de 0000!
    2080                                                      ; call occurs [#_DMA_open] ; |628| 
    2081 0008e0 EB0C          MOV XAR0, dbl(*SP(#6))
         0008e2 85   
    2082                      .dwpsn  file "../c5535_bsl_revc/ezdsp5535_v1/c55xx_csl/ccs_v4.0_examples/i2c/CSL_I2C_DmaWordSwapExapm
    2083 0008e3 ED0C          MOV dbl(*SP(#6)), XAR3
         0008e5 BF   
TMS320C55x Assembler PC v4.4.1 Sat Sep 29 23:09:37 2018

Tools Copyright (c) 1996-2012 Texas Instruments Incorporated
csl_i2c_dmaWordSwap_example.asm                                      PAGE   50

    2084 0008e6 90B0          MOV XAR3, AC0
    2085 0008e8 0410          BCC $C$L59,AC0 != #0 ; |629| 
         0008ea 12   
    2086                                                      ; branchcc occurs ; |629| 
    2087                      .dwpsn  file "../c5535_bsl_revc/ezdsp5535_v1/c55xx_csl/ccs_v4.0_examples/i2c/CSL_I2C_DmaWordSwapExapm
    2088 0008eb EC31          AMOV #$C$FSL25, XAR3 ; |631| 
         0008ed BE00 
         0008ef 02E0+
    2089 0008f1 EB00          MOV XAR3, dbl(*SP(#0))
         0008f3 B5   
    2090              $C$DW$164       .dwtag  DW_TAG_TI_branch
    2091                      .dwattr $C$DW$164, DW_AT_low_pc(0x00)
    2092                      .dwattr $C$DW$164, DW_AT_name("_printf")
    2093                      .dwattr $C$DW$164, DW_AT_TI_call
    2094 0008f4 6C00          CALL #_printf ; |631| 
         0008f6 0000!
    2095                                                      ; call occurs [#_printf] ; |631| 
    2096                      .dwpsn  file "../c5535_bsl_revc/ezdsp5535_v1/c55xx_csl/ccs_v4.0_examples/i2c/CSL_I2C_DmaWordSwapExapm
    2097 0008f8 ED0C          MOV dbl(*SP(#6)), XAR0
         0008fa 8F   
    2098 0008fb 4A26          B $C$L61  ; |632| 
    2099                                                      ; branch occurs ; |632| 
    2100 0008fd       $C$L59:    
    2101                      .dwpsn  file "../c5535_bsl_revc/ezdsp5535_v1/c55xx_csl/ccs_v4.0_examples/i2c/CSL_I2C_DmaWordSwapExapm
    2102 0008fd EC31          AMOV #_dmaConfig, XAR1 ; |636| 
         0008ff 9E00 
         000901 019E-
    2103              $C$DW$165       .dwtag  DW_TAG_TI_branch
    2104                      .dwattr $C$DW$165, DW_AT_low_pc(0x00)
    2105                      .dwattr $C$DW$165, DW_AT_name("_DMA_config")
    2106                      .dwattr $C$DW$165, DW_AT_TI_call
    2107 000903 6C00          CALL #_DMA_config ; |636| 
         000905 0000!
    2108                                                      ; call occurs [#_DMA_config] ; |636| 
    2109 000907 C410          MOV T0, *SP(#8) ; |636| 
    2110                      .dwpsn  file "../c5535_bsl_revc/ezdsp5535_v1/c55xx_csl/ccs_v4.0_examples/i2c/CSL_I2C_DmaWordSwapExapm
    2111 000909 2249          MOV T0, AR1
    2112 00090b 0409          BCC $C$L60,AR1 == #0 ; |637| 
         00090d 12   
    2113                                                      ; branchcc occurs ; |637| 
    2114                      .dwpsn  file "../c5535_bsl_revc/ezdsp5535_v1/c55xx_csl/ccs_v4.0_examples/i2c/CSL_I2C_DmaWordSwapExapm
    2115 00090e EC31          AMOV #$C$FSL26, XAR3 ; |639| 
         000910 BE00 
         000912 02F2+
    2116 000914 EB00          MOV XAR3, dbl(*SP(#0))
         000916 B5   
    2117              $C$DW$166       .dwtag  DW_TAG_TI_branch
    2118                      .dwattr $C$DW$166, DW_AT_low_pc(0x00)
    2119                      .dwattr $C$DW$166, DW_AT_name("_printf")
    2120                      .dwattr $C$DW$166, DW_AT_TI_call
    2121 000917 6C00          CALL #_printf ; |639| 
         000919 0000!
    2122                                                      ; call occurs [#_printf] ; |639| 
    2123                      .dwpsn  file "../c5535_bsl_revc/ezdsp5535_v1/c55xx_csl/ccs_v4.0_examples/i2c/CSL_I2C_DmaWordSwapExapm
    2124 00091b 3C00          MOV #0, AC0 ; |640| 
TMS320C55x Assembler PC v4.4.1 Sat Sep 29 23:09:37 2018

Tools Copyright (c) 1996-2012 Texas Instruments Incorporated
csl_i2c_dmaWordSwap_example.asm                                      PAGE   51

    2125 00091d EB0C          MOV AC0, dbl(*SP(#6))
         00091f 08   
    2126 000920       $C$L60:    
    2127                      .dwpsn  file "../c5535_bsl_revc/ezdsp5535_v1/c55xx_csl/ccs_v4.0_examples/i2c/CSL_I2C_DmaWordSwapExapm
    2128 000920 ED0C          MOV dbl(*SP(#6)), XAR0
         000922 8F   
    2129 000923       $C$L61:    
    2130                      .dwpsn  file "../c5535_bsl_revc/ezdsp5535_v1/c55xx_csl/ccs_v4.0_examples/i2c/CSL_I2C_DmaWordSwapExapm
    2131 000923 4E09          AADD #9, SP
    2132                      .dwcfi  cfa_offset, 1
    2133              $C$DW$167       .dwtag  DW_TAG_TI_branch
    2134                      .dwattr $C$DW$167, DW_AT_low_pc(0x00)
    2135                      .dwattr $C$DW$167, DW_AT_TI_return
    2136 000925 4804          RET
    2137                                                      ; return occurs
    2138                      .dwattr $C$DW$156, DW_AT_TI_end_file("../c5535_bsl_revc/ezdsp5535_v1/c55xx_csl/ccs_v4.0_examples/i2c/
    2139                      .dwattr $C$DW$156, DW_AT_TI_end_line(0x284)
    2140                      .dwattr $C$DW$156, DW_AT_TI_end_column(0x01)
    2141                      .dwendentry
    2142                      .dwendtag $C$DW$156
    2143              
    2144              ;*******************************************************************************
    2145              ;* FAR STRINGS                                                                 *
    2146              ;*******************************************************************************
    2147 000000               .sect   ".const:.string"
    2148                      .align  2
    2149 000000 0049  $C$FSL1:        .string "I2C DMA WORD SWAP TESTS!",10,10,0
         000001 0032 
         000002 0043 
         000003 0020 
         000004 0044 
         000005 004D 
         000006 0041 
         000007 0020 
         000008 0057 
         000009 004F 
         00000a 0052 
         00000b 0044 
         00000c 0020 
         00000d 0053 
         00000e 0057 
         00000f 0041 
         000010 0050 
         000011 0020 
         000012 0054 
         000013 0045 
         000014 0053 
         000015 0054 
         000016 0053 
         000017 0021 
         000018 000A 
         000019 000A 
         00001a 0000 
    2150                      .align  2
    2151 00001c 0049  $C$FSL2:        .string "I2C DMA Write and Polling Read Test",10,0
TMS320C55x Assembler PC v4.4.1 Sat Sep 29 23:09:37 2018

Tools Copyright (c) 1996-2012 Texas Instruments Incorporated
csl_i2c_dmaWordSwap_example.asm                                      PAGE   52

         00001d 0032 
         00001e 0043 
         00001f 0020 
         000020 0044 
         000021 004D 
         000022 0041 
         000023 0020 
         000024 0057 
         000025 0072 
         000026 0069 
         000027 0074 
         000028 0065 
         000029 0020 
         00002a 0061 
         00002b 006E 
         00002c 0064 
         00002d 0020 
         00002e 0050 
         00002f 006F 
         000030 006C 
         000031 006C 
         000032 0069 
         000033 006E 
         000034 0067 
         000035 0020 
         000036 0052 
         000037 0065 
         000038 0061 
         000039 0064 
         00003a 0020 
         00003b 0054 
         00003c 0065 
         00003d 0073 
         00003e 0074 
         00003f 000A 
         000040 0000 
    2152                      .align  2
    2153 000042 0049  $C$FSL3:        .string "I2C DMA Write and Polling Read Test Passed!!",10,0
         000043 0032 
         000044 0043 
         000045 0020 
         000046 0044 
         000047 004D 
         000048 0041 
         000049 0020 
         00004a 0057 
         00004b 0072 
         00004c 0069 
         00004d 0074 
         00004e 0065 
         00004f 0020 
         000050 0061 
         000051 006E 
         000052 0064 
         000053 0020 
TMS320C55x Assembler PC v4.4.1 Sat Sep 29 23:09:37 2018

Tools Copyright (c) 1996-2012 Texas Instruments Incorporated
csl_i2c_dmaWordSwap_example.asm                                      PAGE   53

         000054 0050 
         000055 006F 
         000056 006C 
         000057 006C 
         000058 0069 
         000059 006E 
         00005a 0067 
         00005b 0020 
         00005c 0052 
         00005d 0065 
         00005e 0061 
         00005f 0064 
         000060 0020 
         000061 0054 
         000062 0065 
         000063 0073 
         000064 0074 
         000065 0020 
         000066 0050 
         000067 0061 
         000068 0073 
         000069 0073 
         00006a 0065 
         00006b 0064 
         00006c 0021 
         00006d 0021 
         00006e 000A 
         00006f 0000 
    2154                      .align  2
    2155 000070 0049  $C$FSL4:        .string "I2C DMA Write and Polling Read Test Failed!!",10,0
         000071 0032 
         000072 0043 
         000073 0020 
         000074 0044 
         000075 004D 
         000076 0041 
         000077 0020 
         000078 0057 
         000079 0072 
         00007a 0069 
         00007b 0074 
         00007c 0065 
         00007d 0020 
         00007e 0061 
         00007f 006E 
         000080 0064 
         000081 0020 
         000082 0050 
         000083 006F 
         000084 006C 
         000085 006C 
         000086 0069 
         000087 006E 
         000088 0067 
         000089 0020 
TMS320C55x Assembler PC v4.4.1 Sat Sep 29 23:09:37 2018

Tools Copyright (c) 1996-2012 Texas Instruments Incorporated
csl_i2c_dmaWordSwap_example.asm                                      PAGE   54

         00008a 0052 
         00008b 0065 
         00008c 0061 
         00008d 0064 
         00008e 0020 
         00008f 0054 
         000090 0065 
         000091 0073 
         000092 0074 
         000093 0020 
         000094 0046 
         000095 0061 
         000096 0069 
         000097 006C 
         000098 0065 
         000099 0064 
         00009a 0021 
         00009b 0021 
         00009c 000A 
         00009d 0000 
    2156                      .align  2
    2157 00009e 000A  $C$FSL5:        .string 10,"I2C Polling Write and DMA Read Test",10,0
         00009f 0049 
         0000a0 0032 
         0000a1 0043 
         0000a2 0020 
         0000a3 0050 
         0000a4 006F 
         0000a5 006C 
         0000a6 006C 
         0000a7 0069 
         0000a8 006E 
         0000a9 0067 
         0000aa 0020 
         0000ab 0057 
         0000ac 0072 
         0000ad 0069 
         0000ae 0074 
         0000af 0065 
         0000b0 0020 
         0000b1 0061 
         0000b2 006E 
         0000b3 0064 
         0000b4 0020 
         0000b5 0044 
         0000b6 004D 
         0000b7 0041 
         0000b8 0020 
         0000b9 0052 
         0000ba 0065 
         0000bb 0061 
         0000bc 0064 
         0000bd 0020 
         0000be 0054 
         0000bf 0065 
TMS320C55x Assembler PC v4.4.1 Sat Sep 29 23:09:37 2018

Tools Copyright (c) 1996-2012 Texas Instruments Incorporated
csl_i2c_dmaWordSwap_example.asm                                      PAGE   55

         0000c0 0073 
         0000c1 0074 
         0000c2 000A 
         0000c3 0000 
    2158                      .align  2
    2159 0000c4 0049  $C$FSL6:        .string "I2C Polling Write and DMA Read Test Passed!!",10,0
         0000c5 0032 
         0000c6 0043 
         0000c7 0020 
         0000c8 0050 
         0000c9 006F 
         0000ca 006C 
         0000cb 006C 
         0000cc 0069 
         0000cd 006E 
         0000ce 0067 
         0000cf 0020 
         0000d0 0057 
         0000d1 0072 
         0000d2 0069 
         0000d3 0074 
         0000d4 0065 
         0000d5 0020 
         0000d6 0061 
         0000d7 006E 
         0000d8 0064 
         0000d9 0020 
         0000da 0044 
         0000db 004D 
         0000dc 0041 
         0000dd 0020 
         0000de 0052 
         0000df 0065 
         0000e0 0061 
         0000e1 0064 
         0000e2 0020 
         0000e3 0054 
         0000e4 0065 
         0000e5 0073 
         0000e6 0074 
         0000e7 0020 
         0000e8 0050 
         0000e9 0061 
         0000ea 0073 
         0000eb 0073 
         0000ec 0065 
         0000ed 0064 
         0000ee 0021 
         0000ef 0021 
         0000f0 000A 
         0000f1 0000 
    2160                      .align  2
    2161 0000f2 0049  $C$FSL7:        .string "I2C Polling Write and DMA Read Test Failed!!",10,0
         0000f3 0032 
         0000f4 0043 
TMS320C55x Assembler PC v4.4.1 Sat Sep 29 23:09:37 2018

Tools Copyright (c) 1996-2012 Texas Instruments Incorporated
csl_i2c_dmaWordSwap_example.asm                                      PAGE   56

         0000f5 0020 
         0000f6 0050 
         0000f7 006F 
         0000f8 006C 
         0000f9 006C 
         0000fa 0069 
         0000fb 006E 
         0000fc 0067 
         0000fd 0020 
         0000fe 0057 
         0000ff 0072 
         000100 0069 
         000101 0074 
         000102 0065 
         000103 0020 
         000104 0061 
         000105 006E 
         000106 0064 
         000107 0020 
         000108 0044 
         000109 004D 
         00010a 0041 
         00010b 0020 
         00010c 0052 
         00010d 0065 
         00010e 0061 
         00010f 0064 
         000110 0020 
         000111 0054 
         000112 0065 
         000113 0073 
         000114 0074 
         000115 0020 
         000116 0046 
         000117 0061 
         000118 0069 
         000119 006C 
         00011a 0065 
         00011b 0064 
         00011c 0021 
         00011d 0021 
         00011e 000A 
         00011f 0000 
    2162                      .align  2
    2163 000120 000A  $C$FSL8:        .string 10,"I2C DMA WORD SWAP TESTS COMPLETED!",10,10,0
         000121 0049 
         000122 0032 
         000123 0043 
         000124 0020 
         000125 0044 
         000126 004D 
         000127 0041 
         000128 0020 
         000129 0057 
         00012a 004F 
TMS320C55x Assembler PC v4.4.1 Sat Sep 29 23:09:37 2018

Tools Copyright (c) 1996-2012 Texas Instruments Incorporated
csl_i2c_dmaWordSwap_example.asm                                      PAGE   57

         00012b 0052 
         00012c 0044 
         00012d 0020 
         00012e 0053 
         00012f 0057 
         000130 0041 
         000131 0050 
         000132 0020 
         000133 0054 
         000134 0045 
         000135 0053 
         000136 0054 
         000137 0053 
         000138 0020 
         000139 0043 
         00013a 004F 
         00013b 004D 
         00013c 0050 
         00013d 004C 
         00013e 0045 
         00013f 0054 
         000140 0045 
         000141 0044 
         000142 0021 
         000143 000A 
         000144 000A 
         000145 0000 
    2164                      .align  2
    2165 000146 0049  $C$FSL9:        .string "I2C Init Failed!!",10,0
         000147 0032 
         000148 0043 
         000149 0020 
         00014a 0049 
         00014b 006E 
         00014c 0069 
         00014d 0074 
         00014e 0020 
         00014f 0046 
         000150 0061 
         000151 0069 
         000152 006C 
         000153 0065 
         000154 0064 
         000155 0021 
         000156 0021 
         000157 000A 
         000158 0000 
    2166                      .align  2
    2167 00015a 0044  $C$FSL10:       .string "DMA_init Failed!",10,0
         00015b 004D 
         00015c 0041 
         00015d 005F 
         00015e 0069 
         00015f 006E 
         000160 0069 
TMS320C55x Assembler PC v4.4.1 Sat Sep 29 23:09:37 2018

Tools Copyright (c) 1996-2012 Texas Instruments Incorporated
csl_i2c_dmaWordSwap_example.asm                                      PAGE   58

         000161 0074 
         000162 0020 
         000163 0046 
         000164 0061 
         000165 0069 
         000166 006C 
         000167 0065 
         000168 0064 
         000169 0021 
         00016a 000A 
         00016b 0000 
    2168                      .align  2
    2169 00016c 0044  $C$FSL11:       .string "DMA Config for I2C Write Failed!",10,"!",0
         00016d 004D 
         00016e 0041 
         00016f 0020 
         000170 0043 
         000171 006F 
         000172 006E 
         000173 0066 
         000174 0069 
         000175 0067 
         000176 0020 
         000177 0066 
         000178 006F 
         000179 0072 
         00017a 0020 
         00017b 0049 
         00017c 0032 
         00017d 0043 
         00017e 0020 
         00017f 0057 
         000180 0072 
         000181 0069 
         000182 0074 
         000183 0065 
         000184 0020 
         000185 0046 
         000186 0061 
         000187 0069 
         000188 006C 
         000189 0065 
         00018a 0064 
         00018b 0021 
         00018c 000A 
         00018d 0021 
         00018e 0000 
    2170                      .align  2
    2171 000190 0049  $C$FSL12:       .string "I2C Config Failed!!",10,0
         000191 0032 
         000192 0043 
         000193 0020 
         000194 0043 
         000195 006F 
         000196 006E 
TMS320C55x Assembler PC v4.4.1 Sat Sep 29 23:09:37 2018

Tools Copyright (c) 1996-2012 Texas Instruments Incorporated
csl_i2c_dmaWordSwap_example.asm                                      PAGE   59

         000197 0066 
         000198 0069 
         000199 0067 
         00019a 0020 
         00019b 0046 
         00019c 0061 
         00019d 0069 
         00019e 006C 
         00019f 0065 
         0001a0 0064 
         0001a1 0021 
         0001a2 0021 
         0001a3 000A 
         0001a4 0000 
    2172                      .align  2
    2173 0001a6 0049  $C$FSL13:       .string "I2C Dma Write Failed!!",10,0
         0001a7 0032 
         0001a8 0043 
         0001a9 0020 
         0001aa 0044 
         0001ab 006D 
         0001ac 0061 
         0001ad 0020 
         0001ae 0057 
         0001af 0072 
         0001b0 0069 
         0001b1 0074 
         0001b2 0065 
         0001b3 0020 
         0001b4 0046 
         0001b5 0061 
         0001b6 0069 
         0001b7 006C 
         0001b8 0065 
         0001b9 0064 
         0001ba 0021 
         0001bb 0021 
         0001bc 000A 
         0001bd 0000 
    2174                      .align  2
    2175 0001be 0044  $C$FSL14:       .string "DMA Data write to I2C Complete",10,0
         0001bf 004D 
         0001c0 0041 
         0001c1 0020 
         0001c2 0044 
         0001c3 0061 
         0001c4 0074 
         0001c5 0061 
         0001c6 0020 
         0001c7 0077 
         0001c8 0072 
         0001c9 0069 
         0001ca 0074 
         0001cb 0065 
         0001cc 0020 
TMS320C55x Assembler PC v4.4.1 Sat Sep 29 23:09:37 2018

Tools Copyright (c) 1996-2012 Texas Instruments Incorporated
csl_i2c_dmaWordSwap_example.asm                                      PAGE   60

         0001cd 0074 
         0001ce 006F 
         0001cf 0020 
         0001d0 0049 
         0001d1 0032 
         0001d2 0043 
         0001d3 0020 
         0001d4 0043 
         0001d5 006F 
         0001d6 006D 
         0001d7 0070 
         0001d8 006C 
         0001d9 0065 
         0001da 0074 
         0001db 0065 
         0001dc 000A 
         0001dd 0000 
    2176                      .align  2
    2177 0001de 0049  $C$FSL15:       .string "I2C Read Failed!!",10,0
         0001df 0032 
         0001e0 0043 
         0001e1 0020 
         0001e2 0052 
         0001e3 0065 
         0001e4 0061 
         0001e5 0064 
         0001e6 0020 
         0001e7 0046 
         0001e8 0061 
         0001e9 0069 
         0001ea 006C 
         0001eb 0065 
         0001ec 0064 
         0001ed 0021 
         0001ee 0021 
         0001ef 000A 
         0001f0 0000 
    2178                      .align  2
    2179 0001f2 0049  $C$FSL16:       .string "I2C Read Complete",10,0
         0001f3 0032 
         0001f4 0043 
         0001f5 0020 
         0001f6 0052 
         0001f7 0065 
         0001f8 0061 
         0001f9 0064 
         0001fa 0020 
         0001fb 0043 
         0001fc 006F 
         0001fd 006D 
         0001fe 0070 
         0001ff 006C 
         000200 0065 
         000201 0074 
         000202 0065 
TMS320C55x Assembler PC v4.4.1 Sat Sep 29 23:09:37 2018

Tools Copyright (c) 1996-2012 Texas Instruments Incorporated
csl_i2c_dmaWordSwap_example.asm                                      PAGE   61

         000203 000A 
         000204 0000 
    2180                      .align  2
    2181 000206 0052  $C$FSL17:       .string "Read Write Buffers Does not Match!!",10,0
         000207 0065 
         000208 0061 
         000209 0064 
         00020a 0020 
         00020b 0057 
         00020c 0072 
         00020d 0069 
         00020e 0074 
         00020f 0065 
         000210 0020 
         000211 0042 
         000212 0075 
         000213 0066 
         000214 0066 
         000215 0065 
         000216 0072 
         000217 0073 
         000218 0020 
         000219 0044 
         00021a 006F 
         00021b 0065 
         00021c 0073 
         00021d 0020 
         00021e 006E 
         00021f 006F 
         000220 0074 
         000221 0020 
         000222 004D 
         000223 0061 
         000224 0074 
         000225 0063 
         000226 0068 
         000227 0021 
         000228 0021 
         000229 000A 
         00022a 0000 
    2182                      .align  2
    2183 00022c 0052  $C$FSL18:       .string "Read Write Buffers Match!!",10,0
         00022d 0065 
         00022e 0061 
         00022f 0064 
         000230 0020 
         000231 0057 
         000232 0072 
         000233 0069 
         000234 0074 
         000235 0065 
         000236 0020 
         000237 0042 
         000238 0075 
         000239 0066 
TMS320C55x Assembler PC v4.4.1 Sat Sep 29 23:09:37 2018

Tools Copyright (c) 1996-2012 Texas Instruments Incorporated
csl_i2c_dmaWordSwap_example.asm                                      PAGE   62

         00023a 0066 
         00023b 0065 
         00023c 0072 
         00023d 0073 
         00023e 0020 
         00023f 004D 
         000240 0061 
         000241 0074 
         000242 0063 
         000243 0068 
         000244 0021 
         000245 0021 
         000246 000A 
         000247 0000 
    2184                      .align  2
    2185 000248 0044  $C$FSL19:       .string "DMA Config for I2C Read Failed!",10,"!",0
         000249 004D 
         00024a 0041 
         00024b 0020 
         00024c 0043 
         00024d 006F 
         00024e 006E 
         00024f 0066 
         000250 0069 
         000251 0067 
         000252 0020 
         000253 0066 
         000254 006F 
         000255 0072 
         000256 0020 
         000257 0049 
         000258 0032 
         000259 0043 
         00025a 0020 
         00025b 0052 
         00025c 0065 
         00025d 0061 
         00025e 0064 
         00025f 0020 
         000260 0046 
         000261 0061 
         000262 0069 
         000263 006C 
         000264 0065 
         000265 0064 
         000266 0021 
         000267 000A 
         000268 0021 
         000269 0000 
    2186                      .align  2
    2187 00026a 0049  $C$FSL20:       .string "I2C Setup Failed!!",10,0
         00026b 0032 
         00026c 0043 
         00026d 0020 
         00026e 0053 
TMS320C55x Assembler PC v4.4.1 Sat Sep 29 23:09:37 2018

Tools Copyright (c) 1996-2012 Texas Instruments Incorporated
csl_i2c_dmaWordSwap_example.asm                                      PAGE   63

         00026f 0065 
         000270 0074 
         000271 0075 
         000272 0070 
         000273 0020 
         000274 0046 
         000275 0061 
         000276 0069 
         000277 006C 
         000278 0065 
         000279 0064 
         00027a 0021 
         00027b 0021 
         00027c 000A 
         00027d 0000 
    2188                      .align  2
    2189 00027e 0049  $C$FSL21:       .string "I2C Write Failed!!",10,0
         00027f 0032 
         000280 0043 
         000281 0020 
         000282 0057 
         000283 0072 
         000284 0069 
         000285 0074 
         000286 0065 
         000287 0020 
         000288 0046 
         000289 0061 
         00028a 0069 
         00028b 006C 
         00028c 0065 
         00028d 0064 
         00028e 0021 
         00028f 0021 
         000290 000A 
         000291 0000 
    2190                      .align  2
    2191 000292 0049  $C$FSL22:       .string "I2C Write Complete",10,0
         000293 0032 
         000294 0043 
         000295 0020 
         000296 0057 
         000297 0072 
         000298 0069 
         000299 0074 
         00029a 0065 
         00029b 0020 
         00029c 0043 
         00029d 006F 
         00029e 006D 
         00029f 0070 
         0002a0 006C 
         0002a1 0065 
         0002a2 0074 
         0002a3 0065 
TMS320C55x Assembler PC v4.4.1 Sat Sep 29 23:09:37 2018

Tools Copyright (c) 1996-2012 Texas Instruments Incorporated
csl_i2c_dmaWordSwap_example.asm                                      PAGE   64

         0002a4 000A 
         0002a5 0000 
    2192                      .align  2
    2193 0002a6 0049  $C$FSL23:       .string "I2C Dma Read Failed!!",10,0
         0002a7 0032 
         0002a8 0043 
         0002a9 0020 
         0002aa 0044 
         0002ab 006D 
         0002ac 0061 
         0002ad 0020 
         0002ae 0052 
         0002af 0065 
         0002b0 0061 
         0002b1 0064 
         0002b2 0020 
         0002b3 0046 
         0002b4 0061 
         0002b5 0069 
         0002b6 006C 
         0002b7 0065 
         0002b8 0064 
         0002b9 0021 
         0002ba 0021 
         0002bb 000A 
         0002bc 0000 
    2194                      .align  2
    2195 0002be 0044  $C$FSL24:       .string "DMA Data Read from I2C Complete",10,0
         0002bf 004D 
         0002c0 0041 
         0002c1 0020 
         0002c2 0044 
         0002c3 0061 
         0002c4 0074 
         0002c5 0061 
         0002c6 0020 
         0002c7 0052 
         0002c8 0065 
         0002c9 0061 
         0002ca 0064 
         0002cb 0020 
         0002cc 0066 
         0002cd 0072 
         0002ce 006F 
         0002cf 006D 
         0002d0 0020 
         0002d1 0049 
         0002d2 0032 
         0002d3 0043 
         0002d4 0020 
         0002d5 0043 
         0002d6 006F 
         0002d7 006D 
         0002d8 0070 
         0002d9 006C 
TMS320C55x Assembler PC v4.4.1 Sat Sep 29 23:09:37 2018

Tools Copyright (c) 1996-2012 Texas Instruments Incorporated
csl_i2c_dmaWordSwap_example.asm                                      PAGE   65

         0002da 0065 
         0002db 0074 
         0002dc 0065 
         0002dd 000A 
         0002de 0000 
    2196                      .align  2
    2197 0002e0 0044  $C$FSL25:       .string "DMA_open Failed!",10,0
         0002e1 004D 
         0002e2 0041 
         0002e3 005F 
         0002e4 006F 
         0002e5 0070 
         0002e6 0065 
         0002e7 006E 
         0002e8 0020 
         0002e9 0046 
         0002ea 0061 
         0002eb 0069 
         0002ec 006C 
         0002ed 0065 
         0002ee 0064 
         0002ef 0021 
         0002f0 000A 
         0002f1 0000 
    2198                      .align  2
    2199 0002f2 0044  $C$FSL26:       .string "DMA_config Failed!",10,0
         0002f3 004D 
         0002f4 0041 
         0002f5 005F 
         0002f6 0063 
         0002f7 006F 
         0002f8 006E 
         0002f9 0066 
         0002fa 0069 
         0002fb 0067 
         0002fc 0020 
         0002fd 0046 
         0002fe 0061 
         0002ff 0069 
         000300 006C 
         000301 0065 
         000302 0064 
         000303 0021 
         000304 000A 
         000305 0000 
    2200              ;******************************************************************************
    2201              ;* UNDEFINED EXTERNAL REFERENCES                                              *
    2202              ;******************************************************************************
    2203                      .global _printf
    2204                      .global _I2C_init
    2205                      .global _I2C_config
    2206                      .global _I2C_setup
    2207                      .global _I2C_write
    2208                      .global _I2C_read
    2209                      .global _DMA_init
TMS320C55x Assembler PC v4.4.1 Sat Sep 29 23:09:37 2018

Tools Copyright (c) 1996-2012 Texas Instruments Incorporated
csl_i2c_dmaWordSwap_example.asm                                      PAGE   66

    2210                      .global _DMA_open
    2211                      .global _DMA_config
    2212                      .global _DMA_start
    2213                      .global _i2cHandle
    2214              
    2215              ;*******************************************************************************
    2216              ;* TYPE INFORMATION                                                            *
    2217              ;*******************************************************************************
    2218              
    2219              $C$DW$T$27      .dwtag  DW_TAG_enumeration_type
    2220                      .dwattr $C$DW$T$27, DW_AT_byte_size(0x01)
    2221              $C$DW$168       .dwtag  DW_TAG_enumerator, DW_AT_name("CSL_DMA_CHAN0"), DW_AT_const_value(0x00)
    2222              $C$DW$169       .dwtag  DW_TAG_enumerator, DW_AT_name("CSL_DMA_CHAN1"), DW_AT_const_value(0x01)
    2223              $C$DW$170       .dwtag  DW_TAG_enumerator, DW_AT_name("CSL_DMA_CHAN2"), DW_AT_const_value(0x02)
    2224              $C$DW$171       .dwtag  DW_TAG_enumerator, DW_AT_name("CSL_DMA_CHAN3"), DW_AT_const_value(0x03)
    2225              $C$DW$172       .dwtag  DW_TAG_enumerator, DW_AT_name("CSL_DMA_CHAN4"), DW_AT_const_value(0x04)
    2226              $C$DW$173       .dwtag  DW_TAG_enumerator, DW_AT_name("CSL_DMA_CHAN5"), DW_AT_const_value(0x05)
    2227              $C$DW$174       .dwtag  DW_TAG_enumerator, DW_AT_name("CSL_DMA_CHAN6"), DW_AT_const_value(0x06)
    2228              $C$DW$175       .dwtag  DW_TAG_enumerator, DW_AT_name("CSL_DMA_CHAN7"), DW_AT_const_value(0x07)
    2229              $C$DW$176       .dwtag  DW_TAG_enumerator, DW_AT_name("CSL_DMA_CHAN8"), DW_AT_const_value(0x08)
    2230              $C$DW$177       .dwtag  DW_TAG_enumerator, DW_AT_name("CSL_DMA_CHAN9"), DW_AT_const_value(0x09)
    2231              $C$DW$178       .dwtag  DW_TAG_enumerator, DW_AT_name("CSL_DMA_CHAN10"), DW_AT_const_value(0x0a)
    2232              $C$DW$179       .dwtag  DW_TAG_enumerator, DW_AT_name("CSL_DMA_CHAN11"), DW_AT_const_value(0x0b)
    2233              $C$DW$180       .dwtag  DW_TAG_enumerator, DW_AT_name("CSL_DMA_CHAN12"), DW_AT_const_value(0x0c)
    2234              $C$DW$181       .dwtag  DW_TAG_enumerator, DW_AT_name("CSL_DMA_CHAN13"), DW_AT_const_value(0x0d)
    2235              $C$DW$182       .dwtag  DW_TAG_enumerator, DW_AT_name("CSL_DMA_CHAN14"), DW_AT_const_value(0x0e)
    2236              $C$DW$183       .dwtag  DW_TAG_enumerator, DW_AT_name("CSL_DMA_CHAN15"), DW_AT_const_value(0x0f)
    2237              $C$DW$184       .dwtag  DW_TAG_enumerator, DW_AT_name("CSL_DMA_CHAN_INV"), DW_AT_const_value(0x10)
    2238                      .dwendtag $C$DW$T$27
    2239              
    2240              $C$DW$T$28      .dwtag  DW_TAG_typedef, DW_AT_name("CSL_DMAChanNum")
    2241                      .dwattr $C$DW$T$28, DW_AT_type(*$C$DW$T$27)
    2242                      .dwattr $C$DW$T$28, DW_AT_language(DW_LANG_C)
    2243              
    2244              $C$DW$T$29      .dwtag  DW_TAG_enumeration_type
    2245                      .dwattr $C$DW$T$29, DW_AT_byte_size(0x01)
    2246              $C$DW$185       .dwtag  DW_TAG_enumerator, DW_AT_name("CSL_DMA_ENGINE0"), DW_AT_const_value(0x00)
    2247              $C$DW$186       .dwtag  DW_TAG_enumerator, DW_AT_name("CSL_DMA_ENGINE1"), DW_AT_const_value(0x01)
    2248              $C$DW$187       .dwtag  DW_TAG_enumerator, DW_AT_name("CSL_DMA_ENGINE2"), DW_AT_const_value(0x02)
    2249              $C$DW$188       .dwtag  DW_TAG_enumerator, DW_AT_name("CSL_DMA_ENGINE3"), DW_AT_const_value(0x03)
    2250              $C$DW$189       .dwtag  DW_TAG_enumerator, DW_AT_name("CSL_DMA_ENGINEINV"), DW_AT_const_value(0x04)
    2251                      .dwendtag $C$DW$T$29
    2252              
    2253              $C$DW$T$30      .dwtag  DW_TAG_typedef, DW_AT_name("CSL_DMAEngineId")
    2254                      .dwattr $C$DW$T$30, DW_AT_type(*$C$DW$T$29)
    2255                      .dwattr $C$DW$T$30, DW_AT_language(DW_LANG_C)
    2256              
    2257              $C$DW$T$32      .dwtag  DW_TAG_enumeration_type
    2258                      .dwattr $C$DW$T$32, DW_AT_byte_size(0x01)
    2259              $C$DW$190       .dwtag  DW_TAG_enumerator, DW_AT_name("CSL_DMA_READ"), DW_AT_const_value(0x00)
    2260              $C$DW$191       .dwtag  DW_TAG_enumerator, DW_AT_name("CSL_DMA_WRITE"), DW_AT_const_value(0x01)
    2261                      .dwendtag $C$DW$T$32
    2262              
    2263              $C$DW$T$33      .dwtag  DW_TAG_typedef, DW_AT_name("CSL_DMAChanDir")
    2264                      .dwattr $C$DW$T$33, DW_AT_type(*$C$DW$T$32)
TMS320C55x Assembler PC v4.4.1 Sat Sep 29 23:09:37 2018

Tools Copyright (c) 1996-2012 Texas Instruments Incorporated
csl_i2c_dmaWordSwap_example.asm                                      PAGE   67

    2265                      .dwattr $C$DW$T$33, DW_AT_language(DW_LANG_C)
    2266              
    2267              $C$DW$T$34      .dwtag  DW_TAG_enumeration_type
    2268                      .dwattr $C$DW$T$34, DW_AT_byte_size(0x01)
    2269              $C$DW$192       .dwtag  DW_TAG_enumerator, DW_AT_name("CSL_DMA_SOFTWARE_TRIGGER"), DW_AT_const_value(0x00)
    2270              $C$DW$193       .dwtag  DW_TAG_enumerator, DW_AT_name("CSL_DMA_EVENT_TRIGGER"), DW_AT_const_value(0x01)
    2271                      .dwendtag $C$DW$T$34
    2272              
    2273              $C$DW$T$35      .dwtag  DW_TAG_typedef, DW_AT_name("CSL_DMATriggerType")
    2274                      .dwattr $C$DW$T$35, DW_AT_type(*$C$DW$T$34)
    2275                      .dwattr $C$DW$T$35, DW_AT_language(DW_LANG_C)
    2276              
    2277              $C$DW$T$36      .dwtag  DW_TAG_enumeration_type
    2278                      .dwattr $C$DW$T$36, DW_AT_byte_size(0x01)
    2279              $C$DW$194       .dwtag  DW_TAG_enumerator, DW_AT_name("CSL_DMA_TRANSFER_IO_MEMORY"), DW_AT_const_value(0x00)
    2280              $C$DW$195       .dwtag  DW_TAG_enumerator, DW_AT_name("CSL_DMA_TRANSFER_MEMORY"), DW_AT_const_value(0x01)
    2281                      .dwendtag $C$DW$T$36
    2282              
    2283              $C$DW$T$37      .dwtag  DW_TAG_typedef, DW_AT_name("CSL_DMATransferType")
    2284                      .dwattr $C$DW$T$37, DW_AT_type(*$C$DW$T$36)
    2285                      .dwattr $C$DW$T$37, DW_AT_language(DW_LANG_C)
    2286              
    2287              $C$DW$T$38      .dwtag  DW_TAG_enumeration_type
    2288                      .dwattr $C$DW$T$38, DW_AT_byte_size(0x01)
    2289              $C$DW$196       .dwtag  DW_TAG_enumerator, DW_AT_name("CSL_DMA_INTERRUPT_DISABLE"), DW_AT_const_value(0x00)
    2290              $C$DW$197       .dwtag  DW_TAG_enumerator, DW_AT_name("CSL_DMA_INTERRUPT_ENABLE"), DW_AT_const_value(0x01)
    2291                      .dwendtag $C$DW$T$38
    2292              
    2293              $C$DW$T$39      .dwtag  DW_TAG_typedef, DW_AT_name("CSL_DMAInterruptState")
    2294                      .dwattr $C$DW$T$39, DW_AT_type(*$C$DW$T$38)
    2295                      .dwattr $C$DW$T$39, DW_AT_language(DW_LANG_C)
    2296              
    2297              $C$DW$T$41      .dwtag  DW_TAG_enumeration_type
    2298                      .dwattr $C$DW$T$41, DW_AT_byte_size(0x01)
    2299              $C$DW$198       .dwtag  DW_TAG_enumerator, DW_AT_name("CSL_DMA_PING_PONG_DISABLE"), DW_AT_const_value(0x00)
    2300              $C$DW$199       .dwtag  DW_TAG_enumerator, DW_AT_name("CSL_DMA_PING_PONG_ENABLE"), DW_AT_const_value(0x01)
    2301                      .dwendtag $C$DW$T$41
    2302              
    2303              $C$DW$T$42      .dwtag  DW_TAG_typedef, DW_AT_name("CSL_DMAPingPongMode")
    2304                      .dwattr $C$DW$T$42, DW_AT_type(*$C$DW$T$41)
    2305                      .dwattr $C$DW$T$42, DW_AT_language(DW_LANG_C)
    2306              
    2307              $C$DW$T$43      .dwtag  DW_TAG_enumeration_type
    2308                      .dwattr $C$DW$T$43, DW_AT_byte_size(0x01)
    2309              $C$DW$200       .dwtag  DW_TAG_enumerator, DW_AT_name("CSL_DMA_AUTORELOAD_DISABLE"), DW_AT_const_value(0x00)
    2310              $C$DW$201       .dwtag  DW_TAG_enumerator, DW_AT_name("CSL_DMA_AUTORELOAD_ENABLE"), DW_AT_const_value(0x01)
    2311                      .dwendtag $C$DW$T$43
    2312              
    2313              $C$DW$T$44      .dwtag  DW_TAG_typedef, DW_AT_name("CSL_DMAAutoReloadMode")
    2314                      .dwattr $C$DW$T$44, DW_AT_type(*$C$DW$T$43)
    2315                      .dwattr $C$DW$T$44, DW_AT_language(DW_LANG_C)
    2316              
    2317              $C$DW$T$45      .dwtag  DW_TAG_enumeration_type
    2318                      .dwattr $C$DW$T$45, DW_AT_byte_size(0x01)
    2319              $C$DW$202       .dwtag  DW_TAG_enumerator, DW_AT_name("CSL_DMA_TXBURST_1WORD"), DW_AT_const_value(0x00)
TMS320C55x Assembler PC v4.4.1 Sat Sep 29 23:09:37 2018

Tools Copyright (c) 1996-2012 Texas Instruments Incorporated
csl_i2c_dmaWordSwap_example.asm                                      PAGE   68

    2320              $C$DW$203       .dwtag  DW_TAG_enumerator, DW_AT_name("CSL_DMA_TXBURST_2WORD"), DW_AT_const_value(0x01)
    2321              $C$DW$204       .dwtag  DW_TAG_enumerator, DW_AT_name("CSL_DMA_TXBURST_4WORD"), DW_AT_const_value(0x02)
    2322              $C$DW$205       .dwtag  DW_TAG_enumerator, DW_AT_name("CSL_DMA_TXBURST_8WORD"), DW_AT_const_value(0x03)
    2323              $C$DW$206       .dwtag  DW_TAG_enumerator, DW_AT_name("CSL_DMA_TXBURST_16WORD"), DW_AT_const_value(0x04)
    2324                      .dwendtag $C$DW$T$45
    2325              
    2326              $C$DW$T$46      .dwtag  DW_TAG_typedef, DW_AT_name("CSL_DMATxBurstLen")
    2327                      .dwattr $C$DW$T$46, DW_AT_type(*$C$DW$T$45)
    2328                      .dwattr $C$DW$T$46, DW_AT_language(DW_LANG_C)
    2329              
    2330              $C$DW$T$47      .dwtag  DW_TAG_enumeration_type
    2331                      .dwattr $C$DW$T$47, DW_AT_byte_size(0x01)
    2332              $C$DW$207       .dwtag  DW_TAG_enumerator, DW_AT_name("CSL_DMA_EVT_NONE"), DW_AT_const_value(0x00)
    2333              $C$DW$208       .dwtag  DW_TAG_enumerator, DW_AT_name("CSL_DMA_EVT_I2S0_TX"), DW_AT_const_value(0x01)
    2334              $C$DW$209       .dwtag  DW_TAG_enumerator, DW_AT_name("CSL_DMA_EVT_I2S0_RX"), DW_AT_const_value(0x02)
    2335              $C$DW$210       .dwtag  DW_TAG_enumerator, DW_AT_name("CSL_DMA_EVT_I2S1_TX"), DW_AT_const_value(0x01)
    2336              $C$DW$211       .dwtag  DW_TAG_enumerator, DW_AT_name("CSL_DMA_EVT_I2S1_RX"), DW_AT_const_value(0x02)
    2337              $C$DW$212       .dwtag  DW_TAG_enumerator, DW_AT_name("CSL_DMA_EVT_I2S2_TX"), DW_AT_const_value(0x01)
    2338              $C$DW$213       .dwtag  DW_TAG_enumerator, DW_AT_name("CSL_DMA_EVT_I2S2_RX"), DW_AT_const_value(0x02)
    2339              $C$DW$214       .dwtag  DW_TAG_enumerator, DW_AT_name("CSL_DMA_EVT_I2S3_TX"), DW_AT_const_value(0x04)
    2340              $C$DW$215       .dwtag  DW_TAG_enumerator, DW_AT_name("CSL_DMA_EVT_I2S3_RX"), DW_AT_const_value(0x05)
    2341              $C$DW$216       .dwtag  DW_TAG_enumerator, DW_AT_name("CSL_DMA_EVT_MMC_SD0_TX"), DW_AT_const_value(0x05)
    2342              $C$DW$217       .dwtag  DW_TAG_enumerator, DW_AT_name("CSL_DMA_EVT_MMC_SD0_RX"), DW_AT_const_value(0x06)
    2343              $C$DW$218       .dwtag  DW_TAG_enumerator, DW_AT_name("CSL_DMA_EVT_MMC_SD1_TX"), DW_AT_const_value(0x07)
    2344              $C$DW$219       .dwtag  DW_TAG_enumerator, DW_AT_name("CSL_DMA_EVT_MMC_SD1_RX"), DW_AT_const_value(0x08)
    2345              $C$DW$220       .dwtag  DW_TAG_enumerator, DW_AT_name("CSL_DMA_EVT_TIMER0"), DW_AT_const_value(0x0c)
    2346              $C$DW$221       .dwtag  DW_TAG_enumerator, DW_AT_name("CSL_DMA_EVT_TIMER1"), DW_AT_const_value(0x0d)
    2347              $C$DW$222       .dwtag  DW_TAG_enumerator, DW_AT_name("CSL_DMA_EVT_TIMER2"), DW_AT_const_value(0x0e)
    2348              $C$DW$223       .dwtag  DW_TAG_enumerator, DW_AT_name("CSL_DMA_EVT_UART_TX"), DW_AT_const_value(0x05)
    2349              $C$DW$224       .dwtag  DW_TAG_enumerator, DW_AT_name("CSL_DMA_EVT_UART_RX"), DW_AT_const_value(0x06)
    2350              $C$DW$225       .dwtag  DW_TAG_enumerator, DW_AT_name("CSL_DMA_EVT_I2C_TX"), DW_AT_const_value(0x01)
    2351              $C$DW$226       .dwtag  DW_TAG_enumerator, DW_AT_name("CSL_DMA_EVT_I2C_RX"), DW_AT_const_value(0x02)
    2352              $C$DW$227       .dwtag  DW_TAG_enumerator, DW_AT_name("CSL_DMA_EVT_SAR_AD"), DW_AT_const_value(0x03)
    2353              $C$DW$228       .dwtag  DW_TAG_enumerator, DW_AT_name("CSL_DMA_EVT_INVALID"), DW_AT_const_value(0x04)
    2354                      .dwendtag $C$DW$T$47
    2355              
    2356              $C$DW$T$48      .dwtag  DW_TAG_typedef, DW_AT_name("CSL_DMAEvtType")
    2357                      .dwattr $C$DW$T$48, DW_AT_type(*$C$DW$T$47)
    2358                      .dwattr $C$DW$T$48, DW_AT_language(DW_LANG_C)
    2359              
    2360              $C$DW$T$22      .dwtag  DW_TAG_structure_type
    2361                      .dwattr $C$DW$T$22, DW_AT_byte_size(0x66)
    2362              $C$DW$229       .dwtag  DW_TAG_member
    2363                      .dwattr $C$DW$229, DW_AT_type(*$C$DW$T$20)
    2364                      .dwattr $C$DW$229, DW_AT_name("DMACH0SSAL")
    2365                      .dwattr $C$DW$229, DW_AT_TI_symbol_name("_DMACH0SSAL")
    2366                      .dwattr $C$DW$229, DW_AT_data_member_location[DW_OP_plus_uconst 0x0]
    2367                      .dwattr $C$DW$229, DW_AT_accessibility(DW_ACCESS_public)
    2368              $C$DW$230       .dwtag  DW_TAG_member
    2369                      .dwattr $C$DW$230, DW_AT_type(*$C$DW$T$20)
    2370                      .dwattr $C$DW$230, DW_AT_name("DMACH0SSAU")
    2371                      .dwattr $C$DW$230, DW_AT_TI_symbol_name("_DMACH0SSAU")
    2372                      .dwattr $C$DW$230, DW_AT_data_member_location[DW_OP_plus_uconst 0x1]
    2373                      .dwattr $C$DW$230, DW_AT_accessibility(DW_ACCESS_public)
    2374              $C$DW$231       .dwtag  DW_TAG_member
TMS320C55x Assembler PC v4.4.1 Sat Sep 29 23:09:37 2018

Tools Copyright (c) 1996-2012 Texas Instruments Incorporated
csl_i2c_dmaWordSwap_example.asm                                      PAGE   69

    2375                      .dwattr $C$DW$231, DW_AT_type(*$C$DW$T$20)
    2376                      .dwattr $C$DW$231, DW_AT_name("DMACH0DSAL")
    2377                      .dwattr $C$DW$231, DW_AT_TI_symbol_name("_DMACH0DSAL")
    2378                      .dwattr $C$DW$231, DW_AT_data_member_location[DW_OP_plus_uconst 0x2]
    2379                      .dwattr $C$DW$231, DW_AT_accessibility(DW_ACCESS_public)
    2380              $C$DW$232       .dwtag  DW_TAG_member
    2381                      .dwattr $C$DW$232, DW_AT_type(*$C$DW$T$20)
    2382                      .dwattr $C$DW$232, DW_AT_name("DMACH0DSAU")
    2383                      .dwattr $C$DW$232, DW_AT_TI_symbol_name("_DMACH0DSAU")
    2384                      .dwattr $C$DW$232, DW_AT_data_member_location[DW_OP_plus_uconst 0x3]
    2385                      .dwattr $C$DW$232, DW_AT_accessibility(DW_ACCESS_public)
    2386              $C$DW$233       .dwtag  DW_TAG_member
    2387                      .dwattr $C$DW$233, DW_AT_type(*$C$DW$T$20)
    2388                      .dwattr $C$DW$233, DW_AT_name("DMACH0TCR1")
    2389                      .dwattr $C$DW$233, DW_AT_TI_symbol_name("_DMACH0TCR1")
    2390                      .dwattr $C$DW$233, DW_AT_data_member_location[DW_OP_plus_uconst 0x4]
    2391                      .dwattr $C$DW$233, DW_AT_accessibility(DW_ACCESS_public)
    2392              $C$DW$234       .dwtag  DW_TAG_member
    2393                      .dwattr $C$DW$234, DW_AT_type(*$C$DW$T$20)
    2394                      .dwattr $C$DW$234, DW_AT_name("DMACH0TCR2")
    2395                      .dwattr $C$DW$234, DW_AT_TI_symbol_name("_DMACH0TCR2")
    2396                      .dwattr $C$DW$234, DW_AT_data_member_location[DW_OP_plus_uconst 0x5]
    2397                      .dwattr $C$DW$234, DW_AT_accessibility(DW_ACCESS_public)
    2398              $C$DW$235       .dwtag  DW_TAG_member
    2399                      .dwattr $C$DW$235, DW_AT_type(*$C$DW$T$21)
    2400                      .dwattr $C$DW$235, DW_AT_name("RSVD0")
    2401                      .dwattr $C$DW$235, DW_AT_TI_symbol_name("_RSVD0")
    2402                      .dwattr $C$DW$235, DW_AT_data_member_location[DW_OP_plus_uconst 0x6]
    2403                      .dwattr $C$DW$235, DW_AT_accessibility(DW_ACCESS_public)
    2404              $C$DW$236       .dwtag  DW_TAG_member
    2405                      .dwattr $C$DW$236, DW_AT_type(*$C$DW$T$20)
    2406                      .dwattr $C$DW$236, DW_AT_name("DMACH1SSAL")
    2407                      .dwattr $C$DW$236, DW_AT_TI_symbol_name("_DMACH1SSAL")
    2408                      .dwattr $C$DW$236, DW_AT_data_member_location[DW_OP_plus_uconst 0x20]
    2409                      .dwattr $C$DW$236, DW_AT_accessibility(DW_ACCESS_public)
    2410              $C$DW$237       .dwtag  DW_TAG_member
    2411                      .dwattr $C$DW$237, DW_AT_type(*$C$DW$T$20)
    2412                      .dwattr $C$DW$237, DW_AT_name("DMACH1SSAU")
    2413                      .dwattr $C$DW$237, DW_AT_TI_symbol_name("_DMACH1SSAU")
    2414                      .dwattr $C$DW$237, DW_AT_data_member_location[DW_OP_plus_uconst 0x21]
    2415                      .dwattr $C$DW$237, DW_AT_accessibility(DW_ACCESS_public)
    2416              $C$DW$238       .dwtag  DW_TAG_member
    2417                      .dwattr $C$DW$238, DW_AT_type(*$C$DW$T$20)
    2418                      .dwattr $C$DW$238, DW_AT_name("DMACH1DSAL")
    2419                      .dwattr $C$DW$238, DW_AT_TI_symbol_name("_DMACH1DSAL")
    2420                      .dwattr $C$DW$238, DW_AT_data_member_location[DW_OP_plus_uconst 0x22]
    2421                      .dwattr $C$DW$238, DW_AT_accessibility(DW_ACCESS_public)
    2422              $C$DW$239       .dwtag  DW_TAG_member
    2423                      .dwattr $C$DW$239, DW_AT_type(*$C$DW$T$20)
    2424                      .dwattr $C$DW$239, DW_AT_name("DMACH1DSAU")
    2425                      .dwattr $C$DW$239, DW_AT_TI_symbol_name("_DMACH1DSAU")
    2426                      .dwattr $C$DW$239, DW_AT_data_member_location[DW_OP_plus_uconst 0x23]
    2427                      .dwattr $C$DW$239, DW_AT_accessibility(DW_ACCESS_public)
    2428              $C$DW$240       .dwtag  DW_TAG_member
    2429                      .dwattr $C$DW$240, DW_AT_type(*$C$DW$T$20)
TMS320C55x Assembler PC v4.4.1 Sat Sep 29 23:09:37 2018

Tools Copyright (c) 1996-2012 Texas Instruments Incorporated
csl_i2c_dmaWordSwap_example.asm                                      PAGE   70

    2430                      .dwattr $C$DW$240, DW_AT_name("DMACH1TCR1")
    2431                      .dwattr $C$DW$240, DW_AT_TI_symbol_name("_DMACH1TCR1")
    2432                      .dwattr $C$DW$240, DW_AT_data_member_location[DW_OP_plus_uconst 0x24]
    2433                      .dwattr $C$DW$240, DW_AT_accessibility(DW_ACCESS_public)
    2434              $C$DW$241       .dwtag  DW_TAG_member
    2435                      .dwattr $C$DW$241, DW_AT_type(*$C$DW$T$20)
    2436                      .dwattr $C$DW$241, DW_AT_name("DMACH1TCR2")
    2437                      .dwattr $C$DW$241, DW_AT_TI_symbol_name("_DMACH1TCR2")
    2438                      .dwattr $C$DW$241, DW_AT_data_member_location[DW_OP_plus_uconst 0x25]
    2439                      .dwattr $C$DW$241, DW_AT_accessibility(DW_ACCESS_public)
    2440              $C$DW$242       .dwtag  DW_TAG_member
    2441                      .dwattr $C$DW$242, DW_AT_type(*$C$DW$T$21)
    2442                      .dwattr $C$DW$242, DW_AT_name("RSVD1")
    2443                      .dwattr $C$DW$242, DW_AT_TI_symbol_name("_RSVD1")
    2444                      .dwattr $C$DW$242, DW_AT_data_member_location[DW_OP_plus_uconst 0x26]
    2445                      .dwattr $C$DW$242, DW_AT_accessibility(DW_ACCESS_public)
    2446              $C$DW$243       .dwtag  DW_TAG_member
    2447                      .dwattr $C$DW$243, DW_AT_type(*$C$DW$T$20)
    2448                      .dwattr $C$DW$243, DW_AT_name("DMACH2SSAL")
    2449                      .dwattr $C$DW$243, DW_AT_TI_symbol_name("_DMACH2SSAL")
    2450                      .dwattr $C$DW$243, DW_AT_data_member_location[DW_OP_plus_uconst 0x40]
    2451                      .dwattr $C$DW$243, DW_AT_accessibility(DW_ACCESS_public)
    2452              $C$DW$244       .dwtag  DW_TAG_member
    2453                      .dwattr $C$DW$244, DW_AT_type(*$C$DW$T$20)
    2454                      .dwattr $C$DW$244, DW_AT_name("DMACH2SSAU")
    2455                      .dwattr $C$DW$244, DW_AT_TI_symbol_name("_DMACH2SSAU")
    2456                      .dwattr $C$DW$244, DW_AT_data_member_location[DW_OP_plus_uconst 0x41]
    2457                      .dwattr $C$DW$244, DW_AT_accessibility(DW_ACCESS_public)
    2458              $C$DW$245       .dwtag  DW_TAG_member
    2459                      .dwattr $C$DW$245, DW_AT_type(*$C$DW$T$20)
    2460                      .dwattr $C$DW$245, DW_AT_name("DMACH2DSAL")
    2461                      .dwattr $C$DW$245, DW_AT_TI_symbol_name("_DMACH2DSAL")
    2462                      .dwattr $C$DW$245, DW_AT_data_member_location[DW_OP_plus_uconst 0x42]
    2463                      .dwattr $C$DW$245, DW_AT_accessibility(DW_ACCESS_public)
    2464              $C$DW$246       .dwtag  DW_TAG_member
    2465                      .dwattr $C$DW$246, DW_AT_type(*$C$DW$T$20)
    2466                      .dwattr $C$DW$246, DW_AT_name("DMACH2DSAU")
    2467                      .dwattr $C$DW$246, DW_AT_TI_symbol_name("_DMACH2DSAU")
    2468                      .dwattr $C$DW$246, DW_AT_data_member_location[DW_OP_plus_uconst 0x43]
    2469                      .dwattr $C$DW$246, DW_AT_accessibility(DW_ACCESS_public)
    2470              $C$DW$247       .dwtag  DW_TAG_member
    2471                      .dwattr $C$DW$247, DW_AT_type(*$C$DW$T$20)
    2472                      .dwattr $C$DW$247, DW_AT_name("DMACH2TCR1")
    2473                      .dwattr $C$DW$247, DW_AT_TI_symbol_name("_DMACH2TCR1")
    2474                      .dwattr $C$DW$247, DW_AT_data_member_location[DW_OP_plus_uconst 0x44]
    2475                      .dwattr $C$DW$247, DW_AT_accessibility(DW_ACCESS_public)
    2476              $C$DW$248       .dwtag  DW_TAG_member
    2477                      .dwattr $C$DW$248, DW_AT_type(*$C$DW$T$20)
    2478                      .dwattr $C$DW$248, DW_AT_name("DMACH2TCR2")
    2479                      .dwattr $C$DW$248, DW_AT_TI_symbol_name("_DMACH2TCR2")
    2480                      .dwattr $C$DW$248, DW_AT_data_member_location[DW_OP_plus_uconst 0x45]
    2481                      .dwattr $C$DW$248, DW_AT_accessibility(DW_ACCESS_public)
    2482              $C$DW$249       .dwtag  DW_TAG_member
    2483                      .dwattr $C$DW$249, DW_AT_type(*$C$DW$T$21)
    2484                      .dwattr $C$DW$249, DW_AT_name("RSVD2")
TMS320C55x Assembler PC v4.4.1 Sat Sep 29 23:09:37 2018

Tools Copyright (c) 1996-2012 Texas Instruments Incorporated
csl_i2c_dmaWordSwap_example.asm                                      PAGE   71

    2485                      .dwattr $C$DW$249, DW_AT_TI_symbol_name("_RSVD2")
    2486                      .dwattr $C$DW$249, DW_AT_data_member_location[DW_OP_plus_uconst 0x46]
    2487                      .dwattr $C$DW$249, DW_AT_accessibility(DW_ACCESS_public)
    2488              $C$DW$250       .dwtag  DW_TAG_member
    2489                      .dwattr $C$DW$250, DW_AT_type(*$C$DW$T$20)
    2490                      .dwattr $C$DW$250, DW_AT_name("DMACH3SSAL")
    2491                      .dwattr $C$DW$250, DW_AT_TI_symbol_name("_DMACH3SSAL")
    2492                      .dwattr $C$DW$250, DW_AT_data_member_location[DW_OP_plus_uconst 0x60]
    2493                      .dwattr $C$DW$250, DW_AT_accessibility(DW_ACCESS_public)
    2494              $C$DW$251       .dwtag  DW_TAG_member
    2495                      .dwattr $C$DW$251, DW_AT_type(*$C$DW$T$20)
    2496                      .dwattr $C$DW$251, DW_AT_name("DMACH3SSAU")
    2497                      .dwattr $C$DW$251, DW_AT_TI_symbol_name("_DMACH3SSAU")
    2498                      .dwattr $C$DW$251, DW_AT_data_member_location[DW_OP_plus_uconst 0x61]
    2499                      .dwattr $C$DW$251, DW_AT_accessibility(DW_ACCESS_public)
    2500              $C$DW$252       .dwtag  DW_TAG_member
    2501                      .dwattr $C$DW$252, DW_AT_type(*$C$DW$T$20)
    2502                      .dwattr $C$DW$252, DW_AT_name("DMACH3DSAL")
    2503                      .dwattr $C$DW$252, DW_AT_TI_symbol_name("_DMACH3DSAL")
    2504                      .dwattr $C$DW$252, DW_AT_data_member_location[DW_OP_plus_uconst 0x62]
    2505                      .dwattr $C$DW$252, DW_AT_accessibility(DW_ACCESS_public)
    2506              $C$DW$253       .dwtag  DW_TAG_member
    2507                      .dwattr $C$DW$253, DW_AT_type(*$C$DW$T$20)
    2508                      .dwattr $C$DW$253, DW_AT_name("DMACH3DSAU")
    2509                      .dwattr $C$DW$253, DW_AT_TI_symbol_name("_DMACH3DSAU")
    2510                      .dwattr $C$DW$253, DW_AT_data_member_location[DW_OP_plus_uconst 0x63]
    2511                      .dwattr $C$DW$253, DW_AT_accessibility(DW_ACCESS_public)
    2512              $C$DW$254       .dwtag  DW_TAG_member
    2513                      .dwattr $C$DW$254, DW_AT_type(*$C$DW$T$20)
    2514                      .dwattr $C$DW$254, DW_AT_name("DMACH3TCR1")
    2515                      .dwattr $C$DW$254, DW_AT_TI_symbol_name("_DMACH3TCR1")
    2516                      .dwattr $C$DW$254, DW_AT_data_member_location[DW_OP_plus_uconst 0x64]
    2517                      .dwattr $C$DW$254, DW_AT_accessibility(DW_ACCESS_public)
    2518              $C$DW$255       .dwtag  DW_TAG_member
    2519                      .dwattr $C$DW$255, DW_AT_type(*$C$DW$T$20)
    2520                      .dwattr $C$DW$255, DW_AT_name("DMACH3TCR2")
    2521                      .dwattr $C$DW$255, DW_AT_TI_symbol_name("_DMACH3TCR2")
    2522                      .dwattr $C$DW$255, DW_AT_data_member_location[DW_OP_plus_uconst 0x65]
    2523                      .dwattr $C$DW$255, DW_AT_accessibility(DW_ACCESS_public)
    2524                      .dwendtag $C$DW$T$22
    2525              
    2526              $C$DW$T$23      .dwtag  DW_TAG_typedef, DW_AT_name("CSL_DmaRegs")
    2527                      .dwattr $C$DW$T$23, DW_AT_type(*$C$DW$T$22)
    2528                      .dwattr $C$DW$T$23, DW_AT_language(DW_LANG_C)
    2529              $C$DW$256       .dwtag  DW_TAG_TI_far_type
    2530                      .dwattr $C$DW$256, DW_AT_type(*$C$DW$T$23)
    2531              $C$DW$257       .dwtag  DW_TAG_TI_ioport_type
    2532                      .dwattr $C$DW$257, DW_AT_type(*$C$DW$256)
    2533              $C$DW$T$24      .dwtag  DW_TAG_volatile_type
    2534                      .dwattr $C$DW$T$24, DW_AT_type(*$C$DW$257)
    2535              $C$DW$T$25      .dwtag  DW_TAG_pointer_type
    2536                      .dwattr $C$DW$T$25, DW_AT_type(*$C$DW$T$24)
    2537                      .dwattr $C$DW$T$25, DW_AT_address_class(0x10)
    2538              $C$DW$T$26      .dwtag  DW_TAG_typedef, DW_AT_name("CSL_DmaRegsOvly")
    2539                      .dwattr $C$DW$T$26, DW_AT_type(*$C$DW$T$25)
TMS320C55x Assembler PC v4.4.1 Sat Sep 29 23:09:37 2018

Tools Copyright (c) 1996-2012 Texas Instruments Incorporated
csl_i2c_dmaWordSwap_example.asm                                      PAGE   72

    2540                      .dwattr $C$DW$T$26, DW_AT_language(DW_LANG_C)
    2541              
    2542              $C$DW$T$40      .dwtag  DW_TAG_structure_type
    2543                      .dwattr $C$DW$T$40, DW_AT_byte_size(0x09)
    2544              $C$DW$258       .dwtag  DW_TAG_member
    2545                      .dwattr $C$DW$258, DW_AT_type(*$C$DW$T$26)
    2546                      .dwattr $C$DW$258, DW_AT_name("dmaRegs")
    2547                      .dwattr $C$DW$258, DW_AT_TI_symbol_name("_dmaRegs")
    2548                      .dwattr $C$DW$258, DW_AT_data_member_location[DW_OP_plus_uconst 0x0]
    2549                      .dwattr $C$DW$258, DW_AT_accessibility(DW_ACCESS_public)
    2550              $C$DW$259       .dwtag  DW_TAG_member
    2551                      .dwattr $C$DW$259, DW_AT_type(*$C$DW$T$28)
    2552                      .dwattr $C$DW$259, DW_AT_name("chanNum")
    2553                      .dwattr $C$DW$259, DW_AT_TI_symbol_name("_chanNum")
    2554                      .dwattr $C$DW$259, DW_AT_data_member_location[DW_OP_plus_uconst 0x1]
    2555                      .dwattr $C$DW$259, DW_AT_accessibility(DW_ACCESS_public)
    2556              $C$DW$260       .dwtag  DW_TAG_member
    2557                      .dwattr $C$DW$260, DW_AT_type(*$C$DW$T$30)
    2558                      .dwattr $C$DW$260, DW_AT_name("dmaInstNum")
    2559                      .dwattr $C$DW$260, DW_AT_TI_symbol_name("_dmaInstNum")
    2560                      .dwattr $C$DW$260, DW_AT_data_member_location[DW_OP_plus_uconst 0x2]
    2561                      .dwattr $C$DW$260, DW_AT_accessibility(DW_ACCESS_public)
    2562              $C$DW$261       .dwtag  DW_TAG_member
    2563                      .dwattr $C$DW$261, DW_AT_type(*$C$DW$T$31)
    2564                      .dwattr $C$DW$261, DW_AT_name("isChanFree")
    2565                      .dwattr $C$DW$261, DW_AT_TI_symbol_name("_isChanFree")
    2566                      .dwattr $C$DW$261, DW_AT_data_member_location[DW_OP_plus_uconst 0x3]
    2567                      .dwattr $C$DW$261, DW_AT_accessibility(DW_ACCESS_public)
    2568              $C$DW$262       .dwtag  DW_TAG_member
    2569                      .dwattr $C$DW$262, DW_AT_type(*$C$DW$T$33)
    2570                      .dwattr $C$DW$262, DW_AT_name("chanDir")
    2571                      .dwattr $C$DW$262, DW_AT_TI_symbol_name("_chanDir")
    2572                      .dwattr $C$DW$262, DW_AT_data_member_location[DW_OP_plus_uconst 0x4]
    2573                      .dwattr $C$DW$262, DW_AT_accessibility(DW_ACCESS_public)
    2574              $C$DW$263       .dwtag  DW_TAG_member
    2575                      .dwattr $C$DW$263, DW_AT_type(*$C$DW$T$35)
    2576                      .dwattr $C$DW$263, DW_AT_name("trigger")
    2577                      .dwattr $C$DW$263, DW_AT_TI_symbol_name("_trigger")
    2578                      .dwattr $C$DW$263, DW_AT_data_member_location[DW_OP_plus_uconst 0x5]
    2579                      .dwattr $C$DW$263, DW_AT_accessibility(DW_ACCESS_public)
    2580              $C$DW$264       .dwtag  DW_TAG_member
    2581                      .dwattr $C$DW$264, DW_AT_type(*$C$DW$T$37)
    2582                      .dwattr $C$DW$264, DW_AT_name("trfType")
    2583                      .dwattr $C$DW$264, DW_AT_TI_symbol_name("_trfType")
    2584                      .dwattr $C$DW$264, DW_AT_data_member_location[DW_OP_plus_uconst 0x6]
    2585                      .dwattr $C$DW$264, DW_AT_accessibility(DW_ACCESS_public)
    2586              $C$DW$265       .dwtag  DW_TAG_member
    2587                      .dwattr $C$DW$265, DW_AT_type(*$C$DW$T$39)
    2588                      .dwattr $C$DW$265, DW_AT_name("dmaInt")
    2589                      .dwattr $C$DW$265, DW_AT_TI_symbol_name("_dmaInt")
    2590                      .dwattr $C$DW$265, DW_AT_data_member_location[DW_OP_plus_uconst 0x7]
    2591                      .dwattr $C$DW$265, DW_AT_accessibility(DW_ACCESS_public)
    2592              $C$DW$266       .dwtag  DW_TAG_member
    2593                      .dwattr $C$DW$266, DW_AT_type(*$C$DW$T$31)
    2594                      .dwattr $C$DW$266, DW_AT_name("pingPongEnabled")
TMS320C55x Assembler PC v4.4.1 Sat Sep 29 23:09:37 2018

Tools Copyright (c) 1996-2012 Texas Instruments Incorporated
csl_i2c_dmaWordSwap_example.asm                                      PAGE   73

    2595                      .dwattr $C$DW$266, DW_AT_TI_symbol_name("_pingPongEnabled")
    2596                      .dwattr $C$DW$266, DW_AT_data_member_location[DW_OP_plus_uconst 0x8]
    2597                      .dwattr $C$DW$266, DW_AT_accessibility(DW_ACCESS_public)
    2598                      .dwendtag $C$DW$T$40
    2599              
    2600              $C$DW$T$82      .dwtag  DW_TAG_typedef, DW_AT_name("CSL_DMA_ChannelObj")
    2601                      .dwattr $C$DW$T$82, DW_AT_type(*$C$DW$T$40)
    2602                      .dwattr $C$DW$T$82, DW_AT_language(DW_LANG_C)
    2603              $C$DW$T$83      .dwtag  DW_TAG_pointer_type
    2604                      .dwattr $C$DW$T$83, DW_AT_type(*$C$DW$T$82)
    2605                      .dwattr $C$DW$T$83, DW_AT_address_class(0x17)
    2606              $C$DW$T$84      .dwtag  DW_TAG_typedef, DW_AT_name("CSL_DMA_Handle")
    2607                      .dwattr $C$DW$T$84, DW_AT_type(*$C$DW$T$83)
    2608                      .dwattr $C$DW$T$84, DW_AT_language(DW_LANG_C)
    2609              
    2610              $C$DW$T$50      .dwtag  DW_TAG_structure_type
    2611                      .dwattr $C$DW$T$50, DW_AT_byte_size(0x0e)
    2612              $C$DW$267       .dwtag  DW_TAG_member
    2613                      .dwattr $C$DW$267, DW_AT_type(*$C$DW$T$42)
    2614                      .dwattr $C$DW$267, DW_AT_name("pingPongMode")
    2615                      .dwattr $C$DW$267, DW_AT_TI_symbol_name("_pingPongMode")
    2616                      .dwattr $C$DW$267, DW_AT_data_member_location[DW_OP_plus_uconst 0x0]
    2617                      .dwattr $C$DW$267, DW_AT_accessibility(DW_ACCESS_public)
    2618              $C$DW$268       .dwtag  DW_TAG_member
    2619                      .dwattr $C$DW$268, DW_AT_type(*$C$DW$T$44)
    2620                      .dwattr $C$DW$268, DW_AT_name("autoMode")
    2621                      .dwattr $C$DW$268, DW_AT_TI_symbol_name("_autoMode")
    2622                      .dwattr $C$DW$268, DW_AT_data_member_location[DW_OP_plus_uconst 0x1]
    2623                      .dwattr $C$DW$268, DW_AT_accessibility(DW_ACCESS_public)
    2624              $C$DW$269       .dwtag  DW_TAG_member
    2625                      .dwattr $C$DW$269, DW_AT_type(*$C$DW$T$46)
    2626                      .dwattr $C$DW$269, DW_AT_name("burstLen")
    2627                      .dwattr $C$DW$269, DW_AT_TI_symbol_name("_burstLen")
    2628                      .dwattr $C$DW$269, DW_AT_data_member_location[DW_OP_plus_uconst 0x2]
    2629                      .dwattr $C$DW$269, DW_AT_accessibility(DW_ACCESS_public)
    2630              $C$DW$270       .dwtag  DW_TAG_member
    2631                      .dwattr $C$DW$270, DW_AT_type(*$C$DW$T$35)
    2632                      .dwattr $C$DW$270, DW_AT_name("trigger")
    2633                      .dwattr $C$DW$270, DW_AT_TI_symbol_name("_trigger")
    2634                      .dwattr $C$DW$270, DW_AT_data_member_location[DW_OP_plus_uconst 0x3]
    2635                      .dwattr $C$DW$270, DW_AT_accessibility(DW_ACCESS_public)
    2636              $C$DW$271       .dwtag  DW_TAG_member
    2637                      .dwattr $C$DW$271, DW_AT_type(*$C$DW$T$48)
    2638                      .dwattr $C$DW$271, DW_AT_name("dmaEvt")
    2639                      .dwattr $C$DW$271, DW_AT_TI_symbol_name("_dmaEvt")
    2640                      .dwattr $C$DW$271, DW_AT_data_member_location[DW_OP_plus_uconst 0x4]
    2641                      .dwattr $C$DW$271, DW_AT_accessibility(DW_ACCESS_public)
    2642              $C$DW$272       .dwtag  DW_TAG_member
    2643                      .dwattr $C$DW$272, DW_AT_type(*$C$DW$T$39)
    2644                      .dwattr $C$DW$272, DW_AT_name("dmaInt")
    2645                      .dwattr $C$DW$272, DW_AT_TI_symbol_name("_dmaInt")
    2646                      .dwattr $C$DW$272, DW_AT_data_member_location[DW_OP_plus_uconst 0x5]
    2647                      .dwattr $C$DW$272, DW_AT_accessibility(DW_ACCESS_public)
    2648              $C$DW$273       .dwtag  DW_TAG_member
    2649                      .dwattr $C$DW$273, DW_AT_type(*$C$DW$T$33)
TMS320C55x Assembler PC v4.4.1 Sat Sep 29 23:09:37 2018

Tools Copyright (c) 1996-2012 Texas Instruments Incorporated
csl_i2c_dmaWordSwap_example.asm                                      PAGE   74

    2650                      .dwattr $C$DW$273, DW_AT_name("chanDir")
    2651                      .dwattr $C$DW$273, DW_AT_TI_symbol_name("_chanDir")
    2652                      .dwattr $C$DW$273, DW_AT_data_member_location[DW_OP_plus_uconst 0x6]
    2653                      .dwattr $C$DW$273, DW_AT_accessibility(DW_ACCESS_public)
    2654              $C$DW$274       .dwtag  DW_TAG_member
    2655                      .dwattr $C$DW$274, DW_AT_type(*$C$DW$T$37)
    2656                      .dwattr $C$DW$274, DW_AT_name("trfType")
    2657                      .dwattr $C$DW$274, DW_AT_TI_symbol_name("_trfType")
    2658                      .dwattr $C$DW$274, DW_AT_data_member_location[DW_OP_plus_uconst 0x7]
    2659                      .dwattr $C$DW$274, DW_AT_accessibility(DW_ACCESS_public)
    2660              $C$DW$275       .dwtag  DW_TAG_member
    2661                      .dwattr $C$DW$275, DW_AT_type(*$C$DW$T$19)
    2662                      .dwattr $C$DW$275, DW_AT_name("dataLen")
    2663                      .dwattr $C$DW$275, DW_AT_TI_symbol_name("_dataLen")
    2664                      .dwattr $C$DW$275, DW_AT_data_member_location[DW_OP_plus_uconst 0x8]
    2665                      .dwattr $C$DW$275, DW_AT_accessibility(DW_ACCESS_public)
    2666              $C$DW$276       .dwtag  DW_TAG_member
    2667                      .dwattr $C$DW$276, DW_AT_type(*$C$DW$T$49)
    2668                      .dwattr $C$DW$276, DW_AT_name("srcAddr")
    2669                      .dwattr $C$DW$276, DW_AT_TI_symbol_name("_srcAddr")
    2670                      .dwattr $C$DW$276, DW_AT_data_member_location[DW_OP_plus_uconst 0xa]
    2671                      .dwattr $C$DW$276, DW_AT_accessibility(DW_ACCESS_public)
    2672              $C$DW$277       .dwtag  DW_TAG_member
    2673                      .dwattr $C$DW$277, DW_AT_type(*$C$DW$T$49)
    2674                      .dwattr $C$DW$277, DW_AT_name("destAddr")
    2675                      .dwattr $C$DW$277, DW_AT_TI_symbol_name("_destAddr")
    2676                      .dwattr $C$DW$277, DW_AT_data_member_location[DW_OP_plus_uconst 0xc]
    2677                      .dwattr $C$DW$277, DW_AT_accessibility(DW_ACCESS_public)
    2678                      .dwendtag $C$DW$T$50
    2679              
    2680              $C$DW$T$92      .dwtag  DW_TAG_typedef, DW_AT_name("CSL_DMA_Config")
    2681                      .dwattr $C$DW$T$92, DW_AT_type(*$C$DW$T$50)
    2682                      .dwattr $C$DW$T$92, DW_AT_language(DW_LANG_C)
    2683              $C$DW$T$93      .dwtag  DW_TAG_pointer_type
    2684                      .dwattr $C$DW$T$93, DW_AT_type(*$C$DW$T$92)
    2685                      .dwattr $C$DW$T$93, DW_AT_address_class(0x17)
    2686              
    2687              $C$DW$T$52      .dwtag  DW_TAG_structure_type
    2688                      .dwattr $C$DW$T$52, DW_AT_byte_size(0x39)
    2689              $C$DW$278       .dwtag  DW_TAG_member
    2690                      .dwattr $C$DW$278, DW_AT_type(*$C$DW$T$20)
    2691                      .dwattr $C$DW$278, DW_AT_name("ICOAR")
    2692                      .dwattr $C$DW$278, DW_AT_TI_symbol_name("_ICOAR")
    2693                      .dwattr $C$DW$278, DW_AT_data_member_location[DW_OP_plus_uconst 0x0]
    2694                      .dwattr $C$DW$278, DW_AT_accessibility(DW_ACCESS_public)
    2695              $C$DW$279       .dwtag  DW_TAG_member
    2696                      .dwattr $C$DW$279, DW_AT_type(*$C$DW$T$51)
    2697                      .dwattr $C$DW$279, DW_AT_name("RSVD0")
    2698                      .dwattr $C$DW$279, DW_AT_TI_symbol_name("_RSVD0")
    2699                      .dwattr $C$DW$279, DW_AT_data_member_location[DW_OP_plus_uconst 0x1]
    2700                      .dwattr $C$DW$279, DW_AT_accessibility(DW_ACCESS_public)
    2701              $C$DW$280       .dwtag  DW_TAG_member
    2702                      .dwattr $C$DW$280, DW_AT_type(*$C$DW$T$20)
    2703                      .dwattr $C$DW$280, DW_AT_name("ICIMR")
    2704                      .dwattr $C$DW$280, DW_AT_TI_symbol_name("_ICIMR")
TMS320C55x Assembler PC v4.4.1 Sat Sep 29 23:09:37 2018

Tools Copyright (c) 1996-2012 Texas Instruments Incorporated
csl_i2c_dmaWordSwap_example.asm                                      PAGE   75

    2705                      .dwattr $C$DW$280, DW_AT_data_member_location[DW_OP_plus_uconst 0x4]
    2706                      .dwattr $C$DW$280, DW_AT_accessibility(DW_ACCESS_public)
    2707              $C$DW$281       .dwtag  DW_TAG_member
    2708                      .dwattr $C$DW$281, DW_AT_type(*$C$DW$T$51)
    2709                      .dwattr $C$DW$281, DW_AT_name("RSVD1")
    2710                      .dwattr $C$DW$281, DW_AT_TI_symbol_name("_RSVD1")
    2711                      .dwattr $C$DW$281, DW_AT_data_member_location[DW_OP_plus_uconst 0x5]
    2712                      .dwattr $C$DW$281, DW_AT_accessibility(DW_ACCESS_public)
    2713              $C$DW$282       .dwtag  DW_TAG_member
    2714                      .dwattr $C$DW$282, DW_AT_type(*$C$DW$T$20)
    2715                      .dwattr $C$DW$282, DW_AT_name("ICSTR")
    2716                      .dwattr $C$DW$282, DW_AT_TI_symbol_name("_ICSTR")
    2717                      .dwattr $C$DW$282, DW_AT_data_member_location[DW_OP_plus_uconst 0x8]
    2718                      .dwattr $C$DW$282, DW_AT_accessibility(DW_ACCESS_public)
    2719              $C$DW$283       .dwtag  DW_TAG_member
    2720                      .dwattr $C$DW$283, DW_AT_type(*$C$DW$T$51)
    2721                      .dwattr $C$DW$283, DW_AT_name("RSVD2")
    2722                      .dwattr $C$DW$283, DW_AT_TI_symbol_name("_RSVD2")
    2723                      .dwattr $C$DW$283, DW_AT_data_member_location[DW_OP_plus_uconst 0x9]
    2724                      .dwattr $C$DW$283, DW_AT_accessibility(DW_ACCESS_public)
    2725              $C$DW$284       .dwtag  DW_TAG_member
    2726                      .dwattr $C$DW$284, DW_AT_type(*$C$DW$T$20)
    2727                      .dwattr $C$DW$284, DW_AT_name("ICCLKL")
    2728                      .dwattr $C$DW$284, DW_AT_TI_symbol_name("_ICCLKL")
    2729                      .dwattr $C$DW$284, DW_AT_data_member_location[DW_OP_plus_uconst 0xc]
    2730                      .dwattr $C$DW$284, DW_AT_accessibility(DW_ACCESS_public)
    2731              $C$DW$285       .dwtag  DW_TAG_member
    2732                      .dwattr $C$DW$285, DW_AT_type(*$C$DW$T$51)
    2733                      .dwattr $C$DW$285, DW_AT_name("RSVD3")
    2734                      .dwattr $C$DW$285, DW_AT_TI_symbol_name("_RSVD3")
    2735                      .dwattr $C$DW$285, DW_AT_data_member_location[DW_OP_plus_uconst 0xd]
    2736                      .dwattr $C$DW$285, DW_AT_accessibility(DW_ACCESS_public)
    2737              $C$DW$286       .dwtag  DW_TAG_member
    2738                      .dwattr $C$DW$286, DW_AT_type(*$C$DW$T$20)
