TMS320C55x Assembler PC v4.4.1 Tue Oct 02 02:33:44 2018

Tools Copyright (c) 1996-2012 Texas Instruments Incorporated
csl_usb.asm                                                          PAGE    1

   10687              ; Temporary Registers Used: None
       1              ;*******************************************************************************
       2              ;* TMS320C55x C/C++ Codegen                                          PC v4.4.1 *
       3              ;* Date/Time created: Tue Oct 02 02:33:39 2018                                 *
       4              ;*******************************************************************************
       5                      .compiler_opts --hll_source=on --mem_model:code=flat --mem_model:data=large --object_format=coff --si
       6                      .mmregs
       7                      .cpl_on
       8                      .arms_on
       9                      .c54cm_off
      10                      .asg AR6, FP
      11                      .asg XAR6, XFP
      12                      .asg DPH, MDP
      13                      .model call=c55_std
      14                      .model mem=large
      15                      .noremark 5002  ; code respects overwrite rules
      16              ;*******************************************************************************
      17              ;* GLOBAL FILE PARAMETERS                                                      *
      18              ;*                                                                             *
      19              ;*   Architecture       : TMS320C55x                                           *
      20              ;*   Optimizing for     : Speed                                                *
      21              ;*   Memory             : Large Model (23-Bit Data Pointers)                   *
      22              ;*   Calls              : Normal Library ASM calls                             *
      23              ;*   Debug Info         : Standard TI Debug Information                        *
      24              ;*******************************************************************************
      25              
      26              $C$DW$CU        .dwtag  DW_TAG_compile_unit
      27                      .dwattr $C$DW$CU, DW_AT_name("../c5535_bsl_revc/ezdsp5535_v1/c55xx_csl/src/csl_usb.c")
      28                      .dwattr $C$DW$CU, DW_AT_producer("TMS320C55x C/C++ Codegen PC v4.4.1 Copyright (c) 1996-2012 Texas In
      29                      .dwattr $C$DW$CU, DW_AT_TI_version(0x01)
      30                      .dwattr $C$DW$CU, DW_AT_comp_dir("F:\eZdsp-DBG-sim\tmp1\c55x-sim2\foo\Debug")
      31                      .global _usbRegisters
      32 000000               .bss    _usbRegisters,1,0,0
      33              $C$DW$1 .dwtag  DW_TAG_variable, DW_AT_name("usbRegisters")
      34                      .dwattr $C$DW$1, DW_AT_TI_symbol_name("_usbRegisters")
      35                      .dwattr $C$DW$1, DW_AT_location[DW_OP_addr _usbRegisters]
      36                      .dwattr $C$DW$1, DW_AT_type(*$C$DW$T$133)
      37                      .dwattr $C$DW$1, DW_AT_external
      38                      .global _sysCtrlRegs
      39 000001               .bss    _sysCtrlRegs,1,0,0
      40              $C$DW$2 .dwtag  DW_TAG_variable, DW_AT_name("sysCtrlRegs")
      41                      .dwattr $C$DW$2, DW_AT_TI_symbol_name("_sysCtrlRegs")
      42                      .dwattr $C$DW$2, DW_AT_location[DW_OP_addr _sysCtrlRegs]
      43                      .dwattr $C$DW$2, DW_AT_type(*$C$DW$T$137)
      44                      .dwattr $C$DW$2, DW_AT_external
      45                      .global _gUsbContext
      46 000002               .bss    _gUsbContext,200,0,2
      47              $C$DW$3 .dwtag  DW_TAG_variable, DW_AT_name("gUsbContext")
      48                      .dwattr $C$DW$3, DW_AT_TI_symbol_name("_gUsbContext")
      49                      .dwattr $C$DW$3, DW_AT_location[DW_OP_addr _gUsbContext]
      50                      .dwattr $C$DW$3, DW_AT_type(*$C$DW$T$140)
      51                      .dwattr $C$DW$3, DW_AT_external
      52                      .global _gCtrlTransfer
      53 0000ca               .bss    _gCtrlTransfer,14,0,2
      54              $C$DW$4 .dwtag  DW_TAG_variable, DW_AT_name("gCtrlTransfer")
TMS320C55x Assembler PC v4.4.1 Tue Oct 02 02:33:44 2018

Tools Copyright (c) 1996-2012 Texas Instruments Incorporated
csl_usb.asm                                                          PAGE    2

      55                      .dwattr $C$DW$4, DW_AT_TI_symbol_name("_gCtrlTransfer")
      56                      .dwattr $C$DW$4, DW_AT_location[DW_OP_addr _gCtrlTransfer]
      57                      .dwattr $C$DW$4, DW_AT_type(*$C$DW$T$117)
      58                      .dwattr $C$DW$4, DW_AT_external
      59                      .global _gBulkInTransfer
      60 0000d8               .bss    _gBulkInTransfer,14,0,2
      61              $C$DW$5 .dwtag  DW_TAG_variable, DW_AT_name("gBulkInTransfer")
      62                      .dwattr $C$DW$5, DW_AT_TI_symbol_name("_gBulkInTransfer")
      63                      .dwattr $C$DW$5, DW_AT_location[DW_OP_addr _gBulkInTransfer]
      64                      .dwattr $C$DW$5, DW_AT_type(*$C$DW$T$117)
      65                      .dwattr $C$DW$5, DW_AT_external
      66                      .global _gBulkOutTransfer
      67 0000e6               .bss    _gBulkOutTransfer,14,0,2
      68              $C$DW$6 .dwtag  DW_TAG_variable, DW_AT_name("gBulkOutTransfer")
      69                      .dwattr $C$DW$6, DW_AT_TI_symbol_name("_gBulkOutTransfer")
      70                      .dwattr $C$DW$6, DW_AT_location[DW_OP_addr _gBulkOutTransfer]
      71                      .dwattr $C$DW$6, DW_AT_type(*$C$DW$T$117)
      72                      .dwattr $C$DW$6, DW_AT_external
      73                      .global _gIsoInTransfer
      74 0000f4               .bss    _gIsoInTransfer,14,0,2
      75              $C$DW$7 .dwtag  DW_TAG_variable, DW_AT_name("gIsoInTransfer")
      76                      .dwattr $C$DW$7, DW_AT_TI_symbol_name("_gIsoInTransfer")
      77                      .dwattr $C$DW$7, DW_AT_location[DW_OP_addr _gIsoInTransfer]
      78                      .dwattr $C$DW$7, DW_AT_type(*$C$DW$T$117)
      79                      .dwattr $C$DW$7, DW_AT_external
      80                      .global _gIsoOutTransfer
      81 000102               .bss    _gIsoOutTransfer,14,0,2
      82              $C$DW$8 .dwtag  DW_TAG_variable, DW_AT_name("gIsoOutTransfer")
      83                      .dwattr $C$DW$8, DW_AT_TI_symbol_name("_gIsoOutTransfer")
      84                      .dwattr $C$DW$8, DW_AT_location[DW_OP_addr _gIsoOutTransfer]
      85                      .dwattr $C$DW$8, DW_AT_type(*$C$DW$T$117)
      86                      .dwattr $C$DW$8, DW_AT_external
      87                      .global _gIntInTransfer
      88 000110               .bss    _gIntInTransfer,14,0,2
      89              $C$DW$9 .dwtag  DW_TAG_variable, DW_AT_name("gIntInTransfer")
      90                      .dwattr $C$DW$9, DW_AT_TI_symbol_name("_gIntInTransfer")
      91                      .dwattr $C$DW$9, DW_AT_location[DW_OP_addr _gIntInTransfer]
      92                      .dwattr $C$DW$9, DW_AT_type(*$C$DW$T$117)
      93                      .dwattr $C$DW$9, DW_AT_external
      94                      .global _gEpStatus
      95 00011e               .bss    _gEpStatus,144,0,2
      96              $C$DW$10        .dwtag  DW_TAG_variable, DW_AT_name("gEpStatus")
      97                      .dwattr $C$DW$10, DW_AT_TI_symbol_name("_gEpStatus")
      98                      .dwattr $C$DW$10, DW_AT_location[DW_OP_addr _gEpStatus]
      99                      .dwattr $C$DW$10, DW_AT_type(*$C$DW$T$148)
     100                      .dwattr $C$DW$10, DW_AT_external
     101                      .global _gUsbEpHandle
     102 0001ae               .bss    _gUsbEpHandle,16,0,2
     103              $C$DW$11        .dwtag  DW_TAG_variable, DW_AT_name("gUsbEpHandle")
     104                      .dwattr $C$DW$11, DW_AT_TI_symbol_name("_gUsbEpHandle")
     105                      .dwattr $C$DW$11, DW_AT_location[DW_OP_addr _gUsbEpHandle]
     106                      .dwattr $C$DW$11, DW_AT_type(*$C$DW$T$103)
     107                      .dwattr $C$DW$11, DW_AT_external
     108              ;       F:\t\cc5p5\ccsv5\tools\compiler\c5500_4.4.1\bin\acp55.exe -@f:\\AppData\\Local\\Temp\\0800812 
     109 000000               .sect   ".text"
TMS320C55x Assembler PC v4.4.1 Tue Oct 02 02:33:44 2018

Tools Copyright (c) 1996-2012 Texas Instruments Incorporated
csl_usb.asm                                                          PAGE    3

     110                      .align 4
     111              
     112              $C$DW$12        .dwtag  DW_TAG_subprogram, DW_AT_name("USB_checkSpeed")
     113                      .dwattr $C$DW$12, DW_AT_low_pc(_USB_checkSpeed)
     114                      .dwattr $C$DW$12, DW_AT_high_pc(0x00)
     115                      .dwattr $C$DW$12, DW_AT_TI_symbol_name("_USB_checkSpeed")
     116                      .dwattr $C$DW$12, DW_AT_type(*$C$DW$T$81)
     117                      .dwattr $C$DW$12, DW_AT_TI_begin_file("F:/eZdsp-DBG-sim/tmp1/c55x-sim2/foo/c5535_bsl_revc/ezdsp5535_v
     118                      .dwattr $C$DW$12, DW_AT_TI_begin_line(0x6b6)
     119                      .dwattr $C$DW$12, DW_AT_TI_begin_column(0x06)
     120                      .dwattr $C$DW$12, DW_AT_TI_max_frame_size(0x06)
     121                      .dwpsn  file "F:/eZdsp-DBG-sim/tmp1/c55x-sim2/foo/c5535_bsl_revc/ezdsp5535_v1/c55xx_csl/inc/csl_usbAu
     122              
     123                      .dwfde $C$DW$CIE, _USB_checkSpeed
     124              $C$DW$13        .dwtag  DW_TAG_formal_parameter, DW_AT_name("pContext")
     125                      .dwattr $C$DW$13, DW_AT_TI_symbol_name("_pContext")
     126                      .dwattr $C$DW$13, DW_AT_type(*$C$DW$T$142)
     127                      .dwattr $C$DW$13, DW_AT_location[DW_OP_reg17]
     128              $C$DW$14        .dwtag  DW_TAG_formal_parameter, DW_AT_name("pBusSpeed")
     129                      .dwattr $C$DW$14, DW_AT_TI_symbol_name("_pBusSpeed")
     130                      .dwattr $C$DW$14, DW_AT_type(*$C$DW$T$129)
     131                      .dwattr $C$DW$14, DW_AT_location[DW_OP_reg19]
     132              ;*******************************************************************************
     133              ;* FUNCTION NAME: USB_checkSpeed                                               *
     134              ;*                                                                             *
     135              ;*   Function Uses Regs : AC0,AC0,T0,AR0,XAR0,AR1,XAR1,AR3,XAR3,SP,TC1,M40,    *
     136              ;*                        SATA,SATD,RDM,FRCT,SMUL                              *
     137              ;*   Stack Frame        : Compact (No Frame Pointer, w/ debug)                 *
     138              ;*   Total Frame Size   : 6 words                                              *
     139              ;*                        (1 return address/alignment)                         *
     140              ;*                        (5 local values)                                     *
     141              ;*   Min System Stack   : 1 word                                               *
     142              ;*******************************************************************************
     143 000000       _USB_checkSpeed:
     144                      .dwcfi  cfa_offset, 1
     145                      .dwcfi  save_reg_to_mem, 91, -1
     146 000000 4EFB          AADD #-5, SP
     147                      .dwcfi  cfa_offset, 6
     148              $C$DW$15        .dwtag  DW_TAG_variable, DW_AT_name("pContext")
     149                      .dwattr $C$DW$15, DW_AT_TI_symbol_name("_pContext")
     150                      .dwattr $C$DW$15, DW_AT_type(*$C$DW$T$142)
     151                      .dwattr $C$DW$15, DW_AT_location[DW_OP_bregx 0x24 0]
     152              $C$DW$16        .dwtag  DW_TAG_variable, DW_AT_name("pBusSpeed")
     153                      .dwattr $C$DW$16, DW_AT_TI_symbol_name("_pBusSpeed")
     154                      .dwattr $C$DW$16, DW_AT_type(*$C$DW$T$129)
     155                      .dwattr $C$DW$16, DW_AT_location[DW_OP_bregx 0x24 2]
     156              $C$DW$17        .dwtag  DW_TAG_variable, DW_AT_name("wPower")
     157                      .dwattr $C$DW$17, DW_AT_TI_symbol_name("_wPower")
     158                      .dwattr $C$DW$17, DW_AT_type(*$C$DW$T$19)
     159                      .dwattr $C$DW$17, DW_AT_location[DW_OP_bregx 0x24 4]
     160 000002 EB04          MOV XAR1, dbl(*SP(#2))
         000004 95   
     161 000005 EB00          MOV XAR0, dbl(*SP(#0))
         000007 85   
     162                      .dwpsn  file "F:/eZdsp-DBG-sim/tmp1/c55x-sim2/foo/c5535_bsl_revc/ezdsp5535_v1/c55xx_csl/inc/csl_usbAu
TMS320C55x Assembler PC v4.4.1 Tue Oct 02 02:33:44 2018

Tools Copyright (c) 1996-2012 Texas Instruments Incorporated
csl_usb.asm                                                          PAGE    4

     163 000008 7604          MOV #1025, T0 ; |1723| 
         00000a 0148 
     164 00000c AB31          MOV *(#_usbRegisters), AR3 ; |1723| 
         00000e 0000 
         000010 00-  
     165 000011 A96B          MOV port(*AR3(T0)), AR1 ; |1723| 
         000013 99   
     166 000014 C908          MOV AR1, *SP(#4) ; |1723| 
     167                      .dwpsn  file "F:/eZdsp-DBG-sim/tmp1/c55x-sim2/foo/c5535_bsl_revc/ezdsp5535_v1/c55xx_csl/inc/csl_usbAu
     168 000016 6389          BCC $C$L1,AR1 == #0 ; |1725| 
     169                                                      ; branchcc occurs ; |1725| 
     170 000018 ED04          MOV dbl(*SP(#2)), XAR3
         00001a BF   
     171 00001b 90B0          MOV XAR3, AC0
     172 00001d 6210          BCC $C$L2,AC0 != #0 ; |1725| 
     173                                                      ; branchcc occurs ; |1725| 
     174 00001f       $C$L1:    
     175                      .dwpsn  file "F:/eZdsp-DBG-sim/tmp1/c55x-sim2/foo/c5535_bsl_revc/ezdsp5535_v1/c55xx_csl/inc/csl_usbAu
     176 00001f 3C04          MOV #0, T0
     177 000021 4A1B          B $C$L5   ; |1727| 
     178                                                      ; branch occurs ; |1727| 
     179 000023       $C$L2:    
     180                      .dwpsn  file "F:/eZdsp-DBG-sim/tmp1/c55x-sim2/foo/c5535_bsl_revc/ezdsp5535_v1/c55xx_csl/inc/csl_usbAu
     181 000023 AB31          MOV *(#_usbRegisters), AR3 ; |1734| 
         000025 0000 
         000027 00-  
     182 000028 DC6B          BTST #12, port(*AR3(T0)), TC1 ; |1734| 
         00002a C0   
         00002b 99   
     183 00002c 6474          BCC $C$L3,!TC1 ; |1734| 
     184                                                      ; branchcc occurs ; |1734| 
     185                      .dwpsn  file "F:/eZdsp-DBG-sim/tmp1/c55x-sim2/foo/c5535_bsl_revc/ezdsp5535_v1/c55xx_csl/inc/csl_usbAu
     186 00002e ED04          MOV dbl(*SP(#2)), XAR3
         000030 BF   
     187 000031 E661          MOV #4, *AR3 ; |1736| 
         000033 04   
     188                      .dwpsn  file "F:/eZdsp-DBG-sim/tmp1/c55x-sim2/foo/c5535_bsl_revc/ezdsp5535_v1/c55xx_csl/inc/csl_usbAu
     189 000034 4A06          B $C$L4   ; |1737| 
     190                                                      ; branch occurs ; |1737| 
     191 000036       $C$L3:    
     192                      .dwpsn  file "F:/eZdsp-DBG-sim/tmp1/c55x-sim2/foo/c5535_bsl_revc/ezdsp5535_v1/c55xx_csl/inc/csl_usbAu
     193 000036 ED04          MOV dbl(*SP(#2)), XAR3
         000038 BF   
     194 000039 E661          MOV #2, *AR3 ; |1740| 
         00003b 02   
     195 00003c       $C$L4:    
     196                      .dwpsn  file "F:/eZdsp-DBG-sim/tmp1/c55x-sim2/foo/c5535_bsl_revc/ezdsp5535_v1/c55xx_csl/inc/csl_usbAu
     197 00003c 3C14          MOV #1, T0
     198 00003e       $C$L5:    
     199                      .dwpsn  file "F:/eZdsp-DBG-sim/tmp1/c55x-sim2/foo/c5535_bsl_revc/ezdsp5535_v1/c55xx_csl/inc/csl_usbAu
     200 00003e 4E05          AADD #5, SP
     201                      .dwcfi  cfa_offset, 1
     202              $C$DW$18        .dwtag  DW_TAG_TI_branch
     203                      .dwattr $C$DW$18, DW_AT_low_pc(0x00)
     204                      .dwattr $C$DW$18, DW_AT_TI_return
TMS320C55x Assembler PC v4.4.1 Tue Oct 02 02:33:44 2018

Tools Copyright (c) 1996-2012 Texas Instruments Incorporated
csl_usb.asm                                                          PAGE    5

     205 000040 4804          RET
     206                                                      ; return occurs
     207                      .dwattr $C$DW$12, DW_AT_TI_end_file("F:/eZdsp-DBG-sim/tmp1/c55x-sim2/foo/c5535_bsl_revc/ezdsp5535_v1/
     208                      .dwattr $C$DW$12, DW_AT_TI_end_line(0x6d0)
     209                      .dwattr $C$DW$12, DW_AT_TI_end_column(0x01)
     210                      .dwendentry
     211                      .dwendtag $C$DW$12
     212              
     213 000042               .sect   ".text"
     214                      .align 4
     215              
     216              $C$DW$19        .dwtag  DW_TAG_subprogram, DW_AT_name("USB_setConfiguration")
     217                      .dwattr $C$DW$19, DW_AT_low_pc(_USB_setConfiguration)
     218                      .dwattr $C$DW$19, DW_AT_high_pc(0x00)
     219                      .dwattr $C$DW$19, DW_AT_TI_symbol_name("_USB_setConfiguration")
     220                      .dwattr $C$DW$19, DW_AT_TI_begin_file("F:/eZdsp-DBG-sim/tmp1/c55x-sim2/foo/c5535_bsl_revc/ezdsp5535_v
     221                      .dwattr $C$DW$19, DW_AT_TI_begin_line(0x76e)
     222                      .dwattr $C$DW$19, DW_AT_TI_begin_column(0x06)
     223                      .dwattr $C$DW$19, DW_AT_TI_max_frame_size(0x06)
     224                      .dwpsn  file "F:/eZdsp-DBG-sim/tmp1/c55x-sim2/foo/c5535_bsl_revc/ezdsp5535_v1/c55xx_csl/inc/csl_usbAu
     225              
     226                      .dwfde $C$DW$CIE, _USB_setConfiguration
     227              $C$DW$20        .dwtag  DW_TAG_formal_parameter, DW_AT_name("devNum")
     228                      .dwattr $C$DW$20, DW_AT_TI_symbol_name("_devNum")
     229                      .dwattr $C$DW$20, DW_AT_type(*$C$DW$T$68)
     230                      .dwattr $C$DW$20, DW_AT_location[DW_OP_reg12]
     231              $C$DW$21        .dwtag  DW_TAG_formal_parameter, DW_AT_name("confVal")
     232                      .dwattr $C$DW$21, DW_AT_TI_symbol_name("_confVal")
     233                      .dwattr $C$DW$21, DW_AT_type(*$C$DW$T$19)
     234                      .dwattr $C$DW$21, DW_AT_location[DW_OP_reg13]
     235              ;*******************************************************************************
     236              ;* FUNCTION NAME: USB_setConfiguration                                         *
     237              ;*                                                                             *
     238              ;*   Function Uses Regs : T0,T1,AR1,AR2,AR3,SP,CARRY,TC1,M40,SATA,SATD,RDM,    *
     239              ;*                        FRCT,SMUL                                            *
     240              ;*   Stack Frame        : Compact (No Frame Pointer, w/ debug)                 *
     241              ;*   Total Frame Size   : 6 words                                              *
     242              ;*                        (2 return address/alignment)                         *
     243              ;*                        (4 local values)                                     *
     244              ;*   Min System Stack   : 1 word                                               *
     245              ;*******************************************************************************
     246 000044       _USB_setConfiguration:
     247                      .dwcfi  cfa_offset, 1
     248                      .dwcfi  save_reg_to_mem, 91, -1
     249 000044 4EFB          AADD #-5, SP
     250                      .dwcfi  cfa_offset, 6
     251              $C$DW$22        .dwtag  DW_TAG_variable, DW_AT_name("devNum")
     252                      .dwattr $C$DW$22, DW_AT_TI_symbol_name("_devNum")
     253                      .dwattr $C$DW$22, DW_AT_type(*$C$DW$T$68)
     254                      .dwattr $C$DW$22, DW_AT_location[DW_OP_bregx 0x24 0]
     255              $C$DW$23        .dwtag  DW_TAG_variable, DW_AT_name("confVal")
     256                      .dwattr $C$DW$23, DW_AT_TI_symbol_name("_confVal")
     257                      .dwattr $C$DW$23, DW_AT_type(*$C$DW$T$19)
     258                      .dwattr $C$DW$23, DW_AT_location[DW_OP_bregx 0x24 1]
     259              $C$DW$24        .dwtag  DW_TAG_variable, DW_AT_name("saveIndex")
TMS320C55x Assembler PC v4.4.1 Tue Oct 02 02:33:44 2018

Tools Copyright (c) 1996-2012 Texas Instruments Incorporated
csl_usb.asm                                                          PAGE    6

     260                      .dwattr $C$DW$24, DW_AT_TI_symbol_name("_saveIndex")
     261                      .dwattr $C$DW$24, DW_AT_type(*$C$DW$T$19)
     262                      .dwattr $C$DW$24, DW_AT_location[DW_OP_bregx 0x24 2]
     263              $C$DW$25        .dwtag  DW_TAG_variable, DW_AT_name("tempVal")
     264                      .dwattr $C$DW$25, DW_AT_TI_symbol_name("_tempVal")
     265                      .dwattr $C$DW$25, DW_AT_type(*$C$DW$T$19)
     266                      .dwattr $C$DW$25, DW_AT_location[DW_OP_bregx 0x24 3]
     267 000046 C502          MOV T1, *SP(#1) ; |1904| 
     268 000048 C400          MOV T0, *SP(#0) ; |1904| 
     269                      .dwpsn  file "F:/eZdsp-DBG-sim/tmp1/c55x-sim2/foo/c5535_bsl_revc/ezdsp5535_v1/c55xx_csl/inc/csl_usbAu
     270 00004a E604          MOV #0, *SP(#2) ; |1908| 
         00004c 00   
     271                      .dwpsn  file "F:/eZdsp-DBG-sim/tmp1/c55x-sim2/foo/c5535_bsl_revc/ezdsp5535_v1/c55xx_csl/inc/csl_usbAu
     272 00004d AB31          MOV *(#_usbRegisters), AR3 ; |1911| 
         00004f 0000 
         000051 00-  
     273 000052 7604          MOV #1038, T0 ; |1911| 
         000054 0E48 
     274 000056 A96B          MOV port(*AR3(T0)), AR1 ; |1911| 
         000058 99   
     275 000059 C904          MOV AR1, *SP(#2) ; |1911| 
     276                      .dwpsn  file "F:/eZdsp-DBG-sim/tmp1/c55x-sim2/foo/c5535_bsl_revc/ezdsp5535_v1/c55xx_csl/inc/csl_usbAu
     277 00005b 7604          MOV #1038, AR1 ; |1915| 
         00005d 0E98 
     278 00005f D631          ADD *(#_usbRegisters), AR1, AR3 ; |1915| 
         000061 B900 
         000063 0000-
     279 000065 F461          AND #0xfff0, port(*AR3) ; |1915| 
         000067 FFF0 
         000069 9A   
     280                      .dwpsn  file "F:/eZdsp-DBG-sim/tmp1/c55x-sim2/foo/c5535_bsl_revc/ezdsp5535_v1/c55xx_csl/inc/csl_usbAu
     281 00006a D631          ADD *(#_usbRegisters), AR1, AR3 ; |1916| 
         00006c B900 
         00006e 0000-
     282 000070 F561          OR #0x0001, port(*AR3) ; |1916| 
         000072 0001 
         000074 9A   
     283                      .dwpsn  file "F:/eZdsp-DBG-sim/tmp1/c55x-sim2/foo/c5535_bsl_revc/ezdsp5535_v1/c55xx_csl/inc/csl_usbAu
     284 000075 7604          MOV #1042, AR1 ; |1919| 
         000077 1298 
     285 000079 D631          ADD *(#_usbRegisters), AR1, AR3 ; |1919| 
         00007b B900 
         00007d 0000-
     286 00007f F561          OR #0x0040, port(*AR3) ; |1919| 
         000081 0040 
         000083 9A   
     287                      .dwpsn  file "F:/eZdsp-DBG-sim/tmp1/c55x-sim2/foo/c5535_bsl_revc/ezdsp5535_v1/c55xx_csl/inc/csl_usbAu
     288 000084 7604          MOV #1046, AR1 ; |1921| 
         000086 1698 
     289 000088 D631          ADD *(#_usbRegisters), AR1, AR3 ; |1921| 
         00008a B900 
         00008c 0000-
     290 00008e F561          OR #0x0080, port(*AR3) ; |1921| 
         000090 0080 
         000092 9A   
TMS320C55x Assembler PC v4.4.1 Tue Oct 02 02:33:44 2018

Tools Copyright (c) 1996-2012 Texas Instruments Incorporated
csl_usb.asm                                                          PAGE    7

     291                      .dwpsn  file "F:/eZdsp-DBG-sim/tmp1/c55x-sim2/foo/c5535_bsl_revc/ezdsp5535_v1/c55xx_csl/inc/csl_usbAu
     292 000093 7604          MOV #1042, T0 ; |1924| 
         000095 1248 
     293 000097 AB31          MOV *(#_usbRegisters), AR3 ; |1924| 
         000099 0000 
         00009b 00-  
     294 00009c A96B          MOV port(*AR3(T0)), AR1 ; |1924| 
         00009e 99   
     295              
     296 00009f 1802          AND #0x0002, AR1, AR1 ; |1924| 
         0000a1 99   
     297 0000a2 3D2A  ||      MOV #2, AR2
     298              
     299 0000a4 129C          CMPU AR1 != AR2, TC1 ; |1924| 
         0000a6 A4   
     300 0000a7 0464          BCC $C$L6,TC1 ; |1924| 
         0000a9 12   
     301                                                      ; branchcc occurs ; |1924| 
     302                      .dwpsn  file "F:/eZdsp-DBG-sim/tmp1/c55x-sim2/foo/c5535_bsl_revc/ezdsp5535_v1/c55xx_csl/inc/csl_usbAu
     303 0000aa A96B          MOV port(*AR3(T0)), AR1 ; |1929| 
         0000ac 99   
     304 0000ad C906          MOV AR1, *SP(#3) ; |1929| 
     305                      .dwpsn  file "F:/eZdsp-DBG-sim/tmp1/c55x-sim2/foo/c5535_bsl_revc/ezdsp5535_v1/c55xx_csl/inc/csl_usbAu
     306 0000af F506          OR #0x0008, *SP(#3) ; |1931| 
         0000b1 0008 
     307                      .dwpsn  file "F:/eZdsp-DBG-sim/tmp1/c55x-sim2/foo/c5535_bsl_revc/ezdsp5535_v1/c55xx_csl/inc/csl_usbAu
     308 0000b3 F406          AND #0xfffc, *SP(#3) ; |1932| 
         0000b5 FFFC 
     309                      .dwpsn  file "F:/eZdsp-DBG-sim/tmp1/c55x-sim2/foo/c5535_bsl_revc/ezdsp5535_v1/c55xx_csl/inc/csl_usbAu
     310 0000b7 A906          MOV *SP(#3), AR1 ; |1934| 
     311 0000b9 C96B          MOV AR1, port(*AR3(T0)) ; |1934| 
         0000bb 9A   
     312 0000bc       $C$L6:    
     313                      .dwpsn  file "F:/eZdsp-DBG-sim/tmp1/c55x-sim2/foo/c5535_bsl_revc/ezdsp5535_v1/c55xx_csl/inc/csl_usbAu
     314 0000bc 7604          MOV #1038, AR1 ; |1939| 
         0000be 0E98 
     315 0000c0 D631          ADD *(#_usbRegisters), AR1, AR3 ; |1939| 
         0000c2 B900 
         0000c4 0000-
     316 0000c6 F461          AND #0xfff0, port(*AR3) ; |1939| 
         0000c8 FFF0 
         0000ca 9A   
     317                      .dwpsn  file "F:/eZdsp-DBG-sim/tmp1/c55x-sim2/foo/c5535_bsl_revc/ezdsp5535_v1/c55xx_csl/inc/csl_usbAu
     318 0000cb D631          ADD *(#_usbRegisters), AR1, AR3 ; |1940| 
         0000cd B900 
         0000cf 0000-
     319 0000d1 F561          OR #0x0002, port(*AR3) ; |1940| 
         0000d3 0002 
         0000d5 9A   
     320                      .dwpsn  file "F:/eZdsp-DBG-sim/tmp1/c55x-sim2/foo/c5535_bsl_revc/ezdsp5535_v1/c55xx_csl/inc/csl_usbAu
     321 0000d6 7604          MOV #1042, AR1 ; |1943| 
         0000d8 1298 
     322 0000da D631          ADD *(#_usbRegisters), AR1, AR3 ; |1943| 
         0000dc B900 
         0000de 0000-
TMS320C55x Assembler PC v4.4.1 Tue Oct 02 02:33:44 2018

Tools Copyright (c) 1996-2012 Texas Instruments Incorporated
csl_usb.asm                                                          PAGE    8

     323 0000e0 F561          OR #0x0040, port(*AR3) ; |1943| 
         0000e2 0040 
         0000e4 9A   
     324                      .dwpsn  file "F:/eZdsp-DBG-sim/tmp1/c55x-sim2/foo/c5535_bsl_revc/ezdsp5535_v1/c55xx_csl/inc/csl_usbAu
     325 0000e5 7604          MOV #1046, AR1 ; |1945| 
         0000e7 1698 
     326 0000e9 D631          ADD *(#_usbRegisters), AR1, AR3 ; |1945| 
         0000eb B900 
         0000ed 0000-
     327 0000ef F561          OR #0x0080, port(*AR3) ; |1945| 
         0000f1 0080 
         0000f3 9A   
     328                      .dwpsn  file "F:/eZdsp-DBG-sim/tmp1/c55x-sim2/foo/c5535_bsl_revc/ezdsp5535_v1/c55xx_csl/inc/csl_usbAu
     329 0000f4 AB31          MOV *(#_usbRegisters), AR3 ; |1948| 
         0000f6 0000 
         0000f8 00-  
     330 0000f9 A96B          MOV port(*AR3(T0)), AR1 ; |1948| 
         0000fb 99   
     331 0000fc 1802          AND #0x0002, AR1, AR1 ; |1948| 
         0000fe 99   
     332 0000ff 129C          CMPU AR1 != AR2, TC1 ; |1948| 
         000101 A4   
     333 000102 0464          BCC $C$L7,TC1 ; |1948| 
         000104 12   
     334                                                      ; branchcc occurs ; |1948| 
     335                      .dwpsn  file "F:/eZdsp-DBG-sim/tmp1/c55x-sim2/foo/c5535_bsl_revc/ezdsp5535_v1/c55xx_csl/inc/csl_usbAu
     336 000105 A96B          MOV port(*AR3(T0)), AR1 ; |1953| 
         000107 99   
     337 000108 C906          MOV AR1, *SP(#3) ; |1953| 
     338                      .dwpsn  file "F:/eZdsp-DBG-sim/tmp1/c55x-sim2/foo/c5535_bsl_revc/ezdsp5535_v1/c55xx_csl/inc/csl_usbAu
     339 00010a F506          OR #0x0008, *SP(#3) ; |1955| 
         00010c 0008 
     340                      .dwpsn  file "F:/eZdsp-DBG-sim/tmp1/c55x-sim2/foo/c5535_bsl_revc/ezdsp5535_v1/c55xx_csl/inc/csl_usbAu
     341 00010e F406          AND #0xfffc, *SP(#3) ; |1956| 
         000110 FFFC 
     342                      .dwpsn  file "F:/eZdsp-DBG-sim/tmp1/c55x-sim2/foo/c5535_bsl_revc/ezdsp5535_v1/c55xx_csl/inc/csl_usbAu
     343 000112 A906          MOV *SP(#3), AR1 ; |1958| 
     344 000114 C96B          MOV AR1, port(*AR3(T0)) ; |1958| 
         000116 9A   
     345 000117       $C$L7:    
     346                      .dwpsn  file "F:/eZdsp-DBG-sim/tmp1/c55x-sim2/foo/c5535_bsl_revc/ezdsp5535_v1/c55xx_csl/inc/csl_usbAu
     347 000117 7604          MOV #1038, AR1 ; |1963| 
         000119 0E98 
     348 00011b D631          ADD *(#_usbRegisters), AR1, AR3 ; |1963| 
         00011d B900 
         00011f 0000-
     349 000121 F461          AND #0xfff0, port(*AR3) ; |1963| 
         000123 FFF0 
         000125 9A   
     350                      .dwpsn  file "F:/eZdsp-DBG-sim/tmp1/c55x-sim2/foo/c5535_bsl_revc/ezdsp5535_v1/c55xx_csl/inc/csl_usbAu
     351 000126 D631          ADD *(#_usbRegisters), AR1, AR3 ; |1964| 
         000128 B900 
         00012a 0000-
     352 00012c F561          OR #0x0003, port(*AR3) ; |1964| 
         00012e 0003 
TMS320C55x Assembler PC v4.4.1 Tue Oct 02 02:33:44 2018

Tools Copyright (c) 1996-2012 Texas Instruments Incorporated
csl_usb.asm                                                          PAGE    9

         000130 9A   
     353                      .dwpsn  file "F:/eZdsp-DBG-sim/tmp1/c55x-sim2/foo/c5535_bsl_revc/ezdsp5535_v1/c55xx_csl/inc/csl_usbAu
     354 000131 7604          MOV #1042, AR1 ; |1967| 
         000133 1298 
     355 000135 D631          ADD *(#_usbRegisters), AR1, AR3 ; |1967| 
         000137 B900 
         000139 0000-
     356 00013b F561          OR #0x0040, port(*AR3) ; |1967| 
         00013d 0040 
         00013f 9A   
     357                      .dwpsn  file "F:/eZdsp-DBG-sim/tmp1/c55x-sim2/foo/c5535_bsl_revc/ezdsp5535_v1/c55xx_csl/inc/csl_usbAu
     358 000140 7604          MOV #1046, AR1 ; |1969| 
         000142 1698 
     359 000144 D631          ADD *(#_usbRegisters), AR1, AR3 ; |1969| 
         000146 B900 
         000148 0000-
     360 00014a F561          OR #0x0080, port(*AR3) ; |1969| 
         00014c 0080 
         00014e 9A   
     361                      .dwpsn  file "F:/eZdsp-DBG-sim/tmp1/c55x-sim2/foo/c5535_bsl_revc/ezdsp5535_v1/c55xx_csl/inc/csl_usbAu
     362 00014f AB31          MOV *(#_usbRegisters), AR3 ; |1972| 
         000151 0000 
         000153 00-  
     363 000154 A96B          MOV port(*AR3(T0)), AR1 ; |1972| 
         000156 99   
     364 000157 1802          AND #0x0002, AR1, AR1 ; |1972| 
         000159 99   
     365 00015a 129C          CMPU AR1 != AR2, TC1 ; |1972| 
         00015c A4   
     366 00015d 0464          BCC $C$L8,TC1 ; |1972| 
         00015f 12   
     367                                                      ; branchcc occurs ; |1972| 
     368                      .dwpsn  file "F:/eZdsp-DBG-sim/tmp1/c55x-sim2/foo/c5535_bsl_revc/ezdsp5535_v1/c55xx_csl/inc/csl_usbAu
     369 000160 A96B          MOV port(*AR3(T0)), AR1 ; |1977| 
         000162 99   
     370 000163 C906          MOV AR1, *SP(#3) ; |1977| 
     371                      .dwpsn  file "F:/eZdsp-DBG-sim/tmp1/c55x-sim2/foo/c5535_bsl_revc/ezdsp5535_v1/c55xx_csl/inc/csl_usbAu
     372 000165 F506          OR #0x0008, *SP(#3) ; |1979| 
         000167 0008 
     373                      .dwpsn  file "F:/eZdsp-DBG-sim/tmp1/c55x-sim2/foo/c5535_bsl_revc/ezdsp5535_v1/c55xx_csl/inc/csl_usbAu
     374 000169 F406          AND #0xfffc, *SP(#3) ; |1980| 
         00016b FFFC 
     375                      .dwpsn  file "F:/eZdsp-DBG-sim/tmp1/c55x-sim2/foo/c5535_bsl_revc/ezdsp5535_v1/c55xx_csl/inc/csl_usbAu
     376 00016d A906          MOV *SP(#3), AR1 ; |1982| 
     377 00016f C96B          MOV AR1, port(*AR3(T0)) ; |1982| 
         000171 9A   
     378 000172       $C$L8:    
     379                      .dwpsn  file "F:/eZdsp-DBG-sim/tmp1/c55x-sim2/foo/c5535_bsl_revc/ezdsp5535_v1/c55xx_csl/inc/csl_usbAu
     380 000172 7604          MOV #1038, AR1 ; |1987| 
         000174 0E98 
     381 000176 D631          ADD *(#_usbRegisters), AR1, AR3 ; |1987| 
         000178 B900 
         00017a 0000-
     382 00017c F461          AND #0xfff0, port(*AR3) ; |1987| 
         00017e FFF0 
TMS320C55x Assembler PC v4.4.1 Tue Oct 02 02:33:44 2018

Tools Copyright (c) 1996-2012 Texas Instruments Incorporated
csl_usb.asm                                                          PAGE   10

         000180 9A   
     383                      .dwpsn  file "F:/eZdsp-DBG-sim/tmp1/c55x-sim2/foo/c5535_bsl_revc/ezdsp5535_v1/c55xx_csl/inc/csl_usbAu
     384 000181 D631          ADD *(#_usbRegisters), AR1, AR3 ; |1988| 
         000183 B900 
         000185 0000-
     385 000187 F561          OR #0x0004, port(*AR3) ; |1988| 
         000189 0004 
         00018b 9A   
     386                      .dwpsn  file "F:/eZdsp-DBG-sim/tmp1/c55x-sim2/foo/c5535_bsl_revc/ezdsp5535_v1/c55xx_csl/inc/csl_usbAu
     387 00018c 7604          MOV #1042, AR1 ; |1991| 
         00018e 1298 
     388 000190 D631          ADD *(#_usbRegisters), AR1, AR3 ; |1991| 
         000192 B900 
         000194 0000-
     389 000196 F561          OR #0x0040, port(*AR3) ; |1991| 
         000198 0040 
         00019a 9A   
     390                      .dwpsn  file "F:/eZdsp-DBG-sim/tmp1/c55x-sim2/foo/c5535_bsl_revc/ezdsp5535_v1/c55xx_csl/inc/csl_usbAu
     391 00019b 7604          MOV #1046, AR1 ; |1993| 
         00019d 1698 
     392 00019f D631          ADD *(#_usbRegisters), AR1, AR3 ; |1993| 
         0001a1 B900 
         0001a3 0000-
     393 0001a5 F561          OR #0x0080, port(*AR3) ; |1993| 
         0001a7 0080 
         0001a9 9A   
     394                      .dwpsn  file "F:/eZdsp-DBG-sim/tmp1/c55x-sim2/foo/c5535_bsl_revc/ezdsp5535_v1/c55xx_csl/inc/csl_usbAu
     395 0001aa AB31          MOV *(#_usbRegisters), AR3 ; |1996| 
         0001ac 0000 
         0001ae 00-  
     396 0001af A96B          MOV port(*AR3(T0)), AR1 ; |1996| 
         0001b1 99   
     397 0001b2 1802          AND #0x0002, AR1, AR1 ; |1996| 
         0001b4 99   
     398 0001b5 129C          CMPU AR1 != AR2, TC1 ; |1996| 
         0001b7 A4   
     399 0001b8 0464          BCC $C$L9,TC1 ; |1996| 
         0001ba 12   
     400                                                      ; branchcc occurs ; |1996| 
     401                      .dwpsn  file "F:/eZdsp-DBG-sim/tmp1/c55x-sim2/foo/c5535_bsl_revc/ezdsp5535_v1/c55xx_csl/inc/csl_usbAu
     402 0001bb A96B          MOV port(*AR3(T0)), AR1 ; |2001| 
         0001bd 99   
     403 0001be C906          MOV AR1, *SP(#3) ; |2001| 
     404                      .dwpsn  file "F:/eZdsp-DBG-sim/tmp1/c55x-sim2/foo/c5535_bsl_revc/ezdsp5535_v1/c55xx_csl/inc/csl_usbAu
     405 0001c0 F506          OR #0x0008, *SP(#3) ; |2003| 
         0001c2 0008 
     406                      .dwpsn  file "F:/eZdsp-DBG-sim/tmp1/c55x-sim2/foo/c5535_bsl_revc/ezdsp5535_v1/c55xx_csl/inc/csl_usbAu
     407 0001c4 F406          AND #0xfffc, *SP(#3) ; |2004| 
         0001c6 FFFC 
     408                      .dwpsn  file "F:/eZdsp-DBG-sim/tmp1/c55x-sim2/foo/c5535_bsl_revc/ezdsp5535_v1/c55xx_csl/inc/csl_usbAu
     409 0001c8 A906          MOV *SP(#3), AR1 ; |2006| 
     410 0001ca C96B          MOV AR1, port(*AR3(T0)) ; |2006| 
         0001cc 9A   
     411 0001cd       $C$L9:    
     412                      .dwpsn  file "F:/eZdsp-DBG-sim/tmp1/c55x-sim2/foo/c5535_bsl_revc/ezdsp5535_v1/c55xx_csl/inc/csl_usbAu
TMS320C55x Assembler PC v4.4.1 Tue Oct 02 02:33:44 2018

Tools Copyright (c) 1996-2012 Texas Instruments Incorporated
csl_usb.asm                                                          PAGE   11

     413 0001cd AB31          MOV *(#_usbRegisters), AR3 ; |2010| 
         0001cf 0000 
         0001d1 00-  
     414 0001d2 7604          MOV #1038, T0 ; |2010| 
         0001d4 0E48 
     415 0001d6 A904          MOV *SP(#2), AR1 ; |2010| 
     416 0001d8 C96B          MOV AR1, port(*AR3(T0)) ; |2010| 
         0001da 9A   
     417                      .dwpsn  file "F:/eZdsp-DBG-sim/tmp1/c55x-sim2/foo/c5535_bsl_revc/ezdsp5535_v1/c55xx_csl/inc/csl_usbAu
     418 0001db 4E05          AADD #5, SP
     419                      .dwcfi  cfa_offset, 1
     420              $C$DW$26        .dwtag  DW_TAG_TI_branch
     421                      .dwattr $C$DW$26, DW_AT_low_pc(0x00)
     422                      .dwattr $C$DW$26, DW_AT_TI_return
     423 0001dd 4804          RET
     424                                                      ; return occurs
     425                      .dwattr $C$DW$19, DW_AT_TI_end_file("F:/eZdsp-DBG-sim/tmp1/c55x-sim2/foo/c5535_bsl_revc/ezdsp5535_v1/
     426                      .dwattr $C$DW$19, DW_AT_TI_end_line(0x7db)
     427                      .dwattr $C$DW$19, DW_AT_TI_end_column(0x01)
     428                      .dwendentry
     429                      .dwendtag $C$DW$19
     430              
     431 0001df               .sect   ".text"
     432                      .align 4
     433              
     434              $C$DW$27        .dwtag  DW_TAG_subprogram, DW_AT_name("USB_sendEpZLP")
     435                      .dwattr $C$DW$27, DW_AT_low_pc(_USB_sendEpZLP)
     436                      .dwattr $C$DW$27, DW_AT_high_pc(0x00)
     437                      .dwattr $C$DW$27, DW_AT_TI_symbol_name("_USB_sendEpZLP")
     438                      .dwattr $C$DW$27, DW_AT_TI_begin_file("F:/eZdsp-DBG-sim/tmp1/c55x-sim2/foo/c5535_bsl_revc/ezdsp5535_v
     439                      .dwattr $C$DW$27, DW_AT_TI_begin_line(0x8b2)
     440                      .dwattr $C$DW$27, DW_AT_TI_begin_column(0x06)
     441                      .dwattr $C$DW$27, DW_AT_TI_max_frame_size(0x04)
     442                      .dwpsn  file "F:/eZdsp-DBG-sim/tmp1/c55x-sim2/foo/c5535_bsl_revc/ezdsp5535_v1/c55xx_csl/inc/csl_usbAu
     443              
     444                      .dwfde $C$DW$CIE, _USB_sendEpZLP
     445              $C$DW$28        .dwtag  DW_TAG_formal_parameter, DW_AT_name("dwEndpoint")
     446                      .dwattr $C$DW$28, DW_AT_TI_symbol_name("_dwEndpoint")
     447                      .dwattr $C$DW$28, DW_AT_type(*$C$DW$T$84)
     448                      .dwattr $C$DW$28, DW_AT_location[DW_OP_reg0]
     449              ;*******************************************************************************
     450              ;* FUNCTION NAME: USB_sendEpZLP                                                *
     451              ;*                                                                             *
     452              ;*   Function Uses Regs : AC0,AC0,T0,AR1,AR3,SP,CARRY,M40,SATA,SATD,RDM,FRCT,  *
     453              ;*                        SMUL                                                 *
     454              ;*   Stack Frame        : Compact (No Frame Pointer, w/ debug)                 *
     455              ;*   Total Frame Size   : 4 words                                              *
     456              ;*                        (1 return address/alignment)                         *
     457              ;*                        (3 local values)                                     *
     458              ;*   Min System Stack   : 1 word                                               *
     459              ;*******************************************************************************
     460 0001e0       _USB_sendEpZLP:
     461                      .dwcfi  cfa_offset, 1
     462                      .dwcfi  save_reg_to_mem, 91, -1
     463 0001e0 4EFD          AADD #-3, SP
TMS320C55x Assembler PC v4.4.1 Tue Oct 02 02:33:44 2018

Tools Copyright (c) 1996-2012 Texas Instruments Incorporated
csl_usb.asm                                                          PAGE   12

     464                      .dwcfi  cfa_offset, 4
     465              $C$DW$29        .dwtag  DW_TAG_variable, DW_AT_name("dwEndpoint")
     466                      .dwattr $C$DW$29, DW_AT_TI_symbol_name("_dwEndpoint")
     467                      .dwattr $C$DW$29, DW_AT_type(*$C$DW$T$84)
     468                      .dwattr $C$DW$29, DW_AT_location[DW_OP_bregx 0x24 0]
     469              $C$DW$30        .dwtag  DW_TAG_variable, DW_AT_name("saveIndex")
     470                      .dwattr $C$DW$30, DW_AT_TI_symbol_name("_saveIndex")
     471                      .dwattr $C$DW$30, DW_AT_type(*$C$DW$T$19)
     472                      .dwattr $C$DW$30, DW_AT_location[DW_OP_bregx 0x24 2]
     473 0001e2 EB00          MOV AC0, dbl(*SP(#0)) ; |2227| 
         0001e4 08   
     474                      .dwpsn  file "F:/eZdsp-DBG-sim/tmp1/c55x-sim2/foo/c5535_bsl_revc/ezdsp5535_v1/c55xx_csl/inc/csl_usbAu
     475 0001e5 7604          MOV #1038, T0 ; |2231| 
         0001e7 0E48 
     476 0001e9 AB31          MOV *(#_usbRegisters), AR3 ; |2231| 
         0001eb 0000 
         0001ed 00-  
     477 0001ee A96B          MOV port(*AR3(T0)), AR1 ; |2231| 
         0001f0 99   
     478 0001f1 C904          MOV AR1, *SP(#2) ; |2231| 
     479                      .dwpsn  file "F:/eZdsp-DBG-sim/tmp1/c55x-sim2/foo/c5535_bsl_revc/ezdsp5535_v1/c55xx_csl/inc/csl_usbAu
     480 0001f3 7604          MOV #1038, AR1 ; |2234| 
         0001f5 0E98 
     481 0001f7 D631          ADD *(#_usbRegisters), AR1, AR3 ; |2234| 
         0001f9 B900 
         0001fb 0000-
     482 0001fd F461          AND #0xfff0, port(*AR3) ; |2234| 
         0001ff FFF0 
         000201 9A   
     483                      .dwpsn  file "F:/eZdsp-DBG-sim/tmp1/c55x-sim2/foo/c5535_bsl_revc/ezdsp5535_v1/c55xx_csl/inc/csl_usbAu
     484 000202 D631          ADD *(#_usbRegisters), AR1, AR3 ; |2235| 
         000204 B900 
         000206 0000-
     485 000208 ED00          MOV dbl(*SP(#0)), AC0 ; |2235| 
         00020a 08   
     486 00020b DA61          OR port(*AR3), AC0, AC0 ; |2235| 
         00020d 00   
         00020e 99   
     487 00020f C061          MOV AC0, port(*AR3) ; |2235| 
         000211 9A   
     488                      .dwpsn  file "F:/eZdsp-DBG-sim/tmp1/c55x-sim2/foo/c5535_bsl_revc/ezdsp5535_v1/c55xx_csl/inc/csl_usbAu
     489 000212 7604          MOV #1042, T0 ; |2238| 
         000214 1248 
     490 000216 AB31          MOV *(#_usbRegisters), AR3 ; |2238| 
         000218 0000 
         00021a 00-  
     491 00021b A96B          MOV port(*AR3(T0)), AR1 ; |2238| 
         00021d 99   
     492 00021e EC02          BCLR @#1, AR1 ; |2238| 
         000220 92   
     493 000221 EC02          BSET @#1, AR1 ; |2238| 
         000223 90   
     494 000224 C96B          MOV AR1, port(*AR3(T0)) ; |2238| 
         000226 9A   
     495                      .dwpsn  file "F:/eZdsp-DBG-sim/tmp1/c55x-sim2/foo/c5535_bsl_revc/ezdsp5535_v1/c55xx_csl/inc/csl_usbAu
TMS320C55x Assembler PC v4.4.1 Tue Oct 02 02:33:44 2018

Tools Copyright (c) 1996-2012 Texas Instruments Incorporated
csl_usb.asm                                                          PAGE   13

     496 000227 AB31          MOV *(#_usbRegisters), AR3 ; |2240| 
         000229 0000 
         00022b 00-  
     497 00022c A96B          MOV port(*AR3(T0)), AR1 ; |2240| 
         00022e 99   
     498 00022f EC06          BCLR @#3, AR1 ; |2240| 
         000231 92   
     499 000232 EC06          BSET @#3, AR1 ; |2240| 
         000234 90   
     500 000235 C96B          MOV AR1, port(*AR3(T0)) ; |2240| 
         000237 9A   
     501                      .dwpsn  file "F:/eZdsp-DBG-sim/tmp1/c55x-sim2/foo/c5535_bsl_revc/ezdsp5535_v1/c55xx_csl/inc/csl_usbAu
     502 000238 7604          MOV #1038, T0 ; |2244| 
         00023a 0E48 
     503 00023c AB31          MOV *(#_usbRegisters), AR3 ; |2244| 
         00023e 0000 
         000240 00-  
     504 000241 A904          MOV *SP(#2), AR1 ; |2244| 
     505 000243 C96B          MOV AR1, port(*AR3(T0)) ; |2244| 
         000245 9A   
     506                      .dwpsn  file "F:/eZdsp-DBG-sim/tmp1/c55x-sim2/foo/c5535_bsl_revc/ezdsp5535_v1/c55xx_csl/inc/csl_usbAu
     507 000246 4E03          AADD #3, SP
     508                      .dwcfi  cfa_offset, 1
     509              $C$DW$31        .dwtag  DW_TAG_TI_branch
     510                      .dwattr $C$DW$31, DW_AT_low_pc(0x00)
     511                      .dwattr $C$DW$31, DW_AT_TI_return
     512 000248 4804          RET
     513                                                      ; return occurs
     514                      .dwattr $C$DW$27, DW_AT_TI_end_file("F:/eZdsp-DBG-sim/tmp1/c55x-sim2/foo/c5535_bsl_revc/ezdsp5535_v1/
     515                      .dwattr $C$DW$27, DW_AT_TI_end_line(0x8c5)
     516                      .dwattr $C$DW$27, DW_AT_TI_end_column(0x01)
     517                      .dwendentry
     518                      .dwendtag $C$DW$27
     519              
     520 00024a               .sect   ".text"
     521                      .align 4
     522              
     523              $C$DW$32        .dwtag  DW_TAG_subprogram, DW_AT_name("USB_clearEpRxPktRdy")
     524                      .dwattr $C$DW$32, DW_AT_low_pc(_USB_clearEpRxPktRdy)
     525                      .dwattr $C$DW$32, DW_AT_high_pc(0x00)
     526                      .dwattr $C$DW$32, DW_AT_TI_symbol_name("_USB_clearEpRxPktRdy")
     527                      .dwattr $C$DW$32, DW_AT_TI_begin_file("F:/eZdsp-DBG-sim/tmp1/c55x-sim2/foo/c5535_bsl_revc/ezdsp5535_v
     528                      .dwattr $C$DW$32, DW_AT_TI_begin_line(0x8c8)
     529                      .dwattr $C$DW$32, DW_AT_TI_begin_column(0x06)
     530                      .dwattr $C$DW$32, DW_AT_TI_max_frame_size(0x04)
     531                      .dwpsn  file "F:/eZdsp-DBG-sim/tmp1/c55x-sim2/foo/c5535_bsl_revc/ezdsp5535_v1/c55xx_csl/inc/csl_usbAu
     532              
     533                      .dwfde $C$DW$CIE, _USB_clearEpRxPktRdy
     534              $C$DW$33        .dwtag  DW_TAG_formal_parameter, DW_AT_name("dwEndpoint")
     535                      .dwattr $C$DW$33, DW_AT_TI_symbol_name("_dwEndpoint")
     536                      .dwattr $C$DW$33, DW_AT_type(*$C$DW$T$84)
     537                      .dwattr $C$DW$33, DW_AT_location[DW_OP_reg0]
     538              ;*******************************************************************************
     539              ;* FUNCTION NAME: USB_clearEpRxPktRdy                                          *
     540              ;*                                                                             *
TMS320C55x Assembler PC v4.4.1 Tue Oct 02 02:33:44 2018

Tools Copyright (c) 1996-2012 Texas Instruments Incorporated
csl_usb.asm                                                          PAGE   14

     541              ;*   Function Uses Regs : AC0,AC0,T0,AR1,AR3,SP,CARRY,M40,SATA,SATD,RDM,FRCT,  *
     542              ;*                        SMUL                                                 *
     543              ;*   Stack Frame        : Compact (No Frame Pointer, w/ debug)                 *
     544              ;*   Total Frame Size   : 4 words                                              *
     545              ;*                        (1 return address/alignment)                         *
     546              ;*                        (3 local values)                                     *
     547              ;*   Min System Stack   : 1 word                                               *
     548              ;*******************************************************************************
     549 00024c       _USB_clearEpRxPktRdy:
     550                      .dwcfi  cfa_offset, 1
     551                      .dwcfi  save_reg_to_mem, 91, -1
     552 00024c 4EFD          AADD #-3, SP
     553                      .dwcfi  cfa_offset, 4
     554              $C$DW$34        .dwtag  DW_TAG_variable, DW_AT_name("dwEndpoint")
     555                      .dwattr $C$DW$34, DW_AT_TI_symbol_name("_dwEndpoint")
     556                      .dwattr $C$DW$34, DW_AT_type(*$C$DW$T$84)
     557                      .dwattr $C$DW$34, DW_AT_location[DW_OP_bregx 0x24 0]
     558              $C$DW$35        .dwtag  DW_TAG_variable, DW_AT_name("saveIndex")
     559                      .dwattr $C$DW$35, DW_AT_TI_symbol_name("_saveIndex")
     560                      .dwattr $C$DW$35, DW_AT_type(*$C$DW$T$19)
     561                      .dwattr $C$DW$35, DW_AT_location[DW_OP_bregx 0x24 2]
     562 00024e EB00          MOV AC0, dbl(*SP(#0)) ; |2249| 
         000250 08   
     563                      .dwpsn  file "F:/eZdsp-DBG-sim/tmp1/c55x-sim2/foo/c5535_bsl_revc/ezdsp5535_v1/c55xx_csl/inc/csl_usbAu
     564 000251 7604          MOV #1038, T0 ; |2253| 
         000253 0E48 
     565 000255 AB31          MOV *(#_usbRegisters), AR3 ; |2253| 
         000257 0000 
         000259 00-  
     566 00025a A96B          MOV port(*AR3(T0)), AR1 ; |2253| 
         00025c 99   
     567 00025d C904          MOV AR1, *SP(#2) ; |2253| 
     568                      .dwpsn  file "F:/eZdsp-DBG-sim/tmp1/c55x-sim2/foo/c5535_bsl_revc/ezdsp5535_v1/c55xx_csl/inc/csl_usbAu
     569 00025f 7604          MOV #1038, AR1 ; |2256| 
         000261 0E98 
     570 000263 D631          ADD *(#_usbRegisters), AR1, AR3 ; |2256| 
         000265 B900 
         000267 0000-
     571 000269 F461          AND #0xfff0, port(*AR3) ; |2256| 
         00026b FFF0 
         00026d 9A   
     572                      .dwpsn  file "F:/eZdsp-DBG-sim/tmp1/c55x-sim2/foo/c5535_bsl_revc/ezdsp5535_v1/c55xx_csl/inc/csl_usbAu
     573 00026e D631          ADD *(#_usbRegisters), AR1, AR3 ; |2257| 
         000270 B900 
         000272 0000-
     574 000274 ED00          MOV dbl(*SP(#0)), AC0 ; |2257| 
         000276 08   
     575 000277 DA61          OR port(*AR3), AC0, AC0 ; |2257| 
         000279 00   
         00027a 99   
     576 00027b C061          MOV AC0, port(*AR3) ; |2257| 
         00027d 9A   
     577                      .dwpsn  file "F:/eZdsp-DBG-sim/tmp1/c55x-sim2/foo/c5535_bsl_revc/ezdsp5535_v1/c55xx_csl/inc/csl_usbAu
     578 00027e 7604          MOV #1042, T0 ; |2260| 
         000280 1248 
TMS320C55x Assembler PC v4.4.1 Tue Oct 02 02:33:44 2018

Tools Copyright (c) 1996-2012 Texas Instruments Incorporated
csl_usb.asm                                                          PAGE   15

     579 000282 AB31          MOV *(#_usbRegisters), AR3 ; |2260| 
         000284 0000 
         000286 00-  
     580 000287 A96B          MOV port(*AR3(T0)), AR1 ; |2260| 
         000289 99   
     581 00028a EC0C          BCLR @#6, AR1 ; |2260| 
         00028c 92   
     582 00028d EC0C          BSET @#6, AR1 ; |2260| 
         00028f 90   
     583 000290 C96B          MOV AR1, port(*AR3(T0)) ; |2260| 
         000292 9A   
     584                      .dwpsn  file "F:/eZdsp-DBG-sim/tmp1/c55x-sim2/foo/c5535_bsl_revc/ezdsp5535_v1/c55xx_csl/inc/csl_usbAu
     585 000293 AB31          MOV *(#_usbRegisters), AR3 ; |2262| 
         000295 0000 
         000297 00-  
     586 000298 A96B          MOV port(*AR3(T0)), AR1 ; |2262| 
         00029a 99   
     587 00029b EC06          BCLR @#3, AR1 ; |2262| 
         00029d 92   
     588 00029e EC06          BSET @#3, AR1 ; |2262| 
         0002a0 90   
     589 0002a1 C96B          MOV AR1, port(*AR3(T0)) ; |2262| 
         0002a3 9A   
     590                      .dwpsn  file "F:/eZdsp-DBG-sim/tmp1/c55x-sim2/foo/c5535_bsl_revc/ezdsp5535_v1/c55xx_csl/inc/csl_usbAu
     591 0002a4 7604          MOV #1038, T0 ; |2266| 
         0002a6 0E48 
     592 0002a8 AB31          MOV *(#_usbRegisters), AR3 ; |2266| 
         0002aa 0000 
         0002ac 00-  
     593 0002ad A904          MOV *SP(#2), AR1 ; |2266| 
     594 0002af C96B          MOV AR1, port(*AR3(T0)) ; |2266| 
         0002b1 9A   
     595                      .dwpsn  file "F:/eZdsp-DBG-sim/tmp1/c55x-sim2/foo/c5535_bsl_revc/ezdsp5535_v1/c55xx_csl/inc/csl_usbAu
     596 0002b2 4E03          AADD #3, SP
     597                      .dwcfi  cfa_offset, 1
     598              $C$DW$36        .dwtag  DW_TAG_TI_branch
     599                      .dwattr $C$DW$36, DW_AT_low_pc(0x00)
     600                      .dwattr $C$DW$36, DW_AT_TI_return
     601 0002b4 4804          RET
     602                                                      ; return occurs
     603                      .dwattr $C$DW$32, DW_AT_TI_end_file("F:/eZdsp-DBG-sim/tmp1/c55x-sim2/foo/c5535_bsl_revc/ezdsp5535_v1/
     604                      .dwattr $C$DW$32, DW_AT_TI_end_line(0x8db)
     605                      .dwattr $C$DW$32, DW_AT_TI_end_column(0x01)
     606                      .dwendentry
     607                      .dwendtag $C$DW$32
     608              
     609 0002b6               .sect   ".text"
     610                      .align 4
     611                      .global _USB_init
     612              
     613              $C$DW$37        .dwtag  DW_TAG_subprogram, DW_AT_name("USB_init")
     614                      .dwattr $C$DW$37, DW_AT_low_pc(_USB_init)
     615                      .dwattr $C$DW$37, DW_AT_high_pc(0x00)
     616                      .dwattr $C$DW$37, DW_AT_TI_symbol_name("_USB_init")
     617                      .dwattr $C$DW$37, DW_AT_external
TMS320C55x Assembler PC v4.4.1 Tue Oct 02 02:33:44 2018

Tools Copyright (c) 1996-2012 Texas Instruments Incorporated
csl_usb.asm                                                          PAGE   16

     618                      .dwattr $C$DW$37, DW_AT_type(*$C$DW$T$75)
     619                      .dwattr $C$DW$37, DW_AT_TI_begin_file("../c5535_bsl_revc/ezdsp5535_v1/c55xx_csl/src/csl_usb.c")
     620                      .dwattr $C$DW$37, DW_AT_TI_begin_line(0x4e)
     621                      .dwattr $C$DW$37, DW_AT_TI_begin_column(0x0c)
     622                      .dwattr $C$DW$37, DW_AT_TI_max_frame_size(0x0e)
     623                      .dwpsn  file "../c5535_bsl_revc/ezdsp5535_v1/c55xx_csl/src/csl_usb.c",line 79,column 1,is_stmt,addres
     624              
     625                      .dwfde $C$DW$CIE, _USB_init
     626              $C$DW$38        .dwtag  DW_TAG_formal_parameter, DW_AT_name("usbConfig")
     627                      .dwattr $C$DW$38, DW_AT_TI_symbol_name("_usbConfig")
     628                      .dwattr $C$DW$38, DW_AT_type(*$C$DW$T$139)
     629                      .dwattr $C$DW$38, DW_AT_location[DW_OP_reg17]
     630              ;*******************************************************************************
     631              ;* FUNCTION NAME: USB_init                                                     *
     632              ;*                                                                             *
     633              ;*   Function Uses Regs : AC0,AC0,AC1,AC1,T0,AR0,XAR0,AR1,XAR1,AR2,XAR2,AR3,   *
     634              ;*                        XAR3,SP,CARRY,TC1,M40,SATA,SATD,RDM,FRCT,SMUL        *
     635              ;*   Stack Frame        : Compact (No Frame Pointer, w/ debug)                 *
     636              ;*   Total Frame Size   : 14 words                                             *
     637              ;*                        (2 return address/alignment)                         *
     638              ;*                        (12 local values)                                    *
     639              ;*   Min System Stack   : 1 word                                               *
     640              ;*******************************************************************************
     641 0002b8       _USB_init:
     642                      .dwcfi  cfa_offset, 1
     643                      .dwcfi  save_reg_to_mem, 91, -1
     644 0002b8 4EF3          AADD #-13, SP
     645                      .dwcfi  cfa_offset, 14
     646              $C$DW$39        .dwtag  DW_TAG_variable, DW_AT_name("usbConfig")
     647                      .dwattr $C$DW$39, DW_AT_TI_symbol_name("_usbConfig")
     648                      .dwattr $C$DW$39, DW_AT_type(*$C$DW$T$139)
     649                      .dwattr $C$DW$39, DW_AT_location[DW_OP_bregx 0x24 0]
     650              $C$DW$40        .dwtag  DW_TAG_variable, DW_AT_name("pContext")
     651                      .dwattr $C$DW$40, DW_AT_TI_symbol_name("_pContext")
     652                      .dwattr $C$DW$40, DW_AT_type(*$C$DW$T$142)
     653                      .dwattr $C$DW$40, DW_AT_location[DW_OP_bregx 0x24 2]
     654              $C$DW$41        .dwtag  DW_TAG_variable, DW_AT_name("status")
     655                      .dwattr $C$DW$41, DW_AT_TI_symbol_name("_status")
     656                      .dwattr $C$DW$41, DW_AT_type(*$C$DW$T$75)
     657                      .dwattr $C$DW$41, DW_AT_location[DW_OP_bregx 0x24 4]
     658              $C$DW$42        .dwtag  DW_TAG_variable, DW_AT_name("peps")
     659                      .dwattr $C$DW$42, DW_AT_TI_symbol_name("_peps")
     660                      .dwattr $C$DW$42, DW_AT_type(*$C$DW$T$147)
     661                      .dwattr $C$DW$42, DW_AT_location[DW_OP_bregx 0x24 6]
     662              $C$DW$43        .dwtag  DW_TAG_variable, DW_AT_name("dwEndpoint")
     663                      .dwattr $C$DW$43, DW_AT_TI_symbol_name("_dwEndpoint")
     664                      .dwattr $C$DW$43, DW_AT_type(*$C$DW$T$84)
     665                      .dwattr $C$DW$43, DW_AT_location[DW_OP_bregx 0x24 8]
     666              $C$DW$44        .dwtag  DW_TAG_variable, DW_AT_name("looper")
     667                      .dwattr $C$DW$44, DW_AT_TI_symbol_name("_looper")
     668                      .dwattr $C$DW$44, DW_AT_type(*$C$DW$T$193)
     669                      .dwattr $C$DW$44, DW_AT_location[DW_OP_bregx 0x24 10]
     670 0002ba EB00          MOV XAR0, dbl(*SP(#0))
         0002bc 85   
     671                      .dwpsn  file "../c5535_bsl_revc/ezdsp5535_v1/c55xx_csl/src/csl_usb.c",line 88,column 4,is_stmt
TMS320C55x Assembler PC v4.4.1 Tue Oct 02 02:33:44 2018

Tools Copyright (c) 1996-2012 Texas Instruments Incorporated
csl_usb.asm                                                          PAGE   17

     672 0002bd E651          MOV #1, *port(#28676) ; |88| 
         0002bf 0170 
         0002c1 04   
     673                      .dwpsn  file "../c5535_bsl_revc/ezdsp5535_v1/c55xx_csl/src/csl_usb.c",line 91,column 2,is_stmt
     674 0002c2 EC31          AMOV #_gUsbContext, XAR3 ; |91| 
         0002c4 BE00 
         0002c6 0002-
     675 0002c8 EB04          MOV XAR3, dbl(*SP(#2))
         0002ca B5   
     676                      .dwpsn  file "../c5535_bsl_revc/ezdsp5535_v1/c55xx_csl/src/csl_usb.c",line 92,column 2,is_stmt
     677 0002cb E608          MOV #-6, *SP(#4) ; |92| 
         0002cd FA   
     678                      .dwpsn  file "../c5535_bsl_revc/ezdsp5535_v1/c55xx_csl/src/csl_usb.c",line 94,column 2,is_stmt
     679 0002ce ED00          MOV dbl(*SP(#0)), XAR3
         0002d0 BF   
     680 0002d1 90B0          MOV XAR3, AC0
     681 0002d3 6310          BCC $C$L10,AC0 != #0 ; |94| 
     682                                                      ; branchcc occurs ; |94| 
     683 0002d5 A961          MOV *AR3, AR1 ; |94| 
     684 0002d7 6D19          BCC $C$L30,AR1 != #0 ; |94| 
         0002d9 0400 
     685                                                      ; branchcc occurs ; |94| 
     686 0002db       $C$L10:    
     687                      .dwpsn  file "../c5535_bsl_revc/ezdsp5535_v1/c55xx_csl/src/csl_usb.c",line 96,column 3,is_stmt
     688 0002db A973          MOV *AR3(short(#1)), AR1 ; |96| 
     689 0002dd 6709          BCC $C$L11,AR1 == #0 ; |96| 
     690                                                      ; branchcc occurs ; |96| 
     691 0002df F073          CMP *AR3(short(#1)) == #1, TC1 ; |96| 
         0002e1 0001 
     692 0002e3 6464          BCC $C$L11,TC1 ; |96| 
     693                                                      ; branchcc occurs ; |96| 
     694 0002e5 F073          CMP *AR3(short(#1)) == #2, TC1 ; |96| 
         0002e7 0002 
     695 0002e9 6D74          BCC $C$L30,!TC1 ; |96| 
         0002eb 03EE 
     696                                                      ; branchcc occurs ; |96| 
     697 0002ed       $C$L11:    
     698                      .dwpsn  file "../c5535_bsl_revc/ezdsp5535_v1/c55xx_csl/src/csl_usb.c",line 100,column 4,is_stmt
     699 0002ed FB31          MOV #7168, *(#_sysCtrlRegs) ; |100| 
         0002ef 1C00 
         0002f1 0000 
         0002f3 01-  
     700                      .dwpsn  file "../c5535_bsl_revc/ezdsp5535_v1/c55xx_csl/src/csl_usb.c",line 103,column 4,is_stmt
     701 0002f4 AB31          MOV *(#_sysCtrlRegs), AR3 ; |103| 
         0002f6 0000 
         0002f8 01-  
     702 0002f9 3C00          MOV #0, AC0 ; |103| 
     703 0002fb EC0A          BSET @#5, AC0 ; |103| 
         0002fd 00   
     704 0002fe A979          MOV port(*AR3(short(#4))), AR1 ; |103| 
         000300 99   
     705 000301 C079          MOV AC0, port(*AR3(short(#4))) ; |103| 
         000303 9A   
     706                      .dwpsn  file "../c5535_bsl_revc/ezdsp5535_v1/c55xx_csl/src/csl_usb.c",line 106,column 4,is_stmt
     707 000304 AB31          MOV *(#_sysCtrlRegs), AR3 ; |106| 
TMS320C55x Assembler PC v4.4.1 Tue Oct 02 02:33:44 2018

Tools Copyright (c) 1996-2012 Texas Instruments Incorporated
csl_usb.asm                                                          PAGE   18

         000306 0000 
         000308 01-  
     708 000309 A97B          MOV port(*AR3(short(#5))), AR1 ; |106| 
         00030b 99   
     709 00030c EC06          BCLR @#3, AR1 ; |106| 
         00030e 92   
     710 00030f EC06          BSET @#3, AR1 ; |106| 
         000311 90   
     711 000312 C97B          MOV AR1, port(*AR3(short(#5))) ; |106| 
         000314 9A   
     712                      .dwpsn  file "../c5535_bsl_revc/ezdsp5535_v1/c55xx_csl/src/csl_usb.c",line 109,column 8,is_stmt
     713 000315 3C00          MOV #0, AC0 ; |109| 
     714 000317 EB14          MOV AC0, dbl(*SP(#10)) ; |109| 
         000319 08   
     715 00031a 20            NOP
     716 00031b 20            NOP
     717                      .dwpsn  file "../c5535_bsl_revc/ezdsp5535_v1/c55xx_csl/src/csl_usb.c",line 109,column 20,is_stmt
     718 00031c 7600          MOV #255, AC0 ; |109| 
         00031e FF08 
     719 000320 ED14          MOV dbl(*SP(#10)), AC1 ; |109| 
         000322 18   
     720 000323 1218          CMPU AC1 >= AC0, TC1 ; |109| 
         000325 04   
     721 000326 0464          BCC $C$L13,TC1 ; |109| 
         000328 17   
     722                                                      ; branchcc occurs ; |109| 
     723 000329       $C$L12:    
     724 000329       $C$DW$L$_USB_init$7$B:
     725                      .dwpsn  file "../c5535_bsl_revc/ezdsp5535_v1/c55xx_csl/src/csl_usb.c",line 109,column 44,is_stmt
     726 000329 ED14          MOV dbl(*SP(#10)), AC0 ; |109| 
         00032b 08   
     727 00032c 4010          ADD #1, AC0 ; |109| 
     728 00032e EB14          MOV AC0, dbl(*SP(#10)) ; |109| 
         000330 08   
     729 000331 20            NOP
     730 000332 20            NOP
     731                      .dwpsn  file "../c5535_bsl_revc/ezdsp5535_v1/c55xx_csl/src/csl_usb.c",line 109,column 20,is_stmt
     732 000333 7600          MOV #255, AC0 ; |109| 
         000335 FF08 
     733 000337 ED14          MOV dbl(*SP(#10)), AC1 ; |109| 
         000339 18   
     734 00033a 1214          CMPU AC1 < AC0, TC1 ; |109| 
         00033c 04   
     735 00033d 0464          BCC $C$L12,TC1 ; |109| 
         00033f E9   
     736                                                      ; branchcc occurs ; |109| 
     737 000340       $C$DW$L$_USB_init$7$E:
     738 000340       $C$L13:    
     739                      .dwpsn  file "../c5535_bsl_revc/ezdsp5535_v1/c55xx_csl/src/csl_usb.c",line 112,column 4,is_stmt
     740 000340 AB31          MOV *(#_sysCtrlRegs), AR3 ; |112| 
         000342 0000 
         000344 01-  
     741 000345 A977          MOV port(*AR3(short(#3))), AR1 ; |112| 
         000347 99   
     742 000348 EC04          BCLR @#2, AR1 ; |112| 
TMS320C55x Assembler PC v4.4.1 Tue Oct 02 02:33:44 2018

Tools Copyright (c) 1996-2012 Texas Instruments Incorporated
csl_usb.asm                                                          PAGE   19

         00034a 92   
     743 00034b C977          MOV AR1, port(*AR3(short(#3))) ; |112| 
         00034d 9A   
     744                      .dwpsn  file "../c5535_bsl_revc/ezdsp5535_v1/c55xx_csl/src/csl_usb.c",line 115,column 4,is_stmt
     745 00034e FB31          MOV #32768, *(#_usbRegisters) ; |115| 
         000350 8000 
         000352 0000 
         000354 00-  
     746                      .dwpsn  file "../c5535_bsl_revc/ezdsp5535_v1/c55xx_csl/src/csl_usb.c",line 117,column 4,is_stmt
     747 000355 7600          MOV #50, T0 ; |117| 
         000357 3248 
     748 000359 AB31          MOV *(#_sysCtrlRegs), AR3 ; |117| 
         00035b 0000 
         00035d 01-  
     749 00035e FB6B          MOV #24640, port(*AR3(T0)) ; |117| 
         000360 6040 
         000362 9A   
     750                      .dwpsn  file "../c5535_bsl_revc/ezdsp5535_v1/c55xx_csl/src/csl_usb.c",line 120,column 4,is_stmt
     751 000363 7600          MOV #58, T0 ; |120| 
         000365 3A48 
     752 000367 AB31          MOV *(#_sysCtrlRegs), AR3 ; |120| 
         000369 0000 
         00036b 01-  
     753 00036c E66B          MOV #0, port(*AR3(T0)) ; |120| 
         00036e 00   
         00036f 9A   
     754                      .dwpsn  file "../c5535_bsl_revc/ezdsp5535_v1/c55xx_csl/src/csl_usb.c",line 125,column 4,is_stmt
     755 000370 AB31          MOV *(#_usbRegisters), AR3 ; |125| 
         000372 0000 
         000374 00-  
     756 000375 E679          MOV #1, port(*AR3(short(#4))) ; |125| 
         000377 01   
         000378 9A   
     757                      .dwpsn  file "../c5535_bsl_revc/ezdsp5535_v1/c55xx_csl/src/csl_usb.c",line 127,column 8,is_stmt
     758 000379 3C00          MOV #0, AC0 ; |127| 
     759 00037b EB14          MOV AC0, dbl(*SP(#10)) ; |127| 
         00037d 08   
     760 00037e 20            NOP
     761                      .dwpsn  file "../c5535_bsl_revc/ezdsp5535_v1/c55xx_csl/src/csl_usb.c",line 127,column 20,is_stmt
     762 00037f EC31          AMOV #90000, XAR3 ; |127| 
         000381 BE01 
         000383 5F90 
     763 000385 90B0          MOV XAR3, AC0
     764 000387 ED14          MOV dbl(*SP(#10)), AC1 ; |127| 
         000389 18   
     765 00038a 1218          CMPU AC1 >= AC0, TC1 ; |127| 
         00038c 04   
     766 00038d 0464          BCC $C$L15,TC1 ; |127| 
         00038f 15   
     767                                                      ; branchcc occurs ; |127| 
     768 000390       $C$L14:    
     769 000390       $C$DW$L$_USB_init$9$B:
     770                      .dwpsn  file "../c5535_bsl_revc/ezdsp5535_v1/c55xx_csl/src/csl_usb.c",line 127,column 36,is_stmt
     771 000390 ED14          MOV dbl(*SP(#10)), AC0 ; |127| 
         000392 08   
TMS320C55x Assembler PC v4.4.1 Tue Oct 02 02:33:44 2018

Tools Copyright (c) 1996-2012 Texas Instruments Incorporated
csl_usb.asm                                                          PAGE   20

     772 000393 4010          ADD #1, AC0 ; |127| 
     773 000395 EB14          MOV AC0, dbl(*SP(#10)) ; |127| 
         000397 08   
     774 000398 20            NOP
     775 000399 20            NOP
     776                      .dwpsn  file "../c5535_bsl_revc/ezdsp5535_v1/c55xx_csl/src/csl_usb.c",line 127,column 20,is_stmt
     777 00039a 90B0          MOV XAR3, AC0
     778 00039c ED14          MOV dbl(*SP(#10)), AC1 ; |127| 
         00039e 18   
     779 00039f 1214          CMPU AC1 < AC0, TC1 ; |127| 
         0003a1 04   
     780 0003a2 0464          BCC $C$L14,TC1 ; |127| 
         0003a4 EB   
     781                                                      ; branchcc occurs ; |127| 
     782 0003a5       $C$DW$L$_USB_init$9$E:
     783 0003a5       $C$L15:    
     784                      .dwpsn  file "../c5535_bsl_revc/ezdsp5535_v1/c55xx_csl/src/csl_usb.c",line 130,column 4,is_stmt
     785 0003a5 7600          MOV #50, T0 ; |130| 
         0003a7 3248 
     786 0003a9 AB31          MOV *(#_sysCtrlRegs), AR3 ; |130| 
         0003ab 0000 
         0003ad 01-  
     787 0003ae A96B          MOV port(*AR3(T0)), AR1 ; |130| 
         0003b0 99   
     788 0003b1 7DFF          AND #0xfffc, AR1, AC0 ; |130| 
         0003b3 FC09 
     789 0003b5 C06B          MOV AC0, port(*AR3(T0)) ; |130| 
         0003b7 9A   
     790                      .dwpsn  file "../c5535_bsl_revc/ezdsp5535_v1/c55xx_csl/src/csl_usb.c",line 132,column 4,is_stmt
     791 0003b8 7604          MOV #1025, T0 ; |132| 
         0003ba 0148 
     792 0003bc AB31          MOV *(#_usbRegisters), AR3 ; |132| 
         0003be 0000 
         0003c0 00-  
     793 0003c1 A96B          MOV port(*AR3(T0)), AR1 ; |132| 
         0003c3 99   
     794 0003c4 EC1A          BCLR @#13, AR1 ; |132| 
         0003c6 92   
     795 0003c7 EC1A          BSET @#13, AR1 ; |132| 
         0003c9 90   
     796 0003ca C96B          MOV AR1, port(*AR3(T0)) ; |132| 
         0003cc 9A   
     797                      .dwpsn  file "../c5535_bsl_revc/ezdsp5535_v1/c55xx_csl/src/csl_usb.c",line 134,column 4,is_stmt
     798 0003cd 7604          MOV #1121, T0 ; |134| 
         0003cf 6148 
     799 0003d1 AB31          MOV *(#_usbRegisters), AR3 ; |134| 
         0003d3 0000 
         0003d5 00-  
     800 0003d6 A96B          MOV port(*AR3(T0)), AR1 ; |134| 
         0003d8 99   
     801 0003d9 EC00          BCLR @#0, AR1 ; |134| 
         0003db 92   
     802 0003dc EC00          BSET @#0, AR1 ; |134| 
         0003de 90   
     803 0003df C96B          MOV AR1, port(*AR3(T0)) ; |134| 
TMS320C55x Assembler PC v4.4.1 Tue Oct 02 02:33:44 2018

Tools Copyright (c) 1996-2012 Texas Instruments Incorporated
csl_usb.asm                                                          PAGE   21

         0003e1 9A   
     804                      .dwpsn  file "../c5535_bsl_revc/ezdsp5535_v1/c55xx_csl/src/csl_usb.c",line 136,column 4,is_stmt
     805 0003e2 E631          MOV #1, *(#(_gCtrlTransfer+12)) ; |136| 
         0003e4 0100 
         0003e6 00D6-
     806                      .dwpsn  file "../c5535_bsl_revc/ezdsp5535_v1/c55xx_csl/src/csl_usb.c",line 137,column 4,is_stmt
     807 0003e8 E631          MOV #1, *(#(_gIsoInTransfer+12)) ; |137| 
         0003ea 0100 
         0003ec 0100-
     808                      .dwpsn  file "../c5535_bsl_revc/ezdsp5535_v1/c55xx_csl/src/csl_usb.c",line 138,column 4,is_stmt
     809 0003ee E631          MOV #1, *(#(_gIsoOutTransfer+12)) ; |138| 
         0003f0 0100 
         0003f2 010E-
     810                      .dwpsn  file "../c5535_bsl_revc/ezdsp5535_v1/c55xx_csl/src/csl_usb.c",line 139,column 4,is_stmt
     811 0003f4 E631          MOV #1, *(#(_gBulkInTransfer+12)) ; |139| 
         0003f6 0100 
         0003f8 00E4-
     812                      .dwpsn  file "../c5535_bsl_revc/ezdsp5535_v1/c55xx_csl/src/csl_usb.c",line 140,column 4,is_stmt
     813 0003fa E631          MOV #1, *(#(_gBulkOutTransfer+12)) ; |140| 
         0003fc 0100 
         0003fe 00F2-
     814                      .dwpsn  file "../c5535_bsl_revc/ezdsp5535_v1/c55xx_csl/src/csl_usb.c",line 141,column 13,is_stmt
     815 000400 E631          MOV #1, *(#(_gIntInTransfer+12)) ; |141| 
         000402 0100 
         000404 011C-
     816                      .dwpsn  file "../c5535_bsl_revc/ezdsp5535_v1/c55xx_csl/src/csl_usb.c",line 144,column 4,is_stmt
     817 000406 ED00          MOV dbl(*SP(#0)), XAR3
         000408 BF   
     818 000409 A973          MOV *AR3(short(#1)), AR1 ; |144| 
     819 00040b ED04          MOV dbl(*SP(#2)), XAR3
         00040d BF   
     820 00040e C961          MOV AR1, *AR3 ; |144| 
     821                      .dwpsn  file "../c5535_bsl_revc/ezdsp5535_v1/c55xx_csl/src/csl_usb.c",line 145,column 4,is_stmt
     822 000410 ED00          MOV dbl(*SP(#0)), XAR3
         000412 BF   
     823 000413 A975          MOV *AR3(short(#2)), AR1 ; |145| 
     824 000415 ED04          MOV dbl(*SP(#2)), XAR3
         000417 BF   
     825 000418 C973          MOV AR1, *AR3(short(#1)) ; |145| 
     826                      .dwpsn  file "../c5535_bsl_revc/ezdsp5535_v1/c55xx_csl/src/csl_usb.c",line 146,column 4,is_stmt
     827 00041a ED04          MOV dbl(*SP(#2)), XAR3
         00041c BF   
     828 00041d E66D          MOV #0, *AR3(#96) ; |146| 
         00041f 0000 
         000421 60   
     829                      .dwpsn  file "../c5535_bsl_revc/ezdsp5535_v1/c55xx_csl/src/csl_usb.c",line 147,column 4,is_stmt
     830 000422 ED00          MOV dbl(*SP(#0)), XAR3
         000424 BF   
     831 000425 ED79          MOV dbl(*AR3(short(#4))), AC0 ; |147| 
         000427 08   
     832 000428 ED04          MOV dbl(*SP(#2)), XAR3
         00042a BF   
     833 00042b EB6D          MOV AC0, dbl(*AR3(#110)) ; |147| 
         00042d 0800 
         00042f 6E   
TMS320C55x Assembler PC v4.4.1 Tue Oct 02 02:33:44 2018

Tools Copyright (c) 1996-2012 Texas Instruments Incorporated
csl_usb.asm                                                          PAGE   22

     834                      .dwpsn  file "../c5535_bsl_revc/ezdsp5535_v1/c55xx_csl/src/csl_usb.c",line 148,column 4,is_stmt
     835 000430 ED00          MOV dbl(*SP(#0)), XAR3
         000432 BF   
     836 000433 ED7D          MOV dbl(*AR3(short(#6))), AC0 ; |148| 
         000435 08   
     837 000436 ED04          MOV dbl(*SP(#2)), XAR3
         000438 BF   
     838 000439 EB6D          MOV AC0, dbl(*AR3(#112)) ; |148| 
         00043b 0800 
         00043d 70   
     839                      .dwpsn  file "../c5535_bsl_revc/ezdsp5535_v1/c55xx_csl/src/csl_usb.c",line 149,column 4,is_stmt
     840 00043e ED04          MOV dbl(*SP(#2)), XAR2
         000440 AF   
     841 000441 ED00          MOV dbl(*SP(#0)), XAR3
         000443 BF   
     842              
     843 000444 1408          AADD #8, AR3 ; |149| 
         000446 B4   
     844 000447 1572  ||      AADD #114, AR2 ; |149| 
         000449 AC   
     845              
     846 00044a 8061          MOV dbl(*AR3), dbl(*AR2) ; |149| 
         00044c 00   
     847                      .dwpsn  file "../c5535_bsl_revc/ezdsp5535_v1/c55xx_csl/src/csl_usb.c",line 150,column 4,is_stmt
     848 00044d ED00          MOV dbl(*SP(#0)), XAR3
         00044f BF   
     849 000450 ED04          MOV dbl(*SP(#2)), XAR2
         000452 AF   
     850              
     851 000453 1474          AADD #116, AR2 ; |150| 
         000455 A4   
     852 000456 150A  ||      AADD #10, AR3 ; |150| 
         000458 BC   
     853              
     854 000459 8061          MOV dbl(*AR3), dbl(*AR2) ; |150| 
         00045b 00   
     855                      .dwpsn  file "../c5535_bsl_revc/ezdsp5535_v1/c55xx_csl/src/csl_usb.c",line 152,column 4,is_stmt
     856 00045c ED04          MOV dbl(*SP(#2)), XAR3
         00045e BF   
     857 00045f E66D          MOV #0, *AR3(#101) ; |152| 
         000461 0000 
         000463 65   
     858                      .dwpsn  file "../c5535_bsl_revc/ezdsp5535_v1/c55xx_csl/src/csl_usb.c",line 153,column 4,is_stmt
     859 000464 ED04          MOV dbl(*SP(#2)), XAR2
         000466 AF   
     860 000467 EC31          AMOV #_gEpStatus, XAR3 ; |153| 
         000469 BE00 
         00046b 011E-
     861 00046d EB4D          MOV XAR3, dbl(*AR2(#98))
         00046f B500 
         000471 62   
     862                      .dwpsn  file "../c5535_bsl_revc/ezdsp5535_v1/c55xx_csl/src/csl_usb.c",line 154,column 4,is_stmt
     863 000472 ED04          MOV dbl(*SP(#2)), XAR3
         000474 BF   
     864 000475 E66D          MOV #0, *AR3(#102) ; |154| 
TMS320C55x Assembler PC v4.4.1 Tue Oct 02 02:33:44 2018

Tools Copyright (c) 1996-2012 Texas Instruments Incorporated
csl_usb.asm                                                          PAGE   23

         000477 0000 
         000479 66   
     865                      .dwpsn  file "../c5535_bsl_revc/ezdsp5535_v1/c55xx_csl/src/csl_usb.c",line 155,column 4,is_stmt
     866 00047a ED04          MOV dbl(*SP(#2)), XAR3
         00047c BF   
     867 00047d E677          MOV #0, *AR3(short(#3)) ; |155| 
         00047f 00   
     868                      .dwpsn  file "../c5535_bsl_revc/ezdsp5535_v1/c55xx_csl/src/csl_usb.c",line 156,column 4,is_stmt
     869 000480 ED04          MOV dbl(*SP(#2)), XAR3
         000482 BF   
     870 000483 E679          MOV #0, *AR3(short(#4)) ; |156| 
         000485 00   
     871                      .dwpsn  file "../c5535_bsl_revc/ezdsp5535_v1/c55xx_csl/src/csl_usb.c",line 157,column 4,is_stmt
     872 000486 ED04          MOV dbl(*SP(#2)), XAR3
         000488 BF   
     873 000489 E67B          MOV #0, *AR3(short(#5)) ; |157| 
         00048b 00   
     874                      .dwpsn  file "../c5535_bsl_revc/ezdsp5535_v1/c55xx_csl/src/csl_usb.c",line 158,column 4,is_stmt
     875 00048c ED04          MOV dbl(*SP(#2)), XAR3
         00048e BF   
     876 00048f E67D          MOV #0, *AR3(short(#6)) ; |158| 
         000491 00   
     877                      .dwpsn  file "../c5535_bsl_revc/ezdsp5535_v1/c55xx_csl/src/csl_usb.c",line 159,column 4,is_stmt
     878 000492 ED04          MOV dbl(*SP(#2)), XAR3
         000494 BF   
     879 000495 E67F          MOV #0, *AR3(short(#7)) ; |159| 
         000497 00   
     880                      .dwpsn  file "../c5535_bsl_revc/ezdsp5535_v1/c55xx_csl/src/csl_usb.c",line 160,column 4,is_stmt
     881 000498 ED04          MOV dbl(*SP(#2)), XAR3
         00049a BF   
     882 00049b E66D          MOV #0, *AR3(#8) ; |160| 
         00049d 0000 
         00049f 08   
     883                      .dwpsn  file "../c5535_bsl_revc/ezdsp5535_v1/c55xx_csl/src/csl_usb.c",line 162,column 4,is_stmt
     884 0004a0 DF31          MOV uns(*(#_usbRegisters)), AC0 ; |162| 
         0004a2 0500 
         0004a4 0000-
     885 0004a6 900B          MOV AC0, XAR3
     886 0004a8 B46F          AMAR *+AR3(#1057) ; |162| 
         0004aa 0421 
     887 0004ac 90B0          MOV XAR3, AC0
     888 0004ae ED04          MOV dbl(*SP(#2)), XAR3
         0004b0 BF   
     889 0004b1 EB6D          MOV AC0, dbl(*AR3(#18))
         0004b3 0800 
         0004b5 12   
     890                      .dwpsn  file "../c5535_bsl_revc/ezdsp5535_v1/c55xx_csl/src/csl_usb.c",line 164,column 4,is_stmt
     891 0004b6 ED04          MOV dbl(*SP(#2)), XAR1
         0004b8 9F   
     892 0004b9 ED04          MOV dbl(*SP(#2)), XAR0
         0004bb 8F   
     893 0004bc 1464          AADD #100, AR1 ; |164| 
         0004be 94   
     894              $C$DW$45        .dwtag  DW_TAG_TI_branch
     895                      .dwattr $C$DW$45, DW_AT_low_pc(0x00)
TMS320C55x Assembler PC v4.4.1 Tue Oct 02 02:33:44 2018

Tools Copyright (c) 1996-2012 Texas Instruments Incorporated
csl_usb.asm                                                          PAGE   24

     896                      .dwattr $C$DW$45, DW_AT_name("_USB_checkSpeed")
     897                      .dwattr $C$DW$45, DW_AT_TI_call
     898 0004bf 08FB          CALL #_USB_checkSpeed ; |164| 
         0004c1 3E   
     899                                                      ; call occurs [#_USB_checkSpeed] ; |164| 
     900                      .dwpsn  file "../c5535_bsl_revc/ezdsp5535_v1/c55xx_csl/src/csl_usb.c",line 166,column 4,is_stmt
     901 0004c2 ED04          MOV dbl(*SP(#2)), XAR3
         0004c4 BF   
     902 0004c5 E66D          MOV #0, *AR3(#24) ; |166| 
         0004c7 0000 
         0004c9 18   
     903                      .dwpsn  file "../c5535_bsl_revc/ezdsp5535_v1/c55xx_csl/src/csl_usb.c",line 167,column 4,is_stmt
     904 0004ca ED04          MOV dbl(*SP(#2)), XAR3
         0004cc BF   
     905 0004cd E66D          MOV #0, *AR3(#23) ; |167| 
         0004cf 0000 
         0004d1 17   
     906                      .dwpsn  file "../c5535_bsl_revc/ezdsp5535_v1/c55xx_csl/src/csl_usb.c",line 168,column 4,is_stmt
     907 0004d2 ED04          MOV dbl(*SP(#2)), XAR3
         0004d4 BF   
     908 0004d5 E66D          MOV #1, *AR3(#22) ; |168| 
         0004d7 0100 
         0004d9 16   
     909                      .dwpsn  file "../c5535_bsl_revc/ezdsp5535_v1/c55xx_csl/src/csl_usb.c",line 169,column 4,is_stmt
     910 0004da ED04          MOV dbl(*SP(#2)), XAR3
         0004dc BF   
     911 0004dd E66D          MOV #1, *AR3(#90) ; |169| 
         0004df 0100 
         0004e1 5A   
     912                      .dwpsn  file "../c5535_bsl_revc/ezdsp5535_v1/c55xx_csl/src/csl_usb.c",line 170,column 4,is_stmt
     913 0004e2 ED04          MOV dbl(*SP(#2)), XAR3
         0004e4 BF   
     914 0004e5 E66D          MOV #1, *AR3(#91) ; |170| 
         0004e7 0100 
         0004e9 5B   
     915                      .dwpsn  file "../c5535_bsl_revc/ezdsp5535_v1/c55xx_csl/src/csl_usb.c",line 171,column 4,is_stmt
     916 0004ea ED04          MOV dbl(*SP(#2)), XAR3
         0004ec BF   
     917 0004ed E66D          MOV #0, *AR3(#25) ; |171| 
         0004ef 0000 
         0004f1 19   
     918                      .dwpsn  file "../c5535_bsl_revc/ezdsp5535_v1/c55xx_csl/src/csl_usb.c",line 174,column 4,is_stmt
     919 0004f2 ED04          MOV dbl(*SP(#2)), XAR3
         0004f4 BF   
     920 0004f5 E66D          MOV #8, *AR3(#118) ; |174| 
         0004f7 0800 
         0004f9 76   
     921                      .dwpsn  file "../c5535_bsl_revc/ezdsp5535_v1/c55xx_csl/src/csl_usb.c",line 177,column 4,is_stmt
     922 0004fa ED04          MOV dbl(*SP(#2)), XAR3
         0004fc BF   
     923 0004fd ED6D          MOV dbl(*AR3(#98)), XAR3
         0004ff BF00 
         000501 62   
     924              
     925 000502 8E0C          MOV XAR3, dbl(*SP(#6))
TMS320C55x Assembler PC v4.4.1 Tue Oct 02 02:33:44 2018

Tools Copyright (c) 1996-2012 Texas Instruments Incorporated
csl_usb.asm                                                          PAGE   25

         000504 BB14 
         000506 B512 
     926              ||      AADD #18, AR3 ; |177| 
     927              
     928                      .dwpsn  file "../c5535_bsl_revc/ezdsp5535_v1/c55xx_csl/src/csl_usb.c",line 179,column 4,is_stmt
     929 000508 DF31          MOV uns(*(#_usbRegisters)), AC0 ; |179| 
         00050a 0500 
         00050c 0000-
     930 00050e 900B          MOV AC0, XAR3
     931 000510 B46F          AMAR *+AR3(#1061) ; |179| 
         000512 0425 
     932 000514 90B0          MOV XAR3, AC0
     933 000516 ED0C          MOV dbl(*SP(#6)), XAR3
         000518 BF   
     934 000519 EB6D          MOV AC0, dbl(*AR3(#8))
         00051b 0800 
         00051d 08   
     935                      .dwpsn  file "../c5535_bsl_revc/ezdsp5535_v1/c55xx_csl/src/csl_usb.c",line 181,column 4,is_stmt
     936 00051e ED04          MOV dbl(*SP(#2)), XAR3
         000520 BF   
     937 000521 ED6D          MOV dbl(*AR3(#98)), XAR3
         000523 BF00 
         000525 62   
     938              
     939 000526 8E0C          MOV XAR3, dbl(*SP(#6))
         000528 BB14 
         00052a B524 
     940              ||      AADD #36, AR3 ; |181| 
     941              
     942                      .dwpsn  file "../c5535_bsl_revc/ezdsp5535_v1/c55xx_csl/src/csl_usb.c",line 182,column 4,is_stmt
     943 00052c DF31          MOV uns(*(#_usbRegisters)), AC0 ; |182| 
         00052e 0500 
         000530 0000-
     944 000532 900B          MOV AC0, XAR3
     945 000534 B46F          AMAR *+AR3(#1065) ; |182| 
         000536 0429 
     946 000538 90B0          MOV XAR3, AC0
     947 00053a ED0C          MOV dbl(*SP(#6)), XAR3
         00053c BF   
     948 00053d EB6D          MOV AC0, dbl(*AR3(#8))
         00053f 0800 
         000541 08   
     949                      .dwpsn  file "../c5535_bsl_revc/ezdsp5535_v1/c55xx_csl/src/csl_usb.c",line 184,column 4,is_stmt
     950 000542 ED04          MOV dbl(*SP(#2)), XAR3
         000544 BF   
     951 000545 ED6D          MOV dbl(*AR3(#98)), XAR3
         000547 BF00 
         000549 62   
     952              
     953 00054a 8E0C          MOV XAR3, dbl(*SP(#6))
         00054c BB14 
         00054e B536 
     954              ||      AADD #54, AR3 ; |184| 
     955              
     956                      .dwpsn  file "../c5535_bsl_revc/ezdsp5535_v1/c55xx_csl/src/csl_usb.c",line 186,column 4,is_stmt
TMS320C55x Assembler PC v4.4.1 Tue Oct 02 02:33:44 2018

Tools Copyright (c) 1996-2012 Texas Instruments Incorporated
csl_usb.asm                                                          PAGE   26

     957 000550 DF31          MOV uns(*(#_usbRegisters)), AC0 ; |186| 
         000552 0500 
         000554 0000-
     958 000556 900B          MOV AC0, XAR3
     959 000558 B46F          AMAR *+AR3(#1069) ; |186| 
         00055a 042D 
     960 00055c 90B0          MOV XAR3, AC0
     961 00055e ED0C          MOV dbl(*SP(#6)), XAR3
         000560 BF   
     962 000561 EB6D          MOV AC0, dbl(*AR3(#8))
         000563 0800 
         000565 08   
     963                      .dwpsn  file "../c5535_bsl_revc/ezdsp5535_v1/c55xx_csl/src/csl_usb.c",line 188,column 4,is_stmt
     964 000566 ED04          MOV dbl(*SP(#2)), XAR3
         000568 BF   
     965 000569 ED6D          MOV dbl(*AR3(#98)), XAR3
         00056b BF00 
         00056d 62   
     966              
     967 00056e 8E0C          MOV XAR3, dbl(*SP(#6))
         000570 BB14 
         000572 B548 
     968              ||      AADD #72, AR3 ; |188| 
     969              
     970                      .dwpsn  file "../c5535_bsl_revc/ezdsp5535_v1/c55xx_csl/src/csl_usb.c",line 189,column 4,is_stmt
     971 000574 DF31          MOV uns(*(#_usbRegisters)), AC0 ; |189| 
         000576 0500 
         000578 0000-
     972 00057a 900B          MOV AC0, XAR3
     973 00057c B46F          AMAR *+AR3(#1073) ; |189| 
         00057e 0431 
     974 000580 90B0          MOV XAR3, AC0
     975 000582 ED0C          MOV dbl(*SP(#6)), XAR3
         000584 BF   
     976 000585 EB6D          MOV AC0, dbl(*AR3(#8))
         000587 0800 
         000589 08   
     977                      .dwpsn  file "../c5535_bsl_revc/ezdsp5535_v1/c55xx_csl/src/csl_usb.c",line 192,column 8,is_stmt
     978 00058a 3C00          MOV #0, AC0 ; |192| 
     979 00058c EB10          MOV AC0, dbl(*SP(#8)) ; |192| 
         00058e 08   
     980                      .dwpsn  file "../c5535_bsl_revc/ezdsp5535_v1/c55xx_csl/src/csl_usb.c",line 192,column 24,is_stmt
     981              
     982 00058f ED10          MOV dbl(*SP(#8)), AC1 ; |192| 
         000591 18   
     983 000592 3D80  ||      MOV #8, AC0 ; |192| 
     984              
     985 000594 1218          CMPU AC1 >= AC0, TC1 ; |192| 
         000596 04   
     986 000597 6D64          BCC $C$L29,TC1 ; |192| 
         000599 0137 
     987                                                      ; branchcc occurs ; |192| 
     988 00059b       $C$L16:    
     989 00059b       $C$DW$L$_USB_init$11$B:
     990                      .dwpsn  file "../c5535_bsl_revc/ezdsp5535_v1/c55xx_csl/src/csl_usb.c",line 194,column 5,is_stmt
TMS320C55x Assembler PC v4.4.1 Tue Oct 02 02:33:44 2018

Tools Copyright (c) 1996-2012 Texas Instruments Incorporated
csl_usb.asm                                                          PAGE   27

     991 00059b ED04          MOV dbl(*SP(#2)), XAR3
         00059d BF   
     992 00059e ED6D          MOV dbl(*AR3(#98)), XAR3
         0005a0 BF00 
         0005a2 62   
     993 0005a3 ED10          MOV dbl(*SP(#8)), AC1 ; |194| 
         0005a5 18   
     994 0005a6 1015          SFTS AC1, #1, AC0 ; |194| 
         0005a8 01   
     995 0005a9 1013          ADD AC1 << #4, AC0 ; |194| 
         0005ab 04   
     996 0005ac 900A          MOV AC0, XAR2
     997              
     998 0005ae 8E0C          MOV XAR3, dbl(*SP(#6))
         0005b0 BB10 
         0005b2 B5A1 
     999              ||      AADD XAR2, XAR3 ; |194| 
    1000              
    1001                      .dwpsn  file "../c5535_bsl_revc/ezdsp5535_v1/c55xx_csl/src/csl_usb.c",line 196,column 5,is_stmt
    1002 0005b4 E66D          MOV #0, *AR3(#16) ; |196| 
         0005b6 0000 
         0005b8 10   
    1003                      .dwpsn  file "../c5535_bsl_revc/ezdsp5535_v1/c55xx_csl/src/csl_usb.c",line 197,column 5,is_stmt
    1004 0005b9 ED0C          MOV dbl(*SP(#6)), XAR3
         0005bb BF   
    1005 0005bc 3C00          MOV #0, AC0 ; |197| 
    1006 0005be EB6D          MOV AC0, dbl(*AR3(#10))
         0005c0 0800 
         0005c2 0A   
    1007                      .dwpsn  file "../c5535_bsl_revc/ezdsp5535_v1/c55xx_csl/src/csl_usb.c",line 198,column 5,is_stmt
    1008 0005c3 ED0C          MOV dbl(*SP(#6)), XAR3
         0005c5 BF   
    1009 0005c6 E66D          MOV #0, *AR3(#17) ; |198| 
         0005c8 0000 
         0005ca 11   
    1010                      .dwpsn  file "../c5535_bsl_revc/ezdsp5535_v1/c55xx_csl/src/csl_usb.c",line 199,column 5,is_stmt
    1011 0005cb ED0C          MOV dbl(*SP(#6)), XAR3
         0005cd BF   
    1012 0005ce ED10          MOV dbl(*SP(#8)), AC0 ; |199| 
         0005d0 08   
    1013 0005d1 EB61          MOV AC0, dbl(*AR3) ; |199| 
         0005d3 08   
    1014                      .dwpsn  file "../c5535_bsl_revc/ezdsp5535_v1/c55xx_csl/src/csl_usb.c",line 200,column 5,is_stmt
    1015 0005d4 ED0C          MOV dbl(*SP(#6)), XAR3
         0005d6 BF   
    1016 0005d7 E66D          MOV #0, *AR3(#12) ; |200| 
         0005d9 0000 
         0005db 0C   
    1017                      .dwpsn  file "../c5535_bsl_revc/ezdsp5535_v1/c55xx_csl/src/csl_usb.c",line 201,column 5,is_stmt
    1018 0005dc ED0C          MOV dbl(*SP(#6)), XAR3
         0005de BF   
    1019 0005df E67D          MOV #1, *AR3(short(#6)) ; |201| 
         0005e1 01   
    1020                      .dwpsn  file "../c5535_bsl_revc/ezdsp5535_v1/c55xx_csl/src/csl_usb.c",line 202,column 5,is_stmt
    1021 0005e2 ED0C          MOV dbl(*SP(#6)), XAR3
TMS320C55x Assembler PC v4.4.1 Tue Oct 02 02:33:44 2018

Tools Copyright (c) 1996-2012 Texas Instruments Incorporated
csl_usb.asm                                                          PAGE   28

         0005e4 BF   
    1022 0005e5 3C00          MOV #0, AC0 ; |202| 
    1023 0005e7 EB6D          MOV AC0, dbl(*AR3(#14)) ; |202| 
         0005e9 0800 
         0005eb 0E   
    1024                      .dwpsn  file "../c5535_bsl_revc/ezdsp5535_v1/c55xx_csl/src/csl_usb.c",line 204,column 5,is_stmt
    1025 0005ec 0600          B $C$L26  ; |204| 
         0005ee 9F   
    1026                                                      ; branch occurs ; |204| 
    1027 0005ef       $C$DW$L$_USB_init$11$E:
    1028 0005ef       $C$L17:    
    1029 0005ef       $C$DW$L$_USB_init$13$B:
    1030                      .dwpsn  file "../c5535_bsl_revc/ezdsp5535_v1/c55xx_csl/src/csl_usb.c",line 207,column 7,is_stmt
    1031 0005ef ED0C          MOV dbl(*SP(#6)), XAR3
         0005f1 BF   
    1032 0005f2 7600          MOV #64, AC0 ; |207| 
         0005f4 4008 
    1033 0005f6 EB79          MOV AC0, dbl(*AR3(short(#4))) ; |207| 
         0005f8 08   
    1034                      .dwpsn  file "../c5535_bsl_revc/ezdsp5535_v1/c55xx_csl/src/csl_usb.c",line 208,column 12,is_stmt
    1035 0005f9 0600          B $C$L28  ; |208| 
         0005fb C2   
    1036                                                      ; branch occurs ; |208| 
    1037 0005fc       $C$DW$L$_USB_init$13$E:
    1038 0005fc       $C$L18:    
    1039 0005fc       $C$DW$L$_USB_init$14$B:
    1040                      .dwpsn  file "../c5535_bsl_revc/ezdsp5535_v1/c55xx_csl/src/csl_usb.c",line 211,column 7,is_stmt
    1041 0005fc ED04          MOV dbl(*SP(#2)), XAR3
         0005fe BF   
    1042 0005ff F06D          CMP *AR3(#100) == #4, TC1 ; |211| 
         000601 0004 
         000603 0064 
    1043 000605 66F4          BCC $C$L19,!TC1 ; |211| 
    1044                                                      ; branchcc occurs ; |211| 
    1045 000607       $C$DW$L$_USB_init$14$E:
    1046 000607       $C$DW$L$_USB_init$15$B:
    1047                      .dwpsn  file "../c5535_bsl_revc/ezdsp5535_v1/c55xx_csl/src/csl_usb.c",line 213,column 8,is_stmt
    1048 000607 ED0C          MOV dbl(*SP(#6)), XAR3
         000609 BF   
    1049 00060a 7602          MOV #512, AC0 ; |213| 
         00060c 0008 
    1050 00060e EB79          MOV AC0, dbl(*AR3(short(#4))) ; |213| 
         000610 08   
    1051                      .dwpsn  file "../c5535_bsl_revc/ezdsp5535_v1/c55xx_csl/src/csl_usb.c",line 214,column 7,is_stmt
    1052 000611 0600          B $C$L28  ; |214| 
         000613 AA   
    1053                                                      ; branch occurs ; |214| 
    1054 000614       $C$DW$L$_USB_init$15$E:
    1055 000614       $C$L19:    
    1056 000614       $C$DW$L$_USB_init$16$B:
    1057                      .dwpsn  file "../c5535_bsl_revc/ezdsp5535_v1/c55xx_csl/src/csl_usb.c",line 217,column 8,is_stmt
    1058 000614 ED0C          MOV dbl(*SP(#6)), XAR3
         000616 BF   
    1059 000617 7600          MOV #64, AC0 ; |217| 
         000619 4008 
TMS320C55x Assembler PC v4.4.1 Tue Oct 02 02:33:44 2018

Tools Copyright (c) 1996-2012 Texas Instruments Incorporated
csl_usb.asm                                                          PAGE   29

    1060 00061b EB79          MOV AC0, dbl(*AR3(short(#4))) ; |217| 
         00061d 08   
    1061                      .dwpsn  file "../c5535_bsl_revc/ezdsp5535_v1/c55xx_csl/src/csl_usb.c",line 220,column 12,is_stmt
    1062 00061e 0600          B $C$L28  ; |220| 
         000620 9D   
    1063                                                      ; branch occurs ; |220| 
    1064 000621       $C$DW$L$_USB_init$16$E:
    1065 000621       $C$L20:    
    1066 000621       $C$DW$L$_USB_init$17$B:
    1067                      .dwpsn  file "../c5535_bsl_revc/ezdsp5535_v1/c55xx_csl/src/csl_usb.c",line 223,column 7,is_stmt
    1068 000621 ED04          MOV dbl(*SP(#2)), XAR3
         000623 BF   
    1069 000624 F06D          CMP *AR3(#100) == #4, TC1 ; |223| 
         000626 0004 
         000628 0064 
    1070 00062a 66F4          BCC $C$L21,!TC1 ; |223| 
    1071                                                      ; branchcc occurs ; |223| 
    1072 00062c       $C$DW$L$_USB_init$17$E:
    1073 00062c       $C$DW$L$_USB_init$18$B:
    1074                      .dwpsn  file "../c5535_bsl_revc/ezdsp5535_v1/c55xx_csl/src/csl_usb.c",line 225,column 8,is_stmt
    1075 00062c ED0C          MOV dbl(*SP(#6)), XAR3
         00062e BF   
    1076 00062f 7602          MOV #512, AC0 ; |225| 
         000631 0008 
    1077 000633 EB79          MOV AC0, dbl(*AR3(short(#4))) ; |225| 
         000635 08   
    1078                      .dwpsn  file "../c5535_bsl_revc/ezdsp5535_v1/c55xx_csl/src/csl_usb.c",line 226,column 7,is_stmt
    1079 000636 0600          B $C$L28  ; |226| 
         000638 85   
    1080                                                      ; branch occurs ; |226| 
    1081 000639       $C$DW$L$_USB_init$18$E:
    1082 000639       $C$L21:    
    1083 000639       $C$DW$L$_USB_init$19$B:
    1084                      .dwpsn  file "../c5535_bsl_revc/ezdsp5535_v1/c55xx_csl/src/csl_usb.c",line 229,column 8,is_stmt
    1085 000639 ED0C          MOV dbl(*SP(#6)), XAR3
         00063b BF   
    1086 00063c 7600          MOV #64, AC0 ; |229| 
         00063e 4008 
    1087 000640 EB79          MOV AC0, dbl(*AR3(short(#4))) ; |229| 
         000642 08   
    1088                      .dwpsn  file "../c5535_bsl_revc/ezdsp5535_v1/c55xx_csl/src/csl_usb.c",line 232,column 12,is_stmt
    1089 000643 0600          B $C$L28  ; |232| 
         000645 78   
    1090                                                      ; branch occurs ; |232| 
    1091 000646       $C$DW$L$_USB_init$19$E:
    1092 000646       $C$L22:    
    1093 000646       $C$DW$L$_USB_init$20$B:
    1094                      .dwpsn  file "../c5535_bsl_revc/ezdsp5535_v1/c55xx_csl/src/csl_usb.c",line 235,column 7,is_stmt
    1095 000646 ED04          MOV dbl(*SP(#2)), XAR3
         000648 BF   
    1096 000649 F06D          CMP *AR3(#100) == #4, TC1 ; |235| 
         00064b 0004 
         00064d 0064 
    1097 00064f 66F4          BCC $C$L23,!TC1 ; |235| 
    1098                                                      ; branchcc occurs ; |235| 
TMS320C55x Assembler PC v4.4.1 Tue Oct 02 02:33:44 2018

Tools Copyright (c) 1996-2012 Texas Instruments Incorporated
csl_usb.asm                                                          PAGE   30

    1099 000651       $C$DW$L$_USB_init$20$E:
    1100 000651       $C$DW$L$_USB_init$21$B:
    1101                      .dwpsn  file "../c5535_bsl_revc/ezdsp5535_v1/c55xx_csl/src/csl_usb.c",line 237,column 8,is_stmt
    1102 000651 ED0C          MOV dbl(*SP(#6)), XAR3
         000653 BF   
    1103 000654 7602          MOV #512, AC0 ; |237| 
         000656 0008 
    1104 000658 EB79          MOV AC0, dbl(*AR3(short(#4))) ; |237| 
         00065a 08   
    1105                      .dwpsn  file "../c5535_bsl_revc/ezdsp5535_v1/c55xx_csl/src/csl_usb.c",line 238,column 7,is_stmt
    1106 00065b 0600          B $C$L28  ; |238| 
         00065d 60   
    1107                                                      ; branch occurs ; |238| 
    1108 00065e       $C$DW$L$_USB_init$21$E:
    1109 00065e       $C$L23:    
    1110 00065e       $C$DW$L$_USB_init$22$B:
    1111                      .dwpsn  file "../c5535_bsl_revc/ezdsp5535_v1/c55xx_csl/src/csl_usb.c",line 241,column 8,is_stmt
    1112 00065e ED0C          MOV dbl(*SP(#6)), XAR3
         000660 BF   
    1113 000661 7600          MOV #64, AC0 ; |241| 
         000663 4008 
    1114 000665 EB79          MOV AC0, dbl(*AR3(short(#4))) ; |241| 
         000667 08   
    1115                      .dwpsn  file "../c5535_bsl_revc/ezdsp5535_v1/c55xx_csl/src/csl_usb.c",line 244,column 12,is_stmt
    1116 000668 0600          B $C$L28  ; |244| 
         00066a 53   
    1117                                                      ; branch occurs ; |244| 
    1118 00066b       $C$DW$L$_USB_init$22$E:
    1119 00066b       $C$L24:    
    1120 00066b       $C$DW$L$_USB_init$23$B:
    1121                      .dwpsn  file "../c5535_bsl_revc/ezdsp5535_v1/c55xx_csl/src/csl_usb.c",line 247,column 7,is_stmt
    1122 00066b ED04          MOV dbl(*SP(#2)), XAR3
         00066d BF   
    1123 00066e F06D          CMP *AR3(#100) == #4, TC1 ; |247| 
         000670 0004 
         000672 0064 
    1124 000674 6674          BCC $C$L25,!TC1 ; |247| 
    1125                                                      ; branchcc occurs ; |247| 
    1126 000676       $C$DW$L$_USB_init$23$E:
    1127 000676       $C$DW$L$_USB_init$24$B:
    1128                      .dwpsn  file "../c5535_bsl_revc/ezdsp5535_v1/c55xx_csl/src/csl_usb.c",line 249,column 8,is_stmt
    1129 000676 ED0C          MOV dbl(*SP(#6)), XAR3
         000678 BF   
    1130 000679 7602          MOV #512, AC0 ; |249| 
         00067b 0008 
    1131 00067d EB79          MOV AC0, dbl(*AR3(short(#4))) ; |249| 
         00067f 08   
    1132                      .dwpsn  file "../c5535_bsl_revc/ezdsp5535_v1/c55xx_csl/src/csl_usb.c",line 250,column 7,is_stmt
    1133 000680 4A3C          B $C$L28  ; |250| 
    1134                                                      ; branch occurs ; |250| 
    1135 000682       $C$DW$L$_USB_init$24$E:
    1136 000682       $C$L25:    
    1137 000682       $C$DW$L$_USB_init$25$B:
    1138                      .dwpsn  file "../c5535_bsl_revc/ezdsp5535_v1/c55xx_csl/src/csl_usb.c",line 253,column 8,is_stmt
    1139 000682 ED0C          MOV dbl(*SP(#6)), XAR3
TMS320C55x Assembler PC v4.4.1 Tue Oct 02 02:33:44 2018

Tools Copyright (c) 1996-2012 Texas Instruments Incorporated
csl_usb.asm                                                          PAGE   31

         000684 BF   
    1140 000685 7600          MOV #64, AC0 ; |253| 
         000687 4008 
    1141 000689 EB79          MOV AC0, dbl(*AR3(short(#4))) ; |253| 
         00068b 08   
    1142                      .dwpsn  file "../c5535_bsl_revc/ezdsp5535_v1/c55xx_csl/src/csl_usb.c",line 256,column 12,is_stmt
    1143 00068c 4A30          B $C$L28  ; |256| 
    1144                                                      ; branch occurs ; |256| 
    1145 00068e       $C$DW$L$_USB_init$25$E:
    1146 00068e       $C$L26:    
    1147 00068e       $C$DW$L$_USB_init$27$B:
    1148                      .dwpsn  file "../c5535_bsl_revc/ezdsp5535_v1/c55xx_csl/src/csl_usb.c",line 204,column 5,is_stmt
    1149              
    1150 00068e ED10          MOV dbl(*SP(#8)), AC0 ; |204| 
         000690 08   
    1151 000691 3D21  ||      MOV #2, AC1 ; |204| 
    1152              
    1153 000693 1214          CMP AC0 > AC1, TC1 ; |204| 
         000695 00   
    1154 000696 0464          BCC $C$L27,TC1 ; |204| 
         000698 15   
    1155                                                      ; branchcc occurs ; |204| 
    1156 000699       $C$DW$L$_USB_init$27$E:
    1157 000699       $C$DW$L$_USB_init$28$B:
    1158 000699 1200          CMP AC0 == AC1, TC1 ; |204| 
         00069b 10   
    1159 00069c 0464          BCC $C$L20,TC1 ; |204| 
         00069e 82   
    1160                                                      ; branchcc occurs ; |204| 
    1161 00069f       $C$DW$L$_USB_init$28$E:
    1162 00069f       $C$DW$L$_USB_init$29$B:
    1163 00069f 6D00          BCC $C$L17,AC0 == #0 ; |204| 
         0006a1 FF4C 
    1164                                                      ; branchcc occurs ; |204| 
    1165 0006a3       $C$DW$L$_USB_init$29$E:
    1166 0006a3       $C$DW$L$_USB_init$30$B:
    1167 0006a3 3C11          MOV #1, AC1 ; |204| 
    1168 0006a5 1200          CMPU AC0 == AC1, TC1 ; |204| 
         0006a7 14   
    1169 0006a8 6D64          BCC $C$L18,TC1 ; |204| 
         0006aa FF50 
    1170                                                      ; branchcc occurs ; |204| 
    1171 0006ac       $C$DW$L$_USB_init$30$E:
    1172 0006ac       $C$DW$L$_USB_init$31$B:
    1173 0006ac 4A10          B $C$L28  ; |204| 
    1174                                                      ; branch occurs ; |204| 
    1175 0006ae       $C$DW$L$_USB_init$31$E:
    1176 0006ae       $C$L27:    
    1177 0006ae       $C$DW$L$_USB_init$32$B:
    1178 0006ae 3C31          MOV #3, AC1 ; |204| 
    1179 0006b0 1200          CMPU AC0 == AC1, TC1 ; |204| 
         0006b2 14   
    1180 0006b3 0464          BCC $C$L22,TC1 ; |204| 
         0006b5 90   
    1181                                                      ; branchcc occurs ; |204| 
TMS320C55x Assembler PC v4.4.1 Tue Oct 02 02:33:44 2018

Tools Copyright (c) 1996-2012 Texas Instruments Incorporated
csl_usb.asm                                                          PAGE   32

    1182 0006b6       $C$DW$L$_USB_init$32$E:
    1183 0006b6       $C$DW$L$_USB_init$33$B:
    1184 0006b6 3C41          MOV #4, AC1 ; |204| 
    1185 0006b8 1200          CMPU AC0 == AC1, TC1 ; |204| 
         0006ba 14   
    1186 0006bb 0464          BCC $C$L24,TC1 ; |204| 
         0006bd AD   
    1187                                                      ; branchcc occurs ; |204| 
    1188 0006be       $C$DW$L$_USB_init$33$E:
    1189 0006be       $C$L28:    
    1190 0006be       $C$DW$L$_USB_init$34$B:
    1191                      .dwpsn  file "../c5535_bsl_revc/ezdsp5535_v1/c55xx_csl/src/csl_usb.c",line 192,column 61,is_stmt
    1192 0006be ED10          MOV dbl(*SP(#8)), AC0 ; |192| 
         0006c0 08   
    1193 0006c1 4010          ADD #1, AC0 ; |192| 
    1194 0006c3 EB10          MOV AC0, dbl(*SP(#8)) ; |192| 
         0006c5 08   
    1195                      .dwpsn  file "../c5535_bsl_revc/ezdsp5535_v1/c55xx_csl/src/csl_usb.c",line 192,column 24,is_stmt
    1196              
    1197 0006c9 3D80          MOV #8, AC0 ; |192| 
    1198 0006c6 ED10  ||      MOV dbl(*SP(#8)), AC1 ; |192| 
         0006c8 18   
    1199              
    1200 0006cb 1214          CMPU AC1 < AC0, TC1 ; |192| 
         0006cd 04   
    1201 0006ce 6D64          BCC $C$L16,TC1 ; |192| 
         0006d0 FEC9 
    1202                                                      ; branchcc occurs ; |192| 
    1203 0006d2       $C$DW$L$_USB_init$34$E:
    1204 0006d2       $C$L29:    
    1205                      .dwpsn  file "../c5535_bsl_revc/ezdsp5535_v1/c55xx_csl/src/csl_usb.c",line 263,column 4,is_stmt
    1206 0006d2 ED04          MOV dbl(*SP(#2)), XAR3
         0006d4 BF   
    1207 0006d5 E675          MOV #1, *AR3(short(#2)) ; |263| 
         0006d7 01   
    1208                      .dwpsn  file "../c5535_bsl_revc/ezdsp5535_v1/c55xx_csl/src/csl_usb.c",line 264,column 4,is_stmt
    1209 0006d8 E608          MOV #0, *SP(#4) ; |264| 
         0006da 00   
    1210 0006db       $C$L30:    
    1211                      .dwpsn  file "../c5535_bsl_revc/ezdsp5535_v1/c55xx_csl/src/csl_usb.c",line 268,column 2,is_stmt
    1212 0006db A408          MOV *SP(#4), T0 ; |268| 
    1213                      .dwpsn  file "../c5535_bsl_revc/ezdsp5535_v1/c55xx_csl/src/csl_usb.c",line 269,column 1,is_stmt
    1214 0006dd 4E0D          AADD #13, SP
    1215                      .dwcfi  cfa_offset, 1
    1216              $C$DW$46        .dwtag  DW_TAG_TI_branch
    1217                      .dwattr $C$DW$46, DW_AT_low_pc(0x00)
    1218                      .dwattr $C$DW$46, DW_AT_TI_return
    1219 0006df 4804          RET
    1220                                                      ; return occurs
    1221              
    1222              $C$DW$47        .dwtag  DW_TAG_TI_loop
    1223                      .dwattr $C$DW$47, DW_AT_name("F:\eZdsp-DBG-sim\tmp1\c55x-sim2\foo\Debug\csl_usb.asm:$C$L16:1:15384728
    1224                      .dwattr $C$DW$47, DW_AT_TI_begin_file("../c5535_bsl_revc/ezdsp5535_v1/c55xx_csl/src/csl_usb.c")
    1225                      .dwattr $C$DW$47, DW_AT_TI_begin_line(0xc0)
    1226                      .dwattr $C$DW$47, DW_AT_TI_end_line(0x105)
TMS320C55x Assembler PC v4.4.1 Tue Oct 02 02:33:44 2018

Tools Copyright (c) 1996-2012 Texas Instruments Incorporated
csl_usb.asm                                                          PAGE   33

    1227              $C$DW$48        .dwtag  DW_TAG_TI_loop_range
    1228                      .dwattr $C$DW$48, DW_AT_low_pc($C$DW$L$_USB_init$11$B)
    1229                      .dwattr $C$DW$48, DW_AT_high_pc($C$DW$L$_USB_init$11$E)
    1230              $C$DW$49        .dwtag  DW_TAG_TI_loop_range
    1231                      .dwattr $C$DW$49, DW_AT_low_pc($C$DW$L$_USB_init$23$B)
    1232                      .dwattr $C$DW$49, DW_AT_high_pc($C$DW$L$_USB_init$23$E)
    1233              $C$DW$50        .dwtag  DW_TAG_TI_loop_range
    1234                      .dwattr $C$DW$50, DW_AT_low_pc($C$DW$L$_USB_init$32$B)
    1235                      .dwattr $C$DW$50, DW_AT_high_pc($C$DW$L$_USB_init$32$E)
    1236              $C$DW$51        .dwtag  DW_TAG_TI_loop_range
    1237                      .dwattr $C$DW$51, DW_AT_low_pc($C$DW$L$_USB_init$20$B)
    1238                      .dwattr $C$DW$51, DW_AT_high_pc($C$DW$L$_USB_init$20$E)
    1239              $C$DW$52        .dwtag  DW_TAG_TI_loop_range
    1240                      .dwattr $C$DW$52, DW_AT_low_pc($C$DW$L$_USB_init$17$B)
    1241                      .dwattr $C$DW$52, DW_AT_high_pc($C$DW$L$_USB_init$17$E)
    1242              $C$DW$53        .dwtag  DW_TAG_TI_loop_range
    1243                      .dwattr $C$DW$53, DW_AT_low_pc($C$DW$L$_USB_init$30$B)
    1244                      .dwattr $C$DW$53, DW_AT_high_pc($C$DW$L$_USB_init$30$E)
    1245              $C$DW$54        .dwtag  DW_TAG_TI_loop_range
    1246                      .dwattr $C$DW$54, DW_AT_low_pc($C$DW$L$_USB_init$14$B)
    1247                      .dwattr $C$DW$54, DW_AT_high_pc($C$DW$L$_USB_init$14$E)
    1248              $C$DW$55        .dwtag  DW_TAG_TI_loop_range
    1249                      .dwattr $C$DW$55, DW_AT_low_pc($C$DW$L$_USB_init$27$B)
    1250                      .dwattr $C$DW$55, DW_AT_high_pc($C$DW$L$_USB_init$27$E)
    1251              $C$DW$56        .dwtag  DW_TAG_TI_loop_range
    1252                      .dwattr $C$DW$56, DW_AT_low_pc($C$DW$L$_USB_init$28$B)
    1253                      .dwattr $C$DW$56, DW_AT_high_pc($C$DW$L$_USB_init$28$E)
    1254              $C$DW$57        .dwtag  DW_TAG_TI_loop_range
    1255                      .dwattr $C$DW$57, DW_AT_low_pc($C$DW$L$_USB_init$29$B)
    1256                      .dwattr $C$DW$57, DW_AT_high_pc($C$DW$L$_USB_init$29$E)
    1257              $C$DW$58        .dwtag  DW_TAG_TI_loop_range
    1258                      .dwattr $C$DW$58, DW_AT_low_pc($C$DW$L$_USB_init$13$B)
    1259                      .dwattr $C$DW$58, DW_AT_high_pc($C$DW$L$_USB_init$13$E)
    1260              $C$DW$59        .dwtag  DW_TAG_TI_loop_range
    1261                      .dwattr $C$DW$59, DW_AT_low_pc($C$DW$L$_USB_init$15$B)
    1262                      .dwattr $C$DW$59, DW_AT_high_pc($C$DW$L$_USB_init$15$E)
    1263              $C$DW$60        .dwtag  DW_TAG_TI_loop_range
    1264                      .dwattr $C$DW$60, DW_AT_low_pc($C$DW$L$_USB_init$16$B)
    1265                      .dwattr $C$DW$60, DW_AT_high_pc($C$DW$L$_USB_init$16$E)
    1266              $C$DW$61        .dwtag  DW_TAG_TI_loop_range
    1267                      .dwattr $C$DW$61, DW_AT_low_pc($C$DW$L$_USB_init$18$B)
    1268                      .dwattr $C$DW$61, DW_AT_high_pc($C$DW$L$_USB_init$18$E)
    1269              $C$DW$62        .dwtag  DW_TAG_TI_loop_range
    1270                      .dwattr $C$DW$62, DW_AT_low_pc($C$DW$L$_USB_init$19$B)
    1271                      .dwattr $C$DW$62, DW_AT_high_pc($C$DW$L$_USB_init$19$E)
    1272              $C$DW$63        .dwtag  DW_TAG_TI_loop_range
    1273                      .dwattr $C$DW$63, DW_AT_low_pc($C$DW$L$_USB_init$21$B)
    1274                      .dwattr $C$DW$63, DW_AT_high_pc($C$DW$L$_USB_init$21$E)
    1275              $C$DW$64        .dwtag  DW_TAG_TI_loop_range
    1276                      .dwattr $C$DW$64, DW_AT_low_pc($C$DW$L$_USB_init$22$B)
    1277                      .dwattr $C$DW$64, DW_AT_high_pc($C$DW$L$_USB_init$22$E)
    1278              $C$DW$65        .dwtag  DW_TAG_TI_loop_range
    1279                      .dwattr $C$DW$65, DW_AT_low_pc($C$DW$L$_USB_init$24$B)
    1280                      .dwattr $C$DW$65, DW_AT_high_pc($C$DW$L$_USB_init$24$E)
    1281              $C$DW$66        .dwtag  DW_TAG_TI_loop_range
TMS320C55x Assembler PC v4.4.1 Tue Oct 02 02:33:44 2018

Tools Copyright (c) 1996-2012 Texas Instruments Incorporated
csl_usb.asm                                                          PAGE   34

    1282                      .dwattr $C$DW$66, DW_AT_low_pc($C$DW$L$_USB_init$25$B)
    1283                      .dwattr $C$DW$66, DW_AT_high_pc($C$DW$L$_USB_init$25$E)
    1284              $C$DW$67        .dwtag  DW_TAG_TI_loop_range
    1285                      .dwattr $C$DW$67, DW_AT_low_pc($C$DW$L$_USB_init$31$B)
    1286                      .dwattr $C$DW$67, DW_AT_high_pc($C$DW$L$_USB_init$31$E)
    1287              $C$DW$68        .dwtag  DW_TAG_TI_loop_range
    1288                      .dwattr $C$DW$68, DW_AT_low_pc($C$DW$L$_USB_init$33$B)
    1289                      .dwattr $C$DW$68, DW_AT_high_pc($C$DW$L$_USB_init$33$E)
    1290              $C$DW$69        .dwtag  DW_TAG_TI_loop_range
    1291                      .dwattr $C$DW$69, DW_AT_low_pc($C$DW$L$_USB_init$34$B)
    1292                      .dwattr $C$DW$69, DW_AT_high_pc($C$DW$L$_USB_init$34$E)
    1293                      .dwendtag $C$DW$47
    1294              
    1295              
    1296              $C$DW$70        .dwtag  DW_TAG_TI_loop
    1297                      .dwattr $C$DW$70, DW_AT_name("F:\eZdsp-DBG-sim\tmp1\c55x-sim2\foo\Debug\csl_usb.asm:$C$L14:1:15384728
    1298                      .dwattr $C$DW$70, DW_AT_TI_begin_file("../c5535_bsl_revc/ezdsp5535_v1/c55xx_csl/src/csl_usb.c")
    1299                      .dwattr $C$DW$70, DW_AT_TI_begin_line(0x7f)
    1300                      .dwattr $C$DW$70, DW_AT_TI_end_line(0x7f)
    1301              $C$DW$71        .dwtag  DW_TAG_TI_loop_range
    1302                      .dwattr $C$DW$71, DW_AT_low_pc($C$DW$L$_USB_init$9$B)
    1303                      .dwattr $C$DW$71, DW_AT_high_pc($C$DW$L$_USB_init$9$E)
    1304                      .dwendtag $C$DW$70
    1305              
    1306              
    1307              $C$DW$72        .dwtag  DW_TAG_TI_loop
    1308                      .dwattr $C$DW$72, DW_AT_name("F:\eZdsp-DBG-sim\tmp1\c55x-sim2\foo\Debug\csl_usb.asm:$C$L12:1:15384728
    1309                      .dwattr $C$DW$72, DW_AT_TI_begin_file("../c5535_bsl_revc/ezdsp5535_v1/c55xx_csl/src/csl_usb.c")
    1310                      .dwattr $C$DW$72, DW_AT_TI_begin_line(0x6d)
    1311                      .dwattr $C$DW$72, DW_AT_TI_end_line(0x6d)
    1312              $C$DW$73        .dwtag  DW_TAG_TI_loop_range
    1313                      .dwattr $C$DW$73, DW_AT_low_pc($C$DW$L$_USB_init$7$B)
    1314                      .dwattr $C$DW$73, DW_AT_high_pc($C$DW$L$_USB_init$7$E)
    1315                      .dwendtag $C$DW$72
    1316              
    1317                      .dwattr $C$DW$37, DW_AT_TI_end_file("../c5535_bsl_revc/ezdsp5535_v1/c55xx_csl/src/csl_usb.c")
    1318                      .dwattr $C$DW$37, DW_AT_TI_end_line(0x10d)
    1319                      .dwattr $C$DW$37, DW_AT_TI_end_column(0x01)
    1320                      .dwendentry
    1321                      .dwendtag $C$DW$37
    1322              
    1323 0006e1               .sect   ".text"
    1324                      .align 4
    1325                      .global _USB_resetDev
    1326              
    1327              $C$DW$74        .dwtag  DW_TAG_subprogram, DW_AT_name("USB_resetDev")
    1328                      .dwattr $C$DW$74, DW_AT_low_pc(_USB_resetDev)
    1329                      .dwattr $C$DW$74, DW_AT_high_pc(0x00)
    1330                      .dwattr $C$DW$74, DW_AT_TI_symbol_name("_USB_resetDev")
    1331                      .dwattr $C$DW$74, DW_AT_external
    1332                      .dwattr $C$DW$74, DW_AT_type(*$C$DW$T$75)
    1333                      .dwattr $C$DW$74, DW_AT_TI_begin_file("../c5535_bsl_revc/ezdsp5535_v1/c55xx_csl/src/csl_usb.c")
    1334                      .dwattr $C$DW$74, DW_AT_TI_begin_line(0x136)
    1335                      .dwattr $C$DW$74, DW_AT_TI_begin_column(0x0c)
    1336                      .dwattr $C$DW$74, DW_AT_TI_max_frame_size(0x08)
TMS320C55x Assembler PC v4.4.1 Tue Oct 02 02:33:44 2018

Tools Copyright (c) 1996-2012 Texas Instruments Incorporated
csl_usb.asm                                                          PAGE   35

    1337                      .dwpsn  file "../c5535_bsl_revc/ezdsp5535_v1/c55xx_csl/src/csl_usb.c",line 311,column 1,is_stmt,addre
    1338              
    1339                      .dwfde $C$DW$CIE, _USB_resetDev
    1340              $C$DW$75        .dwtag  DW_TAG_formal_parameter, DW_AT_name("devNum")
    1341                      .dwattr $C$DW$75, DW_AT_TI_symbol_name("_devNum")
    1342                      .dwattr $C$DW$75, DW_AT_type(*$C$DW$T$68)
    1343                      .dwattr $C$DW$75, DW_AT_location[DW_OP_reg12]
    1344              ;*******************************************************************************
    1345              ;* FUNCTION NAME: USB_resetDev                                                 *
    1346              ;*                                                                             *
    1347              ;*   Function Uses Regs : AC0,AC0,T0,AR1,AR3,XAR3,SP,CARRY,M40,SATA,SATD,RDM,  *
    1348              ;*                        FRCT,SMUL                                            *
    1349              ;*   Stack Frame        : Compact (No Frame Pointer, w/ debug)                 *
    1350              ;*   Total Frame Size   : 8 words                                              *
    1351              ;*                        (2 return address/alignment)                         *
    1352              ;*                        (6 local values)                                     *
    1353              ;*   Min System Stack   : 1 word                                               *
    1354              ;*******************************************************************************
    1355 0006e4       _USB_resetDev:
    1356                      .dwcfi  cfa_offset, 1
    1357                      .dwcfi  save_reg_to_mem, 91, -1
    1358 0006e4 4EF9          AADD #-7, SP
    1359                      .dwcfi  cfa_offset, 8
    1360              $C$DW$76        .dwtag  DW_TAG_variable, DW_AT_name("devNum")
    1361                      .dwattr $C$DW$76, DW_AT_TI_symbol_name("_devNum")
    1362                      .dwattr $C$DW$76, DW_AT_type(*$C$DW$T$68)
    1363                      .dwattr $C$DW$76, DW_AT_location[DW_OP_bregx 0x24 0]
    1364              $C$DW$77        .dwtag  DW_TAG_variable, DW_AT_name("status")
    1365                      .dwattr $C$DW$77, DW_AT_TI_symbol_name("_status")
    1366                      .dwattr $C$DW$77, DW_AT_type(*$C$DW$T$75)
    1367                      .dwattr $C$DW$77, DW_AT_location[DW_OP_bregx 0x24 1]
    1368              $C$DW$78        .dwtag  DW_TAG_variable, DW_AT_name("saveIndex")
    1369                      .dwattr $C$DW$78, DW_AT_TI_symbol_name("_saveIndex")
    1370                      .dwattr $C$DW$78, DW_AT_type(*$C$DW$T$19)
    1371                      .dwattr $C$DW$78, DW_AT_location[DW_OP_bregx 0x24 2]
    1372              $C$DW$79        .dwtag  DW_TAG_variable, DW_AT_name("pContext")
    1373                      .dwattr $C$DW$79, DW_AT_TI_symbol_name("_pContext")
    1374                      .dwattr $C$DW$79, DW_AT_type(*$C$DW$T$142)
    1375                      .dwattr $C$DW$79, DW_AT_location[DW_OP_bregx 0x24 4]
    1376 0006e6 C400          MOV T0, *SP(#0) ; |311| 
    1377                      .dwpsn  file "../c5535_bsl_revc/ezdsp5535_v1/c55xx_csl/src/csl_usb.c",line 316,column 2,is_stmt
    1378 0006e8 E602          MOV #0, *SP(#1) ; |316| 
         0006ea 00   
    1379                      .dwpsn  file "../c5535_bsl_revc/ezdsp5535_v1/c55xx_csl/src/csl_usb.c",line 317,column 2,is_stmt
    1380 0006eb E604          MOV #0, *SP(#2) ; |317| 
         0006ed 00   
    1381                      .dwpsn  file "../c5535_bsl_revc/ezdsp5535_v1/c55xx_csl/src/csl_usb.c",line 318,column 2,is_stmt
    1382 0006ee EC31          AMOV #_gUsbContext, XAR3 ; |318| 
         0006f0 BE00 
         0006f2 0002-
    1383 0006f4 EB08          MOV XAR3, dbl(*SP(#4))
         0006f6 B5   
    1384                      .dwpsn  file "../c5535_bsl_revc/ezdsp5535_v1/c55xx_csl/src/csl_usb.c",line 320,column 2,is_stmt
    1385 0006f7 A900          MOV *SP(#0), AR1 ; |320| 
    1386 0006f9 6289          BCC $C$L31,AR1 == #0 ; |320| 
TMS320C55x Assembler PC v4.4.1 Tue Oct 02 02:33:44 2018

Tools Copyright (c) 1996-2012 Texas Instruments Incorporated
csl_usb.asm                                                          PAGE   36

    1387                                                      ; branchcc occurs ; |320| 
    1388                      .dwpsn  file "../c5535_bsl_revc/ezdsp5535_v1/c55xx_csl/src/csl_usb.c",line 322,column 3,is_stmt
    1389 0006fb 3E64          MOV #-6, T0
    1390 0006fd 0602          B $C$L32  ; |322| 
         0006ff 10   
    1391                                                      ; branch occurs ; |322| 
    1392 000700       $C$L31:    
    1393                      .dwpsn  file "../c5535_bsl_revc/ezdsp5535_v1/c55xx_csl/src/csl_usb.c",line 326,column 2,is_stmt
    1394 000700 7604          MOV #1038, T0 ; |326| 
         000702 0E48 
    1395 000704 AB31          MOV *(#_usbRegisters), AR3 ; |326| 
         000706 0000 
         000708 00-  
    1396 000709 A96B          MOV port(*AR3(T0)), AR1 ; |326| 
         00070b 99   
    1397 00070c C904          MOV AR1, *SP(#2) ; |326| 
    1398                      .dwpsn  file "../c5535_bsl_revc/ezdsp5535_v1/c55xx_csl/src/csl_usb.c",line 328,column 2,is_stmt
    1399 00070e ED08          MOV dbl(*SP(#4)), XAR3
         000710 BF   
    1400 000711 E66D          MOV #1, *AR3(#23) ; |328| 
         000713 0100 
         000715 17   
    1401                      .dwpsn  file "../c5535_bsl_revc/ezdsp5535_v1/c55xx_csl/src/csl_usb.c",line 332,column 2,is_stmt
    1402 000716 AB31          MOV *(#_usbRegisters), AR3 ; |332| 
         000718 0000 
         00071a 00-  
    1403 00071b A96B          MOV port(*AR3(T0)), AR1 ; |332| 
         00071d 99   
    1404 00071e 7DFF          AND #0xfff0, AR1, AC0 ; |332| 
         000720 F009 
    1405 000722 C06B          MOV AC0, port(*AR3(T0)) ; |332| 
         000724 9A   
    1406                      .dwpsn  file "../c5535_bsl_revc/ezdsp5535_v1/c55xx_csl/src/csl_usb.c",line 336,column 2,is_stmt
    1407 000725 AB31          MOV *(#_usbRegisters), AR3 ; |336| 
         000727 0000 
         000729 00-  
    1408 00072a A96B          MOV port(*AR3(T0)), AR1 ; |336| 
         00072c 99   
    1409 00072d 7DFF          AND #0xfff0, AR1, AC0 ; |336| 
         00072f F009 
    1410 000731 C06B          MOV AC0, port(*AR3(T0)) ; |336| 
         000733 9A   
    1411                      .dwpsn  file "../c5535_bsl_revc/ezdsp5535_v1/c55xx_csl/src/csl_usb.c",line 340,column 2,is_stmt
    1412 000734 7604          MOV #1042, T0 ; |340| 
         000736 1248 
    1413 000738 AB31          MOV *(#_usbRegisters), AR3 ; |340| 
         00073a 0000 
         00073c 00-  
    1414 00073d A96B          MOV port(*AR3(T0)), AR1 ; |340| 
         00073f 99   
    1415 000740 EC10          BCLR @#8, AR1 ; |340| 
         000742 92   
    1416 000743 EC10          BSET @#8, AR1 ; |340| 
         000745 90   
    1417 000746 C96B          MOV AR1, port(*AR3(T0)) ; |340| 
TMS320C55x Assembler PC v4.4.1 Tue Oct 02 02:33:44 2018

Tools Copyright (c) 1996-2012 Texas Instruments Incorporated
csl_usb.asm                                                          PAGE   37

         000748 9A   
    1418                      .dwpsn  file "../c5535_bsl_revc/ezdsp5535_v1/c55xx_csl/src/csl_usb.c",line 344,column 2,is_stmt
    1419 000749 7604          MOV #1038, T0 ; |344| 
         00074b 0E48 
    1420 00074d AB31          MOV *(#_usbRegisters), AR3 ; |344| 
         00074f 0000 
         000751 00-  
    1421 000752 A96B          MOV port(*AR3(T0)), AR1 ; |344| 
         000754 99   
    1422 000755 7DFF          AND #0xfff0, AR1, AC0 ; |344| 
         000757 F009 
    1423 000759 C06B          MOV AC0, port(*AR3(T0)) ; |344| 
         00075b 9A   
    1424                      .dwpsn  file "../c5535_bsl_revc/ezdsp5535_v1/c55xx_csl/src/csl_usb.c",line 348,column 2,is_stmt
    1425 00075c AB31          MOV *(#_usbRegisters), AR3 ; |348| 
         00075e 0000 
         000760 00-  
    1426 000761 A96B          MOV port(*AR3(T0)), AR1 ; |348| 
         000763 99   
    1427 000764 7DFF          AND #0xfff0, AR1, AC0 ; |348| 
         000766 F009 
    1428 000768 EC00          BSET @#0, AC0 ; |348| 
         00076a 00   
    1429 00076b C06B          MOV AC0, port(*AR3(T0)) ; |348| 
         00076d 9A   
    1430                      .dwpsn  file "../c5535_bsl_revc/ezdsp5535_v1/c55xx_csl/src/csl_usb.c",line 352,column 2,is_stmt
    1431 00076e 7604          MOV #1042, T0 ; |352| 
         000770 1248 
    1432 000772 AB31          MOV *(#_usbRegisters), AR3 ; |352| 
         000774 0000 
         000776 00-  
    1433 000777 A96B          MOV port(*AR3(T0)), AR1 ; |352| 
         000779 99   
    1434 00077a EC06          BCLR @#3, AR1 ; |352| 
         00077c 92   
    1435 00077d EC06          BSET @#3, AR1 ; |352| 
         00077f 90   
    1436 000780 C96B          MOV AR1, port(*AR3(T0)) ; |352| 
         000782 9A   
    1437                      .dwpsn  file "../c5535_bsl_revc/ezdsp5535_v1/c55xx_csl/src/csl_usb.c",line 355,column 5,is_stmt
    1438 000783 7604          MOV #1046, T0 ; |355| 
         000785 1648 
    1439 000787 AB31          MOV *(#_usbRegisters), AR3 ; |355| 
         000789 0000 
         00078b 00-  
    1440 00078c A96B          MOV port(*AR3(T0)), AR1 ; |355| 
         00078e 99   
    1441 00078f EC08          BCLR @#4, AR1 ; |355| 
         000791 92   
    1442 000792 EC08          BSET @#4, AR1 ; |355| 
         000794 90   
    1443 000795 C96B          MOV AR1, port(*AR3(T0)) ; |355| 
         000797 9A   
    1444                      .dwpsn  file "../c5535_bsl_revc/ezdsp5535_v1/c55xx_csl/src/csl_usb.c",line 359,column 2,is_stmt
    1445 000798 7604          MOV #1038, T0 ; |359| 
TMS320C55x Assembler PC v4.4.1 Tue Oct 02 02:33:44 2018

Tools Copyright (c) 1996-2012 Texas Instruments Incorporated
csl_usb.asm                                                          PAGE   38

         00079a 0E48 
    1446 00079c AB31          MOV *(#_usbRegisters), AR3 ; |359| 
         00079e 0000 
         0007a0 00-  
    1447 0007a1 A96B          MOV port(*AR3(T0)), AR1 ; |359| 
         0007a3 99   
    1448 0007a4 7DFF          AND #0xfff0, AR1, AC0 ; |359| 
         0007a6 F009 
    1449 0007a8 C06B          MOV AC0, port(*AR3(T0)) ; |359| 
         0007aa 9A   
    1450                      .dwpsn  file "../c5535_bsl_revc/ezdsp5535_v1/c55xx_csl/src/csl_usb.c",line 363,column 2,is_stmt
    1451 0007ab AB31          MOV *(#_usbRegisters), AR3 ; |363| 
         0007ad 0000 
         0007af 00-  
    1452 0007b0 A96B          MOV port(*AR3(T0)), AR1 ; |363| 
         0007b2 99   
    1453 0007b3 7DFF          AND #0xfff0, AR1, AC0 ; |363| 
         0007b5 F009 
    1454 0007b7 EC02          BSET @#1, AC0 ; |363| 
         0007b9 00   
    1455 0007ba C06B          MOV AC0, port(*AR3(T0)) ; |363| 
         0007bc 9A   
    1456                      .dwpsn  file "../c5535_bsl_revc/ezdsp5535_v1/c55xx_csl/src/csl_usb.c",line 367,column 5,is_stmt
    1457 0007bd 7604          MOV #1042, T0 ; |367| 
         0007bf 1248 
    1458 0007c1 AB31          MOV *(#_usbRegisters), AR3 ; |367| 
         0007c3 0000 
         0007c5 00-  
    1459 0007c6 A96B          MOV port(*AR3(T0)), AR1 ; |367| 
         0007c8 99   
    1460 0007c9 EC06          BCLR @#3, AR1 ; |367| 
         0007cb 92   
    1461 0007cc EC06          BSET @#3, AR1 ; |367| 
         0007ce 90   
    1462 0007cf C96B          MOV AR1, port(*AR3(T0)) ; |367| 
         0007d1 9A   
    1463                      .dwpsn  file "../c5535_bsl_revc/ezdsp5535_v1/c55xx_csl/src/csl_usb.c",line 370,column 2,is_stmt
    1464 0007d2 7604          MOV #1046, T0 ; |370| 
         0007d4 1648 
    1465 0007d6 AB31          MOV *(#_usbRegisters), AR3 ; |370| 
         0007d8 0000 
         0007da 00-  
    1466 0007db A96B          MOV port(*AR3(T0)), AR1 ; |370| 
         0007dd 99   
    1467 0007de EC08          BCLR @#4, AR1 ; |370| 
         0007e0 92   
    1468 0007e1 EC08          BSET @#4, AR1 ; |370| 
         0007e3 90   
    1469 0007e4 C96B          MOV AR1, port(*AR3(T0)) ; |370| 
         0007e6 9A   
    1470                      .dwpsn  file "../c5535_bsl_revc/ezdsp5535_v1/c55xx_csl/src/csl_usb.c",line 374,column 2,is_stmt
    1471 0007e7 7604          MOV #1038, T0 ; |374| 
         0007e9 0E48 
    1472 0007eb AB31          MOV *(#_usbRegisters), AR3 ; |374| 
         0007ed 0000 
TMS320C55x Assembler PC v4.4.1 Tue Oct 02 02:33:44 2018

Tools Copyright (c) 1996-2012 Texas Instruments Incorporated
csl_usb.asm                                                          PAGE   39

         0007ef 00-  
    1473 0007f0 A96B          MOV port(*AR3(T0)), AR1 ; |374| 
         0007f2 99   
    1474 0007f3 7DFF          AND #0xfff0, AR1, AC0 ; |374| 
         0007f5 F009 
    1475 0007f7 C06B          MOV AC0, port(*AR3(T0)) ; |374| 
         0007f9 9A   
    1476                      .dwpsn  file "../c5535_bsl_revc/ezdsp5535_v1/c55xx_csl/src/csl_usb.c",line 378,column 2,is_stmt
    1477 0007fa AB31          MOV *(#_usbRegisters), AR3 ; |378| 
         0007fc 0000 
         0007fe 00-  
    1478 0007ff A96B          MOV port(*AR3(T0)), AR1 ; |378| 
         000801 99   
    1479 000802 7DFF          AND #0xfff0, AR1, AR1 ; |378| 
         000804 F099 
    1480 000806 1A03          OR #0x0003, AR1, AR1 ; |378| 
         000808 99   
    1481 000809 C96B          MOV AR1, port(*AR3(T0)) ; |378| 
         00080b 9A   
    1482                      .dwpsn  file "../c5535_bsl_revc/ezdsp5535_v1/c55xx_csl/src/csl_usb.c",line 382,column 5,is_stmt
    1483 00080c 7604          MOV #1042, T0 ; |382| 
         00080e 1248 
    1484 000810 AB31          MOV *(#_usbRegisters), AR3 ; |382| 
         000812 0000 
         000814 00-  
    1485 000815 A96B          MOV port(*AR3(T0)), AR1 ; |382| 
         000817 99   
    1486 000818 EC06          BCLR @#3, AR1 ; |382| 
         00081a 92   
    1487 00081b EC06          BSET @#3, AR1 ; |382| 
         00081d 90   
    1488 00081e C96B          MOV AR1, port(*AR3(T0)) ; |382| 
         000820 9A   
    1489                      .dwpsn  file "../c5535_bsl_revc/ezdsp5535_v1/c55xx_csl/src/csl_usb.c",line 385,column 2,is_stmt
    1490 000821 7604          MOV #1046, T0 ; |385| 
         000823 1648 
    1491 000825 AB31          MOV *(#_usbRegisters), AR3 ; |385| 
         000827 0000 
         000829 00-  
    1492 00082a A96B          MOV port(*AR3(T0)), AR1 ; |385| 
         00082c 99   
    1493 00082d EC08          BCLR @#4, AR1 ; |385| 
         00082f 92   
    1494 000830 EC08          BSET @#4, AR1 ; |385| 
         000832 90   
    1495 000833 C96B          MOV AR1, port(*AR3(T0)) ; |385| 
         000835 9A   
    1496                      .dwpsn  file "../c5535_bsl_revc/ezdsp5535_v1/c55xx_csl/src/csl_usb.c",line 389,column 2,is_stmt
    1497 000836 7604          MOV #1038, T0 ; |389| 
         000838 0E48 
    1498 00083a AB31          MOV *(#_usbRegisters), AR3 ; |389| 
         00083c 0000 
         00083e 00-  
    1499 00083f A96B          MOV port(*AR3(T0)), AR1 ; |389| 
         000841 99   
TMS320C55x Assembler PC v4.4.1 Tue Oct 02 02:33:44 2018

Tools Copyright (c) 1996-2012 Texas Instruments Incorporated
csl_usb.asm                                                          PAGE   40

    1500 000842 7DFF          AND #0xfff0, AR1, AC0 ; |389| 
         000844 F009 
    1501 000846 C06B          MOV AC0, port(*AR3(T0)) ; |389| 
         000848 9A   
    1502                      .dwpsn  file "../c5535_bsl_revc/ezdsp5535_v1/c55xx_csl/src/csl_usb.c",line 393,column 2,is_stmt
    1503 000849 AB31          MOV *(#_usbRegisters), AR3 ; |393| 
         00084b 0000 
         00084d 00-  
    1504 00084e A96B          MOV port(*AR3(T0)), AR1 ; |393| 
         000850 99   
    1505 000851 7DFF          AND #0xfff0, AR1, AC0 ; |393| 
         000853 F009 
    1506 000855 EC04          BSET @#2, AC0 ; |393| 
         000857 00   
    1507 000858 C06B          MOV AC0, port(*AR3(T0)) ; |393| 
         00085a 9A   
    1508                      .dwpsn  file "../c5535_bsl_revc/ezdsp5535_v1/c55xx_csl/src/csl_usb.c",line 397,column 5,is_stmt
    1509 00085b 7604          MOV #1042, T0 ; |397| 
         00085d 1248 
    1510 00085f AB31          MOV *(#_usbRegisters), AR3 ; |397| 
         000861 0000 
         000863 00-  
    1511 000864 A96B          MOV port(*AR3(T0)), AR1 ; |397| 
         000866 99   
    1512 000867 EC06          BCLR @#3, AR1 ; |397| 
         000869 92   
    1513 00086a EC06          BSET @#3, AR1 ; |397| 
         00086c 90   
    1514 00086d C96B          MOV AR1, port(*AR3(T0)) ; |397| 
         00086f 9A   
    1515                      .dwpsn  file "../c5535_bsl_revc/ezdsp5535_v1/c55xx_csl/src/csl_usb.c",line 400,column 2,is_stmt
    1516 000870 7604          MOV #1046, T0 ; |400| 
         000872 1648 
    1517 000874 AB31          MOV *(#_usbRegisters), AR3 ; |400| 
         000876 0000 
         000878 00-  
    1518 000879 A96B          MOV port(*AR3(T0)), AR1 ; |400| 
         00087b 99   
    1519 00087c EC08          BCLR @#4, AR1 ; |400| 
         00087e 92   
    1520 00087f EC08          BSET @#4, AR1 ; |400| 
         000881 90   
    1521 000882 C96B          MOV AR1, port(*AR3(T0)) ; |400| 
         000884 9A   
    1522                      .dwpsn  file "../c5535_bsl_revc/ezdsp5535_v1/c55xx_csl/src/csl_usb.c",line 405,column 2,is_stmt
    1523 000885 7604          MOV #1030, T0 ; |405| 
         000887 0648 
    1524 000889 AB31          MOV *(#_usbRegisters), AR3 ; |405| 
         00088b 0000 
         00088d 00-  
    1525 00088e A96B          MOV port(*AR3(T0)), AR1 ; |405| 
         000890 99   
    1526 000891 EC00          BCLR @#0, AR1 ; |405| 
         000893 92   
    1527 000894 EC00          BSET @#0, AR1 ; |405| 
TMS320C55x Assembler PC v4.4.1 Tue Oct 02 02:33:44 2018

Tools Copyright (c) 1996-2012 Texas Instruments Incorporated
csl_usb.asm                                                          PAGE   41

         000896 90   
    1528 000897 C96B          MOV AR1, port(*AR3(T0)) ; |405| 
         000899 9A   
    1529                      .dwpsn  file "../c5535_bsl_revc/ezdsp5535_v1/c55xx_csl/src/csl_usb.c",line 408,column 2,is_stmt
    1530 00089a AB31          MOV *(#_usbRegisters), AR3 ; |408| 
         00089c 0000 
         00089e 00-  
    1531 00089f A96B          MOV port(*AR3(T0)), AR1 ; |408| 
         0008a1 99   
    1532 0008a2 EC02          BCLR @#1, AR1 ; |408| 
         0008a4 92   
    1533 0008a5 EC02          BSET @#1, AR1 ; |408| 
         0008a7 90   
    1534 0008a8 C96B          MOV AR1, port(*AR3(T0)) ; |408| 
         0008aa 9A   
    1535                      .dwpsn  file "../c5535_bsl_revc/ezdsp5535_v1/c55xx_csl/src/csl_usb.c",line 411,column 2,is_stmt
    1536 0008ab 7604          MOV #1033, T0 ; |411| 
         0008ad 0948 
    1537 0008af AB31          MOV *(#_usbRegisters), AR3 ; |411| 
         0008b1 0000 
         0008b3 00-  
    1538 0008b4 A96B          MOV port(*AR3(T0)), AR1 ; |411| 
         0008b6 99   
    1539 0008b7 EC04          BCLR @#2, AR1 ; |411| 
         0008b9 92   
    1540 0008ba EC04          BSET @#2, AR1 ; |411| 
         0008bc 90   
    1541 0008bd C96B          MOV AR1, port(*AR3(T0)) ; |411| 
         0008bf 9A   
    1542                      .dwpsn  file "../c5535_bsl_revc/ezdsp5535_v1/c55xx_csl/src/csl_usb.c",line 414,column 5,is_stmt
    1543 0008c0 7604          MOV #1030, T0 ; |414| 
         0008c2 0648 
    1544 0008c4 AB31          MOV *(#_usbRegisters), AR3 ; |414| 
         0008c6 0000 
         0008c8 00-  
    1545 0008c9 A96B          MOV port(*AR3(T0)), AR1 ; |414| 
         0008cb 99   
    1546 0008cc EC06          BCLR @#3, AR1 ; |414| 
         0008ce 92   
    1547 0008cf EC06          BSET @#3, AR1 ; |414| 
         0008d1 90   
    1548 0008d2 C96B          MOV AR1, port(*AR3(T0)) ; |414| 
         0008d4 9A   
    1549                      .dwpsn  file "../c5535_bsl_revc/ezdsp5535_v1/c55xx_csl/src/csl_usb.c",line 418,column 2,is_stmt
    1550 0008d5 7604          MOV #1034, AR1 ; |418| 
         0008d7 0A98 
    1551 0008d9 D631          ADD *(#_usbRegisters), AR1, AR3 ; |418| 
         0008db B900 
         0008dd 0000-
    1552 0008df F561          OR #0x7fff, port(*AR3) ; |418| 
         0008e1 7FFF 
         0008e3 9A   
    1553                      .dwpsn  file "../c5535_bsl_revc/ezdsp5535_v1/c55xx_csl/src/csl_usb.c",line 419,column 2,is_stmt
    1554 0008e4 7600          MOV #48, T0 ; |419| 
         0008e6 3048 
TMS320C55x Assembler PC v4.4.1 Tue Oct 02 02:33:44 2018

Tools Copyright (c) 1996-2012 Texas Instruments Incorporated
csl_usb.asm                                                          PAGE   42

    1555 0008e8 AB31          MOV *(#_usbRegisters), AR3 ; |419| 
         0008ea 0000 
         0008ec 00-  
    1556 0008ed FB6B          MOV #65535, port(*AR3(T0)) ; |419| 
         0008ef FFFF 
         0008f1 9A   
    1557                      .dwpsn  file "../c5535_bsl_revc/ezdsp5535_v1/c55xx_csl/src/csl_usb.c",line 420,column 5,is_stmt
    1558 0008f2 7600          MOV #49, T0 ; |420| 
         0008f4 3148 
    1559 0008f6 AB31          MOV *(#_usbRegisters), AR3 ; |420| 
         0008f8 0000 
         0008fa 00-  
    1560 0008fb FB6B          MOV #65527, port(*AR3(T0)) ; |420| 
         0008fd FFF7 
         0008ff 9A   
    1561                      .dwpsn  file "../c5535_bsl_revc/ezdsp5535_v1/c55xx_csl/src/csl_usb.c",line 423,column 2,is_stmt
    1562 000900 7604          MOV #1038, T0 ; |423| 
         000902 0E48 
    1563 000904 AB31          MOV *(#_usbRegisters), AR3 ; |423| 
         000906 0000 
         000908 00-  
    1564 000909 A904          MOV *SP(#2), AR1 ; |423| 
    1565 00090b C96B          MOV AR1, port(*AR3(T0)) ; |423| 
         00090d 9A   
    1566                      .dwpsn  file "../c5535_bsl_revc/ezdsp5535_v1/c55xx_csl/src/csl_usb.c",line 425,column 5,is_stmt
    1567 00090e A402          MOV *SP(#1), T0 ; |425| 
    1568 000910       $C$L32:    
    1569                      .dwpsn  file "../c5535_bsl_revc/ezdsp5535_v1/c55xx_csl/src/csl_usb.c",line 426,column 1,is_stmt
    1570 000910 4E07          AADD #7, SP
    1571                      .dwcfi  cfa_offset, 1
    1572              $C$DW$80        .dwtag  DW_TAG_TI_branch
    1573                      .dwattr $C$DW$80, DW_AT_low_pc(0x00)
    1574                      .dwattr $C$DW$80, DW_AT_TI_return
    1575 000912 4804          RET
    1576                                                      ; return occurs
    1577                      .dwattr $C$DW$74, DW_AT_TI_end_file("../c5535_bsl_revc/ezdsp5535_v1/c55xx_csl/src/csl_usb.c")
    1578                      .dwattr $C$DW$74, DW_AT_TI_end_line(0x1aa)
    1579                      .dwattr $C$DW$74, DW_AT_TI_end_column(0x01)
    1580                      .dwendentry
    1581                      .dwendtag $C$DW$74
    1582              
    1583 000914               .sect   ".text"
    1584                      .align 4
    1585                      .global _USB_initEndptObj
    1586              
    1587              $C$DW$81        .dwtag  DW_TAG_subprogram, DW_AT_name("USB_initEndptObj")
    1588                      .dwattr $C$DW$81, DW_AT_low_pc(_USB_initEndptObj)
    1589                      .dwattr $C$DW$81, DW_AT_high_pc(0x00)
    1590                      .dwattr $C$DW$81, DW_AT_TI_symbol_name("_USB_initEndptObj")
    1591                      .dwattr $C$DW$81, DW_AT_external
    1592                      .dwattr $C$DW$81, DW_AT_type(*$C$DW$T$75)
    1593                      .dwattr $C$DW$81, DW_AT_TI_begin_file("../c5535_bsl_revc/ezdsp5535_v1/c55xx_csl/src/csl_usb.c")
    1594                      .dwattr $C$DW$81, DW_AT_TI_begin_line(0x1e6)
    1595                      .dwattr $C$DW$81, DW_AT_TI_begin_column(0x0c)
    1596                      .dwattr $C$DW$81, DW_AT_TI_max_frame_size(0x16)
TMS320C55x Assembler PC v4.4.1 Tue Oct 02 02:33:44 2018

Tools Copyright (c) 1996-2012 Texas Instruments Incorporated
csl_usb.asm                                                          PAGE   43

    1597                      .dwpsn  file "../c5535_bsl_revc/ezdsp5535_v1/c55xx_csl/src/csl_usb.c",line 493,column 1,is_stmt,addre
    1598              
    1599                      .dwfde $C$DW$CIE, _USB_initEndptObj
    1600              $C$DW$82        .dwtag  DW_TAG_formal_parameter, DW_AT_name("devNum")
    1601                      .dwattr $C$DW$82, DW_AT_TI_symbol_name("_devNum")
    1602                      .dwattr $C$DW$82, DW_AT_type(*$C$DW$T$68)
    1603                      .dwattr $C$DW$82, DW_AT_location[DW_OP_reg12]
    1604              $C$DW$83        .dwtag  DW_TAG_formal_parameter, DW_AT_name("hEp")
    1605                      .dwattr $C$DW$83, DW_AT_TI_symbol_name("_hEp")
    1606                      .dwattr $C$DW$83, DW_AT_type(*$C$DW$T$102)
    1607                      .dwattr $C$DW$83, DW_AT_location[DW_OP_reg17]
    1608              $C$DW$84        .dwtag  DW_TAG_formal_parameter, DW_AT_name("epNum")
    1609                      .dwattr $C$DW$84, DW_AT_TI_symbol_name("_epNum")
    1610                      .dwattr $C$DW$84, DW_AT_type(*$C$DW$T$108)
    1611                      .dwattr $C$DW$84, DW_AT_location[DW_OP_reg13]
    1612              $C$DW$85        .dwtag  DW_TAG_formal_parameter, DW_AT_name("xferType")
    1613                      .dwattr $C$DW$85, DW_AT_TI_symbol_name("_xferType")
    1614                      .dwattr $C$DW$85, DW_AT_type(*$C$DW$T$110)
    1615                      .dwattr $C$DW$85, DW_AT_location[DW_OP_reg18]
    1616              $C$DW$86        .dwtag  DW_TAG_formal_parameter, DW_AT_name("maxPktSize")
    1617                      .dwattr $C$DW$86, DW_AT_TI_symbol_name("_maxPktSize")
    1618                      .dwattr $C$DW$86, DW_AT_type(*$C$DW$T$19)
    1619                      .dwattr $C$DW$86, DW_AT_location[DW_OP_reg20]
    1620              $C$DW$87        .dwtag  DW_TAG_formal_parameter, DW_AT_name("evMask")
    1621                      .dwattr $C$DW$87, DW_AT_TI_symbol_name("_evMask")
    1622                      .dwattr $C$DW$87, DW_AT_type(*$C$DW$T$19)
    1623                      .dwattr $C$DW$87, DW_AT_location[DW_OP_reg22]
    1624              $C$DW$88        .dwtag  DW_TAG_formal_parameter, DW_AT_name("fxn")
    1625                      .dwattr $C$DW$88, DW_AT_TI_symbol_name("_fxn")
    1626                      .dwattr $C$DW$88, DW_AT_type(*$C$DW$T$113)
    1627                      .dwattr $C$DW$88, DW_AT_location[DW_OP_reg1]
    1628              ;*******************************************************************************
    1629              ;* FUNCTION NAME: USB_initEndptObj                                             *
    1630              ;*                                                                             *
    1631              ;*   Function Uses Regs : AC0,AC0,AC1,AC1,T0,T1,AR0,XAR0,AR1,AR2,XAR2,AR3,XAR3,*
    1632              ;*                        SP,CARRY,TC1,M40,SATA,SATD,RDM,FRCT,SMUL             *
    1633              ;*   Stack Frame        : Compact (No Frame Pointer, w/ debug)                 *
    1634              ;*   Total Frame Size   : 22 words                                             *
    1635              ;*                        (2 return address/alignment)                         *
    1636              ;*                        (20 local values)                                    *
    1637              ;*   Min System Stack   : 1 word                                               *
    1638              ;*******************************************************************************
    1639 000914       _USB_initEndptObj:
    1640                      .dwcfi  cfa_offset, 1
    1641                      .dwcfi  save_reg_to_mem, 91, -1
    1642 000914 4EEB          AADD #-21, SP
    1643                      .dwcfi  cfa_offset, 22
    1644              $C$DW$89        .dwtag  DW_TAG_variable, DW_AT_name("devNum")
    1645                      .dwattr $C$DW$89, DW_AT_TI_symbol_name("_devNum")
    1646                      .dwattr $C$DW$89, DW_AT_type(*$C$DW$T$68)
    1647                      .dwattr $C$DW$89, DW_AT_location[DW_OP_bregx 0x24 0]
    1648              $C$DW$90        .dwtag  DW_TAG_variable, DW_AT_name("hEp")
    1649                      .dwattr $C$DW$90, DW_AT_TI_symbol_name("_hEp")
    1650                      .dwattr $C$DW$90, DW_AT_type(*$C$DW$T$102)
    1651                      .dwattr $C$DW$90, DW_AT_location[DW_OP_bregx 0x24 2]
TMS320C55x Assembler PC v4.4.1 Tue Oct 02 02:33:44 2018

Tools Copyright (c) 1996-2012 Texas Instruments Incorporated
csl_usb.asm                                                          PAGE   44

    1652              $C$DW$91        .dwtag  DW_TAG_variable, DW_AT_name("epNum")
    1653                      .dwattr $C$DW$91, DW_AT_TI_symbol_name("_epNum")
    1654                      .dwattr $C$DW$91, DW_AT_type(*$C$DW$T$108)
    1655                      .dwattr $C$DW$91, DW_AT_location[DW_OP_bregx 0x24 4]
    1656              $C$DW$92        .dwtag  DW_TAG_variable, DW_AT_name("xferType")
    1657                      .dwattr $C$DW$92, DW_AT_TI_symbol_name("_xferType")
    1658                      .dwattr $C$DW$92, DW_AT_type(*$C$DW$T$110)
    1659                      .dwattr $C$DW$92, DW_AT_location[DW_OP_bregx 0x24 5]
    1660              $C$DW$93        .dwtag  DW_TAG_variable, DW_AT_name("maxPktSize")
    1661                      .dwattr $C$DW$93, DW_AT_TI_symbol_name("_maxPktSize")
    1662                      .dwattr $C$DW$93, DW_AT_type(*$C$DW$T$19)
    1663                      .dwattr $C$DW$93, DW_AT_location[DW_OP_bregx 0x24 6]
    1664              $C$DW$94        .dwtag  DW_TAG_variable, DW_AT_name("evMask")
    1665                      .dwattr $C$DW$94, DW_AT_TI_symbol_name("_evMask")
    1666                      .dwattr $C$DW$94, DW_AT_type(*$C$DW$T$19)
    1667                      .dwattr $C$DW$94, DW_AT_location[DW_OP_bregx 0x24 7]
    1668              $C$DW$95        .dwtag  DW_TAG_variable, DW_AT_name("fxn")
    1669                      .dwattr $C$DW$95, DW_AT_TI_symbol_name("_fxn")
    1670                      .dwattr $C$DW$95, DW_AT_type(*$C$DW$T$113)
    1671                      .dwattr $C$DW$95, DW_AT_location[DW_OP_bregx 0x24 8]
    1672              $C$DW$96        .dwtag  DW_TAG_variable, DW_AT_name("peps")
    1673                      .dwattr $C$DW$96, DW_AT_TI_symbol_name("_peps")
    1674                      .dwattr $C$DW$96, DW_AT_type(*$C$DW$T$147)
    1675                      .dwattr $C$DW$96, DW_AT_location[DW_OP_bregx 0x24 10]
    1676              $C$DW$97        .dwtag  DW_TAG_variable, DW_AT_name("status")
    1677                      .dwattr $C$DW$97, DW_AT_TI_symbol_name("_status")
    1678                      .dwattr $C$DW$97, DW_AT_type(*$C$DW$T$75)
    1679                      .dwattr $C$DW$97, DW_AT_location[DW_OP_bregx 0x24 12]
    1680              $C$DW$98        .dwtag  DW_TAG_variable, DW_AT_name("pContext")
    1681                      .dwattr $C$DW$98, DW_AT_TI_symbol_name("_pContext")
    1682                      .dwattr $C$DW$98, DW_AT_type(*$C$DW$T$142)
    1683                      .dwattr $C$DW$98, DW_AT_location[DW_OP_bregx 0x24 14]
    1684              $C$DW$99        .dwtag  DW_TAG_variable, DW_AT_name("fifoSize")
    1685                      .dwattr $C$DW$99, DW_AT_TI_symbol_name("_fifoSize")
    1686                      .dwattr $C$DW$99, DW_AT_type(*$C$DW$T$19)
    1687                      .dwattr $C$DW$99, DW_AT_location[DW_OP_bregx 0x24 16]
    1688              $C$DW$100       .dwtag  DW_TAG_variable, DW_AT_name("saveIndex")
    1689                      .dwattr $C$DW$100, DW_AT_TI_symbol_name("_saveIndex")
    1690                      .dwattr $C$DW$100, DW_AT_type(*$C$DW$T$19)
    1691                      .dwattr $C$DW$100, DW_AT_location[DW_OP_bregx 0x24 17]
    1692              $C$DW$101       .dwtag  DW_TAG_variable, DW_AT_name("dwEndpoint")
    1693                      .dwattr $C$DW$101, DW_AT_TI_symbol_name("_dwEndpoint")
    1694                      .dwattr $C$DW$101, DW_AT_type(*$C$DW$T$84)
    1695                      .dwattr $C$DW$101, DW_AT_location[DW_OP_bregx 0x24 18]
    1696 000916 EB10          MOV AC0, dbl(*SP(#8)) ; |493| 
         000918 08   
    1697 000919 CB0E          MOV AR3, *SP(#7) ; |493| 
    1698 00091b CA0C          MOV AR2, *SP(#6) ; |493| 
    1699 00091d C90A          MOV AR1, *SP(#5) ; |493| 
    1700 00091f C508          MOV T1, *SP(#4) ; |493| 
    1701 000921 EB04          MOV XAR0, dbl(*SP(#2))
         000923 85   
    1702 000924 C400          MOV T0, *SP(#0) ; |493| 
    1703                      .dwpsn  file "../c5535_bsl_revc/ezdsp5535_v1/c55xx_csl/src/csl_usb.c",line 501,column 2,is_stmt
    1704 000926 3C00          MOV #0, AC0 ; |501| 
TMS320C55x Assembler PC v4.4.1 Tue Oct 02 02:33:44 2018

Tools Copyright (c) 1996-2012 Texas Instruments Incorporated
csl_usb.asm                                                          PAGE   45

    1705 000928 EB14          MOV AC0, dbl(*SP(#10))
         00092a 08   
    1706                      .dwpsn  file "../c5535_bsl_revc/ezdsp5535_v1/c55xx_csl/src/csl_usb.c",line 502,column 2,is_stmt
    1707 00092b E618          MOV #0, *SP(#12) ; |502| 
         00092d 00   
    1708                      .dwpsn  file "../c5535_bsl_revc/ezdsp5535_v1/c55xx_csl/src/csl_usb.c",line 503,column 2,is_stmt
    1709 00092e EC31          AMOV #_gUsbContext, XAR3 ; |503| 
         000930 BE00 
         000932 0002-
    1710 000934 EB1C          MOV XAR3, dbl(*SP(#14))
         000936 B5   
    1711                      .dwpsn  file "../c5535_bsl_revc/ezdsp5535_v1/c55xx_csl/src/csl_usb.c",line 505,column 2,is_stmt
    1712 000937 ED04          MOV dbl(*SP(#2)), XAR3
         000939 BF   
    1713 00093a 90B0          MOV XAR3, AC0
    1714 00093c 6D00          BCC $C$L52,AC0 == #0 ; |505| 
         00093e 03AD 
    1715                                                      ; branchcc occurs ; |505| 
    1716                      .dwpsn  file "../c5535_bsl_revc/ezdsp5535_v1/c55xx_csl/src/csl_usb.c",line 507,column 3,is_stmt
    1717 000940 A908          MOV *SP(#4), AR1 ; |507| 
    1718              
    1719 000942 2290          MOV AR1, AC0
    1720 000944 3D7A  ||      MOV #7, AR2
    1721              
    1722 000946 1005          SFTS AC0, #-2, AC0 ; |507| 
         000948 3E   
    1723 000949 37AA  ||      NOT AR2, AR2 ; |507| 
    1724              
    1725 00094b 76E0          BFXTR #0xe000, AC0, AR3 ; |507| 
         00094d 00B0 
    1726 00094f 249B          ADD AR1, AR3 ; |507| 
    1727 000951 28BA          AND AR3, AR2 ; |507| 
    1728 000953 26A9          SUB AR2, AR1 ; |507| 
    1729 000955 2290          MOV AR1, AC0
    1730 000957 EB24          MOV AC0, dbl(*SP(#18)) ; |507| 
         000959 08   
    1731                      .dwpsn  file "../c5535_bsl_revc/ezdsp5535_v1/c55xx_csl/src/csl_usb.c",line 509,column 3,is_stmt
    1732 00095a 0603          B $C$L51  ; |509| 
         00095c 88   
    1733                                                      ; branch occurs ; |509| 
    1734 00095d       $C$L33:    
    1735                      .dwpsn  file "../c5535_bsl_revc/ezdsp5535_v1/c55xx_csl/src/csl_usb.c",line 513,column 5,is_stmt
    1736 00095d ED04          MOV dbl(*SP(#2)), XAR3
         00095f BF   
    1737 000960 A908          MOV *SP(#4), AR1 ; |513| 
    1738 000962 C961          MOV AR1, *AR3 ; |513| 
    1739                      .dwpsn  file "../c5535_bsl_revc/ezdsp5535_v1/c55xx_csl/src/csl_usb.c",line 514,column 5,is_stmt
    1740 000964 ED04          MOV dbl(*SP(#2)), XAR3
         000966 BF   
    1741 000967 A90A          MOV *SP(#5), AR1 ; |514| 
    1742 000969 C973          MOV AR1, *AR3(short(#1)) ; |514| 
    1743                      .dwpsn  file "../c5535_bsl_revc/ezdsp5535_v1/c55xx_csl/src/csl_usb.c",line 515,column 5,is_stmt
    1744 00096b ED04          MOV dbl(*SP(#2)), XAR3
         00096d BF   
    1745 00096e A90C          MOV *SP(#6), AR1 ; |515| 
TMS320C55x Assembler PC v4.4.1 Tue Oct 02 02:33:44 2018

Tools Copyright (c) 1996-2012 Texas Instruments Incorporated
csl_usb.asm                                                          PAGE   46

    1746 000970 C975          MOV AR1, *AR3(short(#2)) ; |515| 
    1747                      .dwpsn  file "../c5535_bsl_revc/ezdsp5535_v1/c55xx_csl/src/csl_usb.c",line 516,column 5,is_stmt
    1748 000972 ED04          MOV dbl(*SP(#2)), XAR3
         000974 BF   
    1749 000975 A90E          MOV *SP(#7), AR1 ; |516| 
    1750 000977 C977          MOV AR1, *AR3(short(#3)) ; |516| 
    1751                      .dwpsn  file "../c5535_bsl_revc/ezdsp5535_v1/c55xx_csl/src/csl_usb.c",line 517,column 5,is_stmt
    1752 000979 ED04          MOV dbl(*SP(#2)), XAR3
         00097b BF   
    1753 00097c ED10          MOV dbl(*SP(#8)), AC0 ; |517| 
         00097e 08   
    1754 00097f EB79          MOV AC0, dbl(*AR3(short(#4))) ; |517| 
         000981 08   
    1755                      .dwpsn  file "../c5535_bsl_revc/ezdsp5535_v1/c55xx_csl/src/csl_usb.c",line 521,column 5,is_stmt
    1756 000982 A40C          MOV *SP(#6), T0 ; |521| 
    1757 000984 A50A          MOV *SP(#5), T1 ; |521| 
    1758              $C$DW$102       .dwtag  DW_TAG_TI_branch
    1759                      .dwattr $C$DW$102, DW_AT_low_pc(0x00)
    1760                      .dwattr $C$DW$102, DW_AT_name("_USB_findFifoSize")
    1761                      .dwattr $C$DW$102, DW_AT_TI_call
    1762 000986 0812          CALL #_USB_findFifoSize ; |521| 
         000988 3B   
    1763                                                      ; call occurs [#_USB_findFifoSize] ; |521| 
    1764 000989 C420          MOV T0, *SP(#16) ; |521| 
    1765                      .dwpsn  file "../c5535_bsl_revc/ezdsp5535_v1/c55xx_csl/src/csl_usb.c",line 523,column 5,is_stmt
    1766 00098b 2249          MOV T0, AR1
    1767 00098d 6299          BCC $C$L34,AR1 != #0 ; |523| 
    1768                                                      ; branchcc occurs ; |523| 
    1769                      .dwpsn  file "../c5535_bsl_revc/ezdsp5535_v1/c55xx_csl/src/csl_usb.c",line 524,column 6,is_stmt
    1770 00098f 3E64          MOV #-6, T0
    1771 000991 0603          B $C$L54  ; |524| 
         000993 5E   
    1772                                                      ; branch occurs ; |524| 
    1773 000994       $C$L34:    
    1774                      .dwpsn  file "../c5535_bsl_revc/ezdsp5535_v1/c55xx_csl/src/csl_usb.c",line 526,column 5,is_stmt
    1775 000994 ED04          MOV dbl(*SP(#2)), XAR3
         000996 BF   
    1776 000997 A961          MOV *AR3, AR1 ; |526| 
    1777 000999 2290          MOV AR1, AC0
    1778 00099b ED1C          MOV dbl(*SP(#14)), XAR3
         00099d BF   
    1779 00099e 1005          SFTS AC0, #-2, AC0 ; |526| 
         0009a0 3E   
    1780 0009a1 76E0          BFXTR #0xe000, AC0, AR2 ; |526| 
         0009a3 00A0 
    1781 0009a5 249A          ADD AR1, AR2 ; |526| 
    1782 0009a7 7DFF          AND #0xfffffff8, AR2, AR2 ; |526| 
         0009a9 F8AA 
    1783 0009ab ED6D          MOV dbl(*AR3(#98)), XAR3
         0009ad BF00 
         0009af 62   
    1784 0009b0 26A9          SUB AR2, AR1 ; |526| 
    1785 0009b2 2291          MOV AR1, AC1
    1786 0009b4 1015          SFTS AC1, #1, AC0 ; |526| 
         0009b6 01   
TMS320C55x Assembler PC v4.4.1 Tue Oct 02 02:33:44 2018

Tools Copyright (c) 1996-2012 Texas Instruments Incorporated
csl_usb.asm                                                          PAGE   47

    1787 0009b7 1013          ADD AC1 << #4, AC0 ; |526| 
         0009b9 04   
    1788 0009ba 900A          MOV AC0, XAR2
    1789              
    1790 0009bc 8E14          MOV XAR3, dbl(*SP(#10))
         0009be BB10 
         0009c0 B5A1 
    1791              ||      AADD XAR2, XAR3 ; |526| 
    1792              
    1793                      .dwpsn  file "../c5535_bsl_revc/ezdsp5535_v1/c55xx_csl/src/csl_usb.c",line 528,column 5,is_stmt
    1794 0009c2 90B0          MOV XAR3, AC0
    1795 0009c4 0400          BCC $C$L35,AC0 == #0 ; |528| 
         0009c6 1F   
    1796                                                      ; branchcc occurs ; |528| 
    1797                      .dwpsn  file "../c5535_bsl_revc/ezdsp5535_v1/c55xx_csl/src/csl_usb.c",line 530,column 6,is_stmt
    1798 0009c7 ED10          MOV dbl(*SP(#8)), AC0 ; |530| 
         0009c9 08   
    1799 0009ca EB6D          MOV AC0, dbl(*AR3(#14)) ; |530| 
         0009cc 0800 
         0009ce 0E   
    1800                      .dwpsn  file "../c5535_bsl_revc/ezdsp5535_v1/c55xx_csl/src/csl_usb.c",line 531,column 6,is_stmt
    1801 0009cf ED14          MOV dbl(*SP(#10)), XAR3
         0009d1 BF   
    1802 0009d2 E66D          MOV #1, *AR3(#17) ; |531| 
         0009d4 0100 
         0009d6 11   
    1803                      .dwpsn  file "../c5535_bsl_revc/ezdsp5535_v1/c55xx_csl/src/csl_usb.c",line 532,column 6,is_stmt
    1804 0009d7 ED14          MOV dbl(*SP(#10)), XAR3
         0009d9 BF   
    1805 0009da A90A          MOV *SP(#5), AR1 ; |532| 
    1806 0009dc C975          MOV AR1, *AR3(short(#2)) ; |532| 
    1807                      .dwpsn  file "../c5535_bsl_revc/ezdsp5535_v1/c55xx_csl/src/csl_usb.c",line 533,column 6,is_stmt
    1808 0009de ED14          MOV dbl(*SP(#10)), XAR3
         0009e0 BF   
    1809 0009e1 E66D          MOV #0, *AR3(#13) ; |533| 
         0009e3 0000 
         0009e5 0D   
    1810 0009e6       $C$L35:    
    1811                      .dwpsn  file "../c5535_bsl_revc/ezdsp5535_v1/c55xx_csl/src/csl_usb.c",line 536,column 5,is_stmt
    1812 0009e6 ED24          MOV dbl(*SP(#18)), AC0 ; |536| 
         0009e8 08   
    1813 0009e9 6290          BCC $C$L36,AC0 != #0 ; |536| 
    1814                                                      ; branchcc occurs ; |536| 
    1815                      .dwpsn  file "../c5535_bsl_revc/ezdsp5535_v1/c55xx_csl/src/csl_usb.c",line 538,column 6,is_stmt
    1816 0009eb A418          MOV *SP(#12), T0 ; |538| 
    1817 0009ed 0603          B $C$L54  ; |538| 
         0009ef 02   
    1818                                                      ; branch occurs ; |538| 
    1819 0009f0       $C$L36:    
    1820                      .dwpsn  file "../c5535_bsl_revc/ezdsp5535_v1/c55xx_csl/src/csl_usb.c",line 542,column 5,is_stmt
    1821 0009f0 7604          MOV #1038, T0 ; |542| 
         0009f2 0E48 
    1822 0009f4 AB31          MOV *(#_usbRegisters), AR3 ; |542| 
         0009f6 0000 
         0009f8 00-  
TMS320C55x Assembler PC v4.4.1 Tue Oct 02 02:33:44 2018

Tools Copyright (c) 1996-2012 Texas Instruments Incorporated
csl_usb.asm                                                          PAGE   48

    1823 0009f9 A96B          MOV port(*AR3(T0)), AR1 ; |542| 
         0009fb 99   
    1824 0009fc C922          MOV AR1, *SP(#17) ; |542| 
    1825                      .dwpsn  file "../c5535_bsl_revc/ezdsp5535_v1/c55xx_csl/src/csl_usb.c",line 544,column 5,is_stmt
    1826 0009fe A96B          MOV port(*AR3(T0)), AR1 ; |544| 
         000a00 99   
    1827 000a01 7DFF          AND #0xfff0, AR1, AC0 ; |544| 
         000a03 F009 
    1828 000a05 C06B          MOV AC0, port(*AR3(T0)) ; |544| 
         000a07 9A   
    1829                      .dwpsn  file "../c5535_bsl_revc/ezdsp5535_v1/c55xx_csl/src/csl_usb.c",line 548,column 5,is_stmt
    1830 000a08 AB31          MOV *(#_usbRegisters), AR3 ; |548| 
         000a0a 0000 
         000a0c 00-  
    1831 000a0d ED24          MOV dbl(*SP(#18)), AC0 ; |548| 
         000a0f 08   
    1832 000a10 180F          AND #0x000f, AC0, AC0 ; |548| 
         000a12 00   
    1833 000a13 A96B          MOV port(*AR3(T0)), AR1 ; |548| 
         000a15 99   
    1834 000a16 7DFF          AND #0xfff0, AR1, AC1 ; |548| 
         000a18 F019 
    1835 000a1a 2A10          OR AC1, AC0 ; |548| 
    1836 000a1c C06B          MOV AC0, port(*AR3(T0)) ; |548| 
         000a1e 9A   
    1837                      .dwpsn  file "../c5535_bsl_revc/ezdsp5535_v1/c55xx_csl/src/csl_usb.c",line 551,column 5,is_stmt
    1838 000a1f 0602          B $C$L48  ; |551| 
         000a21 92   
    1839                                                      ; branch occurs ; |551| 
    1840 000a22       $C$L37:    
    1841                      .dwpsn  file "../c5535_bsl_revc/ezdsp5535_v1/c55xx_csl/src/csl_usb.c",line 558,column 7,is_stmt
    1842 000a22 7604          MOV #1122, T0 ; |558| 
         000a24 6248 
    1843 000a26 AB31          MOV *(#_usbRegisters), AR3 ; |558| 
         000a28 0000 
         000a2a 00-  
    1844 000a2b A96B          MOV port(*AR3(T0)), AR1 ; |558| 
         000a2d 99   
    1845 000a2e 7DFF          AND #0xfff0, AR1, AC0 ; |558| 
         000a30 F009 
    1846 000a32 C06B          MOV AC0, port(*AR3(T0)) ; |558| 
         000a34 9A   
    1847                      .dwpsn  file "../c5535_bsl_revc/ezdsp5535_v1/c55xx_csl/src/csl_usb.c",line 562,column 7,is_stmt
    1848 000a35 AB31          MOV *(#_usbRegisters), AR3 ; |562| 
         000a37 0000 
         000a39 00-  
    1849 000a3a A96B          MOV port(*AR3(T0)), AR1 ; |562| 
         000a3c 99   
    1850 000a3d 7DFF          AND #0xfff0, AR1, AR2 ; |562| 
         000a3f F0A9 
    1851 000a41 A920          MOV *SP(#16), AR1 ; |562| 
    1852 000a43 180F          AND #0x000f, AR1, AR1 ; |562| 
         000a45 99   
    1853 000a46 2AA9          OR AR2, AR1 ; |562| 
    1854 000a48 C96B          MOV AR1, port(*AR3(T0)) ; |562| 
TMS320C55x Assembler PC v4.4.1 Tue Oct 02 02:33:44 2018

Tools Copyright (c) 1996-2012 Texas Instruments Incorporated
csl_usb.asm                                                          PAGE   49

         000a4a 9A   
    1855                      .dwpsn  file "../c5535_bsl_revc/ezdsp5535_v1/c55xx_csl/src/csl_usb.c",line 565,column 7,is_stmt
    1856 000a4b AB31          MOV *(#_usbRegisters), AR3 ; |565| 
         000a4d 0000 
         000a4f 00-  
    1857 000a50 A96B          MOV port(*AR3(T0)), AR1 ; |565| 
         000a52 99   
    1858 000a53 EC08          BCLR @#4, AR1 ; |565| 
         000a55 92   
    1859 000a56 C96B          MOV AR1, port(*AR3(T0)) ; |565| 
         000a58 9A   
    1860                      .dwpsn  file "../c5535_bsl_revc/ezdsp5535_v1/c55xx_csl/src/csl_usb.c",line 569,column 7,is_stmt
    1861 000a59 ED1C          MOV dbl(*SP(#14)), XAR3
         000a5b BF   
    1862              
    1863 000a5c A520          MOV *SP(#16), T1 ; |569| 
    1864 000a5e 3D10  ||      MOV #1, AC0
    1865              
    1866 000a64 5D05          SFTS AC0, T1, AC0 ; |569| 
    1867 000a60 7602  ||      MOV #512, AR2 ; |569| 
         000a62 00A8 
    1868              
    1869 000a66 D66D          ADD *AR3(#118), AC0, AR1 ; |569| 
         000a68 9000 
         000a6a 76   
    1870 000a6b 12A4          CMPU AR1 > AR2, TC1 ; |569| 
         000a6d 94   
    1871 000a6e 0464          BCC $C$L38,TC1 ; |569| 
         000a70 39   
    1872                                                      ; branchcc occurs ; |569| 
    1873                      .dwpsn  file "../c5535_bsl_revc/ezdsp5535_v1/c55xx_csl/src/csl_usb.c",line 572,column 7,is_stmt
    1874 000a71 7604          MOV #1125, T0 ; |572| 
         000a73 6548 
    1875 000a75 AB31          MOV *(#_usbRegisters), AR3 ; |572| 
         000a77 0000 
         000a79 00-  
    1876 000a7a A96B          MOV port(*AR3(T0)), AR1 ; |572| 
         000a7c 99   
    1877 000a7d ED1C          MOV dbl(*SP(#14)), XAR3
         000a7f BF   
    1878 000a80 7DE0          AND #0xe000, AR1, AR2 ; |572| 
         000a82 00A9 
    1879 000a84 A96D          MOV *AR3(#118), AR1 ; |572| 
         000a86 0076 
    1880 000a88 AB31          MOV *(#_usbRegisters), AR3 ; |572| 
         000a8a 0000 
         000a8c 00-  
    1881 000a8d 7D1F          AND #0x1fff, AR1, AR1 ; |572| 
         000a8f FF99 
    1882 000a91 2AA9          OR AR2, AR1 ; |572| 
    1883 000a93 C96B          MOV AR1, port(*AR3(T0)) ; |572| 
         000a95 9A   
    1884                      .dwpsn  file "../c5535_bsl_revc/ezdsp5535_v1/c55xx_csl/src/csl_usb.c",line 575,column 7,is_stmt
    1885 000a96 ED1C          MOV dbl(*SP(#14)), XAR3
         000a98 BF   
TMS320C55x Assembler PC v4.4.1 Tue Oct 02 02:33:44 2018

Tools Copyright (c) 1996-2012 Texas Instruments Incorporated
csl_usb.asm                                                          PAGE   50

    1886              
    1887 000a99 A520          MOV *SP(#16), T1 ; |575| 
    1888 000a9b 3D10  ||      MOV #1, AC0
    1889              
    1890 000a9d 5C05          SFTS AC0, T1, AC0 ; |575| 
    1891 000a9f D66D          ADD *AR3(#118), AC0, AR1 ; |575| 
         000aa1 9000 
         000aa3 76   
    1892 000aa4 C96D          MOV AR1, *AR3(#118) ; |575| 
         000aa6 0076 
    1893                      .dwpsn  file "../c5535_bsl_revc/ezdsp5535_v1/c55xx_csl/src/csl_usb.c",line 576,column 7,is_stmt
    1894 000aa8 4A05          B $C$L39  ; |576| 
    1895                                                      ; branch occurs ; |576| 
    1896 000aaa       $C$L38:    
    1897                      .dwpsn  file "../c5535_bsl_revc/ezdsp5535_v1/c55xx_csl/src/csl_usb.c",line 579,column 8,is_stmt
    1898 000aaa 3E64          MOV #-6, T0
    1899 000aac 0602          B $C$L54  ; |579| 
         000aae 43   
    1900                                                      ; branch occurs ; |579| 
    1901 000aaf       $C$L39:    
    1902                      .dwpsn  file "../c5535_bsl_revc/ezdsp5535_v1/c55xx_csl/src/csl_usb.c",line 583,column 7,is_stmt
    1903 000aaf 7604          MOV #1041, T0 ; |583| 
         000ab1 1148 
    1904 000ab3 AB31          MOV *(#_usbRegisters), AR3 ; |583| 
         000ab5 0000 
         000ab7 00-  
    1905 000ab8 A96B          MOV port(*AR3(T0)), AR1 ; |583| 
         000aba 99   
    1906 000abb 7DF8          AND #0xf800, AR1, AR2 ; |583| 
         000abd 00A9 
    1907 000abf A90C          MOV *SP(#6), AR1 ; |583| 
    1908 000ac1 7D07          AND #0x07ff, AR1, AR1 ; |583| 
         000ac3 FF99 
    1909 000ac5 2AA9          OR AR2, AR1 ; |583| 
    1910 000ac7 C96B          MOV AR1, port(*AR3(T0)) ; |583| 
         000ac9 9A   
    1911                      .dwpsn  file "../c5535_bsl_revc/ezdsp5535_v1/c55xx_csl/src/csl_usb.c",line 588,column 7,is_stmt
    1912 000aca 7604          MOV #1042, T0 ; |588| 
         000acc 1248 
    1913 000ace AB31          MOV *(#_usbRegisters), AR3 ; |588| 
         000ad0 0000 
         000ad2 00-  
    1914 000ad3 A96B          MOV port(*AR3(T0)), AR1 ; |588| 
         000ad5 99   
    1915 000ad6 EC1E          BCLR @#15, AR1 ; |588| 
         000ad8 92   
    1916 000ad9 C96B          MOV AR1, port(*AR3(T0)) ; |588| 
         000adb 9A   
    1917                      .dwpsn  file "../c5535_bsl_revc/ezdsp5535_v1/c55xx_csl/src/csl_usb.c",line 591,column 7,is_stmt
    1918 000adc AB31          MOV *(#_usbRegisters), AR3 ; |591| 
         000ade 0000 
         000ae0 00-  
    1919 000ae1 A96B          MOV port(*AR3(T0)), AR1 ; |591| 
         000ae3 99   
    1920 000ae4 EC1C          BCLR @#14, AR1 ; |591| 
TMS320C55x Assembler PC v4.4.1 Tue Oct 02 02:33:44 2018

Tools Copyright (c) 1996-2012 Texas Instruments Incorporated
csl_usb.asm                                                          PAGE   51

         000ae6 92   
    1921 000ae7 C96B          MOV AR1, port(*AR3(T0)) ; |591| 
         000ae9 9A   
    1922                      .dwpsn  file "../c5535_bsl_revc/ezdsp5535_v1/c55xx_csl/src/csl_usb.c",line 594,column 7,is_stmt
    1923 000aea AB31          MOV *(#_usbRegisters), AR3 ; |594| 
         000aec 0000 
         000aee 00-  
    1924 000aef A96B          MOV port(*AR3(T0)), AR1 ; |594| 
         000af1 99   
    1925 000af2 EC18          BCLR @#12, AR1 ; |594| 
         000af4 92   
    1926 000af5 C96B          MOV AR1, port(*AR3(T0)) ; |594| 
         000af7 9A   
    1927                      .dwpsn  file "../c5535_bsl_revc/ezdsp5535_v1/c55xx_csl/src/csl_usb.c",line 597,column 7,is_stmt
    1928 000af8 AB31          MOV *(#_usbRegisters), AR3 ; |597| 
         000afa 0000 
         000afc 00-  
    1929 000afd A96B          MOV port(*AR3(T0)), AR1 ; |597| 
         000aff 99   
    1930 000b00 EC16          BCLR @#11, AR1 ; |597| 
         000b02 92   
    1931 000b03 C96B          MOV AR1, port(*AR3(T0)) ; |597| 
         000b05 9A   
    1932                      .dwpsn  file "../c5535_bsl_revc/ezdsp5535_v1/c55xx_csl/src/csl_usb.c",line 601,column 7,is_stmt
    1933 000b06 F00A          CMP *SP(#5) == #3, TC1 ; |601| 
         000b08 0003 
    1934 000b0a 6D74          BCC $C$L49,!TC1 ; |601| 
         000b0c 01C2 
    1935                                                      ; branchcc occurs ; |601| 
    1936                      .dwpsn  file "../c5535_bsl_revc/ezdsp5535_v1/c55xx_csl/src/csl_usb.c",line 603,column 8,is_stmt
    1937 000b0e ED1C          MOV dbl(*SP(#14)), XAR3
         000b10 BF   
    1938              
    1939 000b11 A520          MOV *SP(#16), T1 ; |603| 
    1940 000b13 3D10  ||      MOV #1, AC0
    1941              
    1942 000b19 5D05          SFTS AC0, T1, AC0 ; |603| 
    1943 000b15 7602  ||      MOV #512, AR2 ; |603| 
         000b17 00A8 
    1944              
    1945 000b1b D66D          ADD *AR3(#118), AC0, AR1 ; |603| 
         000b1d 9000 
         000b1f 76   
    1946 000b20 12A4          CMPU AR1 > AR2, TC1 ; |603| 
         000b22 94   
    1947 000b23 67E4          BCC $C$L40,TC1 ; |603| 
    1948                                                      ; branchcc occurs ; |603| 
    1949                      .dwpsn  file "../c5535_bsl_revc/ezdsp5535_v1/c55xx_csl/src/csl_usb.c",line 606,column 9,is_stmt
    1950 000b25 3C10          MOV #1, AC0
    1951 000b27 5C05          SFTS AC0, T1, AC0 ; |606| 
    1952 000b29 D66D          ADD *AR3(#118), AC0, AR1 ; |606| 
         000b2b 9000 
         000b2d 76   
    1953 000b2e C96D          MOV AR1, *AR3(#118) ; |606| 
         000b30 0076 
TMS320C55x Assembler PC v4.4.1 Tue Oct 02 02:33:44 2018

Tools Copyright (c) 1996-2012 Texas Instruments Incorporated
csl_usb.asm                                                          PAGE   52

    1954                      .dwpsn  file "../c5535_bsl_revc/ezdsp5535_v1/c55xx_csl/src/csl_usb.c",line 607,column 8,is_stmt
    1955 000b32 4A05          B $C$L41  ; |607| 
    1956                                                      ; branch occurs ; |607| 
    1957 000b34       $C$L40:    
    1958                      .dwpsn  file "../c5535_bsl_revc/ezdsp5535_v1/c55xx_csl/src/csl_usb.c",line 610,column 9,is_stmt
    1959 000b34 3E64          MOV #-6, T0
    1960 000b36 0601          B $C$L54  ; |610| 
         000b38 B9   
    1961                                                      ; branch occurs ; |610| 
    1962 000b39       $C$L41:    
    1963                      .dwpsn  file "../c5535_bsl_revc/ezdsp5535_v1/c55xx_csl/src/csl_usb.c",line 614,column 8,is_stmt
    1964 000b39 7604          MOV #1025, T0 ; |614| 
         000b3b 0148 
    1965 000b3d AB31          MOV *(#_usbRegisters), AR3 ; |614| 
         000b3f 0000 
         000b41 00-  
    1966 000b42 A96B          MOV port(*AR3(T0)), AR1 ; |614| 
         000b44 99   
    1967 000b45 EC1E          BCLR @#15, AR1 ; |614| 
         000b47 92   
    1968 000b48 EC1E          BSET @#15, AR1 ; |614| 
         000b4a 90   
    1969 000b4b C96B          MOV AR1, port(*AR3(T0)) ; |614| 
         000b4d 9A   
    1970                      .dwpsn  file "../c5535_bsl_revc/ezdsp5535_v1/c55xx_csl/src/csl_usb.c",line 618,column 8,is_stmt
    1971 000b4e 7604          MOV #1042, T0 ; |618| 
         000b50 1248 
    1972 000b52 AB31          MOV *(#_usbRegisters), AR3 ; |618| 
         000b54 0000 
         000b56 00-  
    1973 000b57 A96B          MOV port(*AR3(T0)), AR1 ; |618| 
         000b59 99   
    1974 000b5a EC1C          BCLR @#14, AR1 ; |618| 
         000b5c 92   
    1975 000b5d EC1C          BSET @#14, AR1 ; |618| 
         000b5f 90   
    1976 000b60 C96B          MOV AR1, port(*AR3(T0)) ; |618| 
         000b62 9A   
    1977                      .dwpsn  file "../c5535_bsl_revc/ezdsp5535_v1/c55xx_csl/src/csl_usb.c",line 622,column 8,is_stmt
    1978 000b63 7604          MOV #1122, T0 ; |622| 
         000b65 6248 
    1979 000b67 AB31          MOV *(#_usbRegisters), AR3 ; |622| 
         000b69 0000 
         000b6b 00-  
    1980 000b6c A96B          MOV port(*AR3(T0)), AR1 ; |622| 
         000b6e 99   
    1981 000b6f EC08          BCLR @#4, AR1 ; |622| 
         000b71 92   
    1982 000b72 EC08          BSET @#4, AR1 ; |622| 
         000b74 90   
    1983 000b75 C96B          MOV AR1, port(*AR3(T0)) ; |622| 
         000b77 9A   
    1984                      .dwpsn  file "../c5535_bsl_revc/ezdsp5535_v1/c55xx_csl/src/csl_usb.c",line 625,column 12,is_stmt
    1985 000b78 0601          B $C$L49  ; |625| 
         000b7a 55   
TMS320C55x Assembler PC v4.4.1 Tue Oct 02 02:33:44 2018

Tools Copyright (c) 1996-2012 Texas Instruments Incorporated
csl_usb.asm                                                          PAGE   53

    1986                                                      ; branch occurs ; |625| 
    1987 000b7b       $C$L42:    
    1988                      .dwpsn  file "../c5535_bsl_revc/ezdsp5535_v1/c55xx_csl/src/csl_usb.c",line 633,column 7,is_stmt
    1989 000b7b 7604          MOV #1122, T0 ; |633| 
         000b7d 6248 
    1990 000b7f AB31          MOV *(#_usbRegisters), AR3 ; |633| 
         000b81 0000 
         000b83 00-  
    1991 000b84 A96B          MOV port(*AR3(T0)), AR1 ; |633| 
         000b86 99   
    1992 000b87 7DF0          AND #0xf0ff, AR1, AC0 ; |633| 
         000b89 FF09 
    1993 000b8b C06B          MOV AC0, port(*AR3(T0)) ; |633| 
         000b8d 9A   
    1994                      .dwpsn  file "../c5535_bsl_revc/ezdsp5535_v1/c55xx_csl/src/csl_usb.c",line 637,column 7,is_stmt
    1995 000b8e AB31          MOV *(#_usbRegisters), AR3 ; |637| 
         000b90 0000 
         000b92 00-  
    1996 000b93 A020          MOV *SP(#16), AC0 ; |637| 
    1997 000b95 A96B          MOV port(*AR3(T0)), AR1 ; |637| 
         000b97 99   
    1998              
    1999 000b98 7DF0          AND #0xf0ff, AR1, AR2 ; |637| 
         000b9a FFA9 
    2000 000b9c 1107  ||      SFTL AC0, #8, AC0 ; |637| 
         000b9e 08   
    2001              
    2002 000b9f 7D0F          AND #0x0f00, AC0, AR1 ; |637| 
         000ba1 0090 
    2003 000ba3 2AA9          OR AR2, AR1 ; |637| 
    2004 000ba5 C96B          MOV AR1, port(*AR3(T0)) ; |637| 
         000ba7 9A   
    2005                      .dwpsn  file "../c5535_bsl_revc/ezdsp5535_v1/c55xx_csl/src/csl_usb.c",line 641,column 7,is_stmt
    2006 000ba8 ED1C          MOV dbl(*SP(#14)), XAR3
         000baa BF   
    2007              
    2008 000bad 3D10          MOV #1, AC0
    2009 000bab A520  ||      MOV *SP(#16), T1 ; |641| 
    2010              
    2011 000bb3 5D05          SFTS AC0, T1, AC0 ; |641| 
    2012 000baf 7602  ||      MOV #512, AR2 ; |641| 
         000bb1 00A8 
    2013              
    2014 000bb5 D66D          ADD *AR3(#118), AC0, AR1 ; |641| 
         000bb7 9000 
         000bb9 76   
    2015 000bba 12A4          CMPU AR1 > AR2, TC1 ; |641| 
         000bbc 94   
    2016 000bbd 0464          BCC $C$L43,TC1 ; |641| 
         000bbf 39   
    2017                                                      ; branchcc occurs ; |641| 
    2018                      .dwpsn  file "../c5535_bsl_revc/ezdsp5535_v1/c55xx_csl/src/csl_usb.c",line 644,column 7,is_stmt
    2019 000bc0 7604          MOV #1126, T0 ; |644| 
         000bc2 6648 
    2020 000bc4 AB31          MOV *(#_usbRegisters), AR3 ; |644| 
TMS320C55x Assembler PC v4.4.1 Tue Oct 02 02:33:44 2018

Tools Copyright (c) 1996-2012 Texas Instruments Incorporated
csl_usb.asm                                                          PAGE   54

         000bc6 0000 
         000bc8 00-  
    2021 000bc9 A96B          MOV port(*AR3(T0)), AR1 ; |644| 
         000bcb 99   
    2022 000bcc ED1C          MOV dbl(*SP(#14)), XAR3
         000bce BF   
    2023 000bcf 7DE0          AND #0xe000, AR1, AR2 ; |644| 
         000bd1 00A9 
    2024 000bd3 A96D          MOV *AR3(#118), AR1 ; |644| 
         000bd5 0076 
    2025 000bd7 AB31          MOV *(#_usbRegisters), AR3 ; |644| 
         000bd9 0000 
         000bdb 00-  
    2026 000bdc 7D1F          AND #0x1fff, AR1, AR1 ; |644| 
         000bde FF99 
    2027 000be0 2AA9          OR AR2, AR1 ; |644| 
    2028 000be2 C96B          MOV AR1, port(*AR3(T0)) ; |644| 
         000be4 9A   
    2029                      .dwpsn  file "../c5535_bsl_revc/ezdsp5535_v1/c55xx_csl/src/csl_usb.c",line 647,column 7,is_stmt
    2030 000be5 ED1C          MOV dbl(*SP(#14)), XAR3
         000be7 BF   
    2031              
    2032 000be8 A520          MOV *SP(#16), T1 ; |647| 
    2033 000bea 3D10  ||      MOV #1, AC0
    2034              
    2035 000bec 5C05          SFTS AC0, T1, AC0 ; |647| 
    2036 000bee D66D          ADD *AR3(#118), AC0, AR1 ; |647| 
         000bf0 9000 
         000bf2 76   
    2037 000bf3 C96D          MOV AR1, *AR3(#118) ; |647| 
         000bf5 0076 
    2038                      .dwpsn  file "../c5535_bsl_revc/ezdsp5535_v1/c55xx_csl/src/csl_usb.c",line 648,column 7,is_stmt
    2039 000bf7 4A05          B $C$L44  ; |648| 
    2040                                                      ; branch occurs ; |648| 
    2041 000bf9       $C$L43:    
    2042                      .dwpsn  file "../c5535_bsl_revc/ezdsp5535_v1/c55xx_csl/src/csl_usb.c",line 651,column 8,is_stmt
    2043 000bf9 3E64          MOV #-6, T0
    2044 000bfb 0600          B $C$L54  ; |651| 
         000bfd F4   
    2045                                                      ; branch occurs ; |651| 
    2046 000bfe       $C$L44:    
    2047                      .dwpsn  file "../c5535_bsl_revc/ezdsp5535_v1/c55xx_csl/src/csl_usb.c",line 655,column 7,is_stmt
    2048 000bfe 7604          MOV #1045, T0 ; |655| 
         000c00 1548 
    2049 000c02 AB31          MOV *(#_usbRegisters), AR3 ; |655| 
         000c04 0000 
         000c06 00-  
    2050 000c07 A96B          MOV port(*AR3(T0)), AR1 ; |655| 
         000c09 99   
    2051 000c0a 7DF8          AND #0xf800, AR1, AR2 ; |655| 
         000c0c 00A9 
    2052 000c0e A90C          MOV *SP(#6), AR1 ; |655| 
    2053 000c10 7D07          AND #0x07ff, AR1, AR1 ; |655| 
         000c12 FF99 
    2054 000c14 2AA9          OR AR2, AR1 ; |655| 
TMS320C55x Assembler PC v4.4.1 Tue Oct 02 02:33:44 2018

Tools Copyright (c) 1996-2012 Texas Instruments Incorporated
csl_usb.asm                                                          PAGE   55

    2055 000c16 C96B          MOV AR1, port(*AR3(T0)) ; |655| 
         000c18 9A   
    2056                      .dwpsn  file "../c5535_bsl_revc/ezdsp5535_v1/c55xx_csl/src/csl_usb.c",line 660,column 7,is_stmt
    2057 000c19 7604          MOV #1046, T0 ; |660| 
         000c1b 1648 
    2058 000c1d AB31          MOV *(#_usbRegisters), AR3 ; |660| 
         000c1f 0000 
         000c21 00-  
    2059 000c22 A96B          MOV port(*AR3(T0)), AR1 ; |660| 
         000c24 99   
    2060 000c25 EC1E          BCLR @#15, AR1 ; |660| 
         000c27 92   
    2061 000c28 C96B          MOV AR1, port(*AR3(T0)) ; |660| 
         000c2a 9A   
    2062                      .dwpsn  file "../c5535_bsl_revc/ezdsp5535_v1/c55xx_csl/src/csl_usb.c",line 663,column 7,is_stmt
    2063 000c2b AB31          MOV *(#_usbRegisters), AR3 ; |663| 
         000c2d 0000 
         000c2f 00-  
    2064 000c30 A96B          MOV port(*AR3(T0)), AR1 ; |663| 
         000c32 99   
    2065 000c33 EC1C          BCLR @#14, AR1 ; |663| 
         000c35 92   
    2066 000c36 C96B          MOV AR1, port(*AR3(T0)) ; |663| 
         000c38 9A   
    2067                      .dwpsn  file "../c5535_bsl_revc/ezdsp5535_v1/c55xx_csl/src/csl_usb.c",line 666,column 7,is_stmt
    2068 000c39 AB31          MOV *(#_usbRegisters), AR3 ; |666| 
         000c3b 0000 
         000c3d 00-  
    2069 000c3e A96B          MOV port(*AR3(T0)), AR1 ; |666| 
         000c40 99   
    2070 000c41 EC1A          BCLR @#13, AR1 ; |666| 
         000c43 92   
    2071 000c44 C96B          MOV AR1, port(*AR3(T0)) ; |666| 
         000c46 9A   
    2072                      .dwpsn  file "../c5535_bsl_revc/ezdsp5535_v1/c55xx_csl/src/csl_usb.c",line 669,column 7,is_stmt
    2073 000c47 AB31          MOV *(#_usbRegisters), AR3 ; |669| 
         000c49 0000 
         000c4b 00-  
    2074 000c4c A96B          MOV port(*AR3(T0)), AR1 ; |669| 
         000c4e 99   
    2075 000c4f EC18          BCLR @#12, AR1 ; |669| 
         000c51 92   
    2076 000c52 C96B          MOV AR1, port(*AR3(T0)) ; |669| 
         000c54 9A   
    2077                      .dwpsn  file "../c5535_bsl_revc/ezdsp5535_v1/c55xx_csl/src/csl_usb.c",line 673,column 7,is_stmt
    2078 000c55 F00A          CMP *SP(#5) == #3, TC1 ; |673| 
         000c57 0003 
    2079 000c59 0474          BCC $C$L49,!TC1 ; |673| 
         000c5b 74   
    2080                                                      ; branchcc occurs ; |673| 
    2081                      .dwpsn  file "../c5535_bsl_revc/ezdsp5535_v1/c55xx_csl/src/csl_usb.c",line 676,column 8,is_stmt
    2082 000c5c ED1C          MOV dbl(*SP(#14)), XAR3
         000c5e BF   
    2083              
    2084 000c5f A520          MOV *SP(#16), T1 ; |676| 
TMS320C55x Assembler PC v4.4.1 Tue Oct 02 02:33:44 2018

Tools Copyright (c) 1996-2012 Texas Instruments Incorporated
csl_usb.asm                                                          PAGE   56

    2085 000c61 3D10  ||      MOV #1, AC0
    2086              
    2087 000c67 5D05          SFTS AC0, T1, AC0 ; |676| 
    2088 000c63 7602  ||      MOV #512, AR2 ; |676| 
         000c65 00A8 
    2089              
    2090 000c69 D66D          ADD *AR3(#118), AC0, AR1 ; |676| 
         000c6b 9000 
         000c6d 76   
    2091 000c6e 12A4          CMPU AR1 > AR2, TC1 ; |676| 
         000c70 94   
    2092 000c71 67E4          BCC $C$L45,TC1 ; |676| 
    2093                                                      ; branchcc occurs ; |676| 
    2094                      .dwpsn  file "../c5535_bsl_revc/ezdsp5535_v1/c55xx_csl/src/csl_usb.c",line 679,column 9,is_stmt
    2095 000c73 3C10          MOV #1, AC0
    2096 000c75 5C05          SFTS AC0, T1, AC0 ; |679| 
    2097 000c77 D66D          ADD *AR3(#118), AC0, AR1 ; |679| 
         000c79 9000 
         000c7b 76   
    2098 000c7c C96D          MOV AR1, *AR3(#118) ; |679| 
         000c7e 0076 
    2099                      .dwpsn  file "../c5535_bsl_revc/ezdsp5535_v1/c55xx_csl/src/csl_usb.c",line 680,column 8,is_stmt
    2100 000c80 4A05          B $C$L46  ; |680| 
    2101                                                      ; branch occurs ; |680| 
    2102 000c82       $C$L45:    
    2103                      .dwpsn  file "../c5535_bsl_revc/ezdsp5535_v1/c55xx_csl/src/csl_usb.c",line 683,column 9,is_stmt
    2104 000c82 3E64          MOV #-6, T0
    2105 000c84 0600          B $C$L54  ; |683| 
         000c86 6B   
    2106                                                      ; branch occurs ; |683| 
    2107 000c87       $C$L46:    
    2108                      .dwpsn  file "../c5535_bsl_revc/ezdsp5535_v1/c55xx_csl/src/csl_usb.c",line 686,column 8,is_stmt
    2109 000c87 AB31          MOV *(#_usbRegisters), AR3 ; |686| 
         000c89 0000 
         000c8b 00-  
    2110 000c8c A96B          MOV port(*AR3(T0)), AR1 ; |686| 
         000c8e 99   
    2111 000c8f EC1C          BCLR @#14, AR1 ; |686| 
         000c91 92   
    2112 000c92 EC1C          BSET @#14, AR1 ; |686| 
         000c94 90   
    2113 000c95 C96B          MOV AR1, port(*AR3(T0)) ; |686| 
         000c97 9A   
    2114                      .dwpsn  file "../c5535_bsl_revc/ezdsp5535_v1/c55xx_csl/src/csl_usb.c",line 690,column 8,is_stmt
    2115 000c98 7604          MOV #1122, T0 ; |690| 
         000c9a 6248 
    2116 000c9c AB31          MOV *(#_usbRegisters), AR3 ; |690| 
         000c9e 0000 
         000ca0 00-  
    2117 000ca1 A96B          MOV port(*AR3(T0)), AR1 ; |690| 
         000ca3 99   
    2118 000ca4 EC18          BCLR @#12, AR1 ; |690| 
         000ca6 92   
    2119 000ca7 EC18          BSET @#12, AR1 ; |690| 
         000ca9 90   
TMS320C55x Assembler PC v4.4.1 Tue Oct 02 02:33:44 2018

Tools Copyright (c) 1996-2012 Texas Instruments Incorporated
csl_usb.asm                                                          PAGE   57

    2120 000caa C96B          MOV AR1, port(*AR3(T0)) ; |690| 
         000cac 9A   
    2121                      .dwpsn  file "../c5535_bsl_revc/ezdsp5535_v1/c55xx_csl/src/csl_usb.c",line 694,column 12,is_stmt
    2122 000cad 4A21          B $C$L49  ; |694| 
    2123                                                      ; branch occurs ; |694| 
    2124 000caf       $C$L47:    
    2125                      .dwpsn  file "../c5535_bsl_revc/ezdsp5535_v1/c55xx_csl/src/csl_usb.c",line 700,column 7,is_stmt
    2126 000caf E618          MOV #-6, *SP(#12) ; |700| 
         000cb1 FA   
    2127                      .dwpsn  file "../c5535_bsl_revc/ezdsp5535_v1/c55xx_csl/src/csl_usb.c",line 701,column 12,is_stmt
    2128 000cb2 4A1C          B $C$L49  ; |701| 
    2129                                                      ; branch occurs ; |701| 
    2130 000cb4       $C$L48:    
    2131                      .dwpsn  file "../c5535_bsl_revc/ezdsp5535_v1/c55xx_csl/src/csl_usb.c",line 551,column 5,is_stmt
    2132 000cb4 AB08          MOV *SP(#4), AR3 ; |551| 
    2133              
    2134 000cb6 7C00          SUB #1, AR3, AR1 ; |551| 
         000cb8 019B 
    2135 000cba 3D3A  ||      MOV #3, AR2
    2136              
    2137 000cbc 12A8          CMPU AR1 <= AR2, TC1 ; |551| 
         000cbe 94   
    2138 000cbf 6D64          BCC $C$L42,TC1 ; |551| 
         000cc1 FEB8 
    2139                                                      ; branchcc occurs ; |551| 
    2140 000cc3 7C00          SUB #9, AR3, AR1 ; |551| 
         000cc5 099B 
    2141 000cc7 12A8          CMPU AR1 <= AR2, TC1 ; |551| 
         000cc9 94   
    2142 000cca 6D64          BCC $C$L37,TC1 ; |551| 
         000ccc FD54 
    2143                                                      ; branchcc occurs ; |551| 
    2144 000cce 4A5F          B $C$L47  ; |551| 
    2145                                                      ; branch occurs ; |551| 
    2146 000cd0       $C$L49:    
    2147                      .dwpsn  file "../c5535_bsl_revc/ezdsp5535_v1/c55xx_csl/src/csl_usb.c",line 705,column 5,is_stmt
    2148 000cd0 AB31          MOV *(#_usbRegisters), AR3 ; |705| 
         000cd2 0000 
         000cd4 00-  
    2149 000cd5 7604          MOV #1038, T0 ; |705| 
         000cd7 0E48 
    2150 000cd9 A922          MOV *SP(#17), AR1 ; |705| 
    2151 000cdb C96B          MOV AR1, port(*AR3(T0)) ; |705| 
         000cdd 9A   
    2152                      .dwpsn  file "../c5535_bsl_revc/ezdsp5535_v1/c55xx_csl/src/csl_usb.c",line 707,column 13,is_stmt
    2153 000cde 4A10          B $C$L53  ; |707| 
    2154                                                      ; branch occurs ; |707| 
    2155 000ce0       $C$L50:    
    2156                      .dwpsn  file "../c5535_bsl_revc/ezdsp5535_v1/c55xx_csl/src/csl_usb.c",line 713,column 8,is_stmt
    2157 000ce0 E618          MOV #-6, *SP(#12) ; |713| 
         000ce2 FA   
    2158                      .dwpsn  file "../c5535_bsl_revc/ezdsp5535_v1/c55xx_csl/src/csl_usb.c",line 714,column 10,is_stmt
    2159 000ce3 4A0B          B $C$L53  ; |714| 
    2160                                                      ; branch occurs ; |714| 
    2161 000ce5       $C$L51:    
TMS320C55x Assembler PC v4.4.1 Tue Oct 02 02:33:44 2018

Tools Copyright (c) 1996-2012 Texas Instruments Incorporated
csl_usb.asm                                                          PAGE   58

    2162                      .dwpsn  file "../c5535_bsl_revc/ezdsp5535_v1/c55xx_csl/src/csl_usb.c",line 509,column 3,is_stmt
    2163 000ce5 A900          MOV *SP(#0), AR1 ; |509| 
    2164 000ce7 6D09          BCC $C$L33,AR1 == #0 ; |509| 
         000ce9 FC72 
    2165                                                      ; branchcc occurs ; |509| 
    2166 000ceb 4A73          B $C$L50  ; |509| 
    2167                                                      ; branch occurs ; |509| 
    2168 000ced       $C$L52:    
    2169                      .dwpsn  file "../c5535_bsl_revc/ezdsp5535_v1/c55xx_csl/src/csl_usb.c",line 719,column 3,is_stmt
    2170 000ced E618          MOV #-5, *SP(#12) ; |719| 
         000cef FB   
    2171 000cf0       $C$L53:    
    2172                      .dwpsn  file "../c5535_bsl_revc/ezdsp5535_v1/c55xx_csl/src/csl_usb.c",line 722,column 2,is_stmt
    2173 000cf0 A418          MOV *SP(#12), T0 ; |722| 
    2174 000cf2       $C$L54:    
    2175                      .dwpsn  file "../c5535_bsl_revc/ezdsp5535_v1/c55xx_csl/src/csl_usb.c",line 723,column 1,is_stmt
    2176 000cf2 4E15          AADD #21, SP
    2177                      .dwcfi  cfa_offset, 1
    2178              $C$DW$103       .dwtag  DW_TAG_TI_branch
    2179                      .dwattr $C$DW$103, DW_AT_low_pc(0x00)
    2180                      .dwattr $C$DW$103, DW_AT_TI_return
    2181 000cf4 4804          RET
    2182                                                      ; return occurs
    2183                      .dwattr $C$DW$81, DW_AT_TI_end_file("../c5535_bsl_revc/ezdsp5535_v1/c55xx_csl/src/csl_usb.c")
    2184                      .dwattr $C$DW$81, DW_AT_TI_end_line(0x2d3)
    2185                      .dwattr $C$DW$81, DW_AT_TI_end_column(0x01)
    2186                      .dwendentry
    2187                      .dwendtag $C$DW$81
    2188              
    2189 000cf6               .sect   ".text"
    2190                      .align 4
    2191                      .global _USB_getEvents
    2192              
    2193              $C$DW$104       .dwtag  DW_TAG_subprogram, DW_AT_name("USB_getEvents")
    2194                      .dwattr $C$DW$104, DW_AT_low_pc(_USB_getEvents)
    2195                      .dwattr $C$DW$104, DW_AT_high_pc(0x00)
    2196                      .dwattr $C$DW$104, DW_AT_TI_symbol_name("_USB_getEvents")
    2197                      .dwattr $C$DW$104, DW_AT_external
    2198                      .dwattr $C$DW$104, DW_AT_type(*$C$DW$T$175)
    2199                      .dwattr $C$DW$104, DW_AT_TI_begin_file("../c5535_bsl_revc/ezdsp5535_v1/c55xx_csl/src/csl_usb.c")
    2200                      .dwattr $C$DW$104, DW_AT_TI_begin_line(0x305)
    2201                      .dwattr $C$DW$104, DW_AT_TI_begin_column(0x12)
    2202                      .dwattr $C$DW$104, DW_AT_TI_max_frame_size(0x0c)
    2203                      .dwpsn  file "../c5535_bsl_revc/ezdsp5535_v1/c55xx_csl/src/csl_usb.c",line 775,column 1,is_stmt,addre
    2204              
    2205                      .dwfde $C$DW$CIE, _USB_getEvents
    2206              $C$DW$105       .dwtag  DW_TAG_formal_parameter, DW_AT_name("hEp")
    2207                      .dwattr $C$DW$105, DW_AT_TI_symbol_name("_hEp")
    2208                      .dwattr $C$DW$105, DW_AT_type(*$C$DW$T$102)
    2209                      .dwattr $C$DW$105, DW_AT_location[DW_OP_reg17]
    2210              $C$DW$106       .dwtag  DW_TAG_formal_parameter, DW_AT_name("status")
    2211                      .dwattr $C$DW$106, DW_AT_TI_symbol_name("_status")
    2212                      .dwattr $C$DW$106, DW_AT_type(*$C$DW$T$124)
    2213                      .dwattr $C$DW$106, DW_AT_location[DW_OP_reg19]
    2214              ;*******************************************************************************
TMS320C55x Assembler PC v4.4.1 Tue Oct 02 02:33:44 2018

Tools Copyright (c) 1996-2012 Texas Instruments Incorporated
csl_usb.asm                                                          PAGE   59

    2215              ;* FUNCTION NAME: USB_getEvents                                                *
    2216              ;*                                                                             *
    2217              ;*   Function Uses Regs : AC0,AC0,AC1,AC1,T0,AR0,XAR0,AR1,XAR1,AR2,XAR2,AR3,   *
    2218              ;*                        XAR3,SP,CARRY,M40,SATA,SATD,RDM,FRCT,SMUL            *
    2219              ;*   Stack Frame        : Compact (No Frame Pointer, w/ debug)                 *
    2220              ;*   Total Frame Size   : 12 words                                             *
    2221              ;*                        (2 return address/alignment)                         *
    2222              ;*                        (10 local values)                                    *
    2223              ;*   Min System Stack   : 1 word                                               *
    2224              ;*******************************************************************************
    2225 000cf8       _USB_getEvents:
    2226                      .dwcfi  cfa_offset, 1
    2227                      .dwcfi  save_reg_to_mem, 91, -1
    2228 000cf8 4EF5          AADD #-11, SP
    2229                      .dwcfi  cfa_offset, 12
    2230              $C$DW$107       .dwtag  DW_TAG_variable, DW_AT_name("hEp")
    2231                      .dwattr $C$DW$107, DW_AT_TI_symbol_name("_hEp")
    2232                      .dwattr $C$DW$107, DW_AT_type(*$C$DW$T$102)
    2233                      .dwattr $C$DW$107, DW_AT_location[DW_OP_bregx 0x24 0]
    2234              $C$DW$108       .dwtag  DW_TAG_variable, DW_AT_name("status")
    2235                      .dwattr $C$DW$108, DW_AT_TI_symbol_name("_status")
    2236                      .dwattr $C$DW$108, DW_AT_type(*$C$DW$T$124)
    2237                      .dwattr $C$DW$108, DW_AT_location[DW_OP_bregx 0x24 2]
    2238              $C$DW$109       .dwtag  DW_TAG_variable, DW_AT_name("peps")
    2239                      .dwattr $C$DW$109, DW_AT_TI_symbol_name("_peps")
    2240                      .dwattr $C$DW$109, DW_AT_type(*$C$DW$T$147)
    2241                      .dwattr $C$DW$109, DW_AT_location[DW_OP_bregx 0x24 4]
    2242              $C$DW$110       .dwtag  DW_TAG_variable, DW_AT_name("usbEvents")
    2243                      .dwattr $C$DW$110, DW_AT_TI_symbol_name("_usbEvents")
    2244                      .dwattr $C$DW$110, DW_AT_type(*$C$DW$T$175)
    2245                      .dwattr $C$DW$110, DW_AT_location[DW_OP_bregx 0x24 6]
    2246              $C$DW$111       .dwtag  DW_TAG_variable, DW_AT_name("pContext")
    2247                      .dwattr $C$DW$111, DW_AT_TI_symbol_name("_pContext")
    2248                      .dwattr $C$DW$111, DW_AT_type(*$C$DW$T$142)
    2249                      .dwattr $C$DW$111, DW_AT_location[DW_OP_bregx 0x24 8]
    2250 000cfa EB04          MOV XAR1, dbl(*SP(#2))
         000cfc 95   
    2251 000cfd EB00          MOV XAR0, dbl(*SP(#0))
         000cff 85   
    2252                      .dwpsn  file "../c5535_bsl_revc/ezdsp5535_v1/c55xx_csl/src/csl_usb.c",line 780,column 2,is_stmt
    2253 000d00 ED04          MOV dbl(*SP(#2)), XAR3
         000d02 BF   
    2254 000d03 E661          MOV #0, *AR3 ; |780| 
         000d05 00   
    2255                      .dwpsn  file "../c5535_bsl_revc/ezdsp5535_v1/c55xx_csl/src/csl_usb.c",line 781,column 2,is_stmt
    2256 000d06 E60C          MOV #0, *SP(#6) ; |781| 
         000d08 00   
    2257                      .dwpsn  file "../c5535_bsl_revc/ezdsp5535_v1/c55xx_csl/src/csl_usb.c",line 782,column 2,is_stmt
    2258 000d09 EC31          AMOV #_gUsbContext, XAR3 ; |782| 
         000d0b BE00 
         000d0d 0002-
    2259 000d0f EB10          MOV XAR3, dbl(*SP(#8))
         000d11 B5   
    2260                      .dwpsn  file "../c5535_bsl_revc/ezdsp5535_v1/c55xx_csl/src/csl_usb.c",line 783,column 2,is_stmt
    2261 000d12 3C00          MOV #0, AC0 ; |783| 
TMS320C55x Assembler PC v4.4.1 Tue Oct 02 02:33:44 2018

Tools Copyright (c) 1996-2012 Texas Instruments Incorporated
csl_usb.asm                                                          PAGE   60

    2262 000d14 EB08          MOV AC0, dbl(*SP(#4))
         000d16 08   
    2263                      .dwpsn  file "../c5535_bsl_revc/ezdsp5535_v1/c55xx_csl/src/csl_usb.c",line 785,column 2,is_stmt
    2264 000d17 ED00          MOV dbl(*SP(#0)), XAR3
         000d19 BF   
    2265 000d1a 90B0          MOV XAR3, AC0
    2266 000d1c 0400          BCC $C$L55,AC0 == #0 ; |785| 
         000d1e 40   
    2267                                                      ; branchcc occurs ; |785| 
    2268                      .dwpsn  file "../c5535_bsl_revc/ezdsp5535_v1/c55xx_csl/src/csl_usb.c",line 787,column 3,is_stmt
    2269 000d1f A961          MOV *AR3, AR1 ; |787| 
    2270 000d21 2290          MOV AR1, AC0
    2271 000d23 ED10          MOV dbl(*SP(#8)), XAR3
         000d25 BF   
    2272 000d26 1005          SFTS AC0, #-2, AC0 ; |787| 
         000d28 3E   
    2273 000d29 76E0          BFXTR #0xe000, AC0, AR2 ; |787| 
         000d2b 00A0 
    2274 000d2d 249A          ADD AR1, AR2 ; |787| 
    2275 000d2f 7DFF          AND #0xfffffff8, AR2, AR2 ; |787| 
         000d31 F8AA 
    2276 000d33 ED6D          MOV dbl(*AR3(#98)), XAR3
         000d35 BF00 
         000d37 62   
    2277 000d38 26A9          SUB AR2, AR1 ; |787| 
    2278 000d3a 2291          MOV AR1, AC1
    2279 000d3c 1015          SFTS AC1, #1, AC0 ; |787| 
         000d3e 01   
    2280 000d3f 1013          ADD AC1 << #4, AC0 ; |787| 
         000d41 04   
    2281 000d42 900A          MOV AC0, XAR2
    2282              
    2283 000d44 8E08          MOV XAR3, dbl(*SP(#4))
         000d46 BB10 
         000d48 B5A1 
    2284              ||      AADD XAR2, XAR3 ; |787| 
    2285              
    2286                      .dwpsn  file "../c5535_bsl_revc/ezdsp5535_v1/c55xx_csl/src/csl_usb.c",line 789,column 3,is_stmt
    2287 000d4a 90B0          MOV XAR3, AC0
    2288 000d4c 0400          BCC $C$L56,AC0 == #0 ; |789| 
         000d4e 16   
    2289                                                      ; branchcc occurs ; |789| 
    2290                      .dwpsn  file "../c5535_bsl_revc/ezdsp5535_v1/c55xx_csl/src/csl_usb.c",line 791,column 4,is_stmt
    2291 000d4f A96D          MOV *AR3(#12), AR1 ; |791| 
         000d51 000C 
    2292 000d53 C90C          MOV AR1, *SP(#6) ; |791| 
    2293                      .dwpsn  file "../c5535_bsl_revc/ezdsp5535_v1/c55xx_csl/src/csl_usb.c",line 793,column 4,is_stmt
    2294 000d55 ED08          MOV dbl(*SP(#4)), XAR3
         000d57 BF   
    2295 000d58 E66D          MOV #0, *AR3(#12) ; |793| 
         000d5a 0000 
         000d5c 0C   
    2296                      .dwpsn  file "../c5535_bsl_revc/ezdsp5535_v1/c55xx_csl/src/csl_usb.c",line 795,column 2,is_stmt
    2297 000d5d 4A06          B $C$L56  ; |795| 
    2298                                                      ; branch occurs ; |795| 
TMS320C55x Assembler PC v4.4.1 Tue Oct 02 02:33:44 2018

Tools Copyright (c) 1996-2012 Texas Instruments Incorporated
csl_usb.asm                                                          PAGE   61

    2299 000d5f       $C$L55:    
    2300                      .dwpsn  file "../c5535_bsl_revc/ezdsp5535_v1/c55xx_csl/src/csl_usb.c",line 798,column 3,is_stmt
    2301 000d5f ED04          MOV dbl(*SP(#2)), XAR3
         000d61 BF   
    2302 000d62 E661          MOV #-5, *AR3 ; |798| 
         000d64 FB   
    2303 000d65       $C$L56:    
    2304                      .dwpsn  file "../c5535_bsl_revc/ezdsp5535_v1/c55xx_csl/src/csl_usb.c",line 801,column 2,is_stmt
    2305 000d65 A40C          MOV *SP(#6), T0 ; |801| 
    2306                      .dwpsn  file "../c5535_bsl_revc/ezdsp5535_v1/c55xx_csl/src/csl_usb.c",line 802,column 1,is_stmt
    2307 000d67 4E0B          AADD #11, SP
    2308                      .dwcfi  cfa_offset, 1
    2309              $C$DW$112       .dwtag  DW_TAG_TI_branch
    2310                      .dwattr $C$DW$112, DW_AT_low_pc(0x00)
    2311                      .dwattr $C$DW$112, DW_AT_TI_return
    2312 000d69 4804          RET
    2313                                                      ; return occurs
    2314                      .dwattr $C$DW$104, DW_AT_TI_end_file("../c5535_bsl_revc/ezdsp5535_v1/c55xx_csl/src/csl_usb.c")
    2315                      .dwattr $C$DW$104, DW_AT_TI_end_line(0x322)
    2316                      .dwattr $C$DW$104, DW_AT_TI_end_column(0x01)
    2317                      .dwendentry
    2318                      .dwendtag $C$DW$104
    2319              
    2320 000d6b               .sect   ".text"
    2321                      .align 4
    2322                      .global _USB_peekEvents
    2323              
    2324              $C$DW$113       .dwtag  DW_TAG_subprogram, DW_AT_name("USB_peekEvents")
    2325                      .dwattr $C$DW$113, DW_AT_low_pc(_USB_peekEvents)
    2326                      .dwattr $C$DW$113, DW_AT_high_pc(0x00)
    2327                      .dwattr $C$DW$113, DW_AT_TI_symbol_name("_USB_peekEvents")
    2328                      .dwattr $C$DW$113, DW_AT_external
    2329                      .dwattr $C$DW$113, DW_AT_type(*$C$DW$T$175)
    2330                      .dwattr $C$DW$113, DW_AT_TI_begin_file("../c5535_bsl_revc/ezdsp5535_v1/c55xx_csl/src/csl_usb.c")
    2331                      .dwattr $C$DW$113, DW_AT_TI_begin_line(0x356)
    2332                      .dwattr $C$DW$113, DW_AT_TI_begin_column(0x12)
    2333                      .dwattr $C$DW$113, DW_AT_TI_max_frame_size(0x0c)
    2334                      .dwpsn  file "../c5535_bsl_revc/ezdsp5535_v1/c55xx_csl/src/csl_usb.c",line 856,column 1,is_stmt,addre
    2335              
    2336                      .dwfde $C$DW$CIE, _USB_peekEvents
    2337              $C$DW$114       .dwtag  DW_TAG_formal_parameter, DW_AT_name("hEp")
    2338                      .dwattr $C$DW$114, DW_AT_TI_symbol_name("_hEp")
    2339                      .dwattr $C$DW$114, DW_AT_type(*$C$DW$T$102)
    2340                      .dwattr $C$DW$114, DW_AT_location[DW_OP_reg17]
    2341              $C$DW$115       .dwtag  DW_TAG_formal_parameter, DW_AT_name("status")
    2342                      .dwattr $C$DW$115, DW_AT_TI_symbol_name("_status")
    2343                      .dwattr $C$DW$115, DW_AT_type(*$C$DW$T$124)
    2344                      .dwattr $C$DW$115, DW_AT_location[DW_OP_reg19]
    2345              ;*******************************************************************************
    2346              ;* FUNCTION NAME: USB_peekEvents                                               *
    2347              ;*                                                                             *
    2348              ;*   Function Uses Regs : AC0,AC0,AC1,AC1,T0,AR0,XAR0,AR1,XAR1,AR2,XAR2,AR3,   *
    2349              ;*                        XAR3,SP,CARRY,M40,SATA,SATD,RDM,FRCT,SMUL            *
    2350              ;*   Stack Frame        : Compact (No Frame Pointer, w/ debug)                 *
    2351              ;*   Total Frame Size   : 12 words                                             *
TMS320C55x Assembler PC v4.4.1 Tue Oct 02 02:33:44 2018

Tools Copyright (c) 1996-2012 Texas Instruments Incorporated
csl_usb.asm                                                          PAGE   62

    2352              ;*                        (2 return address/alignment)                         *
    2353              ;*                        (10 local values)                                    *
    2354              ;*   Min System Stack   : 1 word                                               *
    2355              ;*******************************************************************************
    2356 000d6c       _USB_peekEvents:
    2357                      .dwcfi  cfa_offset, 1
    2358                      .dwcfi  save_reg_to_mem, 91, -1
    2359 000d6c 4EF5          AADD #-11, SP
    2360                      .dwcfi  cfa_offset, 12
    2361              $C$DW$116       .dwtag  DW_TAG_variable, DW_AT_name("hEp")
    2362                      .dwattr $C$DW$116, DW_AT_TI_symbol_name("_hEp")
    2363                      .dwattr $C$DW$116, DW_AT_type(*$C$DW$T$102)
    2364                      .dwattr $C$DW$116, DW_AT_location[DW_OP_bregx 0x24 0]
    2365              $C$DW$117       .dwtag  DW_TAG_variable, DW_AT_name("status")
    2366                      .dwattr $C$DW$117, DW_AT_TI_symbol_name("_status")
    2367                      .dwattr $C$DW$117, DW_AT_type(*$C$DW$T$124)
    2368                      .dwattr $C$DW$117, DW_AT_location[DW_OP_bregx 0x24 2]
    2369              $C$DW$118       .dwtag  DW_TAG_variable, DW_AT_name("peps")
    2370                      .dwattr $C$DW$118, DW_AT_TI_symbol_name("_peps")
    2371                      .dwattr $C$DW$118, DW_AT_type(*$C$DW$T$147)
    2372                      .dwattr $C$DW$118, DW_AT_location[DW_OP_bregx 0x24 4]
    2373              $C$DW$119       .dwtag  DW_TAG_variable, DW_AT_name("usbEvents")
    2374                      .dwattr $C$DW$119, DW_AT_TI_symbol_name("_usbEvents")
    2375                      .dwattr $C$DW$119, DW_AT_type(*$C$DW$T$175)
    2376                      .dwattr $C$DW$119, DW_AT_location[DW_OP_bregx 0x24 6]
    2377              $C$DW$120       .dwtag  DW_TAG_variable, DW_AT_name("pContext")
    2378                      .dwattr $C$DW$120, DW_AT_TI_symbol_name("_pContext")
    2379                      .dwattr $C$DW$120, DW_AT_type(*$C$DW$T$142)
    2380                      .dwattr $C$DW$120, DW_AT_location[DW_OP_bregx 0x24 8]
    2381 000d6e EB04          MOV XAR1, dbl(*SP(#2))
         000d70 95   
    2382 000d71 EB00          MOV XAR0, dbl(*SP(#0))
         000d73 85   
    2383                      .dwpsn  file "../c5535_bsl_revc/ezdsp5535_v1/c55xx_csl/src/csl_usb.c",line 861,column 2,is_stmt
    2384 000d74 ED04          MOV dbl(*SP(#2)), XAR3
         000d76 BF   
    2385 000d77 E661          MOV #0, *AR3 ; |861| 
         000d79 00   
    2386                      .dwpsn  file "../c5535_bsl_revc/ezdsp5535_v1/c55xx_csl/src/csl_usb.c",line 862,column 2,is_stmt
    2387 000d7a E60C          MOV #0, *SP(#6) ; |862| 
         000d7c 00   
    2388                      .dwpsn  file "../c5535_bsl_revc/ezdsp5535_v1/c55xx_csl/src/csl_usb.c",line 863,column 2,is_stmt
    2389 000d7d EC31          AMOV #_gUsbContext, XAR3 ; |863| 
         000d7f BE00 
         000d81 0002-
    2390 000d83 EB10          MOV XAR3, dbl(*SP(#8))
         000d85 B5   
    2391                      .dwpsn  file "../c5535_bsl_revc/ezdsp5535_v1/c55xx_csl/src/csl_usb.c",line 864,column 2,is_stmt
    2392 000d86 3C00          MOV #0, AC0 ; |864| 
    2393 000d88 EB08          MOV AC0, dbl(*SP(#4))
         000d8a 08   
    2394                      .dwpsn  file "../c5535_bsl_revc/ezdsp5535_v1/c55xx_csl/src/csl_usb.c",line 866,column 2,is_stmt
    2395 000d8b ED00          MOV dbl(*SP(#0)), XAR3
         000d8d BF   
    2396 000d8e 90B0          MOV XAR3, AC0
TMS320C55x Assembler PC v4.4.1 Tue Oct 02 02:33:44 2018

Tools Copyright (c) 1996-2012 Texas Instruments Incorporated
csl_usb.asm                                                          PAGE   63

    2397 000d90 0400          BCC $C$L57,AC0 == #0 ; |866| 
         000d92 37   
    2398                                                      ; branchcc occurs ; |866| 
    2399                      .dwpsn  file "../c5535_bsl_revc/ezdsp5535_v1/c55xx_csl/src/csl_usb.c",line 868,column 3,is_stmt
    2400 000d93 A961          MOV *AR3, AR1 ; |868| 
    2401 000d95 2290          MOV AR1, AC0
    2402 000d97 ED10          MOV dbl(*SP(#8)), XAR3
         000d99 BF   
    2403 000d9a 1005          SFTS AC0, #-2, AC0 ; |868| 
         000d9c 3E   
    2404 000d9d 76E0          BFXTR #0xe000, AC0, AR2 ; |868| 
         000d9f 00A0 
    2405 000da1 249A          ADD AR1, AR2 ; |868| 
    2406 000da3 7DFF          AND #0xfffffff8, AR2, AR2 ; |868| 
         000da5 F8AA 
    2407 000da7 ED6D          MOV dbl(*AR3(#98)), XAR3
         000da9 BF00 
         000dab 62   
    2408 000dac 26A9          SUB AR2, AR1 ; |868| 
    2409 000dae 2291          MOV AR1, AC1
    2410 000db0 1015          SFTS AC1, #1, AC0 ; |868| 
         000db2 01   
    2411 000db3 1013          ADD AC1 << #4, AC0 ; |868| 
         000db5 04   
    2412 000db6 900A          MOV AC0, XAR2
    2413              
    2414 000db8 8E08          MOV XAR3, dbl(*SP(#4))
         000dba BB10 
         000dbc B5A1 
    2415              ||      AADD XAR2, XAR3 ; |868| 
    2416              
    2417                      .dwpsn  file "../c5535_bsl_revc/ezdsp5535_v1/c55xx_csl/src/csl_usb.c",line 870,column 3,is_stmt
    2418 000dbe 90B0          MOV XAR3, AC0
    2419 000dc0 6700          BCC $C$L58,AC0 == #0 ; |870| 
    2420                                                      ; branchcc occurs ; |870| 
    2421                      .dwpsn  file "../c5535_bsl_revc/ezdsp5535_v1/c55xx_csl/src/csl_usb.c",line 872,column 4,is_stmt
    2422 000dc2 A96D          MOV *AR3(#12), AR1 ; |872| 
         000dc4 000C 
    2423 000dc6 C90C          MOV AR1, *SP(#6) ; |872| 
    2424                      .dwpsn  file "../c5535_bsl_revc/ezdsp5535_v1/c55xx_csl/src/csl_usb.c",line 874,column 2,is_stmt
    2425 000dc8 4A06          B $C$L58  ; |874| 
    2426                                                      ; branch occurs ; |874| 
    2427 000dca       $C$L57:    
    2428                      .dwpsn  file "../c5535_bsl_revc/ezdsp5535_v1/c55xx_csl/src/csl_usb.c",line 877,column 3,is_stmt
    2429 000dca ED04          MOV dbl(*SP(#2)), XAR3
         000dcc BF   
    2430 000dcd E661          MOV #-5, *AR3 ; |877| 
         000dcf FB   
    2431 000dd0       $C$L58:    
    2432                      .dwpsn  file "../c5535_bsl_revc/ezdsp5535_v1/c55xx_csl/src/csl_usb.c",line 880,column 2,is_stmt
    2433 000dd0 A40C          MOV *SP(#6), T0 ; |880| 
    2434                      .dwpsn  file "../c5535_bsl_revc/ezdsp5535_v1/c55xx_csl/src/csl_usb.c",line 881,column 1,is_stmt
    2435 000dd2 4E0B          AADD #11, SP
    2436                      .dwcfi  cfa_offset, 1
    2437              $C$DW$121       .dwtag  DW_TAG_TI_branch
TMS320C55x Assembler PC v4.4.1 Tue Oct 02 02:33:44 2018

Tools Copyright (c) 1996-2012 Texas Instruments Incorporated
csl_usb.asm                                                          PAGE   64

    2438                      .dwattr $C$DW$121, DW_AT_low_pc(0x00)
    2439                      .dwattr $C$DW$121, DW_AT_TI_return
    2440 000dd4 4804          RET
    2441                                                      ; return occurs
    2442                      .dwattr $C$DW$113, DW_AT_TI_end_file("../c5535_bsl_revc/ezdsp5535_v1/c55xx_csl/src/csl_usb.c")
    2443                      .dwattr $C$DW$113, DW_AT_TI_end_line(0x371)
    2444                      .dwattr $C$DW$113, DW_AT_TI_end_column(0x01)
    2445                      .dwendentry
    2446                      .dwendtag $C$DW$113
    2447              
    2448 000dd6               .sect   ".text"
    2449                      .align 4
    2450                      .global _USB_getSetupPacket
    2451              
    2452              $C$DW$122       .dwtag  DW_TAG_subprogram, DW_AT_name("USB_getSetupPacket")
    2453                      .dwattr $C$DW$122, DW_AT_low_pc(_USB_getSetupPacket)
    2454                      .dwattr $C$DW$122, DW_AT_high_pc(0x00)
    2455                      .dwattr $C$DW$122, DW_AT_TI_symbol_name("_USB_getSetupPacket")
    2456                      .dwattr $C$DW$122, DW_AT_external
    2457                      .dwattr $C$DW$122, DW_AT_type(*$C$DW$T$75)
    2458                      .dwattr $C$DW$122, DW_AT_TI_begin_file("../c5535_bsl_revc/ezdsp5535_v1/c55xx_csl/src/csl_usb.c")
    2459                      .dwattr $C$DW$122, DW_AT_TI_begin_line(0x3a3)
    2460                      .dwattr $C$DW$122, DW_AT_TI_begin_column(0x0c)
    2461                      .dwattr $C$DW$122, DW_AT_TI_max_frame_size(0x0e)
    2462                      .dwpsn  file "../c5535_bsl_revc/ezdsp5535_v1/c55xx_csl/src/csl_usb.c",line 934,column 1,is_stmt,addre
    2463              
    2464                      .dwfde $C$DW$CIE, _USB_getSetupPacket
    2465              $C$DW$123       .dwtag  DW_TAG_formal_parameter, DW_AT_name("devNum")
    2466                      .dwattr $C$DW$123, DW_AT_TI_symbol_name("_devNum")
    2467                      .dwattr $C$DW$123, DW_AT_type(*$C$DW$T$68)
    2468                      .dwattr $C$DW$123, DW_AT_location[DW_OP_reg12]
    2469              $C$DW$124       .dwtag  DW_TAG_formal_parameter, DW_AT_name("usbSetup")
    2470                      .dwattr $C$DW$124, DW_AT_TI_symbol_name("_usbSetup")
    2471                      .dwattr $C$DW$124, DW_AT_type(*$C$DW$T$149)
    2472                      .dwattr $C$DW$124, DW_AT_location[DW_OP_reg17]
    2473              $C$DW$125       .dwtag  DW_TAG_formal_parameter, DW_AT_name("readFromFifo")
    2474                      .dwattr $C$DW$125, DW_AT_TI_symbol_name("_readFromFifo")
    2475                      .dwattr $C$DW$125, DW_AT_type(*$C$DW$T$81)
    2476                      .dwattr $C$DW$125, DW_AT_location[DW_OP_reg13]
    2477              ;*******************************************************************************
    2478              ;* FUNCTION NAME: USB_getSetupPacket                                           *
    2479              ;*                                                                             *
    2480              ;*   Function Uses Regs : AC0,AC0,T0,T1,AR0,XAR0,AR1,AR2,XAR2,AR3,XAR3,SP,CSR, *
    2481              ;*                        RPTC,TC1,M40,SATA,SATD,RDM,FRCT,SMUL                 *
    2482              ;*   Stack Frame        : Compact (No Frame Pointer, w/ debug)                 *
    2483              ;*   Total Frame Size   : 14 words                                             *
    2484              ;*                        (2 return address/alignment)                         *
    2485              ;*                        (12 local values)                                    *
    2486              ;*   Min System Stack   : 1 word                                               *
    2487              ;*******************************************************************************
    2488 000dd8       _USB_getSetupPacket:
    2489                      .dwcfi  cfa_offset, 1
    2490                      .dwcfi  save_reg_to_mem, 91, -1
    2491 000dd8 4EF3          AADD #-13, SP
    2492                      .dwcfi  cfa_offset, 14
TMS320C55x Assembler PC v4.4.1 Tue Oct 02 02:33:44 2018

Tools Copyright (c) 1996-2012 Texas Instruments Incorporated
csl_usb.asm                                                          PAGE   65

    2493              $C$DW$126       .dwtag  DW_TAG_variable, DW_AT_name("devNum")
    2494                      .dwattr $C$DW$126, DW_AT_TI_symbol_name("_devNum")
    2495                      .dwattr $C$DW$126, DW_AT_type(*$C$DW$T$68)
    2496                      .dwattr $C$DW$126, DW_AT_location[DW_OP_bregx 0x24 0]
    2497              $C$DW$127       .dwtag  DW_TAG_variable, DW_AT_name("usbSetup")
    2498                      .dwattr $C$DW$127, DW_AT_TI_symbol_name("_usbSetup")
    2499                      .dwattr $C$DW$127, DW_AT_type(*$C$DW$T$149)
    2500                      .dwattr $C$DW$127, DW_AT_location[DW_OP_bregx 0x24 2]
    2501              $C$DW$128       .dwtag  DW_TAG_variable, DW_AT_name("readFromFifo")
    2502                      .dwattr $C$DW$128, DW_AT_TI_symbol_name("_readFromFifo")
    2503                      .dwattr $C$DW$128, DW_AT_type(*$C$DW$T$81)
    2504                      .dwattr $C$DW$128, DW_AT_location[DW_OP_bregx 0x24 4]
    2505              $C$DW$129       .dwtag  DW_TAG_variable, DW_AT_name("status")
    2506                      .dwattr $C$DW$129, DW_AT_TI_symbol_name("_status")
    2507                      .dwattr $C$DW$129, DW_AT_type(*$C$DW$T$75)
    2508                      .dwattr $C$DW$129, DW_AT_location[DW_OP_bregx 0x24 5]
    2509              $C$DW$130       .dwtag  DW_TAG_variable, DW_AT_name("pContext")
    2510                      .dwattr $C$DW$130, DW_AT_TI_symbol_name("_pContext")
    2511                      .dwattr $C$DW$130, DW_AT_type(*$C$DW$T$142)
    2512                      .dwattr $C$DW$130, DW_AT_location[DW_OP_bregx 0x24 6]
    2513              $C$DW$131       .dwtag  DW_TAG_variable, DW_AT_name("wBuffer")
    2514                      .dwattr $C$DW$131, DW_AT_TI_symbol_name("_wBuffer")
    2515                      .dwattr $C$DW$131, DW_AT_type(*$C$DW$T$187)
    2516                      .dwattr $C$DW$131, DW_AT_location[DW_OP_bregx 0x24 8]
    2517 000dda C508          MOV T1, *SP(#4) ; |934| 
    2518 000ddc EB04          MOV XAR0, dbl(*SP(#2))
         000dde 85   
    2519 000ddf C400          MOV T0, *SP(#0) ; |934| 
    2520                      .dwpsn  file "../c5535_bsl_revc/ezdsp5535_v1/c55xx_csl/src/csl_usb.c",line 939,column 2,is_stmt
    2521 000de1 EC31          AMOV #_gUsbContext, XAR3 ; |939| 
         000de3 BE00 
         000de5 0002-
    2522 000de7 EB0C          MOV XAR3, dbl(*SP(#6))
         000de9 B5   
    2523                      .dwpsn  file "../c5535_bsl_revc/ezdsp5535_v1/c55xx_csl/src/csl_usb.c",line 940,column 2,is_stmt
    2524 000dea E60A          MOV #0, *SP(#5) ; |940| 
         000dec 00   
    2525                      .dwpsn  file "../c5535_bsl_revc/ezdsp5535_v1/c55xx_csl/src/csl_usb.c",line 942,column 2,is_stmt
    2526 000ded ED04          MOV dbl(*SP(#2)), XAR3
         000def BF   
    2527 000df0 90B0          MOV XAR3, AC0
    2528 000df2 6D00          BCC $C$L65,AC0 == #0 ; |942| 
         000df4 0080 
    2529                                                      ; branchcc occurs ; |942| 
    2530                      .dwpsn  file "../c5535_bsl_revc/ezdsp5535_v1/c55xx_csl/src/csl_usb.c",line 944,column 3,is_stmt
    2531 000df6 0600          B $C$L64  ; |944| 
         000df8 76   
    2532                                                      ; branch occurs ; |944| 
    2533 000df9       $C$L59:    
    2534                      .dwpsn  file "../c5535_bsl_revc/ezdsp5535_v1/c55xx_csl/src/csl_usb.c",line 947,column 5,is_stmt
    2535 000df9 F008          CMP *SP(#4) == #1, TC1 ; |947| 
         000dfb 0001 
    2536 000dfd 0474          BCC $C$L60,!TC1 ; |947| 
         000dff 56   
    2537                                                      ; branchcc occurs ; |947| 
TMS320C55x Assembler PC v4.4.1 Tue Oct 02 02:33:44 2018

Tools Copyright (c) 1996-2012 Texas Instruments Incorporated
csl_usb.asm                                                          PAGE   66

    2538                      .dwpsn  file "../c5535_bsl_revc/ezdsp5535_v1/c55xx_csl/src/csl_usb.c",line 950,column 6,is_stmt
    2539 000e00 7604          MOV #1057, T0 ; |950| 
         000e02 2148 
    2540 000e04 AB31          MOV *(#_usbRegisters), AR3 ; |950| 
         000e06 0000 
         000e08 00-  
    2541 000e09 A96B          MOV port(*AR3(T0)), AR1 ; |950| 
         000e0b 99   
    2542 000e0c C910          MOV AR1, *SP(#8) ; |950| 
    2543                      .dwpsn  file "../c5535_bsl_revc/ezdsp5535_v1/c55xx_csl/src/csl_usb.c",line 952,column 6,is_stmt
    2544 000e0e A96B          MOV port(*AR3(T0)), AR1 ; |952| 
         000e10 99   
    2545 000e11 C912          MOV AR1, *SP(#9) ; |952| 
    2546                      .dwpsn  file "../c5535_bsl_revc/ezdsp5535_v1/c55xx_csl/src/csl_usb.c",line 954,column 6,is_stmt
    2547 000e13 A96B          MOV port(*AR3(T0)), AR1 ; |954| 
         000e15 99   
    2548 000e16 C914          MOV AR1, *SP(#10) ; |954| 
    2549                      .dwpsn  file "../c5535_bsl_revc/ezdsp5535_v1/c55xx_csl/src/csl_usb.c",line 956,column 6,is_stmt
    2550 000e18 A96B          MOV port(*AR3(T0)), AR1 ; |956| 
         000e1a 99   
    2551 000e1b C916          MOV AR1, *SP(#11) ; |956| 
    2552                      .dwpsn  file "../c5535_bsl_revc/ezdsp5535_v1/c55xx_csl/src/csl_usb.c",line 959,column 6,is_stmt
    2553 000e1d ED04          MOV dbl(*SP(#2)), XAR3
         000e1f BF   
    2554 000e20 DF10          MOV uns(low_byte(*SP(#8))), AR1 ; |959| 
         000e22 93   
    2555 000e23 C973          MOV AR1, *AR3(short(#1)) ; |959| 
    2556                      .dwpsn  file "../c5535_bsl_revc/ezdsp5535_v1/c55xx_csl/src/csl_usb.c",line 960,column 6,is_stmt
    2557 000e25 ED04          MOV dbl(*SP(#2)), XAR3
         000e27 BF   
    2558 000e28 A910          MOV *SP(#8), AR1 ; |960| 
    2559 000e2a 7DFF          AND #0xff00, AR1, AC0 ; |960| 
         000e2c 0009 
    2560 000e2e 1005          SFTS AC0, #-8, AC0 ; |960| 
         000e30 38   
    2561 000e31 C075          MOV AC0, *AR3(short(#2)) ; |960| 
    2562                      .dwpsn  file "../c5535_bsl_revc/ezdsp5535_v1/c55xx_csl/src/csl_usb.c",line 961,column 6,is_stmt
    2563 000e33 ED04          MOV dbl(*SP(#2)), XAR3
         000e35 BF   
    2564 000e36 A912          MOV *SP(#9), AR1 ; |961| 
    2565 000e38 C977          MOV AR1, *AR3(short(#3)) ; |961| 
    2566                      .dwpsn  file "../c5535_bsl_revc/ezdsp5535_v1/c55xx_csl/src/csl_usb.c",line 962,column 6,is_stmt
    2567 000e3a ED04          MOV dbl(*SP(#2)), XAR3
         000e3c BF   
    2568 000e3d A914          MOV *SP(#10), AR1 ; |962| 
    2569 000e3f C979          MOV AR1, *AR3(short(#4)) ; |962| 
    2570                      .dwpsn  file "../c5535_bsl_revc/ezdsp5535_v1/c55xx_csl/src/csl_usb.c",line 963,column 6,is_stmt
    2571 000e41 ED04          MOV dbl(*SP(#2)), XAR3
         000e43 BF   
    2572 000e44 A916          MOV *SP(#11), AR1 ; |963| 
    2573 000e46 C97B          MOV AR1, *AR3(short(#5)) ; |963| 
    2574                      .dwpsn  file "../c5535_bsl_revc/ezdsp5535_v1/c55xx_csl/src/csl_usb.c",line 965,column 6,is_stmt
    2575 000e48 ED04          MOV dbl(*SP(#2)), XAR3
         000e4a BF   
    2576 000e4b A97B          MOV *AR3(short(#5)), AR1 ; |965| 
TMS320C55x Assembler PC v4.4.1 Tue Oct 02 02:33:44 2018

Tools Copyright (c) 1996-2012 Texas Instruments Incorporated
csl_usb.asm                                                          PAGE   67

    2577 000e4d ED0C          MOV dbl(*SP(#6)), XAR3
         000e4f BF   
    2578 000e50 C96D          MOV AR1, *AR3(#25) ; |965| 
         000e52 0019 
    2579                      .dwpsn  file "../c5535_bsl_revc/ezdsp5535_v1/c55xx_csl/src/csl_usb.c",line 967,column 6,is_stmt
    2580 000e54 4A23          B $C$L66  ; |967| 
    2581                                                      ; branch occurs ; |967| 
    2582 000e56       $C$L60:    
    2583                      .dwpsn  file "../c5535_bsl_revc/ezdsp5535_v1/c55xx_csl/src/csl_usb.c",line 971,column 6,is_stmt
    2584 000e56 ED0C          MOV dbl(*SP(#6)), XAR3
         000e58 BF   
    2585 000e59 ED04          MOV dbl(*SP(#2)), XAR2
         000e5b AF   
    2586              
    2587 000e5f 4D05          RPT #5    ; |971| 
    2588 000e5c 1467  ||      AADD #103, AR3 ; |971| 
         000e5e B4   
    2589              
    2590                                                          ; loop starts ; |971| 
    2591 000e61       $C$L61:    
    2592 000e61       $C$DW$L$_USB_getSetupPacket$8$B:
    2593 000e61 8065              MOV *AR3+, *AR2+ ; |971| 
         000e63 14   
    2594                                                      ; loop ends ; |971| 
    2595 000e64       $C$DW$L$_USB_getSetupPacket$8$E:
    2596 000e64       $C$L62:    
    2597                      .dwpsn  file "../c5535_bsl_revc/ezdsp5535_v1/c55xx_csl/src/csl_usb.c",line 972,column 6,is_stmt
    2598 000e64 ED04          MOV dbl(*SP(#2)), XAR3
         000e66 BF   
    2599 000e67 E661          MOV #1, *AR3 ; |972| 
         000e69 01   
    2600                      .dwpsn  file "../c5535_bsl_revc/ezdsp5535_v1/c55xx_csl/src/csl_usb.c",line 976,column 17,is_stmt
    2601 000e6a       $C$L63:    
    2602                      .dwpsn  file "../c5535_bsl_revc/ezdsp5535_v1/c55xx_csl/src/csl_usb.c",line 979,column 8,is_stmt
    2603 000e6a E60A          MOV #-6, *SP(#5) ; |979| 
         000e6c FA   
    2604                      .dwpsn  file "../c5535_bsl_revc/ezdsp5535_v1/c55xx_csl/src/csl_usb.c",line 980,column 22,is_stmt
    2605 000e6d 4A0A          B $C$L66  ; |980| 
    2606                                                      ; branch occurs ; |980| 
    2607 000e6f       $C$L64:    
    2608                      .dwpsn  file "../c5535_bsl_revc/ezdsp5535_v1/c55xx_csl/src/csl_usb.c",line 944,column 3,is_stmt
    2609 000e6f A900          MOV *SP(#0), AR1 ; |944| 
    2610 000e71 0409          BCC $C$L59,AR1 == #0 ; |944| 
         000e73 85   
    2611                                                      ; branchcc occurs ; |944| 
    2612 000e74 4A74          B $C$L63  ; |944| 
    2613                                                      ; branch occurs ; |944| 
    2614 000e76       $C$L65:    
    2615                      .dwpsn  file "../c5535_bsl_revc/ezdsp5535_v1/c55xx_csl/src/csl_usb.c",line 985,column 3,is_stmt
    2616 000e76 E60A          MOV #-6, *SP(#5) ; |985| 
         000e78 FA   
    2617 000e79       $C$L66:    
    2618                      .dwpsn  file "../c5535_bsl_revc/ezdsp5535_v1/c55xx_csl/src/csl_usb.c",line 988,column 2,is_stmt
    2619 000e79 A40A          MOV *SP(#5), T0 ; |988| 
    2620                      .dwpsn  file "../c5535_bsl_revc/ezdsp5535_v1/c55xx_csl/src/csl_usb.c",line 989,column 1,is_stmt
TMS320C55x Assembler PC v4.4.1 Tue Oct 02 02:33:44 2018

Tools Copyright (c) 1996-2012 Texas Instruments Incorporated
csl_usb.asm                                                          PAGE   68

    2621 000e7b 4E0D          AADD #13, SP
    2622                      .dwcfi  cfa_offset, 1
    2623              $C$DW$132       .dwtag  DW_TAG_TI_branch
    2624                      .dwattr $C$DW$132, DW_AT_low_pc(0x00)
    2625                      .dwattr $C$DW$132, DW_AT_TI_return
    2626 000e7d 4804          RET
    2627                                                      ; return occurs
    2628              
    2629              $C$DW$133       .dwtag  DW_TAG_TI_loop
    2630                      .dwattr $C$DW$133, DW_AT_name("F:\eZdsp-DBG-sim\tmp1\c55x-sim2\foo\Debug\csl_usb.asm:$C$L61:1:1538472
    2631                      .dwattr $C$DW$133, DW_AT_TI_begin_file("../c5535_bsl_revc/ezdsp5535_v1/c55xx_csl/src/csl_usb.c")
    2632                      .dwattr $C$DW$133, DW_AT_TI_begin_line(0x3cb)
    2633                      .dwattr $C$DW$133, DW_AT_TI_end_line(0x3cb)
    2634              $C$DW$134       .dwtag  DW_TAG_TI_loop_range
    2635                      .dwattr $C$DW$134, DW_AT_low_pc($C$DW$L$_USB_getSetupPacket$8$B)
    2636                      .dwattr $C$DW$134, DW_AT_high_pc($C$DW$L$_USB_getSetupPacket$8$E)
    2637                      .dwendtag $C$DW$133
    2638              
    2639                      .dwattr $C$DW$122, DW_AT_TI_end_file("../c5535_bsl_revc/ezdsp5535_v1/c55xx_csl/src/csl_usb.c")
    2640                      .dwattr $C$DW$122, DW_AT_TI_end_line(0x3dd)
    2641                      .dwattr $C$DW$122, DW_AT_TI_end_column(0x01)
    2642                      .dwendentry
    2643                      .dwendtag $C$DW$122
    2644              
    2645 000e7f               .sect   ".text"
    2646                      .align 4
    2647                      .global _USB_postTransaction
    2648              
    2649              $C$DW$135       .dwtag  DW_TAG_subprogram, DW_AT_name("USB_postTransaction")
    2650                      .dwattr $C$DW$135, DW_AT_low_pc(_USB_postTransaction)
    2651                      .dwattr $C$DW$135, DW_AT_high_pc(0x00)
    2652                      .dwattr $C$DW$135, DW_AT_TI_symbol_name("_USB_postTransaction")
    2653                      .dwattr $C$DW$135, DW_AT_external
    2654                      .dwattr $C$DW$135, DW_AT_type(*$C$DW$T$75)
    2655                      .dwattr $C$DW$135, DW_AT_TI_begin_file("../c5535_bsl_revc/ezdsp5535_v1/c55xx_csl/src/csl_usb.c")
    2656                      .dwattr $C$DW$135, DW_AT_TI_begin_line(0x40f)
    2657                      .dwattr $C$DW$135, DW_AT_TI_begin_column(0x0c)
    2658                      .dwattr $C$DW$135, DW_AT_TI_max_frame_size(0x12)
    2659                      .dwpsn  file "../c5535_bsl_revc/ezdsp5535_v1/c55xx_csl/src/csl_usb.c",line 1043,column 1,is_stmt,addr
    2660              
    2661                      .dwfde $C$DW$CIE, _USB_postTransaction
    2662              $C$DW$136       .dwtag  DW_TAG_formal_parameter, DW_AT_name("hEp")
    2663                      .dwattr $C$DW$136, DW_AT_TI_symbol_name("_hEp")
    2664                      .dwattr $C$DW$136, DW_AT_type(*$C$DW$T$102)
    2665                      .dwattr $C$DW$136, DW_AT_location[DW_OP_reg17]
    2666              $C$DW$137       .dwtag  DW_TAG_formal_parameter, DW_AT_name("byteCnt")
    2667                      .dwattr $C$DW$137, DW_AT_TI_symbol_name("_byteCnt")
    2668                      .dwattr $C$DW$137, DW_AT_type(*$C$DW$T$19)
    2669                      .dwattr $C$DW$137, DW_AT_location[DW_OP_reg12]
    2670              $C$DW$138       .dwtag  DW_TAG_formal_parameter, DW_AT_name("data")
    2671                      .dwattr $C$DW$138, DW_AT_TI_symbol_name("_data")
    2672                      .dwattr $C$DW$138, DW_AT_type(*$C$DW$T$3)
    2673                      .dwattr $C$DW$138, DW_AT_location[DW_OP_reg19]
    2674              $C$DW$139       .dwtag  DW_TAG_formal_parameter, DW_AT_name("flags")
    2675                      .dwattr $C$DW$139, DW_AT_TI_symbol_name("_flags")
TMS320C55x Assembler PC v4.4.1 Tue Oct 02 02:33:44 2018

Tools Copyright (c) 1996-2012 Texas Instruments Incorporated
csl_usb.asm                                                          PAGE   69

    2676                      .dwattr $C$DW$139, DW_AT_type(*$C$DW$T$122)
    2677                      .dwattr $C$DW$139, DW_AT_location[DW_OP_reg13]
    2678              ;*******************************************************************************
    2679              ;* FUNCTION NAME: USB_postTransaction                                          *
    2680              ;*                                                                             *
    2681              ;*   Function Uses Regs : AC0,AC0,AC1,AC1,T0,T1,AR0,XAR0,AR1,XAR1,AR2,XAR2,AR3,*
    2682              ;*                        XAR3,SP,CARRY,TC1,M40,SATA,SATD,RDM,FRCT,SMUL        *
    2683              ;*   Stack Frame        : Compact (No Frame Pointer, w/ debug)                 *
    2684              ;*   Total Frame Size   : 18 words                                             *
    2685              ;*                        (2 return address/alignment)                         *
    2686              ;*                        (16 local values)                                    *
    2687              ;*   Min System Stack   : 1 word                                               *
    2688              ;*******************************************************************************
    2689 000e80       _USB_postTransaction:
    2690                      .dwcfi  cfa_offset, 1
    2691                      .dwcfi  save_reg_to_mem, 91, -1
    2692 000e80 4EEF          AADD #-17, SP
    2693                      .dwcfi  cfa_offset, 18
    2694              $C$DW$140       .dwtag  DW_TAG_variable, DW_AT_name("hEp")
    2695                      .dwattr $C$DW$140, DW_AT_TI_symbol_name("_hEp")
    2696                      .dwattr $C$DW$140, DW_AT_type(*$C$DW$T$102)
    2697                      .dwattr $C$DW$140, DW_AT_location[DW_OP_bregx 0x24 0]
    2698              $C$DW$141       .dwtag  DW_TAG_variable, DW_AT_name("byteCnt")
    2699                      .dwattr $C$DW$141, DW_AT_TI_symbol_name("_byteCnt")
    2700                      .dwattr $C$DW$141, DW_AT_type(*$C$DW$T$19)
    2701                      .dwattr $C$DW$141, DW_AT_location[DW_OP_bregx 0x24 2]
    2702              $C$DW$142       .dwtag  DW_TAG_variable, DW_AT_name("data")
    2703                      .dwattr $C$DW$142, DW_AT_TI_symbol_name("_data")
    2704                      .dwattr $C$DW$142, DW_AT_type(*$C$DW$T$3)
    2705                      .dwattr $C$DW$142, DW_AT_location[DW_OP_bregx 0x24 4]
    2706              $C$DW$143       .dwtag  DW_TAG_variable, DW_AT_name("flags")
    2707                      .dwattr $C$DW$143, DW_AT_TI_symbol_name("_flags")
    2708                      .dwattr $C$DW$143, DW_AT_type(*$C$DW$T$122)
    2709                      .dwattr $C$DW$143, DW_AT_location[DW_OP_bregx 0x24 6]
    2710              $C$DW$144       .dwtag  DW_TAG_variable, DW_AT_name("pContext")
    2711                      .dwattr $C$DW$144, DW_AT_TI_symbol_name("_pContext")
    2712                      .dwattr $C$DW$144, DW_AT_type(*$C$DW$T$142)
    2713                      .dwattr $C$DW$144, DW_AT_location[DW_OP_bregx 0x24 8]
    2714              $C$DW$145       .dwtag  DW_TAG_variable, DW_AT_name("peps")
    2715                      .dwattr $C$DW$145, DW_AT_TI_symbol_name("_peps")
    2716                      .dwattr $C$DW$145, DW_AT_type(*$C$DW$T$147)
    2717                      .dwattr $C$DW$145, DW_AT_location[DW_OP_bregx 0x24 10]
    2718              $C$DW$146       .dwtag  DW_TAG_variable, DW_AT_name("pTransfer")
    2719                      .dwattr $C$DW$146, DW_AT_TI_symbol_name("_pTransfer")
    2720                      .dwattr $C$DW$146, DW_AT_type(*$C$DW$T$150)
    2721                      .dwattr $C$DW$146, DW_AT_location[DW_OP_bregx 0x24 12]
    2722              $C$DW$147       .dwtag  DW_TAG_variable, DW_AT_name("epNum")
    2723                      .dwattr $C$DW$147, DW_AT_TI_symbol_name("_epNum")
    2724                      .dwattr $C$DW$147, DW_AT_type(*$C$DW$T$108)
    2725                      .dwattr $C$DW$147, DW_AT_location[DW_OP_bregx 0x24 14]
    2726              $C$DW$148       .dwtag  DW_TAG_variable, DW_AT_name("status")
    2727                      .dwattr $C$DW$148, DW_AT_TI_symbol_name("_status")
    2728                      .dwattr $C$DW$148, DW_AT_type(*$C$DW$T$75)
    2729                      .dwattr $C$DW$148, DW_AT_location[DW_OP_bregx 0x24 15]
    2730 000e82 C50C          MOV T1, *SP(#6) ; |1043| 
TMS320C55x Assembler PC v4.4.1 Tue Oct 02 02:33:44 2018

Tools Copyright (c) 1996-2012 Texas Instruments Incorporated
csl_usb.asm                                                          PAGE   70

    2731 000e84 EB08          MOV XAR1, dbl(*SP(#4))
         000e86 95   
    2732 000e87 C404          MOV T0, *SP(#2) ; |1043| 
    2733 000e89 EB00          MOV XAR0, dbl(*SP(#0))
         000e8b 85   
    2734                      .dwpsn  file "../c5535_bsl_revc/ezdsp5535_v1/c55xx_csl/src/csl_usb.c",line 1050,column 2,is_stmt
    2735 000e8c E61E          MOV #0, *SP(#15) ; |1050| 
         000e8e 00   
    2736                      .dwpsn  file "../c5535_bsl_revc/ezdsp5535_v1/c55xx_csl/src/csl_usb.c",line 1051,column 2,is_stmt
    2737 000e8f EC31          AMOV #_gUsbContext, XAR3 ; |1051| 
         000e91 BE00 
         000e93 0002-
    2738 000e95 EB10          MOV XAR3, dbl(*SP(#8))
         000e97 B5   
    2739                      .dwpsn  file "../c5535_bsl_revc/ezdsp5535_v1/c55xx_csl/src/csl_usb.c",line 1053,column 2,is_stmt
    2740 000e98 ED00          MOV dbl(*SP(#0)), XAR3
         000e9a BF   
    2741 000e9b 90B0          MOV XAR3, AC0
    2742 000e9d 6D00          BCC $C$L82,AC0 == #0 ; |1053| 
         000e9f 018D 
    2743                                                      ; branchcc occurs ; |1053| 
    2744                      .dwpsn  file "../c5535_bsl_revc/ezdsp5535_v1/c55xx_csl/src/csl_usb.c",line 1055,column 3,is_stmt
    2745 000ea1 A961          MOV *AR3, AR1 ; |1055| 
    2746 000ea3 C91C          MOV AR1, *SP(#14) ; |1055| 
    2747                      .dwpsn  file "../c5535_bsl_revc/ezdsp5535_v1/c55xx_csl/src/csl_usb.c",line 1057,column 3,is_stmt
    2748 000ea5 0600          B $C$L77  ; |1057| 
         000ea7 85   
    2749                                                      ; branch occurs ; |1057| 
    2750 000ea8       $C$L67:    
    2751                      .dwpsn  file "../c5535_bsl_revc/ezdsp5535_v1/c55xx_csl/src/csl_usb.c",line 1060,column 5,is_stmt
    2752 000ea8 EC31          AMOV #_gCtrlTransfer, XAR3 ; |1060| 
         000eaa BE00 
         000eac 00CA-
    2753 000eae EB18          MOV XAR3, dbl(*SP(#12))
         000eb0 B5   
    2754                      .dwpsn  file "../c5535_bsl_revc/ezdsp5535_v1/c55xx_csl/src/csl_usb.c",line 1061,column 5,is_stmt
    2755 000eb1 3C00          MOV #0, AC0 ; |1061| 
    2756 000eb3 EB61          MOV AC0, dbl(*AR3) ; |1061| 
         000eb5 08   
    2757                      .dwpsn  file "../c5535_bsl_revc/ezdsp5535_v1/c55xx_csl/src/csl_usb.c",line 1062,column 10,is_stmt
    2758 000eb6 0600          B $C$L78  ; |1062| 
         000eb8 9A   
    2759                                                      ; branch occurs ; |1062| 
    2760 000eb9       $C$L68:    
    2761                      .dwpsn  file "../c5535_bsl_revc/ezdsp5535_v1/c55xx_csl/src/csl_usb.c",line 1065,column 5,is_stmt
    2762 000eb9 EC31          AMOV #_gCtrlTransfer, XAR3 ; |1065| 
         000ebb BE00 
         000ebd 00CA-
    2763 000ebf EB18          MOV XAR3, dbl(*SP(#12))
         000ec1 B5   
    2764                      .dwpsn  file "../c5535_bsl_revc/ezdsp5535_v1/c55xx_csl/src/csl_usb.c",line 1066,column 5,is_stmt
    2765 000ec2 7600          MOV #128, AC0 ; |1066| 
         000ec4 8008 
    2766 000ec6 EB61          MOV AC0, dbl(*AR3) ; |1066| 
         000ec8 08   
TMS320C55x Assembler PC v4.4.1 Tue Oct 02 02:33:44 2018

Tools Copyright (c) 1996-2012 Texas Instruments Incorporated
csl_usb.asm                                                          PAGE   71

    2767                      .dwpsn  file "../c5535_bsl_revc/ezdsp5535_v1/c55xx_csl/src/csl_usb.c",line 1067,column 10,is_stmt
    2768 000ec9 0600          B $C$L78  ; |1067| 
         000ecb 87   
    2769                                                      ; branch occurs ; |1067| 
    2770 000ecc       $C$L69:    
    2771                      .dwpsn  file "../c5535_bsl_revc/ezdsp5535_v1/c55xx_csl/src/csl_usb.c",line 1073,column 8,is_stmt
    2772 000ecc ED00          MOV dbl(*SP(#0)), XAR3
         000ece BF   
    2773 000ecf F073          CMP *AR3(short(#1)) == #1, TC1 ; |1073| 
         000ed1 0001 
    2774 000ed3 65F4          BCC $C$L70,!TC1 ; |1073| 
    2775                                                      ; branchcc occurs ; |1073| 
    2776                      .dwpsn  file "../c5535_bsl_revc/ezdsp5535_v1/c55xx_csl/src/csl_usb.c",line 1076,column 6,is_stmt
    2777 000ed5 EC31          AMOV #_gBulkInTransfer, XAR3 ; |1076| 
         000ed7 BE00 
         000ed9 00D8-
    2778 000edb EB18          MOV XAR3, dbl(*SP(#12))
         000edd B5   
    2779                      .dwpsn  file "../c5535_bsl_revc/ezdsp5535_v1/c55xx_csl/src/csl_usb.c",line 1077,column 5,is_stmt
    2780 000ede 4A1A          B $C$L72  ; |1077| 
    2781                                                      ; branch occurs ; |1077| 
    2782 000ee0       $C$L70:    
    2783                      .dwpsn  file "../c5535_bsl_revc/ezdsp5535_v1/c55xx_csl/src/csl_usb.c",line 1078,column 22,is_stmt
    2784 000ee0 F073          CMP *AR3(short(#1)) == #3, TC1 ; |1078| 
         000ee2 0003 
    2785 000ee4 65F4          BCC $C$L71,!TC1 ; |1078| 
    2786                                                      ; branchcc occurs ; |1078| 
    2787                      .dwpsn  file "../c5535_bsl_revc/ezdsp5535_v1/c55xx_csl/src/csl_usb.c",line 1081,column 6,is_stmt
    2788 000ee6 EC31          AMOV #_gIsoInTransfer, XAR3 ; |1081| 
         000ee8 BE00 
         000eea 00F4-
    2789 000eec EB18          MOV XAR3, dbl(*SP(#12))
         000eee B5   
    2790                      .dwpsn  file "../c5535_bsl_revc/ezdsp5535_v1/c55xx_csl/src/csl_usb.c",line 1082,column 5,is_stmt
    2791 000eef 4A09          B $C$L72  ; |1082| 
    2792                                                      ; branch occurs ; |1082| 
    2793 000ef1       $C$L71:    
    2794                      .dwpsn  file "../c5535_bsl_revc/ezdsp5535_v1/c55xx_csl/src/csl_usb.c",line 1086,column 21,is_stmt
    2795 000ef1 EC31          AMOV #_gIntInTransfer, XAR3 ; |1086| 
         000ef3 BE00 
         000ef5 0110-
    2796 000ef7 EB18          MOV XAR3, dbl(*SP(#12))
         000ef9 B5   
    2797 000efa       $C$L72:    
    2798                      .dwpsn  file "../c5535_bsl_revc/ezdsp5535_v1/c55xx_csl/src/csl_usb.c",line 1088,column 5,is_stmt
    2799 000efa 7600          MOV #128, AC0 ; |1088| 
         000efc 8008 
    2800 000efe EB61          MOV AC0, dbl(*AR3) ; |1088| 
         000f00 08   
    2801                      .dwpsn  file "../c5535_bsl_revc/ezdsp5535_v1/c55xx_csl/src/csl_usb.c",line 1090,column 10,is_stmt
    2802 000f01 0600          B $C$L78  ; |1090| 
         000f03 4F   
    2803                                                      ; branch occurs ; |1090| 
    2804 000f04       $C$L73:    
    2805                      .dwpsn  file "../c5535_bsl_revc/ezdsp5535_v1/c55xx_csl/src/csl_usb.c",line 1096,column 8,is_stmt
TMS320C55x Assembler PC v4.4.1 Tue Oct 02 02:33:44 2018

Tools Copyright (c) 1996-2012 Texas Instruments Incorporated
csl_usb.asm                                                          PAGE   72

    2806 000f04 ED00          MOV dbl(*SP(#0)), XAR3
         000f06 BF   
    2807 000f07 F073          CMP *AR3(short(#1)) == #1, TC1 ; |1096| 
         000f09 0001 
    2808 000f0b 65F4          BCC $C$L74,!TC1 ; |1096| 
    2809                                                      ; branchcc occurs ; |1096| 
    2810                      .dwpsn  file "../c5535_bsl_revc/ezdsp5535_v1/c55xx_csl/src/csl_usb.c",line 1099,column 6,is_stmt
    2811 000f0d EC31          AMOV #_gBulkOutTransfer, XAR3 ; |1099| 
         000f0f BE00 
         000f11 00E6-
    2812 000f13 EB18          MOV XAR3, dbl(*SP(#12))
         000f15 B5   
    2813                      .dwpsn  file "../c5535_bsl_revc/ezdsp5535_v1/c55xx_csl/src/csl_usb.c",line 1100,column 5,is_stmt
    2814 000f16 4A09          B $C$L75  ; |1100| 
    2815                                                      ; branch occurs ; |1100| 
    2816 000f18       $C$L74:    
    2817                      .dwpsn  file "../c5535_bsl_revc/ezdsp5535_v1/c55xx_csl/src/csl_usb.c",line 1104,column 6,is_stmt
    2818 000f18 EC31          AMOV #_gIsoOutTransfer, XAR3 ; |1104| 
         000f1a BE00 
         000f1c 0102-
    2819 000f1e EB18          MOV XAR3, dbl(*SP(#12))
         000f20 B5   
    2820 000f21       $C$L75:    
    2821                      .dwpsn  file "../c5535_bsl_revc/ezdsp5535_v1/c55xx_csl/src/csl_usb.c",line 1106,column 5,is_stmt
    2822 000f21 3C00          MOV #0, AC0 ; |1106| 
    2823 000f23 EB61          MOV AC0, dbl(*AR3) ; |1106| 
         000f25 08   
    2824                      .dwpsn  file "../c5535_bsl_revc/ezdsp5535_v1/c55xx_csl/src/csl_usb.c",line 1108,column 10,is_stmt
    2825 000f26 4A2B          B $C$L78  ; |1108| 
    2826                                                      ; branch occurs ; |1108| 
    2827 000f28       $C$L76:    
    2828                      .dwpsn  file "../c5535_bsl_revc/ezdsp5535_v1/c55xx_csl/src/csl_usb.c",line 1111,column 5,is_stmt
    2829 000f28 E61E          MOV #-6, *SP(#15) ; |1111| 
         000f2a FA   
    2830                      .dwpsn  file "../c5535_bsl_revc/ezdsp5535_v1/c55xx_csl/src/csl_usb.c",line 1112,column 10,is_stmt
    2831 000f2b 4A26          B $C$L78  ; |1112| 
    2832                                                      ; branch occurs ; |1112| 
    2833 000f2d       $C$L77:    
    2834                      .dwpsn  file "../c5535_bsl_revc/ezdsp5535_v1/c55xx_csl/src/csl_usb.c",line 1057,column 3,is_stmt
    2835 000f2d 6D09          BCC $C$L67,AR1 == #0 ; |1057| 
         000f2f FF77 
    2836                                                      ; branchcc occurs ; |1057| 
    2837              
    2838 000f31 7C00          SUB #1, AR1, AR2 ; |1057| 
         000f33 01A9 
    2839 000f35 3D3B  ||      MOV #3, AR3
    2840              
    2841 000f37 12B8          CMPU AR2 <= AR3, TC1 ; |1057| 
         000f39 A4   
    2842 000f3a 0464          BCC $C$L73,TC1 ; |1057| 
         000f3c C7   
    2843                                                      ; branchcc occurs ; |1057| 
    2844 000f3d 3C8A          MOV #8, AR2
    2845 000f3f 1290          CMP AR1 == AR2, TC1 ; |1057| 
         000f41 A0   
TMS320C55x Assembler PC v4.4.1 Tue Oct 02 02:33:44 2018

Tools Copyright (c) 1996-2012 Texas Instruments Incorporated
csl_usb.asm                                                          PAGE   73

    2846 000f42 6D64          BCC $C$L68,TC1 ; |1057| 
         000f44 FF73 
    2847                                                      ; branchcc occurs ; |1057| 
    2848              
    2849 000f46 4299          SUB #9, AR1, AR1 ; |1057| 
    2850 000f48 3D3A  ||      MOV #3, AR2
    2851              
    2852 000f4a 12A8          CMPU AR1 <= AR2, TC1 ; |1057| 
         000f4c 94   
    2853 000f4d 6D64          BCC $C$L69,TC1 ; |1057| 
         000f4f FF7B 
    2854                                                      ; branchcc occurs ; |1057| 
    2855 000f51 4A55          B $C$L76  ; |1057| 
    2856                                                      ; branch occurs ; |1057| 
    2857 000f53       $C$L78:    
    2858                      .dwpsn  file "../c5535_bsl_revc/ezdsp5535_v1/c55xx_csl/src/csl_usb.c",line 1115,column 3,is_stmt
    2859 000f53 ED00          MOV dbl(*SP(#0)), XAR3
         000f55 BF   
    2860 000f56 A961          MOV *AR3, AR1 ; |1115| 
    2861 000f58 2290          MOV AR1, AC0
    2862 000f5a ED10          MOV dbl(*SP(#8)), XAR3
         000f5c BF   
    2863 000f5d 1005          SFTS AC0, #-2, AC0 ; |1115| 
         000f5f 3E   
    2864 000f60 76E0          BFXTR #0xe000, AC0, AR2 ; |1115| 
         000f62 00A0 
    2865 000f64 249A          ADD AR1, AR2 ; |1115| 
    2866 000f66 7DFF          AND #0xfffffff8, AR2, AR2 ; |1115| 
         000f68 F8AA 
    2867 000f6a ED6D          MOV dbl(*AR3(#98)), XAR3
         000f6c BF00 
         000f6e 62   
    2868 000f6f 26A9          SUB AR2, AR1 ; |1115| 
    2869 000f71 2291          MOV AR1, AC1
    2870 000f73 1015          SFTS AC1, #1, AC0 ; |1115| 
         000f75 01   
    2871 000f76 1013          ADD AC1 << #4, AC0 ; |1115| 
         000f78 04   
    2872 000f79 900A          MOV AC0, XAR2
    2873              
    2874 000f7b 8E14          MOV XAR3, dbl(*SP(#10))
         000f7d BB10 
         000f7f B5A1 
    2875              ||      AADD XAR2, XAR3 ; |1115| 
    2876              
    2877                      .dwpsn  file "../c5535_bsl_revc/ezdsp5535_v1/c55xx_csl/src/csl_usb.c",line 1116,column 3,is_stmt
    2878 000f81 ED00          MOV dbl(*SP(#0)), XAR3
         000f83 BF   
    2879 000f84 A973          MOV *AR3(short(#1)), AR1 ; |1116| 
    2880 000f86 ED14          MOV dbl(*SP(#10)), XAR3
         000f88 BF   
    2881 000f89 C975          MOV AR1, *AR3(short(#2)) ; |1116| 
    2882                      .dwpsn  file "../c5535_bsl_revc/ezdsp5535_v1/c55xx_csl/src/csl_usb.c",line 1118,column 3,is_stmt
    2883 000f8b ED14          MOV dbl(*SP(#10)), XAR3
         000f8d BF   
TMS320C55x Assembler PC v4.4.1 Tue Oct 02 02:33:44 2018

Tools Copyright (c) 1996-2012 Texas Instruments Incorporated
csl_usb.asm                                                          PAGE   74

    2884 000f8e ED61          MOV dbl(*AR3), AC0 ; |1118| 
         000f90 08   
    2885 000f91 6490          BCC $C$L79,AC0 != #0 ; |1118| 
    2886                                                      ; branchcc occurs ; |1118| 
    2887 000f93 A904          MOV *SP(#2), AR1 ; |1118| 
    2888 000f95 6299          BCC $C$L79,AR1 != #0 ; |1118| 
