TMS320C55x Assembler PC v4.4.1 Tue Oct 02 02:33:44 2018

Tools Copyright (c) 1996-2012 Texas Instruments Incorporated
csl_usb.asm                                                          PAGE    1

   10687              ; Temporary Registers Used: None
       1              ;*******************************************************************************
       2              ;* TMS320C55x C/C++ Codegen                                          PC v4.4.1 *
       3              ;* Date/Time created: Tue Oct 02 02:33:39 2018                                 *
       4              ;*******************************************************************************
       5                      .compiler_opts --hll_source=on --mem_model:code=flat --mem_model:data=large --object_format=coff --si
       6                      .mmregs
       7                      .cpl_on
       8                      .arms_on
       9                      .c54cm_off
      10                      .asg AR6, FP
      11                      .asg XAR6, XFP
      12                      .asg DPH, MDP
      13                      .model call=c55_std
      14                      .model mem=large
      15                      .noremark 5002  ; code respects overwrite rules
      16              ;*******************************************************************************
      17              ;* GLOBAL FILE PARAMETERS                                                      *
      18              ;*                                                                             *
      19              ;*   Architecture       : TMS320C55x                                           *
      20              ;*   Optimizing for     : Speed                                                *
      21              ;*   Memory             : Large Model (23-Bit Data Pointers)                   *
      22              ;*   Calls              : Normal Library ASM calls                             *
      23              ;*   Debug Info         : Standard TI Debug Information                        *
      24              ;*******************************************************************************
      25              
      26              $C$DW$CU        .dwtag  DW_TAG_compile_unit
      27                      .dwattr $C$DW$CU, DW_AT_name("../c5535_bsl_revc/ezdsp5535_v1/c55xx_csl/src/csl_usb.c")
      28                      .dwattr $C$DW$CU, DW_AT_producer("TMS320C55x C/C++ Codegen PC v4.4.1 Copyright (c) 1996-2012 Texas In
      29                      .dwattr $C$DW$CU, DW_AT_TI_version(0x01)
      30                      .dwattr $C$DW$CU, DW_AT_comp_dir("F:\eZdsp-DBG-sim\tmp1\c55x-sim2\foo\Debug")
      31                      .global _usbRegisters
      32 000000               .bss    _usbRegisters,1,0,0
      33              $C$DW$1 .dwtag  DW_TAG_variable, DW_AT_name("usbRegisters")
      34                      .dwattr $C$DW$1, DW_AT_TI_symbol_name("_usbRegisters")
      35                      .dwattr $C$DW$1, DW_AT_location[DW_OP_addr _usbRegisters]
      36                      .dwattr $C$DW$1, DW_AT_type(*$C$DW$T$133)
      37                      .dwattr $C$DW$1, DW_AT_external
      38                      .global _sysCtrlRegs
      39 000001               .bss    _sysCtrlRegs,1,0,0
      40              $C$DW$2 .dwtag  DW_TAG_variable, DW_AT_name("sysCtrlRegs")
      41                      .dwattr $C$DW$2, DW_AT_TI_symbol_name("_sysCtrlRegs")
      42                      .dwattr $C$DW$2, DW_AT_location[DW_OP_addr _sysCtrlRegs]
      43                      .dwattr $C$DW$2, DW_AT_type(*$C$DW$T$137)
      44                      .dwattr $C$DW$2, DW_AT_external
      45                      .global _gUsbContext
      46 000002               .bss    _gUsbContext,200,0,2
      47              $C$DW$3 .dwtag  DW_TAG_variable, DW_AT_name("gUsbContext")
      48                      .dwattr $C$DW$3, DW_AT_TI_symbol_name("_gUsbContext")
      49                      .dwattr $C$DW$3, DW_AT_location[DW_OP_addr _gUsbContext]
      50                      .dwattr $C$DW$3, DW_AT_type(*$C$DW$T$140)
      51                      .dwattr $C$DW$3, DW_AT_external
      52                      .global _gCtrlTransfer
      53 0000ca               .bss    _gCtrlTransfer,14,0,2
      54              $C$DW$4 .dwtag  DW_TAG_variable, DW_AT_name("gCtrlTransfer")
TMS320C55x Assembler PC v4.4.1 Tue Oct 02 02:33:44 2018

Tools Copyright (c) 1996-2012 Texas Instruments Incorporated
csl_usb.asm                                                          PAGE    2

      55                      .dwattr $C$DW$4, DW_AT_TI_symbol_name("_gCtrlTransfer")
      56                      .dwattr $C$DW$4, DW_AT_location[DW_OP_addr _gCtrlTransfer]
      57                      .dwattr $C$DW$4, DW_AT_type(*$C$DW$T$117)
      58                      .dwattr $C$DW$4, DW_AT_external
      59                      .global _gBulkInTransfer
      60 0000d8               .bss    _gBulkInTransfer,14,0,2
      61              $C$DW$5 .dwtag  DW_TAG_variable, DW_AT_name("gBulkInTransfer")
      62                      .dwattr $C$DW$5, DW_AT_TI_symbol_name("_gBulkInTransfer")
      63                      .dwattr $C$DW$5, DW_AT_location[DW_OP_addr _gBulkInTransfer]
      64                      .dwattr $C$DW$5, DW_AT_type(*$C$DW$T$117)
      65                      .dwattr $C$DW$5, DW_AT_external
      66                      .global _gBulkOutTransfer
      67 0000e6               .bss    _gBulkOutTransfer,14,0,2
      68              $C$DW$6 .dwtag  DW_TAG_variable, DW_AT_name("gBulkOutTransfer")
      69                      .dwattr $C$DW$6, DW_AT_TI_symbol_name("_gBulkOutTransfer")
      70                      .dwattr $C$DW$6, DW_AT_location[DW_OP_addr _gBulkOutTransfer]
      71                      .dwattr $C$DW$6, DW_AT_type(*$C$DW$T$117)
      72                      .dwattr $C$DW$6, DW_AT_external
      73                      .global _gIsoInTransfer
      74 0000f4               .bss    _gIsoInTransfer,14,0,2
      75              $C$DW$7 .dwtag  DW_TAG_variable, DW_AT_name("gIsoInTransfer")
      76                      .dwattr $C$DW$7, DW_AT_TI_symbol_name("_gIsoInTransfer")
      77                      .dwattr $C$DW$7, DW_AT_location[DW_OP_addr _gIsoInTransfer]
      78                      .dwattr $C$DW$7, DW_AT_type(*$C$DW$T$117)
      79                      .dwattr $C$DW$7, DW_AT_external
      80                      .global _gIsoOutTransfer
      81 000102               .bss    _gIsoOutTransfer,14,0,2
      82              $C$DW$8 .dwtag  DW_TAG_variable, DW_AT_name("gIsoOutTransfer")
      83                      .dwattr $C$DW$8, DW_AT_TI_symbol_name("_gIsoOutTransfer")
      84                      .dwattr $C$DW$8, DW_AT_location[DW_OP_addr _gIsoOutTransfer]
      85                      .dwattr $C$DW$8, DW_AT_type(*$C$DW$T$117)
      86                      .dwattr $C$DW$8, DW_AT_external
      87                      .global _gIntInTransfer
      88 000110               .bss    _gIntInTransfer,14,0,2
      89              $C$DW$9 .dwtag  DW_TAG_variable, DW_AT_name("gIntInTransfer")
      90                      .dwattr $C$DW$9, DW_AT_TI_symbol_name("_gIntInTransfer")
      91                      .dwattr $C$DW$9, DW_AT_location[DW_OP_addr _gIntInTransfer]
      92                      .dwattr $C$DW$9, DW_AT_type(*$C$DW$T$117)
      93                      .dwattr $C$DW$9, DW_AT_external
      94                      .global _gEpStatus
      95 00011e               .bss    _gEpStatus,144,0,2
      96              $C$DW$10        .dwtag  DW_TAG_variable, DW_AT_name("gEpStatus")
      97                      .dwattr $C$DW$10, DW_AT_TI_symbol_name("_gEpStatus")
      98                      .dwattr $C$DW$10, DW_AT_location[DW_OP_addr _gEpStatus]
      99                      .dwattr $C$DW$10, DW_AT_type(*$C$DW$T$148)
     100                      .dwattr $C$DW$10, DW_AT_external
     101                      .global _gUsbEpHandle
     102 0001ae               .bss    _gUsbEpHandle,16,0,2
     103              $C$DW$11        .dwtag  DW_TAG_variable, DW_AT_name("gUsbEpHandle")
     104                      .dwattr $C$DW$11, DW_AT_TI_symbol_name("_gUsbEpHandle")
     105                      .dwattr $C$DW$11, DW_AT_location[DW_OP_addr _gUsbEpHandle]
     106                      .dwattr $C$DW$11, DW_AT_type(*$C$DW$T$103)
     107                      .dwattr $C$DW$11, DW_AT_external
     108              ;       F:\t\cc5p5\ccsv5\tools\compiler\c5500_4.4.1\bin\acp55.exe -@f:\\AppData\\Local\\Temp\\0800812 
     109 000000               .sect   ".text"
TMS320C55x Assembler PC v4.4.1 Tue Oct 02 02:33:44 2018

Tools Copyright (c) 1996-2012 Texas Instruments Incorporated
csl_usb.asm                                                          PAGE    3

     110                      .align 4
     111              
     112              $C$DW$12        .dwtag  DW_TAG_subprogram, DW_AT_name("USB_checkSpeed")
     113                      .dwattr $C$DW$12, DW_AT_low_pc(_USB_checkSpeed)
     114                      .dwattr $C$DW$12, DW_AT_high_pc(0x00)
     115                      .dwattr $C$DW$12, DW_AT_TI_symbol_name("_USB_checkSpeed")
     116                      .dwattr $C$DW$12, DW_AT_type(*$C$DW$T$81)
     117                      .dwattr $C$DW$12, DW_AT_TI_begin_file("F:/eZdsp-DBG-sim/tmp1/c55x-sim2/foo/c5535_bsl_revc/ezdsp5535_v
     118                      .dwattr $C$DW$12, DW_AT_TI_begin_line(0x6b6)
     119                      .dwattr $C$DW$12, DW_AT_TI_begin_column(0x06)
     120                      .dwattr $C$DW$12, DW_AT_TI_max_frame_size(0x06)
     121                      .dwpsn  file "F:/eZdsp-DBG-sim/tmp1/c55x-sim2/foo/c5535_bsl_revc/ezdsp5535_v1/c55xx_csl/inc/csl_usbAu
     122              
     123                      .dwfde $C$DW$CIE, _USB_checkSpeed
     124              $C$DW$13        .dwtag  DW_TAG_formal_parameter, DW_AT_name("pContext")
     125                      .dwattr $C$DW$13, DW_AT_TI_symbol_name("_pContext")
     126                      .dwattr $C$DW$13, DW_AT_type(*$C$DW$T$142)
     127                      .dwattr $C$DW$13, DW_AT_location[DW_OP_reg17]
     128              $C$DW$14        .dwtag  DW_TAG_formal_parameter, DW_AT_name("pBusSpeed")
     129                      .dwattr $C$DW$14, DW_AT_TI_symbol_name("_pBusSpeed")
     130                      .dwattr $C$DW$14, DW_AT_type(*$C$DW$T$129)
     131                      .dwattr $C$DW$14, DW_AT_location[DW_OP_reg19]
     132              ;*******************************************************************************
     133              ;* FUNCTION NAME: USB_checkSpeed                                               *
     134              ;*                                                                             *
     135              ;*   Function Uses Regs : AC0,AC0,T0,AR0,XAR0,AR1,XAR1,AR3,XAR3,SP,TC1,M40,    *
     136              ;*                        SATA,SATD,RDM,FRCT,SMUL                              *
     137              ;*   Stack Frame        : Compact (No Frame Pointer, w/ debug)                 *
     138              ;*   Total Frame Size   : 6 words                                              *
     139              ;*                        (1 return address/alignment)                         *
     140              ;*                        (5 local values)                                     *
     141              ;*   Min System Stack   : 1 word                                               *
     142              ;*******************************************************************************
     143 000000       _USB_checkSpeed:
     144                      .dwcfi  cfa_offset, 1
     145                      .dwcfi  save_reg_to_mem, 91, -1
     146 000000 4EFB          AADD #-5, SP
     147                      .dwcfi  cfa_offset, 6
     148              $C$DW$15        .dwtag  DW_TAG_variable, DW_AT_name("pContext")
     149                      .dwattr $C$DW$15, DW_AT_TI_symbol_name("_pContext")
     150                      .dwattr $C$DW$15, DW_AT_type(*$C$DW$T$142)
     151                      .dwattr $C$DW$15, DW_AT_location[DW_OP_bregx 0x24 0]
     152              $C$DW$16        .dwtag  DW_TAG_variable, DW_AT_name("pBusSpeed")
     153                      .dwattr $C$DW$16, DW_AT_TI_symbol_name("_pBusSpeed")
     154                      .dwattr $C$DW$16, DW_AT_type(*$C$DW$T$129)
     155                      .dwattr $C$DW$16, DW_AT_location[DW_OP_bregx 0x24 2]
     156              $C$DW$17        .dwtag  DW_TAG_variable, DW_AT_name("wPower")
     157                      .dwattr $C$DW$17, DW_AT_TI_symbol_name("_wPower")
     158                      .dwattr $C$DW$17, DW_AT_type(*$C$DW$T$19)
     159                      .dwattr $C$DW$17, DW_AT_location[DW_OP_bregx 0x24 4]
     160 000002 EB04          MOV XAR1, dbl(*SP(#2))
         000004 95   
     161 000005 EB00          MOV XAR0, dbl(*SP(#0))
         000007 85   
     162                      .dwpsn  file "F:/eZdsp-DBG-sim/tmp1/c55x-sim2/foo/c5535_bsl_revc/ezdsp5535_v1/c55xx_csl/inc/csl_usbAu
TMS320C55x Assembler PC v4.4.1 Tue Oct 02 02:33:44 2018

Tools Copyright (c) 1996-2012 Texas Instruments Incorporated
csl_usb.asm                                                          PAGE    4

     163 000008 7604          MOV #1025, T0 ; |1723| 
         00000a 0148 
     164 00000c AB31          MOV *(#_usbRegisters), AR3 ; |1723| 
         00000e 0000 
         000010 00-  
     165 000011 A96B          MOV port(*AR3(T0)), AR1 ; |1723| 
         000013 99   
     166 000014 C908          MOV AR1, *SP(#4) ; |1723| 
     167                      .dwpsn  file "F:/eZdsp-DBG-sim/tmp1/c55x-sim2/foo/c5535_bsl_revc/ezdsp5535_v1/c55xx_csl/inc/csl_usbAu
     168 000016 6389          BCC $C$L1,AR1 == #0 ; |1725| 
     169                                                      ; branchcc occurs ; |1725| 
     170 000018 ED04          MOV dbl(*SP(#2)), XAR3
         00001a BF   
     171 00001b 90B0          MOV XAR3, AC0
     172 00001d 6210          BCC $C$L2,AC0 != #0 ; |1725| 
     173                                                      ; branchcc occurs ; |1725| 
     174 00001f       $C$L1:    
     175                      .dwpsn  file "F:/eZdsp-DBG-sim/tmp1/c55x-sim2/foo/c5535_bsl_revc/ezdsp5535_v1/c55xx_csl/inc/csl_usbAu
     176 00001f 3C04          MOV #0, T0
     177 000021 4A1B          B $C$L5   ; |1727| 
     178                                                      ; branch occurs ; |1727| 
     179 000023       $C$L2:    
     180                      .dwpsn  file "F:/eZdsp-DBG-sim/tmp1/c55x-sim2/foo/c5535_bsl_revc/ezdsp5535_v1/c55xx_csl/inc/csl_usbAu
     181 000023 AB31          MOV *(#_usbRegisters), AR3 ; |1734| 
         000025 0000 
         000027 00-  
     182 000028 DC6B          BTST #12, port(*AR3(T0)), TC1 ; |1734| 
         00002a C0   
         00002b 99   
     183 00002c 6474          BCC $C$L3,!TC1 ; |1734| 
     184                                                      ; branchcc occurs ; |1734| 
     185                      .dwpsn  file "F:/eZdsp-DBG-sim/tmp1/c55x-sim2/foo/c5535_bsl_revc/ezdsp5535_v1/c55xx_csl/inc/csl_usbAu
     186 00002e ED04          MOV dbl(*SP(#2)), XAR3
         000030 BF   
     187 000031 E661          MOV #4, *AR3 ; |1736| 
         000033 04   
     188                      .dwpsn  file "F:/eZdsp-DBG-sim/tmp1/c55x-sim2/foo/c5535_bsl_revc/ezdsp5535_v1/c55xx_csl/inc/csl_usbAu
     189 000034 4A06          B $C$L4   ; |1737| 
     190                                                      ; branch occurs ; |1737| 
     191 000036       $C$L3:    
     192                      .dwpsn  file "F:/eZdsp-DBG-sim/tmp1/c55x-sim2/foo/c5535_bsl_revc/ezdsp5535_v1/c55xx_csl/inc/csl_usbAu
     193 000036 ED04          MOV dbl(*SP(#2)), XAR3
         000038 BF   
     194 000039 E661          MOV #2, *AR3 ; |1740| 
         00003b 02   
     195 00003c       $C$L4:    
     196                      .dwpsn  file "F:/eZdsp-DBG-sim/tmp1/c55x-sim2/foo/c5535_bsl_revc/ezdsp5535_v1/c55xx_csl/inc/csl_usbAu
     197 00003c 3C14          MOV #1, T0
     198 00003e       $C$L5:    
     199                      .dwpsn  file "F:/eZdsp-DBG-sim/tmp1/c55x-sim2/foo/c5535_bsl_revc/ezdsp5535_v1/c55xx_csl/inc/csl_usbAu
     200 00003e 4E05          AADD #5, SP
     201                      .dwcfi  cfa_offset, 1
     202              $C$DW$18        .dwtag  DW_TAG_TI_branch
     203                      .dwattr $C$DW$18, DW_AT_low_pc(0x00)
     204                      .dwattr $C$DW$18, DW_AT_TI_return
TMS320C55x Assembler PC v4.4.1 Tue Oct 02 02:33:44 2018

Tools Copyright (c) 1996-2012 Texas Instruments Incorporated
csl_usb.asm                                                          PAGE    5

     205 000040 4804          RET
     206                                                      ; return occurs
     207                      .dwattr $C$DW$12, DW_AT_TI_end_file("F:/eZdsp-DBG-sim/tmp1/c55x-sim2/foo/c5535_bsl_revc/ezdsp5535_v1/
     208                      .dwattr $C$DW$12, DW_AT_TI_end_line(0x6d0)
     209                      .dwattr $C$DW$12, DW_AT_TI_end_column(0x01)
     210                      .dwendentry
     211                      .dwendtag $C$DW$12
     212              
     213 000042               .sect   ".text"
     214                      .align 4
     215              
     216              $C$DW$19        .dwtag  DW_TAG_subprogram, DW_AT_name("USB_setConfiguration")
     217                      .dwattr $C$DW$19, DW_AT_low_pc(_USB_setConfiguration)
     218                      .dwattr $C$DW$19, DW_AT_high_pc(0x00)
     219                      .dwattr $C$DW$19, DW_AT_TI_symbol_name("_USB_setConfiguration")
     220                      .dwattr $C$DW$19, DW_AT_TI_begin_file("F:/eZdsp-DBG-sim/tmp1/c55x-sim2/foo/c5535_bsl_revc/ezdsp5535_v
     221                      .dwattr $C$DW$19, DW_AT_TI_begin_line(0x76e)
     222                      .dwattr $C$DW$19, DW_AT_TI_begin_column(0x06)
     223                      .dwattr $C$DW$19, DW_AT_TI_max_frame_size(0x06)
     224                      .dwpsn  file "F:/eZdsp-DBG-sim/tmp1/c55x-sim2/foo/c5535_bsl_revc/ezdsp5535_v1/c55xx_csl/inc/csl_usbAu
     225              
     226                      .dwfde $C$DW$CIE, _USB_setConfiguration
     227              $C$DW$20        .dwtag  DW_TAG_formal_parameter, DW_AT_name("devNum")
     228                      .dwattr $C$DW$20, DW_AT_TI_symbol_name("_devNum")
     229                      .dwattr $C$DW$20, DW_AT_type(*$C$DW$T$68)
     230                      .dwattr $C$DW$20, DW_AT_location[DW_OP_reg12]
     231              $C$DW$21        .dwtag  DW_TAG_formal_parameter, DW_AT_name("confVal")
     232                      .dwattr $C$DW$21, DW_AT_TI_symbol_name("_confVal")
     233                      .dwattr $C$DW$21, DW_AT_type(*$C$DW$T$19)
     234                      .dwattr $C$DW$21, DW_AT_location[DW_OP_reg13]
     235              ;*******************************************************************************
     236              ;* FUNCTION NAME: USB_setConfiguration                                         *
     237              ;*                                                                             *
     238              ;*   Function Uses Regs : T0,T1,AR1,AR2,AR3,SP,CARRY,TC1,M40,SATA,SATD,RDM,    *
     239              ;*                        FRCT,SMUL                                            *
     240              ;*   Stack Frame        : Compact (No Frame Pointer, w/ debug)                 *
     241              ;*   Total Frame Size   : 6 words                                              *
     242              ;*                        (2 return address/alignment)                         *
     243              ;*                        (4 local values)                                     *
     244              ;*   Min System Stack   : 1 word                                               *
     245              ;*******************************************************************************
     246 000044       _USB_setConfiguration:
     247                      .dwcfi  cfa_offset, 1
     248                      .dwcfi  save_reg_to_mem, 91, -1
     249 000044 4EFB          AADD #-5, SP
     250                      .dwcfi  cfa_offset, 6
     251              $C$DW$22        .dwtag  DW_TAG_variable, DW_AT_name("devNum")
     252                      .dwattr $C$DW$22, DW_AT_TI_symbol_name("_devNum")
     253                      .dwattr $C$DW$22, DW_AT_type(*$C$DW$T$68)
     254                      .dwattr $C$DW$22, DW_AT_location[DW_OP_bregx 0x24 0]
     255              $C$DW$23        .dwtag  DW_TAG_variable, DW_AT_name("confVal")
     256                      .dwattr $C$DW$23, DW_AT_TI_symbol_name("_confVal")
     257                      .dwattr $C$DW$23, DW_AT_type(*$C$DW$T$19)
     258                      .dwattr $C$DW$23, DW_AT_location[DW_OP_bregx 0x24 1]
     259              $C$DW$24        .dwtag  DW_TAG_variable, DW_AT_name("saveIndex")
TMS320C55x Assembler PC v4.4.1 Tue Oct 02 02:33:44 2018

Tools Copyright (c) 1996-2012 Texas Instruments Incorporated
csl_usb.asm                                                          PAGE    6

     260                      .dwattr $C$DW$24, DW_AT_TI_symbol_name("_saveIndex")
     261                      .dwattr $C$DW$24, DW_AT_type(*$C$DW$T$19)
     262                      .dwattr $C$DW$24, DW_AT_location[DW_OP_bregx 0x24 2]
     263              $C$DW$25        .dwtag  DW_TAG_variable, DW_AT_name("tempVal")
     264                      .dwattr $C$DW$25, DW_AT_TI_symbol_name("_tempVal")
     265                      .dwattr $C$DW$25, DW_AT_type(*$C$DW$T$19)
     266                      .dwattr $C$DW$25, DW_AT_location[DW_OP_bregx 0x24 3]
     267 000046 C502          MOV T1, *SP(#1) ; |1904| 
     268 000048 C400          MOV T0, *SP(#0) ; |1904| 
     269                      .dwpsn  file "F:/eZdsp-DBG-sim/tmp1/c55x-sim2/foo/c5535_bsl_revc/ezdsp5535_v1/c55xx_csl/inc/csl_usbAu
     270 00004a E604          MOV #0, *SP(#2) ; |1908| 
         00004c 00   
     271                      .dwpsn  file "F:/eZdsp-DBG-sim/tmp1/c55x-sim2/foo/c5535_bsl_revc/ezdsp5535_v1/c55xx_csl/inc/csl_usbAu
     272 00004d AB31          MOV *(#_usbRegisters), AR3 ; |1911| 
         00004f 0000 
         000051 00-  
     273 000052 7604          MOV #1038, T0 ; |1911| 
         000054 0E48 
     274 000056 A96B          MOV port(*AR3(T0)), AR1 ; |1911| 
         000058 99   
     275 000059 C904          MOV AR1, *SP(#2) ; |1911| 
     276                      .dwpsn  file "F:/eZdsp-DBG-sim/tmp1/c55x-sim2/foo/c5535_bsl_revc/ezdsp5535_v1/c55xx_csl/inc/csl_usbAu
     277 00005b 7604          MOV #1038, AR1 ; |1915| 
         00005d 0E98 
     278 00005f D631          ADD *(#_usbRegisters), AR1, AR3 ; |1915| 
         000061 B900 
         000063 0000-
     279 000065 F461          AND #0xfff0, port(*AR3) ; |1915| 
         000067 FFF0 
         000069 9A   
     280                      .dwpsn  file "F:/eZdsp-DBG-sim/tmp1/c55x-sim2/foo/c5535_bsl_revc/ezdsp5535_v1/c55xx_csl/inc/csl_usbAu
     281 00006a D631          ADD *(#_usbRegisters), AR1, AR3 ; |1916| 
         00006c B900 
         00006e 0000-
     282 000070 F561          OR #0x0001, port(*AR3) ; |1916| 
         000072 0001 
         000074 9A   
     283                      .dwpsn  file "F:/eZdsp-DBG-sim/tmp1/c55x-sim2/foo/c5535_bsl_revc/ezdsp5535_v1/c55xx_csl/inc/csl_usbAu
     284 000075 7604          MOV #1042, AR1 ; |1919| 
         000077 1298 
     285 000079 D631          ADD *(#_usbRegisters), AR1, AR3 ; |1919| 
         00007b B900 
         00007d 0000-
     286 00007f F561          OR #0x0040, port(*AR3) ; |1919| 
         000081 0040 
         000083 9A   
     287                      .dwpsn  file "F:/eZdsp-DBG-sim/tmp1/c55x-sim2/foo/c5535_bsl_revc/ezdsp5535_v1/c55xx_csl/inc/csl_usbAu
     288 000084 7604          MOV #1046, AR1 ; |1921| 
         000086 1698 
     289 000088 D631          ADD *(#_usbRegisters), AR1, AR3 ; |1921| 
         00008a B900 
         00008c 0000-
     290 00008e F561          OR #0x0080, port(*AR3) ; |1921| 
         000090 0080 
         000092 9A   
TMS320C55x Assembler PC v4.4.1 Tue Oct 02 02:33:44 2018

Tools Copyright (c) 1996-2012 Texas Instruments Incorporated
csl_usb.asm                                                          PAGE    7

     291                      .dwpsn  file "F:/eZdsp-DBG-sim/tmp1/c55x-sim2/foo/c5535_bsl_revc/ezdsp5535_v1/c55xx_csl/inc/csl_usbAu
     292 000093 7604          MOV #1042, T0 ; |1924| 
         000095 1248 
     293 000097 AB31          MOV *(#_usbRegisters), AR3 ; |1924| 
         000099 0000 
         00009b 00-  
     294 00009c A96B          MOV port(*AR3(T0)), AR1 ; |1924| 
         00009e 99   
     295              
     296 00009f 1802          AND #0x0002, AR1, AR1 ; |1924| 
         0000a1 99   
     297 0000a2 3D2A  ||      MOV #2, AR2
     298              
     299 0000a4 129C          CMPU AR1 != AR2, TC1 ; |1924| 
         0000a6 A4   
     300 0000a7 0464          BCC $C$L6,TC1 ; |1924| 
         0000a9 12   
     301                                                      ; branchcc occurs ; |1924| 
     302                      .dwpsn  file "F:/eZdsp-DBG-sim/tmp1/c55x-sim2/foo/c5535_bsl_revc/ezdsp5535_v1/c55xx_csl/inc/csl_usbAu
     303 0000aa A96B          MOV port(*AR3(T0)), AR1 ; |1929| 
         0000ac 99   
     304 0000ad C906          MOV AR1, *SP(#3) ; |1929| 
     305                      .dwpsn  file "F:/eZdsp-DBG-sim/tmp1/c55x-sim2/foo/c5535_bsl_revc/ezdsp5535_v1/c55xx_csl/inc/csl_usbAu
     306 0000af F506          OR #0x0008, *SP(#3) ; |1931| 
         0000b1 0008 
     307                      .dwpsn  file "F:/eZdsp-DBG-sim/tmp1/c55x-sim2/foo/c5535_bsl_revc/ezdsp5535_v1/c55xx_csl/inc/csl_usbAu
     308 0000b3 F406          AND #0xfffc, *SP(#3) ; |1932| 
         0000b5 FFFC 
     309                      .dwpsn  file "F:/eZdsp-DBG-sim/tmp1/c55x-sim2/foo/c5535_bsl_revc/ezdsp5535_v1/c55xx_csl/inc/csl_usbAu
     310 0000b7 A906          MOV *SP(#3), AR1 ; |1934| 
     311 0000b9 C96B          MOV AR1, port(*AR3(T0)) ; |1934| 
         0000bb 9A   
     312 0000bc       $C$L6:    
     313                      .dwpsn  file "F:/eZdsp-DBG-sim/tmp1/c55x-sim2/foo/c5535_bsl_revc/ezdsp5535_v1/c55xx_csl/inc/csl_usbAu
     314 0000bc 7604          MOV #1038, AR1 ; |1939| 
         0000be 0E98 
     315 0000c0 D631          ADD *(#_usbRegisters), AR1, AR3 ; |1939| 
         0000c2 B900 
         0000c4 0000-
     316 0000c6 F461          AND #0xfff0, port(*AR3) ; |1939| 
         0000c8 FFF0 
         0000ca 9A   
     317                      .dwpsn  file "F:/eZdsp-DBG-sim/tmp1/c55x-sim2/foo/c5535_bsl_revc/ezdsp5535_v1/c55xx_csl/inc/csl_usbAu
     318 0000cb D631          ADD *(#_usbRegisters), AR1, AR3 ; |1940| 
         0000cd B900 
         0000cf 0000-
     319 0000d1 F561          OR #0x0002, port(*AR3) ; |1940| 
         0000d3 0002 
         0000d5 9A   
     320                      .dwpsn  file "F:/eZdsp-DBG-sim/tmp1/c55x-sim2/foo/c5535_bsl_revc/ezdsp5535_v1/c55xx_csl/inc/csl_usbAu
     321 0000d6 7604          MOV #1042, AR1 ; |1943| 
         0000d8 1298 
     322 0000da D631          ADD *(#_usbRegisters), AR1, AR3 ; |1943| 
         0000dc B900 
         0000de 0000-
TMS320C55x Assembler PC v4.4.1 Tue Oct 02 02:33:44 2018

Tools Copyright (c) 1996-2012 Texas Instruments Incorporated
csl_usb.asm                                                          PAGE    8

     323 0000e0 F561          OR #0x0040, port(*AR3) ; |1943| 
         0000e2 0040 
         0000e4 9A   
     324                      .dwpsn  file "F:/eZdsp-DBG-sim/tmp1/c55x-sim2/foo/c5535_bsl_revc/ezdsp5535_v1/c55xx_csl/inc/csl_usbAu
     325 0000e5 7604          MOV #1046, AR1 ; |1945| 
         0000e7 1698 
     326 0000e9 D631          ADD *(#_usbRegisters), AR1, AR3 ; |1945| 
         0000eb B900 
         0000ed 0000-
     327 0000ef F561          OR #0x0080, port(*AR3) ; |1945| 
         0000f1 0080 
         0000f3 9A   
     328                      .dwpsn  file "F:/eZdsp-DBG-sim/tmp1/c55x-sim2/foo/c5535_bsl_revc/ezdsp5535_v1/c55xx_csl/inc/csl_usbAu
     329 0000f4 AB31          MOV *(#_usbRegisters), AR3 ; |1948| 
         0000f6 0000 
         0000f8 00-  
     330 0000f9 A96B          MOV port(*AR3(T0)), AR1 ; |1948| 
         0000fb 99   
     331 0000fc 1802          AND #0x0002, AR1, AR1 ; |1948| 
         0000fe 99   
     332 0000ff 129C          CMPU AR1 != AR2, TC1 ; |1948| 
         000101 A4   
     333 000102 0464          BCC $C$L7,TC1 ; |1948| 
         000104 12   
     334                                                      ; branchcc occurs ; |1948| 
     335                      .dwpsn  file "F:/eZdsp-DBG-sim/tmp1/c55x-sim2/foo/c5535_bsl_revc/ezdsp5535_v1/c55xx_csl/inc/csl_usbAu
     336 000105 A96B          MOV port(*AR3(T0)), AR1 ; |1953| 
         000107 99   
     337 000108 C906          MOV AR1, *SP(#3) ; |1953| 
     338                      .dwpsn  file "F:/eZdsp-DBG-sim/tmp1/c55x-sim2/foo/c5535_bsl_revc/ezdsp5535_v1/c55xx_csl/inc/csl_usbAu
     339 00010a F506          OR #0x0008, *SP(#3) ; |1955| 
         00010c 0008 
     340                      .dwpsn  file "F:/eZdsp-DBG-sim/tmp1/c55x-sim2/foo/c5535_bsl_revc/ezdsp5535_v1/c55xx_csl/inc/csl_usbAu
     341 00010e F406          AND #0xfffc, *SP(#3) ; |1956| 
         000110 FFFC 
     342                      .dwpsn  file "F:/eZdsp-DBG-sim/tmp1/c55x-sim2/foo/c5535_bsl_revc/ezdsp5535_v1/c55xx_csl/inc/csl_usbAu
     343 000112 A906          MOV *SP(#3), AR1 ; |1958| 
     344 000114 C96B          MOV AR1, port(*AR3(T0)) ; |1958| 
         000116 9A   
     345 000117       $C$L7:    
     346                      .dwpsn  file "F:/eZdsp-DBG-sim/tmp1/c55x-sim2/foo/c5535_bsl_revc/ezdsp5535_v1/c55xx_csl/inc/csl_usbAu
     347 000117 7604          MOV #1038, AR1 ; |1963| 
         000119 0E98 
     348 00011b D631          ADD *(#_usbRegisters), AR1, AR3 ; |1963| 
         00011d B900 
         00011f 0000-
     349 000121 F461          AND #0xfff0, port(*AR3) ; |1963| 
         000123 FFF0 
         000125 9A   
     350                      .dwpsn  file "F:/eZdsp-DBG-sim/tmp1/c55x-sim2/foo/c5535_bsl_revc/ezdsp5535_v1/c55xx_csl/inc/csl_usbAu
     351 000126 D631          ADD *(#_usbRegisters), AR1, AR3 ; |1964| 
         000128 B900 
         00012a 0000-
     352 00012c F561          OR #0x0003, port(*AR3) ; |1964| 
         00012e 0003 
TMS320C55x Assembler PC v4.4.1 Tue Oct 02 02:33:44 2018

Tools Copyright (c) 1996-2012 Texas Instruments Incorporated
csl_usb.asm                                                          PAGE    9

         000130 9A   
     353                      .dwpsn  file "F:/eZdsp-DBG-sim/tmp1/c55x-sim2/foo/c5535_bsl_revc/ezdsp5535_v1/c55xx_csl/inc/csl_usbAu
     354 000131 7604          MOV #1042, AR1 ; |1967| 
         000133 1298 
     355 000135 D631          ADD *(#_usbRegisters), AR1, AR3 ; |1967| 
         000137 B900 
         000139 0000-
     356 00013b F561          OR #0x0040, port(*AR3) ; |1967| 
         00013d 0040 
         00013f 9A   
     357                      .dwpsn  file "F:/eZdsp-DBG-sim/tmp1/c55x-sim2/foo/c5535_bsl_revc/ezdsp5535_v1/c55xx_csl/inc/csl_usbAu
     358 000140 7604          MOV #1046, AR1 ; |1969| 
         000142 1698 
     359 000144 D631          ADD *(#_usbRegisters), AR1, AR3 ; |1969| 
         000146 B900 
         000148 0000-
     360 00014a F561          OR #0x0080, port(*AR3) ; |1969| 
         00014c 0080 
         00014e 9A   
     361                      .dwpsn  file "F:/eZdsp-DBG-sim/tmp1/c55x-sim2/foo/c5535_bsl_revc/ezdsp5535_v1/c55xx_csl/inc/csl_usbAu
     362 00014f AB31          MOV *(#_usbRegisters), AR3 ; |1972| 
         000151 0000 
         000153 00-  
     363 000154 A96B          MOV port(*AR3(T0)), AR1 ; |1972| 
         000156 99   
     364 000157 1802          AND #0x0002, AR1, AR1 ; |1972| 
         000159 99   
     365 00015a 129C          CMPU AR1 != AR2, TC1 ; |1972| 
         00015c A4   
     366 00015d 0464          BCC $C$L8,TC1 ; |1972| 
         00015f 12   
     367                                                      ; branchcc occurs ; |1972| 
     368                      .dwpsn  file "F:/eZdsp-DBG-sim/tmp1/c55x-sim2/foo/c5535_bsl_revc/ezdsp5535_v1/c55xx_csl/inc/csl_usbAu
     369 000160 A96B          MOV port(*AR3(T0)), AR1 ; |1977| 
         000162 99   
     370 000163 C906          MOV AR1, *SP(#3) ; |1977| 
     371                      .dwpsn  file "F:/eZdsp-DBG-sim/tmp1/c55x-sim2/foo/c5535_bsl_revc/ezdsp5535_v1/c55xx_csl/inc/csl_usbAu
     372 000165 F506          OR #0x0008, *SP(#3) ; |1979| 
         000167 0008 
     373                      .dwpsn  file "F:/eZdsp-DBG-sim/tmp1/c55x-sim2/foo/c5535_bsl_revc/ezdsp5535_v1/c55xx_csl/inc/csl_usbAu
     374 000169 F406          AND #0xfffc, *SP(#3) ; |1980| 
         00016b FFFC 
     375                      .dwpsn  file "F:/eZdsp-DBG-sim/tmp1/c55x-sim2/foo/c5535_bsl_revc/ezdsp5535_v1/c55xx_csl/inc/csl_usbAu
     376 00016d A906          MOV *SP(#3), AR1 ; |1982| 
     377 00016f C96B          MOV AR1, port(*AR3(T0)) ; |1982| 
         000171 9A   
     378 000172       $C$L8:    
     379                      .dwpsn  file "F:/eZdsp-DBG-sim/tmp1/c55x-sim2/foo/c5535_bsl_revc/ezdsp5535_v1/c55xx_csl/inc/csl_usbAu
     380 000172 7604          MOV #1038, AR1 ; |1987| 
         000174 0E98 
     381 000176 D631          ADD *(#_usbRegisters), AR1, AR3 ; |1987| 
         000178 B900 
         00017a 0000-
     382 00017c F461          AND #0xfff0, port(*AR3) ; |1987| 
         00017e FFF0 
TMS320C55x Assembler PC v4.4.1 Tue Oct 02 02:33:44 2018

Tools Copyright (c) 1996-2012 Texas Instruments Incorporated
csl_usb.asm                                                          PAGE   10

         000180 9A   
     383                      .dwpsn  file "F:/eZdsp-DBG-sim/tmp1/c55x-sim2/foo/c5535_bsl_revc/ezdsp5535_v1/c55xx_csl/inc/csl_usbAu
     384 000181 D631          ADD *(#_usbRegisters), AR1, AR3 ; |1988| 
         000183 B900 
         000185 0000-
     385 000187 F561          OR #0x0004, port(*AR3) ; |1988| 
         000189 0004 
         00018b 9A   
     386                      .dwpsn  file "F:/eZdsp-DBG-sim/tmp1/c55x-sim2/foo/c5535_bsl_revc/ezdsp5535_v1/c55xx_csl/inc/csl_usbAu
     387 00018c 7604          MOV #1042, AR1 ; |1991| 
         00018e 1298 
     388 000190 D631          ADD *(#_usbRegisters), AR1, AR3 ; |1991| 
         000192 B900 
         000194 0000-
     389 000196 F561          OR #0x0040, port(*AR3) ; |1991| 
         000198 0040 
         00019a 9A   
     390                      .dwpsn  file "F:/eZdsp-DBG-sim/tmp1/c55x-sim2/foo/c5535_bsl_revc/ezdsp5535_v1/c55xx_csl/inc/csl_usbAu
     391 00019b 7604          MOV #1046, AR1 ; |1993| 
         00019d 1698 
     392 00019f D631          ADD *(#_usbRegisters), AR1, AR3 ; |1993| 
         0001a1 B900 
         0001a3 0000-
     393 0001a5 F561          OR #0x0080, port(*AR3) ; |1993| 
         0001a7 0080 
         0001a9 9A   
     394                      .dwpsn  file "F:/eZdsp-DBG-sim/tmp1/c55x-sim2/foo/c5535_bsl_revc/ezdsp5535_v1/c55xx_csl/inc/csl_usbAu
     395 0001aa AB31          MOV *(#_usbRegisters), AR3 ; |1996| 
         0001ac 0000 
         0001ae 00-  
     396 0001af A96B          MOV port(*AR3(T0)), AR1 ; |1996| 
         0001b1 99   
     397 0001b2 1802          AND #0x0002, AR1, AR1 ; |1996| 
         0001b4 99   
     398 0001b5 129C          CMPU AR1 != AR2, TC1 ; |1996| 
         0001b7 A4   
     399 0001b8 0464          BCC $C$L9,TC1 ; |1996| 
         0001ba 12   
     400                                                      ; branchcc occurs ; |1996| 
     401                      .dwpsn  file "F:/eZdsp-DBG-sim/tmp1/c55x-sim2/foo/c5535_bsl_revc/ezdsp5535_v1/c55xx_csl/inc/csl_usbAu
     402 0001bb A96B          MOV port(*AR3(T0)), AR1 ; |2001| 
         0001bd 99   
     403 0001be C906          MOV AR1, *SP(#3) ; |2001| 
     404                      .dwpsn  file "F:/eZdsp-DBG-sim/tmp1/c55x-sim2/foo/c5535_bsl_revc/ezdsp5535_v1/c55xx_csl/inc/csl_usbAu
     405 0001c0 F506          OR #0x0008, *SP(#3) ; |2003| 
         0001c2 0008 
     406                      .dwpsn  file "F:/eZdsp-DBG-sim/tmp1/c55x-sim2/foo/c5535_bsl_revc/ezdsp5535_v1/c55xx_csl/inc/csl_usbAu
     407 0001c4 F406          AND #0xfffc, *SP(#3) ; |2004| 
         0001c6 FFFC 
     408                      .dwpsn  file "F:/eZdsp-DBG-sim/tmp1/c55x-sim2/foo/c5535_bsl_revc/ezdsp5535_v1/c55xx_csl/inc/csl_usbAu
     409 0001c8 A906          MOV *SP(#3), AR1 ; |2006| 
     410 0001ca C96B          MOV AR1, port(*AR3(T0)) ; |2006| 
         0001cc 9A   
     411 0001cd       $C$L9:    
     412                      .dwpsn  file "F:/eZdsp-DBG-sim/tmp1/c55x-sim2/foo/c5535_bsl_revc/ezdsp5535_v1/c55xx_csl/inc/csl_usbAu
TMS320C55x Assembler PC v4.4.1 Tue Oct 02 02:33:44 2018

Tools Copyright (c) 1996-2012 Texas Instruments Incorporated
csl_usb.asm                                                          PAGE   11

     413 0001cd AB31          MOV *(#_usbRegisters), AR3 ; |2010| 
         0001cf 0000 
         0001d1 00-  
     414 0001d2 7604          MOV #1038, T0 ; |2010| 
         0001d4 0E48 
     415 0001d6 A904          MOV *SP(#2), AR1 ; |2010| 
     416 0001d8 C96B          MOV AR1, port(*AR3(T0)) ; |2010| 
         0001da 9A   
     417                      .dwpsn  file "F:/eZdsp-DBG-sim/tmp1/c55x-sim2/foo/c5535_bsl_revc/ezdsp5535_v1/c55xx_csl/inc/csl_usbAu
     418 0001db 4E05          AADD #5, SP
     419                      .dwcfi  cfa_offset, 1
     420              $C$DW$26        .dwtag  DW_TAG_TI_branch
     421                      .dwattr $C$DW$26, DW_AT_low_pc(0x00)
     422                      .dwattr $C$DW$26, DW_AT_TI_return
     423 0001dd 4804          RET
     424                                                      ; return occurs
     425                      .dwattr $C$DW$19, DW_AT_TI_end_file("F:/eZdsp-DBG-sim/tmp1/c55x-sim2/foo/c5535_bsl_revc/ezdsp5535_v1/
     426                      .dwattr $C$DW$19, DW_AT_TI_end_line(0x7db)
     427                      .dwattr $C$DW$19, DW_AT_TI_end_column(0x01)
     428                      .dwendentry
     429                      .dwendtag $C$DW$19
     430              
     431 0001df               .sect   ".text"
     432                      .align 4
     433              
     434              $C$DW$27        .dwtag  DW_TAG_subprogram, DW_AT_name("USB_sendEpZLP")
     435                      .dwattr $C$DW$27, DW_AT_low_pc(_USB_sendEpZLP)
     436                      .dwattr $C$DW$27, DW_AT_high_pc(0x00)
     437                      .dwattr $C$DW$27, DW_AT_TI_symbol_name("_USB_sendEpZLP")
     438                      .dwattr $C$DW$27, DW_AT_TI_begin_file("F:/eZdsp-DBG-sim/tmp1/c55x-sim2/foo/c5535_bsl_revc/ezdsp5535_v
     439                      .dwattr $C$DW$27, DW_AT_TI_begin_line(0x8b2)
     440                      .dwattr $C$DW$27, DW_AT_TI_begin_column(0x06)
     441                      .dwattr $C$DW$27, DW_AT_TI_max_frame_size(0x04)
     442                      .dwpsn  file "F:/eZdsp-DBG-sim/tmp1/c55x-sim2/foo/c5535_bsl_revc/ezdsp5535_v1/c55xx_csl/inc/csl_usbAu
     443              
     444                      .dwfde $C$DW$CIE, _USB_sendEpZLP
     445              $C$DW$28        .dwtag  DW_TAG_formal_parameter, DW_AT_name("dwEndpoint")
     446                      .dwattr $C$DW$28, DW_AT_TI_symbol_name("_dwEndpoint")
     447                      .dwattr $C$DW$28, DW_AT_type(*$C$DW$T$84)
     448                      .dwattr $C$DW$28, DW_AT_location[DW_OP_reg0]
     449              ;*******************************************************************************
     450              ;* FUNCTION NAME: USB_sendEpZLP                                                *
     451              ;*                                                                             *
     452              ;*   Function Uses Regs : AC0,AC0,T0,AR1,AR3,SP,CARRY,M40,SATA,SATD,RDM,FRCT,  *
     453              ;*                        SMUL                                                 *
     454              ;*   Stack Frame        : Compact (No Frame Pointer, w/ debug)                 *
     455              ;*   Total Frame Size   : 4 words                                              *
     456              ;*                        (1 return address/alignment)                         *
     457              ;*                        (3 local values)                                     *
     458              ;*   Min System Stack   : 1 word                                               *
     459              ;*******************************************************************************
     460 0001e0       _USB_sendEpZLP:
     461                      .dwcfi  cfa_offset, 1
     462                      .dwcfi  save_reg_to_mem, 91, -1
     463 0001e0 4EFD          AADD #-3, SP
TMS320C55x Assembler PC v4.4.1 Tue Oct 02 02:33:44 2018

Tools Copyright (c) 1996-2012 Texas Instruments Incorporated
csl_usb.asm                                                          PAGE   12

     464                      .dwcfi  cfa_offset, 4
     465              $C$DW$29        .dwtag  DW_TAG_variable, DW_AT_name("dwEndpoint")
     466                      .dwattr $C$DW$29, DW_AT_TI_symbol_name("_dwEndpoint")
     467                      .dwattr $C$DW$29, DW_AT_type(*$C$DW$T$84)
     468                      .dwattr $C$DW$29, DW_AT_location[DW_OP_bregx 0x24 0]
     469              $C$DW$30        .dwtag  DW_TAG_variable, DW_AT_name("saveIndex")
     470                      .dwattr $C$DW$30, DW_AT_TI_symbol_name("_saveIndex")
     471                      .dwattr $C$DW$30, DW_AT_type(*$C$DW$T$19)
     472                      .dwattr $C$DW$30, DW_AT_location[DW_OP_bregx 0x24 2]
     473 0001e2 EB00          MOV AC0, dbl(*SP(#0)) ; |2227| 
         0001e4 08   
     474                      .dwpsn  file "F:/eZdsp-DBG-sim/tmp1/c55x-sim2/foo/c5535_bsl_revc/ezdsp5535_v1/c55xx_csl/inc/csl_usbAu
     475 0001e5 7604          MOV #1038, T0 ; |2231| 
         0001e7 0E48 
     476 0001e9 AB31          MOV *(#_usbRegisters), AR3 ; |2231| 
         0001eb 0000 
         0001ed 00-  
     477 0001ee A96B          MOV port(*AR3(T0)), AR1 ; |2231| 
         0001f0 99   
     478 0001f1 C904          MOV AR1, *SP(#2) ; |2231| 
     479                      .dwpsn  file "F:/eZdsp-DBG-sim/tmp1/c55x-sim2/foo/c5535_bsl_revc/ezdsp5535_v1/c55xx_csl/inc/csl_usbAu
     480 0001f3 7604          MOV #1038, AR1 ; |2234| 
         0001f5 0E98 
     481 0001f7 D631          ADD *(#_usbRegisters), AR1, AR3 ; |2234| 
         0001f9 B900 
         0001fb 0000-
     482 0001fd F461          AND #0xfff0, port(*AR3) ; |2234| 
         0001ff FFF0 
         000201 9A   
     483                      .dwpsn  file "F:/eZdsp-DBG-sim/tmp1/c55x-sim2/foo/c5535_bsl_revc/ezdsp5535_v1/c55xx_csl/inc/csl_usbAu
     484 000202 D631          ADD *(#_usbRegisters), AR1, AR3 ; |2235| 
         000204 B900 
         000206 0000-
     485 000208 ED00          MOV dbl(*SP(#0)), AC0 ; |2235| 
         00020a 08   
     486 00020b DA61          OR port(*AR3), AC0, AC0 ; |2235| 
         00020d 00   
         00020e 99   
     487 00020f C061          MOV AC0, port(*AR3) ; |2235| 
         000211 9A   
     488                      .dwpsn  file "F:/eZdsp-DBG-sim/tmp1/c55x-sim2/foo/c5535_bsl_revc/ezdsp5535_v1/c55xx_csl/inc/csl_usbAu
     489 000212 7604          MOV #1042, T0 ; |2238| 
         000214 1248 
     490 000216 AB31          MOV *(#_usbRegisters), AR3 ; |2238| 
         000218 0000 
         00021a 00-  
     491 00021b A96B          MOV port(*AR3(T0)), AR1 ; |2238| 
         00021d 99   
     492 00021e EC02          BCLR @#1, AR1 ; |2238| 
         000220 92   
     493 000221 EC02          BSET @#1, AR1 ; |2238| 
         000223 90   
     494 000224 C96B          MOV AR1, port(*AR3(T0)) ; |2238| 
         000226 9A   
     495                      .dwpsn  file "F:/eZdsp-DBG-sim/tmp1/c55x-sim2/foo/c5535_bsl_revc/ezdsp5535_v1/c55xx_csl/inc/csl_usbAu
TMS320C55x Assembler PC v4.4.1 Tue Oct 02 02:33:44 2018

Tools Copyright (c) 1996-2012 Texas Instruments Incorporated
csl_usb.asm                                                          PAGE   13

     496 000227 AB31          MOV *(#_usbRegisters), AR3 ; |2240| 
         000229 0000 
         00022b 00-  
     497 00022c A96B          MOV port(*AR3(T0)), AR1 ; |2240| 
         00022e 99   
     498 00022f EC06          BCLR @#3, AR1 ; |2240| 
         000231 92   
     499 000232 EC06          BSET @#3, AR1 ; |2240| 
         000234 90   
     500 000235 C96B          MOV AR1, port(*AR3(T0)) ; |2240| 
         000237 9A   
     501                      .dwpsn  file "F:/eZdsp-DBG-sim/tmp1/c55x-sim2/foo/c5535_bsl_revc/ezdsp5535_v1/c55xx_csl/inc/csl_usbAu
     502 000238 7604          MOV #1038, T0 ; |2244| 
         00023a 0E48 
     503 00023c AB31          MOV *(#_usbRegisters), AR3 ; |2244| 
         00023e 0000 
         000240 00-  
     504 000241 A904          MOV *SP(#2), AR1 ; |2244| 
     505 000243 C96B          MOV AR1, port(*AR3(T0)) ; |2244| 
         000245 9A   
     506                      .dwpsn  file "F:/eZdsp-DBG-sim/tmp1/c55x-sim2/foo/c5535_bsl_revc/ezdsp5535_v1/c55xx_csl/inc/csl_usbAu
     507 000246 4E03          AADD #3, SP
     508                      .dwcfi  cfa_offset, 1
     509              $C$DW$31        .dwtag  DW_TAG_TI_branch
     510                      .dwattr $C$DW$31, DW_AT_low_pc(0x00)
     511                      .dwattr $C$DW$31, DW_AT_TI_return
     512 000248 4804          RET
     513                                                      ; return occurs
     514                      .dwattr $C$DW$27, DW_AT_TI_end_file("F:/eZdsp-DBG-sim/tmp1/c55x-sim2/foo/c5535_bsl_revc/ezdsp5535_v1/
     515                      .dwattr $C$DW$27, DW_AT_TI_end_line(0x8c5)
     516                      .dwattr $C$DW$27, DW_AT_TI_end_column(0x01)
     517                      .dwendentry
     518                      .dwendtag $C$DW$27
     519              
     520 00024a               .sect   ".text"
     521                      .align 4
     522              
     523              $C$DW$32        .dwtag  DW_TAG_subprogram, DW_AT_name("USB_clearEpRxPktRdy")
     524                      .dwattr $C$DW$32, DW_AT_low_pc(_USB_clearEpRxPktRdy)
     525                      .dwattr $C$DW$32, DW_AT_high_pc(0x00)
     526                      .dwattr $C$DW$32, DW_AT_TI_symbol_name("_USB_clearEpRxPktRdy")
     527                      .dwattr $C$DW$32, DW_AT_TI_begin_file("F:/eZdsp-DBG-sim/tmp1/c55x-sim2/foo/c5535_bsl_revc/ezdsp5535_v
     528                      .dwattr $C$DW$32, DW_AT_TI_begin_line(0x8c8)
     529                      .dwattr $C$DW$32, DW_AT_TI_begin_column(0x06)
     530                      .dwattr $C$DW$32, DW_AT_TI_max_frame_size(0x04)
     531                      .dwpsn  file "F:/eZdsp-DBG-sim/tmp1/c55x-sim2/foo/c5535_bsl_revc/ezdsp5535_v1/c55xx_csl/inc/csl_usbAu
     532              
     533                      .dwfde $C$DW$CIE, _USB_clearEpRxPktRdy
     534              $C$DW$33        .dwtag  DW_TAG_formal_parameter, DW_AT_name("dwEndpoint")
     535                      .dwattr $C$DW$33, DW_AT_TI_symbol_name("_dwEndpoint")
     536                      .dwattr $C$DW$33, DW_AT_type(*$C$DW$T$84)
     537                      .dwattr $C$DW$33, DW_AT_location[DW_OP_reg0]
     538              ;*******************************************************************************
     539              ;* FUNCTION NAME: USB_clearEpRxPktRdy                                          *
     540              ;*                                                                             *
TMS320C55x Assembler PC v4.4.1 Tue Oct 02 02:33:44 2018

Tools Copyright (c) 1996-2012 Texas Instruments Incorporated
csl_usb.asm                                                          PAGE   14

     541              ;*   Function Uses Regs : AC0,AC0,T0,AR1,AR3,SP,CARRY,M40,SATA,SATD,RDM,FRCT,  *
     542              ;*                        SMUL                                                 *
     543              ;*   Stack Frame        : Compact (No Frame Pointer, w/ debug)                 *
     544              ;*   Total Frame Size   : 4 words                                              *
     545              ;*                        (1 return address/alignment)                         *
     546              ;*                        (3 local values)                                     *
     547              ;*   Min System Stack   : 1 word                                               *
     548              ;*******************************************************************************
     549 00024c       _USB_clearEpRxPktRdy:
     550                      .dwcfi  cfa_offset, 1
     551                      .dwcfi  save_reg_to_mem, 91, -1
     552 00024c 4EFD          AADD #-3, SP
     553                      .dwcfi  cfa_offset, 4
     554              $C$DW$34        .dwtag  DW_TAG_variable, DW_AT_name("dwEndpoint")
     555                      .dwattr $C$DW$34, DW_AT_TI_symbol_name("_dwEndpoint")
     556                      .dwattr $C$DW$34, DW_AT_type(*$C$DW$T$84)
     557                      .dwattr $C$DW$34, DW_AT_location[DW_OP_bregx 0x24 0]
     558              $C$DW$35        .dwtag  DW_TAG_variable, DW_AT_name("saveIndex")
     559                      .dwattr $C$DW$35, DW_AT_TI_symbol_name("_saveIndex")
     560                      .dwattr $C$DW$35, DW_AT_type(*$C$DW$T$19)
     561                      .dwattr $C$DW$35, DW_AT_location[DW_OP_bregx 0x24 2]
     562 00024e EB00          MOV AC0, dbl(*SP(#0)) ; |2249| 
         000250 08   
     563                      .dwpsn  file "F:/eZdsp-DBG-sim/tmp1/c55x-sim2/foo/c5535_bsl_revc/ezdsp5535_v1/c55xx_csl/inc/csl_usbAu
     564 000251 7604          MOV #1038, T0 ; |2253| 
         000253 0E48 
     565 000255 AB31          MOV *(#_usbRegisters), AR3 ; |2253| 
         000257 0000 
         000259 00-  
     566 00025a A96B          MOV port(*AR3(T0)), AR1 ; |2253| 
         00025c 99   
     567 00025d C904          MOV AR1, *SP(#2) ; |2253| 
     568                      .dwpsn  file "F:/eZdsp-DBG-sim/tmp1/c55x-sim2/foo/c5535_bsl_revc/ezdsp5535_v1/c55xx_csl/inc/csl_usbAu
     569 00025f 7604          MOV #1038, AR1 ; |2256| 
         000261 0E98 
     570 000263 D631          ADD *(#_usbRegisters), AR1, AR3 ; |2256| 
         000265 B900 
         000267 0000-
     571 000269 F461          AND #0xfff0, port(*AR3) ; |2256| 
         00026b FFF0 
         00026d 9A   
     572                      .dwpsn  file "F:/eZdsp-DBG-sim/tmp1/c55x-sim2/foo/c5535_bsl_revc/ezdsp5535_v1/c55xx_csl/inc/csl_usbAu
     573 00026e D631          ADD *(#_usbRegisters), AR1, AR3 ; |2257| 
         000270 B900 
         000272 0000-
     574 000274 ED00          MOV dbl(*SP(#0)), AC0 ; |2257| 
         000276 08   
     575 000277 DA61          OR port(*AR3), AC0, AC0 ; |2257| 
         000279 00   
         00027a 99   
     576 00027b C061          MOV AC0, port(*AR3) ; |2257| 
         00027d 9A   
     577                      .dwpsn  file "F:/eZdsp-DBG-sim/tmp1/c55x-sim2/foo/c5535_bsl_revc/ezdsp5535_v1/c55xx_csl/inc/csl_usbAu
     578 00027e 7604          MOV #1042, T0 ; |2260| 
         000280 1248 
TMS320C55x Assembler PC v4.4.1 Tue Oct 02 02:33:44 2018

Tools Copyright (c) 1996-2012 Texas Instruments Incorporated
csl_usb.asm                                                          PAGE   15

     579 000282 AB31          MOV *(#_usbRegisters), AR3 ; |2260| 
         000284 0000 
         000286 00-  
     580 000287 A96B          MOV port(*AR3(T0)), AR1 ; |2260| 
         000289 99   
     581 00028a EC0C          BCLR @#6, AR1 ; |2260| 
         00028c 92   
     582 00028d EC0C          BSET @#6, AR1 ; |2260| 
         00028f 90   
     583 000290 C96B          MOV AR1, port(*AR3(T0)) ; |2260| 
         000292 9A   
     584                      .dwpsn  file "F:/eZdsp-DBG-sim/tmp1/c55x-sim2/foo/c5535_bsl_revc/ezdsp5535_v1/c55xx_csl/inc/csl_usbAu
     585 000293 AB31          MOV *(#_usbRegisters), AR3 ; |2262| 
         000295 0000 
         000297 00-  
     586 000298 A96B          MOV port(*AR3(T0)), AR1 ; |2262| 
         00029a 99   
     587 00029b EC06          BCLR @#3, AR1 ; |2262| 
         00029d 92   
     588 00029e EC06          BSET @#3, AR1 ; |2262| 
         0002a0 90   
     589 0002a1 C96B          MOV AR1, port(*AR3(T0)) ; |2262| 
         0002a3 9A   
     590                      .dwpsn  file "F:/eZdsp-DBG-sim/tmp1/c55x-sim2/foo/c5535_bsl_revc/ezdsp5535_v1/c55xx_csl/inc/csl_usbAu
     591 0002a4 7604          MOV #1038, T0 ; |2266| 
         0002a6 0E48 
     592 0002a8 AB31          MOV *(#_usbRegisters), AR3 ; |2266| 
         0002aa 0000 
         0002ac 00-  
     593 0002ad A904          MOV *SP(#2), AR1 ; |2266| 
     594 0002af C96B          MOV AR1, port(*AR3(T0)) ; |2266| 
         0002b1 9A   
     595                      .dwpsn  file "F:/eZdsp-DBG-sim/tmp1/c55x-sim2/foo/c5535_bsl_revc/ezdsp5535_v1/c55xx_csl/inc/csl_usbAu
     596 0002b2 4E03          AADD #3, SP
     597                      .dwcfi  cfa_offset, 1
     598              $C$DW$36        .dwtag  DW_TAG_TI_branch
     599                      .dwattr $C$DW$36, DW_AT_low_pc(0x00)
     600                      .dwattr $C$DW$36, DW_AT_TI_return
     601 0002b4 4804          RET
     602                                                      ; return occurs
     603                      .dwattr $C$DW$32, DW_AT_TI_end_file("F:/eZdsp-DBG-sim/tmp1/c55x-sim2/foo/c5535_bsl_revc/ezdsp5535_v1/
     604                      .dwattr $C$DW$32, DW_AT_TI_end_line(0x8db)
     605                      .dwattr $C$DW$32, DW_AT_TI_end_column(0x01)
     606                      .dwendentry
     607                      .dwendtag $C$DW$32
     608              
     609 0002b6               .sect   ".text"
     610                      .align 4
     611                      .global _USB_init
     612              
     613              $C$DW$37        .dwtag  DW_TAG_subprogram, DW_AT_name("USB_init")
     614                      .dwattr $C$DW$37, DW_AT_low_pc(_USB_init)
     615                      .dwattr $C$DW$37, DW_AT_high_pc(0x00)
     616                      .dwattr $C$DW$37, DW_AT_TI_symbol_name("_USB_init")
     617                      .dwattr $C$DW$37, DW_AT_external
TMS320C55x Assembler PC v4.4.1 Tue Oct 02 02:33:44 2018

Tools Copyright (c) 1996-2012 Texas Instruments Incorporated
csl_usb.asm                                                          PAGE   16

     618                      .dwattr $C$DW$37, DW_AT_type(*$C$DW$T$75)
     619                      .dwattr $C$DW$37, DW_AT_TI_begin_file("../c5535_bsl_revc/ezdsp5535_v1/c55xx_csl/src/csl_usb.c")
     620                      .dwattr $C$DW$37, DW_AT_TI_begin_line(0x4e)
     621                      .dwattr $C$DW$37, DW_AT_TI_begin_column(0x0c)
     622                      .dwattr $C$DW$37, DW_AT_TI_max_frame_size(0x0e)
     623                      .dwpsn  file "../c5535_bsl_revc/ezdsp5535_v1/c55xx_csl/src/csl_usb.c",line 79,column 1,is_stmt,addres
     624              
     625                      .dwfde $C$DW$CIE, _USB_init
     626              $C$DW$38        .dwtag  DW_TAG_formal_parameter, DW_AT_name("usbConfig")
     627                      .dwattr $C$DW$38, DW_AT_TI_symbol_name("_usbConfig")
     628                      .dwattr $C$DW$38, DW_AT_type(*$C$DW$T$139)
     629                      .dwattr $C$DW$38, DW_AT_location[DW_OP_reg17]
     630              ;*******************************************************************************
     631              ;* FUNCTION NAME: USB_init                                                     *
     632              ;*                                                                             *
     633              ;*   Function Uses Regs : AC0,AC0,AC1,AC1,T0,AR0,XAR0,AR1,XAR1,AR2,XAR2,AR3,   *
     634              ;*                        XAR3,SP,CARRY,TC1,M40,SATA,SATD,RDM,FRCT,SMUL        *
     635              ;*   Stack Frame        : Compact (No Frame Pointer, w/ debug)                 *
     636              ;*   Total Frame Size   : 14 words                                             *
     637              ;*                        (2 return address/alignment)                         *
     638              ;*                        (12 local values)                                    *
     639              ;*   Min System Stack   : 1 word                                               *
     640              ;*******************************************************************************
     641 0002b8       _USB_init:
     642                      .dwcfi  cfa_offset, 1
     643                      .dwcfi  save_reg_to_mem, 91, -1
     644 0002b8 4EF3          AADD #-13, SP
     645                      .dwcfi  cfa_offset, 14
     646              $C$DW$39        .dwtag  DW_TAG_variable, DW_AT_name("usbConfig")
     647                      .dwattr $C$DW$39, DW_AT_TI_symbol_name("_usbConfig")
     648                      .dwattr $C$DW$39, DW_AT_type(*$C$DW$T$139)
     649                      .dwattr $C$DW$39, DW_AT_location[DW_OP_bregx 0x24 0]
     650              $C$DW$40        .dwtag  DW_TAG_variable, DW_AT_name("pContext")
     651                      .dwattr $C$DW$40, DW_AT_TI_symbol_name("_pContext")
     652                      .dwattr $C$DW$40, DW_AT_type(*$C$DW$T$142)
     653                      .dwattr $C$DW$40, DW_AT_location[DW_OP_bregx 0x24 2]
     654              $C$DW$41        .dwtag  DW_TAG_variable, DW_AT_name("status")
     655                      .dwattr $C$DW$41, DW_AT_TI_symbol_name("_status")
     656                      .dwattr $C$DW$41, DW_AT_type(*$C$DW$T$75)
     657                      .dwattr $C$DW$41, DW_AT_location[DW_OP_bregx 0x24 4]
     658              $C$DW$42        .dwtag  DW_TAG_variable, DW_AT_name("peps")
     659                      .dwattr $C$DW$42, DW_AT_TI_symbol_name("_peps")
     660                      .dwattr $C$DW$42, DW_AT_type(*$C$DW$T$147)
     661                      .dwattr $C$DW$42, DW_AT_location[DW_OP_bregx 0x24 6]
     662              $C$DW$43        .dwtag  DW_TAG_variable, DW_AT_name("dwEndpoint")
     663                      .dwattr $C$DW$43, DW_AT_TI_symbol_name("_dwEndpoint")
     664                      .dwattr $C$DW$43, DW_AT_type(*$C$DW$T$84)
     665                      .dwattr $C$DW$43, DW_AT_location[DW_OP_bregx 0x24 8]
     666              $C$DW$44        .dwtag  DW_TAG_variable, DW_AT_name("looper")
     667                      .dwattr $C$DW$44, DW_AT_TI_symbol_name("_looper")
     668                      .dwattr $C$DW$44, DW_AT_type(*$C$DW$T$193)
     669                      .dwattr $C$DW$44, DW_AT_location[DW_OP_bregx 0x24 10]
     670 0002ba EB00          MOV XAR0, dbl(*SP(#0))
         0002bc 85   
     671                      .dwpsn  file "../c5535_bsl_revc/ezdsp5535_v1/c55xx_csl/src/csl_usb.c",line 88,column 4,is_stmt
TMS320C55x Assembler PC v4.4.1 Tue Oct 02 02:33:44 2018

Tools Copyright (c) 1996-2012 Texas Instruments Incorporated
csl_usb.asm                                                          PAGE   17

     672 0002bd E651          MOV #1, *port(#28676) ; |88| 
         0002bf 0170 
         0002c1 04   
     673                      .dwpsn  file "../c5535_bsl_revc/ezdsp5535_v1/c55xx_csl/src/csl_usb.c",line 91,column 2,is_stmt
     674 0002c2 EC31          AMOV #_gUsbContext, XAR3 ; |91| 
         0002c4 BE00 
         0002c6 0002-
     675 0002c8 EB04          MOV XAR3, dbl(*SP(#2))
         0002ca B5   
     676                      .dwpsn  file "../c5535_bsl_revc/ezdsp5535_v1/c55xx_csl/src/csl_usb.c",line 92,column 2,is_stmt
     677 0002cb E608          MOV #-6, *SP(#4) ; |92| 
         0002cd FA   
     678                      .dwpsn  file "../c5535_bsl_revc/ezdsp5535_v1/c55xx_csl/src/csl_usb.c",line 94,column 2,is_stmt
     679 0002ce ED00          MOV dbl(*SP(#0)), XAR3
         0002d0 BF   
     680 0002d1 90B0          MOV XAR3, AC0
     681 0002d3 6310          BCC $C$L10,AC0 != #0 ; |94| 
     682                                                      ; branchcc occurs ; |94| 
     683 0002d5 A961          MOV *AR3, AR1 ; |94| 
     684 0002d7 6D19          BCC $C$L30,AR1 != #0 ; |94| 
         0002d9 0400 
     685                                                      ; branchcc occurs ; |94| 
     686 0002db       $C$L10:    
     687                      .dwpsn  file "../c5535_bsl_revc/ezdsp5535_v1/c55xx_csl/src/csl_usb.c",line 96,column 3,is_stmt
     688 0002db A973          MOV *AR3(short(#1)), AR1 ; |96| 
     689 0002dd 6709          BCC $C$L11,AR1 == #0 ; |96| 
     690                                                      ; branchcc occurs ; |96| 
     691 0002df F073          CMP *AR3(short(#1)) == #1, TC1 ; |96| 
         0002e1 0001 
     692 0002e3 6464          BCC $C$L11,TC1 ; |96| 
     693                                                      ; branchcc occurs ; |96| 
     694 0002e5 F073          CMP *AR3(short(#1)) == #2, TC1 ; |96| 
         0002e7 0002 
     695 0002e9 6D74          BCC $C$L30,!TC1 ; |96| 
         0002eb 03EE 
     696                                                      ; branchcc occurs ; |96| 
     697 0002ed       $C$L11:    
     698                      .dwpsn  file "../c5535_bsl_revc/ezdsp5535_v1/c55xx_csl/src/csl_usb.c",line 100,column 4,is_stmt
     699 0002ed FB31          MOV #7168, *(#_sysCtrlRegs) ; |100| 
         0002ef 1C00 
         0002f1 0000 
         0002f3 01-  
     700                      .dwpsn  file "../c5535_bsl_revc/ezdsp5535_v1/c55xx_csl/src/csl_usb.c",line 103,column 4,is_stmt
     701 0002f4 AB31          MOV *(#_sysCtrlRegs), AR3 ; |103| 
         0002f6 0000 
         0002f8 01-  
     702 0002f9 3C00          MOV #0, AC0 ; |103| 
     703 0002fb EC0A          BSET @#5, AC0 ; |103| 
         0002fd 00   
     704 0002fe A979          MOV port(*AR3(short(#4))), AR1 ; |103| 
         000300 99   
     705 000301 C079          MOV AC0, port(*AR3(short(#4))) ; |103| 
         000303 9A   
     706                      .dwpsn  file "../c5535_bsl_revc/ezdsp5535_v1/c55xx_csl/src/csl_usb.c",line 106,column 4,is_stmt
     707 000304 AB31          MOV *(#_sysCtrlRegs), AR3 ; |106| 
TMS320C55x Assembler PC v4.4.1 Tue Oct 02 02:33:44 2018

Tools Copyright (c) 1996-2012 Texas Instruments Incorporated
csl_usb.asm                                                          PAGE   18

         000306 0000 
         000308 01-  
     708 000309 A97B          MOV port(*AR3(short(#5))), AR1 ; |106| 
         00030b 99   
     709 00030c EC06          BCLR @#3, AR1 ; |106| 
         00030e 92   
     710 00030f EC06          BSET @#3, AR1 ; |106| 
         000311 90   
     711 000312 C97B          MOV AR1, port(*AR3(short(#5))) ; |106| 
         000314 9A   
     712                      .dwpsn  file "../c5535_bsl_revc/ezdsp5535_v1/c55xx_csl/src/csl_usb.c",line 109,column 8,is_stmt
     713 000315 3C00          MOV #0, AC0 ; |109| 
     714 000317 EB14          MOV AC0, dbl(*SP(#10)) ; |109| 
         000319 08   
     715 00031a 20            NOP
     716 00031b 20            NOP
     717                      .dwpsn  file "../c5535_bsl_revc/ezdsp5535_v1/c55xx_csl/src/csl_usb.c",line 109,column 20,is_stmt
     718 00031c 7600          MOV #255, AC0 ; |109| 
         00031e FF08 
     719 000320 ED14          MOV dbl(*SP(#10)), AC1 ; |109| 
         000322 18   
     720 000323 1218          CMPU AC1 >= AC0, TC1 ; |109| 
         000325 04   
     721 000326 0464          BCC $C$L13,TC1 ; |109| 
         000328 17   
     722                                                      ; branchcc occurs ; |109| 
     723 000329       $C$L12:    
     724 000329       $C$DW$L$_USB_init$7$B:
     725                      .dwpsn  file "../c5535_bsl_revc/ezdsp5535_v1/c55xx_csl/src/csl_usb.c",line 109,column 44,is_stmt
     726 000329 ED14          MOV dbl(*SP(#10)), AC0 ; |109| 
         00032b 08   
     727 00032c 4010          ADD #1, AC0 ; |109| 
     728 00032e EB14          MOV AC0, dbl(*SP(#10)) ; |109| 
         000330 08   
     729 000331 20            NOP
     730 000332 20            NOP
     731                      .dwpsn  file "../c5535_bsl_revc/ezdsp5535_v1/c55xx_csl/src/csl_usb.c",line 109,column 20,is_stmt
     732 000333 7600          MOV #255, AC0 ; |109| 
         000335 FF08 
     733 000337 ED14          MOV dbl(*SP(#10)), AC1 ; |109| 
         000339 18   
     734 00033a 1214          CMPU AC1 < AC0, TC1 ; |109| 
         00033c 04   
     735 00033d 0464          BCC $C$L12,TC1 ; |109| 
         00033f E9   
     736                                                      ; branchcc occurs ; |109| 
     737 000340       $C$DW$L$_USB_init$7$E:
     738 000340       $C$L13:    
     739                      .dwpsn  file "../c5535_bsl_revc/ezdsp5535_v1/c55xx_csl/src/csl_usb.c",line 112,column 4,is_stmt
     740 000340 AB31          MOV *(#_sysCtrlRegs), AR3 ; |112| 
         000342 0000 
         000344 01-  
     741 000345 A977          MOV port(*AR3(short(#3))), AR1 ; |112| 
         000347 99   
     742 000348 EC04          BCLR @#2, AR1 ; |112| 
TMS320C55x Assembler PC v4.4.1 Tue Oct 02 02:33:44 2018

Tools Copyright (c) 1996-2012 Texas Instruments Incorporated
csl_usb.asm                                                          PAGE   19

         00034a 92   
     743 00034b C977          MOV AR1, port(*AR3(short(#3))) ; |112| 
         00034d 9A   
     744                      .dwpsn  file "../c5535_bsl_revc/ezdsp5535_v1/c55xx_csl/src/csl_usb.c",line 115,column 4,is_stmt
     745 00034e FB31          MOV #32768, *(#_usbRegisters) ; |115| 
         000350 8000 
         000352 0000 
         000354 00-  
     746                      .dwpsn  file "../c5535_bsl_revc/ezdsp5535_v1/c55xx_csl/src/csl_usb.c",line 117,column 4,is_stmt
     747 000355 7600          MOV #50, T0 ; |117| 
         000357 3248 
     748 000359 AB31          MOV *(#_sysCtrlRegs), AR3 ; |117| 
         00035b 0000 
         00035d 01-  
     749 00035e FB6B          MOV #24640, port(*AR3(T0)) ; |117| 
         000360 6040 
         000362 9A   
     750                      .dwpsn  file "../c5535_bsl_revc/ezdsp5535_v1/c55xx_csl/src/csl_usb.c",line 120,column 4,is_stmt
     751 000363 7600          MOV #58, T0 ; |120| 
         000365 3A48 
     752 000367 AB31          MOV *(#_sysCtrlRegs), AR3 ; |120| 
         000369 0000 
         00036b 01-  
     753 00036c E66B          MOV #0, port(*AR3(T0)) ; |120| 
         00036e 00   
         00036f 9A   
     754                      .dwpsn  file "../c5535_bsl_revc/ezdsp5535_v1/c55xx_csl/src/csl_usb.c",line 125,column 4,is_stmt
     755 000370 AB31          MOV *(#_usbRegisters), AR3 ; |125| 
         000372 0000 
         000374 00-  
     756 000375 E679          MOV #1, port(*AR3(short(#4))) ; |125| 
         000377 01   
         000378 9A   
     757                      .dwpsn  file "../c5535_bsl_revc/ezdsp5535_v1/c55xx_csl/src/csl_usb.c",line 127,column 8,is_stmt
     758 000379 3C00          MOV #0, AC0 ; |127| 
     759 00037b EB14          MOV AC0, dbl(*SP(#10)) ; |127| 
         00037d 08   
     760 00037e 20            NOP
     761                      .dwpsn  file "../c5535_bsl_revc/ezdsp5535_v1/c55xx_csl/src/csl_usb.c",line 127,column 20,is_stmt
     762 00037f EC31          AMOV #90000, XAR3 ; |127| 
         000381 BE01 
         000383 5F90 
     763 000385 90B0          MOV XAR3, AC0
     764 000387 ED14          MOV dbl(*SP(#10)), AC1 ; |127| 
         000389 18   
     765 00038a 1218          CMPU AC1 >= AC0, TC1 ; |127| 
         00038c 04   
     766 00038d 0464          BCC $C$L15,TC1 ; |127| 
         00038f 15   
     767                                                      ; branchcc occurs ; |127| 
     768 000390       $C$L14:    
     769 000390       $C$DW$L$_USB_init$9$B:
     770                      .dwpsn  file "../c5535_bsl_revc/ezdsp5535_v1/c55xx_csl/src/csl_usb.c",line 127,column 36,is_stmt
     771 000390 ED14          MOV dbl(*SP(#10)), AC0 ; |127| 
         000392 08   
TMS320C55x Assembler PC v4.4.1 Tue Oct 02 02:33:44 2018

Tools Copyright (c) 1996-2012 Texas Instruments Incorporated
csl_usb.asm                                                          PAGE   20

     772 000393 4010          ADD #1, AC0 ; |127| 
     773 000395 EB14          MOV AC0, dbl(*SP(#10)) ; |127| 
         000397 08   
     774 000398 20            NOP
     775 000399 20            NOP
     776                      .dwpsn  file "../c5535_bsl_revc/ezdsp5535_v1/c55xx_csl/src/csl_usb.c",line 127,column 20,is_stmt
     777 00039a 90B0          MOV XAR3, AC0
     778 00039c ED14          MOV dbl(*SP(#10)), AC1 ; |127| 
         00039e 18   
     779 00039f 1214          CMPU AC1 < AC0, TC1 ; |127| 
         0003a1 04   
     780 0003a2 0464          BCC $C$L14,TC1 ; |127| 
         0003a4 EB   
     781                                                      ; branchcc occurs ; |127| 
     782 0003a5       $C$DW$L$_USB_init$9$E:
     783 0003a5       $C$L15:    
     784                      .dwpsn  file "../c5535_bsl_revc/ezdsp5535_v1/c55xx_csl/src/csl_usb.c",line 130,column 4,is_stmt
     785 0003a5 7600          MOV #50, T0 ; |130| 
         0003a7 3248 
     786 0003a9 AB31          MOV *(#_sysCtrlRegs), AR3 ; |130| 
         0003ab 0000 
         0003ad 01-  
     787 0003ae A96B          MOV port(*AR3(T0)), AR1 ; |130| 
         0003b0 99   
     788 0003b1 7DFF          AND #0xfffc, AR1, AC0 ; |130| 
         0003b3 FC09 
     789 0003b5 C06B          MOV AC0, port(*AR3(T0)) ; |130| 
         0003b7 9A   
     790                      .dwpsn  file "../c5535_bsl_revc/ezdsp5535_v1/c55xx_csl/src/csl_usb.c",line 132,column 4,is_stmt
     791 0003b8 7604          MOV #1025, T0 ; |132| 
         0003ba 0148 
     792 0003bc AB31          MOV *(#_usbRegisters), AR3 ; |132| 
         0003be 0000 
         0003c0 00-  
     793 0003c1 A96B          MOV port(*AR3(T0)), AR1 ; |132| 
         0003c3 99   
     794 0003c4 EC1A          BCLR @#13, AR1 ; |132| 
         0003c6 92   
     795 0003c7 EC1A          BSET @#13, AR1 ; |132| 
         0003c9 90   
     796 0003ca C96B          MOV AR1, port(*AR3(T0)) ; |132| 
         0003cc 9A   
     797                      .dwpsn  file "../c5535_bsl_revc/ezdsp5535_v1/c55xx_csl/src/csl_usb.c",line 134,column 4,is_stmt
     798 0003cd 7604          MOV #1121, T0 ; |134| 
         0003cf 6148 
     799 0003d1 AB31          MOV *(#_usbRegisters), AR3 ; |134| 
         0003d3 0000 
         0003d5 00-  
     800 0003d6 A96B          MOV port(*AR3(T0)), AR1 ; |134| 
         0003d8 99   
     801 0003d9 EC00          BCLR @#0, AR1 ; |134| 
         0003db 92   
     802 0003dc EC00          BSET @#0, AR1 ; |134| 
         0003de 90   
     803 0003df C96B          MOV AR1, port(*AR3(T0)) ; |134| 
TMS320C55x Assembler PC v4.4.1 Tue Oct 02 02:33:44 2018

Tools Copyright (c) 1996-2012 Texas Instruments Incorporated
csl_usb.asm                                                          PAGE   21

         0003e1 9A   
     804                      .dwpsn  file "../c5535_bsl_revc/ezdsp5535_v1/c55xx_csl/src/csl_usb.c",line 136,column 4,is_stmt
     805 0003e2 E631          MOV #1, *(#(_gCtrlTransfer+12)) ; |136| 
         0003e4 0100 
         0003e6 00D6-
     806                      .dwpsn  file "../c5535_bsl_revc/ezdsp5535_v1/c55xx_csl/src/csl_usb.c",line 137,column 4,is_stmt
     807 0003e8 E631          MOV #1, *(#(_gIsoInTransfer+12)) ; |137| 
         0003ea 0100 
         0003ec 0100-
     808                      .dwpsn  file "../c5535_bsl_revc/ezdsp5535_v1/c55xx_csl/src/csl_usb.c",line 138,column 4,is_stmt
     809 0003ee E631          MOV #1, *(#(_gIsoOutTransfer+12)) ; |138| 
         0003f0 0100 
         0003f2 010E-
     810                      .dwpsn  file "../c5535_bsl_revc/ezdsp5535_v1/c55xx_csl/src/csl_usb.c",line 139,column 4,is_stmt
     811 0003f4 E631          MOV #1, *(#(_gBulkInTransfer+12)) ; |139| 
         0003f6 0100 
         0003f8 00E4-
     812                      .dwpsn  file "../c5535_bsl_revc/ezdsp5535_v1/c55xx_csl/src/csl_usb.c",line 140,column 4,is_stmt
     813 0003fa E631          MOV #1, *(#(_gBulkOutTransfer+12)) ; |140| 
         0003fc 0100 
         0003fe 00F2-
     814                      .dwpsn  file "../c5535_bsl_revc/ezdsp5535_v1/c55xx_csl/src/csl_usb.c",line 141,column 13,is_stmt
     815 000400 E631          MOV #1, *(#(_gIntInTransfer+12)) ; |141| 
         000402 0100 
         000404 011C-
     816                      .dwpsn  file "../c5535_bsl_revc/ezdsp5535_v1/c55xx_csl/src/csl_usb.c",line 144,column 4,is_stmt
     817 000406 ED00          MOV dbl(*SP(#0)), XAR3
         000408 BF   
     818 000409 A973          MOV *AR3(short(#1)), AR1 ; |144| 
     819 00040b ED04          MOV dbl(*SP(#2)), XAR3
         00040d BF   
     820 00040e C961          MOV AR1, *AR3 ; |144| 
     821                      .dwpsn  file "../c5535_bsl_revc/ezdsp5535_v1/c55xx_csl/src/csl_usb.c",line 145,column 4,is_stmt
     822 000410 ED00          MOV dbl(*SP(#0)), XAR3
         000412 BF   
     823 000413 A975          MOV *AR3(short(#2)), AR1 ; |145| 
     824 000415 ED04          MOV dbl(*SP(#2)), XAR3
         000417 BF   
     825 000418 C973          MOV AR1, *AR3(short(#1)) ; |145| 
     826                      .dwpsn  file "../c5535_bsl_revc/ezdsp5535_v1/c55xx_csl/src/csl_usb.c",line 146,column 4,is_stmt
     827 00041a ED04          MOV dbl(*SP(#2)), XAR3
         00041c BF   
     828 00041d E66D          MOV #0, *AR3(#96) ; |146| 
         00041f 0000 
         000421 60   
     829                      .dwpsn  file "../c5535_bsl_revc/ezdsp5535_v1/c55xx_csl/src/csl_usb.c",line 147,column 4,is_stmt
     830 000422 ED00          MOV dbl(*SP(#0)), XAR3
         000424 BF   
     831 000425 ED79          MOV dbl(*AR3(short(#4))), AC0 ; |147| 
         000427 08   
     832 000428 ED04          MOV dbl(*SP(#2)), XAR3
         00042a BF   
     833 00042b EB6D          MOV AC0, dbl(*AR3(#110)) ; |147| 
         00042d 0800 
         00042f 6E   
TMS320C55x Assembler PC v4.4.1 Tue Oct 02 02:33:44 2018

Tools Copyright (c) 1996-2012 Texas Instruments Incorporated
csl_usb.asm                                                          PAGE   22

     834                      .dwpsn  file "../c5535_bsl_revc/ezdsp5535_v1/c55xx_csl/src/csl_usb.c",line 148,column 4,is_stmt
     835 000430 ED00          MOV dbl(*SP(#0)), XAR3
         000432 BF   
     836 000433 ED7D          MOV dbl(*AR3(short(#6))), AC0 ; |148| 
         000435 08   
     837 000436 ED04          MOV dbl(*SP(#2)), XAR3
         000438 BF   
     838 000439 EB6D          MOV AC0, dbl(*AR3(#112)) ; |148| 
         00043b 0800 
         00043d 70   
     839                      .dwpsn  file "../c5535_bsl_revc/ezdsp5535_v1/c55xx_csl/src/csl_usb.c",line 149,column 4,is_stmt
     840 00043e ED04          MOV dbl(*SP(#2)), XAR2
         000440 AF   
     841 000441 ED00          MOV dbl(*SP(#0)), XAR3
         000443 BF   
     842              
     843 000444 1408          AADD #8, AR3 ; |149| 
         000446 B4   
     844 000447 1572  ||      AADD #114, AR2 ; |149| 
         000449 AC   
     845              
     846 00044a 8061          MOV dbl(*AR3), dbl(*AR2) ; |149| 
         00044c 00   
     847                      .dwpsn  file "../c5535_bsl_revc/ezdsp5535_v1/c55xx_csl/src/csl_usb.c",line 150,column 4,is_stmt
     848 00044d ED00          MOV dbl(*SP(#0)), XAR3
         00044f BF   
     849 000450 ED04          MOV dbl(*SP(#2)), XAR2
         000452 AF   
     850              
     851 000453 1474          AADD #116, AR2 ; |150| 
         000455 A4   
     852 000456 150A  ||      AADD #10, AR3 ; |150| 
         000458 BC   
     853              
     854 000459 8061          MOV dbl(*AR3), dbl(*AR2) ; |150| 
         00045b 00   
     855                      .dwpsn  file "../c5535_bsl_revc/ezdsp5535_v1/c55xx_csl/src/csl_usb.c",line 152,column 4,is_stmt
     856 00045c ED04          MOV dbl(*SP(#2)), XAR3
         00045e BF   
     857 00045f E66D          MOV #0, *AR3(#101) ; |152| 
         000461 0000 
         000463 65   
     858                      .dwpsn  file "../c5535_bsl_revc/ezdsp5535_v1/c55xx_csl/src/csl_usb.c",line 153,column 4,is_stmt
     859 000464 ED04          MOV dbl(*SP(#2)), XAR2
         000466 AF   
     860 000467 EC31          AMOV #_gEpStatus, XAR3 ; |153| 
         000469 BE00 
         00046b 011E-
     861 00046d EB4D          MOV XAR3, dbl(*AR2(#98))
         00046f B500 
         000471 62   
     862                      .dwpsn  file "../c5535_bsl_revc/ezdsp5535_v1/c55xx_csl/src/csl_usb.c",line 154,column 4,is_stmt
     863 000472 ED04          MOV dbl(*SP(#2)), XAR3
         000474 BF   
     864 000475 E66D          MOV #0, *AR3(#102) ; |154| 
TMS320C55x Assembler PC v4.4.1 Tue Oct 02 02:33:44 2018

Tools Copyright (c) 1996-2012 Texas Instruments Incorporated
csl_usb.asm                                                          PAGE   23

         000477 0000 
         000479 66   
     865                      .dwpsn  file "../c5535_bsl_revc/ezdsp5535_v1/c55xx_csl/src/csl_usb.c",line 155,column 4,is_stmt
     866 00047a ED04          MOV dbl(*SP(#2)), XAR3
         00047c BF   
     867 00047d E677          MOV #0, *AR3(short(#3)) ; |155| 
         00047f 00   
     868                      .dwpsn  file "../c5535_bsl_revc/ezdsp5535_v1/c55xx_csl/src/csl_usb.c",line 156,column 4,is_stmt
     869 000480 ED04          MOV dbl(*SP(#2)), XAR3
         000482 BF   
     870 000483 E679          MOV #0, *AR3(short(#4)) ; |156| 
         000485 00   
     871                      .dwpsn  file "../c5535_bsl_revc/ezdsp5535_v1/c55xx_csl/src/csl_usb.c",line 157,column 4,is_stmt
     872 000486 ED04          MOV dbl(*SP(#2)), XAR3
         000488 BF   
     873 000489 E67B          MOV #0, *AR3(short(#5)) ; |157| 
         00048b 00   
     874                      .dwpsn  file "../c5535_bsl_revc/ezdsp5535_v1/c55xx_csl/src/csl_usb.c",line 158,column 4,is_stmt
     875 00048c ED04          MOV dbl(*SP(#2)), XAR3
         00048e BF   
     876 00048f E67D          MOV #0, *AR3(short(#6)) ; |158| 
         000491 00   
     877                      .dwpsn  file "../c5535_bsl_revc/ezdsp5535_v1/c55xx_csl/src/csl_usb.c",line 159,column 4,is_stmt
     878 000492 ED04          MOV dbl(*SP(#2)), XAR3
         000494 BF   
     879 000495 E67F          MOV #0, *AR3(short(#7)) ; |159| 
         000497 00   
     880                      .dwpsn  file "../c5535_bsl_revc/ezdsp5535_v1/c55xx_csl/src/csl_usb.c",line 160,column 4,is_stmt
     881 000498 ED04          MOV dbl(*SP(#2)), XAR3
         00049a BF   
     882 00049b E66D          MOV #0, *AR3(#8) ; |160| 
         00049d 0000 
         00049f 08   
     883                      .dwpsn  file "../c5535_bsl_revc/ezdsp5535_v1/c55xx_csl/src/csl_usb.c",line 162,column 4,is_stmt
     884 0004a0 DF31          MOV uns(*(#_usbRegisters)), AC0 ; |162| 
         0004a2 0500 
         0004a4 0000-
     885 0004a6 900B          MOV AC0, XAR3
     886 0004a8 B46F          AMAR *+AR3(#1057) ; |162| 
         0004aa 0421 
     887 0004ac 90B0          MOV XAR3, AC0
     888 0004ae ED04          MOV dbl(*SP(#2)), XAR3
         0004b0 BF   
     889 0004b1 EB6D          MOV AC0, dbl(*AR3(#18))
         0004b3 0800 
         0004b5 12   
     890                      .dwpsn  file "../c5535_bsl_revc/ezdsp5535_v1/c55xx_csl/src/csl_usb.c",line 164,column 4,is_stmt
     891 0004b6 ED04          MOV dbl(*SP(#2)), XAR1
         0004b8 9F   
     892 0004b9 ED04          MOV dbl(*SP(#2)), XAR0
         0004bb 8F   
     893 0004bc 1464          AADD #100, AR1 ; |164| 
         0004be 94   
     894              $C$DW$45        .dwtag  DW_TAG_TI_branch
     895                      .dwattr $C$DW$45, DW_AT_low_pc(0x00)
TMS320C55x Assembler PC v4.4.1 Tue Oct 02 02:33:44 2018

Tools Copyright (c) 1996-2012 Texas Instruments Incorporated
csl_usb.asm                                                          PAGE   24

     896                      .dwattr $C$DW$45, DW_AT_name("_USB_checkSpeed")
     897                      .dwattr $C$DW$45, DW_AT_TI_call
     898 0004bf 08FB          CALL #_USB_checkSpeed ; |164| 
         0004c1 3E   
     899                                                      ; call occurs [#_USB_checkSpeed] ; |164| 
     900                      .dwpsn  file "../c5535_bsl_revc/ezdsp5535_v1/c55xx_csl/src/csl_usb.c",line 166,column 4,is_stmt
     901 0004c2 ED04          MOV dbl(*SP(#2)), XAR3
         0004c4 BF   
     902 0004c5 E66D          MOV #0, *AR3(#24) ; |166| 
         0004c7 0000 
         0004c9 18   
     903                      .dwpsn  file "../c5535_bsl_revc/ezdsp5535_v1/c55xx_csl/src/csl_usb.c",line 167,column 4,is_stmt
     904 0004ca ED04          MOV dbl(*SP(#2)), XAR3
         0004cc BF   
     905 0004cd E66D          MOV #0, *AR3(#23) ; |167| 
         0004cf 0000 
         0004d1 17   
     906                      .dwpsn  file "../c5535_bsl_revc/ezdsp5535_v1/c55xx_csl/src/csl_usb.c",line 168,column 4,is_stmt
     907 0004d2 ED04          MOV dbl(*SP(#2)), XAR3
         0004d4 BF   
     908 0004d5 E66D          MOV #1, *AR3(#22) ; |168| 
         0004d7 0100 
         0004d9 16   
     909                      .dwpsn  file "../c5535_bsl_revc/ezdsp5535_v1/c55xx_csl/src/csl_usb.c",line 169,column 4,is_stmt
     910 0004da ED04          MOV dbl(*SP(#2)), XAR3
         0004dc BF   
     911 0004dd E66D          MOV #1, *AR3(#90) ; |169| 
         0004df 0100 
         0004e1 5A   
     912                      .dwpsn  file "../c5535_bsl_revc/ezdsp5535_v1/c55xx_csl/src/csl_usb.c",line 170,column 4,is_stmt
     913 0004e2 ED04          MOV dbl(*SP(#2)), XAR3
         0004e4 BF   
     914 0004e5 E66D          MOV #1, *AR3(#91) ; |170| 
         0004e7 0100 
         0004e9 5B   
     915                      .dwpsn  file "../c5535_bsl_revc/ezdsp5535_v1/c55xx_csl/src/csl_usb.c",line 171,column 4,is_stmt
     916 0004ea ED04          MOV dbl(*SP(#2)), XAR3
         0004ec BF   
     917 0004ed E66D          MOV #0, *AR3(#25) ; |171| 
         0004ef 0000 
         0004f1 19   
     918                      .dwpsn  file "../c5535_bsl_revc/ezdsp5535_v1/c55xx_csl/src/csl_usb.c",line 174,column 4,is_stmt
     919 0004f2 ED04          MOV dbl(*SP(#2)), XAR3
         0004f4 BF   
     920 0004f5 E66D          MOV #8, *AR3(#118) ; |174| 
         0004f7 0800 
         0004f9 76   
     921                      .dwpsn  file "../c5535_bsl_revc/ezdsp5535_v1/c55xx_csl/src/csl_usb.c",line 177,column 4,is_stmt
     922 0004fa ED04          MOV dbl(*SP(#2)), XAR3
         0004fc BF   
     923 0004fd ED6D          MOV dbl(*AR3(#98)), XAR3
         0004ff BF00 
         000501 62   
     924              
     925 000502 8E0C          MOV XAR3, dbl(*SP(#6))
TMS320C55x Assembler PC v4.4.1 Tue Oct 02 02:33:44 2018

Tools Copyright (c) 1996-2012 Texas Instruments Incorporated
csl_usb.asm                                                          PAGE   25

         000504 BB14 
         000506 B512 
     926              ||      AADD #18, AR3 ; |177| 
     927              
     928                      .dwpsn  file "../c5535_bsl_revc/ezdsp5535_v1/c55xx_csl/src/csl_usb.c",line 179,column 4,is_stmt
     929 000508 DF31          MOV uns(*(#_usbRegisters)), AC0 ; |179| 
         00050a 0500 
         00050c 0000-
     930 00050e 900B          MOV AC0, XAR3
     931 000510 B46F          AMAR *+AR3(#1061) ; |179| 
         000512 0425 
     932 000514 90B0          MOV XAR3, AC0
     933 000516 ED0C          MOV dbl(*SP(#6)), XAR3
         000518 BF   
     934 000519 EB6D          MOV AC0, dbl(*AR3(#8))
         00051b 0800 
         00051d 08   
     935                      .dwpsn  file "../c5535_bsl_revc/ezdsp5535_v1/c55xx_csl/src/csl_usb.c",line 181,column 4,is_stmt
     936 00051e ED04          MOV dbl(*SP(#2)), XAR3
         000520 BF   
     937 000521 ED6D          MOV dbl(*AR3(#98)), XAR3
         000523 BF00 
         000525 62   
     938              
     939 000526 8E0C          MOV XAR3, dbl(*SP(#6))
         000528 BB14 
         00052a B524 
     940              ||      AADD #36, AR3 ; |181| 
     941              
     942                      .dwpsn  file "../c5535_bsl_revc/ezdsp5535_v1/c55xx_csl/src/csl_usb.c",line 182,column 4,is_stmt
     943 00052c DF31          MOV uns(*(#_usbRegisters)), AC0 ; |182| 
         00052e 0500 
         000530 0000-
     944 000532 900B          MOV AC0, XAR3
     945 000534 B46F          AMAR *+AR3(#1065) ; |182| 
         000536 0429 
     946 000538 90B0          MOV XAR3, AC0
     947 00053a ED0C          MOV dbl(*SP(#6)), XAR3
         00053c BF   
     948 00053d EB6D          MOV AC0, dbl(*AR3(#8))
         00053f 0800 
         000541 08   
     949                      .dwpsn  file "../c5535_bsl_revc/ezdsp5535_v1/c55xx_csl/src/csl_usb.c",line 184,column 4,is_stmt
     950 000542 ED04          MOV dbl(*SP(#2)), XAR3
         000544 BF   
     951 000545 ED6D          MOV dbl(*AR3(#98)), XAR3
         000547 BF00 
         000549 62   
     952              
     953 00054a 8E0C          MOV XAR3, dbl(*SP(#6))
         00054c BB14 
         00054e B536 
     954              ||      AADD #54, AR3 ; |184| 
     955              
     956                      .dwpsn  file "../c5535_bsl_revc/ezdsp5535_v1/c55xx_csl/src/csl_usb.c",line 186,column 4,is_stmt
TMS320C55x Assembler PC v4.4.1 Tue Oct 02 02:33:44 2018

Tools Copyright (c) 1996-2012 Texas Instruments Incorporated
csl_usb.asm                                                          PAGE   26

     957 000550 DF31          MOV uns(*(#_usbRegisters)), AC0 ; |186| 
         000552 0500 
         000554 0000-
     958 000556 900B          MOV AC0, XAR3
     959 000558 B46F          AMAR *+AR3(#1069) ; |186| 
         00055a 042D 
     960 00055c 90B0          MOV XAR3, AC0
     961 00055e ED0C          MOV dbl(*SP(#6)), XAR3
         000560 BF   
     962 000561 EB6D          MOV AC0, dbl(*AR3(#8))
         000563 0800 
         000565 08   
     963                      .dwpsn  file "../c5535_bsl_revc/ezdsp5535_v1/c55xx_csl/src/csl_usb.c",line 188,column 4,is_stmt
     964 000566 ED04          MOV dbl(*SP(#2)), XAR3
         000568 BF   
     965 000569 ED6D          MOV dbl(*AR3(#98)), XAR3
         00056b BF00 
         00056d 62   
     966              
     967 00056e 8E0C          MOV XAR3, dbl(*SP(#6))
         000570 BB14 
         000572 B548 
     968              ||      AADD #72, AR3 ; |188| 
     969              
     970                      .dwpsn  file "../c5535_bsl_revc/ezdsp5535_v1/c55xx_csl/src/csl_usb.c",line 189,column 4,is_stmt
     971 000574 DF31          MOV uns(*(#_usbRegisters)), AC0 ; |189| 
         000576 0500 
         000578 0000-
     972 00057a 900B          MOV AC0, XAR3
     973 00057c B46F          AMAR *+AR3(#1073) ; |189| 
         00057e 0431 
     974 000580 90B0          MOV XAR3, AC0
     975 000582 ED0C          MOV dbl(*SP(#6)), XAR3
         000584 BF   
     976 000585 EB6D          MOV AC0, dbl(*AR3(#8))
         000587 0800 
         000589 08   
     977                      .dwpsn  file "../c5535_bsl_revc/ezdsp5535_v1/c55xx_csl/src/csl_usb.c",line 192,column 8,is_stmt
     978 00058a 3C00          MOV #0, AC0 ; |192| 
     979 00058c EB10          MOV AC0, dbl(*SP(#8)) ; |192| 
         00058e 08   
     980                      .dwpsn  file "../c5535_bsl_revc/ezdsp5535_v1/c55xx_csl/src/csl_usb.c",line 192,column 24,is_stmt
     981              
     982 00058f ED10          MOV dbl(*SP(#8)), AC1 ; |192| 
         000591 18   
     983 000592 3D80  ||      MOV #8, AC0 ; |192| 
     984              
     985 000594 1218          CMPU AC1 >= AC0, TC1 ; |192| 
         000596 04   
     986 000597 6D64          BCC $C$L29,TC1 ; |192| 
         000599 0137 
     987                                                      ; branchcc occurs ; |192| 
     988 00059b       $C$L16:    
     989 00059b       $C$DW$L$_USB_init$11$B:
     990                      .dwpsn  file "../c5535_bsl_revc/ezdsp5535_v1/c55xx_csl/src/csl_usb.c",line 194,column 5,is_stmt
TMS320C55x Assembler PC v4.4.1 Tue Oct 02 02:33:44 2018

Tools Copyright (c) 1996-2012 Texas Instruments Incorporated
csl_usb.asm                                                          PAGE   27

     991 00059b ED04          MOV dbl(*SP(#2)), XAR3
         00059d BF   
     992 00059e ED6D          MOV dbl(*AR3(#98)), XAR3
         0005a0 BF00 
         0005a2 62   
     993 0005a3 ED10          MOV dbl(*SP(#8)), AC1 ; |194| 
         0005a5 18   
     994 0005a6 1015          SFTS AC1, #1, AC0 ; |194| 
         0005a8 01   
     995 0005a9 1013          ADD AC1 << #4, AC0 ; |194| 
         0005ab 04   
     996 0005ac 900A          MOV AC0, XAR2
     997              
     998 0005ae 8E0C          MOV XAR3, dbl(*SP(#6))
         0005b0 BB10 
         0005b2 B5A1 
     999              ||      AADD XAR2, XAR3 ; |194| 
    1000              
    1001                      .dwpsn  file "../c5535_bsl_revc/ezdsp5535_v1/c55xx_csl/src/csl_usb.c",line 196,column 5,is_stmt
    1002 0005b4 E66D          MOV #0, *AR3(#16) ; |196| 
         0005b6 0000 
         0005b8 10   
    1003                      .dwpsn  file "../c5535_bsl_revc/ezdsp5535_v1/c55xx_csl/src/csl_usb.c",line 197,column 5,is_stmt
    1004 0005b9 ED0C          MOV dbl(*SP(#6)), XAR3
         0005bb BF   
    1005 0005bc 3C00          MOV #0, AC0 ; |197| 
    1006 0005be EB6D          MOV AC0, dbl(*AR3(#10))
         0005c0 0800 
         0005c2 0A   
    1007                      .dwpsn  file "../c5535_bsl_revc/ezdsp5535_v1/c55xx_csl/src/csl_usb.c",line 198,column 5,is_stmt
    1008 0005c3 ED0C          MOV dbl(*SP(#6)), XAR3
         0005c5 BF   
    1009 0005c6 E66D          MOV #0, *AR3(#17) ; |198| 
         0005c8 0000 
         0005ca 11   
    1010                      .dwpsn  file "../c5535_bsl_revc/ezdsp5535_v1/c55xx_csl/src/csl_usb.c",line 199,column 5,is_stmt
    1011 0005cb ED0C          MOV dbl(*SP(#6)), XAR3
         0005cd BF   
    1012 0005ce ED10          MOV dbl(*SP(#8)), AC0 ; |199| 
         0005d0 08   
    1013 0005d1 EB61          MOV AC0, dbl(*AR3) ; |199| 
         0005d3 08   
    1014                      .dwpsn  file "../c5535_bsl_revc/ezdsp5535_v1/c55xx_csl/src/csl_usb.c",line 200,column 5,is_stmt
    1015 0005d4 ED0C          MOV dbl(*SP(#6)), XAR3
         0005d6 BF   
    1016 0005d7 E66D          MOV #0, *AR3(#12) ; |200| 
         0005d9 0000 
         0005db 0C   
    1017                      .dwpsn  file "../c5535_bsl_revc/ezdsp5535_v1/c55xx_csl/src/csl_usb.c",line 201,column 5,is_stmt
    1018 0005dc ED0C          MOV dbl(*SP(#6)), XAR3
         0005de BF   
    1019 0005df E67D          MOV #1, *AR3(short(#6)) ; |201| 
         0005e1 01   
    1020                      .dwpsn  file "../c5535_bsl_revc/ezdsp5535_v1/c55xx_csl/src/csl_usb.c",line 202,column 5,is_stmt
    1021 0005e2 ED0C          MOV dbl(*SP(#6)), XAR3
TMS320C55x Assembler PC v4.4.1 Tue Oct 02 02:33:44 2018

Tools Copyright (c) 1996-2012 Texas Instruments Incorporated
csl_usb.asm                                                          PAGE   28

         0005e4 BF   
    1022 0005e5 3C00          MOV #0, AC0 ; |202| 
    1023 0005e7 EB6D          MOV AC0, dbl(*AR3(#14)) ; |202| 
         0005e9 0800 
         0005eb 0E   
    1024                      .dwpsn  file "../c5535_bsl_revc/ezdsp5535_v1/c55xx_csl/src/csl_usb.c",line 204,column 5,is_stmt
    1025 0005ec 0600          B $C$L26  ; |204| 
         0005ee 9F   
    1026                                                      ; branch occurs ; |204| 
    1027 0005ef       $C$DW$L$_USB_init$11$E:
    1028 0005ef       $C$L17:    
    1029 0005ef       $C$DW$L$_USB_init$13$B:
    1030                      .dwpsn  file "../c5535_bsl_revc/ezdsp5535_v1/c55xx_csl/src/csl_usb.c",line 207,column 7,is_stmt
    1031 0005ef ED0C          MOV dbl(*SP(#6)), XAR3
         0005f1 BF   
    1032 0005f2 7600          MOV #64, AC0 ; |207| 
         0005f4 4008 
    1033 0005f6 EB79          MOV AC0, dbl(*AR3(short(#4))) ; |207| 
         0005f8 08   
    1034                      .dwpsn  file "../c5535_bsl_revc/ezdsp5535_v1/c55xx_csl/src/csl_usb.c",line 208,column 12,is_stmt
    1035 0005f9 0600          B $C$L28  ; |208| 
         0005fb C2   
    1036                                                      ; branch occurs ; |208| 
    1037 0005fc       $C$DW$L$_USB_init$13$E:
    1038 0005fc       $C$L18:    
    1039 0005fc       $C$DW$L$_USB_init$14$B:
    1040                      .dwpsn  file "../c5535_bsl_revc/ezdsp5535_v1/c55xx_csl/src/csl_usb.c",line 211,column 7,is_stmt
    1041 0005fc ED04          MOV dbl(*SP(#2)), XAR3
         0005fe BF   
    1042 0005ff F06D          CMP *AR3(#100) == #4, TC1 ; |211| 
         000601 0004 
         000603 0064 
    1043 000605 66F4          BCC $C$L19,!TC1 ; |211| 
    1044                                                      ; branchcc occurs ; |211| 
    1045 000607       $C$DW$L$_USB_init$14$E:
    1046 000607       $C$DW$L$_USB_init$15$B:
    1047                      .dwpsn  file "../c5535_bsl_revc/ezdsp5535_v1/c55xx_csl/src/csl_usb.c",line 213,column 8,is_stmt
    1048 000607 ED0C          MOV dbl(*SP(#6)), XAR3
         000609 BF   
    1049 00060a 7602          MOV #512, AC0 ; |213| 
         00060c 0008 
    1050 00060e EB79          MOV AC0, dbl(*AR3(short(#4))) ; |213| 
         000610 08   
    1051                      .dwpsn  file "../c5535_bsl_revc/ezdsp5535_v1/c55xx_csl/src/csl_usb.c",line 214,column 7,is_stmt
    1052 000611 0600          B $C$L28  ; |214| 
         000613 AA   
    1053                                                      ; branch occurs ; |214| 
    1054 000614       $C$DW$L$_USB_init$15$E:
    1055 000614       $C$L19:    
    1056 000614       $C$DW$L$_USB_init$16$B:
    1057                      .dwpsn  file "../c5535_bsl_revc/ezdsp5535_v1/c55xx_csl/src/csl_usb.c",line 217,column 8,is_stmt
    1058 000614 ED0C          MOV dbl(*SP(#6)), XAR3
         000616 BF   
    1059 000617 7600          MOV #64, AC0 ; |217| 
         000619 4008 
TMS320C55x Assembler PC v4.4.1 Tue Oct 02 02:33:44 2018

Tools Copyright (c) 1996-2012 Texas Instruments Incorporated
csl_usb.asm                                                          PAGE   29

    1060 00061b EB79          MOV AC0, dbl(*AR3(short(#4))) ; |217| 
         00061d 08   
    1061                      .dwpsn  file "../c5535_bsl_revc/ezdsp5535_v1/c55xx_csl/src/csl_usb.c",line 220,column 12,is_stmt
    1062 00061e 0600          B $C$L28  ; |220| 
         000620 9D   
    1063                                                      ; branch occurs ; |220| 
    1064 000621       $C$DW$L$_USB_init$16$E:
    1065 000621       $C$L20:    
    1066 000621       $C$DW$L$_USB_init$17$B:
    1067                      .dwpsn  file "../c5535_bsl_revc/ezdsp5535_v1/c55xx_csl/src/csl_usb.c",line 223,column 7,is_stmt
    1068 000621 ED04          MOV dbl(*SP(#2)), XAR3
         000623 BF   
    1069 000624 F06D          CMP *AR3(#100) == #4, TC1 ; |223| 
         000626 0004 
         000628 0064 
    1070 00062a 66F4          BCC $C$L21,!TC1 ; |223| 
    1071                                                      ; branchcc occurs ; |223| 
    1072 00062c       $C$DW$L$_USB_init$17$E:
    1073 00062c       $C$DW$L$_USB_init$18$B:
    1074                      .dwpsn  file "../c5535_bsl_revc/ezdsp5535_v1/c55xx_csl/src/csl_usb.c",line 225,column 8,is_stmt
    1075 00062c ED0C          MOV dbl(*SP(#6)), XAR3
         00062e BF   
    1076 00062f 7602          MOV #512, AC0 ; |225| 
         000631 0008 
    1077 000633 EB79          MOV AC0, dbl(*AR3(short(#4))) ; |225| 
         000635 08   
    1078                      .dwpsn  file "../c5535_bsl_revc/ezdsp5535_v1/c55xx_csl/src/csl_usb.c",line 226,column 7,is_stmt
    1079 000636 0600          B $C$L28  ; |226| 
         000638 85   
    1080                                                      ; branch occurs ; |226| 
    1081 000639       $C$DW$L$_USB_init$18$E:
    1082 000639       $C$L21:    
    1083 000639       $C$DW$L$_USB_init$19$B:
    1084                      .dwpsn  file "../c5535_bsl_revc/ezdsp5535_v1/c55xx_csl/src/csl_usb.c",line 229,column 8,is_stmt
    1085 000639 ED0C          MOV dbl(*SP(#6)), XAR3
         00063b BF   
    1086 00063c 7600          MOV #64, AC0 ; |229| 
         00063e 4008 
    1087 000640 EB79          MOV AC0, dbl(*AR3(short(#4))) ; |229| 
         000642 08   
    1088                      .dwpsn  file "../c5535_bsl_revc/ezdsp5535_v1/c55xx_csl/src/csl_usb.c",line 232,column 12,is_stmt
    1089 000643 0600          B $C$L28  ; |232| 
         000645 78   
    1090                                                      ; branch occurs ; |232| 
    1091 000646       $C$DW$L$_USB_init$19$E:
    1092 000646       $C$L22:    
    1093 000646       $C$DW$L$_USB_init$20$B:
    1094                      .dwpsn  file "../c5535_bsl_revc/ezdsp5535_v1/c55xx_csl/src/csl_usb.c",line 235,column 7,is_stmt
    1095 000646 ED04          MOV dbl(*SP(#2)), XAR3
         000648 BF   
    1096 000649 F06D          CMP *AR3(#100) == #4, TC1 ; |235| 
         00064b 0004 
         00064d 0064 
    1097 00064f 66F4          BCC $C$L23,!TC1 ; |235| 
    1098                                                      ; branchcc occurs ; |235| 
TMS320C55x Assembler PC v4.4.1 Tue Oct 02 02:33:44 2018

Tools Copyright (c) 1996-2012 Texas Instruments Incorporated
csl_usb.asm                                                          PAGE   30

    1099 000651       $C$DW$L$_USB_init$20$E:
    1100 000651       $C$DW$L$_USB_init$21$B:
    1101                      .dwpsn  file "../c5535_bsl_revc/ezdsp5535_v1/c55xx_csl/src/csl_usb.c",line 237,column 8,is_stmt
    1102 000651 ED0C          MOV dbl(*SP(#6)), XAR3
         000653 BF   
    1103 000654 7602          MOV #512, AC0 ; |237| 
         000656 0008 
    1104 000658 EB79          MOV AC0, dbl(*AR3(short(#4))) ; |237| 
         00065a 08   
    1105                      .dwpsn  file "../c5535_bsl_revc/ezdsp5535_v1/c55xx_csl/src/csl_usb.c",line 238,column 7,is_stmt
    1106 00065b 0600          B $C$L28  ; |238| 
         00065d 60   
    1107                                                      ; branch occurs ; |238| 
    1108 00065e       $C$DW$L$_USB_init$21$E:
    1109 00065e       $C$L23:    
    1110 00065e       $C$DW$L$_USB_init$22$B:
    1111                      .dwpsn  file "../c5535_bsl_revc/ezdsp5535_v1/c55xx_csl/src/csl_usb.c",line 241,column 8,is_stmt
    1112 00065e ED0C          MOV dbl(*SP(#6)), XAR3
         000660 BF   
    1113 000661 7600          MOV #64, AC0 ; |241| 
         000663 4008 
    1114 000665 EB79          MOV AC0, dbl(*AR3(short(#4))) ; |241| 
         000667 08   
    1115                      .dwpsn  file "../c5535_bsl_revc/ezdsp5535_v1/c55xx_csl/src/csl_usb.c",line 244,column 12,is_stmt
    1116 000668 0600          B $C$L28  ; |244| 
         00066a 53   
    1117                                                      ; branch occurs ; |244| 
    1118 00066b       $C$DW$L$_USB_init$22$E:
    1119 00066b       $C$L24:    
    1120 00066b       $C$DW$L$_USB_init$23$B:
    1121                      .dwpsn  file "../c5535_bsl_revc/ezdsp5535_v1/c55xx_csl/src/csl_usb.c",line 247,column 7,is_stmt
    1122 00066b ED04          MOV dbl(*SP(#2)), XAR3
         00066d BF   
    1123 00066e F06D          CMP *AR3(#100) == #4, TC1 ; |247| 
         000670 0004 
         000672 0064 
    1124 000674 6674          BCC $C$L25,!TC1 ; |247| 
    1125                                                      ; branchcc occurs ; |247| 
    1126 000676       $C$DW$L$_USB_init$23$E:
    1127 000676       $C$DW$L$_USB_init$24$B:
    1128                      .dwpsn  file "../c5535_bsl_revc/ezdsp5535_v1/c55xx_csl/src/csl_usb.c",line 249,column 8,is_stmt
    1129 000676 ED0C          MOV dbl(*SP(#6)), XAR3
         000678 BF   
    1130 000679 7602          MOV #512, AC0 ; |249| 
         00067b 0008 
    1131 00067d EB79          MOV AC0, dbl(*AR3(short(#4))) ; |249| 
         00067f 08   
    1132                      .dwpsn  file "../c5535_bsl_revc/ezdsp5535_v1/c55xx_csl/src/csl_usb.c",line 250,column 7,is_stmt
    1133 000680 4A3C          B $C$L28  ; |250| 
    1134                                                      ; branch occurs ; |250| 
    1135 000682       $C$DW$L$_USB_init$24$E:
    1136 000682       $C$L25:    
    1137 000682       $C$DW$L$_USB_init$25$B:
    1138                      .dwpsn  file "../c5535_bsl_revc/ezdsp5535_v1/c55xx_csl/src/csl_usb.c",line 253,column 8,is_stmt
    1139 000682 ED0C          MOV dbl(*SP(#6)), XAR3
TMS320C55x Assembler PC v4.4.1 Tue Oct 02 02:33:44 2018

Tools Copyright (c) 1996-2012 Texas Instruments Incorporated
csl_usb.asm                                                          PAGE   31

         000684 BF   
    1140 000685 7600          MOV #64, AC0 ; |253| 
         000687 4008 
    1141 000689 EB79          MOV AC0, dbl(*AR3(short(#4))) ; |253| 
         00068b 08   
    1142                      .dwpsn  file "../c5535_bsl_revc/ezdsp5535_v1/c55xx_csl/src/csl_usb.c",line 256,column 12,is_stmt
    1143 00068c 4A30          B $C$L28  ; |256| 
    1144                                                      ; branch occurs ; |256| 
    1145 00068e       $C$DW$L$_USB_init$25$E:
    1146 00068e       $C$L26:    
    1147 00068e       $C$DW$L$_USB_init$27$B:
    1148                      .dwpsn  file "../c5535_bsl_revc/ezdsp5535_v1/c55xx_csl/src/csl_usb.c",line 204,column 5,is_stmt
    1149              
    1150 00068e ED10          MOV dbl(*SP(#8)), AC0 ; |204| 
         000690 08   
    1151 000691 3D21  ||      MOV #2, AC1 ; |204| 
    1152              
    1153 000693 1214          CMP AC0 > AC1, TC1 ; |204| 
         000695 00   
    1154 000696 0464          BCC $C$L27,TC1 ; |204| 
         000698 15   
    1155                                                      ; branchcc occurs ; |204| 
    1156 000699       $C$DW$L$_USB_init$27$E:
    1157 000699       $C$DW$L$_USB_init$28$B:
    1158 000699 1200          CMP AC0 == AC1, TC1 ; |204| 
         00069b 10   
    1159 00069c 0464          BCC $C$L20,TC1 ; |204| 
         00069e 82   
    1160                                                      ; branchcc occurs ; |204| 
    1161 00069f       $C$DW$L$_USB_init$28$E:
    1162 00069f       $C$DW$L$_USB_init$29$B:
    1163 00069f 6D00          BCC $C$L17,AC0 == #0 ; |204| 
         0006a1 FF4C 
    1164                                                      ; branchcc occurs ; |204| 
    1165 0006a3       $C$DW$L$_USB_init$29$E:
    1166 0006a3       $C$DW$L$_USB_init$30$B:
    1167 0006a3 3C11          MOV #1, AC1 ; |204| 
    1168 0006a5 1200          CMPU AC0 == AC1, TC1 ; |204| 
         0006a7 14   
    1169 0006a8 6D64          BCC $C$L18,TC1 ; |204| 
         0006aa FF50 
    1170                                                      ; branchcc occurs ; |204| 
    1171 0006ac       $C$DW$L$_USB_init$30$E:
    1172 0006ac       $C$DW$L$_USB_init$31$B:
    1173 0006ac 4A10          B $C$L28  ; |204| 
    1174                                                      ; branch occurs ; |204| 
    1175 0006ae       $C$DW$L$_USB_init$31$E:
    1176 0006ae       $C$L27:    
    1177 0006ae       $C$DW$L$_USB_init$32$B:
    1178 0006ae 3C31          MOV #3, AC1 ; |204| 
    1179 0006b0 1200          CMPU AC0 == AC1, TC1 ; |204| 
         0006b2 14   
    1180 0006b3 0464          BCC $C$L22,TC1 ; |204| 
         0006b5 90   
    1181                                                      ; branchcc occurs ; |204| 
TMS320C55x Assembler PC v4.4.1 Tue Oct 02 02:33:44 2018

Tools Copyright (c) 1996-2012 Texas Instruments Incorporated
csl_usb.asm                                                          PAGE   32

    1182 0006b6       $C$DW$L$_USB_init$32$E:
    1183 0006b6       $C$DW$L$_USB_init$33$B:
    1184 0006b6 3C41          MOV #4, AC1 ; |204| 
    1185 0006b8 1200          CMPU AC0 == AC1, TC1 ; |204| 
         0006ba 14   
    1186 0006bb 0464          BCC $C$L24,TC1 ; |204| 
         0006bd AD   
    1187                                                      ; branchcc occurs ; |204| 
    1188 0006be       $C$DW$L$_USB_init$33$E:
    1189 0006be       $C$L28:    
    1190 0006be       $C$DW$L$_USB_init$34$B:
    1191                      .dwpsn  file "../c5535_bsl_revc/ezdsp5535_v1/c55xx_csl/src/csl_usb.c",line 192,column 61,is_stmt
    1192 0006be ED10          MOV dbl(*SP(#8)), AC0 ; |192| 
         0006c0 08   
    1193 0006c1 4010          ADD #1, AC0 ; |192| 
    1194 0006c3 EB10          MOV AC0, dbl(*SP(#8)) ; |192| 
         0006c5 08   
    1195                      .dwpsn  file "../c5535_bsl_revc/ezdsp5535_v1/c55xx_csl/src/csl_usb.c",line 192,column 24,is_stmt
    1196              
    1197 0006c9 3D80          MOV #8, AC0 ; |192| 
    1198 0006c6 ED10  ||      MOV dbl(*SP(#8)), AC1 ; |192| 
         0006c8 18   
    1199              
    1200 0006cb 1214          CMPU AC1 < AC0, TC1 ; |192| 
         0006cd 04   
    1201 0006ce 6D64          BCC $C$L16,TC1 ; |192| 
         0006d0 FEC9 
    1202                                                      ; branchcc occurs ; |192| 
    1203 0006d2       $C$DW$L$_USB_init$34$E:
    1204 0006d2       $C$L29:    
    1205                      .dwpsn  file "../c5535_bsl_revc/ezdsp5535_v1/c55xx_csl/src/csl_usb.c",line 263,column 4,is_stmt
    1206 0006d2 ED04          MOV dbl(*SP(#2)), XAR3
         0006d4 BF   
    1207 0006d5 E675          MOV #1, *AR3(short(#2)) ; |263| 
         0006d7 01   
    1208                      .dwpsn  file "../c5535_bsl_revc/ezdsp5535_v1/c55xx_csl/src/csl_usb.c",line 264,column 4,is_stmt
    1209 0006d8 E608          MOV #0, *SP(#4) ; |264| 
         0006da 00   
    1210 0006db       $C$L30:    
    1211                      .dwpsn  file "../c5535_bsl_revc/ezdsp5535_v1/c55xx_csl/src/csl_usb.c",line 268,column 2,is_stmt
    1212 0006db A408          MOV *SP(#4), T0 ; |268| 
    1213                      .dwpsn  file "../c5535_bsl_revc/ezdsp5535_v1/c55xx_csl/src/csl_usb.c",line 269,column 1,is_stmt
    1214 0006dd 4E0D          AADD #13, SP
    1215                      .dwcfi  cfa_offset, 1
    1216              $C$DW$46        .dwtag  DW_TAG_TI_branch
    1217                      .dwattr $C$DW$46, DW_AT_low_pc(0x00)
    1218                      .dwattr $C$DW$46, DW_AT_TI_return
    1219 0006df 4804          RET
    1220                                                      ; return occurs
    1221              
    1222              $C$DW$47        .dwtag  DW_TAG_TI_loop
    1223                      .dwattr $C$DW$47, DW_AT_name("F:\eZdsp-DBG-sim\tmp1\c55x-sim2\foo\Debug\csl_usb.asm:$C$L16:1:15384728
    1224                      .dwattr $C$DW$47, DW_AT_TI_begin_file("../c5535_bsl_revc/ezdsp5535_v1/c55xx_csl/src/csl_usb.c")
    1225                      .dwattr $C$DW$47, DW_AT_TI_begin_line(0xc0)
    1226                      .dwattr $C$DW$47, DW_AT_TI_end_line(0x105)
TMS320C55x Assembler PC v4.4.1 Tue Oct 02 02:33:44 2018

Tools Copyright (c) 1996-2012 Texas Instruments Incorporated
csl_usb.asm                                                          PAGE   33

    1227              $C$DW$48        .dwtag  DW_TAG_TI_loop_range
    1228                      .dwattr $C$DW$48, DW_AT_low_pc($C$DW$L$_USB_init$11$B)
    1229                      .dwattr $C$DW$48, DW_AT_high_pc($C$DW$L$_USB_init$11$E)
    1230              $C$DW$49        .dwtag  DW_TAG_TI_loop_range
    1231                      .dwattr $C$DW$49, DW_AT_low_pc($C$DW$L$_USB_init$23$B)
    1232                      .dwattr $C$DW$49, DW_AT_high_pc($C$DW$L$_USB_init$23$E)
    1233              $C$DW$50        .dwtag  DW_TAG_TI_loop_range
    1234                      .dwattr $C$DW$50, DW_AT_low_pc($C$DW$L$_USB_init$32$B)
    1235                      .dwattr $C$DW$50, DW_AT_high_pc($C$DW$L$_USB_init$32$E)
    1236              $C$DW$51        .dwtag  DW_TAG_TI_loop_range
    1237                      .dwattr $C$DW$51, DW_AT_low_pc($C$DW$L$_USB_init$20$B)
    1238                      .dwattr $C$DW$51, DW_AT_high_pc($C$DW$L$_USB_init$20$E)
    1239              $C$DW$52        .dwtag  DW_TAG_TI_loop_range
    1240                      .dwattr $C$DW$52, DW_AT_low_pc($C$DW$L$_USB_init$17$B)
    1241                      .dwattr $C$DW$52, DW_AT_high_pc($C$DW$L$_USB_init$17$E)
    1242              $C$DW$53        .dwtag  DW_TAG_TI_loop_range
    1243                      .dwattr $C$DW$53, DW_AT_low_pc($C$DW$L$_USB_init$30$B)
    1244                      .dwattr $C$DW$53, DW_AT_high_pc($C$DW$L$_USB_init$30$E)
    1245              $C$DW$54        .dwtag  DW_TAG_TI_loop_range
    1246                      .dwattr $C$DW$54, DW_AT_low_pc($C$DW$L$_USB_init$14$B)
    1247                      .dwattr $C$DW$54, DW_AT_high_pc($C$DW$L$_USB_init$14$E)
    1248              $C$DW$55        .dwtag  DW_TAG_TI_loop_range
    1249                      .dwattr $C$DW$55, DW_AT_low_pc($C$DW$L$_USB_init$27$B)
    1250                      .dwattr $C$DW$55, DW_AT_high_pc($C$DW$L$_USB_init$27$E)
    1251              $C$DW$56        .dwtag  DW_TAG_TI_loop_range
    1252                      .dwattr $C$DW$56, DW_AT_low_pc($C$DW$L$_USB_init$28$B)
    1253                      .dwattr $C$DW$56, DW_AT_high_pc($C$DW$L$_USB_init$28$E)
    1254              $C$DW$57        .dwtag  DW_TAG_TI_loop_range
    1255                      .dwattr $C$DW$57, DW_AT_low_pc($C$DW$L$_USB_init$29$B)
    1256                      .dwattr $C$DW$57, DW_AT_high_pc($C$DW$L$_USB_init$29$E)
    1257              $C$DW$58        .dwtag  DW_TAG_TI_loop_range
    1258                      .dwattr $C$DW$58, DW_AT_low_pc($C$DW$L$_USB_init$13$B)
    1259                      .dwattr $C$DW$58, DW_AT_high_pc($C$DW$L$_USB_init$13$E)
    1260              $C$DW$59        .dwtag  DW_TAG_TI_loop_range
    1261                      .dwattr $C$DW$59, DW_AT_low_pc($C$DW$L$_USB_init$15$B)
    1262                      .dwattr $C$DW$59, DW_AT_high_pc($C$DW$L$_USB_init$15$E)
    1263              $C$DW$60        .dwtag  DW_TAG_TI_loop_range
    1264                      .dwattr $C$DW$60, DW_AT_low_pc($C$DW$L$_USB_init$16$B)
    1265                      .dwattr $C$DW$60, DW_AT_high_pc($C$DW$L$_USB_init$16$E)
    1266              $C$DW$61        .dwtag  DW_TAG_TI_loop_range
    1267                      .dwattr $C$DW$61, DW_AT_low_pc($C$DW$L$_USB_init$18$B)
    1268                      .dwattr $C$DW$61, DW_AT_high_pc($C$DW$L$_USB_init$18$E)
    1269              $C$DW$62        .dwtag  DW_TAG_TI_loop_range
    1270                      .dwattr $C$DW$62, DW_AT_low_pc($C$DW$L$_USB_init$19$B)
    1271                      .dwattr $C$DW$62, DW_AT_high_pc($C$DW$L$_USB_init$19$E)
    1272              $C$DW$63        .dwtag  DW_TAG_TI_loop_range
    1273                      .dwattr $C$DW$63, DW_AT_low_pc($C$DW$L$_USB_init$21$B)
    1274                      .dwattr $C$DW$63, DW_AT_high_pc($C$DW$L$_USB_init$21$E)
    1275              $C$DW$64        .dwtag  DW_TAG_TI_loop_range
    1276                      .dwattr $C$DW$64, DW_AT_low_pc($C$DW$L$_USB_init$22$B)
    1277                      .dwattr $C$DW$64, DW_AT_high_pc($C$DW$L$_USB_init$22$E)
    1278              $C$DW$65        .dwtag  DW_TAG_TI_loop_range
    1279                      .dwattr $C$DW$65, DW_AT_low_pc($C$DW$L$_USB_init$24$B)
    1280                      .dwattr $C$DW$65, DW_AT_high_pc($C$DW$L$_USB_init$24$E)
    1281              $C$DW$66        .dwtag  DW_TAG_TI_loop_range
TMS320C55x Assembler PC v4.4.1 Tue Oct 02 02:33:44 2018

Tools Copyright (c) 1996-2012 Texas Instruments Incorporated
csl_usb.asm                                                          PAGE   34

    1282                      .dwattr $C$DW$66, DW_AT_low_pc($C$DW$L$_USB_init$25$B)
    1283                      .dwattr $C$DW$66, DW_AT_high_pc($C$DW$L$_USB_init$25$E)
    1284              $C$DW$67        .dwtag  DW_TAG_TI_loop_range
    1285                      .dwattr $C$DW$67, DW_AT_low_pc($C$DW$L$_USB_init$31$B)
    1286                      .dwattr $C$DW$67, DW_AT_high_pc($C$DW$L$_USB_init$31$E)
    1287              $C$DW$68        .dwtag  DW_TAG_TI_loop_range
    1288                      .dwattr $C$DW$68, DW_AT_low_pc($C$DW$L$_USB_init$33$B)
    1289                      .dwattr $C$DW$68, DW_AT_high_pc($C$DW$L$_USB_init$33$E)
    1290              $C$DW$69        .dwtag  DW_TAG_TI_loop_range
    1291                      .dwattr $C$DW$69, DW_AT_low_pc($C$DW$L$_USB_init$34$B)
    1292                      .dwattr $C$DW$69, DW_AT_high_pc($C$DW$L$_USB_init$34$E)
    1293                      .dwendtag $C$DW$47
    1294              
    1295              
    1296              $C$DW$70        .dwtag  DW_TAG_TI_loop
    1297                      .dwattr $C$DW$70, DW_AT_name("F:\eZdsp-DBG-sim\tmp1\c55x-sim2\foo\Debug\csl_usb.asm:$C$L14:1:15384728
    1298                      .dwattr $C$DW$70, DW_AT_TI_begin_file("../c5535_bsl_revc/ezdsp5535_v1/c55xx_csl/src/csl_usb.c")
    1299                      .dwattr $C$DW$70, DW_AT_TI_begin_line(0x7f)
    1300                      .dwattr $C$DW$70, DW_AT_TI_end_line(0x7f)
    1301              $C$DW$71        .dwtag  DW_TAG_TI_loop_range
    1302                      .dwattr $C$DW$71, DW_AT_low_pc($C$DW$L$_USB_init$9$B)
    1303                      .dwattr $C$DW$71, DW_AT_high_pc($C$DW$L$_USB_init$9$E)
    1304                      .dwendtag $C$DW$70
    1305              
    1306              
    1307              $C$DW$72        .dwtag  DW_TAG_TI_loop
    1308                      .dwattr $C$DW$72, DW_AT_name("F:\eZdsp-DBG-sim\tmp1\c55x-sim2\foo\Debug\csl_usb.asm:$C$L12:1:15384728
    1309                      .dwattr $C$DW$72, DW_AT_TI_begin_file("../c5535_bsl_revc/ezdsp5535_v1/c55xx_csl/src/csl_usb.c")
    1310                      .dwattr $C$DW$72, DW_AT_TI_begin_line(0x6d)
    1311                      .dwattr $C$DW$72, DW_AT_TI_end_line(0x6d)
    1312              $C$DW$73        .dwtag  DW_TAG_TI_loop_range
    1313                      .dwattr $C$DW$73, DW_AT_low_pc($C$DW$L$_USB_init$7$B)
    1314                      .dwattr $C$DW$73, DW_AT_high_pc($C$DW$L$_USB_init$7$E)
    1315                      .dwendtag $C$DW$72
    1316              
    1317                      .dwattr $C$DW$37, DW_AT_TI_end_file("../c5535_bsl_revc/ezdsp5535_v1/c55xx_csl/src/csl_usb.c")
    1318                      .dwattr $C$DW$37, DW_AT_TI_end_line(0x10d)
    1319                      .dwattr $C$DW$37, DW_AT_TI_end_column(0x01)
    1320                      .dwendentry
    1321                      .dwendtag $C$DW$37
    1322              
    1323 0006e1               .sect   ".text"
    1324                      .align 4
    1325                      .global _USB_resetDev
    1326              
    1327              $C$DW$74        .dwtag  DW_TAG_subprogram, DW_AT_name("USB_resetDev")
    1328                      .dwattr $C$DW$74, DW_AT_low_pc(_USB_resetDev)
    1329                      .dwattr $C$DW$74, DW_AT_high_pc(0x00)
    1330                      .dwattr $C$DW$74, DW_AT_TI_symbol_name("_USB_resetDev")
    1331                      .dwattr $C$DW$74, DW_AT_external
    1332                      .dwattr $C$DW$74, DW_AT_type(*$C$DW$T$75)
    1333                      .dwattr $C$DW$74, DW_AT_TI_begin_file("../c5535_bsl_revc/ezdsp5535_v1/c55xx_csl/src/csl_usb.c")
    1334                      .dwattr $C$DW$74, DW_AT_TI_begin_line(0x136)
    1335                      .dwattr $C$DW$74, DW_AT_TI_begin_column(0x0c)
    1336                      .dwattr $C$DW$74, DW_AT_TI_max_frame_size(0x08)
TMS320C55x Assembler PC v4.4.1 Tue Oct 02 02:33:44 2018

Tools Copyright (c) 1996-2012 Texas Instruments Incorporated
csl_usb.asm                                                          PAGE   35

    1337                      .dwpsn  file "../c5535_bsl_revc/ezdsp5535_v1/c55xx_csl/src/csl_usb.c",line 311,column 1,is_stmt,addre
    1338              
    1339                      .dwfde $C$DW$CIE, _USB_resetDev
    1340              $C$DW$75        .dwtag  DW_TAG_formal_parameter, DW_AT_name("devNum")
    1341                      .dwattr $C$DW$75, DW_AT_TI_symbol_name("_devNum")
    1342                      .dwattr $C$DW$75, DW_AT_type(*$C$DW$T$68)
    1343                      .dwattr $C$DW$75, DW_AT_location[DW_OP_reg12]
    1344              ;*******************************************************************************
    1345              ;* FUNCTION NAME: USB_resetDev                                                 *
    1346              ;*                                                                             *
    1347              ;*   Function Uses Regs : AC0,AC0,T0,AR1,AR3,XAR3,SP,CARRY,M40,SATA,SATD,RDM,  *
    1348              ;*                        FRCT,SMUL                                            *
    1349              ;*   Stack Frame        : Compact (No Frame Pointer, w/ debug)                 *
    1350              ;*   Total Frame Size   : 8 words                                              *
    1351              ;*                        (2 return address/alignment)                         *
    1352              ;*                        (6 local values)                                     *
    1353              ;*   Min System Stack   : 1 word                                               *
    1354              ;*******************************************************************************
    1355 0006e4       _USB_resetDev:
    1356                      .dwcfi  cfa_offset, 1
    1357                      .dwcfi  save_reg_to_mem, 91, -1
    1358 0006e4 4EF9          AADD #-7, SP
    1359                      .dwcfi  cfa_offset, 8
    1360              $C$DW$76        .dwtag  DW_TAG_variable, DW_AT_name("devNum")
    1361                      .dwattr $C$DW$76, DW_AT_TI_symbol_name("_devNum")
    1362                      .dwattr $C$DW$76, DW_AT_type(*$C$DW$T$68)
    1363                      .dwattr $C$DW$76, DW_AT_location[DW_OP_bregx 0x24 0]
    1364              $C$DW$77        .dwtag  DW_TAG_variable, DW_AT_name("status")
    1365                      .dwattr $C$DW$77, DW_AT_TI_symbol_name("_status")
    1366                      .dwattr $C$DW$77, DW_AT_type(*$C$DW$T$75)
    1367                      .dwattr $C$DW$77, DW_AT_location[DW_OP_bregx 0x24 1]
    1368              $C$DW$78        .dwtag  DW_TAG_variable, DW_AT_name("saveIndex")
    1369                      .dwattr $C$DW$78, DW_AT_TI_symbol_name("_saveIndex")
    1370                      .dwattr $C$DW$78, DW_AT_type(*$C$DW$T$19)
    1371                      .dwattr $C$DW$78, DW_AT_location[DW_OP_bregx 0x24 2]
    1372              $C$DW$79        .dwtag  DW_TAG_variable, DW_AT_name("pContext")
    1373                      .dwattr $C$DW$79, DW_AT_TI_symbol_name("_pContext")
    1374                      .dwattr $C$DW$79, DW_AT_type(*$C$DW$T$142)
    1375                      .dwattr $C$DW$79, DW_AT_location[DW_OP_bregx 0x24 4]
    1376 0006e6 C400          MOV T0, *SP(#0) ; |311| 
    1377                      .dwpsn  file "../c5535_bsl_revc/ezdsp5535_v1/c55xx_csl/src/csl_usb.c",line 316,column 2,is_stmt
    1378 0006e8 E602          MOV #0, *SP(#1) ; |316| 
         0006ea 00   
    1379                      .dwpsn  file "../c5535_bsl_revc/ezdsp5535_v1/c55xx_csl/src/csl_usb.c",line 317,column 2,is_stmt
    1380 0006eb E604          MOV #0, *SP(#2) ; |317| 
         0006ed 00   
    1381                      .dwpsn  file "../c5535_bsl_revc/ezdsp5535_v1/c55xx_csl/src/csl_usb.c",line 318,column 2,is_stmt
    1382 0006ee EC31          AMOV #_gUsbContext, XAR3 ; |318| 
         0006f0 BE00 
         0006f2 0002-
    1383 0006f4 EB08          MOV XAR3, dbl(*SP(#4))
         0006f6 B5   
    1384                      .dwpsn  file "../c5535_bsl_revc/ezdsp5535_v1/c55xx_csl/src/csl_usb.c",line 320,column 2,is_stmt
    1385 0006f7 A900          MOV *SP(#0), AR1 ; |320| 
    1386 0006f9 6289          BCC $C$L31,AR1 == #0 ; |320| 
TMS320C55x Assembler PC v4.4.1 Tue Oct 02 02:33:44 2018

Tools Copyright (c) 1996-2012 Texas Instruments Incorporated
csl_usb.asm                                                          PAGE   36

    1387                                                      ; branchcc occurs ; |320| 
    1388                      .dwpsn  file "../c5535_bsl_revc/ezdsp5535_v1/c55xx_csl/src/csl_usb.c",line 322,column 3,is_stmt
    1389 0006fb 3E64          MOV #-6, T0
    1390 0006fd 0602          B $C$L32  ; |322| 
         0006ff 10   
    1391                                                      ; branch occurs ; |322| 
    1392 000700       $C$L31:    
    1393                      .dwpsn  file "../c5535_bsl_revc/ezdsp5535_v1/c55xx_csl/src/csl_usb.c",line 326,column 2,is_stmt
    1394 000700 7604          MOV #1038, T0 ; |326| 
         000702 0E48 
    1395 000704 AB31          MOV *(#_usbRegisters), AR3 ; |326| 
         000706 0000 
         000708 00-  
    1396 000709 A96B          MOV port(*AR3(T0)), AR1 ; |326| 
         00070b 99   
    1397 00070c C904          MOV AR1, *SP(#2) ; |326| 
    1398                      .dwpsn  file "../c5535_bsl_revc/ezdsp5535_v1/c55xx_csl/src/csl_usb.c",line 328,column 2,is_stmt
    1399 00070e ED08          MOV dbl(*SP(#4)), XAR3
         000710 BF   
    1400 000711 E66D          MOV #1, *AR3(#23) ; |328| 
         000713 0100 
         000715 17   
    1401                      .dwpsn  file "../c5535_bsl_revc/ezdsp5535_v1/c55xx_csl/src/csl_usb.c",line 332,column 2,is_stmt
    1402 000716 AB31          MOV *(#_usbRegisters), AR3 ; |332| 
         000718 0000 
         00071a 00-  
    1403 00071b A96B          MOV port(*AR3(T0)), AR1 ; |332| 
         00071d 99   
    1404 00071e 7DFF          AND #0xfff0, AR1, AC0 ; |332| 
         000720 F009 
    1405 000722 C06B          MOV AC0, port(*AR3(T0)) ; |332| 
         000724 9A   
    1406                      .dwpsn  file "../c5535_bsl_revc/ezdsp5535_v1/c55xx_csl/src/csl_usb.c",line 336,column 2,is_stmt
    1407 000725 AB31          MOV *(#_usbRegisters), AR3 ; |336| 
         000727 0000 
         000729 00-  
    1408 00072a A96B          MOV port(*AR3(T0)), AR1 ; |336| 
         00072c 99   
    1409 00072d 7DFF          AND #0xfff0, AR1, AC0 ; |336| 
         00072f F009 
    1410 000731 C06B          MOV AC0, port(*AR3(T0)) ; |336| 
         000733 9A   
    1411                      .dwpsn  file "../c5535_bsl_revc/ezdsp5535_v1/c55xx_csl/src/csl_usb.c",line 340,column 2,is_stmt
    1412 000734 7604          MOV #1042, T0 ; |340| 
         000736 1248 
    1413 000738 AB31          MOV *(#_usbRegisters), AR3 ; |340| 
         00073a 0000 
         00073c 00-  
    1414 00073d A96B          MOV port(*AR3(T0)), AR1 ; |340| 
         00073f 99   
    1415 000740 EC10          BCLR @#8, AR1 ; |340| 
         000742 92   
    1416 000743 EC10          BSET @#8, AR1 ; |340| 
         000745 90   
    1417 000746 C96B          MOV AR1, port(*AR3(T0)) ; |340| 
TMS320C55x Assembler PC v4.4.1 Tue Oct 02 02:33:44 2018

Tools Copyright (c) 1996-2012 Texas Instruments Incorporated
csl_usb.asm                                                          PAGE   37

         000748 9A   
    1418                      .dwpsn  file "../c5535_bsl_revc/ezdsp5535_v1/c55xx_csl/src/csl_usb.c",line 344,column 2,is_stmt
    1419 000749 7604          MOV #1038, T0 ; |344| 
         00074b 0E48 
    1420 00074d AB31          MOV *(#_usbRegisters), AR3 ; |344| 
         00074f 0000 
         000751 00-  
    1421 000752 A96B          MOV port(*AR3(T0)), AR1 ; |344| 
         000754 99   
    1422 000755 7DFF          AND #0xfff0, AR1, AC0 ; |344| 
         000757 F009 
    1423 000759 C06B          MOV AC0, port(*AR3(T0)) ; |344| 
         00075b 9A   
    1424                      .dwpsn  file "../c5535_bsl_revc/ezdsp5535_v1/c55xx_csl/src/csl_usb.c",line 348,column 2,is_stmt
    1425 00075c AB31          MOV *(#_usbRegisters), AR3 ; |348| 
         00075e 0000 
         000760 00-  
    1426 000761 A96B          MOV port(*AR3(T0)), AR1 ; |348| 
         000763 99   
    1427 000764 7DFF          AND #0xfff0, AR1, AC0 ; |348| 
         000766 F009 
    1428 000768 EC00          BSET @#0, AC0 ; |348| 
         00076a 00   
    1429 00076b C06B          MOV AC0, port(*AR3(T0)) ; |348| 
         00076d 9A   
    1430                      .dwpsn  file "../c5535_bsl_revc/ezdsp5535_v1/c55xx_csl/src/csl_usb.c",line 352,column 2,is_stmt
    1431 00076e 7604          MOV #1042, T0 ; |352| 
         000770 1248 
    1432 000772 AB31          MOV *(#_usbRegisters), AR3 ; |352| 
         000774 0000 
         000776 00-  
    1433 000777 A96B          MOV port(*AR3(T0)), AR1 ; |352| 
         000779 99   
    1434 00077a EC06          BCLR @#3, AR1 ; |352| 
         00077c 92   
    1435 00077d EC06          BSET @#3, AR1 ; |352| 
         00077f 90   
    1436 000780 C96B          MOV AR1, port(*AR3(T0)) ; |352| 
         000782 9A   
    1437                      .dwpsn  file "../c5535_bsl_revc/ezdsp5535_v1/c55xx_csl/src/csl_usb.c",line 355,column 5,is_stmt
    1438 000783 7604          MOV #1046, T0 ; |355| 
         000785 1648 
    1439 000787 AB31          MOV *(#_usbRegisters), AR3 ; |355| 
         000789 0000 
         00078b 00-  
    1440 00078c A96B          MOV port(*AR3(T0)), AR1 ; |355| 
         00078e 99   
    1441 00078f EC08          BCLR @#4, AR1 ; |355| 
         000791 92   
    1442 000792 EC08          BSET @#4, AR1 ; |355| 
         000794 90   
    1443 000795 C96B          MOV AR1, port(*AR3(T0)) ; |355| 
         000797 9A   
    1444                      .dwpsn  file "../c5535_bsl_revc/ezdsp5535_v1/c55xx_csl/src/csl_usb.c",line 359,column 2,is_stmt
    1445 000798 7604          MOV #1038, T0 ; |359| 
TMS320C55x Assembler PC v4.4.1 Tue Oct 02 02:33:44 2018

Tools Copyright (c) 1996-2012 Texas Instruments Incorporated
csl_usb.asm                                                          PAGE   38

         00079a 0E48 
    1446 00079c AB31          MOV *(#_usbRegisters), AR3 ; |359| 
         00079e 0000 
         0007a0 00-  
    1447 0007a1 A96B          MOV port(*AR3(T0)), AR1 ; |359| 
         0007a3 99   
    1448 0007a4 7DFF          AND #0xfff0, AR1, AC0 ; |359| 
         0007a6 F009 
    1449 0007a8 C06B          MOV AC0, port(*AR3(T0)) ; |359| 
         0007aa 9A   
    1450                      .dwpsn  file "../c5535_bsl_revc/ezdsp5535_v1/c55xx_csl/src/csl_usb.c",line 363,column 2,is_stmt
    1451 0007ab AB31          MOV *(#_usbRegisters), AR3 ; |363| 
         0007ad 0000 
         0007af 00-  
    1452 0007b0 A96B          MOV port(*AR3(T0)), AR1 ; |363| 
         0007b2 99   
    1453 0007b3 7DFF          AND #0xfff0, AR1, AC0 ; |363| 
         0007b5 F009 
    1454 0007b7 EC02          BSET @#1, AC0 ; |363| 
         0007b9 00   
    1455 0007ba C06B          MOV AC0, port(*AR3(T0)) ; |363| 
         0007bc 9A   
    1456                      .dwpsn  file "../c5535_bsl_revc/ezdsp5535_v1/c55xx_csl/src/csl_usb.c",line 367,column 5,is_stmt
    1457 0007bd 7604          MOV #1042, T0 ; |367| 
         0007bf 1248 
    1458 0007c1 AB31          MOV *(#_usbRegisters), AR3 ; |367| 
         0007c3 0000 
         0007c5 00-  
    1459 0007c6 A96B          MOV port(*AR3(T0)), AR1 ; |367| 
         0007c8 99   
    1460 0007c9 EC06          BCLR @#3, AR1 ; |367| 
         0007cb 92   
    1461 0007cc EC06          BSET @#3, AR1 ; |367| 
         0007ce 90   
    1462 0007cf C96B          MOV AR1, port(*AR3(T0)) ; |367| 
         0007d1 9A   
    1463                      .dwpsn  file "../c5535_bsl_revc/ezdsp5535_v1/c55xx_csl/src/csl_usb.c",line 370,column 2,is_stmt
    1464 0007d2 7604          MOV #1046, T0 ; |370| 
         0007d4 1648 
    1465 0007d6 AB31          MOV *(#_usbRegisters), AR3 ; |370| 
         0007d8 0000 
         0007da 00-  
    1466 0007db A96B          MOV port(*AR3(T0)), AR1 ; |370| 
         0007dd 99   
    1467 0007de EC08          BCLR @#4, AR1 ; |370| 
         0007e0 92   
    1468 0007e1 EC08          BSET @#4, AR1 ; |370| 
         0007e3 90   
    1469 0007e4 C96B          MOV AR1, port(*AR3(T0)) ; |370| 
         0007e6 9A   
    1470                      .dwpsn  file "../c5535_bsl_revc/ezdsp5535_v1/c55xx_csl/src/csl_usb.c",line 374,column 2,is_stmt
    1471 0007e7 7604          MOV #1038, T0 ; |374| 
         0007e9 0E48 
    1472 0007eb AB31          MOV *(#_usbRegisters), AR3 ; |374| 
         0007ed 0000 
TMS320C55x Assembler PC v4.4.1 Tue Oct 02 02:33:44 2018

Tools Copyright (c) 1996-2012 Texas Instruments Incorporated
csl_usb.asm                                                          PAGE   39

         0007ef 00-  
    1473 0007f0 A96B          MOV port(*AR3(T0)), AR1 ; |374| 
         0007f2 99   
    1474 0007f3 7DFF          AND #0xfff0, AR1, AC0 ; |374| 
         0007f5 F009 
    1475 0007f7 C06B          MOV AC0, port(*AR3(T0)) ; |374| 
         0007f9 9A   
    1476                      .dwpsn  file "../c5535_bsl_revc/ezdsp5535_v1/c55xx_csl/src/csl_usb.c",line 378,column 2,is_stmt
    1477 0007fa AB31          MOV *(#_usbRegisters), AR3 ; |378| 
         0007fc 0000 
         0007fe 00-  
    1478 0007ff A96B          MOV port(*AR3(T0)), AR1 ; |378| 
         000801 99   
    1479 000802 7DFF          AND #0xfff0, AR1, AR1 ; |378| 
         000804 F099 
    1480 000806 1A03          OR #0x0003, AR1, AR1 ; |378| 
         000808 99   
    1481 000809 C96B          MOV AR1, port(*AR3(T0)) ; |378| 
         00080b 9A   
    1482                      .dwpsn  file "../c5535_bsl_revc/ezdsp5535_v1/c55xx_csl/src/csl_usb.c",line 382,column 5,is_stmt
    1483 00080c 7604          MOV #1042, T0 ; |382| 
         00080e 1248 
    1484 000810 AB31          MOV *(#_usbRegisters), AR3 ; |382| 
         000812 0000 
         000814 00-  
    1485 000815 A96B          MOV port(*AR3(T0)), AR1 ; |382| 
         000817 99   
    1486 000818 EC06          BCLR @#3, AR1 ; |382| 
         00081a 92   
    1487 00081b EC06          BSET @#3, AR1 ; |382| 
         00081d 90   
    1488 00081e C96B          MOV AR1, port(*AR3(T0)) ; |382| 
         000820 9A   
    1489                      .dwpsn  file "../c5535_bsl_revc/ezdsp5535_v1/c55xx_csl/src/csl_usb.c",line 385,column 2,is_stmt
    1490 000821 7604          MOV #1046, T0 ; |385| 
         000823 1648 
    1491 000825 AB31          MOV *(#_usbRegisters), AR3 ; |385| 
         000827 0000 
         000829 00-  
    1492 00082a A96B          MOV port(*AR3(T0)), AR1 ; |385| 
         00082c 99   
    1493 00082d EC08          BCLR @#4, AR1 ; |385| 
         00082f 92   
    1494 000830 EC08          BSET @#4, AR1 ; |385| 
         000832 90   
    1495 000833 C96B          MOV AR1, port(*AR3(T0)) ; |385| 
         000835 9A   
    1496                      .dwpsn  file "../c5535_bsl_revc/ezdsp5535_v1/c55xx_csl/src/csl_usb.c",line 389,column 2,is_stmt
    1497 000836 7604          MOV #1038, T0 ; |389| 
         000838 0E48 
    1498 00083a AB31          MOV *(#_usbRegisters), AR3 ; |389| 
         00083c 0000 
         00083e 00-  
    1499 00083f A96B          MOV port(*AR3(T0)), AR1 ; |389| 
         000841 99   
TMS320C55x Assembler PC v4.4.1 Tue Oct 02 02:33:44 2018

Tools Copyright (c) 1996-2012 Texas Instruments Incorporated
csl_usb.asm                                                          PAGE   40

    1500 000842 7DFF          AND #0xfff0, AR1, AC0 ; |389| 
         000844 F009 
    1501 000846 C06B          MOV AC0, port(*AR3(T0)) ; |389| 
         000848 9A   
    1502                      .dwpsn  file "../c5535_bsl_revc/ezdsp5535_v1/c55xx_csl/src/csl_usb.c",line 393,column 2,is_stmt
    1503 000849 AB31          MOV *(#_usbRegisters), AR3 ; |393| 
         00084b 0000 
         00084d 00-  
    1504 00084e A96B          MOV port(*AR3(T0)), AR1 ; |393| 
         000850 99   
    1505 000851 7DFF          AND #0xfff0, AR1, AC0 ; |393| 
         000853 F009 
    1506 000855 EC04          BSET @#2, AC0 ; |393| 
         000857 00   
    1507 000858 C06B          MOV AC0, port(*AR3(T0)) ; |393| 
         00085a 9A   
    1508                      .dwpsn  file "../c5535_bsl_revc/ezdsp5535_v1/c55xx_csl/src/csl_usb.c",line 397,column 5,is_stmt
    1509 00085b 7604          MOV #1042, T0 ; |397| 
         00085d 1248 
    1510 00085f AB31          MOV *(#_usbRegisters), AR3 ; |397| 
         000861 0000 
         000863 00-  
    1511 000864 A96B          MOV port(*AR3(T0)), AR1 ; |397| 
         000866 99   
    1512 000867 EC06          BCLR @#3, AR1 ; |397| 
         000869 92   
    1513 00086a EC06          BSET @#3, AR1 ; |397| 
         00086c 90   
    1514 00086d C96B          MOV AR1, port(*AR3(T0)) ; |397| 
         00086f 9A   
    1515                      .dwpsn  file "../c5535_bsl_revc/ezdsp5535_v1/c55xx_csl/src/csl_usb.c",line 400,column 2,is_stmt
    1516 000870 7604          MOV #1046, T0 ; |400| 
         000872 1648 
    1517 000874 AB31          MOV *(#_usbRegisters), AR3 ; |400| 
         000876 0000 
         000878 00-  
    1518 000879 A96B          MOV port(*AR3(T0)), AR1 ; |400| 
         00087b 99   
    1519 00087c EC08          BCLR @#4, AR1 ; |400| 
         00087e 92   
    1520 00087f EC08          BSET @#4, AR1 ; |400| 
         000881 90   
    1521 000882 C96B          MOV AR1, port(*AR3(T0)) ; |400| 
         000884 9A   
    1522                      .dwpsn  file "../c5535_bsl_revc/ezdsp5535_v1/c55xx_csl/src/csl_usb.c",line 405,column 2,is_stmt
    1523 000885 7604          MOV #1030, T0 ; |405| 
         000887 0648 
    1524 000889 AB31          MOV *(#_usbRegisters), AR3 ; |405| 
         00088b 0000 
         00088d 00-  
    1525 00088e A96B          MOV port(*AR3(T0)), AR1 ; |405| 
         000890 99   
    1526 000891 EC00          BCLR @#0, AR1 ; |405| 
         000893 92   
    1527 000894 EC00          BSET @#0, AR1 ; |405| 
TMS320C55x Assembler PC v4.4.1 Tue Oct 02 02:33:44 2018

Tools Copyright (c) 1996-2012 Texas Instruments Incorporated
csl_usb.asm                                                          PAGE   41

         000896 90   
    1528 000897 C96B          MOV AR1, port(*AR3(T0)) ; |405| 
         000899 9A   
    1529                      .dwpsn  file "../c5535_bsl_revc/ezdsp5535_v1/c55xx_csl/src/csl_usb.c",line 408,column 2,is_stmt
    1530 00089a AB31          MOV *(#_usbRegisters), AR3 ; |408| 
         00089c 0000 
         00089e 00-  
    1531 00089f A96B          MOV port(*AR3(T0)), AR1 ; |408| 
         0008a1 99   
    1532 0008a2 EC02          BCLR @#1, AR1 ; |408| 
         0008a4 92   
    1533 0008a5 EC02          BSET @#1, AR1 ; |408| 
         0008a7 90   
    1534 0008a8 C96B          MOV AR1, port(*AR3(T0)) ; |408| 
         0008aa 9A   
    1535                      .dwpsn  file "../c5535_bsl_revc/ezdsp5535_v1/c55xx_csl/src/csl_usb.c",line 411,column 2,is_stmt
    1536 0008ab 7604          MOV #1033, T0 ; |411| 
         0008ad 0948 
    1537 0008af AB31          MOV *(#_usbRegisters), AR3 ; |411| 
         0008b1 0000 
         0008b3 00-  
    1538 0008b4 A96B          MOV port(*AR3(T0)), AR1 ; |411| 
         0008b6 99   
    1539 0008b7 EC04          BCLR @#2, AR1 ; |411| 
         0008b9 92   
    1540 0008ba EC04          BSET @#2, AR1 ; |411| 
         0008bc 90   
    1541 0008bd C96B          MOV AR1, port(*AR3(T0)) ; |411| 
         0008bf 9A   
    1542                      .dwpsn  file "../c5535_bsl_revc/ezdsp5535_v1/c55xx_csl/src/csl_usb.c",line 414,column 5,is_stmt
    1543 0008c0 7604          MOV #1030, T0 ; |414| 
         0008c2 0648 
    1544 0008c4 AB31          MOV *(#_usbRegisters), AR3 ; |414| 
         0008c6 0000 
         0008c8 00-  
    1545 0008c9 A96B          MOV port(*AR3(T0)), AR1 ; |414| 
         0008cb 99   
    1546 0008cc EC06          BCLR @#3, AR1 ; |414| 
         0008ce 92   
    1547 0008cf EC06          BSET @#3, AR1 ; |414| 
         0008d1 90   
    1548 0008d2 C96B          MOV AR1, port(*AR3(T0)) ; |414| 
         0008d4 9A   
    1549                      .dwpsn  file "../c5535_bsl_revc/ezdsp5535_v1/c55xx_csl/src/csl_usb.c",line 418,column 2,is_stmt
    1550 0008d5 7604          MOV #1034, AR1 ; |418| 
         0008d7 0A98 
    1551 0008d9 D631          ADD *(#_usbRegisters), AR1, AR3 ; |418| 
         0008db B900 
         0008dd 0000-
    1552 0008df F561          OR #0x7fff, port(*AR3) ; |418| 
         0008e1 7FFF 
         0008e3 9A   
    1553                      .dwpsn  file "../c5535_bsl_revc/ezdsp5535_v1/c55xx_csl/src/csl_usb.c",line 419,column 2,is_stmt
    1554 0008e4 7600          MOV #48, T0 ; |419| 
         0008e6 3048 
TMS320C55x Assembler PC v4.4.1 Tue Oct 02 02:33:44 2018

Tools Copyright (c) 1996-2012 Texas Instruments Incorporated
csl_usb.asm                                                          PAGE   42

    1555 0008e8 AB31          MOV *(#_usbRegisters), AR3 ; |419| 
         0008ea 0000 
         0008ec 00-  
    1556 0008ed FB6B          MOV #65535, port(*AR3(T0)) ; |419| 
         0008ef FFFF 
         0008f1 9A   
    1557                      .dwpsn  file "../c5535_bsl_revc/ezdsp5535_v1/c55xx_csl/src/csl_usb.c",line 420,column 5,is_stmt
    1558 0008f2 7600          MOV #49, T0 ; |420| 
         0008f4 3148 
    1559 0008f6 AB31          MOV *(#_usbRegisters), AR3 ; |420| 
         0008f8 0000 
         0008fa 00-  
    1560 0008fb FB6B          MOV #65527, port(*AR3(T0)) ; |420| 
         0008fd FFF7 
         0008ff 9A   
    1561                      .dwpsn  file "../c5535_bsl_revc/ezdsp5535_v1/c55xx_csl/src/csl_usb.c",line 423,column 2,is_stmt
    1562 000900 7604          MOV #1038, T0 ; |423| 
         000902 0E48 
    1563 000904 AB31          MOV *(#_usbRegisters), AR3 ; |423| 
         000906 0000 
         000908 00-  
    1564 000909 A904          MOV *SP(#2), AR1 ; |423| 
    1565 00090b C96B          MOV AR1, port(*AR3(T0)) ; |423| 
         00090d 9A   
    1566                      .dwpsn  file "../c5535_bsl_revc/ezdsp5535_v1/c55xx_csl/src/csl_usb.c",line 425,column 5,is_stmt
    1567 00090e A402          MOV *SP(#1), T0 ; |425| 
    1568 000910       $C$L32:    
    1569                      .dwpsn  file "../c5535_bsl_revc/ezdsp5535_v1/c55xx_csl/src/csl_usb.c",line 426,column 1,is_stmt
    1570 000910 4E07          AADD #7, SP
    1571                      .dwcfi  cfa_offset, 1
    1572              $C$DW$80        .dwtag  DW_TAG_TI_branch
    1573                      .dwattr $C$DW$80, DW_AT_low_pc(0x00)
    1574                      .dwattr $C$DW$80, DW_AT_TI_return
    1575 000912 4804          RET
    1576                                                      ; return occurs
    1577                      .dwattr $C$DW$74, DW_AT_TI_end_file("../c5535_bsl_revc/ezdsp5535_v1/c55xx_csl/src/csl_usb.c")
    1578                      .dwattr $C$DW$74, DW_AT_TI_end_line(0x1aa)
    1579                      .dwattr $C$DW$74, DW_AT_TI_end_column(0x01)
    1580                      .dwendentry
    1581                      .dwendtag $C$DW$74
    1582              
    1583 000914               .sect   ".text"
    1584                      .align 4
    1585                      .global _USB_initEndptObj
    1586              
    1587              $C$DW$81        .dwtag  DW_TAG_subprogram, DW_AT_name("USB_initEndptObj")
    1588                      .dwattr $C$DW$81, DW_AT_low_pc(_USB_initEndptObj)
    1589                      .dwattr $C$DW$81, DW_AT_high_pc(0x00)
    1590                      .dwattr $C$DW$81, DW_AT_TI_symbol_name("_USB_initEndptObj")
    1591                      .dwattr $C$DW$81, DW_AT_external
    1592                      .dwattr $C$DW$81, DW_AT_type(*$C$DW$T$75)
    1593                      .dwattr $C$DW$81, DW_AT_TI_begin_file("../c5535_bsl_revc/ezdsp5535_v1/c55xx_csl/src/csl_usb.c")
    1594                      .dwattr $C$DW$81, DW_AT_TI_begin_line(0x1e6)
    1595                      .dwattr $C$DW$81, DW_AT_TI_begin_column(0x0c)
    1596                      .dwattr $C$DW$81, DW_AT_TI_max_frame_size(0x16)
TMS320C55x Assembler PC v4.4.1 Tue Oct 02 02:33:44 2018

Tools Copyright (c) 1996-2012 Texas Instruments Incorporated
csl_usb.asm                                                          PAGE   43

    1597                      .dwpsn  file "../c5535_bsl_revc/ezdsp5535_v1/c55xx_csl/src/csl_usb.c",line 493,column 1,is_stmt,addre
    1598              
    1599                      .dwfde $C$DW$CIE, _USB_initEndptObj
    1600              $C$DW$82        .dwtag  DW_TAG_formal_parameter, DW_AT_name("devNum")
    1601                      .dwattr $C$DW$82, DW_AT_TI_symbol_name("_devNum")
    1602                      .dwattr $C$DW$82, DW_AT_type(*$C$DW$T$68)
    1603                      .dwattr $C$DW$82, DW_AT_location[DW_OP_reg12]
    1604              $C$DW$83        .dwtag  DW_TAG_formal_parameter, DW_AT_name("hEp")
    1605                      .dwattr $C$DW$83, DW_AT_TI_symbol_name("_hEp")
    1606                      .dwattr $C$DW$83, DW_AT_type(*$C$DW$T$102)
    1607                      .dwattr $C$DW$83, DW_AT_location[DW_OP_reg17]
    1608              $C$DW$84        .dwtag  DW_TAG_formal_parameter, DW_AT_name("epNum")
    1609                      .dwattr $C$DW$84, DW_AT_TI_symbol_name("_epNum")
    1610                      .dwattr $C$DW$84, DW_AT_type(*$C$DW$T$108)
    1611                      .dwattr $C$DW$84, DW_AT_location[DW_OP_reg13]
    1612              $C$DW$85        .dwtag  DW_TAG_formal_parameter, DW_AT_name("xferType")
    1613                      .dwattr $C$DW$85, DW_AT_TI_symbol_name("_xferType")
    1614                      .dwattr $C$DW$85, DW_AT_type(*$C$DW$T$110)
    1615                      .dwattr $C$DW$85, DW_AT_location[DW_OP_reg18]
    1616              $C$DW$86        .dwtag  DW_TAG_formal_parameter, DW_AT_name("maxPktSize")
    1617                      .dwattr $C$DW$86, DW_AT_TI_symbol_name("_maxPktSize")
    1618                      .dwattr $C$DW$86, DW_AT_type(*$C$DW$T$19)
    1619                      .dwattr $C$DW$86, DW_AT_location[DW_OP_reg20]
    1620              $C$DW$87        .dwtag  DW_TAG_formal_parameter, DW_AT_name("evMask")
    1621                      .dwattr $C$DW$87, DW_AT_TI_symbol_name("_evMask")
    1622                      .dwattr $C$DW$87, DW_AT_type(*$C$DW$T$19)
    1623                      .dwattr $C$DW$87, DW_AT_location[DW_OP_reg22]
    1624              $C$DW$88        .dwtag  DW_TAG_formal_parameter, DW_AT_name("fxn")
    1625                      .dwattr $C$DW$88, DW_AT_TI_symbol_name("_fxn")
    1626                      .dwattr $C$DW$88, DW_AT_type(*$C$DW$T$113)
    1627                      .dwattr $C$DW$88, DW_AT_location[DW_OP_reg1]
    1628              ;*******************************************************************************
    1629              ;* FUNCTION NAME: USB_initEndptObj                                             *
    1630              ;*                                                                             *
    1631              ;*   Function Uses Regs : AC0,AC0,AC1,AC1,T0,T1,AR0,XAR0,AR1,AR2,XAR2,AR3,XAR3,*
    1632              ;*                        SP,CARRY,TC1,M40,SATA,SATD,RDM,FRCT,SMUL             *
    1633              ;*   Stack Frame        : Compact (No Frame Pointer, w/ debug)                 *
    1634              ;*   Total Frame Size   : 22 words                                             *
    1635              ;*                        (2 return address/alignment)                         *
    1636              ;*                        (20 local values)                                    *
    1637              ;*   Min System Stack   : 1 word                                               *
    1638              ;*******************************************************************************
    1639 000914       _USB_initEndptObj:
    1640                      .dwcfi  cfa_offset, 1
    1641                      .dwcfi  save_reg_to_mem, 91, -1
    1642 000914 4EEB          AADD #-21, SP
    1643                      .dwcfi  cfa_offset, 22
    1644              $C$DW$89        .dwtag  DW_TAG_variable, DW_AT_name("devNum")
    1645                      .dwattr $C$DW$89, DW_AT_TI_symbol_name("_devNum")
    1646                      .dwattr $C$DW$89, DW_AT_type(*$C$DW$T$68)
    1647                      .dwattr $C$DW$89, DW_AT_location[DW_OP_bregx 0x24 0]
    1648              $C$DW$90        .dwtag  DW_TAG_variable, DW_AT_name("hEp")
    1649                      .dwattr $C$DW$90, DW_AT_TI_symbol_name("_hEp")
    1650                      .dwattr $C$DW$90, DW_AT_type(*$C$DW$T$102)
    1651                      .dwattr $C$DW$90, DW_AT_location[DW_OP_bregx 0x24 2]
TMS320C55x Assembler PC v4.4.1 Tue Oct 02 02:33:44 2018

Tools Copyright (c) 1996-2012 Texas Instruments Incorporated
csl_usb.asm                                                          PAGE   44

    1652              $C$DW$91        .dwtag  DW_TAG_variable, DW_AT_name("epNum")
    1653                      .dwattr $C$DW$91, DW_AT_TI_symbol_name("_epNum")
    1654                      .dwattr $C$DW$91, DW_AT_type(*$C$DW$T$108)
    1655                      .dwattr $C$DW$91, DW_AT_location[DW_OP_bregx 0x24 4]
    1656              $C$DW$92        .dwtag  DW_TAG_variable, DW_AT_name("xferType")
    1657                      .dwattr $C$DW$92, DW_AT_TI_symbol_name("_xferType")
    1658                      .dwattr $C$DW$92, DW_AT_type(*$C$DW$T$110)
    1659                      .dwattr $C$DW$92, DW_AT_location[DW_OP_bregx 0x24 5]
    1660              $C$DW$93        .dwtag  DW_TAG_variable, DW_AT_name("maxPktSize")
    1661                      .dwattr $C$DW$93, DW_AT_TI_symbol_name("_maxPktSize")
    1662                      .dwattr $C$DW$93, DW_AT_type(*$C$DW$T$19)
    1663                      .dwattr $C$DW$93, DW_AT_location[DW_OP_bregx 0x24 6]
    1664              $C$DW$94        .dwtag  DW_TAG_variable, DW_AT_name("evMask")
    1665                      .dwattr $C$DW$94, DW_AT_TI_symbol_name("_evMask")
    1666                      .dwattr $C$DW$94, DW_AT_type(*$C$DW$T$19)
    1667                      .dwattr $C$DW$94, DW_AT_location[DW_OP_bregx 0x24 7]
    1668              $C$DW$95        .dwtag  DW_TAG_variable, DW_AT_name("fxn")
    1669                      .dwattr $C$DW$95, DW_AT_TI_symbol_name("_fxn")
    1670                      .dwattr $C$DW$95, DW_AT_type(*$C$DW$T$113)
    1671                      .dwattr $C$DW$95, DW_AT_location[DW_OP_bregx 0x24 8]
    1672              $C$DW$96        .dwtag  DW_TAG_variable, DW_AT_name("peps")
    1673                      .dwattr $C$DW$96, DW_AT_TI_symbol_name("_peps")
    1674                      .dwattr $C$DW$96, DW_AT_type(*$C$DW$T$147)
    1675                      .dwattr $C$DW$96, DW_AT_location[DW_OP_bregx 0x24 10]
    1676              $C$DW$97        .dwtag  DW_TAG_variable, DW_AT_name("status")
    1677                      .dwattr $C$DW$97, DW_AT_TI_symbol_name("_status")
    1678                      .dwattr $C$DW$97, DW_AT_type(*$C$DW$T$75)
    1679                      .dwattr $C$DW$97, DW_AT_location[DW_OP_bregx 0x24 12]
    1680              $C$DW$98        .dwtag  DW_TAG_variable, DW_AT_name("pContext")
    1681                      .dwattr $C$DW$98, DW_AT_TI_symbol_name("_pContext")
    1682                      .dwattr $C$DW$98, DW_AT_type(*$C$DW$T$142)
    1683                      .dwattr $C$DW$98, DW_AT_location[DW_OP_bregx 0x24 14]
    1684              $C$DW$99        .dwtag  DW_TAG_variable, DW_AT_name("fifoSize")
    1685                      .dwattr $C$DW$99, DW_AT_TI_symbol_name("_fifoSize")
    1686                      .dwattr $C$DW$99, DW_AT_type(*$C$DW$T$19)
    1687                      .dwattr $C$DW$99, DW_AT_location[DW_OP_bregx 0x24 16]
    1688              $C$DW$100       .dwtag  DW_TAG_variable, DW_AT_name("saveIndex")
    1689                      .dwattr $C$DW$100, DW_AT_TI_symbol_name("_saveIndex")
    1690                      .dwattr $C$DW$100, DW_AT_type(*$C$DW$T$19)
    1691                      .dwattr $C$DW$100, DW_AT_location[DW_OP_bregx 0x24 17]
    1692              $C$DW$101       .dwtag  DW_TAG_variable, DW_AT_name("dwEndpoint")
    1693                      .dwattr $C$DW$101, DW_AT_TI_symbol_name("_dwEndpoint")
    1694                      .dwattr $C$DW$101, DW_AT_type(*$C$DW$T$84)
    1695                      .dwattr $C$DW$101, DW_AT_location[DW_OP_bregx 0x24 18]
    1696 000916 EB10          MOV AC0, dbl(*SP(#8)) ; |493| 
         000918 08   
    1697 000919 CB0E          MOV AR3, *SP(#7) ; |493| 
    1698 00091b CA0C          MOV AR2, *SP(#6) ; |493| 
    1699 00091d C90A          MOV AR1, *SP(#5) ; |493| 
    1700 00091f C508          MOV T1, *SP(#4) ; |493| 
    1701 000921 EB04          MOV XAR0, dbl(*SP(#2))
         000923 85   
    1702 000924 C400          MOV T0, *SP(#0) ; |493| 
    1703                      .dwpsn  file "../c5535_bsl_revc/ezdsp5535_v1/c55xx_csl/src/csl_usb.c",line 501,column 2,is_stmt
    1704 000926 3C00          MOV #0, AC0 ; |501| 
TMS320C55x Assembler PC v4.4.1 Tue Oct 02 02:33:44 2018

Tools Copyright (c) 1996-2012 Texas Instruments Incorporated
csl_usb.asm                                                          PAGE   45

    1705 000928 EB14          MOV AC0, dbl(*SP(#10))
         00092a 08   
    1706                      .dwpsn  file "../c5535_bsl_revc/ezdsp5535_v1/c55xx_csl/src/csl_usb.c",line 502,column 2,is_stmt
    1707 00092b E618          MOV #0, *SP(#12) ; |502| 
         00092d 00   
    1708                      .dwpsn  file "../c5535_bsl_revc/ezdsp5535_v1/c55xx_csl/src/csl_usb.c",line 503,column 2,is_stmt
    1709 00092e EC31          AMOV #_gUsbContext, XAR3 ; |503| 
         000930 BE00 
         000932 0002-
    1710 000934 EB1C          MOV XAR3, dbl(*SP(#14))
         000936 B5   
    1711                      .dwpsn  file "../c5535_bsl_revc/ezdsp5535_v1/c55xx_csl/src/csl_usb.c",line 505,column 2,is_stmt
    1712 000937 ED04          MOV dbl(*SP(#2)), XAR3
         000939 BF   
    1713 00093a 90B0          MOV XAR3, AC0
    1714 00093c 6D00          BCC $C$L52,AC0 == #0 ; |505| 
         00093e 03AD 
    1715                                                      ; branchcc occurs ; |505| 
    1716                      .dwpsn  file "../c5535_bsl_revc/ezdsp5535_v1/c55xx_csl/src/csl_usb.c",line 507,column 3,is_stmt
    1717 000940 A908          MOV *SP(#4), AR1 ; |507| 
    1718              
    1719 000942 2290          MOV AR1, AC0
    1720 000944 3D7A  ||      MOV #7, AR2
    1721              
    1722 000946 1005          SFTS AC0, #-2, AC0 ; |507| 
         000948 3E   
    1723 000949 37AA  ||      NOT AR2, AR2 ; |507| 
    1724              
    1725 00094b 76E0          BFXTR #0xe000, AC0, AR3 ; |507| 
         00094d 00B0 
    1726 00094f 249B          ADD AR1, AR3 ; |507| 
    1727 000951 28BA          AND AR3, AR2 ; |507| 
    1728 000953 26A9          SUB AR2, AR1 ; |507| 
    1729 000955 2290          MOV AR1, AC0
    1730 000957 EB24          MOV AC0, dbl(*SP(#18)) ; |507| 
         000959 08   
    1731                      .dwpsn  file "../c5535_bsl_revc/ezdsp5535_v1/c55xx_csl/src/csl_usb.c",line 509,column 3,is_stmt
    1732 00095a 0603          B $C$L51  ; |509| 
         00095c 88   
    1733                                                      ; branch occurs ; |509| 
    1734 00095d       $C$L33:    
    1735                      .dwpsn  file "../c5535_bsl_revc/ezdsp5535_v1/c55xx_csl/src/csl_usb.c",line 513,column 5,is_stmt
    1736 00095d ED04          MOV dbl(*SP(#2)), XAR3
         00095f BF   
    1737 000960 A908          MOV *SP(#4), AR1 ; |513| 
    1738 000962 C961          MOV AR1, *AR3 ; |513| 
    1739                      .dwpsn  file "../c5535_bsl_revc/ezdsp5535_v1/c55xx_csl/src/csl_usb.c",line 514,column 5,is_stmt
    1740 000964 ED04          MOV dbl(*SP(#2)), XAR3
         000966 BF   
    1741 000967 A90A          MOV *SP(#5), AR1 ; |514| 
    1742 000969 C973          MOV AR1, *AR3(short(#1)) ; |514| 
    1743                      .dwpsn  file "../c5535_bsl_revc/ezdsp5535_v1/c55xx_csl/src/csl_usb.c",line 515,column 5,is_stmt
    1744 00096b ED04          MOV dbl(*SP(#2)), XAR3
         00096d BF   
    1745 00096e A90C          MOV *SP(#6), AR1 ; |515| 
TMS320C55x Assembler PC v4.4.1 Tue Oct 02 02:33:44 2018

Tools Copyright (c) 1996-2012 Texas Instruments Incorporated
csl_usb.asm                                                          PAGE   46

    1746 000970 C975          MOV AR1, *AR3(short(#2)) ; |515| 
    1747                      .dwpsn  file "../c5535_bsl_revc/ezdsp5535_v1/c55xx_csl/src/csl_usb.c",line 516,column 5,is_stmt
    1748 000972 ED04          MOV dbl(*SP(#2)), XAR3
         000974 BF   
    1749 000975 A90E          MOV *SP(#7), AR1 ; |516| 
    1750 000977 C977          MOV AR1, *AR3(short(#3)) ; |516| 
    1751                      .dwpsn  file "../c5535_bsl_revc/ezdsp5535_v1/c55xx_csl/src/csl_usb.c",line 517,column 5,is_stmt
    1752 000979 ED04          MOV dbl(*SP(#2)), XAR3
         00097b BF   
    1753 00097c ED10          MOV dbl(*SP(#8)), AC0 ; |517| 
         00097e 08   
    1754 00097f EB79          MOV AC0, dbl(*AR3(short(#4))) ; |517| 
         000981 08   
    1755                      .dwpsn  file "../c5535_bsl_revc/ezdsp5535_v1/c55xx_csl/src/csl_usb.c",line 521,column 5,is_stmt
    1756 000982 A40C          MOV *SP(#6), T0 ; |521| 
    1757 000984 A50A          MOV *SP(#5), T1 ; |521| 
    1758              $C$DW$102       .dwtag  DW_TAG_TI_branch
    1759                      .dwattr $C$DW$102, DW_AT_low_pc(0x00)
    1760                      .dwattr $C$DW$102, DW_AT_name("_USB_findFifoSize")
    1761                      .dwattr $C$DW$102, DW_AT_TI_call
    1762 000986 0812          CALL #_USB_findFifoSize ; |521| 
         000988 3B   
    1763                                                      ; call occurs [#_USB_findFifoSize] ; |521| 
    1764 000989 C420          MOV T0, *SP(#16) ; |521| 
    1765                      .dwpsn  file "../c5535_bsl_revc/ezdsp5535_v1/c55xx_csl/src/csl_usb.c",line 523,column 5,is_stmt
    1766 00098b 2249          MOV T0, AR1
    1767 00098d 6299          BCC $C$L34,AR1 != #0 ; |523| 
    1768                                                      ; branchcc occurs ; |523| 
    1769                      .dwpsn  file "../c5535_bsl_revc/ezdsp5535_v1/c55xx_csl/src/csl_usb.c",line 524,column 6,is_stmt
    1770 00098f 3E64          MOV #-6, T0
    1771 000991 0603          B $C$L54  ; |524| 
         000993 5E   
    1772                                                      ; branch occurs ; |524| 
    1773 000994       $C$L34:    
    1774                      .dwpsn  file "../c5535_bsl_revc/ezdsp5535_v1/c55xx_csl/src/csl_usb.c",line 526,column 5,is_stmt
    1775 000994 ED04          MOV dbl(*SP(#2)), XAR3
         000996 BF   
    1776 000997 A961          MOV *AR3, AR1 ; |526| 
    1777 000999 2290          MOV AR1, AC0
    1778 00099b ED1C          MOV dbl(*SP(#14)), XAR3
         00099d BF   
    1779 00099e 1005          SFTS AC0, #-2, AC0 ; |526| 
         0009a0 3E   
    1780 0009a1 76E0          BFXTR #0xe000, AC0, AR2 ; |526| 
         0009a3 00A0 
    1781 0009a5 249A          ADD AR1, AR2 ; |526| 
    1782 0009a7 7DFF          AND #0xfffffff8, AR2, AR2 ; |526| 
         0009a9 F8AA 
    1783 0009ab ED6D          MOV dbl(*AR3(#98)), XAR3
         0009ad BF00 
         0009af 62   
    1784 0009b0 26A9          SUB AR2, AR1 ; |526| 
    1785 0009b2 2291          MOV AR1, AC1
    1786 0009b4 1015          SFTS AC1, #1, AC0 ; |526| 
         0009b6 01   
TMS320C55x Assembler PC v4.4.1 Tue Oct 02 02:33:44 2018

Tools Copyright (c) 1996-2012 Texas Instruments Incorporated
csl_usb.asm                                                          PAGE   47

    1787 0009b7 1013          ADD AC1 << #4, AC0 ; |526| 
         0009b9 04   
    1788 0009ba 900A          MOV AC0, XAR2
    1789              
    1790 0009bc 8E14          MOV XAR3, dbl(*SP(#10))
         0009be BB10 
         0009c0 B5A1 
    1791              ||      AADD XAR2, XAR3 ; |526| 
    1792              
    1793                      .dwpsn  file "../c5535_bsl_revc/ezdsp5535_v1/c55xx_csl/src/csl_usb.c",line 528,column 5,is_stmt
    1794 0009c2 90B0          MOV XAR3, AC0
    1795 0009c4 0400          BCC $C$L35,AC0 == #0 ; |528| 
         0009c6 1F   
    1796                                                      ; branchcc occurs ; |528| 
    1797                      .dwpsn  file "../c5535_bsl_revc/ezdsp5535_v1/c55xx_csl/src/csl_usb.c",line 530,column 6,is_stmt
    1798 0009c7 ED10          MOV dbl(*SP(#8)), AC0 ; |530| 
         0009c9 08   
    1799 0009ca EB6D          MOV AC0, dbl(*AR3(#14)) ; |530| 
         0009cc 0800 
         0009ce 0E   
    1800                      .dwpsn  file "../c5535_bsl_revc/ezdsp5535_v1/c55xx_csl/src/csl_usb.c",line 531,column 6,is_stmt
    1801 0009cf ED14          MOV dbl(*SP(#10)), XAR3
         0009d1 BF   
    1802 0009d2 E66D          MOV #1, *AR3(#17) ; |531| 
         0009d4 0100 
         0009d6 11   
    1803                      .dwpsn  file "../c5535_bsl_revc/ezdsp5535_v1/c55xx_csl/src/csl_usb.c",line 532,column 6,is_stmt
    1804 0009d7 ED14          MOV dbl(*SP(#10)), XAR3
         0009d9 BF   
    1805 0009da A90A          MOV *SP(#5), AR1 ; |532| 
    1806 0009dc C975          MOV AR1, *AR3(short(#2)) ; |532| 
    1807                      .dwpsn  file "../c5535_bsl_revc/ezdsp5535_v1/c55xx_csl/src/csl_usb.c",line 533,column 6,is_stmt
    1808 0009de ED14          MOV dbl(*SP(#10)), XAR3
         0009e0 BF   
    1809 0009e1 E66D          MOV #0, *AR3(#13) ; |533| 
         0009e3 0000 
         0009e5 0D   
    1810 0009e6       $C$L35:    
    1811                      .dwpsn  file "../c5535_bsl_revc/ezdsp5535_v1/c55xx_csl/src/csl_usb.c",line 536,column 5,is_stmt
    1812 0009e6 ED24          MOV dbl(*SP(#18)), AC0 ; |536| 
         0009e8 08   
    1813 0009e9 6290          BCC $C$L36,AC0 != #0 ; |536| 
    1814                                                      ; branchcc occurs ; |536| 
    1815                      .dwpsn  file "../c5535_bsl_revc/ezdsp5535_v1/c55xx_csl/src/csl_usb.c",line 538,column 6,is_stmt
    1816 0009eb A418          MOV *SP(#12), T0 ; |538| 
    1817 0009ed 0603          B $C$L54  ; |538| 
         0009ef 02   
    1818                                                      ; branch occurs ; |538| 
    1819 0009f0       $C$L36:    
    1820                      .dwpsn  file "../c5535_bsl_revc/ezdsp5535_v1/c55xx_csl/src/csl_usb.c",line 542,column 5,is_stmt
    1821 0009f0 7604          MOV #1038, T0 ; |542| 
         0009f2 0E48 
    1822 0009f4 AB31          MOV *(#_usbRegisters), AR3 ; |542| 
         0009f6 0000 
         0009f8 00-  
TMS320C55x Assembler PC v4.4.1 Tue Oct 02 02:33:44 2018

Tools Copyright (c) 1996-2012 Texas Instruments Incorporated
csl_usb.asm                                                          PAGE   48

    1823 0009f9 A96B          MOV port(*AR3(T0)), AR1 ; |542| 
         0009fb 99   
    1824 0009fc C922          MOV AR1, *SP(#17) ; |542| 
    1825                      .dwpsn  file "../c5535_bsl_revc/ezdsp5535_v1/c55xx_csl/src/csl_usb.c",line 544,column 5,is_stmt
    1826 0009fe A96B          MOV port(*AR3(T0)), AR1 ; |544| 
         000a00 99   
    1827 000a01 7DFF          AND #0xfff0, AR1, AC0 ; |544| 
         000a03 F009 
    1828 000a05 C06B          MOV AC0, port(*AR3(T0)) ; |544| 
         000a07 9A   
    1829                      .dwpsn  file "../c5535_bsl_revc/ezdsp5535_v1/c55xx_csl/src/csl_usb.c",line 548,column 5,is_stmt
    1830 000a08 AB31          MOV *(#_usbRegisters), AR3 ; |548| 
         000a0a 0000 
         000a0c 00-  
    1831 000a0d ED24          MOV dbl(*SP(#18)), AC0 ; |548| 
         000a0f 08   
    1832 000a10 180F          AND #0x000f, AC0, AC0 ; |548| 
         000a12 00   
    1833 000a13 A96B          MOV port(*AR3(T0)), AR1 ; |548| 
         000a15 99   
    1834 000a16 7DFF          AND #0xfff0, AR1, AC1 ; |548| 
         000a18 F019 
    1835 000a1a 2A10          OR AC1, AC0 ; |548| 
    1836 000a1c C06B          MOV AC0, port(*AR3(T0)) ; |548| 
         000a1e 9A   
    1837                      .dwpsn  file "../c5535_bsl_revc/ezdsp5535_v1/c55xx_csl/src/csl_usb.c",line 551,column 5,is_stmt
    1838 000a1f 0602          B $C$L48  ; |551| 
         000a21 92   
    1839                                                      ; branch occurs ; |551| 
    1840 000a22       $C$L37:    
    1841                      .dwpsn  file "../c5535_bsl_revc/ezdsp5535_v1/c55xx_csl/src/csl_usb.c",line 558,column 7,is_stmt
    1842 000a22 7604          MOV #1122, T0 ; |558| 
         000a24 6248 
    1843 000a26 AB31          MOV *(#_usbRegisters), AR3 ; |558| 
         000a28 0000 
         000a2a 00-  
    1844 000a2b A96B          MOV port(*AR3(T0)), AR1 ; |558| 
         000a2d 99   
    1845 000a2e 7DFF          AND #0xfff0, AR1, AC0 ; |558| 
         000a30 F009 
    1846 000a32 C06B          MOV AC0, port(*AR3(T0)) ; |558| 
         000a34 9A   
    1847                      .dwpsn  file "../c5535_bsl_revc/ezdsp5535_v1/c55xx_csl/src/csl_usb.c",line 562,column 7,is_stmt
    1848 000a35 AB31          MOV *(#_usbRegisters), AR3 ; |562| 
         000a37 0000 
         000a39 00-  
    1849 000a3a A96B          MOV port(*AR3(T0)), AR1 ; |562| 
         000a3c 99   
    1850 000a3d 7DFF          AND #0xfff0, AR1, AR2 ; |562| 
         000a3f F0A9 
    1851 000a41 A920          MOV *SP(#16), AR1 ; |562| 
    1852 000a43 180F          AND #0x000f, AR1, AR1 ; |562| 
         000a45 99   
    1853 000a46 2AA9          OR AR2, AR1 ; |562| 
    1854 000a48 C96B          MOV AR1, port(*AR3(T0)) ; |562| 
TMS320C55x Assembler PC v4.4.1 Tue Oct 02 02:33:44 2018

Tools Copyright (c) 1996-2012 Texas Instruments Incorporated
csl_usb.asm                                                          PAGE   49

         000a4a 9A   
    1855                      .dwpsn  file "../c5535_bsl_revc/ezdsp5535_v1/c55xx_csl/src/csl_usb.c",line 565,column 7,is_stmt
    1856 000a4b AB31          MOV *(#_usbRegisters), AR3 ; |565| 
         000a4d 0000 
         000a4f 00-  
    1857 000a50 A96B          MOV port(*AR3(T0)), AR1 ; |565| 
         000a52 99   
    1858 000a53 EC08          BCLR @#4, AR1 ; |565| 
         000a55 92   
    1859 000a56 C96B          MOV AR1, port(*AR3(T0)) ; |565| 
         000a58 9A   
    1860                      .dwpsn  file "../c5535_bsl_revc/ezdsp5535_v1/c55xx_csl/src/csl_usb.c",line 569,column 7,is_stmt
    1861 000a59 ED1C          MOV dbl(*SP(#14)), XAR3
         000a5b BF   
    1862              
    1863 000a5c A520          MOV *SP(#16), T1 ; |569| 
    1864 000a5e 3D10  ||      MOV #1, AC0
    1865              
    1866 000a64 5D05          SFTS AC0, T1, AC0 ; |569| 
    1867 000a60 7602  ||      MOV #512, AR2 ; |569| 
         000a62 00A8 
    1868              
    1869 000a66 D66D          ADD *AR3(#118), AC0, AR1 ; |569| 
         000a68 9000 
         000a6a 76   
    1870 000a6b 12A4          CMPU AR1 > AR2, TC1 ; |569| 
         000a6d 94   
    1871 000a6e 0464          BCC $C$L38,TC1 ; |569| 
         000a70 39   
    1872                                                      ; branchcc occurs ; |569| 
    1873                      .dwpsn  file "../c5535_bsl_revc/ezdsp5535_v1/c55xx_csl/src/csl_usb.c",line 572,column 7,is_stmt
    1874 000a71 7604          MOV #1125, T0 ; |572| 
         000a73 6548 
    1875 000a75 AB31          MOV *(#_usbRegisters), AR3 ; |572| 
         000a77 0000 
         000a79 00-  
    1876 000a7a A96B          MOV port(*AR3(T0)), AR1 ; |572| 
         000a7c 99   
    1877 000a7d ED1C          MOV dbl(*SP(#14)), XAR3
         000a7f BF   
    1878 000a80 7DE0          AND #0xe000, AR1, AR2 ; |572| 
         000a82 00A9 
    1879 000a84 A96D          MOV *AR3(#118), AR1 ; |572| 
         000a86 0076 
    1880 000a88 AB31          MOV *(#_usbRegisters), AR3 ; |572| 
         000a8a 0000 
         000a8c 00-  
    1881 000a8d 7D1F          AND #0x1fff, AR1, AR1 ; |572| 
         000a8f FF99 
    1882 000a91 2AA9          OR AR2, AR1 ; |572| 
    1883 000a93 C96B          MOV AR1, port(*AR3(T0)) ; |572| 
         000a95 9A   
    1884                      .dwpsn  file "../c5535_bsl_revc/ezdsp5535_v1/c55xx_csl/src/csl_usb.c",line 575,column 7,is_stmt
    1885 000a96 ED1C          MOV dbl(*SP(#14)), XAR3
         000a98 BF   
TMS320C55x Assembler PC v4.4.1 Tue Oct 02 02:33:44 2018

Tools Copyright (c) 1996-2012 Texas Instruments Incorporated
csl_usb.asm                                                          PAGE   50

    1886              
    1887 000a99 A520          MOV *SP(#16), T1 ; |575| 
    1888 000a9b 3D10  ||      MOV #1, AC0
    1889              
    1890 000a9d 5C05          SFTS AC0, T1, AC0 ; |575| 
    1891 000a9f D66D          ADD *AR3(#118), AC0, AR1 ; |575| 
         000aa1 9000 
         000aa3 76   
    1892 000aa4 C96D          MOV AR1, *AR3(#118) ; |575| 
         000aa6 0076 
    1893                      .dwpsn  file "../c5535_bsl_revc/ezdsp5535_v1/c55xx_csl/src/csl_usb.c",line 576,column 7,is_stmt
    1894 000aa8 4A05          B $C$L39  ; |576| 
    1895                                                      ; branch occurs ; |576| 
    1896 000aaa       $C$L38:    
    1897                      .dwpsn  file "../c5535_bsl_revc/ezdsp5535_v1/c55xx_csl/src/csl_usb.c",line 579,column 8,is_stmt
    1898 000aaa 3E64          MOV #-6, T0
    1899 000aac 0602          B $C$L54  ; |579| 
         000aae 43   
    1900                                                      ; branch occurs ; |579| 
    1901 000aaf       $C$L39:    
    1902                      .dwpsn  file "../c5535_bsl_revc/ezdsp5535_v1/c55xx_csl/src/csl_usb.c",line 583,column 7,is_stmt
    1903 000aaf 7604          MOV #1041, T0 ; |583| 
         000ab1 1148 
    1904 000ab3 AB31          MOV *(#_usbRegisters), AR3 ; |583| 
         000ab5 0000 
         000ab7 00-  
    1905 000ab8 A96B          MOV port(*AR3(T0)), AR1 ; |583| 
         000aba 99   
    1906 000abb 7DF8          AND #0xf800, AR1, AR2 ; |583| 
         000abd 00A9 
    1907 000abf A90C          MOV *SP(#6), AR1 ; |583| 
    1908 000ac1 7D07          AND #0x07ff, AR1, AR1 ; |583| 
         000ac3 FF99 
    1909 000ac5 2AA9          OR AR2, AR1 ; |583| 
    1910 000ac7 C96B          MOV AR1, port(*AR3(T0)) ; |583| 
         000ac9 9A   
    1911                      .dwpsn  file "../c5535_bsl_revc/ezdsp5535_v1/c55xx_csl/src/csl_usb.c",line 588,column 7,is_stmt
    1912 000aca 7604          MOV #1042, T0 ; |588| 
         000acc 1248 
    1913 000ace AB31          MOV *(#_usbRegisters), AR3 ; |588| 
         000ad0 0000 
         000ad2 00-  
    1914 000ad3 A96B          MOV port(*AR3(T0)), AR1 ; |588| 
         000ad5 99   
    1915 000ad6 EC1E          BCLR @#15, AR1 ; |588| 
         000ad8 92   
    1916 000ad9 C96B          MOV AR1, port(*AR3(T0)) ; |588| 
         000adb 9A   
    1917                      .dwpsn  file "../c5535_bsl_revc/ezdsp5535_v1/c55xx_csl/src/csl_usb.c",line 591,column 7,is_stmt
    1918 000adc AB31          MOV *(#_usbRegisters), AR3 ; |591| 
         000ade 0000 
         000ae0 00-  
    1919 000ae1 A96B          MOV port(*AR3(T0)), AR1 ; |591| 
         000ae3 99   
    1920 000ae4 EC1C          BCLR @#14, AR1 ; |591| 
TMS320C55x Assembler PC v4.4.1 Tue Oct 02 02:33:44 2018

Tools Copyright (c) 1996-2012 Texas Instruments Incorporated
csl_usb.asm                                                          PAGE   51

         000ae6 92   
    1921 000ae7 C96B          MOV AR1, port(*AR3(T0)) ; |591| 
         000ae9 9A   
    1922                      .dwpsn  file "../c5535_bsl_revc/ezdsp5535_v1/c55xx_csl/src/csl_usb.c",line 594,column 7,is_stmt
    1923 000aea AB31          MOV *(#_usbRegisters), AR3 ; |594| 
         000aec 0000 
         000aee 00-  
    1924 000aef A96B          MOV port(*AR3(T0)), AR1 ; |594| 
         000af1 99   
    1925 000af2 EC18          BCLR @#12, AR1 ; |594| 
         000af4 92   
    1926 000af5 C96B          MOV AR1, port(*AR3(T0)) ; |594| 
         000af7 9A   
    1927                      .dwpsn  file "../c5535_bsl_revc/ezdsp5535_v1/c55xx_csl/src/csl_usb.c",line 597,column 7,is_stmt
    1928 000af8 AB31          MOV *(#_usbRegisters), AR3 ; |597| 
         000afa 0000 
         000afc 00-  
    1929 000afd A96B          MOV port(*AR3(T0)), AR1 ; |597| 
         000aff 99   
    1930 000b00 EC16          BCLR @#11, AR1 ; |597| 
         000b02 92   
    1931 000b03 C96B          MOV AR1, port(*AR3(T0)) ; |597| 
         000b05 9A   
    1932                      .dwpsn  file "../c5535_bsl_revc/ezdsp5535_v1/c55xx_csl/src/csl_usb.c",line 601,column 7,is_stmt
    1933 000b06 F00A          CMP *SP(#5) == #3, TC1 ; |601| 
         000b08 0003 
    1934 000b0a 6D74          BCC $C$L49,!TC1 ; |601| 
         000b0c 01C2 
    1935                                                      ; branchcc occurs ; |601| 
    1936                      .dwpsn  file "../c5535_bsl_revc/ezdsp5535_v1/c55xx_csl/src/csl_usb.c",line 603,column 8,is_stmt
    1937 000b0e ED1C          MOV dbl(*SP(#14)), XAR3
         000b10 BF   
    1938              
    1939 000b11 A520          MOV *SP(#16), T1 ; |603| 
    1940 000b13 3D10  ||      MOV #1, AC0
    1941              
    1942 000b19 5D05          SFTS AC0, T1, AC0 ; |603| 
    1943 000b15 7602  ||      MOV #512, AR2 ; |603| 
         000b17 00A8 
    1944              
    1945 000b1b D66D          ADD *AR3(#118), AC0, AR1 ; |603| 
         000b1d 9000 
         000b1f 76   
    1946 000b20 12A4          CMPU AR1 > AR2, TC1 ; |603| 
         000b22 94   
    1947 000b23 67E4          BCC $C$L40,TC1 ; |603| 
    1948                                                      ; branchcc occurs ; |603| 
    1949                      .dwpsn  file "../c5535_bsl_revc/ezdsp5535_v1/c55xx_csl/src/csl_usb.c",line 606,column 9,is_stmt
    1950 000b25 3C10          MOV #1, AC0
    1951 000b27 5C05          SFTS AC0, T1, AC0 ; |606| 
    1952 000b29 D66D          ADD *AR3(#118), AC0, AR1 ; |606| 
         000b2b 9000 
         000b2d 76   
    1953 000b2e C96D          MOV AR1, *AR3(#118) ; |606| 
         000b30 0076 
TMS320C55x Assembler PC v4.4.1 Tue Oct 02 02:33:44 2018

Tools Copyright (c) 1996-2012 Texas Instruments Incorporated
csl_usb.asm                                                          PAGE   52

    1954                      .dwpsn  file "../c5535_bsl_revc/ezdsp5535_v1/c55xx_csl/src/csl_usb.c",line 607,column 8,is_stmt
    1955 000b32 4A05          B $C$L41  ; |607| 
    1956                                                      ; branch occurs ; |607| 
    1957 000b34       $C$L40:    
    1958                      .dwpsn  file "../c5535_bsl_revc/ezdsp5535_v1/c55xx_csl/src/csl_usb.c",line 610,column 9,is_stmt
    1959 000b34 3E64          MOV #-6, T0
    1960 000b36 0601          B $C$L54  ; |610| 
         000b38 B9   
    1961                                                      ; branch occurs ; |610| 
    1962 000b39       $C$L41:    
    1963                      .dwpsn  file "../c5535_bsl_revc/ezdsp5535_v1/c55xx_csl/src/csl_usb.c",line 614,column 8,is_stmt
    1964 000b39 7604          MOV #1025, T0 ; |614| 
         000b3b 0148 
    1965 000b3d AB31          MOV *(#_usbRegisters), AR3 ; |614| 
         000b3f 0000 
         000b41 00-  
    1966 000b42 A96B          MOV port(*AR3(T0)), AR1 ; |614| 
         000b44 99   
    1967 000b45 EC1E          BCLR @#15, AR1 ; |614| 
         000b47 92   
    1968 000b48 EC1E          BSET @#15, AR1 ; |614| 
         000b4a 90   
    1969 000b4b C96B          MOV AR1, port(*AR3(T0)) ; |614| 
         000b4d 9A   
    1970                      .dwpsn  file "../c5535_bsl_revc/ezdsp5535_v1/c55xx_csl/src/csl_usb.c",line 618,column 8,is_stmt
    1971 000b4e 7604          MOV #1042, T0 ; |618| 
         000b50 1248 
    1972 000b52 AB31          MOV *(#_usbRegisters), AR3 ; |618| 
         000b54 0000 
         000b56 00-  
    1973 000b57 A96B          MOV port(*AR3(T0)), AR1 ; |618| 
         000b59 99   
    1974 000b5a EC1C          BCLR @#14, AR1 ; |618| 
         000b5c 92   
    1975 000b5d EC1C          BSET @#14, AR1 ; |618| 
         000b5f 90   
    1976 000b60 C96B          MOV AR1, port(*AR3(T0)) ; |618| 
         000b62 9A   
    1977                      .dwpsn  file "../c5535_bsl_revc/ezdsp5535_v1/c55xx_csl/src/csl_usb.c",line 622,column 8,is_stmt
    1978 000b63 7604          MOV #1122, T0 ; |622| 
         000b65 6248 
    1979 000b67 AB31          MOV *(#_usbRegisters), AR3 ; |622| 
         000b69 0000 
         000b6b 00-  
    1980 000b6c A96B          MOV port(*AR3(T0)), AR1 ; |622| 
         000b6e 99   
    1981 000b6f EC08          BCLR @#4, AR1 ; |622| 
         000b71 92   
    1982 000b72 EC08          BSET @#4, AR1 ; |622| 
         000b74 90   
    1983 000b75 C96B          MOV AR1, port(*AR3(T0)) ; |622| 
         000b77 9A   
    1984                      .dwpsn  file "../c5535_bsl_revc/ezdsp5535_v1/c55xx_csl/src/csl_usb.c",line 625,column 12,is_stmt
    1985 000b78 0601          B $C$L49  ; |625| 
         000b7a 55   
TMS320C55x Assembler PC v4.4.1 Tue Oct 02 02:33:44 2018

Tools Copyright (c) 1996-2012 Texas Instruments Incorporated
csl_usb.asm                                                          PAGE   53

    1986                                                      ; branch occurs ; |625| 
    1987 000b7b       $C$L42:    
    1988                      .dwpsn  file "../c5535_bsl_revc/ezdsp5535_v1/c55xx_csl/src/csl_usb.c",line 633,column 7,is_stmt
    1989 000b7b 7604          MOV #1122, T0 ; |633| 
         000b7d 6248 
    1990 000b7f AB31          MOV *(#_usbRegisters), AR3 ; |633| 
         000b81 0000 
         000b83 00-  
    1991 000b84 A96B          MOV port(*AR3(T0)), AR1 ; |633| 
         000b86 99   
    1992 000b87 7DF0          AND #0xf0ff, AR1, AC0 ; |633| 
         000b89 FF09 
    1993 000b8b C06B          MOV AC0, port(*AR3(T0)) ; |633| 
         000b8d 9A   
    1994                      .dwpsn  file "../c5535_bsl_revc/ezdsp5535_v1/c55xx_csl/src/csl_usb.c",line 637,column 7,is_stmt
    1995 000b8e AB31          MOV *(#_usbRegisters), AR3 ; |637| 
         000b90 0000 
         000b92 00-  
    1996 000b93 A020          MOV *SP(#16), AC0 ; |637| 
    1997 000b95 A96B          MOV port(*AR3(T0)), AR1 ; |637| 
         000b97 99   
    1998              
    1999 000b98 7DF0          AND #0xf0ff, AR1, AR2 ; |637| 
         000b9a FFA9 
    2000 000b9c 1107  ||      SFTL AC0, #8, AC0 ; |637| 
         000b9e 08   
    2001              
    2002 000b9f 7D0F          AND #0x0f00, AC0, AR1 ; |637| 
         000ba1 0090 
    2003 000ba3 2AA9          OR AR2, AR1 ; |637| 
    2004 000ba5 C96B          MOV AR1, port(*AR3(T0)) ; |637| 
         000ba7 9A   
    2005                      .dwpsn  file "../c5535_bsl_revc/ezdsp5535_v1/c55xx_csl/src/csl_usb.c",line 641,column 7,is_stmt
    2006 000ba8 ED1C          MOV dbl(*SP(#14)), XAR3
         000baa BF   
    2007              
    2008 000bad 3D10          MOV #1, AC0
    2009 000bab A520  ||      MOV *SP(#16), T1 ; |641| 
    2010              
    2011 000bb3 5D05          SFTS AC0, T1, AC0 ; |641| 
    2012 000baf 7602  ||      MOV #512, AR2 ; |641| 
         000bb1 00A8 
    2013              
    2014 000bb5 D66D          ADD *AR3(#118), AC0, AR1 ; |641| 
         000bb7 9000 
         000bb9 76   
    2015 000bba 12A4          CMPU AR1 > AR2, TC1 ; |641| 
         000bbc 94   
    2016 000bbd 0464          BCC $C$L43,TC1 ; |641| 
         000bbf 39   
    2017                                                      ; branchcc occurs ; |641| 
    2018                      .dwpsn  file "../c5535_bsl_revc/ezdsp5535_v1/c55xx_csl/src/csl_usb.c",line 644,column 7,is_stmt
    2019 000bc0 7604          MOV #1126, T0 ; |644| 
         000bc2 6648 
    2020 000bc4 AB31          MOV *(#_usbRegisters), AR3 ; |644| 
TMS320C55x Assembler PC v4.4.1 Tue Oct 02 02:33:44 2018

Tools Copyright (c) 1996-2012 Texas Instruments Incorporated
csl_usb.asm                                                          PAGE   54

         000bc6 0000 
         000bc8 00-  
    2021 000bc9 A96B          MOV port(*AR3(T0)), AR1 ; |644| 
         000bcb 99   
    2022 000bcc ED1C          MOV dbl(*SP(#14)), XAR3
         000bce BF   
    2023 000bcf 7DE0          AND #0xe000, AR1, AR2 ; |644| 
         000bd1 00A9 
    2024 000bd3 A96D          MOV *AR3(#118), AR1 ; |644| 
         000bd5 0076 
    2025 000bd7 AB31          MOV *(#_usbRegisters), AR3 ; |644| 
         000bd9 0000 
         000bdb 00-  
    2026 000bdc 7D1F          AND #0x1fff, AR1, AR1 ; |644| 
         000bde FF99 
    2027 000be0 2AA9          OR AR2, AR1 ; |644| 
    2028 000be2 C96B          MOV AR1, port(*AR3(T0)) ; |644| 
         000be4 9A   
    2029                      .dwpsn  file "../c5535_bsl_revc/ezdsp5535_v1/c55xx_csl/src/csl_usb.c",line 647,column 7,is_stmt
    2030 000be5 ED1C          MOV dbl(*SP(#14)), XAR3
         000be7 BF   
    2031              
    2032 000be8 A520          MOV *SP(#16), T1 ; |647| 
    2033 000bea 3D10  ||      MOV #1, AC0
    2034              
    2035 000bec 5C05          SFTS AC0, T1, AC0 ; |647| 
    2036 000bee D66D          ADD *AR3(#118), AC0, AR1 ; |647| 
         000bf0 9000 
         000bf2 76   
    2037 000bf3 C96D          MOV AR1, *AR3(#118) ; |647| 
         000bf5 0076 
    2038                      .dwpsn  file "../c5535_bsl_revc/ezdsp5535_v1/c55xx_csl/src/csl_usb.c",line 648,column 7,is_stmt
    2039 000bf7 4A05          B $C$L44  ; |648| 
    2040                                                      ; branch occurs ; |648| 
    2041 000bf9       $C$L43:    
    2042                      .dwpsn  file "../c5535_bsl_revc/ezdsp5535_v1/c55xx_csl/src/csl_usb.c",line 651,column 8,is_stmt
    2043 000bf9 3E64          MOV #-6, T0
    2044 000bfb 0600          B $C$L54  ; |651| 
         000bfd F4   
    2045                                                      ; branch occurs ; |651| 
    2046 000bfe       $C$L44:    
    2047                      .dwpsn  file "../c5535_bsl_revc/ezdsp5535_v1/c55xx_csl/src/csl_usb.c",line 655,column 7,is_stmt
    2048 000bfe 7604          MOV #1045, T0 ; |655| 
         000c00 1548 
    2049 000c02 AB31          MOV *(#_usbRegisters), AR3 ; |655| 
         000c04 0000 
         000c06 00-  
    2050 000c07 A96B          MOV port(*AR3(T0)), AR1 ; |655| 
         000c09 99   
    2051 000c0a 7DF8          AND #0xf800, AR1, AR2 ; |655| 
         000c0c 00A9 
    2052 000c0e A90C          MOV *SP(#6), AR1 ; |655| 
    2053 000c10 7D07          AND #0x07ff, AR1, AR1 ; |655| 
         000c12 FF99 
    2054 000c14 2AA9          OR AR2, AR1 ; |655| 
TMS320C55x Assembler PC v4.4.1 Tue Oct 02 02:33:44 2018

Tools Copyright (c) 1996-2012 Texas Instruments Incorporated
csl_usb.asm                                                          PAGE   55

    2055 000c16 C96B          MOV AR1, port(*AR3(T0)) ; |655| 
         000c18 9A   
    2056                      .dwpsn  file "../c5535_bsl_revc/ezdsp5535_v1/c55xx_csl/src/csl_usb.c",line 660,column 7,is_stmt
    2057 000c19 7604          MOV #1046, T0 ; |660| 
         000c1b 1648 
    2058 000c1d AB31          MOV *(#_usbRegisters), AR3 ; |660| 
         000c1f 0000 
         000c21 00-  
    2059 000c22 A96B          MOV port(*AR3(T0)), AR1 ; |660| 
         000c24 99   
    2060 000c25 EC1E          BCLR @#15, AR1 ; |660| 
         000c27 92   
    2061 000c28 C96B          MOV AR1, port(*AR3(T0)) ; |660| 
         000c2a 9A   
    2062                      .dwpsn  file "../c5535_bsl_revc/ezdsp5535_v1/c55xx_csl/src/csl_usb.c",line 663,column 7,is_stmt
    2063 000c2b AB31          MOV *(#_usbRegisters), AR3 ; |663| 
         000c2d 0000 
         000c2f 00-  
    2064 000c30 A96B          MOV port(*AR3(T0)), AR1 ; |663| 
         000c32 99   
    2065 000c33 EC1C          BCLR @#14, AR1 ; |663| 
         000c35 92   
    2066 000c36 C96B          MOV AR1, port(*AR3(T0)) ; |663| 
         000c38 9A   
    2067                      .dwpsn  file "../c5535_bsl_revc/ezdsp5535_v1/c55xx_csl/src/csl_usb.c",line 666,column 7,is_stmt
    2068 000c39 AB31          MOV *(#_usbRegisters), AR3 ; |666| 
         000c3b 0000 
         000c3d 00-  
    2069 000c3e A96B          MOV port(*AR3(T0)), AR1 ; |666| 
         000c40 99   
    2070 000c41 EC1A          BCLR @#13, AR1 ; |666| 
         000c43 92   
    2071 000c44 C96B          MOV AR1, port(*AR3(T0)) ; |666| 
         000c46 9A   
    2072                      .dwpsn  file "../c5535_bsl_revc/ezdsp5535_v1/c55xx_csl/src/csl_usb.c",line 669,column 7,is_stmt
    2073 000c47 AB31          MOV *(#_usbRegisters), AR3 ; |669| 
         000c49 0000 
         000c4b 00-  
    2074 000c4c A96B          MOV port(*AR3(T0)), AR1 ; |669| 
         000c4e 99   
    2075 000c4f EC18          BCLR @#12, AR1 ; |669| 
         000c51 92   
    2076 000c52 C96B          MOV AR1, port(*AR3(T0)) ; |669| 
         000c54 9A   
    2077                      .dwpsn  file "../c5535_bsl_revc/ezdsp5535_v1/c55xx_csl/src/csl_usb.c",line 673,column 7,is_stmt
    2078 000c55 F00A          CMP *SP(#5) == #3, TC1 ; |673| 
         000c57 0003 
    2079 000c59 0474          BCC $C$L49,!TC1 ; |673| 
         000c5b 74   
    2080                                                      ; branchcc occurs ; |673| 
    2081                      .dwpsn  file "../c5535_bsl_revc/ezdsp5535_v1/c55xx_csl/src/csl_usb.c",line 676,column 8,is_stmt
    2082 000c5c ED1C          MOV dbl(*SP(#14)), XAR3
         000c5e BF   
    2083              
    2084 000c5f A520          MOV *SP(#16), T1 ; |676| 
TMS320C55x Assembler PC v4.4.1 Tue Oct 02 02:33:44 2018

Tools Copyright (c) 1996-2012 Texas Instruments Incorporated
csl_usb.asm                                                          PAGE   56

    2085 000c61 3D10  ||      MOV #1, AC0
    2086              
    2087 000c67 5D05          SFTS AC0, T1, AC0 ; |676| 
    2088 000c63 7602  ||      MOV #512, AR2 ; |676| 
         000c65 00A8 
    2089              
    2090 000c69 D66D          ADD *AR3(#118), AC0, AR1 ; |676| 
         000c6b 9000 
         000c6d 76   
    2091 000c6e 12A4          CMPU AR1 > AR2, TC1 ; |676| 
         000c70 94   
    2092 000c71 67E4          BCC $C$L45,TC1 ; |676| 
    2093                                                      ; branchcc occurs ; |676| 
    2094                      .dwpsn  file "../c5535_bsl_revc/ezdsp5535_v1/c55xx_csl/src/csl_usb.c",line 679,column 9,is_stmt
    2095 000c73 3C10          MOV #1, AC0
    2096 000c75 5C05          SFTS AC0, T1, AC0 ; |679| 
    2097 000c77 D66D          ADD *AR3(#118), AC0, AR1 ; |679| 
         000c79 9000 
         000c7b 76   
    2098 000c7c C96D          MOV AR1, *AR3(#118) ; |679| 
         000c7e 0076 
    2099                      .dwpsn  file "../c5535_bsl_revc/ezdsp5535_v1/c55xx_csl/src/csl_usb.c",line 680,column 8,is_stmt
    2100 000c80 4A05          B $C$L46  ; |680| 
    2101                                                      ; branch occurs ; |680| 
    2102 000c82       $C$L45:    
    2103                      .dwpsn  file "../c5535_bsl_revc/ezdsp5535_v1/c55xx_csl/src/csl_usb.c",line 683,column 9,is_stmt
    2104 000c82 3E64          MOV #-6, T0
    2105 000c84 0600          B $C$L54  ; |683| 
         000c86 6B   
    2106                                                      ; branch occurs ; |683| 
    2107 000c87       $C$L46:    
    2108                      .dwpsn  file "../c5535_bsl_revc/ezdsp5535_v1/c55xx_csl/src/csl_usb.c",line 686,column 8,is_stmt
    2109 000c87 AB31          MOV *(#_usbRegisters), AR3 ; |686| 
         000c89 0000 
         000c8b 00-  
    2110 000c8c A96B          MOV port(*AR3(T0)), AR1 ; |686| 
         000c8e 99   
    2111 000c8f EC1C          BCLR @#14, AR1 ; |686| 
         000c91 92   
    2112 000c92 EC1C          BSET @#14, AR1 ; |686| 
         000c94 90   
    2113 000c95 C96B          MOV AR1, port(*AR3(T0)) ; |686| 
         000c97 9A   
    2114                      .dwpsn  file "../c5535_bsl_revc/ezdsp5535_v1/c55xx_csl/src/csl_usb.c",line 690,column 8,is_stmt
    2115 000c98 7604          MOV #1122, T0 ; |690| 
         000c9a 6248 
    2116 000c9c AB31          MOV *(#_usbRegisters), AR3 ; |690| 
         000c9e 0000 
         000ca0 00-  
    2117 000ca1 A96B          MOV port(*AR3(T0)), AR1 ; |690| 
         000ca3 99   
    2118 000ca4 EC18          BCLR @#12, AR1 ; |690| 
         000ca6 92   
    2119 000ca7 EC18          BSET @#12, AR1 ; |690| 
         000ca9 90   
TMS320C55x Assembler PC v4.4.1 Tue Oct 02 02:33:44 2018

Tools Copyright (c) 1996-2012 Texas Instruments Incorporated
csl_usb.asm                                                          PAGE   57

    2120 000caa C96B          MOV AR1, port(*AR3(T0)) ; |690| 
         000cac 9A   
    2121                      .dwpsn  file "../c5535_bsl_revc/ezdsp5535_v1/c55xx_csl/src/csl_usb.c",line 694,column 12,is_stmt
    2122 000cad 4A21          B $C$L49  ; |694| 
    2123                                                      ; branch occurs ; |694| 
    2124 000caf       $C$L47:    
    2125                      .dwpsn  file "../c5535_bsl_revc/ezdsp5535_v1/c55xx_csl/src/csl_usb.c",line 700,column 7,is_stmt
    2126 000caf E618          MOV #-6, *SP(#12) ; |700| 
         000cb1 FA   
    2127                      .dwpsn  file "../c5535_bsl_revc/ezdsp5535_v1/c55xx_csl/src/csl_usb.c",line 701,column 12,is_stmt
    2128 000cb2 4A1C          B $C$L49  ; |701| 
    2129                                                      ; branch occurs ; |701| 
    2130 000cb4       $C$L48:    
    2131                      .dwpsn  file "../c5535_bsl_revc/ezdsp5535_v1/c55xx_csl/src/csl_usb.c",line 551,column 5,is_stmt
    2132 000cb4 AB08          MOV *SP(#4), AR3 ; |551| 
    2133              
    2134 000cb6 7C00          SUB #1, AR3, AR1 ; |551| 
         000cb8 019B 
    2135 000cba 3D3A  ||      MOV #3, AR2
    2136              
    2137 000cbc 12A8          CMPU AR1 <= AR2, TC1 ; |551| 
         000cbe 94   
    2138 000cbf 6D64          BCC $C$L42,TC1 ; |551| 
         000cc1 FEB8 
    2139                                                      ; branchcc occurs ; |551| 
    2140 000cc3 7C00          SUB #9, AR3, AR1 ; |551| 
         000cc5 099B 
    2141 000cc7 12A8          CMPU AR1 <= AR2, TC1 ; |551| 
         000cc9 94   
    2142 000cca 6D64          BCC $C$L37,TC1 ; |551| 
         000ccc FD54 
    2143                                                      ; branchcc occurs ; |551| 
    2144 000cce 4A5F          B $C$L47  ; |551| 
    2145                                                      ; branch occurs ; |551| 
    2146 000cd0       $C$L49:    
    2147                      .dwpsn  file "../c5535_bsl_revc/ezdsp5535_v1/c55xx_csl/src/csl_usb.c",line 705,column 5,is_stmt
    2148 000cd0 AB31          MOV *(#_usbRegisters), AR3 ; |705| 
         000cd2 0000 
         000cd4 00-  
    2149 000cd5 7604          MOV #1038, T0 ; |705| 
         000cd7 0E48 
    2150 000cd9 A922          MOV *SP(#17), AR1 ; |705| 
    2151 000cdb C96B          MOV AR1, port(*AR3(T0)) ; |705| 
         000cdd 9A   
    2152                      .dwpsn  file "../c5535_bsl_revc/ezdsp5535_v1/c55xx_csl/src/csl_usb.c",line 707,column 13,is_stmt
    2153 000cde 4A10          B $C$L53  ; |707| 
    2154                                                      ; branch occurs ; |707| 
    2155 000ce0       $C$L50:    
    2156                      .dwpsn  file "../c5535_bsl_revc/ezdsp5535_v1/c55xx_csl/src/csl_usb.c",line 713,column 8,is_stmt
    2157 000ce0 E618          MOV #-6, *SP(#12) ; |713| 
         000ce2 FA   
    2158                      .dwpsn  file "../c5535_bsl_revc/ezdsp5535_v1/c55xx_csl/src/csl_usb.c",line 714,column 10,is_stmt
    2159 000ce3 4A0B          B $C$L53  ; |714| 
    2160                                                      ; branch occurs ; |714| 
    2161 000ce5       $C$L51:    
TMS320C55x Assembler PC v4.4.1 Tue Oct 02 02:33:44 2018

Tools Copyright (c) 1996-2012 Texas Instruments Incorporated
csl_usb.asm                                                          PAGE   58

    2162                      .dwpsn  file "../c5535_bsl_revc/ezdsp5535_v1/c55xx_csl/src/csl_usb.c",line 509,column 3,is_stmt
    2163 000ce5 A900          MOV *SP(#0), AR1 ; |509| 
    2164 000ce7 6D09          BCC $C$L33,AR1 == #0 ; |509| 
         000ce9 FC72 
    2165                                                      ; branchcc occurs ; |509| 
    2166 000ceb 4A73          B $C$L50  ; |509| 
    2167                                                      ; branch occurs ; |509| 
    2168 000ced       $C$L52:    
    2169                      .dwpsn  file "../c5535_bsl_revc/ezdsp5535_v1/c55xx_csl/src/csl_usb.c",line 719,column 3,is_stmt
    2170 000ced E618          MOV #-5, *SP(#12) ; |719| 
         000cef FB   
    2171 000cf0       $C$L53:    
    2172                      .dwpsn  file "../c5535_bsl_revc/ezdsp5535_v1/c55xx_csl/src/csl_usb.c",line 722,column 2,is_stmt
    2173 000cf0 A418          MOV *SP(#12), T0 ; |722| 
    2174 000cf2       $C$L54:    
    2175                      .dwpsn  file "../c5535_bsl_revc/ezdsp5535_v1/c55xx_csl/src/csl_usb.c",line 723,column 1,is_stmt
    2176 000cf2 4E15          AADD #21, SP
    2177                      .dwcfi  cfa_offset, 1
    2178              $C$DW$103       .dwtag  DW_TAG_TI_branch
    2179                      .dwattr $C$DW$103, DW_AT_low_pc(0x00)
    2180                      .dwattr $C$DW$103, DW_AT_TI_return
    2181 000cf4 4804          RET
    2182                                                      ; return occurs
    2183                      .dwattr $C$DW$81, DW_AT_TI_end_file("../c5535_bsl_revc/ezdsp5535_v1/c55xx_csl/src/csl_usb.c")
    2184                      .dwattr $C$DW$81, DW_AT_TI_end_line(0x2d3)
    2185                      .dwattr $C$DW$81, DW_AT_TI_end_column(0x01)
    2186                      .dwendentry
    2187                      .dwendtag $C$DW$81
    2188              
    2189 000cf6               .sect   ".text"
    2190                      .align 4
    2191                      .global _USB_getEvents
    2192              
    2193              $C$DW$104       .dwtag  DW_TAG_subprogram, DW_AT_name("USB_getEvents")
    2194                      .dwattr $C$DW$104, DW_AT_low_pc(_USB_getEvents)
    2195                      .dwattr $C$DW$104, DW_AT_high_pc(0x00)
    2196                      .dwattr $C$DW$104, DW_AT_TI_symbol_name("_USB_getEvents")
    2197                      .dwattr $C$DW$104, DW_AT_external
    2198                      .dwattr $C$DW$104, DW_AT_type(*$C$DW$T$175)
    2199                      .dwattr $C$DW$104, DW_AT_TI_begin_file("../c5535_bsl_revc/ezdsp5535_v1/c55xx_csl/src/csl_usb.c")
    2200                      .dwattr $C$DW$104, DW_AT_TI_begin_line(0x305)
    2201                      .dwattr $C$DW$104, DW_AT_TI_begin_column(0x12)
    2202                      .dwattr $C$DW$104, DW_AT_TI_max_frame_size(0x0c)
    2203                      .dwpsn  file "../c5535_bsl_revc/ezdsp5535_v1/c55xx_csl/src/csl_usb.c",line 775,column 1,is_stmt,addre
    2204              
    2205                      .dwfde $C$DW$CIE, _USB_getEvents
    2206              $C$DW$105       .dwtag  DW_TAG_formal_parameter, DW_AT_name("hEp")
    2207                      .dwattr $C$DW$105, DW_AT_TI_symbol_name("_hEp")
    2208                      .dwattr $C$DW$105, DW_AT_type(*$C$DW$T$102)
    2209                      .dwattr $C$DW$105, DW_AT_location[DW_OP_reg17]
    2210              $C$DW$106       .dwtag  DW_TAG_formal_parameter, DW_AT_name("status")
    2211                      .dwattr $C$DW$106, DW_AT_TI_symbol_name("_status")
    2212                      .dwattr $C$DW$106, DW_AT_type(*$C$DW$T$124)
    2213                      .dwattr $C$DW$106, DW_AT_location[DW_OP_reg19]
    2214              ;*******************************************************************************
TMS320C55x Assembler PC v4.4.1 Tue Oct 02 02:33:44 2018

Tools Copyright (c) 1996-2012 Texas Instruments Incorporated
csl_usb.asm                                                          PAGE   59

    2215              ;* FUNCTION NAME: USB_getEvents                                                *
    2216              ;*                                                                             *
    2217              ;*   Function Uses Regs : AC0,AC0,AC1,AC1,T0,AR0,XAR0,AR1,XAR1,AR2,XAR2,AR3,   *
    2218              ;*                        XAR3,SP,CARRY,M40,SATA,SATD,RDM,FRCT,SMUL            *
    2219              ;*   Stack Frame        : Compact (No Frame Pointer, w/ debug)                 *
    2220              ;*   Total Frame Size   : 12 words                                             *
    2221              ;*                        (2 return address/alignment)                         *
    2222              ;*                        (10 local values)                                    *
    2223              ;*   Min System Stack   : 1 word                                               *
    2224              ;*******************************************************************************
    2225 000cf8       _USB_getEvents:
    2226                      .dwcfi  cfa_offset, 1
    2227                      .dwcfi  save_reg_to_mem, 91, -1
    2228 000cf8 4EF5          AADD #-11, SP
    2229                      .dwcfi  cfa_offset, 12
    2230              $C$DW$107       .dwtag  DW_TAG_variable, DW_AT_name("hEp")
    2231                      .dwattr $C$DW$107, DW_AT_TI_symbol_name("_hEp")
    2232                      .dwattr $C$DW$107, DW_AT_type(*$C$DW$T$102)
    2233                      .dwattr $C$DW$107, DW_AT_location[DW_OP_bregx 0x24 0]
    2234              $C$DW$108       .dwtag  DW_TAG_variable, DW_AT_name("status")
    2235                      .dwattr $C$DW$108, DW_AT_TI_symbol_name("_status")
    2236                      .dwattr $C$DW$108, DW_AT_type(*$C$DW$T$124)
    2237                      .dwattr $C$DW$108, DW_AT_location[DW_OP_bregx 0x24 2]
    2238              $C$DW$109       .dwtag  DW_TAG_variable, DW_AT_name("peps")
    2239                      .dwattr $C$DW$109, DW_AT_TI_symbol_name("_peps")
    2240                      .dwattr $C$DW$109, DW_AT_type(*$C$DW$T$147)
    2241                      .dwattr $C$DW$109, DW_AT_location[DW_OP_bregx 0x24 4]
    2242              $C$DW$110       .dwtag  DW_TAG_variable, DW_AT_name("usbEvents")
    2243                      .dwattr $C$DW$110, DW_AT_TI_symbol_name("_usbEvents")
    2244                      .dwattr $C$DW$110, DW_AT_type(*$C$DW$T$175)
    2245                      .dwattr $C$DW$110, DW_AT_location[DW_OP_bregx 0x24 6]
    2246              $C$DW$111       .dwtag  DW_TAG_variable, DW_AT_name("pContext")
    2247                      .dwattr $C$DW$111, DW_AT_TI_symbol_name("_pContext")
    2248                      .dwattr $C$DW$111, DW_AT_type(*$C$DW$T$142)
    2249                      .dwattr $C$DW$111, DW_AT_location[DW_OP_bregx 0x24 8]
    2250 000cfa EB04          MOV XAR1, dbl(*SP(#2))
         000cfc 95   
    2251 000cfd EB00          MOV XAR0, dbl(*SP(#0))
         000cff 85   
    2252                      .dwpsn  file "../c5535_bsl_revc/ezdsp5535_v1/c55xx_csl/src/csl_usb.c",line 780,column 2,is_stmt
    2253 000d00 ED04          MOV dbl(*SP(#2)), XAR3
         000d02 BF   
    2254 000d03 E661          MOV #0, *AR3 ; |780| 
         000d05 00   
    2255                      .dwpsn  file "../c5535_bsl_revc/ezdsp5535_v1/c55xx_csl/src/csl_usb.c",line 781,column 2,is_stmt
    2256 000d06 E60C          MOV #0, *SP(#6) ; |781| 
         000d08 00   
    2257                      .dwpsn  file "../c5535_bsl_revc/ezdsp5535_v1/c55xx_csl/src/csl_usb.c",line 782,column 2,is_stmt
    2258 000d09 EC31          AMOV #_gUsbContext, XAR3 ; |782| 
         000d0b BE00 
         000d0d 0002-
    2259 000d0f EB10          MOV XAR3, dbl(*SP(#8))
         000d11 B5   
    2260                      .dwpsn  file "../c5535_bsl_revc/ezdsp5535_v1/c55xx_csl/src/csl_usb.c",line 783,column 2,is_stmt
    2261 000d12 3C00          MOV #0, AC0 ; |783| 
TMS320C55x Assembler PC v4.4.1 Tue Oct 02 02:33:44 2018

Tools Copyright (c) 1996-2012 Texas Instruments Incorporated
csl_usb.asm                                                          PAGE   60

    2262 000d14 EB08          MOV AC0, dbl(*SP(#4))
         000d16 08   
    2263                      .dwpsn  file "../c5535_bsl_revc/ezdsp5535_v1/c55xx_csl/src/csl_usb.c",line 785,column 2,is_stmt
    2264 000d17 ED00          MOV dbl(*SP(#0)), XAR3
         000d19 BF   
    2265 000d1a 90B0          MOV XAR3, AC0
    2266 000d1c 0400          BCC $C$L55,AC0 == #0 ; |785| 
         000d1e 40   
    2267                                                      ; branchcc occurs ; |785| 
    2268                      .dwpsn  file "../c5535_bsl_revc/ezdsp5535_v1/c55xx_csl/src/csl_usb.c",line 787,column 3,is_stmt
    2269 000d1f A961          MOV *AR3, AR1 ; |787| 
    2270 000d21 2290          MOV AR1, AC0
    2271 000d23 ED10          MOV dbl(*SP(#8)), XAR3
         000d25 BF   
    2272 000d26 1005          SFTS AC0, #-2, AC0 ; |787| 
         000d28 3E   
    2273 000d29 76E0          BFXTR #0xe000, AC0, AR2 ; |787| 
         000d2b 00A0 
    2274 000d2d 249A          ADD AR1, AR2 ; |787| 
    2275 000d2f 7DFF          AND #0xfffffff8, AR2, AR2 ; |787| 
         000d31 F8AA 
    2276 000d33 ED6D          MOV dbl(*AR3(#98)), XAR3
         000d35 BF00 
         000d37 62   
    2277 000d38 26A9          SUB AR2, AR1 ; |787| 
    2278 000d3a 2291          MOV AR1, AC1
    2279 000d3c 1015          SFTS AC1, #1, AC0 ; |787| 
         000d3e 01   
    2280 000d3f 1013          ADD AC1 << #4, AC0 ; |787| 
         000d41 04   
    2281 000d42 900A          MOV AC0, XAR2
    2282              
    2283 000d44 8E08          MOV XAR3, dbl(*SP(#4))
         000d46 BB10 
         000d48 B5A1 
    2284              ||      AADD XAR2, XAR3 ; |787| 
    2285              
    2286                      .dwpsn  file "../c5535_bsl_revc/ezdsp5535_v1/c55xx_csl/src/csl_usb.c",line 789,column 3,is_stmt
    2287 000d4a 90B0          MOV XAR3, AC0
    2288 000d4c 0400          BCC $C$L56,AC0 == #0 ; |789| 
         000d4e 16   
    2289                                                      ; branchcc occurs ; |789| 
    2290                      .dwpsn  file "../c5535_bsl_revc/ezdsp5535_v1/c55xx_csl/src/csl_usb.c",line 791,column 4,is_stmt
    2291 000d4f A96D          MOV *AR3(#12), AR1 ; |791| 
         000d51 000C 
    2292 000d53 C90C          MOV AR1, *SP(#6) ; |791| 
    2293                      .dwpsn  file "../c5535_bsl_revc/ezdsp5535_v1/c55xx_csl/src/csl_usb.c",line 793,column 4,is_stmt
    2294 000d55 ED08          MOV dbl(*SP(#4)), XAR3
         000d57 BF   
    2295 000d58 E66D          MOV #0, *AR3(#12) ; |793| 
         000d5a 0000 
         000d5c 0C   
    2296                      .dwpsn  file "../c5535_bsl_revc/ezdsp5535_v1/c55xx_csl/src/csl_usb.c",line 795,column 2,is_stmt
    2297 000d5d 4A06          B $C$L56  ; |795| 
    2298                                                      ; branch occurs ; |795| 
TMS320C55x Assembler PC v4.4.1 Tue Oct 02 02:33:44 2018

Tools Copyright (c) 1996-2012 Texas Instruments Incorporated
csl_usb.asm                                                          PAGE   61

    2299 000d5f       $C$L55:    
    2300                      .dwpsn  file "../c5535_bsl_revc/ezdsp5535_v1/c55xx_csl/src/csl_usb.c",line 798,column 3,is_stmt
    2301 000d5f ED04          MOV dbl(*SP(#2)), XAR3
         000d61 BF   
    2302 000d62 E661          MOV #-5, *AR3 ; |798| 
         000d64 FB   
    2303 000d65       $C$L56:    
    2304                      .dwpsn  file "../c5535_bsl_revc/ezdsp5535_v1/c55xx_csl/src/csl_usb.c",line 801,column 2,is_stmt
    2305 000d65 A40C          MOV *SP(#6), T0 ; |801| 
    2306                      .dwpsn  file "../c5535_bsl_revc/ezdsp5535_v1/c55xx_csl/src/csl_usb.c",line 802,column 1,is_stmt
    2307 000d67 4E0B          AADD #11, SP
    2308                      .dwcfi  cfa_offset, 1
    2309              $C$DW$112       .dwtag  DW_TAG_TI_branch
    2310                      .dwattr $C$DW$112, DW_AT_low_pc(0x00)
    2311                      .dwattr $C$DW$112, DW_AT_TI_return
    2312 000d69 4804          RET
    2313                                                      ; return occurs
    2314                      .dwattr $C$DW$104, DW_AT_TI_end_file("../c5535_bsl_revc/ezdsp5535_v1/c55xx_csl/src/csl_usb.c")
    2315                      .dwattr $C$DW$104, DW_AT_TI_end_line(0x322)
    2316                      .dwattr $C$DW$104, DW_AT_TI_end_column(0x01)
    2317                      .dwendentry
    2318                      .dwendtag $C$DW$104
    2319              
    2320 000d6b               .sect   ".text"
    2321                      .align 4
    2322                      .global _USB_peekEvents
    2323              
    2324              $C$DW$113       .dwtag  DW_TAG_subprogram, DW_AT_name("USB_peekEvents")
    2325                      .dwattr $C$DW$113, DW_AT_low_pc(_USB_peekEvents)
    2326                      .dwattr $C$DW$113, DW_AT_high_pc(0x00)
    2327                      .dwattr $C$DW$113, DW_AT_TI_symbol_name("_USB_peekEvents")
    2328                      .dwattr $C$DW$113, DW_AT_external
    2329                      .dwattr $C$DW$113, DW_AT_type(*$C$DW$T$175)
    2330                      .dwattr $C$DW$113, DW_AT_TI_begin_file("../c5535_bsl_revc/ezdsp5535_v1/c55xx_csl/src/csl_usb.c")
    2331                      .dwattr $C$DW$113, DW_AT_TI_begin_line(0x356)
    2332                      .dwattr $C$DW$113, DW_AT_TI_begin_column(0x12)
    2333                      .dwattr $C$DW$113, DW_AT_TI_max_frame_size(0x0c)
    2334                      .dwpsn  file "../c5535_bsl_revc/ezdsp5535_v1/c55xx_csl/src/csl_usb.c",line 856,column 1,is_stmt,addre
    2335              
    2336                      .dwfde $C$DW$CIE, _USB_peekEvents
    2337              $C$DW$114       .dwtag  DW_TAG_formal_parameter, DW_AT_name("hEp")
    2338                      .dwattr $C$DW$114, DW_AT_TI_symbol_name("_hEp")
    2339                      .dwattr $C$DW$114, DW_AT_type(*$C$DW$T$102)
    2340                      .dwattr $C$DW$114, DW_AT_location[DW_OP_reg17]
    2341              $C$DW$115       .dwtag  DW_TAG_formal_parameter, DW_AT_name("status")
    2342                      .dwattr $C$DW$115, DW_AT_TI_symbol_name("_status")
    2343                      .dwattr $C$DW$115, DW_AT_type(*$C$DW$T$124)
    2344                      .dwattr $C$DW$115, DW_AT_location[DW_OP_reg19]
    2345              ;*******************************************************************************
    2346              ;* FUNCTION NAME: USB_peekEvents                                               *
    2347              ;*                                                                             *
    2348              ;*   Function Uses Regs : AC0,AC0,AC1,AC1,T0,AR0,XAR0,AR1,XAR1,AR2,XAR2,AR3,   *
    2349              ;*                        XAR3,SP,CARRY,M40,SATA,SATD,RDM,FRCT,SMUL            *
    2350              ;*   Stack Frame        : Compact (No Frame Pointer, w/ debug)                 *
    2351              ;*   Total Frame Size   : 12 words                                             *
TMS320C55x Assembler PC v4.4.1 Tue Oct 02 02:33:44 2018

Tools Copyright (c) 1996-2012 Texas Instruments Incorporated
csl_usb.asm                                                          PAGE   62

    2352              ;*                        (2 return address/alignment)                         *
    2353              ;*                        (10 local values)                                    *
    2354              ;*   Min System Stack   : 1 word                                               *
    2355              ;*******************************************************************************
    2356 000d6c       _USB_peekEvents:
    2357                      .dwcfi  cfa_offset, 1
    2358                      .dwcfi  save_reg_to_mem, 91, -1
    2359 000d6c 4EF5          AADD #-11, SP
    2360                      .dwcfi  cfa_offset, 12
    2361              $C$DW$116       .dwtag  DW_TAG_variable, DW_AT_name("hEp")
    2362                      .dwattr $C$DW$116, DW_AT_TI_symbol_name("_hEp")
    2363                      .dwattr $C$DW$116, DW_AT_type(*$C$DW$T$102)
    2364                      .dwattr $C$DW$116, DW_AT_location[DW_OP_bregx 0x24 0]
    2365              $C$DW$117       .dwtag  DW_TAG_variable, DW_AT_name("status")
    2366                      .dwattr $C$DW$117, DW_AT_TI_symbol_name("_status")
    2367                      .dwattr $C$DW$117, DW_AT_type(*$C$DW$T$124)
    2368                      .dwattr $C$DW$117, DW_AT_location[DW_OP_bregx 0x24 2]
    2369              $C$DW$118       .dwtag  DW_TAG_variable, DW_AT_name("peps")
    2370                      .dwattr $C$DW$118, DW_AT_TI_symbol_name("_peps")
    2371                      .dwattr $C$DW$118, DW_AT_type(*$C$DW$T$147)
    2372                      .dwattr $C$DW$118, DW_AT_location[DW_OP_bregx 0x24 4]
    2373              $C$DW$119       .dwtag  DW_TAG_variable, DW_AT_name("usbEvents")
    2374                      .dwattr $C$DW$119, DW_AT_TI_symbol_name("_usbEvents")
    2375                      .dwattr $C$DW$119, DW_AT_type(*$C$DW$T$175)
    2376                      .dwattr $C$DW$119, DW_AT_location[DW_OP_bregx 0x24 6]
    2377              $C$DW$120       .dwtag  DW_TAG_variable, DW_AT_name("pContext")
    2378                      .dwattr $C$DW$120, DW_AT_TI_symbol_name("_pContext")
    2379                      .dwattr $C$DW$120, DW_AT_type(*$C$DW$T$142)
    2380                      .dwattr $C$DW$120, DW_AT_location[DW_OP_bregx 0x24 8]
    2381 000d6e EB04          MOV XAR1, dbl(*SP(#2))
         000d70 95   
    2382 000d71 EB00          MOV XAR0, dbl(*SP(#0))
         000d73 85   
    2383                      .dwpsn  file "../c5535_bsl_revc/ezdsp5535_v1/c55xx_csl/src/csl_usb.c",line 861,column 2,is_stmt
    2384 000d74 ED04          MOV dbl(*SP(#2)), XAR3
         000d76 BF   
    2385 000d77 E661          MOV #0, *AR3 ; |861| 
         000d79 00   
    2386                      .dwpsn  file "../c5535_bsl_revc/ezdsp5535_v1/c55xx_csl/src/csl_usb.c",line 862,column 2,is_stmt
    2387 000d7a E60C          MOV #0, *SP(#6) ; |862| 
         000d7c 00   
    2388                      .dwpsn  file "../c5535_bsl_revc/ezdsp5535_v1/c55xx_csl/src/csl_usb.c",line 863,column 2,is_stmt
    2389 000d7d EC31          AMOV #_gUsbContext, XAR3 ; |863| 
         000d7f BE00 
         000d81 0002-
    2390 000d83 EB10          MOV XAR3, dbl(*SP(#8))
         000d85 B5   
    2391                      .dwpsn  file "../c5535_bsl_revc/ezdsp5535_v1/c55xx_csl/src/csl_usb.c",line 864,column 2,is_stmt
    2392 000d86 3C00          MOV #0, AC0 ; |864| 
    2393 000d88 EB08          MOV AC0, dbl(*SP(#4))
         000d8a 08   
    2394                      .dwpsn  file "../c5535_bsl_revc/ezdsp5535_v1/c55xx_csl/src/csl_usb.c",line 866,column 2,is_stmt
    2395 000d8b ED00          MOV dbl(*SP(#0)), XAR3
         000d8d BF   
    2396 000d8e 90B0          MOV XAR3, AC0
TMS320C55x Assembler PC v4.4.1 Tue Oct 02 02:33:44 2018

Tools Copyright (c) 1996-2012 Texas Instruments Incorporated
csl_usb.asm                                                          PAGE   63

    2397 000d90 0400          BCC $C$L57,AC0 == #0 ; |866| 
         000d92 37   
    2398                                                      ; branchcc occurs ; |866| 
    2399                      .dwpsn  file "../c5535_bsl_revc/ezdsp5535_v1/c55xx_csl/src/csl_usb.c",line 868,column 3,is_stmt
    2400 000d93 A961          MOV *AR3, AR1 ; |868| 
    2401 000d95 2290          MOV AR1, AC0
    2402 000d97 ED10          MOV dbl(*SP(#8)), XAR3
         000d99 BF   
    2403 000d9a 1005          SFTS AC0, #-2, AC0 ; |868| 
         000d9c 3E   
    2404 000d9d 76E0          BFXTR #0xe000, AC0, AR2 ; |868| 
         000d9f 00A0 
    2405 000da1 249A          ADD AR1, AR2 ; |868| 
    2406 000da3 7DFF          AND #0xfffffff8, AR2, AR2 ; |868| 
         000da5 F8AA 
    2407 000da7 ED6D          MOV dbl(*AR3(#98)), XAR3
         000da9 BF00 
         000dab 62   
    2408 000dac 26A9          SUB AR2, AR1 ; |868| 
    2409 000dae 2291          MOV AR1, AC1
    2410 000db0 1015          SFTS AC1, #1, AC0 ; |868| 
         000db2 01   
    2411 000db3 1013          ADD AC1 << #4, AC0 ; |868| 
         000db5 04   
    2412 000db6 900A          MOV AC0, XAR2
    2413              
    2414 000db8 8E08          MOV XAR3, dbl(*SP(#4))
         000dba BB10 
         000dbc B5A1 
    2415              ||      AADD XAR2, XAR3 ; |868| 
    2416              
    2417                      .dwpsn  file "../c5535_bsl_revc/ezdsp5535_v1/c55xx_csl/src/csl_usb.c",line 870,column 3,is_stmt
    2418 000dbe 90B0          MOV XAR3, AC0
    2419 000dc0 6700          BCC $C$L58,AC0 == #0 ; |870| 
    2420                                                      ; branchcc occurs ; |870| 
    2421                      .dwpsn  file "../c5535_bsl_revc/ezdsp5535_v1/c55xx_csl/src/csl_usb.c",line 872,column 4,is_stmt
    2422 000dc2 A96D          MOV *AR3(#12), AR1 ; |872| 
         000dc4 000C 
    2423 000dc6 C90C          MOV AR1, *SP(#6) ; |872| 
    2424                      .dwpsn  file "../c5535_bsl_revc/ezdsp5535_v1/c55xx_csl/src/csl_usb.c",line 874,column 2,is_stmt
    2425 000dc8 4A06          B $C$L58  ; |874| 
    2426                                                      ; branch occurs ; |874| 
    2427 000dca       $C$L57:    
    2428                      .dwpsn  file "../c5535_bsl_revc/ezdsp5535_v1/c55xx_csl/src/csl_usb.c",line 877,column 3,is_stmt
    2429 000dca ED04          MOV dbl(*SP(#2)), XAR3
         000dcc BF   
    2430 000dcd E661          MOV #-5, *AR3 ; |877| 
         000dcf FB   
    2431 000dd0       $C$L58:    
    2432                      .dwpsn  file "../c5535_bsl_revc/ezdsp5535_v1/c55xx_csl/src/csl_usb.c",line 880,column 2,is_stmt
    2433 000dd0 A40C          MOV *SP(#6), T0 ; |880| 
    2434                      .dwpsn  file "../c5535_bsl_revc/ezdsp5535_v1/c55xx_csl/src/csl_usb.c",line 881,column 1,is_stmt
    2435 000dd2 4E0B          AADD #11, SP
    2436                      .dwcfi  cfa_offset, 1
    2437              $C$DW$121       .dwtag  DW_TAG_TI_branch
TMS320C55x Assembler PC v4.4.1 Tue Oct 02 02:33:44 2018

Tools Copyright (c) 1996-2012 Texas Instruments Incorporated
csl_usb.asm                                                          PAGE   64

    2438                      .dwattr $C$DW$121, DW_AT_low_pc(0x00)
    2439                      .dwattr $C$DW$121, DW_AT_TI_return
    2440 000dd4 4804          RET
    2441                                                      ; return occurs
    2442                      .dwattr $C$DW$113, DW_AT_TI_end_file("../c5535_bsl_revc/ezdsp5535_v1/c55xx_csl/src/csl_usb.c")
    2443                      .dwattr $C$DW$113, DW_AT_TI_end_line(0x371)
    2444                      .dwattr $C$DW$113, DW_AT_TI_end_column(0x01)
    2445                      .dwendentry
    2446                      .dwendtag $C$DW$113
    2447              
    2448 000dd6               .sect   ".text"
    2449                      .align 4
    2450                      .global _USB_getSetupPacket
    2451              
    2452              $C$DW$122       .dwtag  DW_TAG_subprogram, DW_AT_name("USB_getSetupPacket")
    2453                      .dwattr $C$DW$122, DW_AT_low_pc(_USB_getSetupPacket)
    2454                      .dwattr $C$DW$122, DW_AT_high_pc(0x00)
    2455                      .dwattr $C$DW$122, DW_AT_TI_symbol_name("_USB_getSetupPacket")
    2456                      .dwattr $C$DW$122, DW_AT_external
    2457                      .dwattr $C$DW$122, DW_AT_type(*$C$DW$T$75)
    2458                      .dwattr $C$DW$122, DW_AT_TI_begin_file("../c5535_bsl_revc/ezdsp5535_v1/c55xx_csl/src/csl_usb.c")
    2459                      .dwattr $C$DW$122, DW_AT_TI_begin_line(0x3a3)
    2460                      .dwattr $C$DW$122, DW_AT_TI_begin_column(0x0c)
    2461                      .dwattr $C$DW$122, DW_AT_TI_max_frame_size(0x0e)
    2462                      .dwpsn  file "../c5535_bsl_revc/ezdsp5535_v1/c55xx_csl/src/csl_usb.c",line 934,column 1,is_stmt,addre
    2463              
    2464                      .dwfde $C$DW$CIE, _USB_getSetupPacket
    2465              $C$DW$123       .dwtag  DW_TAG_formal_parameter, DW_AT_name("devNum")
    2466                      .dwattr $C$DW$123, DW_AT_TI_symbol_name("_devNum")
    2467                      .dwattr $C$DW$123, DW_AT_type(*$C$DW$T$68)
    2468                      .dwattr $C$DW$123, DW_AT_location[DW_OP_reg12]
    2469              $C$DW$124       .dwtag  DW_TAG_formal_parameter, DW_AT_name("usbSetup")
    2470                      .dwattr $C$DW$124, DW_AT_TI_symbol_name("_usbSetup")
    2471                      .dwattr $C$DW$124, DW_AT_type(*$C$DW$T$149)
    2472                      .dwattr $C$DW$124, DW_AT_location[DW_OP_reg17]
    2473              $C$DW$125       .dwtag  DW_TAG_formal_parameter, DW_AT_name("readFromFifo")
    2474                      .dwattr $C$DW$125, DW_AT_TI_symbol_name("_readFromFifo")
    2475                      .dwattr $C$DW$125, DW_AT_type(*$C$DW$T$81)
    2476                      .dwattr $C$DW$125, DW_AT_location[DW_OP_reg13]
    2477              ;*******************************************************************************
    2478              ;* FUNCTION NAME: USB_getSetupPacket                                           *
    2479              ;*                                                                             *
    2480              ;*   Function Uses Regs : AC0,AC0,T0,T1,AR0,XAR0,AR1,AR2,XAR2,AR3,XAR3,SP,CSR, *
    2481              ;*                        RPTC,TC1,M40,SATA,SATD,RDM,FRCT,SMUL                 *
    2482              ;*   Stack Frame        : Compact (No Frame Pointer, w/ debug)                 *
    2483              ;*   Total Frame Size   : 14 words                                             *
    2484              ;*                        (2 return address/alignment)                         *
    2485              ;*                        (12 local values)                                    *
    2486              ;*   Min System Stack   : 1 word                                               *
    2487              ;*******************************************************************************
    2488 000dd8       _USB_getSetupPacket:
    2489                      .dwcfi  cfa_offset, 1
    2490                      .dwcfi  save_reg_to_mem, 91, -1
    2491 000dd8 4EF3          AADD #-13, SP
    2492                      .dwcfi  cfa_offset, 14
TMS320C55x Assembler PC v4.4.1 Tue Oct 02 02:33:44 2018

Tools Copyright (c) 1996-2012 Texas Instruments Incorporated
csl_usb.asm                                                          PAGE   65

    2493              $C$DW$126       .dwtag  DW_TAG_variable, DW_AT_name("devNum")
    2494                      .dwattr $C$DW$126, DW_AT_TI_symbol_name("_devNum")
    2495                      .dwattr $C$DW$126, DW_AT_type(*$C$DW$T$68)
    2496                      .dwattr $C$DW$126, DW_AT_location[DW_OP_bregx 0x24 0]
    2497              $C$DW$127       .dwtag  DW_TAG_variable, DW_AT_name("usbSetup")
    2498                      .dwattr $C$DW$127, DW_AT_TI_symbol_name("_usbSetup")
    2499                      .dwattr $C$DW$127, DW_AT_type(*$C$DW$T$149)
    2500                      .dwattr $C$DW$127, DW_AT_location[DW_OP_bregx 0x24 2]
    2501              $C$DW$128       .dwtag  DW_TAG_variable, DW_AT_name("readFromFifo")
    2502                      .dwattr $C$DW$128, DW_AT_TI_symbol_name("_readFromFifo")
    2503                      .dwattr $C$DW$128, DW_AT_type(*$C$DW$T$81)
    2504                      .dwattr $C$DW$128, DW_AT_location[DW_OP_bregx 0x24 4]
    2505              $C$DW$129       .dwtag  DW_TAG_variable, DW_AT_name("status")
    2506                      .dwattr $C$DW$129, DW_AT_TI_symbol_name("_status")
    2507                      .dwattr $C$DW$129, DW_AT_type(*$C$DW$T$75)
    2508                      .dwattr $C$DW$129, DW_AT_location[DW_OP_bregx 0x24 5]
    2509              $C$DW$130       .dwtag  DW_TAG_variable, DW_AT_name("pContext")
    2510                      .dwattr $C$DW$130, DW_AT_TI_symbol_name("_pContext")
    2511                      .dwattr $C$DW$130, DW_AT_type(*$C$DW$T$142)
    2512                      .dwattr $C$DW$130, DW_AT_location[DW_OP_bregx 0x24 6]
    2513              $C$DW$131       .dwtag  DW_TAG_variable, DW_AT_name("wBuffer")
    2514                      .dwattr $C$DW$131, DW_AT_TI_symbol_name("_wBuffer")
    2515                      .dwattr $C$DW$131, DW_AT_type(*$C$DW$T$187)
    2516                      .dwattr $C$DW$131, DW_AT_location[DW_OP_bregx 0x24 8]
    2517 000dda C508          MOV T1, *SP(#4) ; |934| 
    2518 000ddc EB04          MOV XAR0, dbl(*SP(#2))
         000dde 85   
    2519 000ddf C400          MOV T0, *SP(#0) ; |934| 
    2520                      .dwpsn  file "../c5535_bsl_revc/ezdsp5535_v1/c55xx_csl/src/csl_usb.c",line 939,column 2,is_stmt
    2521 000de1 EC31          AMOV #_gUsbContext, XAR3 ; |939| 
         000de3 BE00 
         000de5 0002-
    2522 000de7 EB0C          MOV XAR3, dbl(*SP(#6))
         000de9 B5   
    2523                      .dwpsn  file "../c5535_bsl_revc/ezdsp5535_v1/c55xx_csl/src/csl_usb.c",line 940,column 2,is_stmt
    2524 000dea E60A          MOV #0, *SP(#5) ; |940| 
         000dec 00   
    2525                      .dwpsn  file "../c5535_bsl_revc/ezdsp5535_v1/c55xx_csl/src/csl_usb.c",line 942,column 2,is_stmt
    2526 000ded ED04          MOV dbl(*SP(#2)), XAR3
         000def BF   
    2527 000df0 90B0          MOV XAR3, AC0
    2528 000df2 6D00          BCC $C$L65,AC0 == #0 ; |942| 
         000df4 0080 
    2529                                                      ; branchcc occurs ; |942| 
    2530                      .dwpsn  file "../c5535_bsl_revc/ezdsp5535_v1/c55xx_csl/src/csl_usb.c",line 944,column 3,is_stmt
    2531 000df6 0600          B $C$L64  ; |944| 
         000df8 76   
    2532                                                      ; branch occurs ; |944| 
    2533 000df9       $C$L59:    
    2534                      .dwpsn  file "../c5535_bsl_revc/ezdsp5535_v1/c55xx_csl/src/csl_usb.c",line 947,column 5,is_stmt
    2535 000df9 F008          CMP *SP(#4) == #1, TC1 ; |947| 
         000dfb 0001 
    2536 000dfd 0474          BCC $C$L60,!TC1 ; |947| 
         000dff 56   
    2537                                                      ; branchcc occurs ; |947| 
TMS320C55x Assembler PC v4.4.1 Tue Oct 02 02:33:44 2018

Tools Copyright (c) 1996-2012 Texas Instruments Incorporated
csl_usb.asm                                                          PAGE   66

    2538                      .dwpsn  file "../c5535_bsl_revc/ezdsp5535_v1/c55xx_csl/src/csl_usb.c",line 950,column 6,is_stmt
    2539 000e00 7604          MOV #1057, T0 ; |950| 
         000e02 2148 
    2540 000e04 AB31          MOV *(#_usbRegisters), AR3 ; |950| 
         000e06 0000 
         000e08 00-  
    2541 000e09 A96B          MOV port(*AR3(T0)), AR1 ; |950| 
         000e0b 99   
    2542 000e0c C910          MOV AR1, *SP(#8) ; |950| 
    2543                      .dwpsn  file "../c5535_bsl_revc/ezdsp5535_v1/c55xx_csl/src/csl_usb.c",line 952,column 6,is_stmt
    2544 000e0e A96B          MOV port(*AR3(T0)), AR1 ; |952| 
         000e10 99   
    2545 000e11 C912          MOV AR1, *SP(#9) ; |952| 
    2546                      .dwpsn  file "../c5535_bsl_revc/ezdsp5535_v1/c55xx_csl/src/csl_usb.c",line 954,column 6,is_stmt
    2547 000e13 A96B          MOV port(*AR3(T0)), AR1 ; |954| 
         000e15 99   
    2548 000e16 C914          MOV AR1, *SP(#10) ; |954| 
    2549                      .dwpsn  file "../c5535_bsl_revc/ezdsp5535_v1/c55xx_csl/src/csl_usb.c",line 956,column 6,is_stmt
    2550 000e18 A96B          MOV port(*AR3(T0)), AR1 ; |956| 
         000e1a 99   
    2551 000e1b C916          MOV AR1, *SP(#11) ; |956| 
    2552                      .dwpsn  file "../c5535_bsl_revc/ezdsp5535_v1/c55xx_csl/src/csl_usb.c",line 959,column 6,is_stmt
    2553 000e1d ED04          MOV dbl(*SP(#2)), XAR3
         000e1f BF   
    2554 000e20 DF10          MOV uns(low_byte(*SP(#8))), AR1 ; |959| 
         000e22 93   
    2555 000e23 C973          MOV AR1, *AR3(short(#1)) ; |959| 
    2556                      .dwpsn  file "../c5535_bsl_revc/ezdsp5535_v1/c55xx_csl/src/csl_usb.c",line 960,column 6,is_stmt
    2557 000e25 ED04          MOV dbl(*SP(#2)), XAR3
         000e27 BF   
    2558 000e28 A910          MOV *SP(#8), AR1 ; |960| 
    2559 000e2a 7DFF          AND #0xff00, AR1, AC0 ; |960| 
         000e2c 0009 
    2560 000e2e 1005          SFTS AC0, #-8, AC0 ; |960| 
         000e30 38   
    2561 000e31 C075          MOV AC0, *AR3(short(#2)) ; |960| 
    2562                      .dwpsn  file "../c5535_bsl_revc/ezdsp5535_v1/c55xx_csl/src/csl_usb.c",line 961,column 6,is_stmt
    2563 000e33 ED04          MOV dbl(*SP(#2)), XAR3
         000e35 BF   
    2564 000e36 A912          MOV *SP(#9), AR1 ; |961| 
    2565 000e38 C977          MOV AR1, *AR3(short(#3)) ; |961| 
    2566                      .dwpsn  file "../c5535_bsl_revc/ezdsp5535_v1/c55xx_csl/src/csl_usb.c",line 962,column 6,is_stmt
    2567 000e3a ED04          MOV dbl(*SP(#2)), XAR3
         000e3c BF   
    2568 000e3d A914          MOV *SP(#10), AR1 ; |962| 
    2569 000e3f C979          MOV AR1, *AR3(short(#4)) ; |962| 
    2570                      .dwpsn  file "../c5535_bsl_revc/ezdsp5535_v1/c55xx_csl/src/csl_usb.c",line 963,column 6,is_stmt
    2571 000e41 ED04          MOV dbl(*SP(#2)), XAR3
         000e43 BF   
    2572 000e44 A916          MOV *SP(#11), AR1 ; |963| 
    2573 000e46 C97B          MOV AR1, *AR3(short(#5)) ; |963| 
    2574                      .dwpsn  file "../c5535_bsl_revc/ezdsp5535_v1/c55xx_csl/src/csl_usb.c",line 965,column 6,is_stmt
    2575 000e48 ED04          MOV dbl(*SP(#2)), XAR3
         000e4a BF   
    2576 000e4b A97B          MOV *AR3(short(#5)), AR1 ; |965| 
TMS320C55x Assembler PC v4.4.1 Tue Oct 02 02:33:44 2018

Tools Copyright (c) 1996-2012 Texas Instruments Incorporated
csl_usb.asm                                                          PAGE   67

    2577 000e4d ED0C          MOV dbl(*SP(#6)), XAR3
         000e4f BF   
    2578 000e50 C96D          MOV AR1, *AR3(#25) ; |965| 
         000e52 0019 
    2579                      .dwpsn  file "../c5535_bsl_revc/ezdsp5535_v1/c55xx_csl/src/csl_usb.c",line 967,column 6,is_stmt
    2580 000e54 4A23          B $C$L66  ; |967| 
    2581                                                      ; branch occurs ; |967| 
    2582 000e56       $C$L60:    
    2583                      .dwpsn  file "../c5535_bsl_revc/ezdsp5535_v1/c55xx_csl/src/csl_usb.c",line 971,column 6,is_stmt
    2584 000e56 ED0C          MOV dbl(*SP(#6)), XAR3
         000e58 BF   
    2585 000e59 ED04          MOV dbl(*SP(#2)), XAR2
         000e5b AF   
    2586              
    2587 000e5f 4D05          RPT #5    ; |971| 
    2588 000e5c 1467  ||      AADD #103, AR3 ; |971| 
         000e5e B4   
    2589              
    2590                                                          ; loop starts ; |971| 
    2591 000e61       $C$L61:    
    2592 000e61       $C$DW$L$_USB_getSetupPacket$8$B:
    2593 000e61 8065              MOV *AR3+, *AR2+ ; |971| 
         000e63 14   
    2594                                                      ; loop ends ; |971| 
    2595 000e64       $C$DW$L$_USB_getSetupPacket$8$E:
    2596 000e64       $C$L62:    
    2597                      .dwpsn  file "../c5535_bsl_revc/ezdsp5535_v1/c55xx_csl/src/csl_usb.c",line 972,column 6,is_stmt
    2598 000e64 ED04          MOV dbl(*SP(#2)), XAR3
         000e66 BF   
    2599 000e67 E661          MOV #1, *AR3 ; |972| 
         000e69 01   
    2600                      .dwpsn  file "../c5535_bsl_revc/ezdsp5535_v1/c55xx_csl/src/csl_usb.c",line 976,column 17,is_stmt
    2601 000e6a       $C$L63:    
    2602                      .dwpsn  file "../c5535_bsl_revc/ezdsp5535_v1/c55xx_csl/src/csl_usb.c",line 979,column 8,is_stmt
    2603 000e6a E60A          MOV #-6, *SP(#5) ; |979| 
         000e6c FA   
    2604                      .dwpsn  file "../c5535_bsl_revc/ezdsp5535_v1/c55xx_csl/src/csl_usb.c",line 980,column 22,is_stmt
    2605 000e6d 4A0A          B $C$L66  ; |980| 
    2606                                                      ; branch occurs ; |980| 
    2607 000e6f       $C$L64:    
    2608                      .dwpsn  file "../c5535_bsl_revc/ezdsp5535_v1/c55xx_csl/src/csl_usb.c",line 944,column 3,is_stmt
    2609 000e6f A900          MOV *SP(#0), AR1 ; |944| 
    2610 000e71 0409          BCC $C$L59,AR1 == #0 ; |944| 
         000e73 85   
    2611                                                      ; branchcc occurs ; |944| 
    2612 000e74 4A74          B $C$L63  ; |944| 
    2613                                                      ; branch occurs ; |944| 
    2614 000e76       $C$L65:    
    2615                      .dwpsn  file "../c5535_bsl_revc/ezdsp5535_v1/c55xx_csl/src/csl_usb.c",line 985,column 3,is_stmt
    2616 000e76 E60A          MOV #-6, *SP(#5) ; |985| 
         000e78 FA   
    2617 000e79       $C$L66:    
    2618                      .dwpsn  file "../c5535_bsl_revc/ezdsp5535_v1/c55xx_csl/src/csl_usb.c",line 988,column 2,is_stmt
    2619 000e79 A40A          MOV *SP(#5), T0 ; |988| 
    2620                      .dwpsn  file "../c5535_bsl_revc/ezdsp5535_v1/c55xx_csl/src/csl_usb.c",line 989,column 1,is_stmt
TMS320C55x Assembler PC v4.4.1 Tue Oct 02 02:33:44 2018

Tools Copyright (c) 1996-2012 Texas Instruments Incorporated
csl_usb.asm                                                          PAGE   68

    2621 000e7b 4E0D          AADD #13, SP
    2622                      .dwcfi  cfa_offset, 1
    2623              $C$DW$132       .dwtag  DW_TAG_TI_branch
    2624                      .dwattr $C$DW$132, DW_AT_low_pc(0x00)
    2625                      .dwattr $C$DW$132, DW_AT_TI_return
    2626 000e7d 4804          RET
    2627                                                      ; return occurs
    2628              
    2629              $C$DW$133       .dwtag  DW_TAG_TI_loop
    2630                      .dwattr $C$DW$133, DW_AT_name("F:\eZdsp-DBG-sim\tmp1\c55x-sim2\foo\Debug\csl_usb.asm:$C$L61:1:1538472
    2631                      .dwattr $C$DW$133, DW_AT_TI_begin_file("../c5535_bsl_revc/ezdsp5535_v1/c55xx_csl/src/csl_usb.c")
    2632                      .dwattr $C$DW$133, DW_AT_TI_begin_line(0x3cb)
    2633                      .dwattr $C$DW$133, DW_AT_TI_end_line(0x3cb)
    2634              $C$DW$134       .dwtag  DW_TAG_TI_loop_range
    2635                      .dwattr $C$DW$134, DW_AT_low_pc($C$DW$L$_USB_getSetupPacket$8$B)
    2636                      .dwattr $C$DW$134, DW_AT_high_pc($C$DW$L$_USB_getSetupPacket$8$E)
    2637                      .dwendtag $C$DW$133
    2638              
    2639                      .dwattr $C$DW$122, DW_AT_TI_end_file("../c5535_bsl_revc/ezdsp5535_v1/c55xx_csl/src/csl_usb.c")
    2640                      .dwattr $C$DW$122, DW_AT_TI_end_line(0x3dd)
    2641                      .dwattr $C$DW$122, DW_AT_TI_end_column(0x01)
    2642                      .dwendentry
    2643                      .dwendtag $C$DW$122
    2644              
    2645 000e7f               .sect   ".text"
    2646                      .align 4
    2647                      .global _USB_postTransaction
    2648              
    2649              $C$DW$135       .dwtag  DW_TAG_subprogram, DW_AT_name("USB_postTransaction")
    2650                      .dwattr $C$DW$135, DW_AT_low_pc(_USB_postTransaction)
    2651                      .dwattr $C$DW$135, DW_AT_high_pc(0x00)
    2652                      .dwattr $C$DW$135, DW_AT_TI_symbol_name("_USB_postTransaction")
    2653                      .dwattr $C$DW$135, DW_AT_external
    2654                      .dwattr $C$DW$135, DW_AT_type(*$C$DW$T$75)
    2655                      .dwattr $C$DW$135, DW_AT_TI_begin_file("../c5535_bsl_revc/ezdsp5535_v1/c55xx_csl/src/csl_usb.c")
    2656                      .dwattr $C$DW$135, DW_AT_TI_begin_line(0x40f)
    2657                      .dwattr $C$DW$135, DW_AT_TI_begin_column(0x0c)
    2658                      .dwattr $C$DW$135, DW_AT_TI_max_frame_size(0x12)
    2659                      .dwpsn  file "../c5535_bsl_revc/ezdsp5535_v1/c55xx_csl/src/csl_usb.c",line 1043,column 1,is_stmt,addr
    2660              
    2661                      .dwfde $C$DW$CIE, _USB_postTransaction
    2662              $C$DW$136       .dwtag  DW_TAG_formal_parameter, DW_AT_name("hEp")
    2663                      .dwattr $C$DW$136, DW_AT_TI_symbol_name("_hEp")
    2664                      .dwattr $C$DW$136, DW_AT_type(*$C$DW$T$102)
    2665                      .dwattr $C$DW$136, DW_AT_location[DW_OP_reg17]
    2666              $C$DW$137       .dwtag  DW_TAG_formal_parameter, DW_AT_name("byteCnt")
    2667                      .dwattr $C$DW$137, DW_AT_TI_symbol_name("_byteCnt")
    2668                      .dwattr $C$DW$137, DW_AT_type(*$C$DW$T$19)
    2669                      .dwattr $C$DW$137, DW_AT_location[DW_OP_reg12]
    2670              $C$DW$138       .dwtag  DW_TAG_formal_parameter, DW_AT_name("data")
    2671                      .dwattr $C$DW$138, DW_AT_TI_symbol_name("_data")
    2672                      .dwattr $C$DW$138, DW_AT_type(*$C$DW$T$3)
    2673                      .dwattr $C$DW$138, DW_AT_location[DW_OP_reg19]
    2674              $C$DW$139       .dwtag  DW_TAG_formal_parameter, DW_AT_name("flags")
    2675                      .dwattr $C$DW$139, DW_AT_TI_symbol_name("_flags")
TMS320C55x Assembler PC v4.4.1 Tue Oct 02 02:33:44 2018

Tools Copyright (c) 1996-2012 Texas Instruments Incorporated
csl_usb.asm                                                          PAGE   69

    2676                      .dwattr $C$DW$139, DW_AT_type(*$C$DW$T$122)
    2677                      .dwattr $C$DW$139, DW_AT_location[DW_OP_reg13]
    2678              ;*******************************************************************************
    2679              ;* FUNCTION NAME: USB_postTransaction                                          *
    2680              ;*                                                                             *
    2681              ;*   Function Uses Regs : AC0,AC0,AC1,AC1,T0,T1,AR0,XAR0,AR1,XAR1,AR2,XAR2,AR3,*
    2682              ;*                        XAR3,SP,CARRY,TC1,M40,SATA,SATD,RDM,FRCT,SMUL        *
    2683              ;*   Stack Frame        : Compact (No Frame Pointer, w/ debug)                 *
    2684              ;*   Total Frame Size   : 18 words                                             *
    2685              ;*                        (2 return address/alignment)                         *
    2686              ;*                        (16 local values)                                    *
    2687              ;*   Min System Stack   : 1 word                                               *
    2688              ;*******************************************************************************
    2689 000e80       _USB_postTransaction:
    2690                      .dwcfi  cfa_offset, 1
    2691                      .dwcfi  save_reg_to_mem, 91, -1
    2692 000e80 4EEF          AADD #-17, SP
    2693                      .dwcfi  cfa_offset, 18
    2694              $C$DW$140       .dwtag  DW_TAG_variable, DW_AT_name("hEp")
    2695                      .dwattr $C$DW$140, DW_AT_TI_symbol_name("_hEp")
    2696                      .dwattr $C$DW$140, DW_AT_type(*$C$DW$T$102)
    2697                      .dwattr $C$DW$140, DW_AT_location[DW_OP_bregx 0x24 0]
    2698              $C$DW$141       .dwtag  DW_TAG_variable, DW_AT_name("byteCnt")
    2699                      .dwattr $C$DW$141, DW_AT_TI_symbol_name("_byteCnt")
    2700                      .dwattr $C$DW$141, DW_AT_type(*$C$DW$T$19)
    2701                      .dwattr $C$DW$141, DW_AT_location[DW_OP_bregx 0x24 2]
    2702              $C$DW$142       .dwtag  DW_TAG_variable, DW_AT_name("data")
    2703                      .dwattr $C$DW$142, DW_AT_TI_symbol_name("_data")
    2704                      .dwattr $C$DW$142, DW_AT_type(*$C$DW$T$3)
    2705                      .dwattr $C$DW$142, DW_AT_location[DW_OP_bregx 0x24 4]
    2706              $C$DW$143       .dwtag  DW_TAG_variable, DW_AT_name("flags")
    2707                      .dwattr $C$DW$143, DW_AT_TI_symbol_name("_flags")
    2708                      .dwattr $C$DW$143, DW_AT_type(*$C$DW$T$122)
    2709                      .dwattr $C$DW$143, DW_AT_location[DW_OP_bregx 0x24 6]
    2710              $C$DW$144       .dwtag  DW_TAG_variable, DW_AT_name("pContext")
    2711                      .dwattr $C$DW$144, DW_AT_TI_symbol_name("_pContext")
    2712                      .dwattr $C$DW$144, DW_AT_type(*$C$DW$T$142)
    2713                      .dwattr $C$DW$144, DW_AT_location[DW_OP_bregx 0x24 8]
    2714              $C$DW$145       .dwtag  DW_TAG_variable, DW_AT_name("peps")
    2715                      .dwattr $C$DW$145, DW_AT_TI_symbol_name("_peps")
    2716                      .dwattr $C$DW$145, DW_AT_type(*$C$DW$T$147)
    2717                      .dwattr $C$DW$145, DW_AT_location[DW_OP_bregx 0x24 10]
    2718              $C$DW$146       .dwtag  DW_TAG_variable, DW_AT_name("pTransfer")
    2719                      .dwattr $C$DW$146, DW_AT_TI_symbol_name("_pTransfer")
    2720                      .dwattr $C$DW$146, DW_AT_type(*$C$DW$T$150)
    2721                      .dwattr $C$DW$146, DW_AT_location[DW_OP_bregx 0x24 12]
    2722              $C$DW$147       .dwtag  DW_TAG_variable, DW_AT_name("epNum")
    2723                      .dwattr $C$DW$147, DW_AT_TI_symbol_name("_epNum")
    2724                      .dwattr $C$DW$147, DW_AT_type(*$C$DW$T$108)
    2725                      .dwattr $C$DW$147, DW_AT_location[DW_OP_bregx 0x24 14]
    2726              $C$DW$148       .dwtag  DW_TAG_variable, DW_AT_name("status")
    2727                      .dwattr $C$DW$148, DW_AT_TI_symbol_name("_status")
    2728                      .dwattr $C$DW$148, DW_AT_type(*$C$DW$T$75)
    2729                      .dwattr $C$DW$148, DW_AT_location[DW_OP_bregx 0x24 15]
    2730 000e82 C50C          MOV T1, *SP(#6) ; |1043| 
TMS320C55x Assembler PC v4.4.1 Tue Oct 02 02:33:44 2018

Tools Copyright (c) 1996-2012 Texas Instruments Incorporated
csl_usb.asm                                                          PAGE   70

    2731 000e84 EB08          MOV XAR1, dbl(*SP(#4))
         000e86 95   
    2732 000e87 C404          MOV T0, *SP(#2) ; |1043| 
    2733 000e89 EB00          MOV XAR0, dbl(*SP(#0))
         000e8b 85   
    2734                      .dwpsn  file "../c5535_bsl_revc/ezdsp5535_v1/c55xx_csl/src/csl_usb.c",line 1050,column 2,is_stmt
    2735 000e8c E61E          MOV #0, *SP(#15) ; |1050| 
         000e8e 00   
    2736                      .dwpsn  file "../c5535_bsl_revc/ezdsp5535_v1/c55xx_csl/src/csl_usb.c",line 1051,column 2,is_stmt
    2737 000e8f EC31          AMOV #_gUsbContext, XAR3 ; |1051| 
         000e91 BE00 
         000e93 0002-
    2738 000e95 EB10          MOV XAR3, dbl(*SP(#8))
         000e97 B5   
    2739                      .dwpsn  file "../c5535_bsl_revc/ezdsp5535_v1/c55xx_csl/src/csl_usb.c",line 1053,column 2,is_stmt
    2740 000e98 ED00          MOV dbl(*SP(#0)), XAR3
         000e9a BF   
    2741 000e9b 90B0          MOV XAR3, AC0
    2742 000e9d 6D00          BCC $C$L82,AC0 == #0 ; |1053| 
         000e9f 018D 
    2743                                                      ; branchcc occurs ; |1053| 
    2744                      .dwpsn  file "../c5535_bsl_revc/ezdsp5535_v1/c55xx_csl/src/csl_usb.c",line 1055,column 3,is_stmt
    2745 000ea1 A961          MOV *AR3, AR1 ; |1055| 
    2746 000ea3 C91C          MOV AR1, *SP(#14) ; |1055| 
    2747                      .dwpsn  file "../c5535_bsl_revc/ezdsp5535_v1/c55xx_csl/src/csl_usb.c",line 1057,column 3,is_stmt
    2748 000ea5 0600          B $C$L77  ; |1057| 
         000ea7 85   
    2749                                                      ; branch occurs ; |1057| 
    2750 000ea8       $C$L67:    
    2751                      .dwpsn  file "../c5535_bsl_revc/ezdsp5535_v1/c55xx_csl/src/csl_usb.c",line 1060,column 5,is_stmt
    2752 000ea8 EC31          AMOV #_gCtrlTransfer, XAR3 ; |1060| 
         000eaa BE00 
         000eac 00CA-
    2753 000eae EB18          MOV XAR3, dbl(*SP(#12))
         000eb0 B5   
    2754                      .dwpsn  file "../c5535_bsl_revc/ezdsp5535_v1/c55xx_csl/src/csl_usb.c",line 1061,column 5,is_stmt
    2755 000eb1 3C00          MOV #0, AC0 ; |1061| 
    2756 000eb3 EB61          MOV AC0, dbl(*AR3) ; |1061| 
         000eb5 08   
    2757                      .dwpsn  file "../c5535_bsl_revc/ezdsp5535_v1/c55xx_csl/src/csl_usb.c",line 1062,column 10,is_stmt
    2758 000eb6 0600          B $C$L78  ; |1062| 
         000eb8 9A   
    2759                                                      ; branch occurs ; |1062| 
    2760 000eb9       $C$L68:    
    2761                      .dwpsn  file "../c5535_bsl_revc/ezdsp5535_v1/c55xx_csl/src/csl_usb.c",line 1065,column 5,is_stmt
    2762 000eb9 EC31          AMOV #_gCtrlTransfer, XAR3 ; |1065| 
         000ebb BE00 
         000ebd 00CA-
    2763 000ebf EB18          MOV XAR3, dbl(*SP(#12))
         000ec1 B5   
    2764                      .dwpsn  file "../c5535_bsl_revc/ezdsp5535_v1/c55xx_csl/src/csl_usb.c",line 1066,column 5,is_stmt
    2765 000ec2 7600          MOV #128, AC0 ; |1066| 
         000ec4 8008 
    2766 000ec6 EB61          MOV AC0, dbl(*AR3) ; |1066| 
         000ec8 08   
TMS320C55x Assembler PC v4.4.1 Tue Oct 02 02:33:44 2018

Tools Copyright (c) 1996-2012 Texas Instruments Incorporated
csl_usb.asm                                                          PAGE   71

    2767                      .dwpsn  file "../c5535_bsl_revc/ezdsp5535_v1/c55xx_csl/src/csl_usb.c",line 1067,column 10,is_stmt
    2768 000ec9 0600          B $C$L78  ; |1067| 
         000ecb 87   
    2769                                                      ; branch occurs ; |1067| 
    2770 000ecc       $C$L69:    
    2771                      .dwpsn  file "../c5535_bsl_revc/ezdsp5535_v1/c55xx_csl/src/csl_usb.c",line 1073,column 8,is_stmt
    2772 000ecc ED00          MOV dbl(*SP(#0)), XAR3
         000ece BF   
    2773 000ecf F073          CMP *AR3(short(#1)) == #1, TC1 ; |1073| 
         000ed1 0001 
    2774 000ed3 65F4          BCC $C$L70,!TC1 ; |1073| 
    2775                                                      ; branchcc occurs ; |1073| 
    2776                      .dwpsn  file "../c5535_bsl_revc/ezdsp5535_v1/c55xx_csl/src/csl_usb.c",line 1076,column 6,is_stmt
    2777 000ed5 EC31          AMOV #_gBulkInTransfer, XAR3 ; |1076| 
         000ed7 BE00 
         000ed9 00D8-
    2778 000edb EB18          MOV XAR3, dbl(*SP(#12))
         000edd B5   
    2779                      .dwpsn  file "../c5535_bsl_revc/ezdsp5535_v1/c55xx_csl/src/csl_usb.c",line 1077,column 5,is_stmt
    2780 000ede 4A1A          B $C$L72  ; |1077| 
    2781                                                      ; branch occurs ; |1077| 
    2782 000ee0       $C$L70:    
    2783                      .dwpsn  file "../c5535_bsl_revc/ezdsp5535_v1/c55xx_csl/src/csl_usb.c",line 1078,column 22,is_stmt
    2784 000ee0 F073          CMP *AR3(short(#1)) == #3, TC1 ; |1078| 
         000ee2 0003 
    2785 000ee4 65F4          BCC $C$L71,!TC1 ; |1078| 
    2786                                                      ; branchcc occurs ; |1078| 
    2787                      .dwpsn  file "../c5535_bsl_revc/ezdsp5535_v1/c55xx_csl/src/csl_usb.c",line 1081,column 6,is_stmt
    2788 000ee6 EC31          AMOV #_gIsoInTransfer, XAR3 ; |1081| 
         000ee8 BE00 
         000eea 00F4-
    2789 000eec EB18          MOV XAR3, dbl(*SP(#12))
         000eee B5   
    2790                      .dwpsn  file "../c5535_bsl_revc/ezdsp5535_v1/c55xx_csl/src/csl_usb.c",line 1082,column 5,is_stmt
    2791 000eef 4A09          B $C$L72  ; |1082| 
    2792                                                      ; branch occurs ; |1082| 
    2793 000ef1       $C$L71:    
    2794                      .dwpsn  file "../c5535_bsl_revc/ezdsp5535_v1/c55xx_csl/src/csl_usb.c",line 1086,column 21,is_stmt
    2795 000ef1 EC31          AMOV #_gIntInTransfer, XAR3 ; |1086| 
         000ef3 BE00 
         000ef5 0110-
    2796 000ef7 EB18          MOV XAR3, dbl(*SP(#12))
         000ef9 B5   
    2797 000efa       $C$L72:    
    2798                      .dwpsn  file "../c5535_bsl_revc/ezdsp5535_v1/c55xx_csl/src/csl_usb.c",line 1088,column 5,is_stmt
    2799 000efa 7600          MOV #128, AC0 ; |1088| 
         000efc 8008 
    2800 000efe EB61          MOV AC0, dbl(*AR3) ; |1088| 
         000f00 08   
    2801                      .dwpsn  file "../c5535_bsl_revc/ezdsp5535_v1/c55xx_csl/src/csl_usb.c",line 1090,column 10,is_stmt
    2802 000f01 0600          B $C$L78  ; |1090| 
         000f03 4F   
    2803                                                      ; branch occurs ; |1090| 
    2804 000f04       $C$L73:    
    2805                      .dwpsn  file "../c5535_bsl_revc/ezdsp5535_v1/c55xx_csl/src/csl_usb.c",line 1096,column 8,is_stmt
TMS320C55x Assembler PC v4.4.1 Tue Oct 02 02:33:44 2018

Tools Copyright (c) 1996-2012 Texas Instruments Incorporated
csl_usb.asm                                                          PAGE   72

    2806 000f04 ED00          MOV dbl(*SP(#0)), XAR3
         000f06 BF   
    2807 000f07 F073          CMP *AR3(short(#1)) == #1, TC1 ; |1096| 
         000f09 0001 
    2808 000f0b 65F4          BCC $C$L74,!TC1 ; |1096| 
    2809                                                      ; branchcc occurs ; |1096| 
    2810                      .dwpsn  file "../c5535_bsl_revc/ezdsp5535_v1/c55xx_csl/src/csl_usb.c",line 1099,column 6,is_stmt
    2811 000f0d EC31          AMOV #_gBulkOutTransfer, XAR3 ; |1099| 
         000f0f BE00 
         000f11 00E6-
    2812 000f13 EB18          MOV XAR3, dbl(*SP(#12))
         000f15 B5   
    2813                      .dwpsn  file "../c5535_bsl_revc/ezdsp5535_v1/c55xx_csl/src/csl_usb.c",line 1100,column 5,is_stmt
    2814 000f16 4A09          B $C$L75  ; |1100| 
    2815                                                      ; branch occurs ; |1100| 
    2816 000f18       $C$L74:    
    2817                      .dwpsn  file "../c5535_bsl_revc/ezdsp5535_v1/c55xx_csl/src/csl_usb.c",line 1104,column 6,is_stmt
    2818 000f18 EC31          AMOV #_gIsoOutTransfer, XAR3 ; |1104| 
         000f1a BE00 
         000f1c 0102-
    2819 000f1e EB18          MOV XAR3, dbl(*SP(#12))
         000f20 B5   
    2820 000f21       $C$L75:    
    2821                      .dwpsn  file "../c5535_bsl_revc/ezdsp5535_v1/c55xx_csl/src/csl_usb.c",line 1106,column 5,is_stmt
    2822 000f21 3C00          MOV #0, AC0 ; |1106| 
    2823 000f23 EB61          MOV AC0, dbl(*AR3) ; |1106| 
         000f25 08   
    2824                      .dwpsn  file "../c5535_bsl_revc/ezdsp5535_v1/c55xx_csl/src/csl_usb.c",line 1108,column 10,is_stmt
    2825 000f26 4A2B          B $C$L78  ; |1108| 
    2826                                                      ; branch occurs ; |1108| 
    2827 000f28       $C$L76:    
    2828                      .dwpsn  file "../c5535_bsl_revc/ezdsp5535_v1/c55xx_csl/src/csl_usb.c",line 1111,column 5,is_stmt
    2829 000f28 E61E          MOV #-6, *SP(#15) ; |1111| 
         000f2a FA   
    2830                      .dwpsn  file "../c5535_bsl_revc/ezdsp5535_v1/c55xx_csl/src/csl_usb.c",line 1112,column 10,is_stmt
    2831 000f2b 4A26          B $C$L78  ; |1112| 
    2832                                                      ; branch occurs ; |1112| 
    2833 000f2d       $C$L77:    
    2834                      .dwpsn  file "../c5535_bsl_revc/ezdsp5535_v1/c55xx_csl/src/csl_usb.c",line 1057,column 3,is_stmt
    2835 000f2d 6D09          BCC $C$L67,AR1 == #0 ; |1057| 
         000f2f FF77 
    2836                                                      ; branchcc occurs ; |1057| 
    2837              
    2838 000f31 7C00          SUB #1, AR1, AR2 ; |1057| 
         000f33 01A9 
    2839 000f35 3D3B  ||      MOV #3, AR3
    2840              
    2841 000f37 12B8          CMPU AR2 <= AR3, TC1 ; |1057| 
         000f39 A4   
    2842 000f3a 0464          BCC $C$L73,TC1 ; |1057| 
         000f3c C7   
    2843                                                      ; branchcc occurs ; |1057| 
    2844 000f3d 3C8A          MOV #8, AR2
    2845 000f3f 1290          CMP AR1 == AR2, TC1 ; |1057| 
         000f41 A0   
TMS320C55x Assembler PC v4.4.1 Tue Oct 02 02:33:44 2018

Tools Copyright (c) 1996-2012 Texas Instruments Incorporated
csl_usb.asm                                                          PAGE   73

    2846 000f42 6D64          BCC $C$L68,TC1 ; |1057| 
         000f44 FF73 
    2847                                                      ; branchcc occurs ; |1057| 
    2848              
    2849 000f46 4299          SUB #9, AR1, AR1 ; |1057| 
    2850 000f48 3D3A  ||      MOV #3, AR2
    2851              
    2852 000f4a 12A8          CMPU AR1 <= AR2, TC1 ; |1057| 
         000f4c 94   
    2853 000f4d 6D64          BCC $C$L69,TC1 ; |1057| 
         000f4f FF7B 
    2854                                                      ; branchcc occurs ; |1057| 
    2855 000f51 4A55          B $C$L76  ; |1057| 
    2856                                                      ; branch occurs ; |1057| 
    2857 000f53       $C$L78:    
    2858                      .dwpsn  file "../c5535_bsl_revc/ezdsp5535_v1/c55xx_csl/src/csl_usb.c",line 1115,column 3,is_stmt
    2859 000f53 ED00          MOV dbl(*SP(#0)), XAR3
         000f55 BF   
    2860 000f56 A961          MOV *AR3, AR1 ; |1115| 
    2861 000f58 2290          MOV AR1, AC0
    2862 000f5a ED10          MOV dbl(*SP(#8)), XAR3
         000f5c BF   
    2863 000f5d 1005          SFTS AC0, #-2, AC0 ; |1115| 
         000f5f 3E   
    2864 000f60 76E0          BFXTR #0xe000, AC0, AR2 ; |1115| 
         000f62 00A0 
    2865 000f64 249A          ADD AR1, AR2 ; |1115| 
    2866 000f66 7DFF          AND #0xfffffff8, AR2, AR2 ; |1115| 
         000f68 F8AA 
    2867 000f6a ED6D          MOV dbl(*AR3(#98)), XAR3
         000f6c BF00 
         000f6e 62   
    2868 000f6f 26A9          SUB AR2, AR1 ; |1115| 
    2869 000f71 2291          MOV AR1, AC1
    2870 000f73 1015          SFTS AC1, #1, AC0 ; |1115| 
         000f75 01   
    2871 000f76 1013          ADD AC1 << #4, AC0 ; |1115| 
         000f78 04   
    2872 000f79 900A          MOV AC0, XAR2
    2873              
    2874 000f7b 8E14          MOV XAR3, dbl(*SP(#10))
         000f7d BB10 
         000f7f B5A1 
    2875              ||      AADD XAR2, XAR3 ; |1115| 
    2876              
    2877                      .dwpsn  file "../c5535_bsl_revc/ezdsp5535_v1/c55xx_csl/src/csl_usb.c",line 1116,column 3,is_stmt
    2878 000f81 ED00          MOV dbl(*SP(#0)), XAR3
         000f83 BF   
    2879 000f84 A973          MOV *AR3(short(#1)), AR1 ; |1116| 
    2880 000f86 ED14          MOV dbl(*SP(#10)), XAR3
         000f88 BF   
    2881 000f89 C975          MOV AR1, *AR3(short(#2)) ; |1116| 
    2882                      .dwpsn  file "../c5535_bsl_revc/ezdsp5535_v1/c55xx_csl/src/csl_usb.c",line 1118,column 3,is_stmt
    2883 000f8b ED14          MOV dbl(*SP(#10)), XAR3
         000f8d BF   
TMS320C55x Assembler PC v4.4.1 Tue Oct 02 02:33:44 2018

Tools Copyright (c) 1996-2012 Texas Instruments Incorporated
csl_usb.asm                                                          PAGE   74

    2884 000f8e ED61          MOV dbl(*AR3), AC0 ; |1118| 
         000f90 08   
    2885 000f91 6490          BCC $C$L79,AC0 != #0 ; |1118| 
    2886                                                      ; branchcc occurs ; |1118| 
    2887 000f93 A904          MOV *SP(#2), AR1 ; |1118| 
    2888 000f95 6299          BCC $C$L79,AR1 != #0 ; |1118| 
    2889                                                      ; branchcc occurs ; |1118| 
    2890                      .dwpsn  file "../c5535_bsl_revc/ezdsp5535_v1/c55xx_csl/src/csl_usb.c",line 1120,column 4,is_stmt
    2891 000f97 3C04          MOV #0, T0
    2892 000f99 0600          B $C$L84  ; |1120| 
         000f9b 97   
    2893                                                      ; branch occurs ; |1120| 
    2894 000f9c       $C$L79:    
    2895                      .dwpsn  file "../c5535_bsl_revc/ezdsp5535_v1/c55xx_csl/src/csl_usb.c",line 1123,column 3,is_stmt
    2896 000f9c 90B0          MOV XAR3, AC0
    2897 000f9e 6D00          BCC $C$L83,AC0 == #0 ; |1123| 
         000fa0 008F 
    2898                                                      ; branchcc occurs ; |1123| 
    2899                      .dwpsn  file "../c5535_bsl_revc/ezdsp5535_v1/c55xx_csl/src/csl_usb.c",line 1125,column 4,is_stmt
    2900 000fa2 ED14          MOV dbl(*SP(#10)), XAR2
         000fa4 AF   
    2901 000fa5 ED18          MOV dbl(*SP(#12)), XAR3
         000fa7 BF   
    2902 000fa8 EB4D          MOV XAR3, dbl(*AR2(#10))
         000faa B500 
         000fac 0A   
    2903                      .dwpsn  file "../c5535_bsl_revc/ezdsp5535_v1/c55xx_csl/src/csl_usb.c",line 1127,column 4,is_stmt
    2904 000fad ED14          MOV dbl(*SP(#10)), XAR3
         000faf BF   
    2905 000fb0 ED6D          MOV dbl(*AR3(#10)), XAR3
         000fb2 BF00 
         000fb4 0A   
    2906 000fb5 90B0          MOV XAR3, AC0
    2907 000fb7 0400          BCC $C$L80,AC0 == #0 ; |1127| 
         000fb9 22   
    2908                                                      ; branchcc occurs ; |1127| 
    2909 000fba ED14          MOV dbl(*SP(#10)), XAR3
         000fbc BF   
    2910 000fbd ED6D          MOV dbl(*AR3(#10)), XAR3
         000fbf BF00 
         000fc1 0A   
    2911 000fc2 F06D          CMP *AR3(#12) == #1, TC1 ; |1127| 
         000fc4 0001 
         000fc6 000C 
    2912 000fc8 0474          BCC $C$L80,!TC1 ; |1127| 
         000fca 11   
    2913                                                      ; branchcc occurs ; |1127| 
    2914 000fcb ED10          MOV dbl(*SP(#8)), XAR3
         000fcd BF   
    2915 000fce F06D          CMP *AR3(#23) == #1, TC1 ; |1127| 
         000fd0 0001 
         000fd2 0017 
    2916 000fd4 6374          BCC $C$L80,!TC1 ; |1127| 
    2917                                                      ; branchcc occurs ; |1127| 
    2918 000fd6 F075          CMP *AR3(short(#2)) == #1, TC1 ; |1127| 
TMS320C55x Assembler PC v4.4.1 Tue Oct 02 02:33:44 2018

Tools Copyright (c) 1996-2012 Texas Instruments Incorporated
csl_usb.asm                                                          PAGE   75

         000fd8 0001 
    2919 000fda 62E4          BCC $C$L81,TC1 ; |1127| 
    2920                                                      ; branchcc occurs ; |1127| 
    2921 000fdc       $C$L80:    
    2922                      .dwpsn  file "../c5535_bsl_revc/ezdsp5535_v1/c55xx_csl/src/csl_usb.c",line 1132,column 5,is_stmt
    2923 000fdc 3E64          MOV #-6, T0
    2924 000fde 0600          B $C$L84  ; |1132| 
         000fe0 52   
    2925                                                      ; branch occurs ; |1132| 
    2926 000fe1       $C$L81:    
    2927                      .dwpsn  file "../c5535_bsl_revc/ezdsp5535_v1/c55xx_csl/src/csl_usb.c",line 1135,column 4,is_stmt
    2928 000fe1 ED18          MOV dbl(*SP(#12)), XAR3
         000fe3 BF   
    2929 000fe4 ED14          MOV dbl(*SP(#10)), XAR2
         000fe6 AF   
    2930 000fe7 1402          AADD #2, AR3 ; |1135| 
         000fe9 B4   
    2931 000fea 8041          MOV dbl(*AR2), dbl(*AR3) ; |1135| 
         000fec 80   
    2932                      .dwpsn  file "../c5535_bsl_revc/ezdsp5535_v1/c55xx_csl/src/csl_usb.c",line 1136,column 4,is_stmt
    2933 000fed ED18          MOV dbl(*SP(#12)), XAR3
         000fef BF   
    2934 000ff0 ED08          MOV dbl(*SP(#4)), XAR2
         000ff2 AF   
    2935 000ff3 EB79          MOV XAR2, dbl(*AR3(short(#4)))
         000ff5 A5   
    2936                      .dwpsn  file "../c5535_bsl_revc/ezdsp5535_v1/c55xx_csl/src/csl_usb.c",line 1137,column 4,is_stmt
    2937 000ff6 ED18          MOV dbl(*SP(#12)), XAR3
         000ff8 BF   
    2938 000ff9 DF04          MOV uns(*SP(#2)), AC0 ; |1137| 
         000ffb 05   
    2939 000ffc EB7D          MOV AC0, dbl(*AR3(short(#6))) ; |1137| 
         000ffe 08   
    2940                      .dwpsn  file "../c5535_bsl_revc/ezdsp5535_v1/c55xx_csl/src/csl_usb.c",line 1138,column 4,is_stmt
    2941 000fff ED18          MOV dbl(*SP(#12)), XAR3
         001001 BF   
    2942 001002 3C00          MOV #0, AC0 ; |1138| 
    2943 001004 EB6D          MOV AC0, dbl(*AR3(#8)) ; |1138| 
         001006 0800 
         001008 08   
    2944                      .dwpsn  file "../c5535_bsl_revc/ezdsp5535_v1/c55xx_csl/src/csl_usb.c",line 1139,column 4,is_stmt
    2945 001009 ED18          MOV dbl(*SP(#12)), XAR3
         00100b BF   
    2946 00100c E66D          MOV #0, *AR3(#12) ; |1139| 
         00100e 0000 
         001010 0C   
    2947                      .dwpsn  file "../c5535_bsl_revc/ezdsp5535_v1/c55xx_csl/src/csl_usb.c",line 1140,column 4,is_stmt
    2948 001011 ED18          MOV dbl(*SP(#12)), XAR3
         001013 BF   
    2949 001014 A90C          MOV *SP(#6), AR1 ; |1140| 
    2950 001016 C96D          MOV AR1, *AR3(#13) ; |1140| 
         001018 000D 
    2951                      .dwpsn  file "../c5535_bsl_revc/ezdsp5535_v1/c55xx_csl/src/csl_usb.c",line 1143,column 4,is_stmt
    2952 00101a ED10          MOV dbl(*SP(#8)), XAR3
         00101c BF   
TMS320C55x Assembler PC v4.4.1 Tue Oct 02 02:33:44 2018

Tools Copyright (c) 1996-2012 Texas Instruments Incorporated
csl_usb.asm                                                          PAGE   76

    2953 00101d ED10          MOV dbl(*SP(#8)), XAR0
         00101f 8F   
    2954 001020 ED14          MOV dbl(*SP(#10)), XAR1
         001022 9F   
    2955 001023 ED6D          MOV dbl(*AR3(#114)), AC0 ; |1143| 
         001025 0800 
         001027 72   
    2956              $C$DW$149       .dwtag  DW_TAG_TI_branch
    2957                      .dwattr $C$DW$149, DW_AT_low_pc(0x00)
    2958                      .dwattr $C$DW$149, DW_AT_TI_call
    2959                      .dwattr $C$DW$149, DW_AT_TI_indirect
    2960 001028 9200          CALL AC0  ; |1143| 
    2961                                                      ; call occurs [AC0] ; |1143| 
    2962 00102a C41E          MOV T0, *SP(#15) ; |1143| 
    2963                      .dwpsn  file "../c5535_bsl_revc/ezdsp5535_v1/c55xx_csl/src/csl_usb.c",line 1145,column 2,is_stmt
    2964 00102c 4A03          B $C$L83  ; |1145| 
    2965                                                      ; branch occurs ; |1145| 
    2966 00102e       $C$L82:    
    2967                      .dwpsn  file "../c5535_bsl_revc/ezdsp5535_v1/c55xx_csl/src/csl_usb.c",line 1148,column 3,is_stmt
    2968 00102e E61E          MOV #-5, *SP(#15) ; |1148| 
         001030 FB   
    2969 001031       $C$L83:    
    2970                      .dwpsn  file "../c5535_bsl_revc/ezdsp5535_v1/c55xx_csl/src/csl_usb.c",line 1151,column 2,is_stmt
    2971 001031 A41E          MOV *SP(#15), T0 ; |1151| 
    2972 001033       $C$L84:    
    2973                      .dwpsn  file "../c5535_bsl_revc/ezdsp5535_v1/c55xx_csl/src/csl_usb.c",line 1152,column 1,is_stmt
    2974 001033 4E11          AADD #17, SP
    2975                      .dwcfi  cfa_offset, 1
    2976              $C$DW$150       .dwtag  DW_TAG_TI_branch
    2977                      .dwattr $C$DW$150, DW_AT_low_pc(0x00)
    2978                      .dwattr $C$DW$150, DW_AT_TI_return
    2979 001035 4804          RET
    2980                                                      ; return occurs
    2981                      .dwattr $C$DW$135, DW_AT_TI_end_file("../c5535_bsl_revc/ezdsp5535_v1/c55xx_csl/src/csl_usb.c")
    2982                      .dwattr $C$DW$135, DW_AT_TI_end_line(0x480)
    2983                      .dwattr $C$DW$135, DW_AT_TI_end_column(0x01)
    2984                      .dwendentry
    2985                      .dwendtag $C$DW$135
    2986              
    2987 001037               .sect   ".text"
    2988                      .align 4
    2989                      .global _USB_isTransactionDone
    2990              
    2991              $C$DW$151       .dwtag  DW_TAG_subprogram, DW_AT_name("USB_isTransactionDone")
    2992                      .dwattr $C$DW$151, DW_AT_low_pc(_USB_isTransactionDone)
    2993                      .dwattr $C$DW$151, DW_AT_high_pc(0x00)
    2994                      .dwattr $C$DW$151, DW_AT_TI_symbol_name("_USB_isTransactionDone")
    2995                      .dwattr $C$DW$151, DW_AT_external
    2996                      .dwattr $C$DW$151, DW_AT_type(*$C$DW$T$88)
    2997                      .dwattr $C$DW$151, DW_AT_TI_begin_file("../c5535_bsl_revc/ezdsp5535_v1/c55xx_csl/src/csl_usb.c")
    2998                      .dwattr $C$DW$151, DW_AT_TI_begin_line(0x4ba)
    2999                      .dwattr $C$DW$151, DW_AT_TI_begin_column(0x10)
    3000                      .dwattr $C$DW$151, DW_AT_TI_max_frame_size(0x0a)
    3001                      .dwpsn  file "../c5535_bsl_revc/ezdsp5535_v1/c55xx_csl/src/csl_usb.c",line 1212,column 1,is_stmt,addr
    3002              
TMS320C55x Assembler PC v4.4.1 Tue Oct 02 02:33:44 2018

Tools Copyright (c) 1996-2012 Texas Instruments Incorporated
csl_usb.asm                                                          PAGE   77

    3003                      .dwfde $C$DW$CIE, _USB_isTransactionDone
    3004              $C$DW$152       .dwtag  DW_TAG_formal_parameter, DW_AT_name("hEp")
    3005                      .dwattr $C$DW$152, DW_AT_TI_symbol_name("_hEp")
    3006                      .dwattr $C$DW$152, DW_AT_type(*$C$DW$T$102)
    3007                      .dwattr $C$DW$152, DW_AT_location[DW_OP_reg17]
    3008              $C$DW$153       .dwtag  DW_TAG_formal_parameter, DW_AT_name("status")
    3009                      .dwattr $C$DW$153, DW_AT_TI_symbol_name("_status")
    3010                      .dwattr $C$DW$153, DW_AT_type(*$C$DW$T$124)
    3011                      .dwattr $C$DW$153, DW_AT_location[DW_OP_reg19]
    3012              ;*******************************************************************************
    3013              ;* FUNCTION NAME: USB_isTransactionDone                                        *
    3014              ;*                                                                             *
    3015              ;*   Function Uses Regs : AC0,AC0,AC1,AC1,T0,AR0,XAR0,AR1,XAR1,AR2,XAR2,AR3,   *
    3016              ;*                        XAR3,SP,CARRY,TC1,M40,SATA,SATD,RDM,FRCT,SMUL        *
    3017              ;*   Stack Frame        : Compact (No Frame Pointer, w/ debug)                 *
    3018              ;*   Total Frame Size   : 10 words                                             *
    3019              ;*                        (2 return address/alignment)                         *
    3020              ;*                        (8 local values)                                     *
    3021              ;*   Min System Stack   : 1 word                                               *
    3022              ;*******************************************************************************
    3023 001038       _USB_isTransactionDone:
    3024                      .dwcfi  cfa_offset, 1
    3025                      .dwcfi  save_reg_to_mem, 91, -1
    3026 001038 4EF7          AADD #-9, SP
    3027                      .dwcfi  cfa_offset, 10
    3028              $C$DW$154       .dwtag  DW_TAG_variable, DW_AT_name("hEp")
    3029                      .dwattr $C$DW$154, DW_AT_TI_symbol_name("_hEp")
    3030                      .dwattr $C$DW$154, DW_AT_type(*$C$DW$T$102)
    3031                      .dwattr $C$DW$154, DW_AT_location[DW_OP_bregx 0x24 0]
    3032              $C$DW$155       .dwtag  DW_TAG_variable, DW_AT_name("status")
    3033                      .dwattr $C$DW$155, DW_AT_TI_symbol_name("_status")
    3034                      .dwattr $C$DW$155, DW_AT_type(*$C$DW$T$124)
    3035                      .dwattr $C$DW$155, DW_AT_location[DW_OP_bregx 0x24 2]
    3036              $C$DW$156       .dwtag  DW_TAG_variable, DW_AT_name("peps")
    3037                      .dwattr $C$DW$156, DW_AT_TI_symbol_name("_peps")
    3038                      .dwattr $C$DW$156, DW_AT_type(*$C$DW$T$147)
    3039                      .dwattr $C$DW$156, DW_AT_location[DW_OP_bregx 0x24 4]
    3040              $C$DW$157       .dwtag  DW_TAG_variable, DW_AT_name("pContext")
    3041                      .dwattr $C$DW$157, DW_AT_TI_symbol_name("_pContext")
    3042                      .dwattr $C$DW$157, DW_AT_type(*$C$DW$T$142)
    3043                      .dwattr $C$DW$157, DW_AT_location[DW_OP_bregx 0x24 6]
    3044 00103a EB04          MOV XAR1, dbl(*SP(#2))
         00103c 95   
    3045 00103d EB00          MOV XAR0, dbl(*SP(#0))
         00103f 85   
    3046                      .dwpsn  file "../c5535_bsl_revc/ezdsp5535_v1/c55xx_csl/src/csl_usb.c",line 1216,column 5,is_stmt
    3047 001040 ED04          MOV dbl(*SP(#2)), XAR3
         001042 BF   
    3048 001043 E661          MOV #0, *AR3 ; |1216| 
         001045 00   
    3049                      .dwpsn  file "../c5535_bsl_revc/ezdsp5535_v1/c55xx_csl/src/csl_usb.c",line 1217,column 5,is_stmt
    3050 001046 EC31          AMOV #_gUsbContext, XAR3 ; |1217| 
         001048 BE00 
         00104a 0002-
    3051 00104c EB0C          MOV XAR3, dbl(*SP(#6))
TMS320C55x Assembler PC v4.4.1 Tue Oct 02 02:33:44 2018

Tools Copyright (c) 1996-2012 Texas Instruments Incorporated
csl_usb.asm                                                          PAGE   78

         00104e B5   
    3052                      .dwpsn  file "../c5535_bsl_revc/ezdsp5535_v1/c55xx_csl/src/csl_usb.c",line 1218,column 5,is_stmt
    3053 00104f 3C00          MOV #0, AC0 ; |1218| 
    3054 001051 EB08          MOV AC0, dbl(*SP(#4))
         001053 08   
    3055                      .dwpsn  file "../c5535_bsl_revc/ezdsp5535_v1/c55xx_csl/src/csl_usb.c",line 1220,column 2,is_stmt
    3056 001054 ED00          MOV dbl(*SP(#0)), XAR3
         001056 BF   
    3057 001057 90B0          MOV XAR3, AC0
    3058 001059 0400          BCC $C$L86,AC0 == #0 ; |1220| 
         00105b 52   
    3059                                                      ; branchcc occurs ; |1220| 
    3060                      .dwpsn  file "../c5535_bsl_revc/ezdsp5535_v1/c55xx_csl/src/csl_usb.c",line 1222,column 3,is_stmt
    3061 00105c A961          MOV *AR3, AR1 ; |1222| 
    3062 00105e 2290          MOV AR1, AC0
    3063 001060 ED0C          MOV dbl(*SP(#6)), XAR3
         001062 BF   
    3064 001063 1005          SFTS AC0, #-2, AC0 ; |1222| 
         001065 3E   
    3065 001066 76E0          BFXTR #0xe000, AC0, AR2 ; |1222| 
         001068 00A0 
    3066 00106a 249A          ADD AR1, AR2 ; |1222| 
    3067 00106c 7DFF          AND #0xfffffff8, AR2, AR2 ; |1222| 
         00106e F8AA 
    3068 001070 ED6D          MOV dbl(*AR3(#98)), XAR3
         001072 BF00 
         001074 62   
    3069 001075 26A9          SUB AR2, AR1 ; |1222| 
    3070 001077 2291          MOV AR1, AC1
    3071 001079 1015          SFTS AC1, #1, AC0 ; |1222| 
         00107b 01   
    3072 00107c 1013          ADD AC1 << #4, AC0 ; |1222| 
         00107e 04   
    3073 00107f 900A          MOV AC0, XAR2
    3074              
    3075 001081 8E08          MOV XAR3, dbl(*SP(#4))
         001083 BB10 
         001085 B5A1 
    3076              ||      AADD XAR2, XAR3 ; |1222| 
    3077              
    3078                      .dwpsn  file "../c5535_bsl_revc/ezdsp5535_v1/c55xx_csl/src/csl_usb.c",line 1224,column 3,is_stmt
    3079 001087 ED6D          MOV dbl(*AR3(#10)), XAR3
         001089 BF00 
         00108b 0A   
    3080 00108c 90B0          MOV XAR3, AC0
    3081 00108e 0400          BCC $C$L85,AC0 == #0 ; |1224| 
         001090 15   
    3082                                                      ; branchcc occurs ; |1224| 
    3083                      .dwpsn  file "../c5535_bsl_revc/ezdsp5535_v1/c55xx_csl/src/csl_usb.c",line 1226,column 4,is_stmt
    3084 001091 ED08          MOV dbl(*SP(#4)), XAR3
         001093 BF   
    3085 001094 ED6D          MOV dbl(*AR3(#10)), XAR3
         001096 BF00 
         001098 0A   
    3086 001099 F06D          CMP *AR3(#12) == #1, TC1 ; |1226| 
TMS320C55x Assembler PC v4.4.1 Tue Oct 02 02:33:44 2018

Tools Copyright (c) 1996-2012 Texas Instruments Incorporated
csl_usb.asm                                                          PAGE   79

         00109b 0001 
         00109d 000C 
    3087 00109f 0464          BCC $C$L87,TC1 ; |1226| 
         0010a1 12   
    3088                                                      ; branchcc occurs ; |1226| 
    3089                      .dwpsn  file "../c5535_bsl_revc/ezdsp5535_v1/c55xx_csl/src/csl_usb.c",line 1228,column 5,is_stmt
    3090 0010a2 3C04          MOV #0, T0
    3091 0010a4 4A10          B $C$L88  ; |1228| 
    3092                                                      ; branch occurs ; |1228| 
    3093 0010a6       $C$L85:    
    3094                      .dwpsn  file "../c5535_bsl_revc/ezdsp5535_v1/c55xx_csl/src/csl_usb.c",line 1233,column 4,is_stmt
    3095 0010a6 ED04          MOV dbl(*SP(#2)), XAR3
         0010a8 BF   
    3096 0010a9 E661          MOV #-6, *AR3 ; |1233| 
         0010ab FA   
    3097                      .dwpsn  file "../c5535_bsl_revc/ezdsp5535_v1/c55xx_csl/src/csl_usb.c",line 1235,column 2,is_stmt
    3098 0010ac 4A06          B $C$L87  ; |1235| 
    3099                                                      ; branch occurs ; |1235| 
    3100 0010ae       $C$L86:    
    3101                      .dwpsn  file "../c5535_bsl_revc/ezdsp5535_v1/c55xx_csl/src/csl_usb.c",line 1238,column 3,is_stmt
    3102 0010ae ED04          MOV dbl(*SP(#2)), XAR3
         0010b0 BF   
    3103 0010b1 E661          MOV #-5, *AR3 ; |1238| 
         0010b3 FB   
    3104 0010b4       $C$L87:    
    3105                      .dwpsn  file "../c5535_bsl_revc/ezdsp5535_v1/c55xx_csl/src/csl_usb.c",line 1241,column 2,is_stmt
    3106 0010b4 3C14          MOV #1, T0
    3107 0010b6       $C$L88:    
    3108                      .dwpsn  file "../c5535_bsl_revc/ezdsp5535_v1/c55xx_csl/src/csl_usb.c",line 1242,column 1,is_stmt
    3109 0010b6 4E09          AADD #9, SP
    3110                      .dwcfi  cfa_offset, 1
    3111              $C$DW$158       .dwtag  DW_TAG_TI_branch
    3112                      .dwattr $C$DW$158, DW_AT_low_pc(0x00)
    3113                      .dwattr $C$DW$158, DW_AT_TI_return
    3114 0010b8 4804          RET
    3115                                                      ; return occurs
    3116                      .dwattr $C$DW$151, DW_AT_TI_end_file("../c5535_bsl_revc/ezdsp5535_v1/c55xx_csl/src/csl_usb.c")
    3117                      .dwattr $C$DW$151, DW_AT_TI_end_line(0x4da)
    3118                      .dwattr $C$DW$151, DW_AT_TI_end_column(0x01)
    3119                      .dwendentry
    3120                      .dwendtag $C$DW$151
    3121              
    3122 0010ba               .sect   ".text"
    3123                      .align 4
    3124                      .global _USB_bytesRemaining
    3125              
    3126              $C$DW$159       .dwtag  DW_TAG_subprogram, DW_AT_name("USB_bytesRemaining")
    3127                      .dwattr $C$DW$159, DW_AT_low_pc(_USB_bytesRemaining)
    3128                      .dwattr $C$DW$159, DW_AT_high_pc(0x00)
    3129                      .dwattr $C$DW$159, DW_AT_TI_symbol_name("_USB_bytesRemaining")
    3130                      .dwattr $C$DW$159, DW_AT_external
    3131                      .dwattr $C$DW$159, DW_AT_type(*$C$DW$T$173)
    3132                      .dwattr $C$DW$159, DW_AT_TI_begin_file("../c5535_bsl_revc/ezdsp5535_v1/c55xx_csl/src/csl_usb.c")
    3133                      .dwattr $C$DW$159, DW_AT_TI_begin_line(0x511)
    3134                      .dwattr $C$DW$159, DW_AT_TI_begin_column(0x12)
TMS320C55x Assembler PC v4.4.1 Tue Oct 02 02:33:44 2018

Tools Copyright (c) 1996-2012 Texas Instruments Incorporated
csl_usb.asm                                                          PAGE   80

    3135                      .dwattr $C$DW$159, DW_AT_TI_max_frame_size(0x0c)
    3136                      .dwpsn  file "../c5535_bsl_revc/ezdsp5535_v1/c55xx_csl/src/csl_usb.c",line 1299,column 1,is_stmt,addr
    3137              
    3138                      .dwfde $C$DW$CIE, _USB_bytesRemaining
    3139              $C$DW$160       .dwtag  DW_TAG_formal_parameter, DW_AT_name("hEp")
    3140                      .dwattr $C$DW$160, DW_AT_TI_symbol_name("_hEp")
    3141                      .dwattr $C$DW$160, DW_AT_type(*$C$DW$T$102)
    3142                      .dwattr $C$DW$160, DW_AT_location[DW_OP_reg17]
    3143              $C$DW$161       .dwtag  DW_TAG_formal_parameter, DW_AT_name("status")
    3144                      .dwattr $C$DW$161, DW_AT_TI_symbol_name("_status")
    3145                      .dwattr $C$DW$161, DW_AT_type(*$C$DW$T$124)
    3146                      .dwattr $C$DW$161, DW_AT_location[DW_OP_reg19]
    3147              ;*******************************************************************************
    3148              ;* FUNCTION NAME: USB_bytesRemaining                                           *
    3149              ;*                                                                             *
    3150              ;*   Function Uses Regs : AC0,AC0,AC1,AC1,T0,AR0,XAR0,AR1,XAR1,AR2,XAR2,AR3,   *
    3151              ;*                        XAR3,SP,CARRY,M40,SATA,SATD,RDM,FRCT,SMUL            *
    3152              ;*   Stack Frame        : Compact (No Frame Pointer, w/ debug)                 *
    3153              ;*   Total Frame Size   : 12 words                                             *
    3154              ;*                        (2 return address/alignment)                         *
    3155              ;*                        (10 local values)                                    *
    3156              ;*   Min System Stack   : 1 word                                               *
    3157              ;*******************************************************************************
    3158 0010bc       _USB_bytesRemaining:
    3159                      .dwcfi  cfa_offset, 1
    3160                      .dwcfi  save_reg_to_mem, 91, -1
    3161 0010bc 4EF5          AADD #-11, SP
    3162                      .dwcfi  cfa_offset, 12
    3163              $C$DW$162       .dwtag  DW_TAG_variable, DW_AT_name("hEp")
    3164                      .dwattr $C$DW$162, DW_AT_TI_symbol_name("_hEp")
    3165                      .dwattr $C$DW$162, DW_AT_type(*$C$DW$T$102)
    3166                      .dwattr $C$DW$162, DW_AT_location[DW_OP_bregx 0x24 0]
    3167              $C$DW$163       .dwtag  DW_TAG_variable, DW_AT_name("status")
    3168                      .dwattr $C$DW$163, DW_AT_TI_symbol_name("_status")
    3169                      .dwattr $C$DW$163, DW_AT_type(*$C$DW$T$124)
    3170                      .dwattr $C$DW$163, DW_AT_location[DW_OP_bregx 0x24 2]
    3171              $C$DW$164       .dwtag  DW_TAG_variable, DW_AT_name("peps")
    3172                      .dwattr $C$DW$164, DW_AT_TI_symbol_name("_peps")
    3173                      .dwattr $C$DW$164, DW_AT_type(*$C$DW$T$147)
    3174                      .dwattr $C$DW$164, DW_AT_location[DW_OP_bregx 0x24 4]
    3175              $C$DW$165       .dwtag  DW_TAG_variable, DW_AT_name("bytesRem")
    3176                      .dwattr $C$DW$165, DW_AT_TI_symbol_name("_bytesRem")
    3177                      .dwattr $C$DW$165, DW_AT_type(*$C$DW$T$173)
    3178                      .dwattr $C$DW$165, DW_AT_location[DW_OP_bregx 0x24 6]
    3179              $C$DW$166       .dwtag  DW_TAG_variable, DW_AT_name("pContext")
    3180                      .dwattr $C$DW$166, DW_AT_TI_symbol_name("_pContext")
    3181                      .dwattr $C$DW$166, DW_AT_type(*$C$DW$T$142)
    3182                      .dwattr $C$DW$166, DW_AT_location[DW_OP_bregx 0x24 8]
    3183 0010be EB04          MOV XAR1, dbl(*SP(#2))
         0010c0 95   
    3184 0010c1 EB00          MOV XAR0, dbl(*SP(#0))
         0010c3 85   
    3185                      .dwpsn  file "../c5535_bsl_revc/ezdsp5535_v1/c55xx_csl/src/csl_usb.c",line 1304,column 2,is_stmt
    3186 0010c4 ED04          MOV dbl(*SP(#2)), XAR3
         0010c6 BF   
TMS320C55x Assembler PC v4.4.1 Tue Oct 02 02:33:44 2018

Tools Copyright (c) 1996-2012 Texas Instruments Incorporated
csl_usb.asm                                                          PAGE   81

    3187 0010c7 E661          MOV #0, *AR3 ; |1304| 
         0010c9 00   
    3188                      .dwpsn  file "../c5535_bsl_revc/ezdsp5535_v1/c55xx_csl/src/csl_usb.c",line 1305,column 2,is_stmt
    3189 0010ca E60C          MOV #0, *SP(#6) ; |1305| 
         0010cc 00   
    3190                      .dwpsn  file "../c5535_bsl_revc/ezdsp5535_v1/c55xx_csl/src/csl_usb.c",line 1306,column 2,is_stmt
    3191 0010cd 3C00          MOV #0, AC0 ; |1306| 
    3192 0010cf EB08          MOV AC0, dbl(*SP(#4))
         0010d1 08   
    3193                      .dwpsn  file "../c5535_bsl_revc/ezdsp5535_v1/c55xx_csl/src/csl_usb.c",line 1307,column 2,is_stmt
    3194 0010d2 EC31          AMOV #_gUsbContext, XAR3 ; |1307| 
         0010d4 BE00 
         0010d6 0002-
    3195 0010d8 EB10          MOV XAR3, dbl(*SP(#8))
         0010da B5   
    3196                      .dwpsn  file "../c5535_bsl_revc/ezdsp5535_v1/c55xx_csl/src/csl_usb.c",line 1309,column 5,is_stmt
    3197 0010db ED00          MOV dbl(*SP(#0)), XAR3
         0010dd BF   
    3198 0010de 90B0          MOV XAR3, AC0
    3199 0010e0 0400          BCC $C$L90,AC0 == #0 ; |1309| 
         0010e2 5E   
    3200                                                      ; branchcc occurs ; |1309| 
    3201                      .dwpsn  file "../c5535_bsl_revc/ezdsp5535_v1/c55xx_csl/src/csl_usb.c",line 1311,column 3,is_stmt
    3202 0010e3 A961          MOV *AR3, AR1 ; |1311| 
    3203 0010e5 2290          MOV AR1, AC0
    3204 0010e7 ED10          MOV dbl(*SP(#8)), XAR3
         0010e9 BF   
    3205 0010ea 1005          SFTS AC0, #-2, AC0 ; |1311| 
         0010ec 3E   
    3206 0010ed 76E0          BFXTR #0xe000, AC0, AR2 ; |1311| 
         0010ef 00A0 
    3207 0010f1 249A          ADD AR1, AR2 ; |1311| 
    3208 0010f3 7DFF          AND #0xfffffff8, AR2, AR2 ; |1311| 
         0010f5 F8AA 
    3209 0010f7 ED6D          MOV dbl(*AR3(#98)), XAR3
         0010f9 BF00 
         0010fb 62   
    3210 0010fc 26A9          SUB AR2, AR1 ; |1311| 
    3211 0010fe 2291          MOV AR1, AC1
    3212 001100 1015          SFTS AC1, #1, AC0 ; |1311| 
         001102 01   
    3213 001103 1013          ADD AC1 << #4, AC0 ; |1311| 
         001105 04   
    3214 001106 900A          MOV AC0, XAR2
    3215              
    3216 001108 8E08          MOV XAR3, dbl(*SP(#4))
         00110a BB10 
         00110c B5A1 
    3217              ||      AADD XAR2, XAR3 ; |1311| 
    3218              
    3219                      .dwpsn  file "../c5535_bsl_revc/ezdsp5535_v1/c55xx_csl/src/csl_usb.c",line 1312,column 3,is_stmt
    3220 00110e 90B0          MOV XAR3, AC0
    3221 001110 0400          BCC $C$L89,AC0 == #0 ; |1312| 
         001112 26   
    3222                                                      ; branchcc occurs ; |1312| 
TMS320C55x Assembler PC v4.4.1 Tue Oct 02 02:33:44 2018

Tools Copyright (c) 1996-2012 Texas Instruments Incorporated
csl_usb.asm                                                          PAGE   82

    3223 001113 ED6D          MOV dbl(*AR3(#10)), XAR3
         001115 BF00 
         001117 0A   
    3224 001118 90B0          MOV XAR3, AC0
    3225 00111a 0400          BCC $C$L89,AC0 == #0 ; |1312| 
         00111c 1C   
    3226                                                      ; branchcc occurs ; |1312| 
    3227                      .dwpsn  file "../c5535_bsl_revc/ezdsp5535_v1/c55xx_csl/src/csl_usb.c",line 1314,column 4,is_stmt
    3228 00111d ED08          MOV dbl(*SP(#4)), XAR3
         00111f BF   
    3229 001120 ED6D          MOV dbl(*AR3(#10)), XAR3
         001122 BF00 
         001124 0A   
    3230 001125 ED6D          MOV dbl(*AR3(#8)), AC0 ; |1314| 
         001127 0800 
         001129 08   
    3231 00112a ED08          MOV dbl(*SP(#4)), XAR3
         00112c BF   
    3232 00112d ED6D          MOV dbl(*AR3(#10)), XAR3
         00112f BF00 
         001131 0A   
    3233 001132 ED7D          SUB AC0, dbl(*AR3(short(#6))), AC0 ; |1314| 
         001134 04   
    3234 001135 C00C          MOV AC0, *SP(#6) ; |1314| 
    3235                      .dwpsn  file "../c5535_bsl_revc/ezdsp5535_v1/c55xx_csl/src/csl_usb.c",line 1316,column 3,is_stmt
    3236 001137 4A0E          B $C$L91  ; |1316| 
    3237                                                      ; branch occurs ; |1316| 
    3238 001139       $C$L89:    
    3239                      .dwpsn  file "../c5535_bsl_revc/ezdsp5535_v1/c55xx_csl/src/csl_usb.c",line 1319,column 4,is_stmt
    3240 001139 ED04          MOV dbl(*SP(#2)), XAR3
         00113b BF   
    3241 00113c E661          MOV #-6, *AR3 ; |1319| 
         00113e FA   
    3242                      .dwpsn  file "../c5535_bsl_revc/ezdsp5535_v1/c55xx_csl/src/csl_usb.c",line 1321,column 2,is_stmt
    3243 00113f 4A06          B $C$L91  ; |1321| 
    3244                                                      ; branch occurs ; |1321| 
    3245 001141       $C$L90:    
    3246                      .dwpsn  file "../c5535_bsl_revc/ezdsp5535_v1/c55xx_csl/src/csl_usb.c",line 1324,column 3,is_stmt
    3247 001141 ED04          MOV dbl(*SP(#2)), XAR3
         001143 BF   
    3248 001144 E661          MOV #-5, *AR3 ; |1324| 
         001146 FB   
    3249 001147       $C$L91:    
    3250                      .dwpsn  file "../c5535_bsl_revc/ezdsp5535_v1/c55xx_csl/src/csl_usb.c",line 1327,column 2,is_stmt
    3251 001147 A40C          MOV *SP(#6), T0 ; |1327| 
    3252                      .dwpsn  file "../c5535_bsl_revc/ezdsp5535_v1/c55xx_csl/src/csl_usb.c",line 1328,column 1,is_stmt
    3253 001149 4E0B          AADD #11, SP
    3254                      .dwcfi  cfa_offset, 1
    3255              $C$DW$167       .dwtag  DW_TAG_TI_branch
    3256                      .dwattr $C$DW$167, DW_AT_low_pc(0x00)
    3257                      .dwattr $C$DW$167, DW_AT_TI_return
    3258 00114b 4804          RET
    3259                                                      ; return occurs
    3260                      .dwattr $C$DW$159, DW_AT_TI_end_file("../c5535_bsl_revc/ezdsp5535_v1/c55xx_csl/src/csl_usb.c")
    3261                      .dwattr $C$DW$159, DW_AT_TI_end_line(0x530)
TMS320C55x Assembler PC v4.4.1 Tue Oct 02 02:33:44 2018

Tools Copyright (c) 1996-2012 Texas Instruments Incorporated
csl_usb.asm                                                          PAGE   83

    3262                      .dwattr $C$DW$159, DW_AT_TI_end_column(0x01)
    3263                      .dwendentry
    3264                      .dwendtag $C$DW$159
    3265              
    3266 00114d               .sect   ".text"
    3267                      .align 4
    3268                      .global _USB_stallEndpt
    3269              
    3270              $C$DW$168       .dwtag  DW_TAG_subprogram, DW_AT_name("USB_stallEndpt")
    3271                      .dwattr $C$DW$168, DW_AT_low_pc(_USB_stallEndpt)
    3272                      .dwattr $C$DW$168, DW_AT_high_pc(0x00)
    3273                      .dwattr $C$DW$168, DW_AT_TI_symbol_name("_USB_stallEndpt")
    3274                      .dwattr $C$DW$168, DW_AT_external
    3275                      .dwattr $C$DW$168, DW_AT_type(*$C$DW$T$75)
    3276                      .dwattr $C$DW$168, DW_AT_TI_begin_file("../c5535_bsl_revc/ezdsp5535_v1/c55xx_csl/src/csl_usb.c")
    3277                      .dwattr $C$DW$168, DW_AT_TI_begin_line(0x55e)
    3278                      .dwattr $C$DW$168, DW_AT_TI_begin_column(0x0c)
    3279                      .dwattr $C$DW$168, DW_AT_TI_max_frame_size(0x0a)
    3280                      .dwpsn  file "../c5535_bsl_revc/ezdsp5535_v1/c55xx_csl/src/csl_usb.c",line 1375,column 1,is_stmt,addr
    3281              
    3282                      .dwfde $C$DW$CIE, _USB_stallEndpt
    3283              $C$DW$169       .dwtag  DW_TAG_formal_parameter, DW_AT_name("hEp")
    3284                      .dwattr $C$DW$169, DW_AT_TI_symbol_name("_hEp")
    3285                      .dwattr $C$DW$169, DW_AT_type(*$C$DW$T$102)
    3286                      .dwattr $C$DW$169, DW_AT_location[DW_OP_reg17]
    3287              ;*******************************************************************************
    3288              ;* FUNCTION NAME: USB_stallEndpt                                               *
    3289              ;*                                                                             *
    3290              ;*   Function Uses Regs : AC0,AC0,AC1,AC1,T0,AR0,XAR0,AR1,AR2,XAR2,AR3,XAR3,SP,*
    3291              ;*                        CARRY,TC1,M40,SATA,SATD,RDM,FRCT,SMUL                *
    3292              ;*   Stack Frame        : Compact (No Frame Pointer, w/ debug)                 *
    3293              ;*   Total Frame Size   : 10 words                                             *
    3294              ;*                        (2 return address/alignment)                         *
    3295              ;*                        (8 local values)                                     *
    3296              ;*   Min System Stack   : 1 word                                               *
    3297              ;*******************************************************************************
    3298 001150       _USB_stallEndpt:
    3299                      .dwcfi  cfa_offset, 1
    3300                      .dwcfi  save_reg_to_mem, 91, -1
    3301 001150 4EF7          AADD #-9, SP
    3302                      .dwcfi  cfa_offset, 10
    3303              $C$DW$170       .dwtag  DW_TAG_variable, DW_AT_name("hEp")
    3304                      .dwattr $C$DW$170, DW_AT_TI_symbol_name("_hEp")
    3305                      .dwattr $C$DW$170, DW_AT_type(*$C$DW$T$102)
    3306                      .dwattr $C$DW$170, DW_AT_location[DW_OP_bregx 0x24 0]
    3307              $C$DW$171       .dwtag  DW_TAG_variable, DW_AT_name("peps")
    3308                      .dwattr $C$DW$171, DW_AT_TI_symbol_name("_peps")
    3309                      .dwattr $C$DW$171, DW_AT_type(*$C$DW$T$147)
    3310                      .dwattr $C$DW$171, DW_AT_location[DW_OP_bregx 0x24 2]
    3311              $C$DW$172       .dwtag  DW_TAG_variable, DW_AT_name("status")
    3312                      .dwattr $C$DW$172, DW_AT_TI_symbol_name("_status")
    3313                      .dwattr $C$DW$172, DW_AT_type(*$C$DW$T$75)
    3314                      .dwattr $C$DW$172, DW_AT_location[DW_OP_bregx 0x24 4]
    3315              $C$DW$173       .dwtag  DW_TAG_variable, DW_AT_name("saveIndex")
    3316                      .dwattr $C$DW$173, DW_AT_TI_symbol_name("_saveIndex")
TMS320C55x Assembler PC v4.4.1 Tue Oct 02 02:33:44 2018

Tools Copyright (c) 1996-2012 Texas Instruments Incorporated
csl_usb.asm                                                          PAGE   84

    3317                      .dwattr $C$DW$173, DW_AT_type(*$C$DW$T$19)
    3318                      .dwattr $C$DW$173, DW_AT_location[DW_OP_bregx 0x24 5]
    3319              $C$DW$174       .dwtag  DW_TAG_variable, DW_AT_name("pContext")
    3320                      .dwattr $C$DW$174, DW_AT_TI_symbol_name("_pContext")
    3321                      .dwattr $C$DW$174, DW_AT_type(*$C$DW$T$142)
    3322                      .dwattr $C$DW$174, DW_AT_location[DW_OP_bregx 0x24 6]
    3323 001152 EB00          MOV XAR0, dbl(*SP(#0))
         001154 85   
    3324                      .dwpsn  file "../c5535_bsl_revc/ezdsp5535_v1/c55xx_csl/src/csl_usb.c",line 1381,column 2,is_stmt
    3325 001155 E608          MOV #0, *SP(#4) ; |1381| 
         001157 00   
    3326                      .dwpsn  file "../c5535_bsl_revc/ezdsp5535_v1/c55xx_csl/src/csl_usb.c",line 1382,column 2,is_stmt
    3327 001158 E60A          MOV #0, *SP(#5) ; |1382| 
         00115a 00   
    3328                      .dwpsn  file "../c5535_bsl_revc/ezdsp5535_v1/c55xx_csl/src/csl_usb.c",line 1383,column 2,is_stmt
    3329 00115b 3C00          MOV #0, AC0 ; |1383| 
    3330 00115d EB04          MOV AC0, dbl(*SP(#2))
         00115f 08   
    3331                      .dwpsn  file "../c5535_bsl_revc/ezdsp5535_v1/c55xx_csl/src/csl_usb.c",line 1384,column 2,is_stmt
    3332 001160 EC31          AMOV #_gUsbContext, XAR3 ; |1384| 
         001162 BE00 
         001164 0002-
    3333 001166 EB0C          MOV XAR3, dbl(*SP(#6))
         001168 B5   
    3334                      .dwpsn  file "../c5535_bsl_revc/ezdsp5535_v1/c55xx_csl/src/csl_usb.c",line 1386,column 2,is_stmt
    3335 001169 ED00          MOV dbl(*SP(#0)), XAR3
         00116b BF   
    3336 00116c 90B0          MOV XAR3, AC0
    3337 00116e 6D00          BCC $C$L96,AC0 == #0 ; |1386| 
         001170 0136 
    3338                                                      ; branchcc occurs ; |1386| 
    3339                      .dwpsn  file "../c5535_bsl_revc/ezdsp5535_v1/c55xx_csl/src/csl_usb.c",line 1388,column 3,is_stmt
    3340 001172 F061          CMP *AR3 == #8, TC1 ; |1388| 
         001174 0008 
    3341 001176 62F4          BCC $C$L92,!TC1 ; |1388| 
    3342                                                      ; branchcc occurs ; |1388| 
    3343                      .dwpsn  file "../c5535_bsl_revc/ezdsp5535_v1/c55xx_csl/src/csl_usb.c",line 1390,column 4,is_stmt
    3344 001178 A408          MOV *SP(#4), T0 ; |1390| 
    3345 00117a 0601          B $C$L98  ; |1390| 
         00117c 3E   
    3346                                                      ; branch occurs ; |1390| 
    3347 00117d       $C$L92:    
    3348                      .dwpsn  file "../c5535_bsl_revc/ezdsp5535_v1/c55xx_csl/src/csl_usb.c",line 1393,column 3,is_stmt
    3349 00117d A961          MOV *AR3, AR1 ; |1393| 
    3350 00117f 2290          MOV AR1, AC0
    3351 001181 ED0C          MOV dbl(*SP(#6)), XAR3
         001183 BF   
    3352 001184 1005          SFTS AC0, #-2, AC0 ; |1393| 
         001186 3E   
    3353 001187 76E0          BFXTR #0xe000, AC0, AR2 ; |1393| 
         001189 00A0 
    3354 00118b 249A          ADD AR1, AR2 ; |1393| 
    3355 00118d 7DFF          AND #0xfffffff8, AR2, AR2 ; |1393| 
         00118f F8AA 
    3356 001191 ED6D          MOV dbl(*AR3(#98)), XAR3
TMS320C55x Assembler PC v4.4.1 Tue Oct 02 02:33:44 2018

Tools Copyright (c) 1996-2012 Texas Instruments Incorporated
csl_usb.asm                                                          PAGE   85

         001193 BF00 
         001195 62   
    3357 001196 26A9          SUB AR2, AR1 ; |1393| 
    3358 001198 2291          MOV AR1, AC1
    3359 00119a 1015          SFTS AC1, #1, AC0 ; |1393| 
         00119c 01   
    3360 00119d 1013          ADD AC1 << #4, AC0 ; |1393| 
         00119f 04   
    3361 0011a0 900A          MOV AC0, XAR2
    3362              
    3363 0011a2 8E04          MOV XAR3, dbl(*SP(#2))
         0011a4 BB10 
         0011a6 B5A1 
    3364              ||      AADD XAR2, XAR3 ; |1393| 
    3365              
    3366                      .dwpsn  file "../c5535_bsl_revc/ezdsp5535_v1/c55xx_csl/src/csl_usb.c",line 1395,column 3,is_stmt
    3367 0011a8 90B0          MOV XAR3, AC0
    3368 0011aa 6D00          BCC $C$L95,AC0 == #0 ; |1395| 
         0011ac 00F5 
    3369                                                      ; branchcc occurs ; |1395| 
    3370 0011ae F07D          CMP *AR3(short(#6)) == #1, TC1 ; |1395| 
         0011b0 0001 
    3371 0011b2 6D74          BCC $C$L95,!TC1 ; |1395| 
         0011b4 00ED 
    3372                                                      ; branchcc occurs ; |1395| 
    3373                      .dwpsn  file "../c5535_bsl_revc/ezdsp5535_v1/c55xx_csl/src/csl_usb.c",line 1398,column 4,is_stmt
    3374 0011b6 7604          MOV #1038, T0 ; |1398| 
         0011b8 0E48 
    3375 0011ba AB31          MOV *(#_usbRegisters), AR3 ; |1398| 
         0011bc 0000 
         0011be 00-  
    3376 0011bf A96B          MOV port(*AR3(T0)), AR1 ; |1398| 
         0011c1 99   
    3377 0011c2 C90A          MOV AR1, *SP(#5) ; |1398| 
    3378                      .dwpsn  file "../c5535_bsl_revc/ezdsp5535_v1/c55xx_csl/src/csl_usb.c",line 1399,column 4,is_stmt
    3379 0011c4 ED04          MOV dbl(*SP(#2)), XAR3
         0011c6 BF   
    3380 0011c7 E66D          MOV #1, *AR3(#16) ; |1399| 
         0011c9 0100 
         0011cb 10   
    3381                      .dwpsn  file "../c5535_bsl_revc/ezdsp5535_v1/c55xx_csl/src/csl_usb.c",line 1401,column 4,is_stmt
    3382 0011cc ED04          MOV dbl(*SP(#2)), XAR3
         0011ce BF   
    3383 0011cf ED61          MOV dbl(*AR3), AC0 ; |1401| 
         0011d1 08   
    3384 0011d2 0410          BCC $C$L93,AC0 != #0 ; |1401| 
         0011d4 36   
    3385                                                      ; branchcc occurs ; |1401| 
    3386                      .dwpsn  file "../c5535_bsl_revc/ezdsp5535_v1/c55xx_csl/src/csl_usb.c",line 1404,column 5,is_stmt
    3387 0011d5 AB31          MOV *(#_usbRegisters), AR3 ; |1404| 
         0011d7 0000 
         0011d9 00-  
    3388 0011da A96B          MOV port(*AR3(T0)), AR1 ; |1404| 
         0011dc 99   
    3389 0011dd 7DFF          AND #0xfff0, AR1, AC0 ; |1404| 
TMS320C55x Assembler PC v4.4.1 Tue Oct 02 02:33:44 2018

Tools Copyright (c) 1996-2012 Texas Instruments Incorporated
csl_usb.asm                                                          PAGE   86

         0011df F009 
    3390 0011e1 C06B          MOV AC0, port(*AR3(T0)) ; |1404| 
         0011e3 9A   
    3391                      .dwpsn  file "../c5535_bsl_revc/ezdsp5535_v1/c55xx_csl/src/csl_usb.c",line 1408,column 5,is_stmt
    3392 0011e4 AB31          MOV *(#_usbRegisters), AR3 ; |1408| 
         0011e6 0000 
         0011e8 00-  
    3393 0011e9 A96B          MOV port(*AR3(T0)), AR1 ; |1408| 
         0011eb 99   
    3394 0011ec 7DFF          AND #0xfff0, AR1, AC0 ; |1408| 
         0011ee F009 
    3395 0011f0 C06B          MOV AC0, port(*AR3(T0)) ; |1408| 
         0011f2 9A   
    3396                      .dwpsn  file "../c5535_bsl_revc/ezdsp5535_v1/c55xx_csl/src/csl_usb.c",line 1412,column 5,is_stmt
    3397 0011f3 7604          MOV #1042, T0 ; |1412| 
         0011f5 1248 
    3398 0011f7 AB31          MOV *(#_usbRegisters), AR3 ; |1412| 
         0011f9 0000 
         0011fb 00-  
    3399 0011fc A96B          MOV port(*AR3(T0)), AR1 ; |1412| 
         0011fe 99   
    3400 0011ff EC0A          BCLR @#5, AR1 ; |1412| 
         001201 92   
    3401 001202 EC0A          BSET @#5, AR1 ; |1412| 
         001204 90   
    3402 001205 C96B          MOV AR1, port(*AR3(T0)) ; |1412| 
         001207 9A   
    3403                      .dwpsn  file "../c5535_bsl_revc/ezdsp5535_v1/c55xx_csl/src/csl_usb.c",line 1414,column 4,is_stmt
    3404 001208 0600          B $C$L97  ; |1414| 
         00120a A0   
    3405                                                      ; branch occurs ; |1414| 
    3406 00120b       $C$L93:    
    3407                      .dwpsn  file "../c5535_bsl_revc/ezdsp5535_v1/c55xx_csl/src/csl_usb.c",line 1417,column 5,is_stmt
    3408 00120b ED00          MOV dbl(*SP(#0)), XAR3
         00120d BF   
    3409              
    3410 00120e A961          MOV *AR3, AR1 ; |1417| 
    3411 001210 3D8A  ||      MOV #8, AR2
    3412              
    3413 001212 12A8          CMP AR1 <= AR2, TC1 ; |1417| 
         001214 90   
    3414 001215 0464          BCC $C$L94,TC1 ; |1417| 
         001217 46   
    3415                                                      ; branchcc occurs ; |1417| 
    3416                      .dwpsn  file "../c5535_bsl_revc/ezdsp5535_v1/c55xx_csl/src/csl_usb.c",line 1420,column 12,is_stmt
    3417 001218 AB31          MOV *(#_usbRegisters), AR3 ; |1420| 
         00121a 0000 
         00121c 00-  
    3418 00121d A96B          MOV port(*AR3(T0)), AR1 ; |1420| 
         00121f 99   
    3419 001220 7DFF          AND #0xfff0, AR1, AC0 ; |1420| 
         001222 F009 
    3420 001224 C06B          MOV AC0, port(*AR3(T0)) ; |1420| 
         001226 9A   
    3421                      .dwpsn  file "../c5535_bsl_revc/ezdsp5535_v1/c55xx_csl/src/csl_usb.c",line 1424,column 6,is_stmt
TMS320C55x Assembler PC v4.4.1 Tue Oct 02 02:33:44 2018

Tools Copyright (c) 1996-2012 Texas Instruments Incorporated
csl_usb.asm                                                          PAGE   87

    3422 001227 AB31          MOV *(#_usbRegisters), AR3 ; |1424| 
         001229 0000 
         00122b 00-  
    3423 00122c A96B          MOV port(*AR3(T0)), AR1 ; |1424| 
         00122e 99   
    3424 00122f ED04          MOV dbl(*SP(#2)), XAR3
         001231 BF   
    3425 001232 ED61          MOV dbl(*AR3), AC0 ; |1424| 
         001234 08   
    3426 001235 AB31          MOV *(#_usbRegisters), AR3 ; |1424| 
         001237 0000 
         001239 00-  
    3427 00123a 7DFF          AND #0xfff0, AR1, AC1 ; |1424| 
         00123c F019 
    3428 00123e 180F          AND #0x000f, AC0, AC0 ; |1424| 
         001240 00   
    3429 001241 2A10          OR AC1, AC0 ; |1424| 
    3430 001243 C06B          MOV AC0, port(*AR3(T0)) ; |1424| 
         001245 9A   
    3431                      .dwpsn  file "../c5535_bsl_revc/ezdsp5535_v1/c55xx_csl/src/csl_usb.c",line 1428,column 6,is_stmt
    3432 001246 7604          MOV #1042, T0 ; |1428| 
         001248 1248 
    3433 00124a AB31          MOV *(#_usbRegisters), AR3 ; |1428| 
         00124c 0000 
         00124e 00-  
    3434 00124f A96B          MOV port(*AR3(T0)), AR1 ; |1428| 
         001251 99   
    3435 001252 EC08          BCLR @#4, AR1 ; |1428| 
         001254 92   
    3436 001255 EC08          BSET @#4, AR1 ; |1428| 
         001257 90   
    3437 001258 C96B          MOV AR1, port(*AR3(T0)) ; |1428| 
         00125a 9A   
    3438                      .dwpsn  file "../c5535_bsl_revc/ezdsp5535_v1/c55xx_csl/src/csl_usb.c",line 1430,column 5,is_stmt
    3439 00125b 0600          B $C$L97  ; |1430| 
         00125d 4D   
    3440                                                      ; branch occurs ; |1430| 
    3441 00125e       $C$L94:    
    3442                      .dwpsn  file "../c5535_bsl_revc/ezdsp5535_v1/c55xx_csl/src/csl_usb.c",line 1434,column 12,is_stmt
    3443 00125e AB31          MOV *(#_usbRegisters), AR3 ; |1434| 
         001260 0000 
         001262 00-  
    3444 001263 A96B          MOV port(*AR3(T0)), AR1 ; |1434| 
         001265 99   
    3445 001266 7DFF          AND #0xfff0, AR1, AC0 ; |1434| 
         001268 F009 
    3446 00126a C06B          MOV AC0, port(*AR3(T0)) ; |1434| 
         00126c 9A   
    3447                      .dwpsn  file "../c5535_bsl_revc/ezdsp5535_v1/c55xx_csl/src/csl_usb.c",line 1438,column 6,is_stmt
    3448 00126d AB31          MOV *(#_usbRegisters), AR3 ; |1438| 
         00126f 0000 
         001271 00-  
    3449 001272 A96B          MOV port(*AR3(T0)), AR1 ; |1438| 
         001274 99   
    3450 001275 ED04          MOV dbl(*SP(#2)), XAR3
TMS320C55x Assembler PC v4.4.1 Tue Oct 02 02:33:44 2018

Tools Copyright (c) 1996-2012 Texas Instruments Incorporated
csl_usb.asm                                                          PAGE   88

         001277 BF   
    3451 001278 ED61          MOV dbl(*AR3), AC0 ; |1438| 
         00127a 08   
    3452 00127b AB31          MOV *(#_usbRegisters), AR3 ; |1438| 
         00127d 0000 
         00127f 00-  
    3453 001280 7DFF          AND #0xfff0, AR1, AC1 ; |1438| 
         001282 F019 
    3454 001284 180F          AND #0x000f, AC0, AC0 ; |1438| 
         001286 00   
    3455 001287 2A10          OR AC1, AC0 ; |1438| 
    3456 001289 C06B          MOV AC0, port(*AR3(T0)) ; |1438| 
         00128b 9A   
    3457                      .dwpsn  file "../c5535_bsl_revc/ezdsp5535_v1/c55xx_csl/src/csl_usb.c",line 1442,column 6,is_stmt
    3458 00128c 7604          MOV #1046, T0 ; |1442| 
         00128e 1648 
    3459 001290 AB31          MOV *(#_usbRegisters), AR3 ; |1442| 
         001292 0000 
         001294 00-  
    3460 001295 A96B          MOV port(*AR3(T0)), AR1 ; |1442| 
         001297 99   
    3461 001298 EC0A          BCLR @#5, AR1 ; |1442| 
         00129a 92   
    3462 00129b EC0A          BSET @#5, AR1 ; |1442| 
         00129d 90   
    3463 00129e C96B          MOV AR1, port(*AR3(T0)) ; |1442| 
         0012a0 9A   
    3464                      .dwpsn  file "../c5535_bsl_revc/ezdsp5535_v1/c55xx_csl/src/csl_usb.c",line 1446,column 3,is_stmt
    3465 0012a1 4A08          B $C$L97  ; |1446| 
    3466                                                      ; branch occurs ; |1446| 
    3467 0012a3       $C$L95:    
    3468                      .dwpsn  file "../c5535_bsl_revc/ezdsp5535_v1/c55xx_csl/src/csl_usb.c",line 1449,column 13,is_stmt
    3469 0012a3 E608          MOV #-6, *SP(#4) ; |1449| 
         0012a5 FA   
    3470                      .dwpsn  file "../c5535_bsl_revc/ezdsp5535_v1/c55xx_csl/src/csl_usb.c",line 1451,column 2,is_stmt
    3471 0012a6 4A03          B $C$L97  ; |1451| 
    3472                                                      ; branch occurs ; |1451| 
    3473 0012a8       $C$L96:    
    3474                      .dwpsn  file "../c5535_bsl_revc/ezdsp5535_v1/c55xx_csl/src/csl_usb.c",line 1454,column 3,is_stmt
    3475 0012a8 E608          MOV #-5, *SP(#4) ; |1454| 
         0012aa FB   
    3476 0012ab       $C$L97:    
    3477                      .dwpsn  file "../c5535_bsl_revc/ezdsp5535_v1/c55xx_csl/src/csl_usb.c",line 1458,column 2,is_stmt
    3478 0012ab AB31          MOV *(#_usbRegisters), AR3 ; |1458| 
         0012ad 0000 
         0012af 00-  
    3479 0012b0 7604          MOV #1038, T0 ; |1458| 
         0012b2 0E48 
    3480 0012b4 A90A          MOV *SP(#5), AR1 ; |1458| 
    3481 0012b6 C96B          MOV AR1, port(*AR3(T0)) ; |1458| 
         0012b8 9A   
    3482                      .dwpsn  file "../c5535_bsl_revc/ezdsp5535_v1/c55xx_csl/src/csl_usb.c",line 1460,column 2,is_stmt
    3483 0012b9 A408          MOV *SP(#4), T0 ; |1460| 
    3484 0012bb       $C$L98:    
    3485                      .dwpsn  file "../c5535_bsl_revc/ezdsp5535_v1/c55xx_csl/src/csl_usb.c",line 1461,column 1,is_stmt
TMS320C55x Assembler PC v4.4.1 Tue Oct 02 02:33:44 2018

Tools Copyright (c) 1996-2012 Texas Instruments Incorporated
csl_usb.asm                                                          PAGE   89

    3486 0012bb 4E09          AADD #9, SP
    3487                      .dwcfi  cfa_offset, 1
    3488              $C$DW$175       .dwtag  DW_TAG_TI_branch
    3489                      .dwattr $C$DW$175, DW_AT_low_pc(0x00)
    3490                      .dwattr $C$DW$175, DW_AT_TI_return
    3491 0012bd 4804          RET
    3492                                                      ; return occurs
    3493                      .dwattr $C$DW$168, DW_AT_TI_end_file("../c5535_bsl_revc/ezdsp5535_v1/c55xx_csl/src/csl_usb.c")
    3494                      .dwattr $C$DW$168, DW_AT_TI_end_line(0x5b5)
    3495                      .dwattr $C$DW$168, DW_AT_TI_end_column(0x01)
    3496                      .dwendentry
    3497                      .dwendtag $C$DW$168
    3498              
    3499 0012bf               .sect   ".text"
    3500                      .align 4
    3501                      .global _USB_clearEndptStall
    3502              
    3503              $C$DW$176       .dwtag  DW_TAG_subprogram, DW_AT_name("USB_clearEndptStall")
    3504                      .dwattr $C$DW$176, DW_AT_low_pc(_USB_clearEndptStall)
    3505                      .dwattr $C$DW$176, DW_AT_high_pc(0x00)
    3506                      .dwattr $C$DW$176, DW_AT_TI_symbol_name("_USB_clearEndptStall")
    3507                      .dwattr $C$DW$176, DW_AT_external
    3508                      .dwattr $C$DW$176, DW_AT_type(*$C$DW$T$75)
    3509                      .dwattr $C$DW$176, DW_AT_TI_begin_file("../c5535_bsl_revc/ezdsp5535_v1/c55xx_csl/src/csl_usb.c")
    3510                      .dwattr $C$DW$176, DW_AT_TI_begin_line(0x5e8)
    3511                      .dwattr $C$DW$176, DW_AT_TI_begin_column(0x0c)
    3512                      .dwattr $C$DW$176, DW_AT_TI_max_frame_size(0x0c)
    3513                      .dwpsn  file "../c5535_bsl_revc/ezdsp5535_v1/c55xx_csl/src/csl_usb.c",line 1513,column 1,is_stmt,addr
    3514              
    3515                      .dwfde $C$DW$CIE, _USB_clearEndptStall
    3516              $C$DW$177       .dwtag  DW_TAG_formal_parameter, DW_AT_name("hEp")
    3517                      .dwattr $C$DW$177, DW_AT_TI_symbol_name("_hEp")
    3518                      .dwattr $C$DW$177, DW_AT_type(*$C$DW$T$102)
    3519                      .dwattr $C$DW$177, DW_AT_location[DW_OP_reg17]
    3520              ;*******************************************************************************
    3521              ;* FUNCTION NAME: USB_clearEndptStall                                          *
    3522              ;*                                                                             *
    3523              ;*   Function Uses Regs : AC0,AC0,AC1,AC1,T0,AR0,XAR0,AR1,AR2,XAR2,AR3,XAR3,SP,*
    3524              ;*                        CARRY,TC1,M40,SATA,SATD,RDM,FRCT,SMUL                *
    3525              ;*   Stack Frame        : Compact (No Frame Pointer, w/ debug)                 *
    3526              ;*   Total Frame Size   : 12 words                                             *
    3527              ;*                        (2 return address/alignment)                         *
    3528              ;*                        (10 local values)                                    *
    3529              ;*   Min System Stack   : 1 word                                               *
    3530              ;*******************************************************************************
    3531 0012c0       _USB_clearEndptStall:
    3532                      .dwcfi  cfa_offset, 1
    3533                      .dwcfi  save_reg_to_mem, 91, -1
    3534 0012c0 4EF5          AADD #-11, SP
    3535                      .dwcfi  cfa_offset, 12
    3536              $C$DW$178       .dwtag  DW_TAG_variable, DW_AT_name("hEp")
    3537                      .dwattr $C$DW$178, DW_AT_TI_symbol_name("_hEp")
    3538                      .dwattr $C$DW$178, DW_AT_type(*$C$DW$T$102)
    3539                      .dwattr $C$DW$178, DW_AT_location[DW_OP_bregx 0x24 0]
    3540              $C$DW$179       .dwtag  DW_TAG_variable, DW_AT_name("status")
TMS320C55x Assembler PC v4.4.1 Tue Oct 02 02:33:44 2018

Tools Copyright (c) 1996-2012 Texas Instruments Incorporated
csl_usb.asm                                                          PAGE   90

    3541                      .dwattr $C$DW$179, DW_AT_TI_symbol_name("_status")
    3542                      .dwattr $C$DW$179, DW_AT_type(*$C$DW$T$75)
    3543                      .dwattr $C$DW$179, DW_AT_location[DW_OP_bregx 0x24 2]
    3544              $C$DW$180       .dwtag  DW_TAG_variable, DW_AT_name("peps")
    3545                      .dwattr $C$DW$180, DW_AT_TI_symbol_name("_peps")
    3546                      .dwattr $C$DW$180, DW_AT_type(*$C$DW$T$147)
    3547                      .dwattr $C$DW$180, DW_AT_location[DW_OP_bregx 0x24 4]
    3548              $C$DW$181       .dwtag  DW_TAG_variable, DW_AT_name("pContext")
    3549                      .dwattr $C$DW$181, DW_AT_TI_symbol_name("_pContext")
    3550                      .dwattr $C$DW$181, DW_AT_type(*$C$DW$T$142)
    3551                      .dwattr $C$DW$181, DW_AT_location[DW_OP_bregx 0x24 6]
    3552              $C$DW$182       .dwtag  DW_TAG_variable, DW_AT_name("endPtCount")
    3553                      .dwattr $C$DW$182, DW_AT_TI_symbol_name("_endPtCount")
    3554                      .dwattr $C$DW$182, DW_AT_type(*$C$DW$T$19)
    3555                      .dwattr $C$DW$182, DW_AT_location[DW_OP_bregx 0x24 8]
    3556              $C$DW$183       .dwtag  DW_TAG_variable, DW_AT_name("saveIndex")
    3557                      .dwattr $C$DW$183, DW_AT_TI_symbol_name("_saveIndex")
    3558                      .dwattr $C$DW$183, DW_AT_type(*$C$DW$T$19)
    3559                      .dwattr $C$DW$183, DW_AT_location[DW_OP_bregx 0x24 9]
    3560 0012c2 EB00          MOV XAR0, dbl(*SP(#0))
         0012c4 85   
    3561                      .dwpsn  file "../c5535_bsl_revc/ezdsp5535_v1/c55xx_csl/src/csl_usb.c",line 1520,column 2,is_stmt
    3562 0012c5 E604          MOV #0, *SP(#2) ; |1520| 
         0012c7 00   
    3563                      .dwpsn  file "../c5535_bsl_revc/ezdsp5535_v1/c55xx_csl/src/csl_usb.c",line 1521,column 2,is_stmt
    3564 0012c8 3C00          MOV #0, AC0 ; |1521| 
    3565 0012ca EB08          MOV AC0, dbl(*SP(#4))
         0012cc 08   
    3566                      .dwpsn  file "../c5535_bsl_revc/ezdsp5535_v1/c55xx_csl/src/csl_usb.c",line 1522,column 2,is_stmt
    3567 0012cd E610          MOV #8, *SP(#8) ; |1522| 
         0012cf 08   
    3568                      .dwpsn  file "../c5535_bsl_revc/ezdsp5535_v1/c55xx_csl/src/csl_usb.c",line 1523,column 2,is_stmt
    3569 0012d0 EC31          AMOV #_gUsbContext, XAR3 ; |1523| 
         0012d2 BE00 
         0012d4 0002-
    3570 0012d6 EB0C          MOV XAR3, dbl(*SP(#6))
         0012d8 B5   
    3571                      .dwpsn  file "../c5535_bsl_revc/ezdsp5535_v1/c55xx_csl/src/csl_usb.c",line 1525,column 2,is_stmt
    3572 0012d9 ED00          MOV dbl(*SP(#0)), XAR3
         0012db BF   
    3573 0012dc 90B0          MOV XAR3, AC0
    3574 0012de 6D00          BCC $C$L102,AC0 == #0 ; |1525| 
         0012e0 01A9 
    3575                                                      ; branchcc occurs ; |1525| 
    3576                      .dwpsn  file "../c5535_bsl_revc/ezdsp5535_v1/c55xx_csl/src/csl_usb.c",line 1527,column 3,is_stmt
    3577 0012e2 A961          MOV *AR3, AR1 ; |1527| 
    3578 0012e4 2290          MOV AR1, AC0
    3579 0012e6 ED0C          MOV dbl(*SP(#6)), XAR3
         0012e8 BF   
    3580 0012e9 1005          SFTS AC0, #-2, AC0 ; |1527| 
         0012eb 3E   
    3581 0012ec 76E0          BFXTR #0xe000, AC0, AR2 ; |1527| 
         0012ee 00A0 
    3582 0012f0 249A          ADD AR1, AR2 ; |1527| 
    3583 0012f2 7DFF          AND #0xfffffff8, AR2, AR2 ; |1527| 
TMS320C55x Assembler PC v4.4.1 Tue Oct 02 02:33:44 2018

Tools Copyright (c) 1996-2012 Texas Instruments Incorporated
csl_usb.asm                                                          PAGE   91

         0012f4 F8AA 
    3584 0012f6 ED6D          MOV dbl(*AR3(#98)), XAR3
         0012f8 BF00 
         0012fa 62   
    3585 0012fb 26A9          SUB AR2, AR1 ; |1527| 
    3586 0012fd 2291          MOV AR1, AC1
    3587 0012ff 1015          SFTS AC1, #1, AC0 ; |1527| 
         001301 01   
    3588 001302 1013          ADD AC1 << #4, AC0 ; |1527| 
         001304 04   
    3589 001305 900A          MOV AC0, XAR2
    3590              
    3591 001307 8E08          MOV XAR3, dbl(*SP(#4))
         001309 BB10 
         00130b B5A1 
    3592              ||      AADD XAR2, XAR3 ; |1527| 
    3593              
    3594                      .dwpsn  file "../c5535_bsl_revc/ezdsp5535_v1/c55xx_csl/src/csl_usb.c",line 1529,column 3,is_stmt
    3595 00130d 90B0          MOV XAR3, AC0
    3596 00130f 6D00          BCC $C$L101,AC0 == #0 ; |1529| 
         001311 0173 
    3597                                                      ; branchcc occurs ; |1529| 
    3598 001313 F07D          CMP *AR3(short(#6)) == #1, TC1 ; |1529| 
         001315 0001 
    3599 001317 6D74          BCC $C$L101,!TC1 ; |1529| 
         001319 016B 
    3600                                                      ; branchcc occurs ; |1529| 
    3601                      .dwpsn  file "../c5535_bsl_revc/ezdsp5535_v1/c55xx_csl/src/csl_usb.c",line 1531,column 4,is_stmt
    3602 00131b 7604          MOV #1038, T0 ; |1531| 
         00131d 0E48 
    3603 00131f AB31          MOV *(#_usbRegisters), AR3 ; |1531| 
         001321 0000 
         001323 00-  
    3604 001324 A96B          MOV port(*AR3(T0)), AR1 ; |1531| 
         001326 99   
    3605 001327 C912          MOV AR1, *SP(#9) ; |1531| 
    3606                      .dwpsn  file "../c5535_bsl_revc/ezdsp5535_v1/c55xx_csl/src/csl_usb.c",line 1533,column 4,is_stmt
    3607 001329 ED00          MOV dbl(*SP(#0)), XAR3
         00132b BF   
    3608 00132c A961          MOV *AR3, AR1 ; |1533| 
    3609              
    3610 00132e 2290          MOV AR1, AC0
    3611 001330 3D7A  ||      MOV #7, AR2
    3612              
    3613 001332 1005          SFTS AC0, #-2, AC0 ; |1533| 
         001334 3E   
    3614 001335 37AA  ||      NOT AR2, AR2 ; |1533| 
    3615              
    3616 001337 76E0          BFXTR #0xe000, AC0, AR3 ; |1533| 
         001339 00B0 
    3617 00133b 249B          ADD AR1, AR3 ; |1533| 
    3618 00133d 28BA          AND AR3, AR2 ; |1533| 
    3619 00133f 26A9          SUB AR2, AR1 ; |1533| 
    3620 001341 C910          MOV AR1, *SP(#8) ; |1533| 
    3621                      .dwpsn  file "../c5535_bsl_revc/ezdsp5535_v1/c55xx_csl/src/csl_usb.c",line 1534,column 4,is_stmt
TMS320C55x Assembler PC v4.4.1 Tue Oct 02 02:33:44 2018

Tools Copyright (c) 1996-2012 Texas Instruments Incorporated
csl_usb.asm                                                          PAGE   92

    3622 001343 ED08          MOV dbl(*SP(#4)), XAR3
         001345 BF   
    3623 001346 E66D          MOV #0, *AR3(#16) ; |1534| 
         001348 0000 
         00134a 10   
    3624                      .dwpsn  file "../c5535_bsl_revc/ezdsp5535_v1/c55xx_csl/src/csl_usb.c",line 1536,column 4,is_stmt
    3625 00134b ED08          MOV dbl(*SP(#4)), XAR3
         00134d BF   
    3626 00134e ED61          MOV dbl(*AR3), AC0 ; |1536| 
         001350 08   
    3627 001351 0410          BCC $C$L99,AC0 != #0 ; |1536| 
         001353 52   
    3628                                                      ; branchcc occurs ; |1536| 
    3629                      .dwpsn  file "../c5535_bsl_revc/ezdsp5535_v1/c55xx_csl/src/csl_usb.c",line 1539,column 5,is_stmt
    3630 001354 AB31          MOV *(#_usbRegisters), AR3 ; |1539| 
         001356 0000 
         001358 00-  
    3631 001359 A96B          MOV port(*AR3(T0)), AR1 ; |1539| 
         00135b 99   
    3632 00135c 7DFF          AND #0xfff0, AR1, AC0 ; |1539| 
         00135e F009 
    3633 001360 C06B          MOV AC0, port(*AR3(T0)) ; |1539| 
         001362 9A   
    3634                      .dwpsn  file "../c5535_bsl_revc/ezdsp5535_v1/c55xx_csl/src/csl_usb.c",line 1543,column 5,is_stmt
    3635 001363 AB31          MOV *(#_usbRegisters), AR3 ; |1543| 
         001365 0000 
         001367 00-  
    3636 001368 A96B          MOV port(*AR3(T0)), AR1 ; |1543| 
         00136a 99   
    3637 00136b 7DFF          AND #0xfff0, AR1, AC0 ; |1543| 
         00136d F009 
    3638 00136f C06B          MOV AC0, port(*AR3(T0)) ; |1543| 
         001371 9A   
    3639                      .dwpsn  file "../c5535_bsl_revc/ezdsp5535_v1/c55xx_csl/src/csl_usb.c",line 1548,column 5,is_stmt
    3640 001372 7604          MOV #1042, T0 ; |1548| 
         001374 1248 
    3641 001376 AB31          MOV *(#_usbRegisters), AR3 ; |1548| 
         001378 0000 
         00137a 00-  
    3642 00137b A96B          MOV port(*AR3(T0)), AR1 ; |1548| 
         00137d 99   
    3643 00137e EC10          BCLR @#8, AR1 ; |1548| 
         001380 92   
    3644 001381 EC10          BSET @#8, AR1 ; |1548| 
         001383 90   
    3645 001384 C96B          MOV AR1, port(*AR3(T0)) ; |1548| 
         001386 9A   
    3646                      .dwpsn  file "../c5535_bsl_revc/ezdsp5535_v1/c55xx_csl/src/csl_usb.c",line 1552,column 5,is_stmt
    3647 001387 AB31          MOV *(#_usbRegisters), AR3 ; |1552| 
         001389 0000 
         00138b 00-  
    3648 00138c A96B          MOV port(*AR3(T0)), AR1 ; |1552| 
         00138e 99   
    3649 00138f EC04          BCLR @#2, AR1 ; |1552| 
         001391 92   
TMS320C55x Assembler PC v4.4.1 Tue Oct 02 02:33:44 2018

Tools Copyright (c) 1996-2012 Texas Instruments Incorporated
csl_usb.asm                                                          PAGE   93

    3650 001392 C96B          MOV AR1, port(*AR3(T0)) ; |1552| 
         001394 9A   
    3651                      .dwpsn  file "../c5535_bsl_revc/ezdsp5535_v1/c55xx_csl/src/csl_usb.c",line 1555,column 5,is_stmt
    3652 001395 AB31          MOV *(#_usbRegisters), AR3 ; |1555| 
         001397 0000 
         001399 00-  
    3653 00139a A96B          MOV port(*AR3(T0)), AR1 ; |1555| 
         00139c 99   
    3654 00139d EC08          BCLR @#4, AR1 ; |1555| 
         00139f 92   
    3655 0013a0 C96B          MOV AR1, port(*AR3(T0)) ; |1555| 
         0013a2 9A   
    3656                      .dwpsn  file "../c5535_bsl_revc/ezdsp5535_v1/c55xx_csl/src/csl_usb.c",line 1557,column 4,is_stmt
    3657 0013a3 0600          B $C$L103 ; |1557| 
         0013a5 E8   
    3658                                                      ; branch occurs ; |1557| 
    3659 0013a6       $C$L99:    
    3660                      .dwpsn  file "../c5535_bsl_revc/ezdsp5535_v1/c55xx_csl/src/csl_usb.c",line 1560,column 5,is_stmt
    3661 0013a6 ED00          MOV dbl(*SP(#0)), XAR3
         0013a8 BF   
    3662              
    3663 0013a9 A961          MOV *AR3, AR1 ; |1560| 
    3664 0013ab 3D8A  ||      MOV #8, AR2
    3665              
    3666 0013ad 12A8          CMP AR1 <= AR2, TC1 ; |1560| 
         0013af 90   
    3667 0013b0 0464          BCC $C$L100,TC1 ; |1560| 
         0013b2 6A   
    3668                                                      ; branchcc occurs ; |1560| 
    3669                      .dwpsn  file "../c5535_bsl_revc/ezdsp5535_v1/c55xx_csl/src/csl_usb.c",line 1562,column 6,is_stmt
    3670 0013b3 AB31          MOV *(#_usbRegisters), AR3 ; |1562| 
         0013b5 0000 
         0013b7 00-  
    3671 0013b8 A96B          MOV port(*AR3(T0)), AR1 ; |1562| 
         0013ba 99   
    3672 0013bb 7DFF          AND #0xfff0, AR1, AC0 ; |1562| 
         0013bd F009 
    3673 0013bf C06B          MOV AC0, port(*AR3(T0)) ; |1562| 
         0013c1 9A   
    3674                      .dwpsn  file "../c5535_bsl_revc/ezdsp5535_v1/c55xx_csl/src/csl_usb.c",line 1566,column 6,is_stmt
    3675 0013c2 AB31          MOV *(#_usbRegisters), AR3 ; |1566| 
         0013c4 0000 
         0013c6 00-  
    3676 0013c7 A96B          MOV port(*AR3(T0)), AR1 ; |1566| 
         0013c9 99   
    3677 0013ca 7DFF          AND #0xfff0, AR1, AR2 ; |1566| 
         0013cc F0A9 
    3678 0013ce A910          MOV *SP(#8), AR1 ; |1566| 
    3679 0013d0 180F          AND #0x000f, AR1, AR1 ; |1566| 
         0013d2 99   
    3680 0013d3 2AA9          OR AR2, AR1 ; |1566| 
    3681 0013d5 C96B          MOV AR1, port(*AR3(T0)) ; |1566| 
         0013d7 9A   
    3682                      .dwpsn  file "../c5535_bsl_revc/ezdsp5535_v1/c55xx_csl/src/csl_usb.c",line 1571,column 6,is_stmt
    3683 0013d8 7604          MOV #1042, T0 ; |1571| 
TMS320C55x Assembler PC v4.4.1 Tue Oct 02 02:33:44 2018

Tools Copyright (c) 1996-2012 Texas Instruments Incorporated
csl_usb.asm                                                          PAGE   94

         0013da 1248 
    3684 0013dc AB31          MOV *(#_usbRegisters), AR3 ; |1571| 
         0013de 0000 
         0013e0 00-  
    3685 0013e1 A96B          MOV port(*AR3(T0)), AR1 ; |1571| 
         0013e3 99   
    3686 0013e4 EC06          BCLR @#3, AR1 ; |1571| 
         0013e6 92   
    3687 0013e7 EC06          BSET @#3, AR1 ; |1571| 
         0013e9 90   
    3688 0013ea C96B          MOV AR1, port(*AR3(T0)) ; |1571| 
         0013ec 9A   
    3689                      .dwpsn  file "../c5535_bsl_revc/ezdsp5535_v1/c55xx_csl/src/csl_usb.c",line 1575,column 6,is_stmt
    3690 0013ed AB31          MOV *(#_usbRegisters), AR3 ; |1575| 
         0013ef 0000 
         0013f1 00-  
    3691 0013f2 A96B          MOV port(*AR3(T0)), AR1 ; |1575| 
         0013f4 99   
    3692 0013f5 EC0C          BCLR @#6, AR1 ; |1575| 
         0013f7 92   
    3693 0013f8 EC0C          BSET @#6, AR1 ; |1575| 
         0013fa 90   
    3694 0013fb C96B          MOV AR1, port(*AR3(T0)) ; |1575| 
         0013fd 9A   
    3695                      .dwpsn  file "../c5535_bsl_revc/ezdsp5535_v1/c55xx_csl/src/csl_usb.c",line 1579,column 6,is_stmt
    3696 0013fe AB31          MOV *(#_usbRegisters), AR3 ; |1579| 
         001400 0000 
         001402 00-  
    3697 001403 A96B          MOV port(*AR3(T0)), AR1 ; |1579| 
         001405 99   
    3698 001406 EC0A          BCLR @#5, AR1 ; |1579| 
         001408 92   
    3699 001409 C96B          MOV AR1, port(*AR3(T0)) ; |1579| 
         00140b 9A   
    3700                      .dwpsn  file "../c5535_bsl_revc/ezdsp5535_v1/c55xx_csl/src/csl_usb.c",line 1582,column 6,is_stmt
    3701 00140c AB31          MOV *(#_usbRegisters), AR3 ; |1582| 
         00140e 0000 
         001410 00-  
    3702 001411 A96B          MOV port(*AR3(T0)), AR1 ; |1582| 
         001413 99   
    3703 001414 EC08          BCLR @#4, AR1 ; |1582| 
         001416 92   
    3704 001417 C96B          MOV AR1, port(*AR3(T0)) ; |1582| 
         001419 9A   
    3705                      .dwpsn  file "../c5535_bsl_revc/ezdsp5535_v1/c55xx_csl/src/csl_usb.c",line 1584,column 5,is_stmt
    3706 00141a 0600          B $C$L103 ; |1584| 
         00141c 71   
    3707                                                      ; branch occurs ; |1584| 
    3708 00141d       $C$L100:    
    3709                      .dwpsn  file "../c5535_bsl_revc/ezdsp5535_v1/c55xx_csl/src/csl_usb.c",line 1587,column 6,is_stmt
    3710 00141d AB31          MOV *(#_usbRegisters), AR3 ; |1587| 
         00141f 0000 
         001421 00-  
    3711 001422 A96B          MOV port(*AR3(T0)), AR1 ; |1587| 
         001424 99   
TMS320C55x Assembler PC v4.4.1 Tue Oct 02 02:33:44 2018

Tools Copyright (c) 1996-2012 Texas Instruments Incorporated
csl_usb.asm                                                          PAGE   95

    3712 001425 7DFF          AND #0xfff0, AR1, AC0 ; |1587| 
         001427 F009 
    3713 001429 C06B          MOV AC0, port(*AR3(T0)) ; |1587| 
         00142b 9A   
    3714                      .dwpsn  file "../c5535_bsl_revc/ezdsp5535_v1/c55xx_csl/src/csl_usb.c",line 1591,column 6,is_stmt
    3715 00142c AB31          MOV *(#_usbRegisters), AR3 ; |1591| 
         00142e 0000 
         001430 00-  
    3716 001431 A96B          MOV port(*AR3(T0)), AR1 ; |1591| 
         001433 99   
    3717 001434 7DFF          AND #0xfff0, AR1, AR2 ; |1591| 
         001436 F0A9 
    3718 001438 A910          MOV *SP(#8), AR1 ; |1591| 
    3719 00143a 180F          AND #0x000f, AR1, AR1 ; |1591| 
         00143c 99   
    3720 00143d 2AA9          OR AR2, AR1 ; |1591| 
    3721 00143f C96B          MOV AR1, port(*AR3(T0)) ; |1591| 
         001441 9A   
    3722                      .dwpsn  file "../c5535_bsl_revc/ezdsp5535_v1/c55xx_csl/src/csl_usb.c",line 1596,column 6,is_stmt
    3723 001442 7604          MOV #1046, T0 ; |1596| 
         001444 1648 
    3724 001446 AB31          MOV *(#_usbRegisters), AR3 ; |1596| 
         001448 0000 
         00144a 00-  
    3725 00144b A96B          MOV port(*AR3(T0)), AR1 ; |1596| 
         00144d 99   
    3726 00144e EC08          BCLR @#4, AR1 ; |1596| 
         001450 92   
    3727 001451 EC08          BSET @#4, AR1 ; |1596| 
         001453 90   
    3728 001454 C96B          MOV AR1, port(*AR3(T0)) ; |1596| 
         001456 9A   
    3729                      .dwpsn  file "../c5535_bsl_revc/ezdsp5535_v1/c55xx_csl/src/csl_usb.c",line 1600,column 6,is_stmt
    3730 001457 AB31          MOV *(#_usbRegisters), AR3 ; |1600| 
         001459 0000 
         00145b 00-  
    3731 00145c A96B          MOV port(*AR3(T0)), AR1 ; |1600| 
         00145e 99   
    3732 00145f EC0E          BCLR @#7, AR1 ; |1600| 
         001461 92   
    3733 001462 EC0E          BSET @#7, AR1 ; |1600| 
         001464 90   
    3734 001465 C96B          MOV AR1, port(*AR3(T0)) ; |1600| 
         001467 9A   
    3735                      .dwpsn  file "../c5535_bsl_revc/ezdsp5535_v1/c55xx_csl/src/csl_usb.c",line 1604,column 6,is_stmt
    3736 001468 AB31          MOV *(#_usbRegisters), AR3 ; |1604| 
         00146a 0000 
         00146c 00-  
    3737 00146d A96B          MOV port(*AR3(T0)), AR1 ; |1604| 
         00146f 99   
    3738 001470 EC0C          BCLR @#6, AR1 ; |1604| 
         001472 92   
    3739 001473 C96B          MOV AR1, port(*AR3(T0)) ; |1604| 
         001475 9A   
    3740                      .dwpsn  file "../c5535_bsl_revc/ezdsp5535_v1/c55xx_csl/src/csl_usb.c",line 1607,column 6,is_stmt
TMS320C55x Assembler PC v4.4.1 Tue Oct 02 02:33:44 2018

Tools Copyright (c) 1996-2012 Texas Instruments Incorporated
csl_usb.asm                                                          PAGE   96

    3741 001476 AB31          MOV *(#_usbRegisters), AR3 ; |1607| 
         001478 0000 
         00147a 00-  
    3742 00147b A96B          MOV port(*AR3(T0)), AR1 ; |1607| 
         00147d 99   
    3743 00147e EC0A          BCLR @#5, AR1 ; |1607| 
         001480 92   
    3744 001481 C96B          MOV AR1, port(*AR3(T0)) ; |1607| 
         001483 9A   
    3745                      .dwpsn  file "../c5535_bsl_revc/ezdsp5535_v1/c55xx_csl/src/csl_usb.c",line 1611,column 3,is_stmt
    3746 001484 4A08          B $C$L103 ; |1611| 
    3747                                                      ; branch occurs ; |1611| 
    3748 001486       $C$L101:    
    3749                      .dwpsn  file "../c5535_bsl_revc/ezdsp5535_v1/c55xx_csl/src/csl_usb.c",line 1614,column 4,is_stmt
    3750 001486 E604          MOV #-6, *SP(#2) ; |1614| 
         001488 FA   
    3751                      .dwpsn  file "../c5535_bsl_revc/ezdsp5535_v1/c55xx_csl/src/csl_usb.c",line 1616,column 2,is_stmt
    3752 001489 4A03          B $C$L103 ; |1616| 
    3753                                                      ; branch occurs ; |1616| 
    3754 00148b       $C$L102:    
    3755                      .dwpsn  file "../c5535_bsl_revc/ezdsp5535_v1/c55xx_csl/src/csl_usb.c",line 1619,column 3,is_stmt
    3756 00148b E604          MOV #-5, *SP(#2) ; |1619| 
         00148d FB   
    3757 00148e       $C$L103:    
    3758                      .dwpsn  file "../c5535_bsl_revc/ezdsp5535_v1/c55xx_csl/src/csl_usb.c",line 1623,column 2,is_stmt
    3759 00148e AB31          MOV *(#_usbRegisters), AR3 ; |1623| 
         001490 0000 
         001492 00-  
    3760 001493 7604          MOV #1038, T0 ; |1623| 
         001495 0E48 
    3761 001497 A912          MOV *SP(#9), AR1 ; |1623| 
    3762 001499 C96B          MOV AR1, port(*AR3(T0)) ; |1623| 
         00149b 9A   
    3763                      .dwpsn  file "../c5535_bsl_revc/ezdsp5535_v1/c55xx_csl/src/csl_usb.c",line 1625,column 2,is_stmt
    3764 00149c A404          MOV *SP(#2), T0 ; |1625| 
    3765                      .dwpsn  file "../c5535_bsl_revc/ezdsp5535_v1/c55xx_csl/src/csl_usb.c",line 1626,column 1,is_stmt
    3766 00149e 4E0B          AADD #11, SP
    3767                      .dwcfi  cfa_offset, 1
    3768              $C$DW$184       .dwtag  DW_TAG_TI_branch
    3769                      .dwattr $C$DW$184, DW_AT_low_pc(0x00)
    3770                      .dwattr $C$DW$184, DW_AT_TI_return
    3771 0014a0 4804          RET
    3772                                                      ; return occurs
    3773                      .dwattr $C$DW$176, DW_AT_TI_end_file("../c5535_bsl_revc/ezdsp5535_v1/c55xx_csl/src/csl_usb.c")
    3774                      .dwattr $C$DW$176, DW_AT_TI_end_line(0x65a)
    3775                      .dwattr $C$DW$176, DW_AT_TI_end_column(0x01)
    3776                      .dwendentry
    3777                      .dwendtag $C$DW$176
    3778              
    3779 0014a2               .sect   ".text"
    3780                      .align 4
    3781                      .global _USB_getEndptStall
    3782              
    3783              $C$DW$185       .dwtag  DW_TAG_subprogram, DW_AT_name("USB_getEndptStall")
    3784                      .dwattr $C$DW$185, DW_AT_low_pc(_USB_getEndptStall)
TMS320C55x Assembler PC v4.4.1 Tue Oct 02 02:33:44 2018

Tools Copyright (c) 1996-2012 Texas Instruments Incorporated
csl_usb.asm                                                          PAGE   97

    3785                      .dwattr $C$DW$185, DW_AT_high_pc(0x00)
    3786                      .dwattr $C$DW$185, DW_AT_TI_symbol_name("_USB_getEndptStall")
    3787                      .dwattr $C$DW$185, DW_AT_external
    3788                      .dwattr $C$DW$185, DW_AT_type(*$C$DW$T$88)
    3789                      .dwattr $C$DW$185, DW_AT_TI_begin_file("../c5535_bsl_revc/ezdsp5535_v1/c55xx_csl/src/csl_usb.c")
    3790                      .dwattr $C$DW$185, DW_AT_TI_begin_line(0x68e)
    3791                      .dwattr $C$DW$185, DW_AT_TI_begin_column(0x10)
    3792                      .dwattr $C$DW$185, DW_AT_TI_max_frame_size(0x0c)
    3793                      .dwpsn  file "../c5535_bsl_revc/ezdsp5535_v1/c55xx_csl/src/csl_usb.c",line 1680,column 1,is_stmt,addr
    3794              
    3795                      .dwfde $C$DW$CIE, _USB_getEndptStall
    3796              $C$DW$186       .dwtag  DW_TAG_formal_parameter, DW_AT_name("hEp")
    3797                      .dwattr $C$DW$186, DW_AT_TI_symbol_name("_hEp")
    3798                      .dwattr $C$DW$186, DW_AT_type(*$C$DW$T$102)
    3799                      .dwattr $C$DW$186, DW_AT_location[DW_OP_reg17]
    3800              $C$DW$187       .dwtag  DW_TAG_formal_parameter, DW_AT_name("status")
    3801                      .dwattr $C$DW$187, DW_AT_TI_symbol_name("_status")
    3802                      .dwattr $C$DW$187, DW_AT_type(*$C$DW$T$124)
    3803                      .dwattr $C$DW$187, DW_AT_location[DW_OP_reg19]
    3804              ;*******************************************************************************
    3805              ;* FUNCTION NAME: USB_getEndptStall                                            *
    3806              ;*                                                                             *
    3807              ;*   Function Uses Regs : AC0,AC0,AC1,AC1,T0,AR0,XAR0,AR1,XAR1,AR2,XAR2,AR3,   *
    3808              ;*                        XAR3,SP,CARRY,TC1,M40,SATA,SATD,RDM,FRCT,SMUL        *
    3809              ;*   Stack Frame        : Compact (No Frame Pointer, w/ debug)                 *
    3810              ;*   Total Frame Size   : 12 words                                             *
    3811              ;*                        (2 return address/alignment)                         *
    3812              ;*                        (10 local values)                                    *
    3813              ;*   Min System Stack   : 1 word                                               *
    3814              ;*******************************************************************************
    3815 0014a4       _USB_getEndptStall:
    3816                      .dwcfi  cfa_offset, 1
    3817                      .dwcfi  save_reg_to_mem, 91, -1
    3818 0014a4 4EF5          AADD #-11, SP
    3819                      .dwcfi  cfa_offset, 12
    3820              $C$DW$188       .dwtag  DW_TAG_variable, DW_AT_name("hEp")
    3821                      .dwattr $C$DW$188, DW_AT_TI_symbol_name("_hEp")
    3822                      .dwattr $C$DW$188, DW_AT_type(*$C$DW$T$102)
    3823                      .dwattr $C$DW$188, DW_AT_location[DW_OP_bregx 0x24 0]
    3824              $C$DW$189       .dwtag  DW_TAG_variable, DW_AT_name("status")
    3825                      .dwattr $C$DW$189, DW_AT_TI_symbol_name("_status")
    3826                      .dwattr $C$DW$189, DW_AT_type(*$C$DW$T$124)
    3827                      .dwattr $C$DW$189, DW_AT_location[DW_OP_bregx 0x24 2]
    3828              $C$DW$190       .dwtag  DW_TAG_variable, DW_AT_name("peps")
    3829                      .dwattr $C$DW$190, DW_AT_TI_symbol_name("_peps")
    3830                      .dwattr $C$DW$190, DW_AT_type(*$C$DW$T$147)
    3831                      .dwattr $C$DW$190, DW_AT_location[DW_OP_bregx 0x24 4]
    3832              $C$DW$191       .dwtag  DW_TAG_variable, DW_AT_name("fStalled")
    3833                      .dwattr $C$DW$191, DW_AT_TI_symbol_name("_fStalled")
    3834                      .dwattr $C$DW$191, DW_AT_type(*$C$DW$T$88)
    3835                      .dwattr $C$DW$191, DW_AT_location[DW_OP_bregx 0x24 6]
    3836              $C$DW$192       .dwtag  DW_TAG_variable, DW_AT_name("pContext")
    3837                      .dwattr $C$DW$192, DW_AT_TI_symbol_name("_pContext")
    3838                      .dwattr $C$DW$192, DW_AT_type(*$C$DW$T$142)
    3839                      .dwattr $C$DW$192, DW_AT_location[DW_OP_bregx 0x24 8]
TMS320C55x Assembler PC v4.4.1 Tue Oct 02 02:33:44 2018

Tools Copyright (c) 1996-2012 Texas Instruments Incorporated
csl_usb.asm                                                          PAGE   98

    3840 0014a6 EB04          MOV XAR1, dbl(*SP(#2))
         0014a8 95   
    3841 0014a9 EB00          MOV XAR0, dbl(*SP(#0))
         0014ab 85   
    3842                      .dwpsn  file "../c5535_bsl_revc/ezdsp5535_v1/c55xx_csl/src/csl_usb.c",line 1685,column 2,is_stmt
    3843 0014ac ED04          MOV dbl(*SP(#2)), XAR3
         0014ae BF   
    3844 0014af E661          MOV #0, *AR3 ; |1685| 
         0014b1 00   
    3845                      .dwpsn  file "../c5535_bsl_revc/ezdsp5535_v1/c55xx_csl/src/csl_usb.c",line 1686,column 2,is_stmt
    3846 0014b2 E60C          MOV #0, *SP(#6) ; |1686| 
         0014b4 00   
    3847                      .dwpsn  file "../c5535_bsl_revc/ezdsp5535_v1/c55xx_csl/src/csl_usb.c",line 1687,column 2,is_stmt
    3848 0014b5 3C00          MOV #0, AC0 ; |1687| 
    3849 0014b7 EB08          MOV AC0, dbl(*SP(#4))
         0014b9 08   
    3850                      .dwpsn  file "../c5535_bsl_revc/ezdsp5535_v1/c55xx_csl/src/csl_usb.c",line 1688,column 2,is_stmt
    3851 0014ba EC31          AMOV #_gUsbContext, XAR3 ; |1688| 
         0014bc BE00 
         0014be 0002-
    3852 0014c0 EB10          MOV XAR3, dbl(*SP(#8))
         0014c2 B5   
    3853                      .dwpsn  file "../c5535_bsl_revc/ezdsp5535_v1/c55xx_csl/src/csl_usb.c",line 1690,column 2,is_stmt
    3854 0014c3 ED00          MOV dbl(*SP(#0)), XAR3
         0014c5 BF   
    3855 0014c6 90B0          MOV XAR3, AC0
    3856 0014c8 0400          BCC $C$L105,AC0 == #0 ; |1690| 
         0014ca 4B   
    3857                                                      ; branchcc occurs ; |1690| 
    3858                      .dwpsn  file "../c5535_bsl_revc/ezdsp5535_v1/c55xx_csl/src/csl_usb.c",line 1692,column 3,is_stmt
    3859 0014cb A961          MOV *AR3, AR1 ; |1692| 
    3860 0014cd 2290          MOV AR1, AC0
    3861 0014cf ED10          MOV dbl(*SP(#8)), XAR3
         0014d1 BF   
    3862 0014d2 1005          SFTS AC0, #-2, AC0 ; |1692| 
         0014d4 3E   
    3863 0014d5 76E0          BFXTR #0xe000, AC0, AR2 ; |1692| 
         0014d7 00A0 
    3864 0014d9 249A          ADD AR1, AR2 ; |1692| 
    3865 0014db 7DFF          AND #0xfffffff8, AR2, AR2 ; |1692| 
         0014dd F8AA 
    3866 0014df ED6D          MOV dbl(*AR3(#98)), XAR3
         0014e1 BF00 
         0014e3 62   
    3867 0014e4 26A9          SUB AR2, AR1 ; |1692| 
    3868 0014e6 2291          MOV AR1, AC1
    3869 0014e8 1015          SFTS AC1, #1, AC0 ; |1692| 
         0014ea 01   
    3870 0014eb 1013          ADD AC1 << #4, AC0 ; |1692| 
         0014ed 04   
    3871 0014ee 900A          MOV AC0, XAR2
    3872              
    3873 0014f0 8E08          MOV XAR3, dbl(*SP(#4))
         0014f2 BB10 
         0014f4 B5A1 
TMS320C55x Assembler PC v4.4.1 Tue Oct 02 02:33:44 2018

Tools Copyright (c) 1996-2012 Texas Instruments Incorporated
csl_usb.asm                                                          PAGE   99

    3874              ||      AADD XAR2, XAR3 ; |1692| 
    3875              
    3876                      .dwpsn  file "../c5535_bsl_revc/ezdsp5535_v1/c55xx_csl/src/csl_usb.c",line 1694,column 3,is_stmt
    3877 0014f6 90B0          MOV XAR3, AC0
    3878 0014f8 0400          BCC $C$L104,AC0 == #0 ; |1694| 
         0014fa 13   
    3879                                                      ; branchcc occurs ; |1694| 
    3880                      .dwpsn  file "../c5535_bsl_revc/ezdsp5535_v1/c55xx_csl/src/csl_usb.c",line 1696,column 4,is_stmt
    3881              
    3882 0014fb ED61          MOV dbl(*AR3), AC1 ; |1696| 
         0014fd 18   
    3883 0014fe 3D80  ||      MOV #8, AC0 ; |1696| 
    3884              
    3885 001500 1218          CMPU AC1 >= AC0, TC1 ; |1696| 
         001502 04   
    3886 001503 0464          BCC $C$L106,TC1 ; |1696| 
         001505 16   
    3887                                                      ; branchcc occurs ; |1696| 
    3888                      .dwpsn  file "../c5535_bsl_revc/ezdsp5535_v1/c55xx_csl/src/csl_usb.c",line 1698,column 5,is_stmt
    3889 001506 A96D          MOV *AR3(#16), AR1 ; |1698| 
         001508 0010 
    3890 00150a C90C          MOV AR1, *SP(#6) ; |1698| 
    3891                      .dwpsn  file "../c5535_bsl_revc/ezdsp5535_v1/c55xx_csl/src/csl_usb.c",line 1700,column 3,is_stmt
    3892 00150c 4A0E          B $C$L106 ; |1700| 
    3893                                                      ; branch occurs ; |1700| 
    3894 00150e       $C$L104:    
    3895                      .dwpsn  file "../c5535_bsl_revc/ezdsp5535_v1/c55xx_csl/src/csl_usb.c",line 1703,column 4,is_stmt
    3896 00150e ED04          MOV dbl(*SP(#2)), XAR3
         001510 BF   
    3897 001511 E661          MOV #-6, *AR3 ; |1703| 
         001513 FA   
    3898                      .dwpsn  file "../c5535_bsl_revc/ezdsp5535_v1/c55xx_csl/src/csl_usb.c",line 1705,column 2,is_stmt
    3899 001514 4A06          B $C$L106 ; |1705| 
    3900                                                      ; branch occurs ; |1705| 
    3901 001516       $C$L105:    
    3902                      .dwpsn  file "../c5535_bsl_revc/ezdsp5535_v1/c55xx_csl/src/csl_usb.c",line 1708,column 3,is_stmt
    3903 001516 ED04          MOV dbl(*SP(#2)), XAR3
         001518 BF   
    3904 001519 E661          MOV #-5, *AR3 ; |1708| 
         00151b FB   
    3905 00151c       $C$L106:    
    3906                      .dwpsn  file "../c5535_bsl_revc/ezdsp5535_v1/c55xx_csl/src/csl_usb.c",line 1711,column 2,is_stmt
    3907 00151c A40C          MOV *SP(#6), T0 ; |1711| 
    3908                      .dwpsn  file "../c5535_bsl_revc/ezdsp5535_v1/c55xx_csl/src/csl_usb.c",line 1712,column 1,is_stmt
    3909 00151e 4E0B          AADD #11, SP
    3910                      .dwcfi  cfa_offset, 1
    3911              $C$DW$193       .dwtag  DW_TAG_TI_branch
    3912                      .dwattr $C$DW$193, DW_AT_low_pc(0x00)
    3913                      .dwattr $C$DW$193, DW_AT_TI_return
    3914 001520 4804          RET
    3915                                                      ; return occurs
    3916                      .dwattr $C$DW$185, DW_AT_TI_end_file("../c5535_bsl_revc/ezdsp5535_v1/c55xx_csl/src/csl_usb.c")
    3917                      .dwattr $C$DW$185, DW_AT_TI_end_line(0x6b0)
    3918                      .dwattr $C$DW$185, DW_AT_TI_end_column(0x01)
    3919                      .dwendentry
TMS320C55x Assembler PC v4.4.1 Tue Oct 02 02:33:44 2018

Tools Copyright (c) 1996-2012 Texas Instruments Incorporated
csl_usb.asm                                                          PAGE  100

    3920                      .dwendtag $C$DW$185
    3921              
    3922 001522               .sect   ".text"
    3923                      .align 4
    3924                      .global _USB_epNumToHandle
    3925              
    3926              $C$DW$194       .dwtag  DW_TAG_subprogram, DW_AT_name("USB_epNumToHandle")
    3927                      .dwattr $C$DW$194, DW_AT_low_pc(_USB_epNumToHandle)
    3928                      .dwattr $C$DW$194, DW_AT_high_pc(0x00)
    3929                      .dwattr $C$DW$194, DW_AT_TI_symbol_name("_USB_epNumToHandle")
    3930                      .dwattr $C$DW$194, DW_AT_external
    3931                      .dwattr $C$DW$194, DW_AT_type(*$C$DW$T$102)
    3932                      .dwattr $C$DW$194, DW_AT_TI_begin_file("../c5535_bsl_revc/ezdsp5535_v1/c55xx_csl/src/csl_usb.c")
    3933                      .dwattr $C$DW$194, DW_AT_TI_begin_line(0x6df)
    3934                      .dwattr $C$DW$194, DW_AT_TI_begin_column(0x0e)
    3935                      .dwattr $C$DW$194, DW_AT_TI_max_frame_size(0x08)
    3936                      .dwpsn  file "../c5535_bsl_revc/ezdsp5535_v1/c55xx_csl/src/csl_usb.c",line 1761,column 1,is_stmt,addr
    3937              
    3938                      .dwfde $C$DW$CIE, _USB_epNumToHandle
    3939              $C$DW$195       .dwtag  DW_TAG_formal_parameter, DW_AT_name("devNum")
    3940                      .dwattr $C$DW$195, DW_AT_TI_symbol_name("_devNum")
    3941                      .dwattr $C$DW$195, DW_AT_type(*$C$DW$T$68)
    3942                      .dwattr $C$DW$195, DW_AT_location[DW_OP_reg12]
    3943              $C$DW$196       .dwtag  DW_TAG_formal_parameter, DW_AT_name("endpt")
    3944                      .dwattr $C$DW$196, DW_AT_TI_symbol_name("_endpt")
    3945                      .dwattr $C$DW$196, DW_AT_type(*$C$DW$T$19)
    3946                      .dwattr $C$DW$196, DW_AT_location[DW_OP_reg13]
    3947              ;*******************************************************************************
    3948              ;* FUNCTION NAME: USB_epNumToHandle                                            *
    3949              ;*                                                                             *
    3950              ;*   Function Uses Regs : AC0,AC0,T0,T1,AR0,XAR0,AR1,AR2,XAR2,AR3,XAR3,SP,     *
    3951              ;*                        CARRY,TC1,M40,SATA,SATD,RDM,FRCT,SMUL                *
    3952              ;*   Stack Frame        : Compact (No Frame Pointer, w/ debug)                 *
    3953              ;*   Total Frame Size   : 8 words                                              *
    3954              ;*                        (1 return address/alignment)                         *
    3955              ;*                        (7 local values)                                     *
    3956              ;*   Min System Stack   : 1 word                                               *
    3957              ;*******************************************************************************
    3958 001524       _USB_epNumToHandle:
    3959                      .dwcfi  cfa_offset, 1
    3960                      .dwcfi  save_reg_to_mem, 91, -1
    3961 001524 4EF9          AADD #-7, SP
    3962                      .dwcfi  cfa_offset, 8
    3963              $C$DW$197       .dwtag  DW_TAG_variable, DW_AT_name("devNum")
    3964                      .dwattr $C$DW$197, DW_AT_TI_symbol_name("_devNum")
    3965                      .dwattr $C$DW$197, DW_AT_type(*$C$DW$T$68)
    3966                      .dwattr $C$DW$197, DW_AT_location[DW_OP_bregx 0x24 0]
    3967              $C$DW$198       .dwtag  DW_TAG_variable, DW_AT_name("endpt")
    3968                      .dwattr $C$DW$198, DW_AT_TI_symbol_name("_endpt")
    3969                      .dwattr $C$DW$198, DW_AT_type(*$C$DW$T$19)
    3970                      .dwattr $C$DW$198, DW_AT_location[DW_OP_bregx 0x24 1]
    3971              $C$DW$199       .dwtag  DW_TAG_variable, DW_AT_name("epHandle")
    3972                      .dwattr $C$DW$199, DW_AT_TI_symbol_name("_epHandle")
    3973                      .dwattr $C$DW$199, DW_AT_type(*$C$DW$T$102)
    3974                      .dwattr $C$DW$199, DW_AT_location[DW_OP_bregx 0x24 2]
TMS320C55x Assembler PC v4.4.1 Tue Oct 02 02:33:44 2018

Tools Copyright (c) 1996-2012 Texas Instruments Incorporated
csl_usb.asm                                                          PAGE  101

    3975              $C$DW$200       .dwtag  DW_TAG_variable, DW_AT_name("looper")
    3976                      .dwattr $C$DW$200, DW_AT_TI_symbol_name("_looper")
    3977                      .dwattr $C$DW$200, DW_AT_type(*$C$DW$T$19)
    3978                      .dwattr $C$DW$200, DW_AT_location[DW_OP_bregx 0x24 4]
    3979              $C$DW$201       .dwtag  DW_TAG_variable, DW_AT_name("epNum")
    3980                      .dwattr $C$DW$201, DW_AT_TI_symbol_name("_epNum")
    3981                      .dwattr $C$DW$201, DW_AT_type(*$C$DW$T$19)
    3982                      .dwattr $C$DW$201, DW_AT_location[DW_OP_bregx 0x24 5]
    3983              $C$DW$202       .dwtag  DW_TAG_variable, DW_AT_name("fValidEp")
    3984                      .dwattr $C$DW$202, DW_AT_TI_symbol_name("_fValidEp")
    3985                      .dwattr $C$DW$202, DW_AT_type(*$C$DW$T$81)
    3986                      .dwattr $C$DW$202, DW_AT_location[DW_OP_bregx 0x24 6]
    3987 001526 C502          MOV T1, *SP(#1) ; |1761| 
    3988 001528 C400          MOV T0, *SP(#0) ; |1761| 
    3989                      .dwpsn  file "../c5535_bsl_revc/ezdsp5535_v1/c55xx_csl/src/csl_usb.c",line 1767,column 2,is_stmt
    3990 00152a E60C          MOV #0, *SP(#6) ; |1767| 
         00152c 00   
    3991                      .dwpsn  file "../c5535_bsl_revc/ezdsp5535_v1/c55xx_csl/src/csl_usb.c",line 1768,column 2,is_stmt
    3992 00152d 3C00          MOV #0, AC0 ; |1768| 
    3993 00152f EB04          MOV AC0, dbl(*SP(#2))
         001531 08   
    3994                      .dwpsn  file "../c5535_bsl_revc/ezdsp5535_v1/c55xx_csl/src/csl_usb.c",line 1769,column 2,is_stmt
    3995 001532 E608          MOV #0, *SP(#4) ; |1769| 
         001534 00   
    3996                      .dwpsn  file "../c5535_bsl_revc/ezdsp5535_v1/c55xx_csl/src/csl_usb.c",line 1771,column 2,is_stmt
    3997 001535 DC02          BTST #7, *SP(#1), TC1 ; |1771| 
         001537 70   
    3998 001538 6D74          BCC $C$L119,!TC1 ; |1771| 
         00153a 008E 
    3999                                                      ; branchcc occurs ; |1771| 
    4000                      .dwpsn  file "../c5535_bsl_revc/ezdsp5535_v1/c55xx_csl/src/csl_usb.c",line 1773,column 3,is_stmt
    4001 00153c F402          AND #0xff7f, *SP(#1) ; |1773| 
         00153e FF7F 
    4002                      .dwpsn  file "../c5535_bsl_revc/ezdsp5535_v1/c55xx_csl/src/csl_usb.c",line 1775,column 3,is_stmt
    4003 001540 4A2D          B $C$L112 ; |1775| 
    4004                                                      ; branch occurs ; |1775| 
    4005 001542       $C$L107:    
    4006                      .dwpsn  file "../c5535_bsl_revc/ezdsp5535_v1/c55xx_csl/src/csl_usb.c",line 1778,column 5,is_stmt
    4007 001542 E60A          MOV #8, *SP(#5) ; |1778| 
         001544 08   
    4008                      .dwpsn  file "../c5535_bsl_revc/ezdsp5535_v1/c55xx_csl/src/csl_usb.c",line 1779,column 5,is_stmt
    4009 001545 E60C          MOV #1, *SP(#6) ; |1779| 
         001547 01   
    4010                      .dwpsn  file "../c5535_bsl_revc/ezdsp5535_v1/c55xx_csl/src/csl_usb.c",line 1780,column 10,is_stmt
    4011 001548 0600          B $C$L121 ; |1780| 
         00154a AC   
    4012                                                      ; branch occurs ; |1780| 
    4013 00154b       $C$L108:    
    4014                      .dwpsn  file "../c5535_bsl_revc/ezdsp5535_v1/c55xx_csl/src/csl_usb.c",line 1783,column 5,is_stmt
    4015 00154b E60A          MOV #9, *SP(#5) ; |1783| 
         00154d 09   
    4016                      .dwpsn  file "../c5535_bsl_revc/ezdsp5535_v1/c55xx_csl/src/csl_usb.c",line 1784,column 5,is_stmt
    4017 00154e E60C          MOV #1, *SP(#6) ; |1784| 
         001550 01   
    4018                      .dwpsn  file "../c5535_bsl_revc/ezdsp5535_v1/c55xx_csl/src/csl_usb.c",line 1785,column 10,is_stmt
TMS320C55x Assembler PC v4.4.1 Tue Oct 02 02:33:44 2018

Tools Copyright (c) 1996-2012 Texas Instruments Incorporated
csl_usb.asm                                                          PAGE  102

    4019 001551 0600          B $C$L121 ; |1785| 
         001553 A3   
    4020                                                      ; branch occurs ; |1785| 
    4021 001554       $C$L109:    
    4022                      .dwpsn  file "../c5535_bsl_revc/ezdsp5535_v1/c55xx_csl/src/csl_usb.c",line 1788,column 5,is_stmt
    4023 001554 E60A          MOV #10, *SP(#5) ; |1788| 
         001556 0A   
    4024                      .dwpsn  file "../c5535_bsl_revc/ezdsp5535_v1/c55xx_csl/src/csl_usb.c",line 1789,column 5,is_stmt
    4025 001557 E60C          MOV #1, *SP(#6) ; |1789| 
         001559 01   
    4026                      .dwpsn  file "../c5535_bsl_revc/ezdsp5535_v1/c55xx_csl/src/csl_usb.c",line 1790,column 10,is_stmt
    4027 00155a 0600          B $C$L121 ; |1790| 
         00155c 9A   
    4028                                                      ; branch occurs ; |1790| 
    4029 00155d       $C$L110:    
    4030                      .dwpsn  file "../c5535_bsl_revc/ezdsp5535_v1/c55xx_csl/src/csl_usb.c",line 1793,column 5,is_stmt
    4031 00155d E60A          MOV #11, *SP(#5) ; |1793| 
         00155f 0B   
    4032                      .dwpsn  file "../c5535_bsl_revc/ezdsp5535_v1/c55xx_csl/src/csl_usb.c",line 1794,column 5,is_stmt
    4033 001560 E60C          MOV #1, *SP(#6) ; |1794| 
         001562 01   
    4034                      .dwpsn  file "../c5535_bsl_revc/ezdsp5535_v1/c55xx_csl/src/csl_usb.c",line 1795,column 10,is_stmt
    4035 001563 0600          B $C$L121 ; |1795| 
         001565 91   
    4036                                                      ; branch occurs ; |1795| 
    4037 001566       $C$L111:    
    4038                      .dwpsn  file "../c5535_bsl_revc/ezdsp5535_v1/c55xx_csl/src/csl_usb.c",line 1798,column 5,is_stmt
    4039 001566 E60A          MOV #12, *SP(#5) ; |1798| 
         001568 0C   
    4040                      .dwpsn  file "../c5535_bsl_revc/ezdsp5535_v1/c55xx_csl/src/csl_usb.c",line 1799,column 5,is_stmt
    4041 001569 E60C          MOV #1, *SP(#6) ; |1799| 
         00156b 01   
    4042                      .dwpsn  file "../c5535_bsl_revc/ezdsp5535_v1/c55xx_csl/src/csl_usb.c",line 1800,column 10,is_stmt
    4043 00156c 0600          B $C$L121 ; |1800| 
         00156e 88   
    4044                                                      ; branch occurs ; |1800| 
    4045 00156f       $C$L112:    
    4046                      .dwpsn  file "../c5535_bsl_revc/ezdsp5535_v1/c55xx_csl/src/csl_usb.c",line 1775,column 3,is_stmt
    4047              
    4048 00156f A902          MOV *SP(#1), AR1 ; |1775| 
    4049 001571 3D2A  ||      MOV #2, AR2
    4050              
    4051 001573 12A4          CMP AR1 > AR2, TC1 ; |1775| 
         001575 90   
    4052 001576 0464          BCC $C$L113,TC1 ; |1775| 
         001578 14   
    4053                                                      ; branchcc occurs ; |1775| 
    4054 001579 1290          CMP AR1 == AR2, TC1 ; |1775| 
         00157b A0   
    4055 00157c 0464          BCC $C$L109,TC1 ; |1775| 
         00157e D5   
    4056                                                      ; branchcc occurs ; |1775| 
    4057 00157f 0409          BCC $C$L107,AR1 == #0 ; |1775| 
         001581 C0   
    4058                                                      ; branchcc occurs ; |1775| 
TMS320C55x Assembler PC v4.4.1 Tue Oct 02 02:33:44 2018

Tools Copyright (c) 1996-2012 Texas Instruments Incorporated
csl_usb.asm                                                          PAGE  103

    4059 001582 3C1A          MOV #1, AR2
    4060 001584 1290          CMPU AR1 == AR2, TC1 ; |1775| 
         001586 A4   
    4061 001587 0464          BCC $C$L108,TC1 ; |1775| 
         001589 C1   
    4062                                                      ; branchcc occurs ; |1775| 
    4063 00158a 0600          B $C$L121 ; |1775| 
         00158c 6A   
    4064                                                      ; branch occurs ; |1775| 
    4065 00158d       $C$L113:    
    4066 00158d 3C3A          MOV #3, AR2
    4067 00158f 1290          CMPU AR1 == AR2, TC1 ; |1775| 
         001591 A4   
    4068 001592 0464          BCC $C$L110,TC1 ; |1775| 
         001594 C8   
    4069                                                      ; branchcc occurs ; |1775| 
    4070 001595 3C4A          MOV #4, AR2
    4071 001597 1290          CMPU AR1 == AR2, TC1 ; |1775| 
         001599 A4   
    4072 00159a 0464          BCC $C$L111,TC1 ; |1775| 
         00159c C9   
    4073                                                      ; branchcc occurs ; |1775| 
    4074 00159d 0600          B $C$L121 ; |1775| 
         00159f 57   
    4075                                                      ; branch occurs ; |1775| 
    4076 0015a0       $C$L114:    
    4077                      .dwpsn  file "../c5535_bsl_revc/ezdsp5535_v1/c55xx_csl/src/csl_usb.c",line 1811,column 5,is_stmt
    4078 0015a0 E60A          MOV #0, *SP(#5) ; |1811| 
         0015a2 00   
    4079                      .dwpsn  file "../c5535_bsl_revc/ezdsp5535_v1/c55xx_csl/src/csl_usb.c",line 1812,column 5,is_stmt
    4080 0015a3 E60C          MOV #1, *SP(#6) ; |1812| 
         0015a5 01   
    4081                      .dwpsn  file "../c5535_bsl_revc/ezdsp5535_v1/c55xx_csl/src/csl_usb.c",line 1813,column 10,is_stmt
    4082 0015a6 0600          B $C$L121 ; |1813| 
         0015a8 4E   
    4083                                                      ; branch occurs ; |1813| 
    4084 0015a9       $C$L115:    
    4085                      .dwpsn  file "../c5535_bsl_revc/ezdsp5535_v1/c55xx_csl/src/csl_usb.c",line 1816,column 5,is_stmt
    4086 0015a9 E60A          MOV #1, *SP(#5) ; |1816| 
         0015ab 01   
    4087                      .dwpsn  file "../c5535_bsl_revc/ezdsp5535_v1/c55xx_csl/src/csl_usb.c",line 1817,column 5,is_stmt
    4088 0015ac E60C          MOV #1, *SP(#6) ; |1817| 
         0015ae 01   
    4089                      .dwpsn  file "../c5535_bsl_revc/ezdsp5535_v1/c55xx_csl/src/csl_usb.c",line 1818,column 10,is_stmt
    4090 0015af 0600          B $C$L121 ; |1818| 
         0015b1 45   
    4091                                                      ; branch occurs ; |1818| 
    4092 0015b2       $C$L116:    
    4093                      .dwpsn  file "../c5535_bsl_revc/ezdsp5535_v1/c55xx_csl/src/csl_usb.c",line 1821,column 5,is_stmt
    4094 0015b2 E60A          MOV #2, *SP(#5) ; |1821| 
         0015b4 02   
    4095                      .dwpsn  file "../c5535_bsl_revc/ezdsp5535_v1/c55xx_csl/src/csl_usb.c",line 1822,column 5,is_stmt
    4096 0015b5 E60C          MOV #1, *SP(#6) ; |1822| 
         0015b7 01   
    4097                      .dwpsn  file "../c5535_bsl_revc/ezdsp5535_v1/c55xx_csl/src/csl_usb.c",line 1823,column 10,is_stmt
TMS320C55x Assembler PC v4.4.1 Tue Oct 02 02:33:44 2018

Tools Copyright (c) 1996-2012 Texas Instruments Incorporated
csl_usb.asm                                                          PAGE  104

    4098 0015b8 4A3D          B $C$L121 ; |1823| 
    4099                                                      ; branch occurs ; |1823| 
    4100 0015ba       $C$L117:    
    4101                      .dwpsn  file "../c5535_bsl_revc/ezdsp5535_v1/c55xx_csl/src/csl_usb.c",line 1826,column 5,is_stmt
    4102 0015ba E60A          MOV #3, *SP(#5) ; |1826| 
         0015bc 03   
    4103                      .dwpsn  file "../c5535_bsl_revc/ezdsp5535_v1/c55xx_csl/src/csl_usb.c",line 1827,column 5,is_stmt
    4104 0015bd E60C          MOV #1, *SP(#6) ; |1827| 
         0015bf 01   
    4105                      .dwpsn  file "../c5535_bsl_revc/ezdsp5535_v1/c55xx_csl/src/csl_usb.c",line 1828,column 10,is_stmt
    4106 0015c0 4A35          B $C$L121 ; |1828| 
    4107                                                      ; branch occurs ; |1828| 
    4108 0015c2       $C$L118:    
    4109                      .dwpsn  file "../c5535_bsl_revc/ezdsp5535_v1/c55xx_csl/src/csl_usb.c",line 1831,column 5,is_stmt
    4110 0015c2 E60A          MOV #4, *SP(#5) ; |1831| 
         0015c4 04   
    4111                      .dwpsn  file "../c5535_bsl_revc/ezdsp5535_v1/c55xx_csl/src/csl_usb.c",line 1832,column 5,is_stmt
    4112 0015c5 E60C          MOV #1, *SP(#6) ; |1832| 
         0015c7 01   
    4113                      .dwpsn  file "../c5535_bsl_revc/ezdsp5535_v1/c55xx_csl/src/csl_usb.c",line 1833,column 10,is_stmt
    4114 0015c8 4A2D          B $C$L121 ; |1833| 
    4115                                                      ; branch occurs ; |1833| 
    4116 0015ca       $C$L119:    
    4117                      .dwpsn  file "../c5535_bsl_revc/ezdsp5535_v1/c55xx_csl/src/csl_usb.c",line 1808,column 3,is_stmt
    4118              
    4119 0015ca A902          MOV *SP(#1), AR1 ; |1808| 
    4120 0015cc 3D2A  ||      MOV #2, AR2
    4121              
    4122 0015ce 12A4          CMP AR1 > AR2, TC1 ; |1808| 
         0015d0 90   
    4123 0015d1 0464          BCC $C$L120,TC1 ; |1808| 
         0015d3 13   
    4124                                                      ; branchcc occurs ; |1808| 
    4125 0015d4 1290          CMP AR1 == AR2, TC1 ; |1808| 
         0015d6 A0   
    4126 0015d7 0464          BCC $C$L116,TC1 ; |1808| 
         0015d9 D8   
    4127                                                      ; branchcc occurs ; |1808| 
    4128 0015da 0409          BCC $C$L114,AR1 == #0 ; |1808| 
         0015dc C3   
    4129                                                      ; branchcc occurs ; |1808| 
    4130 0015dd 3C1A          MOV #1, AR2
    4131 0015df 1290          CMPU AR1 == AR2, TC1 ; |1808| 
         0015e1 A4   
    4132 0015e2 0464          BCC $C$L115,TC1 ; |1808| 
         0015e4 C4   
    4133                                                      ; branchcc occurs ; |1808| 
    4134 0015e5 4A10          B $C$L121 ; |1808| 
    4135                                                      ; branch occurs ; |1808| 
    4136 0015e7       $C$L120:    
    4137 0015e7 3C3A          MOV #3, AR2
    4138 0015e9 1290          CMPU AR1 == AR2, TC1 ; |1808| 
         0015eb A4   
    4139 0015ec 0464          BCC $C$L117,TC1 ; |1808| 
         0015ee CB   
TMS320C55x Assembler PC v4.4.1 Tue Oct 02 02:33:44 2018

Tools Copyright (c) 1996-2012 Texas Instruments Incorporated
csl_usb.asm                                                          PAGE  105

    4140                                                      ; branchcc occurs ; |1808| 
    4141 0015ef 3C4A          MOV #4, AR2
    4142 0015f1 1290          CMPU AR1 == AR2, TC1 ; |1808| 
         0015f3 A4   
    4143 0015f4 0464          BCC $C$L118,TC1 ; |1808| 
         0015f6 CB   
    4144                                                      ; branchcc occurs ; |1808| 
    4145 0015f7       $C$L121:    
    4146                      .dwpsn  file "../c5535_bsl_revc/ezdsp5535_v1/c55xx_csl/src/csl_usb.c",line 1840,column 2,is_stmt
    4147 0015f7 F00C          CMP *SP(#6) == #1, TC1 ; |1840| 
         0015f9 0001 
    4148 0015fb 64E4          BCC $C$L122,TC1 ; |1840| 
    4149                                                      ; branchcc occurs ; |1840| 
    4150                      .dwpsn  file "../c5535_bsl_revc/ezdsp5535_v1/c55xx_csl/src/csl_usb.c",line 1842,column 3,is_stmt
    4151 0015fd EC31          AMOV #0, XAR0 ; |1842| 
         0015ff 8E00 
         001601 0000 
    4152 001603 0600          B $C$L126 ; |1842| 
         001605 53   
    4153                                                      ; branch occurs ; |1842| 
    4154 001606       $C$L122:    
    4155                      .dwpsn  file "../c5535_bsl_revc/ezdsp5535_v1/c55xx_csl/src/csl_usb.c",line 1845,column 6,is_stmt
    4156 001606 E608          MOV #0, *SP(#4) ; |1845| 
         001608 00   
    4157                      .dwpsn  file "../c5535_bsl_revc/ezdsp5535_v1/c55xx_csl/src/csl_usb.c",line 1845,column 18,is_stmt
    4158              
    4159 001609 A908          MOV *SP(#4), AR1 ; |1845| 
    4160 00160b 3D8A  ||      MOV #8, AR2
    4161              
    4162 00160d 1298          CMPU AR1 >= AR2, TC1 ; |1845| 
         00160f A4   
    4163 001610 0464          BCC $C$L125,TC1 ; |1845| 
         001612 43   
    4164                                                      ; branchcc occurs ; |1845| 
    4165 001613       $C$L123:    
    4166 001613       $C$DW$L$_USB_epNumToHandle$35$B:
    4167                      .dwpsn  file "../c5535_bsl_revc/ezdsp5535_v1/c55xx_csl/src/csl_usb.c",line 1847,column 3,is_stmt
    4168 001613 DF08          MOV uns(*SP(#4)), AC0 ; |1847| 
         001615 05   
    4169 001616 5000          SFTL AC0, #1 ; |1847| 
    4170 001618 900A          MOV AC0, XAR2
    4171 00161a EC31          AMOV #_gUsbEpHandle, XAR3 ; |1847| 
         00161c BE00 
         00161e 01AE-
    4172 001620 14A1          AADD XAR2, XAR3 ; |1847| 
         001622 B0   
    4173 001623 ED61          MOV dbl(*AR3), XAR3
         001625 BF   
    4174 001626 AA0A          MOV *SP(#5), AR2 ; |1847| 
    4175 001628 A961          MOV *AR3, AR1 ; |1847| 
    4176 00162a 12AC          CMPU AR2 != AR1, TC1 ; |1847| 
         00162c 94   
    4177 00162d 0464          BCC $C$L124,TC1 ; |1847| 
         00162f 18   
    4178                                                      ; branchcc occurs ; |1847| 
TMS320C55x Assembler PC v4.4.1 Tue Oct 02 02:33:44 2018

Tools Copyright (c) 1996-2012 Texas Instruments Incorporated
csl_usb.asm                                                          PAGE  106

    4179 001630       $C$DW$L$_USB_epNumToHandle$35$E:
    4180                      .dwpsn  file "../c5535_bsl_revc/ezdsp5535_v1/c55xx_csl/src/csl_usb.c",line 1849,column 4,is_stmt
    4181 001630 DF08          MOV uns(*SP(#4)), AC0 ; |1849| 
         001632 05   
    4182 001633 5000          SFTL AC0, #1 ; |1849| 
    4183 001635 900A          MOV AC0, XAR2
    4184 001637 EC31          AMOV #_gUsbEpHandle, XAR3 ; |1849| 
         001639 BE00 
         00163b 01AE-
    4185 00163d 14A1          AADD XAR2, XAR3 ; |1849| 
         00163f B0   
    4186 001640 ED61          MOV dbl(*AR3), XAR3
         001642 BF   
    4187 001643 EB04          MOV XAR3, dbl(*SP(#2))
         001645 B5   
    4188                      .dwpsn  file "../c5535_bsl_revc/ezdsp5535_v1/c55xx_csl/src/csl_usb.c",line 1850,column 4,is_stmt
    4189 001646 4A0E          B $C$L125 ; |1850| 
    4190                                                      ; branch occurs ; |1850| 
    4191 001648       $C$L124:    
    4192 001648       $C$DW$L$_USB_epNumToHandle$37$B:
    4193                      .dwpsn  file "../c5535_bsl_revc/ezdsp5535_v1/c55xx_csl/src/csl_usb.c",line 1845,column 51,is_stmt
    4194 001648 F708          ADD #1, *SP(#4) ; |1845| 
         00164a 0001 
    4195                      .dwpsn  file "../c5535_bsl_revc/ezdsp5535_v1/c55xx_csl/src/csl_usb.c",line 1845,column 18,is_stmt
    4196              
    4197 00164c A908          MOV *SP(#4), AR1 ; |1845| 
    4198 00164e 3D8A  ||      MOV #8, AR2
    4199              
    4200 001650 1294          CMPU AR1 < AR2, TC1 ; |1845| 
         001652 A4   
    4201 001653 0464          BCC $C$L123,TC1 ; |1845| 
         001655 BD   
    4202                                                      ; branchcc occurs ; |1845| 
    4203 001656       $C$DW$L$_USB_epNumToHandle$37$E:
    4204 001656       $C$L125:    
    4205                      .dwpsn  file "../c5535_bsl_revc/ezdsp5535_v1/c55xx_csl/src/csl_usb.c",line 1854,column 2,is_stmt
    4206 001656 ED04          MOV dbl(*SP(#2)), XAR0
         001658 8F   
    4207 001659       $C$L126:    
    4208                      .dwpsn  file "../c5535_bsl_revc/ezdsp5535_v1/c55xx_csl/src/csl_usb.c",line 1855,column 1,is_stmt
    4209 001659 4E07          AADD #7, SP
    4210                      .dwcfi  cfa_offset, 1
    4211              $C$DW$203       .dwtag  DW_TAG_TI_branch
    4212                      .dwattr $C$DW$203, DW_AT_low_pc(0x00)
    4213                      .dwattr $C$DW$203, DW_AT_TI_return
    4214 00165b 4804          RET
    4215                                                      ; return occurs
    4216              
    4217              $C$DW$204       .dwtag  DW_TAG_TI_loop
    4218                      .dwattr $C$DW$204, DW_AT_name("F:\eZdsp-DBG-sim\tmp1\c55x-sim2\foo\Debug\csl_usb.asm:$C$L123:1:153847
    4219                      .dwattr $C$DW$204, DW_AT_TI_begin_file("../c5535_bsl_revc/ezdsp5535_v1/c55xx_csl/src/csl_usb.c")
    4220                      .dwattr $C$DW$204, DW_AT_TI_begin_line(0x735)
    4221                      .dwattr $C$DW$204, DW_AT_TI_end_line(0x73c)
    4222              $C$DW$205       .dwtag  DW_TAG_TI_loop_range
    4223                      .dwattr $C$DW$205, DW_AT_low_pc($C$DW$L$_USB_epNumToHandle$35$B)
TMS320C55x Assembler PC v4.4.1 Tue Oct 02 02:33:44 2018

Tools Copyright (c) 1996-2012 Texas Instruments Incorporated
csl_usb.asm                                                          PAGE  107

    4224                      .dwattr $C$DW$205, DW_AT_high_pc($C$DW$L$_USB_epNumToHandle$35$E)
    4225              $C$DW$206       .dwtag  DW_TAG_TI_loop_range
    4226                      .dwattr $C$DW$206, DW_AT_low_pc($C$DW$L$_USB_epNumToHandle$37$B)
    4227                      .dwattr $C$DW$206, DW_AT_high_pc($C$DW$L$_USB_epNumToHandle$37$E)
    4228                      .dwendtag $C$DW$204
    4229              
    4230                      .dwattr $C$DW$194, DW_AT_TI_end_file("../c5535_bsl_revc/ezdsp5535_v1/c55xx_csl/src/csl_usb.c")
    4231                      .dwattr $C$DW$194, DW_AT_TI_end_line(0x73f)
    4232                      .dwattr $C$DW$194, DW_AT_TI_end_column(0x01)
    4233                      .dwendentry
    4234                      .dwendtag $C$DW$194
    4235              
    4236 00165d               .sect   ".text"
    4237                      .align 4
    4238                      .global _USB_abortTransaction
    4239              
    4240              $C$DW$207       .dwtag  DW_TAG_subprogram, DW_AT_name("USB_abortTransaction")
    4241                      .dwattr $C$DW$207, DW_AT_low_pc(_USB_abortTransaction)
    4242                      .dwattr $C$DW$207, DW_AT_high_pc(0x00)
    4243                      .dwattr $C$DW$207, DW_AT_TI_symbol_name("_USB_abortTransaction")
    4244                      .dwattr $C$DW$207, DW_AT_external
    4245                      .dwattr $C$DW$207, DW_AT_type(*$C$DW$T$75)
    4246                      .dwattr $C$DW$207, DW_AT_TI_begin_file("../c5535_bsl_revc/ezdsp5535_v1/c55xx_csl/src/csl_usb.c")
    4247                      .dwattr $C$DW$207, DW_AT_TI_begin_line(0x769)
    4248                      .dwattr $C$DW$207, DW_AT_TI_begin_column(0x0c)
    4249                      .dwattr $C$DW$207, DW_AT_TI_max_frame_size(0x0a)
    4250                      .dwpsn  file "../c5535_bsl_revc/ezdsp5535_v1/c55xx_csl/src/csl_usb.c",line 1898,column 1,is_stmt,addr
    4251              
    4252                      .dwfde $C$DW$CIE, _USB_abortTransaction
    4253              $C$DW$208       .dwtag  DW_TAG_formal_parameter, DW_AT_name("hEp")
    4254                      .dwattr $C$DW$208, DW_AT_TI_symbol_name("_hEp")
    4255                      .dwattr $C$DW$208, DW_AT_type(*$C$DW$T$102)
    4256                      .dwattr $C$DW$208, DW_AT_location[DW_OP_reg17]
    4257              ;*******************************************************************************
    4258              ;* FUNCTION NAME: USB_abortTransaction                                         *
    4259              ;*                                                                             *
    4260              ;*   Function Uses Regs : AC0,AC0,AC1,AC1,T0,AR0,XAR0,AR1,AR2,XAR2,AR3,XAR3,SP,*
    4261              ;*                        CARRY,TC1,M40,SATA,SATD,RDM,FRCT,SMUL                *
    4262              ;*   Stack Frame        : Compact (No Frame Pointer, w/ debug)                 *
    4263              ;*   Total Frame Size   : 10 words                                             *
    4264              ;*                        (1 return address/alignment)                         *
    4265              ;*                        (9 local values)                                     *
    4266              ;*   Min System Stack   : 1 word                                               *
    4267              ;*******************************************************************************
    4268 001660       _USB_abortTransaction:
    4269                      .dwcfi  cfa_offset, 1
    4270                      .dwcfi  save_reg_to_mem, 91, -1
    4271 001660 4EF7          AADD #-9, SP
    4272                      .dwcfi  cfa_offset, 10
    4273              $C$DW$209       .dwtag  DW_TAG_variable, DW_AT_name("hEp")
    4274                      .dwattr $C$DW$209, DW_AT_TI_symbol_name("_hEp")
    4275                      .dwattr $C$DW$209, DW_AT_type(*$C$DW$T$102)
    4276                      .dwattr $C$DW$209, DW_AT_location[DW_OP_bregx 0x24 0]
    4277              $C$DW$210       .dwtag  DW_TAG_variable, DW_AT_name("peps")
    4278                      .dwattr $C$DW$210, DW_AT_TI_symbol_name("_peps")
TMS320C55x Assembler PC v4.4.1 Tue Oct 02 02:33:44 2018

Tools Copyright (c) 1996-2012 Texas Instruments Incorporated
csl_usb.asm                                                          PAGE  108

    4279                      .dwattr $C$DW$210, DW_AT_type(*$C$DW$T$147)
    4280                      .dwattr $C$DW$210, DW_AT_location[DW_OP_bregx 0x24 2]
    4281              $C$DW$211       .dwtag  DW_TAG_variable, DW_AT_name("status")
    4282                      .dwattr $C$DW$211, DW_AT_TI_symbol_name("_status")
    4283                      .dwattr $C$DW$211, DW_AT_type(*$C$DW$T$75)
    4284                      .dwattr $C$DW$211, DW_AT_location[DW_OP_bregx 0x24 4]
    4285              $C$DW$212       .dwtag  DW_TAG_variable, DW_AT_name("saveIndex")
    4286                      .dwattr $C$DW$212, DW_AT_TI_symbol_name("_saveIndex")
    4287                      .dwattr $C$DW$212, DW_AT_type(*$C$DW$T$19)
    4288                      .dwattr $C$DW$212, DW_AT_location[DW_OP_bregx 0x24 5]
    4289              $C$DW$213       .dwtag  DW_TAG_variable, DW_AT_name("pContext")
    4290                      .dwattr $C$DW$213, DW_AT_TI_symbol_name("_pContext")
    4291                      .dwattr $C$DW$213, DW_AT_type(*$C$DW$T$142)
    4292                      .dwattr $C$DW$213, DW_AT_location[DW_OP_bregx 0x24 6]
    4293              $C$DW$214       .dwtag  DW_TAG_variable, DW_AT_name("tempVal")
    4294                      .dwattr $C$DW$214, DW_AT_TI_symbol_name("_tempVal")
    4295                      .dwattr $C$DW$214, DW_AT_type(*$C$DW$T$19)
    4296                      .dwattr $C$DW$214, DW_AT_location[DW_OP_bregx 0x24 8]
    4297 001662 EB00          MOV XAR0, dbl(*SP(#0))
         001664 85   
    4298                      .dwpsn  file "../c5535_bsl_revc/ezdsp5535_v1/c55xx_csl/src/csl_usb.c",line 1905,column 2,is_stmt
    4299 001665 E608          MOV #0, *SP(#4) ; |1905| 
         001667 00   
    4300                      .dwpsn  file "../c5535_bsl_revc/ezdsp5535_v1/c55xx_csl/src/csl_usb.c",line 1906,column 2,is_stmt
    4301 001668 3C00          MOV #0, AC0 ; |1906| 
    4302 00166a EB04          MOV AC0, dbl(*SP(#2))
         00166c 08   
    4303                      .dwpsn  file "../c5535_bsl_revc/ezdsp5535_v1/c55xx_csl/src/csl_usb.c",line 1907,column 2,is_stmt
    4304 00166d EC31          AMOV #_gUsbContext, XAR3 ; |1907| 
         00166f BE00 
         001671 0002-
    4305 001673 EB0C          MOV XAR3, dbl(*SP(#6))
         001675 B5   
    4306                      .dwpsn  file "../c5535_bsl_revc/ezdsp5535_v1/c55xx_csl/src/csl_usb.c",line 1909,column 2,is_stmt
    4307 001676 ED00          MOV dbl(*SP(#0)), XAR3
         001678 BF   
    4308 001679 90B0          MOV XAR3, AC0
    4309 00167b 6D00          BCC $C$L132,AC0 == #0 ; |1909| 
         00167d 0134 
    4310                                                      ; branchcc occurs ; |1909| 
    4311                      .dwpsn  file "../c5535_bsl_revc/ezdsp5535_v1/c55xx_csl/src/csl_usb.c",line 1911,column 3,is_stmt
    4312 00167f A961          MOV *AR3, AR1 ; |1911| 
    4313 001681 2290          MOV AR1, AC0
    4314 001683 ED0C          MOV dbl(*SP(#6)), XAR3
         001685 BF   
    4315 001686 1005          SFTS AC0, #-2, AC0 ; |1911| 
         001688 3E   
    4316 001689 76E0          BFXTR #0xe000, AC0, AR2 ; |1911| 
         00168b 00A0 
    4317 00168d 249A          ADD AR1, AR2 ; |1911| 
    4318 00168f 7DFF          AND #0xfffffff8, AR2, AR2 ; |1911| 
         001691 F8AA 
    4319 001693 ED6D          MOV dbl(*AR3(#98)), XAR3
         001695 BF00 
         001697 62   
TMS320C55x Assembler PC v4.4.1 Tue Oct 02 02:33:44 2018

Tools Copyright (c) 1996-2012 Texas Instruments Incorporated
csl_usb.asm                                                          PAGE  109

    4320 001698 26A9          SUB AR2, AR1 ; |1911| 
    4321 00169a 2291          MOV AR1, AC1
    4322 00169c 1015          SFTS AC1, #1, AC0 ; |1911| 
         00169e 01   
    4323 00169f 1013          ADD AC1 << #4, AC0 ; |1911| 
         0016a1 04   
    4324 0016a2 900A          MOV AC0, XAR2
    4325              
    4326 0016a4 8E04          MOV XAR3, dbl(*SP(#2))
         0016a6 BB10 
         0016a8 B5A1 
    4327              ||      AADD XAR2, XAR3 ; |1911| 
    4328              
    4329                      .dwpsn  file "../c5535_bsl_revc/ezdsp5535_v1/c55xx_csl/src/csl_usb.c",line 1913,column 3,is_stmt
    4330 0016aa 90B0          MOV XAR3, AC0
    4331 0016ac 6D00          BCC $C$L131,AC0 == #0 ; |1913| 
         0016ae 00FE 
    4332                                                      ; branchcc occurs ; |1913| 
    4333 0016b0 F07D          CMP *AR3(short(#6)) == #1, TC1 ; |1913| 
         0016b2 0001 
    4334 0016b4 6D74          BCC $C$L131,!TC1 ; |1913| 
         0016b6 00F6 
    4335                                                      ; branchcc occurs ; |1913| 
    4336                      .dwpsn  file "../c5535_bsl_revc/ezdsp5535_v1/c55xx_csl/src/csl_usb.c",line 1915,column 4,is_stmt
    4337 0016b8 ED6D          MOV dbl(*AR3(#10)), XAR3
         0016ba BF00 
         0016bc 0A   
    4338 0016bd 90B0          MOV XAR3, AC0
    4339 0016bf 0400          BCC $C$L127,AC0 == #0 ; |1915| 
         0016c1 17   
    4340                                                      ; branchcc occurs ; |1915| 
    4341                      .dwpsn  file "../c5535_bsl_revc/ezdsp5535_v1/c55xx_csl/src/csl_usb.c",line 1917,column 8,is_stmt
    4342 0016c2 ED04          MOV dbl(*SP(#2)), XAR3
         0016c4 BF   
    4343 0016c5 ED6D          MOV dbl(*AR3(#10)), XAR3
         0016c7 BF00 
         0016c9 0A   
    4344 0016ca E66D          MOV #1, *AR3(#12) ; |1917| 
         0016cc 0100 
         0016ce 0C   
    4345                      .dwpsn  file "../c5535_bsl_revc/ezdsp5535_v1/c55xx_csl/src/csl_usb.c",line 1918,column 5,is_stmt
    4346 0016cf ED04          MOV dbl(*SP(#2)), XAR3
         0016d1 BF   
    4347 0016d2 3C00          MOV #0, AC0 ; |1918| 
    4348 0016d4 EB6D          MOV AC0, dbl(*AR3(#10))
         0016d6 0800 
         0016d8 0A   
    4349 0016d9       $C$L127:    
    4350                      .dwpsn  file "../c5535_bsl_revc/ezdsp5535_v1/c55xx_csl/src/csl_usb.c",line 1922,column 4,is_stmt
    4351 0016d9 7604          MOV #1038, T0 ; |1922| 
         0016db 0E48 
    4352 0016dd AB31          MOV *(#_usbRegisters), AR3 ; |1922| 
         0016df 0000 
         0016e1 00-  
    4353 0016e2 A96B          MOV port(*AR3(T0)), AR1 ; |1922| 
TMS320C55x Assembler PC v4.4.1 Tue Oct 02 02:33:44 2018

Tools Copyright (c) 1996-2012 Texas Instruments Incorporated
csl_usb.asm                                                          PAGE  110

         0016e4 99   
    4354 0016e5 C90A          MOV AR1, *SP(#5) ; |1922| 
    4355                      .dwpsn  file "../c5535_bsl_revc/ezdsp5535_v1/c55xx_csl/src/csl_usb.c",line 1925,column 4,is_stmt
    4356 0016e7 A96B          MOV port(*AR3(T0)), AR1 ; |1925| 
         0016e9 99   
    4357 0016ea 7DFF          AND #0xfff0, AR1, AC0 ; |1925| 
         0016ec F009 
    4358 0016ee C06B          MOV AC0, port(*AR3(T0)) ; |1925| 
         0016f0 9A   
    4359                      .dwpsn  file "../c5535_bsl_revc/ezdsp5535_v1/c55xx_csl/src/csl_usb.c",line 1929,column 4,is_stmt
    4360 0016f1 ED04          MOV dbl(*SP(#2)), XAR3
         0016f3 BF   
    4361 0016f4 ED61          MOV dbl(*AR3), AC0 ; |1929| 
         0016f6 08   
    4362 0016f7 0410          BCC $C$L128,AC0 != #0 ; |1929| 
         0016f9 27   
    4363                                                      ; branchcc occurs ; |1929| 
    4364                      .dwpsn  file "../c5535_bsl_revc/ezdsp5535_v1/c55xx_csl/src/csl_usb.c",line 1932,column 5,is_stmt
    4365 0016fa AB31          MOV *(#_usbRegisters), AR3 ; |1932| 
         0016fc 0000 
         0016fe 00-  
    4366 0016ff A96B          MOV port(*AR3(T0)), AR1 ; |1932| 
         001701 99   
    4367 001702 7DFF          AND #0xfff0, AR1, AC0 ; |1932| 
         001704 F009 
    4368 001706 C06B          MOV AC0, port(*AR3(T0)) ; |1932| 
         001708 9A   
    4369                      .dwpsn  file "../c5535_bsl_revc/ezdsp5535_v1/c55xx_csl/src/csl_usb.c",line 1936,column 5,is_stmt
    4370 001709 7604          MOV #1042, T0 ; |1936| 
         00170b 1248 
    4371 00170d AB31          MOV *(#_usbRegisters), AR3 ; |1936| 
         00170f 0000 
         001711 00-  
    4372 001712 A96B          MOV port(*AR3(T0)), AR1 ; |1936| 
         001714 99   
    4373 001715 EC10          BCLR @#8, AR1 ; |1936| 
         001717 92   
    4374 001718 EC10          BSET @#8, AR1 ; |1936| 
         00171a 90   
    4375 00171b C96B          MOV AR1, port(*AR3(T0)) ; |1936| 
         00171d 9A   
    4376                      .dwpsn  file "../c5535_bsl_revc/ezdsp5535_v1/c55xx_csl/src/csl_usb.c",line 1938,column 4,is_stmt
    4377 00171e 0600          B $C$L130 ; |1938| 
         001720 7D   
    4378                                                      ; branch occurs ; |1938| 
    4379 001721       $C$L128:    
    4380                      .dwpsn  file "../c5535_bsl_revc/ezdsp5535_v1/c55xx_csl/src/csl_usb.c",line 1941,column 5,is_stmt
    4381 001721 ED00          MOV dbl(*SP(#0)), XAR3
         001723 BF   
    4382              
    4383 001724 A961          MOV *AR3, AR1 ; |1941| 
    4384 001726 3D8A  ||      MOV #8, AR2
    4385              
    4386 001728 12A8          CMP AR1 <= AR2, TC1 ; |1941| 
         00172a 90   
TMS320C55x Assembler PC v4.4.1 Tue Oct 02 02:33:44 2018

Tools Copyright (c) 1996-2012 Texas Instruments Incorporated
csl_usb.asm                                                          PAGE  111

    4387 00172b 0464          BCC $C$L129,TC1 ; |1941| 
         00172d 3C   
    4388                                                      ; branchcc occurs ; |1941| 
    4389                      .dwpsn  file "../c5535_bsl_revc/ezdsp5535_v1/c55xx_csl/src/csl_usb.c",line 1944,column 6,is_stmt
    4390 00172e AB31          MOV *(#_usbRegisters), AR3 ; |1944| 
         001730 0000 
         001732 00-  
    4391 001733 A96B          MOV port(*AR3(T0)), AR1 ; |1944| 
         001735 99   
    4392 001736 ED04          MOV dbl(*SP(#2)), XAR3
         001738 BF   
    4393 001739 ED61          MOV dbl(*AR3), AC0 ; |1944| 
         00173b 08   
    4394 00173c AB31          MOV *(#_usbRegisters), AR3 ; |1944| 
         00173e 0000 
         001740 00-  
    4395 001741 7DFF          AND #0xfff0, AR1, AC1 ; |1944| 
         001743 F019 
    4396 001745 180F          AND #0x000f, AC0, AC0 ; |1944| 
         001747 00   
    4397 001748 2A10          OR AC1, AC0 ; |1944| 
    4398 00174a C06B          MOV AC0, port(*AR3(T0)) ; |1944| 
         00174c 9A   
    4399                      .dwpsn  file "../c5535_bsl_revc/ezdsp5535_v1/c55xx_csl/src/csl_usb.c",line 1948,column 6,is_stmt
    4400 00174d 7604          MOV #1042, T0 ; |1948| 
         00174f 1248 
    4401 001751 AB31          MOV *(#_usbRegisters), AR3 ; |1948| 
         001753 0000 
         001755 00-  
    4402 001756 A96B          MOV port(*AR3(T0)), AR1 ; |1948| 
         001758 99   
    4403 001759 C910          MOV AR1, *SP(#8) ; |1948| 
    4404                      .dwpsn  file "../c5535_bsl_revc/ezdsp5535_v1/c55xx_csl/src/csl_usb.c",line 1950,column 6,is_stmt
    4405 00175b F510          OR #0x0008, *SP(#8) ; |1950| 
         00175d 0008 
    4406                      .dwpsn  file "../c5535_bsl_revc/ezdsp5535_v1/c55xx_csl/src/csl_usb.c",line 1951,column 6,is_stmt
    4407 00175f F410          AND #0xfffc, *SP(#8) ; |1951| 
         001761 FFFC 
    4408                      .dwpsn  file "../c5535_bsl_revc/ezdsp5535_v1/c55xx_csl/src/csl_usb.c",line 1953,column 6,is_stmt
    4409 001763 A910          MOV *SP(#8), AR1 ; |1953| 
    4410 001765 C96B          MOV AR1, port(*AR3(T0)) ; |1953| 
         001767 9A   
    4411                      .dwpsn  file "../c5535_bsl_revc/ezdsp5535_v1/c55xx_csl/src/csl_usb.c",line 1954,column 5,is_stmt
    4412 001768 4A34          B $C$L130 ; |1954| 
    4413                                                      ; branch occurs ; |1954| 
    4414 00176a       $C$L129:    
    4415                      .dwpsn  file "../c5535_bsl_revc/ezdsp5535_v1/c55xx_csl/src/csl_usb.c",line 1958,column 6,is_stmt
    4416 00176a AB31          MOV *(#_usbRegisters), AR3 ; |1958| 
         00176c 0000 
         00176e 00-  
    4417 00176f A96B          MOV port(*AR3(T0)), AR1 ; |1958| 
         001771 99   
    4418 001772 ED04          MOV dbl(*SP(#2)), XAR3
         001774 BF   
    4419 001775 ED61          MOV dbl(*AR3), AC0 ; |1958| 
TMS320C55x Assembler PC v4.4.1 Tue Oct 02 02:33:44 2018

Tools Copyright (c) 1996-2012 Texas Instruments Incorporated
csl_usb.asm                                                          PAGE  112

         001777 08   
    4420 001778 AB31          MOV *(#_usbRegisters), AR3 ; |1958| 
         00177a 0000 
         00177c 00-  
    4421 00177d 7DFF          AND #0xfff0, AR1, AC1 ; |1958| 
         00177f F019 
    4422 001781 180F          AND #0x000f, AC0, AC0 ; |1958| 
         001783 00   
    4423 001784 2A10          OR AC1, AC0 ; |1958| 
    4424 001786 C06B          MOV AC0, port(*AR3(T0)) ; |1958| 
         001788 9A   
    4425                      .dwpsn  file "../c5535_bsl_revc/ezdsp5535_v1/c55xx_csl/src/csl_usb.c",line 1962,column 6,is_stmt
    4426 001789 7604          MOV #1046, T0 ; |1962| 
         00178b 1648 
    4427 00178d AB31          MOV *(#_usbRegisters), AR3 ; |1962| 
         00178f 0000 
         001791 00-  
    4428 001792 A96B          MOV port(*AR3(T0)), AR1 ; |1962| 
         001794 99   
    4429 001795 EC08          BCLR @#4, AR1 ; |1962| 
         001797 92   
    4430 001798 EC08          BSET @#4, AR1 ; |1962| 
         00179a 90   
    4431 00179b C96B          MOV AR1, port(*AR3(T0)) ; |1962| 
         00179d 9A   
    4432 00179e       $C$L130:    
    4433                      .dwpsn  file "../c5535_bsl_revc/ezdsp5535_v1/c55xx_csl/src/csl_usb.c",line 1968,column 4,is_stmt
    4434 00179e AB31          MOV *(#_usbRegisters), AR3 ; |1968| 
         0017a0 0000 
         0017a2 00-  
    4435 0017a3 7604          MOV #1038, T0 ; |1968| 
         0017a5 0E48 
    4436 0017a7 A90A          MOV *SP(#5), AR1 ; |1968| 
    4437 0017a9 C96B          MOV AR1, port(*AR3(T0)) ; |1968| 
         0017ab 9A   
    4438                      .dwpsn  file "../c5535_bsl_revc/ezdsp5535_v1/c55xx_csl/src/csl_usb.c",line 1969,column 3,is_stmt
    4439 0017ac 4A08          B $C$L133 ; |1969| 
    4440                                                      ; branch occurs ; |1969| 
    4441 0017ae       $C$L131:    
    4442                      .dwpsn  file "../c5535_bsl_revc/ezdsp5535_v1/c55xx_csl/src/csl_usb.c",line 1972,column 4,is_stmt
    4443 0017ae E608          MOV #-6, *SP(#4) ; |1972| 
         0017b0 FA   
    4444                      .dwpsn  file "../c5535_bsl_revc/ezdsp5535_v1/c55xx_csl/src/csl_usb.c",line 1974,column 2,is_stmt
    4445 0017b1 4A03          B $C$L133 ; |1974| 
    4446                                                      ; branch occurs ; |1974| 
    4447 0017b3       $C$L132:    
    4448                      .dwpsn  file "../c5535_bsl_revc/ezdsp5535_v1/c55xx_csl/src/csl_usb.c",line 1977,column 3,is_stmt
    4449 0017b3 E608          MOV #-5, *SP(#4) ; |1977| 
         0017b5 FB   
    4450 0017b6       $C$L133:    
    4451                      .dwpsn  file "../c5535_bsl_revc/ezdsp5535_v1/c55xx_csl/src/csl_usb.c",line 1980,column 2,is_stmt
    4452 0017b6 A408          MOV *SP(#4), T0 ; |1980| 
    4453                      .dwpsn  file "../c5535_bsl_revc/ezdsp5535_v1/c55xx_csl/src/csl_usb.c",line 1981,column 1,is_stmt
    4454 0017b8 4E09          AADD #9, SP
    4455                      .dwcfi  cfa_offset, 1
TMS320C55x Assembler PC v4.4.1 Tue Oct 02 02:33:44 2018

Tools Copyright (c) 1996-2012 Texas Instruments Incorporated
csl_usb.asm                                                          PAGE  113

    4456              $C$DW$215       .dwtag  DW_TAG_TI_branch
    4457                      .dwattr $C$DW$215, DW_AT_low_pc(0x00)
    4458                      .dwattr $C$DW$215, DW_AT_TI_return
    4459 0017ba 4804          RET
    4460                                                      ; return occurs
    4461                      .dwattr $C$DW$207, DW_AT_TI_end_file("../c5535_bsl_revc/ezdsp5535_v1/c55xx_csl/src/csl_usb.c")
    4462                      .dwattr $C$DW$207, DW_AT_TI_end_line(0x7bd)
    4463                      .dwattr $C$DW$207, DW_AT_TI_end_column(0x01)
    4464                      .dwendentry
    4465                      .dwendtag $C$DW$207
    4466              
    4467 0017bc               .sect   ".text"
    4468                      .align 4
    4469                      .global _USB_abortAllTransaction
    4470              
    4471              $C$DW$216       .dwtag  DW_TAG_subprogram, DW_AT_name("USB_abortAllTransaction")
    4472                      .dwattr $C$DW$216, DW_AT_low_pc(_USB_abortAllTransaction)
    4473                      .dwattr $C$DW$216, DW_AT_high_pc(0x00)
    4474                      .dwattr $C$DW$216, DW_AT_TI_symbol_name("_USB_abortAllTransaction")
    4475                      .dwattr $C$DW$216, DW_AT_external
    4476                      .dwattr $C$DW$216, DW_AT_type(*$C$DW$T$75)
    4477                      .dwattr $C$DW$216, DW_AT_TI_begin_file("../c5535_bsl_revc/ezdsp5535_v1/c55xx_csl/src/csl_usb.c")
    4478                      .dwattr $C$DW$216, DW_AT_TI_begin_line(0x7e6)
    4479                      .dwattr $C$DW$216, DW_AT_TI_begin_column(0x0c)
    4480                      .dwattr $C$DW$216, DW_AT_TI_max_frame_size(0x08)
    4481                      .dwpsn  file "../c5535_bsl_revc/ezdsp5535_v1/c55xx_csl/src/csl_usb.c",line 2023,column 1,is_stmt,addr
    4482              
    4483                      .dwfde $C$DW$CIE, _USB_abortAllTransaction
    4484              $C$DW$217       .dwtag  DW_TAG_formal_parameter, DW_AT_name("devNum")
    4485                      .dwattr $C$DW$217, DW_AT_TI_symbol_name("_devNum")
    4486                      .dwattr $C$DW$217, DW_AT_type(*$C$DW$T$68)
    4487                      .dwattr $C$DW$217, DW_AT_location[DW_OP_reg12]
    4488              ;*******************************************************************************
    4489              ;* FUNCTION NAME: USB_abortAllTransaction                                      *
    4490              ;*                                                                             *
    4491              ;*   Function Uses Regs : AC0,AC0,T0,AR0,XAR0,AR1,AR2,XAR2,AR3,XAR3,SP,CARRY,  *
    4492              ;*                        TC1,M40,SATA,SATD,RDM,FRCT,SMUL                      *
    4493              ;*   Stack Frame        : Compact (No Frame Pointer, w/ debug)                 *
    4494              ;*   Total Frame Size   : 8 words                                              *
    4495              ;*                        (2 return address/alignment)                         *
    4496              ;*                        (6 local values)                                     *
    4497              ;*   Min System Stack   : 1 word                                               *
    4498              ;*******************************************************************************
    4499 0017bc       _USB_abortAllTransaction:
    4500                      .dwcfi  cfa_offset, 1
    4501                      .dwcfi  save_reg_to_mem, 91, -1
    4502 0017bc 4EF9          AADD #-7, SP
    4503                      .dwcfi  cfa_offset, 8
    4504              $C$DW$218       .dwtag  DW_TAG_variable, DW_AT_name("devNum")
    4505                      .dwattr $C$DW$218, DW_AT_TI_symbol_name("_devNum")
    4506                      .dwattr $C$DW$218, DW_AT_type(*$C$DW$T$68)
    4507                      .dwattr $C$DW$218, DW_AT_location[DW_OP_bregx 0x24 0]
    4508              $C$DW$219       .dwtag  DW_TAG_variable, DW_AT_name("epHandle")
    4509                      .dwattr $C$DW$219, DW_AT_TI_symbol_name("_epHandle")
    4510                      .dwattr $C$DW$219, DW_AT_type(*$C$DW$T$102)
TMS320C55x Assembler PC v4.4.1 Tue Oct 02 02:33:44 2018

Tools Copyright (c) 1996-2012 Texas Instruments Incorporated
csl_usb.asm                                                          PAGE  114

    4511                      .dwattr $C$DW$219, DW_AT_location[DW_OP_bregx 0x24 2]
    4512              $C$DW$220       .dwtag  DW_TAG_variable, DW_AT_name("status")
    4513                      .dwattr $C$DW$220, DW_AT_TI_symbol_name("_status")
    4514                      .dwattr $C$DW$220, DW_AT_type(*$C$DW$T$75)
    4515                      .dwattr $C$DW$220, DW_AT_location[DW_OP_bregx 0x24 4]
    4516              $C$DW$221       .dwtag  DW_TAG_variable, DW_AT_name("endPoint")
    4517                      .dwattr $C$DW$221, DW_AT_TI_symbol_name("_endPoint")
    4518                      .dwattr $C$DW$221, DW_AT_type(*$C$DW$T$19)
    4519                      .dwattr $C$DW$221, DW_AT_location[DW_OP_bregx 0x24 5]
    4520 0017be C400          MOV T0, *SP(#0) ; |2023| 
    4521                      .dwpsn  file "../c5535_bsl_revc/ezdsp5535_v1/c55xx_csl/src/csl_usb.c",line 2028,column 2,is_stmt
    4522 0017c0 E608          MOV #0, *SP(#4) ; |2028| 
         0017c2 00   
    4523                      .dwpsn  file "../c5535_bsl_revc/ezdsp5535_v1/c55xx_csl/src/csl_usb.c",line 2030,column 2,is_stmt
    4524 0017c3 A900          MOV *SP(#0), AR1 ; |2030| 
    4525 0017c5 6309          BCC $C$L134,AR1 == #0 ; |2030| 
    4526                                                      ; branchcc occurs ; |2030| 
    4527                      .dwpsn  file "../c5535_bsl_revc/ezdsp5535_v1/c55xx_csl/src/csl_usb.c",line 2032,column 3,is_stmt
    4528 0017c7 E608          MOV #-6, *SP(#4) ; |2032| 
         0017c9 FA   
    4529                      .dwpsn  file "../c5535_bsl_revc/ezdsp5535_v1/c55xx_csl/src/csl_usb.c",line 2033,column 2,is_stmt
    4530 0017ca 0600          B $C$L137 ; |2033| 
         0017cc 41   
    4531                                                      ; branch occurs ; |2033| 
    4532 0017cd       $C$L134:    
    4533                      .dwpsn  file "../c5535_bsl_revc/ezdsp5535_v1/c55xx_csl/src/csl_usb.c",line 2036,column 7,is_stmt
    4534 0017cd E60A          MOV #0, *SP(#5) ; |2036| 
         0017cf 00   
    4535                      .dwpsn  file "../c5535_bsl_revc/ezdsp5535_v1/c55xx_csl/src/csl_usb.c",line 2036,column 21,is_stmt
    4536              
    4537 0017d0 A90A          MOV *SP(#5), AR1 ; |2036| 
    4538 0017d2 3D8A  ||      MOV #8, AR2
    4539              
    4540 0017d4 1298          CMPU AR1 >= AR2, TC1 ; |2036| 
         0017d6 A4   
    4541 0017d7 0464          BCC $C$L137,TC1 ; |2036| 
         0017d9 34   
    4542                                                      ; branchcc occurs ; |2036| 
    4543 0017da       $C$L135:    
    4544 0017da       $C$DW$L$_USB_abortAllTransaction$4$B:
    4545                      .dwpsn  file "../c5535_bsl_revc/ezdsp5535_v1/c55xx_csl/src/csl_usb.c",line 2038,column 4,is_stmt
    4546 0017da DF0A          MOV uns(*SP(#5)), AC0 ; |2038| 
         0017dc 05   
    4547 0017dd 5000          SFTL AC0, #1 ; |2038| 
    4548 0017df 900A          MOV AC0, XAR2
    4549 0017e1 EC31          AMOV #_gUsbEpHandle, XAR3 ; |2038| 
         0017e3 BE00 
         0017e5 01AE-
    4550 0017e7 14A1          AADD XAR2, XAR3 ; |2038| 
         0017e9 B0   
    4551 0017ea ED61          MOV dbl(*AR3), XAR3
         0017ec BF   
    4552 0017ed EB04          MOV XAR3, dbl(*SP(#2))
         0017ef B5   
    4553                      .dwpsn  file "../c5535_bsl_revc/ezdsp5535_v1/c55xx_csl/src/csl_usb.c",line 2039,column 4,is_stmt
TMS320C55x Assembler PC v4.4.1 Tue Oct 02 02:33:44 2018

Tools Copyright (c) 1996-2012 Texas Instruments Incorporated
csl_usb.asm                                                          PAGE  115

    4554 0017f0 90B0          MOV XAR3, AC0
    4555 0017f2 6600          BCC $C$L136,AC0 == #0 ; |2039| 
    4556                                                      ; branchcc occurs ; |2039| 
    4557 0017f4       $C$DW$L$_USB_abortAllTransaction$4$E:
    4558 0017f4       $C$DW$L$_USB_abortAllTransaction$5$B:
    4559                      .dwpsn  file "../c5535_bsl_revc/ezdsp5535_v1/c55xx_csl/src/csl_usb.c",line 2041,column 5,is_stmt
    4560 0017f4 ED04          MOV dbl(*SP(#2)), XAR0
         0017f6 8F   
    4561              $C$DW$222       .dwtag  DW_TAG_TI_branch
    4562                      .dwattr $C$DW$222, DW_AT_low_pc(0x00)
    4563                      .dwattr $C$DW$222, DW_AT_name("_USB_abortTransaction")
    4564                      .dwattr $C$DW$222, DW_AT_TI_call
    4565 0017f7 08FE          CALL #_USB_abortTransaction ; |2041| 
         0017f9 66   
    4566                                                      ; call occurs [#_USB_abortTransaction] ; |2041| 
    4567 0017fa C408          MOV T0, *SP(#4) ; |2041| 
    4568                      .dwpsn  file "../c5535_bsl_revc/ezdsp5535_v1/c55xx_csl/src/csl_usb.c",line 2042,column 5,is_stmt
    4569 0017fc 2249          MOV T0, AR1
    4570 0017fe 6719          BCC $C$L137,AR1 != #0 ; |2042| 
    4571                                                      ; branchcc occurs ; |2042| 
    4572 001800       $C$DW$L$_USB_abortAllTransaction$5$E:
    4573 001800       $C$DW$L$_USB_abortAllTransaction$6$B:
    4574                      .dwpsn  file "../c5535_bsl_revc/ezdsp5535_v1/c55xx_csl/src/csl_usb.c",line 2044,column 6,is_stmt
    4575 001800       $C$DW$L$_USB_abortAllTransaction$6$E:
    4576 001800       $C$L136:    
    4577 001800       $C$DW$L$_USB_abortAllTransaction$7$B:
    4578                      .dwpsn  file "../c5535_bsl_revc/ezdsp5535_v1/c55xx_csl/src/csl_usb.c",line 2036,column 56,is_stmt
    4579 001800 F70A          ADD #1, *SP(#5) ; |2036| 
         001802 0001 
    4580                      .dwpsn  file "../c5535_bsl_revc/ezdsp5535_v1/c55xx_csl/src/csl_usb.c",line 2036,column 21,is_stmt
    4581              
    4582 001804 A90A          MOV *SP(#5), AR1 ; |2036| 
    4583 001806 3D8A  ||      MOV #8, AR2
    4584              
    4585 001808 1294          CMPU AR1 < AR2, TC1 ; |2036| 
         00180a A4   
    4586 00180b 0464          BCC $C$L135,TC1 ; |2036| 
         00180d CC   
    4587                                                      ; branchcc occurs ; |2036| 
    4588 00180e       $C$DW$L$_USB_abortAllTransaction$7$E:
    4589 00180e       $C$L137:    
    4590                      .dwpsn  file "../c5535_bsl_revc/ezdsp5535_v1/c55xx_csl/src/csl_usb.c",line 2050,column 2,is_stmt
    4591 00180e A408          MOV *SP(#4), T0 ; |2050| 
    4592                      .dwpsn  file "../c5535_bsl_revc/ezdsp5535_v1/c55xx_csl/src/csl_usb.c",line 2051,column 1,is_stmt
    4593 001810 4E07          AADD #7, SP
    4594                      .dwcfi  cfa_offset, 1
    4595              $C$DW$223       .dwtag  DW_TAG_TI_branch
    4596                      .dwattr $C$DW$223, DW_AT_low_pc(0x00)
    4597                      .dwattr $C$DW$223, DW_AT_TI_return
    4598 001812 4804          RET
    4599                                                      ; return occurs
    4600              
    4601              $C$DW$224       .dwtag  DW_TAG_TI_loop
    4602                      .dwattr $C$DW$224, DW_AT_name("F:\eZdsp-DBG-sim\tmp1\c55x-sim2\foo\Debug\csl_usb.asm:$C$L135:1:153847
    4603                      .dwattr $C$DW$224, DW_AT_TI_begin_file("../c5535_bsl_revc/ezdsp5535_v1/c55xx_csl/src/csl_usb.c")
TMS320C55x Assembler PC v4.4.1 Tue Oct 02 02:33:44 2018

Tools Copyright (c) 1996-2012 Texas Instruments Incorporated
csl_usb.asm                                                          PAGE  116

    4604                      .dwattr $C$DW$224, DW_AT_TI_begin_line(0x7f4)
    4605                      .dwattr $C$DW$224, DW_AT_TI_end_line(0x7ff)
    4606              $C$DW$225       .dwtag  DW_TAG_TI_loop_range
    4607                      .dwattr $C$DW$225, DW_AT_low_pc($C$DW$L$_USB_abortAllTransaction$4$B)
    4608                      .dwattr $C$DW$225, DW_AT_high_pc($C$DW$L$_USB_abortAllTransaction$4$E)
    4609              $C$DW$226       .dwtag  DW_TAG_TI_loop_range
    4610                      .dwattr $C$DW$226, DW_AT_low_pc($C$DW$L$_USB_abortAllTransaction$5$B)
    4611                      .dwattr $C$DW$226, DW_AT_high_pc($C$DW$L$_USB_abortAllTransaction$5$E)
    4612              $C$DW$227       .dwtag  DW_TAG_TI_loop_range
    4613                      .dwattr $C$DW$227, DW_AT_low_pc($C$DW$L$_USB_abortAllTransaction$6$B)
    4614                      .dwattr $C$DW$227, DW_AT_high_pc($C$DW$L$_USB_abortAllTransaction$6$E)
    4615              $C$DW$228       .dwtag  DW_TAG_TI_loop_range
    4616                      .dwattr $C$DW$228, DW_AT_low_pc($C$DW$L$_USB_abortAllTransaction$7$B)
    4617                      .dwattr $C$DW$228, DW_AT_high_pc($C$DW$L$_USB_abortAllTransaction$7$E)
    4618                      .dwendtag $C$DW$224
    4619              
    4620                      .dwattr $C$DW$216, DW_AT_TI_end_file("../c5535_bsl_revc/ezdsp5535_v1/c55xx_csl/src/csl_usb.c")
    4621                      .dwattr $C$DW$216, DW_AT_TI_end_line(0x803)
    4622                      .dwattr $C$DW$216, DW_AT_TI_end_column(0x01)
    4623                      .dwendentry
    4624                      .dwendtag $C$DW$216
    4625              
    4626 001814               .sect   ".text"
    4627                      .align 4
    4628                      .global _USB_connectDev
    4629              
    4630              $C$DW$229       .dwtag  DW_TAG_subprogram, DW_AT_name("USB_connectDev")
    4631                      .dwattr $C$DW$229, DW_AT_low_pc(_USB_connectDev)
    4632                      .dwattr $C$DW$229, DW_AT_high_pc(0x00)
    4633                      .dwattr $C$DW$229, DW_AT_TI_symbol_name("_USB_connectDev")
    4634                      .dwattr $C$DW$229, DW_AT_external
    4635                      .dwattr $C$DW$229, DW_AT_type(*$C$DW$T$75)
    4636                      .dwattr $C$DW$229, DW_AT_TI_begin_file("../c5535_bsl_revc/ezdsp5535_v1/c55xx_csl/src/csl_usb.c")
    4637                      .dwattr $C$DW$229, DW_AT_TI_begin_line(0x82c)
    4638                      .dwattr $C$DW$229, DW_AT_TI_begin_column(0x0c)
    4639                      .dwattr $C$DW$229, DW_AT_TI_max_frame_size(0x04)
    4640                      .dwpsn  file "../c5535_bsl_revc/ezdsp5535_v1/c55xx_csl/src/csl_usb.c",line 2093,column 1,is_stmt,addr
    4641              
    4642                      .dwfde $C$DW$CIE, _USB_connectDev
    4643              $C$DW$230       .dwtag  DW_TAG_formal_parameter, DW_AT_name("devNum")
    4644                      .dwattr $C$DW$230, DW_AT_TI_symbol_name("_devNum")
    4645                      .dwattr $C$DW$230, DW_AT_type(*$C$DW$T$68)
    4646                      .dwattr $C$DW$230, DW_AT_location[DW_OP_reg12]
    4647              ;*******************************************************************************
    4648              ;* FUNCTION NAME: USB_connectDev                                               *
    4649              ;*                                                                             *
    4650              ;*   Function Uses Regs : T0,AR1,AR3,SP,M40,SATA,SATD,RDM,FRCT,SMUL            *
    4651              ;*   Stack Frame        : Compact (No Frame Pointer, w/ debug)                 *
    4652              ;*   Total Frame Size   : 4 words                                              *
    4653              ;*                        (2 return address/alignment)                         *
    4654              ;*                        (2 local values)                                     *
    4655              ;*   Min System Stack   : 1 word                                               *
    4656              ;*******************************************************************************
    4657 001814       _USB_connectDev:
    4658                      .dwcfi  cfa_offset, 1
TMS320C55x Assembler PC v4.4.1 Tue Oct 02 02:33:44 2018

Tools Copyright (c) 1996-2012 Texas Instruments Incorporated
csl_usb.asm                                                          PAGE  117

    4659                      .dwcfi  save_reg_to_mem, 91, -1
    4660 001814 4EFD          AADD #-3, SP
    4661                      .dwcfi  cfa_offset, 4
    4662              $C$DW$231       .dwtag  DW_TAG_variable, DW_AT_name("devNum")
    4663                      .dwattr $C$DW$231, DW_AT_TI_symbol_name("_devNum")
    4664                      .dwattr $C$DW$231, DW_AT_type(*$C$DW$T$68)
    4665                      .dwattr $C$DW$231, DW_AT_location[DW_OP_bregx 0x24 0]
    4666              $C$DW$232       .dwtag  DW_TAG_variable, DW_AT_name("status")
    4667                      .dwattr $C$DW$232, DW_AT_TI_symbol_name("_status")
    4668                      .dwattr $C$DW$232, DW_AT_type(*$C$DW$T$75)
    4669                      .dwattr $C$DW$232, DW_AT_location[DW_OP_bregx 0x24 1]
    4670 001816 C400          MOV T0, *SP(#0) ; |2093| 
    4671                      .dwpsn  file "../c5535_bsl_revc/ezdsp5535_v1/c55xx_csl/src/csl_usb.c",line 2096,column 5,is_stmt
    4672 001818 E602          MOV #0, *SP(#1) ; |2096| 
         00181a 00   
    4673                      .dwpsn  file "../c5535_bsl_revc/ezdsp5535_v1/c55xx_csl/src/csl_usb.c",line 2098,column 5,is_stmt
    4674 00181b 4A1C          B $C$L140 ; |2098| 
    4675                                                      ; branch occurs ; |2098| 
    4676 00181d       $C$L138:    
    4677                      .dwpsn  file "../c5535_bsl_revc/ezdsp5535_v1/c55xx_csl/src/csl_usb.c",line 2101,column 4,is_stmt
    4678 00181d 7604          MOV #1025, T0 ; |2101| 
         00181f 0148 
    4679 001821 AB31          MOV *(#_usbRegisters), AR3 ; |2101| 
         001823 0000 
         001825 00-  
    4680 001826 A96B          MOV port(*AR3(T0)), AR1 ; |2101| 
         001828 99   
    4681 001829 EC1C          BCLR @#14, AR1 ; |2101| 
         00182b 92   
    4682 00182c EC1C          BSET @#14, AR1 ; |2101| 
         00182e 90   
    4683 00182f C96B          MOV AR1, port(*AR3(T0)) ; |2101| 
         001831 9A   
    4684                      .dwpsn  file "../c5535_bsl_revc/ezdsp5535_v1/c55xx_csl/src/csl_usb.c",line 2103,column 12,is_stmt
    4685 001832 4A0C          B $C$L141 ; |2103| 
    4686                                                      ; branch occurs ; |2103| 
    4687 001834       $C$L139:    
    4688                      .dwpsn  file "../c5535_bsl_revc/ezdsp5535_v1/c55xx_csl/src/csl_usb.c",line 2109,column 5,is_stmt
    4689 001834 E602          MOV #-6, *SP(#1) ; |2109| 
         001836 FA   
    4690                      .dwpsn  file "../c5535_bsl_revc/ezdsp5535_v1/c55xx_csl/src/csl_usb.c",line 2110,column 12,is_stmt
    4691 001837 4A07          B $C$L141 ; |2110| 
    4692                                                      ; branch occurs ; |2110| 
    4693 001839       $C$L140:    
    4694                      .dwpsn  file "../c5535_bsl_revc/ezdsp5535_v1/c55xx_csl/src/csl_usb.c",line 2098,column 5,is_stmt
    4695 001839 A900          MOV *SP(#0), AR1 ; |2098| 
    4696 00183b 0409          BCC $C$L138,AR1 == #0 ; |2098| 
         00183d DF   
    4697                                                      ; branchcc occurs ; |2098| 
    4698 00183e 4A74          B $C$L139 ; |2098| 
    4699                                                      ; branch occurs ; |2098| 
    4700 001840       $C$L141:    
    4701                      .dwpsn  file "../c5535_bsl_revc/ezdsp5535_v1/c55xx_csl/src/csl_usb.c",line 2113,column 2,is_stmt
    4702 001840 A402          MOV *SP(#1), T0 ; |2113| 
    4703                      .dwpsn  file "../c5535_bsl_revc/ezdsp5535_v1/c55xx_csl/src/csl_usb.c",line 2114,column 1,is_stmt
TMS320C55x Assembler PC v4.4.1 Tue Oct 02 02:33:44 2018

Tools Copyright (c) 1996-2012 Texas Instruments Incorporated
csl_usb.asm                                                          PAGE  118

    4704 001842 4E03          AADD #3, SP
    4705                      .dwcfi  cfa_offset, 1
    4706              $C$DW$233       .dwtag  DW_TAG_TI_branch
    4707                      .dwattr $C$DW$233, DW_AT_low_pc(0x00)
    4708                      .dwattr $C$DW$233, DW_AT_TI_return
    4709 001844 4804          RET
    4710                                                      ; return occurs
    4711                      .dwattr $C$DW$229, DW_AT_TI_end_file("../c5535_bsl_revc/ezdsp5535_v1/c55xx_csl/src/csl_usb.c")
    4712                      .dwattr $C$DW$229, DW_AT_TI_end_line(0x842)
    4713                      .dwattr $C$DW$229, DW_AT_TI_end_column(0x01)
    4714                      .dwendentry
    4715                      .dwendtag $C$DW$229
    4716              
    4717 001846               .sect   ".text"
    4718                      .align 4
    4719                      .global _USB_disconnectDev
    4720              
    4721              $C$DW$234       .dwtag  DW_TAG_subprogram, DW_AT_name("USB_disconnectDev")
    4722                      .dwattr $C$DW$234, DW_AT_low_pc(_USB_disconnectDev)
    4723                      .dwattr $C$DW$234, DW_AT_high_pc(0x00)
    4724                      .dwattr $C$DW$234, DW_AT_TI_symbol_name("_USB_disconnectDev")
    4725                      .dwattr $C$DW$234, DW_AT_external
    4726                      .dwattr $C$DW$234, DW_AT_type(*$C$DW$T$75)
    4727                      .dwattr $C$DW$234, DW_AT_TI_begin_file("../c5535_bsl_revc/ezdsp5535_v1/c55xx_csl/src/csl_usb.c")
    4728                      .dwattr $C$DW$234, DW_AT_TI_begin_line(0x867)
    4729                      .dwattr $C$DW$234, DW_AT_TI_begin_column(0x0c)
    4730                      .dwattr $C$DW$234, DW_AT_TI_max_frame_size(0x04)
    4731                      .dwpsn  file "../c5535_bsl_revc/ezdsp5535_v1/c55xx_csl/src/csl_usb.c",line 2152,column 1,is_stmt,addr
    4732              
    4733                      .dwfde $C$DW$CIE, _USB_disconnectDev
    4734              $C$DW$235       .dwtag  DW_TAG_formal_parameter, DW_AT_name("devNum")
    4735                      .dwattr $C$DW$235, DW_AT_TI_symbol_name("_devNum")
    4736                      .dwattr $C$DW$235, DW_AT_type(*$C$DW$T$68)
    4737                      .dwattr $C$DW$235, DW_AT_location[DW_OP_reg12]
    4738              ;*******************************************************************************
    4739              ;* FUNCTION NAME: USB_disconnectDev                                            *
    4740              ;*                                                                             *
    4741              ;*   Function Uses Regs : T0,AR1,AR3,SP,M40,SATA,SATD,RDM,FRCT,SMUL            *
    4742              ;*   Stack Frame        : Compact (No Frame Pointer, w/ debug)                 *
    4743              ;*   Total Frame Size   : 4 words                                              *
    4744              ;*                        (2 return address/alignment)                         *
    4745              ;*                        (2 local values)                                     *
    4746              ;*   Min System Stack   : 1 word                                               *
    4747              ;*******************************************************************************
    4748 001848       _USB_disconnectDev:
    4749                      .dwcfi  cfa_offset, 1
    4750                      .dwcfi  save_reg_to_mem, 91, -1
    4751 001848 4EFD          AADD #-3, SP
    4752                      .dwcfi  cfa_offset, 4
    4753              $C$DW$236       .dwtag  DW_TAG_variable, DW_AT_name("devNum")
    4754                      .dwattr $C$DW$236, DW_AT_TI_symbol_name("_devNum")
    4755                      .dwattr $C$DW$236, DW_AT_type(*$C$DW$T$68)
    4756                      .dwattr $C$DW$236, DW_AT_location[DW_OP_bregx 0x24 0]
    4757              $C$DW$237       .dwtag  DW_TAG_variable, DW_AT_name("status")
    4758                      .dwattr $C$DW$237, DW_AT_TI_symbol_name("_status")
TMS320C55x Assembler PC v4.4.1 Tue Oct 02 02:33:44 2018

Tools Copyright (c) 1996-2012 Texas Instruments Incorporated
csl_usb.asm                                                          PAGE  119

    4759                      .dwattr $C$DW$237, DW_AT_type(*$C$DW$T$75)
    4760                      .dwattr $C$DW$237, DW_AT_location[DW_OP_bregx 0x24 1]
    4761 00184a C400          MOV T0, *SP(#0) ; |2152| 
    4762                      .dwpsn  file "../c5535_bsl_revc/ezdsp5535_v1/c55xx_csl/src/csl_usb.c",line 2155,column 5,is_stmt
    4763 00184c E602          MOV #0, *SP(#1) ; |2155| 
         00184e 00   
    4764                      .dwpsn  file "../c5535_bsl_revc/ezdsp5535_v1/c55xx_csl/src/csl_usb.c",line 2157,column 5,is_stmt
    4765 00184f 4A19          B $C$L144 ; |2157| 
    4766                                                      ; branch occurs ; |2157| 
    4767 001851       $C$L142:    
    4768                      .dwpsn  file "../c5535_bsl_revc/ezdsp5535_v1/c55xx_csl/src/csl_usb.c",line 2160,column 4,is_stmt
    4769 001851 7604          MOV #1025, T0 ; |2160| 
         001853 0148 
    4770 001855 AB31          MOV *(#_usbRegisters), AR3 ; |2160| 
         001857 0000 
         001859 00-  
    4771 00185a A96B          MOV port(*AR3(T0)), AR1 ; |2160| 
         00185c 99   
    4772 00185d EC1C          BCLR @#14, AR1 ; |2160| 
         00185f 92   
    4773 001860 C96B          MOV AR1, port(*AR3(T0)) ; |2160| 
         001862 9A   
    4774                      .dwpsn  file "../c5535_bsl_revc/ezdsp5535_v1/c55xx_csl/src/csl_usb.c",line 2162,column 12,is_stmt
    4775 001863 4A0C          B $C$L145 ; |2162| 
    4776                                                      ; branch occurs ; |2162| 
    4777 001865       $C$L143:    
    4778                      .dwpsn  file "../c5535_bsl_revc/ezdsp5535_v1/c55xx_csl/src/csl_usb.c",line 2168,column 5,is_stmt
    4779 001865 E602          MOV #-6, *SP(#1) ; |2168| 
         001867 FA   
    4780                      .dwpsn  file "../c5535_bsl_revc/ezdsp5535_v1/c55xx_csl/src/csl_usb.c",line 2169,column 12,is_stmt
    4781 001868 4A07          B $C$L145 ; |2169| 
    4782                                                      ; branch occurs ; |2169| 
    4783 00186a       $C$L144:    
    4784                      .dwpsn  file "../c5535_bsl_revc/ezdsp5535_v1/c55xx_csl/src/csl_usb.c",line 2157,column 5,is_stmt
    4785 00186a A900          MOV *SP(#0), AR1 ; |2157| 
    4786 00186c 0409          BCC $C$L142,AR1 == #0 ; |2157| 
         00186e E2   
    4787                                                      ; branchcc occurs ; |2157| 
    4788 00186f 4A74          B $C$L143 ; |2157| 
    4789                                                      ; branch occurs ; |2157| 
    4790 001871       $C$L145:    
    4791                      .dwpsn  file "../c5535_bsl_revc/ezdsp5535_v1/c55xx_csl/src/csl_usb.c",line 2172,column 2,is_stmt
    4792 001871 A402          MOV *SP(#1), T0 ; |2172| 
    4793                      .dwpsn  file "../c5535_bsl_revc/ezdsp5535_v1/c55xx_csl/src/csl_usb.c",line 2173,column 1,is_stmt
    4794 001873 4E03          AADD #3, SP
    4795                      .dwcfi  cfa_offset, 1
    4796              $C$DW$238       .dwtag  DW_TAG_TI_branch
    4797                      .dwattr $C$DW$238, DW_AT_low_pc(0x00)
    4798                      .dwattr $C$DW$238, DW_AT_TI_return
    4799 001875 4804          RET
    4800                                                      ; return occurs
    4801                      .dwattr $C$DW$234, DW_AT_TI_end_file("../c5535_bsl_revc/ezdsp5535_v1/c55xx_csl/src/csl_usb.c")
    4802                      .dwattr $C$DW$234, DW_AT_TI_end_line(0x87d)
    4803                      .dwattr $C$DW$234, DW_AT_TI_end_column(0x01)
    4804                      .dwendentry
TMS320C55x Assembler PC v4.4.1 Tue Oct 02 02:33:44 2018

Tools Copyright (c) 1996-2012 Texas Instruments Incorporated
csl_usb.asm                                                          PAGE  120

    4805                      .dwendtag $C$DW$234
    4806              
    4807 001877               .sect   ".text"
    4808                      .align 4
    4809                      .global _USB_setRemoteWakeup
    4810              
    4811              $C$DW$239       .dwtag  DW_TAG_subprogram, DW_AT_name("USB_setRemoteWakeup")
    4812                      .dwattr $C$DW$239, DW_AT_low_pc(_USB_setRemoteWakeup)
    4813                      .dwattr $C$DW$239, DW_AT_high_pc(0x00)
    4814                      .dwattr $C$DW$239, DW_AT_TI_symbol_name("_USB_setRemoteWakeup")
    4815                      .dwattr $C$DW$239, DW_AT_external
    4816                      .dwattr $C$DW$239, DW_AT_type(*$C$DW$T$75)
    4817                      .dwattr $C$DW$239, DW_AT_TI_begin_file("../c5535_bsl_revc/ezdsp5535_v1/c55xx_csl/src/csl_usb.c")
    4818                      .dwattr $C$DW$239, DW_AT_TI_begin_line(0x8a7)
    4819                      .dwattr $C$DW$239, DW_AT_TI_begin_column(0x0c)
    4820                      .dwattr $C$DW$239, DW_AT_TI_max_frame_size(0x08)
    4821                      .dwpsn  file "../c5535_bsl_revc/ezdsp5535_v1/c55xx_csl/src/csl_usb.c",line 2217,column 1,is_stmt,addr
    4822              
    4823                      .dwfde $C$DW$CIE, _USB_setRemoteWakeup
    4824              $C$DW$240       .dwtag  DW_TAG_formal_parameter, DW_AT_name("devNum")
    4825                      .dwattr $C$DW$240, DW_AT_TI_symbol_name("_devNum")
    4826                      .dwattr $C$DW$240, DW_AT_type(*$C$DW$T$68)
    4827                      .dwattr $C$DW$240, DW_AT_location[DW_OP_reg12]
    4828              $C$DW$241       .dwtag  DW_TAG_formal_parameter, DW_AT_name("rmtWkpStat")
    4829                      .dwattr $C$DW$241, DW_AT_TI_symbol_name("_rmtWkpStat")
    4830                      .dwattr $C$DW$241, DW_AT_type(*$C$DW$T$88)
    4831                      .dwattr $C$DW$241, DW_AT_location[DW_OP_reg13]
    4832              ;*******************************************************************************
    4833              ;* FUNCTION NAME: USB_setRemoteWakeup                                          *
    4834              ;*                                                                             *
    4835              ;*   Function Uses Regs : T0,T1,AR1,AR3,XAR3,SP,M40,SATA,SATD,RDM,FRCT,SMUL    *
    4836              ;*   Stack Frame        : Compact (No Frame Pointer, w/ debug)                 *
    4837              ;*   Total Frame Size   : 8 words                                              *
    4838              ;*                        (2 return address/alignment)                         *
    4839              ;*                        (6 local values)                                     *
    4840              ;*   Min System Stack   : 1 word                                               *
    4841              ;*******************************************************************************
    4842 001878       _USB_setRemoteWakeup:
    4843                      .dwcfi  cfa_offset, 1
    4844                      .dwcfi  save_reg_to_mem, 91, -1
    4845 001878 4EF9          AADD #-7, SP
    4846                      .dwcfi  cfa_offset, 8
    4847              $C$DW$242       .dwtag  DW_TAG_variable, DW_AT_name("devNum")
    4848                      .dwattr $C$DW$242, DW_AT_TI_symbol_name("_devNum")
    4849                      .dwattr $C$DW$242, DW_AT_type(*$C$DW$T$68)
    4850                      .dwattr $C$DW$242, DW_AT_location[DW_OP_bregx 0x24 0]
    4851              $C$DW$243       .dwtag  DW_TAG_variable, DW_AT_name("rmtWkpStat")
    4852                      .dwattr $C$DW$243, DW_AT_TI_symbol_name("_rmtWkpStat")
    4853                      .dwattr $C$DW$243, DW_AT_type(*$C$DW$T$88)
    4854                      .dwattr $C$DW$243, DW_AT_location[DW_OP_bregx 0x24 1]
    4855              $C$DW$244       .dwtag  DW_TAG_variable, DW_AT_name("status")
    4856                      .dwattr $C$DW$244, DW_AT_TI_symbol_name("_status")
    4857                      .dwattr $C$DW$244, DW_AT_type(*$C$DW$T$75)
    4858                      .dwattr $C$DW$244, DW_AT_location[DW_OP_bregx 0x24 2]
    4859              $C$DW$245       .dwtag  DW_TAG_variable, DW_AT_name("pContext")
TMS320C55x Assembler PC v4.4.1 Tue Oct 02 02:33:44 2018

Tools Copyright (c) 1996-2012 Texas Instruments Incorporated
csl_usb.asm                                                          PAGE  121

    4860                      .dwattr $C$DW$245, DW_AT_TI_symbol_name("_pContext")
    4861                      .dwattr $C$DW$245, DW_AT_type(*$C$DW$T$142)
    4862                      .dwattr $C$DW$245, DW_AT_location[DW_OP_bregx 0x24 4]
    4863 00187a C502          MOV T1, *SP(#1) ; |2217| 
    4864 00187c C400          MOV T0, *SP(#0) ; |2217| 
    4865                      .dwpsn  file "../c5535_bsl_revc/ezdsp5535_v1/c55xx_csl/src/csl_usb.c",line 2221,column 5,is_stmt
    4866 00187e E604          MOV #0, *SP(#2) ; |2221| 
         001880 00   
    4867                      .dwpsn  file "../c5535_bsl_revc/ezdsp5535_v1/c55xx_csl/src/csl_usb.c",line 2222,column 5,is_stmt
    4868 001881 EC31          AMOV #_gUsbContext, XAR3 ; |2222| 
         001883 BE00 
         001885 0002-
    4869 001887 EB08          MOV XAR3, dbl(*SP(#4))
         001889 B5   
    4870                      .dwpsn  file "../c5535_bsl_revc/ezdsp5535_v1/c55xx_csl/src/csl_usb.c",line 2224,column 5,is_stmt
    4871 00188a 4A0D          B $C$L148 ; |2224| 
    4872                                                      ; branch occurs ; |2224| 
    4873 00188c       $C$L146:    
    4874                      .dwpsn  file "../c5535_bsl_revc/ezdsp5535_v1/c55xx_csl/src/csl_usb.c",line 2227,column 5,is_stmt
    4875 00188c A902          MOV *SP(#1), AR1 ; |2227| 
    4876 00188e C96D          MOV AR1, *AR3(#96) ; |2227| 
         001890 0060 
    4877                      .dwpsn  file "../c5535_bsl_revc/ezdsp5535_v1/c55xx_csl/src/csl_usb.c",line 2228,column 12,is_stmt
    4878 001892 4A0C          B $C$L149 ; |2228| 
    4879                                                      ; branch occurs ; |2228| 
    4880 001894       $C$L147:    
    4881                      .dwpsn  file "../c5535_bsl_revc/ezdsp5535_v1/c55xx_csl/src/csl_usb.c",line 2234,column 5,is_stmt
    4882 001894 E604          MOV #-6, *SP(#2) ; |2234| 
         001896 FA   
    4883                      .dwpsn  file "../c5535_bsl_revc/ezdsp5535_v1/c55xx_csl/src/csl_usb.c",line 2235,column 12,is_stmt
    4884 001897 4A07          B $C$L149 ; |2235| 
    4885                                                      ; branch occurs ; |2235| 
    4886 001899       $C$L148:    
    4887                      .dwpsn  file "../c5535_bsl_revc/ezdsp5535_v1/c55xx_csl/src/csl_usb.c",line 2224,column 5,is_stmt
    4888 001899 A900          MOV *SP(#0), AR1 ; |2224| 
    4889 00189b 0409          BCC $C$L146,AR1 == #0 ; |2224| 
         00189d EE   
    4890                                                      ; branchcc occurs ; |2224| 
    4891 00189e 4A74          B $C$L147 ; |2224| 
    4892                                                      ; branch occurs ; |2224| 
    4893 0018a0       $C$L149:    
    4894                      .dwpsn  file "../c5535_bsl_revc/ezdsp5535_v1/c55xx_csl/src/csl_usb.c",line 2238,column 2,is_stmt
    4895 0018a0 A404          MOV *SP(#2), T0 ; |2238| 
    4896                      .dwpsn  file "../c5535_bsl_revc/ezdsp5535_v1/c55xx_csl/src/csl_usb.c",line 2239,column 1,is_stmt
    4897 0018a2 4E07          AADD #7, SP
    4898                      .dwcfi  cfa_offset, 1
    4899              $C$DW$246       .dwtag  DW_TAG_TI_branch
    4900                      .dwattr $C$DW$246, DW_AT_low_pc(0x00)
    4901                      .dwattr $C$DW$246, DW_AT_TI_return
    4902 0018a4 4804          RET
    4903                                                      ; return occurs
    4904                      .dwattr $C$DW$239, DW_AT_TI_end_file("../c5535_bsl_revc/ezdsp5535_v1/c55xx_csl/src/csl_usb.c")
    4905                      .dwattr $C$DW$239, DW_AT_TI_end_line(0x8bf)
    4906                      .dwattr $C$DW$239, DW_AT_TI_end_column(0x01)
    4907                      .dwendentry
TMS320C55x Assembler PC v4.4.1 Tue Oct 02 02:33:44 2018

Tools Copyright (c) 1996-2012 Texas Instruments Incorporated
csl_usb.asm                                                          PAGE  122

    4908                      .dwendtag $C$DW$239
    4909              
    4910 0018a6               .sect   ".text"
    4911                      .align 4
    4912                      .global _USB_getRemoteWakeupStat
    4913              
    4914              $C$DW$247       .dwtag  DW_TAG_subprogram, DW_AT_name("USB_getRemoteWakeupStat")
    4915                      .dwattr $C$DW$247, DW_AT_low_pc(_USB_getRemoteWakeupStat)
    4916                      .dwattr $C$DW$247, DW_AT_high_pc(0x00)
    4917                      .dwattr $C$DW$247, DW_AT_TI_symbol_name("_USB_getRemoteWakeupStat")
    4918                      .dwattr $C$DW$247, DW_AT_external
    4919                      .dwattr $C$DW$247, DW_AT_type(*$C$DW$T$88)
    4920                      .dwattr $C$DW$247, DW_AT_TI_begin_file("../c5535_bsl_revc/ezdsp5535_v1/c55xx_csl/src/csl_usb.c")
    4921                      .dwattr $C$DW$247, DW_AT_TI_begin_line(0x8e7)
    4922                      .dwattr $C$DW$247, DW_AT_TI_begin_column(0x10)
    4923                      .dwattr $C$DW$247, DW_AT_TI_max_frame_size(0x06)
    4924                      .dwpsn  file "../c5535_bsl_revc/ezdsp5535_v1/c55xx_csl/src/csl_usb.c",line 2280,column 1,is_stmt,addr
    4925              
    4926                      .dwfde $C$DW$CIE, _USB_getRemoteWakeupStat
    4927              $C$DW$248       .dwtag  DW_TAG_formal_parameter, DW_AT_name("devNum")
    4928                      .dwattr $C$DW$248, DW_AT_TI_symbol_name("_devNum")
    4929                      .dwattr $C$DW$248, DW_AT_type(*$C$DW$T$68)
    4930                      .dwattr $C$DW$248, DW_AT_location[DW_OP_reg12]
    4931              ;*******************************************************************************
    4932              ;* FUNCTION NAME: USB_getRemoteWakeupStat                                      *
    4933              ;*                                                                             *
    4934              ;*   Function Uses Regs : T0,AR3,XAR3,SP,M40,SATA,SATD,RDM,FRCT,SMUL           *
    4935              ;*   Stack Frame        : Compact (No Frame Pointer, w/ debug)                 *
    4936              ;*   Total Frame Size   : 6 words                                              *
    4937              ;*                        (2 return address/alignment)                         *
    4938              ;*                        (4 local values)                                     *
    4939              ;*   Min System Stack   : 1 word                                               *
    4940              ;*******************************************************************************
    4941 0018a8       _USB_getRemoteWakeupStat:
    4942                      .dwcfi  cfa_offset, 1
    4943                      .dwcfi  save_reg_to_mem, 91, -1
    4944 0018a8 4EFB          AADD #-5, SP
    4945                      .dwcfi  cfa_offset, 6
    4946              $C$DW$249       .dwtag  DW_TAG_variable, DW_AT_name("devNum")
    4947                      .dwattr $C$DW$249, DW_AT_TI_symbol_name("_devNum")
    4948                      .dwattr $C$DW$249, DW_AT_type(*$C$DW$T$68)
    4949                      .dwattr $C$DW$249, DW_AT_location[DW_OP_bregx 0x24 0]
    4950              $C$DW$250       .dwtag  DW_TAG_variable, DW_AT_name("pContext")
    4951                      .dwattr $C$DW$250, DW_AT_TI_symbol_name("_pContext")
    4952                      .dwattr $C$DW$250, DW_AT_type(*$C$DW$T$142)
    4953                      .dwattr $C$DW$250, DW_AT_location[DW_OP_bregx 0x24 2]
    4954 0018aa C400          MOV T0, *SP(#0) ; |2280| 
    4955                      .dwpsn  file "../c5535_bsl_revc/ezdsp5535_v1/c55xx_csl/src/csl_usb.c",line 2283,column 2,is_stmt
    4956 0018ac EC31          AMOV #_gUsbContext, XAR3 ; |2283| 
         0018ae BE00 
         0018b0 0002-
    4957 0018b2 EB04          MOV XAR3, dbl(*SP(#2))
         0018b4 B5   
    4958                      .dwpsn  file "../c5535_bsl_revc/ezdsp5535_v1/c55xx_csl/src/csl_usb.c",line 2285,column 2,is_stmt
    4959 0018b5 A46D          MOV *AR3(#96), T0 ; |2285| 
TMS320C55x Assembler PC v4.4.1 Tue Oct 02 02:33:44 2018

Tools Copyright (c) 1996-2012 Texas Instruments Incorporated
csl_usb.asm                                                          PAGE  123

         0018b7 0060 
    4960                      .dwpsn  file "../c5535_bsl_revc/ezdsp5535_v1/c55xx_csl/src/csl_usb.c",line 2286,column 1,is_stmt
    4961 0018b9 4E05          AADD #5, SP
    4962                      .dwcfi  cfa_offset, 1
    4963              $C$DW$251       .dwtag  DW_TAG_TI_branch
    4964                      .dwattr $C$DW$251, DW_AT_low_pc(0x00)
    4965                      .dwattr $C$DW$251, DW_AT_TI_return
    4966 0018bb 4804          RET
    4967                                                      ; return occurs
    4968                      .dwattr $C$DW$247, DW_AT_TI_end_file("../c5535_bsl_revc/ezdsp5535_v1/c55xx_csl/src/csl_usb.c")
    4969                      .dwattr $C$DW$247, DW_AT_TI_end_line(0x8ee)
    4970                      .dwattr $C$DW$247, DW_AT_TI_end_column(0x01)
    4971                      .dwendentry
    4972                      .dwendtag $C$DW$247
    4973              
    4974 0018bd               .sect   ".text"
    4975                      .align 4
    4976                      .global _USB_issueRemoteWakeup
    4977              
    4978              $C$DW$252       .dwtag  DW_TAG_subprogram, DW_AT_name("USB_issueRemoteWakeup")
    4979                      .dwattr $C$DW$252, DW_AT_low_pc(_USB_issueRemoteWakeup)
    4980                      .dwattr $C$DW$252, DW_AT_high_pc(0x00)
    4981                      .dwattr $C$DW$252, DW_AT_TI_symbol_name("_USB_issueRemoteWakeup")
    4982                      .dwattr $C$DW$252, DW_AT_external
    4983                      .dwattr $C$DW$252, DW_AT_type(*$C$DW$T$75)
    4984                      .dwattr $C$DW$252, DW_AT_TI_begin_file("../c5535_bsl_revc/ezdsp5535_v1/c55xx_csl/src/csl_usb.c")
    4985                      .dwattr $C$DW$252, DW_AT_TI_begin_line(0x91b)
    4986                      .dwattr $C$DW$252, DW_AT_TI_begin_column(0x0c)
    4987                      .dwattr $C$DW$252, DW_AT_TI_max_frame_size(0x08)
    4988                      .dwpsn  file "../c5535_bsl_revc/ezdsp5535_v1/c55xx_csl/src/csl_usb.c",line 2333,column 1,is_stmt,addr
    4989              
    4990                      .dwfde $C$DW$CIE, _USB_issueRemoteWakeup
    4991              $C$DW$253       .dwtag  DW_TAG_formal_parameter, DW_AT_name("devNum")
    4992                      .dwattr $C$DW$253, DW_AT_TI_symbol_name("_devNum")
    4993                      .dwattr $C$DW$253, DW_AT_type(*$C$DW$T$68)
    4994                      .dwattr $C$DW$253, DW_AT_location[DW_OP_reg12]
    4995              $C$DW$254       .dwtag  DW_TAG_formal_parameter, DW_AT_name("resumeBitVal")
    4996                      .dwattr $C$DW$254, DW_AT_TI_symbol_name("_resumeBitVal")
    4997                      .dwattr $C$DW$254, DW_AT_type(*$C$DW$T$81)
    4998                      .dwattr $C$DW$254, DW_AT_location[DW_OP_reg13]
    4999              ;*******************************************************************************
    5000              ;* FUNCTION NAME: USB_issueRemoteWakeup                                        *
    5001              ;*                                                                             *
    5002              ;*   Function Uses Regs : AC0,T0,T1,AR1,AR2,AR3,XAR3,SP,TC1,M40,SATA,SATD,RDM, *
    5003              ;*                        FRCT,SMUL                                            *
    5004              ;*   Stack Frame        : Compact (No Frame Pointer, w/ debug)                 *
    5005              ;*   Total Frame Size   : 8 words                                              *
    5006              ;*                        (2 return address/alignment)                         *
    5007              ;*                        (6 local values)                                     *
    5008              ;*   Min System Stack   : 1 word                                               *
    5009              ;*******************************************************************************
    5010 0018c0       _USB_issueRemoteWakeup:
    5011                      .dwcfi  cfa_offset, 1
    5012                      .dwcfi  save_reg_to_mem, 91, -1
    5013 0018c0 4EF9          AADD #-7, SP
TMS320C55x Assembler PC v4.4.1 Tue Oct 02 02:33:44 2018

Tools Copyright (c) 1996-2012 Texas Instruments Incorporated
csl_usb.asm                                                          PAGE  124

    5014                      .dwcfi  cfa_offset, 8
    5015              $C$DW$255       .dwtag  DW_TAG_variable, DW_AT_name("devNum")
    5016                      .dwattr $C$DW$255, DW_AT_TI_symbol_name("_devNum")
    5017                      .dwattr $C$DW$255, DW_AT_type(*$C$DW$T$68)
    5018                      .dwattr $C$DW$255, DW_AT_location[DW_OP_bregx 0x24 0]
    5019              $C$DW$256       .dwtag  DW_TAG_variable, DW_AT_name("resumeBitVal")
    5020                      .dwattr $C$DW$256, DW_AT_TI_symbol_name("_resumeBitVal")
    5021                      .dwattr $C$DW$256, DW_AT_type(*$C$DW$T$81)
    5022                      .dwattr $C$DW$256, DW_AT_location[DW_OP_bregx 0x24 1]
    5023              $C$DW$257       .dwtag  DW_TAG_variable, DW_AT_name("status")
    5024                      .dwattr $C$DW$257, DW_AT_TI_symbol_name("_status")
    5025                      .dwattr $C$DW$257, DW_AT_type(*$C$DW$T$75)
    5026                      .dwattr $C$DW$257, DW_AT_location[DW_OP_bregx 0x24 2]
    5027              $C$DW$258       .dwtag  DW_TAG_variable, DW_AT_name("pContext")
    5028                      .dwattr $C$DW$258, DW_AT_TI_symbol_name("_pContext")
    5029                      .dwattr $C$DW$258, DW_AT_type(*$C$DW$T$142)
    5030                      .dwattr $C$DW$258, DW_AT_location[DW_OP_bregx 0x24 4]
    5031 0018c2 C502          MOV T1, *SP(#1) ; |2333| 
    5032 0018c4 C400          MOV T0, *SP(#0) ; |2333| 
    5033                      .dwpsn  file "../c5535_bsl_revc/ezdsp5535_v1/c55xx_csl/src/csl_usb.c",line 2337,column 5,is_stmt
    5034 0018c6 E604          MOV #0, *SP(#2) ; |2337| 
         0018c8 00   
    5035                      .dwpsn  file "../c5535_bsl_revc/ezdsp5535_v1/c55xx_csl/src/csl_usb.c",line 2338,column 5,is_stmt
    5036 0018c9 EC31          AMOV #_gUsbContext, XAR3 ; |2338| 
         0018cb BE00 
         0018cd 0002-
    5037 0018cf EB08          MOV XAR3, dbl(*SP(#4))
         0018d1 B5   
    5038                      .dwpsn  file "../c5535_bsl_revc/ezdsp5535_v1/c55xx_csl/src/csl_usb.c",line 2340,column 5,is_stmt
    5039 0018d2 4A2C          B $C$L152 ; |2340| 
    5040                                                      ; branch occurs ; |2340| 
    5041 0018d4       $C$L150:    
    5042                      .dwpsn  file "../c5535_bsl_revc/ezdsp5535_v1/c55xx_csl/src/csl_usb.c",line 2343,column 5,is_stmt
    5043 0018d4 F06D          CMP *AR3(#96) == #1, TC1 ; |2343| 
         0018d6 0001 
         0018d8 0060 
    5044 0018da 0474          BCC $C$L153,!TC1 ; |2343| 
         0018dc 2A   
    5045                                                      ; branchcc occurs ; |2343| 
    5046                      .dwpsn  file "../c5535_bsl_revc/ezdsp5535_v1/c55xx_csl/src/csl_usb.c",line 2346,column 5,is_stmt
    5047 0018dd 7604          MOV #1025, T0 ; |2346| 
         0018df 0148 
    5048 0018e1 AB31          MOV *(#_usbRegisters), AR3 ; |2346| 
         0018e3 0000 
         0018e5 00-  
    5049 0018e6 F902          MOV *SP(#1) << #10, AC0 ; |2346| 
         0018e8 0A08 
    5050 0018ea 7D04          AND #0x0400, AC0, AR1 ; |2346| 
         0018ec 0090 
    5051 0018ee AA6B          MOV port(*AR3(T0)), AR2 ; |2346| 
         0018f0 99   
    5052 0018f1 EC14          BCLR @#10, AR2 ; |2346| 
         0018f3 A2   
    5053 0018f4 2AA9          OR AR2, AR1 ; |2346| 
    5054 0018f6 C96B          MOV AR1, port(*AR3(T0)) ; |2346| 
TMS320C55x Assembler PC v4.4.1 Tue Oct 02 02:33:44 2018

Tools Copyright (c) 1996-2012 Texas Instruments Incorporated
csl_usb.asm                                                          PAGE  125

         0018f8 9A   
    5055                      .dwpsn  file "../c5535_bsl_revc/ezdsp5535_v1/c55xx_csl/src/csl_usb.c",line 2349,column 12,is_stmt
    5056 0018f9 4A0C          B $C$L153 ; |2349| 
    5057                                                      ; branch occurs ; |2349| 
    5058 0018fb       $C$L151:    
    5059                      .dwpsn  file "../c5535_bsl_revc/ezdsp5535_v1/c55xx_csl/src/csl_usb.c",line 2355,column 5,is_stmt
    5060 0018fb E604          MOV #-6, *SP(#2) ; |2355| 
         0018fd FA   
    5061                      .dwpsn  file "../c5535_bsl_revc/ezdsp5535_v1/c55xx_csl/src/csl_usb.c",line 2356,column 12,is_stmt
    5062 0018fe 4A07          B $C$L153 ; |2356| 
    5063                                                      ; branch occurs ; |2356| 
    5064 001900       $C$L152:    
    5065                      .dwpsn  file "../c5535_bsl_revc/ezdsp5535_v1/c55xx_csl/src/csl_usb.c",line 2340,column 5,is_stmt
    5066 001900 A900          MOV *SP(#0), AR1 ; |2340| 
    5067 001902 0409          BCC $C$L150,AR1 == #0 ; |2340| 
         001904 CF   
    5068                                                      ; branchcc occurs ; |2340| 
    5069 001905 4A74          B $C$L151 ; |2340| 
    5070                                                      ; branch occurs ; |2340| 
    5071 001907       $C$L153:    
    5072                      .dwpsn  file "../c5535_bsl_revc/ezdsp5535_v1/c55xx_csl/src/csl_usb.c",line 2359,column 2,is_stmt
    5073 001907 A404          MOV *SP(#2), T0 ; |2359| 
    5074                      .dwpsn  file "../c5535_bsl_revc/ezdsp5535_v1/c55xx_csl/src/csl_usb.c",line 2360,column 1,is_stmt
    5075 001909 4E07          AADD #7, SP
    5076                      .dwcfi  cfa_offset, 1
    5077              $C$DW$259       .dwtag  DW_TAG_TI_branch
    5078                      .dwattr $C$DW$259, DW_AT_low_pc(0x00)
    5079                      .dwattr $C$DW$259, DW_AT_TI_return
    5080 00190b 4804          RET
    5081                                                      ; return occurs
    5082                      .dwattr $C$DW$252, DW_AT_TI_end_file("../c5535_bsl_revc/ezdsp5535_v1/c55xx_csl/src/csl_usb.c")
    5083                      .dwattr $C$DW$252, DW_AT_TI_end_line(0x938)
    5084                      .dwattr $C$DW$252, DW_AT_TI_end_column(0x01)
    5085                      .dwendentry
    5086                      .dwendtag $C$DW$252
    5087              
    5088 00190d               .sect   ".text"
    5089                      .align 4
    5090                      .global _USB_setDevAddr
    5091              
    5092              $C$DW$260       .dwtag  DW_TAG_subprogram, DW_AT_name("USB_setDevAddr")
    5093                      .dwattr $C$DW$260, DW_AT_low_pc(_USB_setDevAddr)
    5094                      .dwattr $C$DW$260, DW_AT_high_pc(0x00)
    5095                      .dwattr $C$DW$260, DW_AT_TI_symbol_name("_USB_setDevAddr")
    5096                      .dwattr $C$DW$260, DW_AT_external
    5097                      .dwattr $C$DW$260, DW_AT_type(*$C$DW$T$75)
    5098                      .dwattr $C$DW$260, DW_AT_TI_begin_file("../c5535_bsl_revc/ezdsp5535_v1/c55xx_csl/src/csl_usb.c")
    5099                      .dwattr $C$DW$260, DW_AT_TI_begin_line(0x963)
    5100                      .dwattr $C$DW$260, DW_AT_TI_begin_column(0x0c)
    5101                      .dwattr $C$DW$260, DW_AT_TI_max_frame_size(0x04)
    5102                      .dwpsn  file "../c5535_bsl_revc/ezdsp5535_v1/c55xx_csl/src/csl_usb.c",line 2405,column 1,is_stmt,addr
    5103              
    5104                      .dwfde $C$DW$CIE, _USB_setDevAddr
    5105              $C$DW$261       .dwtag  DW_TAG_formal_parameter, DW_AT_name("devNum")
    5106                      .dwattr $C$DW$261, DW_AT_TI_symbol_name("_devNum")
TMS320C55x Assembler PC v4.4.1 Tue Oct 02 02:33:44 2018

Tools Copyright (c) 1996-2012 Texas Instruments Incorporated
csl_usb.asm                                                          PAGE  126

    5107                      .dwattr $C$DW$261, DW_AT_type(*$C$DW$T$68)
    5108                      .dwattr $C$DW$261, DW_AT_location[DW_OP_reg12]
    5109              $C$DW$262       .dwtag  DW_TAG_formal_parameter, DW_AT_name("addr")
    5110                      .dwattr $C$DW$262, DW_AT_TI_symbol_name("_addr")
    5111                      .dwattr $C$DW$262, DW_AT_type(*$C$DW$T$19)
    5112                      .dwattr $C$DW$262, DW_AT_location[DW_OP_reg13]
    5113              ;*******************************************************************************
    5114              ;* FUNCTION NAME: USB_setDevAddr                                               *
    5115              ;*                                                                             *
    5116              ;*   Function Uses Regs : AC0,AC0,T0,T1,AR1,AR2,AR3,SP,M40,SATA,SATD,RDM,FRCT, *
    5117              ;*                        SMUL                                                 *
    5118              ;*   Stack Frame        : Compact (No Frame Pointer, w/ debug)                 *
    5119              ;*   Total Frame Size   : 4 words                                              *
    5120              ;*                        (1 return address/alignment)                         *
    5121              ;*                        (3 local values)                                     *
    5122              ;*   Min System Stack   : 1 word                                               *
    5123              ;*******************************************************************************
    5124 001910       _USB_setDevAddr:
    5125                      .dwcfi  cfa_offset, 1
    5126                      .dwcfi  save_reg_to_mem, 91, -1
    5127 001910 4EFD          AADD #-3, SP
    5128                      .dwcfi  cfa_offset, 4
    5129              $C$DW$263       .dwtag  DW_TAG_variable, DW_AT_name("devNum")
    5130                      .dwattr $C$DW$263, DW_AT_TI_symbol_name("_devNum")
    5131                      .dwattr $C$DW$263, DW_AT_type(*$C$DW$T$68)
    5132                      .dwattr $C$DW$263, DW_AT_location[DW_OP_bregx 0x24 0]
    5133              $C$DW$264       .dwtag  DW_TAG_variable, DW_AT_name("addr")
    5134                      .dwattr $C$DW$264, DW_AT_TI_symbol_name("_addr")
    5135                      .dwattr $C$DW$264, DW_AT_type(*$C$DW$T$19)
    5136                      .dwattr $C$DW$264, DW_AT_location[DW_OP_bregx 0x24 1]
    5137              $C$DW$265       .dwtag  DW_TAG_variable, DW_AT_name("status")
    5138                      .dwattr $C$DW$265, DW_AT_TI_symbol_name("_status")
    5139                      .dwattr $C$DW$265, DW_AT_type(*$C$DW$T$75)
    5140                      .dwattr $C$DW$265, DW_AT_location[DW_OP_bregx 0x24 2]
    5141 001912 C502          MOV T1, *SP(#1) ; |2405| 
    5142 001914 C400          MOV T0, *SP(#0) ; |2405| 
    5143                      .dwpsn  file "../c5535_bsl_revc/ezdsp5535_v1/c55xx_csl/src/csl_usb.c",line 2408,column 2,is_stmt
    5144 001916 E604          MOV #0, *SP(#2) ; |2408| 
         001918 00   
    5145                      .dwpsn  file "../c5535_bsl_revc/ezdsp5535_v1/c55xx_csl/src/csl_usb.c",line 2410,column 2,is_stmt
    5146 001919 4A30          B $C$L156 ; |2410| 
    5147                                                      ; branch occurs ; |2410| 
    5148 00191b       $C$L154:    
    5149                      .dwpsn  file "../c5535_bsl_revc/ezdsp5535_v1/c55xx_csl/src/csl_usb.c",line 2413,column 4,is_stmt
    5150 00191b 7604          MOV #1025, T0 ; |2413| 
         00191d 0148 
    5151 00191f AB31          MOV *(#_usbRegisters), AR3 ; |2413| 
         001921 0000 
         001923 00-  
    5152 001924 A96B          MOV port(*AR3(T0)), AR1 ; |2413| 
         001926 99   
    5153 001927 7DFF          AND #0xff80, AR1, AC0 ; |2413| 
         001929 8009 
    5154 00192b C06B          MOV AC0, port(*AR3(T0)) ; |2413| 
         00192d 9A   
TMS320C55x Assembler PC v4.4.1 Tue Oct 02 02:33:44 2018

Tools Copyright (c) 1996-2012 Texas Instruments Incorporated
csl_usb.asm                                                          PAGE  127

    5155                      .dwpsn  file "../c5535_bsl_revc/ezdsp5535_v1/c55xx_csl/src/csl_usb.c",line 2415,column 4,is_stmt
    5156 00192e AB31          MOV *(#_usbRegisters), AR3 ; |2415| 
         001930 0000 
         001932 00-  
    5157 001933 A96B          MOV port(*AR3(T0)), AR1 ; |2415| 
         001935 99   
    5158 001936 7DFF          AND #0xff80, AR1, AR2 ; |2415| 
         001938 80A9 
    5159 00193a A902          MOV *SP(#1), AR1 ; |2415| 
    5160 00193c 187F          AND #0x007f, AR1, AR1 ; |2415| 
         00193e 99   
    5161 00193f 2AA9          OR AR2, AR1 ; |2415| 
    5162 001941 C96B          MOV AR1, port(*AR3(T0)) ; |2415| 
         001943 9A   
    5163                      .dwpsn  file "../c5535_bsl_revc/ezdsp5535_v1/c55xx_csl/src/csl_usb.c",line 2417,column 12,is_stmt
    5164 001944 4A0C          B $C$L157 ; |2417| 
    5165                                                      ; branch occurs ; |2417| 
    5166 001946       $C$L155:    
    5167                      .dwpsn  file "../c5535_bsl_revc/ezdsp5535_v1/c55xx_csl/src/csl_usb.c",line 2423,column 4,is_stmt
    5168 001946 E604          MOV #-6, *SP(#2) ; |2423| 
         001948 FA   
    5169                      .dwpsn  file "../c5535_bsl_revc/ezdsp5535_v1/c55xx_csl/src/csl_usb.c",line 2424,column 12,is_stmt
    5170 001949 4A07          B $C$L157 ; |2424| 
    5171                                                      ; branch occurs ; |2424| 
    5172 00194b       $C$L156:    
    5173                      .dwpsn  file "../c5535_bsl_revc/ezdsp5535_v1/c55xx_csl/src/csl_usb.c",line 2410,column 2,is_stmt
    5174 00194b A900          MOV *SP(#0), AR1 ; |2410| 
    5175 00194d 0409          BCC $C$L154,AR1 == #0 ; |2410| 
         00194f CB   
    5176                                                      ; branchcc occurs ; |2410| 
    5177 001950 4A74          B $C$L155 ; |2410| 
    5178                                                      ; branch occurs ; |2410| 
    5179 001952       $C$L157:    
    5180                      .dwpsn  file "../c5535_bsl_revc/ezdsp5535_v1/c55xx_csl/src/csl_usb.c",line 2427,column 2,is_stmt
    5181 001952 A404          MOV *SP(#2), T0 ; |2427| 
    5182                      .dwpsn  file "../c5535_bsl_revc/ezdsp5535_v1/c55xx_csl/src/csl_usb.c",line 2428,column 1,is_stmt
    5183 001954 4E03          AADD #3, SP
    5184                      .dwcfi  cfa_offset, 1
    5185              $C$DW$266       .dwtag  DW_TAG_TI_branch
    5186                      .dwattr $C$DW$266, DW_AT_low_pc(0x00)
    5187                      .dwattr $C$DW$266, DW_AT_TI_return
    5188 001956 4804          RET
    5189                                                      ; return occurs
    5190                      .dwattr $C$DW$260, DW_AT_TI_end_file("../c5535_bsl_revc/ezdsp5535_v1/c55xx_csl/src/csl_usb.c")
    5191                      .dwattr $C$DW$260, DW_AT_TI_end_line(0x97c)
    5192                      .dwattr $C$DW$260, DW_AT_TI_end_column(0x01)
    5193                      .dwendentry
    5194                      .dwendtag $C$DW$260
    5195              
    5196 001958               .sect   ".text"
    5197                      .align 4
    5198                      .global _USB_getFrameNo
    5199              
    5200              $C$DW$267       .dwtag  DW_TAG_subprogram, DW_AT_name("USB_getFrameNo")
    5201                      .dwattr $C$DW$267, DW_AT_low_pc(_USB_getFrameNo)
TMS320C55x Assembler PC v4.4.1 Tue Oct 02 02:33:44 2018

Tools Copyright (c) 1996-2012 Texas Instruments Incorporated
csl_usb.asm                                                          PAGE  128

    5202                      .dwattr $C$DW$267, DW_AT_high_pc(0x00)
    5203                      .dwattr $C$DW$267, DW_AT_TI_symbol_name("_USB_getFrameNo")
    5204                      .dwattr $C$DW$267, DW_AT_external
    5205                      .dwattr $C$DW$267, DW_AT_type(*$C$DW$T$177)
    5206                      .dwattr $C$DW$267, DW_AT_TI_begin_file("../c5535_bsl_revc/ezdsp5535_v1/c55xx_csl/src/csl_usb.c")
    5207                      .dwattr $C$DW$267, DW_AT_TI_begin_line(0x9a5)
    5208                      .dwattr $C$DW$267, DW_AT_TI_begin_column(0x11)
    5209                      .dwattr $C$DW$267, DW_AT_TI_max_frame_size(0x04)
    5210                      .dwpsn  file "../c5535_bsl_revc/ezdsp5535_v1/c55xx_csl/src/csl_usb.c",line 2470,column 1,is_stmt,addr
    5211              
    5212                      .dwfde $C$DW$CIE, _USB_getFrameNo
    5213              $C$DW$268       .dwtag  DW_TAG_formal_parameter, DW_AT_name("devNum")
    5214                      .dwattr $C$DW$268, DW_AT_TI_symbol_name("_devNum")
    5215                      .dwattr $C$DW$268, DW_AT_type(*$C$DW$T$68)
    5216                      .dwattr $C$DW$268, DW_AT_location[DW_OP_reg12]
    5217              ;*******************************************************************************
    5218              ;* FUNCTION NAME: USB_getFrameNo                                               *
    5219              ;*                                                                             *
    5220              ;*   Function Uses Regs : AC0,AC0,T0,AR1,AR3,SP,M40,SATA,SATD,RDM,FRCT,SMUL    *
    5221              ;*   Stack Frame        : Compact (No Frame Pointer, w/ debug)                 *
    5222              ;*   Total Frame Size   : 4 words                                              *
    5223              ;*                        (2 return address/alignment)                         *
    5224              ;*                        (2 local values)                                     *
    5225              ;*   Min System Stack   : 1 word                                               *
    5226              ;*******************************************************************************
    5227 001958       _USB_getFrameNo:
    5228                      .dwcfi  cfa_offset, 1
    5229                      .dwcfi  save_reg_to_mem, 91, -1
    5230 001958 4EFD          AADD #-3, SP
    5231                      .dwcfi  cfa_offset, 4
    5232              $C$DW$269       .dwtag  DW_TAG_variable, DW_AT_name("devNum")
    5233                      .dwattr $C$DW$269, DW_AT_TI_symbol_name("_devNum")
    5234                      .dwattr $C$DW$269, DW_AT_type(*$C$DW$T$68)
    5235                      .dwattr $C$DW$269, DW_AT_location[DW_OP_bregx 0x24 0]
    5236              $C$DW$270       .dwtag  DW_TAG_variable, DW_AT_name("frameNum")
    5237                      .dwattr $C$DW$270, DW_AT_TI_symbol_name("_frameNum")
    5238                      .dwattr $C$DW$270, DW_AT_type(*$C$DW$T$177)
    5239                      .dwattr $C$DW$270, DW_AT_location[DW_OP_bregx 0x24 1]
    5240 00195a C400          MOV T0, *SP(#0) ; |2470| 
    5241                      .dwpsn  file "../c5535_bsl_revc/ezdsp5535_v1/c55xx_csl/src/csl_usb.c",line 2473,column 2,is_stmt
    5242 00195c AB31          MOV *(#_usbRegisters), AR3 ; |2473| 
         00195e 0000 
         001960 00-  
    5243 001961 7604          MOV #1037, T0 ; |2473| 
         001963 0D48 
    5244 001965 A96B          MOV port(*AR3(T0)), AR1 ; |2473| 
         001967 99   
    5245 001968 7D07          AND #0x07ff, AR1, AC0 ; |2473| 
         00196a FF09 
    5246 00196c C002          MOV AC0, *SP(#1) ; |2473| 
    5247                      .dwpsn  file "../c5535_bsl_revc/ezdsp5535_v1/c55xx_csl/src/csl_usb.c",line 2475,column 2,is_stmt
    5248 00196e 2204          MOV AC0, T0
    5249                      .dwpsn  file "../c5535_bsl_revc/ezdsp5535_v1/c55xx_csl/src/csl_usb.c",line 2476,column 1,is_stmt
    5250 001970 4E03          AADD #3, SP
    5251                      .dwcfi  cfa_offset, 1
TMS320C55x Assembler PC v4.4.1 Tue Oct 02 02:33:44 2018

Tools Copyright (c) 1996-2012 Texas Instruments Incorporated
csl_usb.asm                                                          PAGE  129

    5252              $C$DW$271       .dwtag  DW_TAG_TI_branch
    5253                      .dwattr $C$DW$271, DW_AT_low_pc(0x00)
    5254                      .dwattr $C$DW$271, DW_AT_TI_return
    5255 001972 4804          RET
    5256                                                      ; return occurs
    5257                      .dwattr $C$DW$267, DW_AT_TI_end_file("../c5535_bsl_revc/ezdsp5535_v1/c55xx_csl/src/csl_usb.c")
    5258                      .dwattr $C$DW$267, DW_AT_TI_end_line(0x9ac)
    5259                      .dwattr $C$DW$267, DW_AT_TI_end_column(0x01)
    5260                      .dwendentry
    5261                      .dwendtag $C$DW$267
    5262              
    5263 001974               .sect   ".text"
    5264                      .align 4
    5265                      .global _USB_suspendDevice
    5266              
    5267              $C$DW$272       .dwtag  DW_TAG_subprogram, DW_AT_name("USB_suspendDevice")
    5268                      .dwattr $C$DW$272, DW_AT_low_pc(_USB_suspendDevice)
    5269                      .dwattr $C$DW$272, DW_AT_high_pc(0x00)
    5270                      .dwattr $C$DW$272, DW_AT_TI_symbol_name("_USB_suspendDevice")
    5271                      .dwattr $C$DW$272, DW_AT_external
    5272                      .dwattr $C$DW$272, DW_AT_type(*$C$DW$T$75)
    5273                      .dwattr $C$DW$272, DW_AT_TI_begin_file("../c5535_bsl_revc/ezdsp5535_v1/c55xx_csl/src/csl_usb.c")
    5274                      .dwattr $C$DW$272, DW_AT_TI_begin_line(0x9d7)
    5275                      .dwattr $C$DW$272, DW_AT_TI_begin_column(0x0c)
    5276                      .dwattr $C$DW$272, DW_AT_TI_max_frame_size(0x06)
    5277                      .dwpsn  file "../c5535_bsl_revc/ezdsp5535_v1/c55xx_csl/src/csl_usb.c",line 2520,column 1,is_stmt,addr
    5278              
    5279                      .dwfde $C$DW$CIE, _USB_suspendDevice
    5280              $C$DW$273       .dwtag  DW_TAG_formal_parameter, DW_AT_name("devNum")
    5281                      .dwattr $C$DW$273, DW_AT_TI_symbol_name("_devNum")
    5282                      .dwattr $C$DW$273, DW_AT_type(*$C$DW$T$68)
    5283                      .dwattr $C$DW$273, DW_AT_location[DW_OP_reg12]
    5284              ;*******************************************************************************
    5285              ;* FUNCTION NAME: USB_suspendDevice                                            *
    5286              ;*                                                                             *
    5287              ;*   Function Uses Regs : AC0,AC0,T0,AR1,AR3,XAR3,SP,M40,SATA,SATD,RDM,FRCT,   *
    5288              ;*                        SMUL                                                 *
    5289              ;*   Stack Frame        : Compact (No Frame Pointer, w/ debug)                 *
    5290              ;*   Total Frame Size   : 6 words                                              *
    5291              ;*                        (2 return address/alignment)                         *
    5292              ;*                        (4 local values)                                     *
    5293              ;*   Min System Stack   : 1 word                                               *
    5294              ;*******************************************************************************
    5295 001974       _USB_suspendDevice:
    5296                      .dwcfi  cfa_offset, 1
    5297                      .dwcfi  save_reg_to_mem, 91, -1
    5298 001974 4EFB          AADD #-5, SP
    5299                      .dwcfi  cfa_offset, 6
    5300              $C$DW$274       .dwtag  DW_TAG_variable, DW_AT_name("devNum")
    5301                      .dwattr $C$DW$274, DW_AT_TI_symbol_name("_devNum")
    5302                      .dwattr $C$DW$274, DW_AT_type(*$C$DW$T$68)
    5303                      .dwattr $C$DW$274, DW_AT_location[DW_OP_bregx 0x24 0]
    5304              $C$DW$275       .dwtag  DW_TAG_variable, DW_AT_name("status")
    5305                      .dwattr $C$DW$275, DW_AT_TI_symbol_name("_status")
    5306                      .dwattr $C$DW$275, DW_AT_type(*$C$DW$T$75)
TMS320C55x Assembler PC v4.4.1 Tue Oct 02 02:33:44 2018

Tools Copyright (c) 1996-2012 Texas Instruments Incorporated
csl_usb.asm                                                          PAGE  130

    5307                      .dwattr $C$DW$275, DW_AT_location[DW_OP_bregx 0x24 1]
    5308              $C$DW$276       .dwtag  DW_TAG_variable, DW_AT_name("pContext")
    5309                      .dwattr $C$DW$276, DW_AT_TI_symbol_name("_pContext")
    5310                      .dwattr $C$DW$276, DW_AT_type(*$C$DW$T$142)
    5311                      .dwattr $C$DW$276, DW_AT_location[DW_OP_bregx 0x24 2]
    5312 001976 C400          MOV T0, *SP(#0) ; |2520| 
    5313                      .dwpsn  file "../c5535_bsl_revc/ezdsp5535_v1/c55xx_csl/src/csl_usb.c",line 2524,column 2,is_stmt
    5314 001978 E602          MOV #0, *SP(#1) ; |2524| 
         00197a 00   
    5315                      .dwpsn  file "../c5535_bsl_revc/ezdsp5535_v1/c55xx_csl/src/csl_usb.c",line 2525,column 2,is_stmt
    5316 00197b EC31          AMOV #_gUsbContext, XAR3 ; |2525| 
         00197d BE00 
         00197f 0002-
    5317 001981 EB04          MOV XAR3, dbl(*SP(#2))
         001983 B5   
    5318                      .dwpsn  file "../c5535_bsl_revc/ezdsp5535_v1/c55xx_csl/src/csl_usb.c",line 2527,column 2,is_stmt
    5319 001984 4A25          B $C$L160 ; |2527| 
    5320                                                      ; branch occurs ; |2527| 
    5321 001986       $C$L158:    
    5322                      .dwpsn  file "../c5535_bsl_revc/ezdsp5535_v1/c55xx_csl/src/csl_usb.c",line 2531,column 4,is_stmt
    5323 001986 ED6D          MOV dbl(*AR3(#110)), AC0 ; |2531| 
         001988 0800 
         00198a 6E   
    5324              $C$DW$277       .dwtag  DW_TAG_TI_branch
    5325                      .dwattr $C$DW$277, DW_AT_low_pc(0x00)
    5326                      .dwattr $C$DW$277, DW_AT_TI_call
    5327                      .dwattr $C$DW$277, DW_AT_TI_indirect
    5328              
    5329 00198b 9200          CALL AC0  ; |2531| 
    5330 00198d 3D04  ||      MOV #0, T0
    5331              
    5332                                                      ; call occurs [AC0] ; |2531| 
    5333                      .dwpsn  file "../c5535_bsl_revc/ezdsp5535_v1/c55xx_csl/src/csl_usb.c",line 2533,column 4,is_stmt
    5334 00198f 7604          MOV #1025, T0 ; |2533| 
         001991 0148 
    5335 001993 AB31          MOV *(#_usbRegisters), AR3 ; |2533| 
         001995 0000 
         001997 00-  
    5336 001998 A96B          MOV port(*AR3(T0)), AR1 ; |2533| 
         00199a 99   
    5337 00199b EC10          BCLR @#8, AR1 ; |2533| 
         00199d 92   
    5338 00199e EC10          BSET @#8, AR1 ; |2533| 
         0019a0 90   
    5339 0019a1 C96B          MOV AR1, port(*AR3(T0)) ; |2533| 
         0019a3 9A   
    5340                      .dwpsn  file "../c5535_bsl_revc/ezdsp5535_v1/c55xx_csl/src/csl_usb.c",line 2535,column 12,is_stmt
    5341 0019a4 4A0C          B $C$L161 ; |2535| 
    5342                                                      ; branch occurs ; |2535| 
    5343 0019a6       $C$L159:    
    5344                      .dwpsn  file "../c5535_bsl_revc/ezdsp5535_v1/c55xx_csl/src/csl_usb.c",line 2541,column 4,is_stmt
    5345 0019a6 E602          MOV #-6, *SP(#1) ; |2541| 
         0019a8 FA   
    5346                      .dwpsn  file "../c5535_bsl_revc/ezdsp5535_v1/c55xx_csl/src/csl_usb.c",line 2542,column 12,is_stmt
    5347 0019a9 4A07          B $C$L161 ; |2542| 
TMS320C55x Assembler PC v4.4.1 Tue Oct 02 02:33:44 2018

Tools Copyright (c) 1996-2012 Texas Instruments Incorporated
csl_usb.asm                                                          PAGE  131

    5348                                                      ; branch occurs ; |2542| 
    5349 0019ab       $C$L160:    
    5350                      .dwpsn  file "../c5535_bsl_revc/ezdsp5535_v1/c55xx_csl/src/csl_usb.c",line 2527,column 2,is_stmt
    5351 0019ab A900          MOV *SP(#0), AR1 ; |2527| 
    5352 0019ad 0409          BCC $C$L158,AR1 == #0 ; |2527| 
         0019af D6   
    5353                                                      ; branchcc occurs ; |2527| 
    5354 0019b0 4A74          B $C$L159 ; |2527| 
    5355                                                      ; branch occurs ; |2527| 
    5356 0019b2       $C$L161:    
    5357                      .dwpsn  file "../c5535_bsl_revc/ezdsp5535_v1/c55xx_csl/src/csl_usb.c",line 2545,column 2,is_stmt
    5358 0019b2 A402          MOV *SP(#1), T0 ; |2545| 
    5359                      .dwpsn  file "../c5535_bsl_revc/ezdsp5535_v1/c55xx_csl/src/csl_usb.c",line 2546,column 1,is_stmt
    5360 0019b4 4E05          AADD #5, SP
    5361                      .dwcfi  cfa_offset, 1
    5362              $C$DW$278       .dwtag  DW_TAG_TI_branch
    5363                      .dwattr $C$DW$278, DW_AT_low_pc(0x00)
    5364                      .dwattr $C$DW$278, DW_AT_TI_return
    5365 0019b6 4804          RET
    5366                                                      ; return occurs
    5367                      .dwattr $C$DW$272, DW_AT_TI_end_file("../c5535_bsl_revc/ezdsp5535_v1/c55xx_csl/src/csl_usb.c")
    5368                      .dwattr $C$DW$272, DW_AT_TI_end_line(0x9f2)
    5369                      .dwattr $C$DW$272, DW_AT_TI_end_column(0x01)
    5370                      .dwendentry
    5371                      .dwendtag $C$DW$272
    5372              
    5373 0019b8               .sect   ".text"
    5374                      .align 4
    5375                      .global _USB_selfwakeup
    5376              
    5377              $C$DW$279       .dwtag  DW_TAG_subprogram, DW_AT_name("USB_selfwakeup")
    5378                      .dwattr $C$DW$279, DW_AT_low_pc(_USB_selfwakeup)
    5379                      .dwattr $C$DW$279, DW_AT_high_pc(0x00)
    5380                      .dwattr $C$DW$279, DW_AT_TI_symbol_name("_USB_selfwakeup")
    5381                      .dwattr $C$DW$279, DW_AT_external
    5382                      .dwattr $C$DW$279, DW_AT_type(*$C$DW$T$75)
    5383                      .dwattr $C$DW$279, DW_AT_TI_begin_file("../c5535_bsl_revc/ezdsp5535_v1/c55xx_csl/src/csl_usb.c")
    5384                      .dwattr $C$DW$279, DW_AT_TI_begin_line(0xa2b)
    5385                      .dwattr $C$DW$279, DW_AT_TI_begin_column(0x0c)
    5386                      .dwattr $C$DW$279, DW_AT_TI_max_frame_size(0x0a)
    5387                      .dwpsn  file "../c5535_bsl_revc/ezdsp5535_v1/c55xx_csl/src/csl_usb.c",line 2605,column 1,is_stmt,addr
    5388              
    5389                      .dwfde $C$DW$CIE, _USB_selfwakeup
    5390              $C$DW$280       .dwtag  DW_TAG_formal_parameter, DW_AT_name("devNum")
    5391                      .dwattr $C$DW$280, DW_AT_TI_symbol_name("_devNum")
    5392                      .dwattr $C$DW$280, DW_AT_type(*$C$DW$T$68)
    5393                      .dwattr $C$DW$280, DW_AT_location[DW_OP_reg12]
    5394              $C$DW$281       .dwtag  DW_TAG_formal_parameter, DW_AT_name("wakeupDelay")
    5395                      .dwattr $C$DW$281, DW_AT_TI_symbol_name("_wakeupDelay")
    5396                      .dwattr $C$DW$281, DW_AT_type(*$C$DW$T$83)
    5397                      .dwattr $C$DW$281, DW_AT_location[DW_OP_reg0]
    5398              ;*******************************************************************************
    5399              ;* FUNCTION NAME: USB_selfwakeup                                               *
    5400              ;*                                                                             *
    5401              ;*   Function Uses Regs : AC0,AC0,T0,AR1,AR3,XAR3,SP,CARRY,M40,SATA,SATD,RDM,  *
TMS320C55x Assembler PC v4.4.1 Tue Oct 02 02:33:44 2018

Tools Copyright (c) 1996-2012 Texas Instruments Incorporated
csl_usb.asm                                                          PAGE  132

    5402              ;*                        FRCT,SMUL                                            *
    5403              ;*   Stack Frame        : Compact (No Frame Pointer, w/ debug)                 *
    5404              ;*   Total Frame Size   : 10 words                                             *
    5405              ;*                        (2 return address/alignment)                         *
    5406              ;*                        (8 local values)                                     *
    5407              ;*   Min System Stack   : 1 word                                               *
    5408              ;*******************************************************************************
    5409 0019b8       _USB_selfwakeup:
    5410                      .dwcfi  cfa_offset, 1
    5411                      .dwcfi  save_reg_to_mem, 91, -1
    5412 0019b8 4EF7          AADD #-9, SP
    5413                      .dwcfi  cfa_offset, 10
    5414              $C$DW$282       .dwtag  DW_TAG_variable, DW_AT_name("devNum")
    5415                      .dwattr $C$DW$282, DW_AT_TI_symbol_name("_devNum")
    5416                      .dwattr $C$DW$282, DW_AT_type(*$C$DW$T$68)
    5417                      .dwattr $C$DW$282, DW_AT_location[DW_OP_bregx 0x24 0]
    5418              $C$DW$283       .dwtag  DW_TAG_variable, DW_AT_name("wakeupDelay")
    5419                      .dwattr $C$DW$283, DW_AT_TI_symbol_name("_wakeupDelay")
    5420                      .dwattr $C$DW$283, DW_AT_type(*$C$DW$T$83)
    5421                      .dwattr $C$DW$283, DW_AT_location[DW_OP_bregx 0x24 2]
    5422              $C$DW$284       .dwtag  DW_TAG_variable, DW_AT_name("status")
    5423                      .dwattr $C$DW$284, DW_AT_TI_symbol_name("_status")
    5424                      .dwattr $C$DW$284, DW_AT_type(*$C$DW$T$75)
    5425                      .dwattr $C$DW$284, DW_AT_location[DW_OP_bregx 0x24 4]
    5426              $C$DW$285       .dwtag  DW_TAG_variable, DW_AT_name("pContext")
    5427                      .dwattr $C$DW$285, DW_AT_TI_symbol_name("_pContext")
    5428                      .dwattr $C$DW$285, DW_AT_type(*$C$DW$T$142)
    5429                      .dwattr $C$DW$285, DW_AT_location[DW_OP_bregx 0x24 6]
    5430 0019ba EB04          MOV AC0, dbl(*SP(#2)) ; |2605| 
         0019bc 08   
    5431 0019bd C400          MOV T0, *SP(#0) ; |2605| 
    5432                      .dwpsn  file "../c5535_bsl_revc/ezdsp5535_v1/c55xx_csl/src/csl_usb.c",line 2609,column 2,is_stmt
    5433 0019bf E608          MOV #0, *SP(#4) ; |2609| 
         0019c1 00   
    5434                      .dwpsn  file "../c5535_bsl_revc/ezdsp5535_v1/c55xx_csl/src/csl_usb.c",line 2610,column 2,is_stmt
    5435 0019c2 EC31          AMOV #_gUsbContext, XAR3 ; |2610| 
         0019c4 BE00 
         0019c6 0002-
    5436 0019c8 EB0C          MOV XAR3, dbl(*SP(#6))
         0019ca B5   
    5437                      .dwpsn  file "../c5535_bsl_revc/ezdsp5535_v1/c55xx_csl/src/csl_usb.c",line 2612,column 2,is_stmt
    5438 0019cb 0600          B $C$L166 ; |2612| 
         0019cd 46   
    5439                                                      ; branch occurs ; |2612| 
    5440 0019ce       $C$L162:    
    5441                      .dwpsn  file "../c5535_bsl_revc/ezdsp5535_v1/c55xx_csl/src/csl_usb.c",line 2616,column 4,is_stmt
    5442 0019ce ED6D          MOV dbl(*AR3(#112)), AC0 ; |2616| 
         0019d0 0800 
         0019d2 70   
    5443              $C$DW$286       .dwtag  DW_TAG_TI_branch
    5444                      .dwattr $C$DW$286, DW_AT_low_pc(0x00)
    5445                      .dwattr $C$DW$286, DW_AT_TI_call
    5446                      .dwattr $C$DW$286, DW_AT_TI_indirect
    5447              
    5448 0019d3 9200          CALL AC0  ; |2616| 
TMS320C55x Assembler PC v4.4.1 Tue Oct 02 02:33:44 2018

Tools Copyright (c) 1996-2012 Texas Instruments Incorporated
csl_usb.asm                                                          PAGE  133

    5449 0019d5 3D04  ||      MOV #0, T0
    5450              
    5451                                                      ; call occurs [AC0] ; |2616| 
    5452                      .dwpsn  file "../c5535_bsl_revc/ezdsp5535_v1/c55xx_csl/src/csl_usb.c",line 2619,column 4,is_stmt
    5453 0019d7 7604          MOV #1025, T0 ; |2619| 
         0019d9 0148 
    5454 0019db AB31          MOV *(#_usbRegisters), AR3 ; |2619| 
         0019dd 0000 
         0019df 00-  
    5455 0019e0 A96B          MOV port(*AR3(T0)), AR1 ; |2619| 
         0019e2 99   
    5456 0019e3 EC14          BCLR @#10, AR1 ; |2619| 
         0019e5 92   
    5457 0019e6 EC14          BSET @#10, AR1 ; |2619| 
         0019e8 90   
    5458 0019e9 C96B          MOV AR1, port(*AR3(T0)) ; |2619| 
         0019eb 9A   
    5459                      .dwpsn  file "../c5535_bsl_revc/ezdsp5535_v1/c55xx_csl/src/csl_usb.c",line 2622,column 10,is_stmt
    5460 0019ec ED04          MOV dbl(*SP(#2)), AC0 ; |2622| 
         0019ee 08   
    5461 0019ef 6700          BCC $C$L164,AC0 == #0 ; |2622| 
    5462                                                      ; branchcc occurs ; |2622| 
    5463 0019f1       $C$L163:    
    5464 0019f1       $C$DW$L$_USB_selfwakeup$4$B:
    5465                      .dwpsn  file "../c5535_bsl_revc/ezdsp5535_v1/c55xx_csl/src/csl_usb.c",line 2622,column 27,is_stmt
    5466 0019f1 ED04          MOV dbl(*SP(#2)), AC0 ; |2622| 
         0019f3 08   
    5467 0019f4 4210          SUB #1, AC0 ; |2622| 
    5468 0019f6 EB04          MOV AC0, dbl(*SP(#2)) ; |2622| 
         0019f8 08   
    5469                      .dwpsn  file "../c5535_bsl_revc/ezdsp5535_v1/c55xx_csl/src/csl_usb.c",line 2622,column 10,is_stmt
    5470 0019f9 ED04          MOV dbl(*SP(#2)), AC0 ; |2622| 
         0019fb 08   
    5471 0019fc 0410          BCC $C$L163,AC0 != #0 ; |2622| 
         0019fe F2   
    5472                                                      ; branchcc occurs ; |2622| 
    5473 0019ff       $C$DW$L$_USB_selfwakeup$4$E:
    5474 0019ff       $C$L164:    
    5475                      .dwpsn  file "../c5535_bsl_revc/ezdsp5535_v1/c55xx_csl/src/csl_usb.c",line 2625,column 4,is_stmt
    5476 0019ff AB31          MOV *(#_usbRegisters), AR3 ; |2625| 
         001a01 0000 
         001a03 00-  
    5477 001a04 A96B          MOV port(*AR3(T0)), AR1 ; |2625| 
         001a06 99   
    5478 001a07 EC14          BCLR @#10, AR1 ; |2625| 
         001a09 92   
    5479 001a0a C96B          MOV AR1, port(*AR3(T0)) ; |2625| 
         001a0c 9A   
    5480                      .dwpsn  file "../c5535_bsl_revc/ezdsp5535_v1/c55xx_csl/src/csl_usb.c",line 2627,column 12,is_stmt
    5481 001a0d 4A0C          B $C$L167 ; |2627| 
    5482                                                      ; branch occurs ; |2627| 
    5483 001a0f       $C$L165:    
    5484                      .dwpsn  file "../c5535_bsl_revc/ezdsp5535_v1/c55xx_csl/src/csl_usb.c",line 2633,column 4,is_stmt
    5485 001a0f E608          MOV #-6, *SP(#4) ; |2633| 
         001a11 FA   
TMS320C55x Assembler PC v4.4.1 Tue Oct 02 02:33:44 2018

Tools Copyright (c) 1996-2012 Texas Instruments Incorporated
csl_usb.asm                                                          PAGE  134

    5486                      .dwpsn  file "../c5535_bsl_revc/ezdsp5535_v1/c55xx_csl/src/csl_usb.c",line 2634,column 12,is_stmt
    5487 001a12 4A07          B $C$L167 ; |2634| 
    5488                                                      ; branch occurs ; |2634| 
    5489 001a14       $C$L166:    
    5490                      .dwpsn  file "../c5535_bsl_revc/ezdsp5535_v1/c55xx_csl/src/csl_usb.c",line 2612,column 2,is_stmt
    5491 001a14 A900          MOV *SP(#0), AR1 ; |2612| 
    5492 001a16 0409          BCC $C$L162,AR1 == #0 ; |2612| 
         001a18 B5   
    5493                                                      ; branchcc occurs ; |2612| 
    5494 001a19 4A74          B $C$L165 ; |2612| 
    5495                                                      ; branch occurs ; |2612| 
    5496 001a1b       $C$L167:    
    5497                      .dwpsn  file "../c5535_bsl_revc/ezdsp5535_v1/c55xx_csl/src/csl_usb.c",line 2637,column 2,is_stmt
    5498 001a1b A408          MOV *SP(#4), T0 ; |2637| 
    5499                      .dwpsn  file "../c5535_bsl_revc/ezdsp5535_v1/c55xx_csl/src/csl_usb.c",line 2638,column 1,is_stmt
    5500 001a1d 4E09          AADD #9, SP
    5501                      .dwcfi  cfa_offset, 1
    5502              $C$DW$287       .dwtag  DW_TAG_TI_branch
    5503                      .dwattr $C$DW$287, DW_AT_low_pc(0x00)
    5504                      .dwattr $C$DW$287, DW_AT_TI_return
    5505 001a1f 4804          RET
    5506                                                      ; return occurs
    5507              
    5508              $C$DW$288       .dwtag  DW_TAG_TI_loop
    5509                      .dwattr $C$DW$288, DW_AT_name("F:\eZdsp-DBG-sim\tmp1\c55x-sim2\foo\Debug\csl_usb.asm:$C$L163:1:153847
    5510                      .dwattr $C$DW$288, DW_AT_TI_begin_file("../c5535_bsl_revc/ezdsp5535_v1/c55xx_csl/src/csl_usb.c")
    5511                      .dwattr $C$DW$288, DW_AT_TI_begin_line(0xa3e)
    5512                      .dwattr $C$DW$288, DW_AT_TI_end_line(0xa3e)
    5513              $C$DW$289       .dwtag  DW_TAG_TI_loop_range
    5514                      .dwattr $C$DW$289, DW_AT_low_pc($C$DW$L$_USB_selfwakeup$4$B)
    5515                      .dwattr $C$DW$289, DW_AT_high_pc($C$DW$L$_USB_selfwakeup$4$E)
    5516                      .dwendtag $C$DW$288
    5517              
    5518                      .dwattr $C$DW$279, DW_AT_TI_end_file("../c5535_bsl_revc/ezdsp5535_v1/c55xx_csl/src/csl_usb.c")
    5519                      .dwattr $C$DW$279, DW_AT_TI_end_line(0xa4e)
    5520                      .dwattr $C$DW$279, DW_AT_TI_end_column(0x01)
    5521                      .dwendentry
    5522                      .dwendtag $C$DW$279
    5523              
    5524 001a21               .sect   ".text"
    5525                      .align 4
    5526                      .global _USB_initPLL
    5527              
    5528              $C$DW$290       .dwtag  DW_TAG_subprogram, DW_AT_name("USB_initPLL")
    5529                      .dwattr $C$DW$290, DW_AT_low_pc(_USB_initPLL)
    5530                      .dwattr $C$DW$290, DW_AT_high_pc(0x00)
    5531                      .dwattr $C$DW$290, DW_AT_TI_symbol_name("_USB_initPLL")
    5532                      .dwattr $C$DW$290, DW_AT_external
    5533                      .dwattr $C$DW$290, DW_AT_TI_begin_file("../c5535_bsl_revc/ezdsp5535_v1/c55xx_csl/src/csl_usb.c")
    5534                      .dwattr $C$DW$290, DW_AT_TI_begin_line(0xa6e)
    5535                      .dwattr $C$DW$290, DW_AT_TI_begin_column(0x06)
    5536                      .dwattr $C$DW$290, DW_AT_TI_max_frame_size(0x02)
    5537                      .dwpsn  file "../c5535_bsl_revc/ezdsp5535_v1/c55xx_csl/src/csl_usb.c",line 2671,column 1,is_stmt,addr
    5538              
    5539                      .dwfde $C$DW$CIE, _USB_initPLL
TMS320C55x Assembler PC v4.4.1 Tue Oct 02 02:33:44 2018

Tools Copyright (c) 1996-2012 Texas Instruments Incorporated
csl_usb.asm                                                          PAGE  135

    5540              ;*******************************************************************************
    5541              ;* FUNCTION NAME: USB_initPLL                                                  *
    5542              ;*                                                                             *
    5543              ;*   Function Uses Regs : T0,AR1,AR3,SP,CARRY,TC1,M40,SATA,SATD,RDM,FRCT,SMUL  *
    5544              ;*   Stack Frame        : Compact (No Frame Pointer, w/ debug)                 *
    5545              ;*   Total Frame Size   : 2 words                                              *
    5546              ;*                        (1 return address/alignment)                         *
    5547              ;*                        (1 local values)                                     *
    5548              ;*   Min System Stack   : 1 word                                               *
    5549              ;*******************************************************************************
    5550 001a24       _USB_initPLL:
    5551                      .dwcfi  cfa_offset, 1
    5552                      .dwcfi  save_reg_to_mem, 91, -1
    5553 001a24 4EFF          AADD #-1, SP
    5554                      .dwcfi  cfa_offset, 2
    5555              $C$DW$291       .dwtag  DW_TAG_variable, DW_AT_name("timeout")
    5556                      .dwattr $C$DW$291, DW_AT_TI_symbol_name("_timeout")
    5557                      .dwattr $C$DW$291, DW_AT_type(*$C$DW$T$19)
    5558                      .dwattr $C$DW$291, DW_AT_location[DW_OP_bregx 0x24 0]
    5559                      .dwpsn  file "../c5535_bsl_revc/ezdsp5535_v1/c55xx_csl/src/csl_usb.c",line 2674,column 2,is_stmt
    5560 001a26 FB00          MOV #65535, *SP(#0) ; |2674| 
         001a28 FFFF 
    5561                      .dwpsn  file "../c5535_bsl_revc/ezdsp5535_v1/c55xx_csl/src/csl_usb.c",line 2677,column 5,is_stmt
    5562 001a2a 7600          MOV #31, T0 ; |2677| 
         001a2c 1F48 
    5563 001a2e AB31          MOV *(#_sysCtrlRegs), AR3 ; |2677| 
         001a30 0000 
         001a32 01-  
    5564 001a33 A96B          MOV port(*AR3(T0)), AR1 ; |2677| 
         001a35 99   
    5565 001a36 EC00          BCLR @#0, AR1 ; |2677| 
         001a38 92   
    5566 001a39 C96B          MOV AR1, port(*AR3(T0)) ; |2677| 
         001a3b 9A   
    5567                      .dwpsn  file "../c5535_bsl_revc/ezdsp5535_v1/c55xx_csl/src/csl_usb.c",line 2680,column 2,is_stmt
    5568 001a3c 7600          MOV #33, T0 ; |2680| 
         001a3e 2148 
    5569 001a40 AB31          MOV *(#_sysCtrlRegs), AR3 ; |2680| 
         001a42 0000 
         001a44 01-  
    5570 001a45 FB6B          MOV #32768, port(*AR3(T0)) ; |2680| 
         001a47 8000 
         001a49 9A   
    5571                      .dwpsn  file "../c5535_bsl_revc/ezdsp5535_v1/c55xx_csl/src/csl_usb.c",line 2681,column 2,is_stmt
    5572 001a4a 7600          MOV #35, T0 ; |2681| 
         001a4c 2348 
    5573 001a4e AB31          MOV *(#_sysCtrlRegs), AR3 ; |2681| 
         001a50 0000 
         001a52 01-  
    5574 001a53 E66B          MOV #0, port(*AR3(T0)) ; |2681| 
         001a55 00   
         001a56 9A   
    5575                      .dwpsn  file "../c5535_bsl_revc/ezdsp5535_v1/c55xx_csl/src/csl_usb.c",line 2682,column 2,is_stmt
    5576 001a57 7600          MOV #34, T0 ; |2682| 
         001a59 2248 
TMS320C55x Assembler PC v4.4.1 Tue Oct 02 02:33:44 2018

Tools Copyright (c) 1996-2012 Texas Instruments Incorporated
csl_usb.asm                                                          PAGE  136

    5577 001a5b AB31          MOV *(#_sysCtrlRegs), AR3 ; |2682| 
         001a5d 0000 
         001a5f 01-  
    5578 001a60 FB6B          MOV #2054, port(*AR3(T0)) ; |2682| 
         001a62 0806 
         001a64 9A   
    5579                      .dwpsn  file "../c5535_bsl_revc/ezdsp5535_v1/c55xx_csl/src/csl_usb.c",line 2683,column 2,is_stmt
    5580 001a65 7600          MOV #32, T0 ; |2683| 
         001a67 2048 
    5581 001a69 AB31          MOV *(#_sysCtrlRegs), AR3 ; |2683| 
         001a6b 0000 
         001a6d 01-  
    5582 001a6e FB6B          MOV #35816, port(*AR3(T0)) ; |2683| 
         001a70 8BE8 
         001a72 9A   
    5583                      .dwpsn  file "../c5535_bsl_revc/ezdsp5535_v1/c55xx_csl/src/csl_usb.c",line 2686,column 11,is_stmt
    5584 001a73 7600          MOV #34, T0 ; |2686| 
         001a75 2248 
    5585 001a77 AB31          MOV *(#_sysCtrlRegs), AR3 ; |2686| 
         001a79 0000 
         001a7b 01-  
    5586 001a7c DC6B          BTST #3, port(*AR3(T0)), TC1 ; |2686| 
         001a7e 30   
         001a7f 99   
    5587 001a80 67E4          BCC $C$L169,TC1 ; |2686| 
    5588                                                      ; branchcc occurs ; |2686| 
    5589 001a82       $C$L168:    
    5590 001a82       $C$DW$L$_USB_initPLL$2$B:
    5591                      .dwpsn  file "../c5535_bsl_revc/ezdsp5535_v1/c55xx_csl/src/csl_usb.c",line 2688,column 3,is_stmt
    5592 001a82 F700          SUB #1, *SP(#0) ; |2688| 
         001a84 FFFF 
    5593                      .dwpsn  file "../c5535_bsl_revc/ezdsp5535_v1/c55xx_csl/src/csl_usb.c",line 2689,column 3,is_stmt
    5594 001a86 A900          MOV *SP(#0), AR1 ; |2689| 
    5595 001a88 6389          BCC $C$L169,AR1 == #0 ; |2689| 
    5596                                                      ; branchcc occurs ; |2689| 
    5597 001a8a       $C$DW$L$_USB_initPLL$2$E:
    5598 001a8a       $C$DW$L$_USB_initPLL$3$B:
    5599                      .dwpsn  file "../c5535_bsl_revc/ezdsp5535_v1/c55xx_csl/src/csl_usb.c",line 2691,column 4,is_stmt
    5600                      .dwpsn  file "../c5535_bsl_revc/ezdsp5535_v1/c55xx_csl/src/csl_usb.c",line 2686,column 11,is_stmt
    5601 001a8a DC6B          BTST #3, port(*AR3(T0)), TC1 ; |2686| 
         001a8c 30   
         001a8d 99   
    5602 001a8e 0474          BCC $C$L168,!TC1 ; |2686| 
         001a90 F1   
    5603                                                      ; branchcc occurs ; |2686| 
    5604 001a91       $C$DW$L$_USB_initPLL$3$E:
    5605 001a91       $C$L169:    
    5606                      .dwpsn  file "../c5535_bsl_revc/ezdsp5535_v1/c55xx_csl/src/csl_usb.c",line 2696,column 5,is_stmt
    5607 001a91 7600          MOV #31, T0 ; |2696| 
         001a93 1F48 
    5608 001a95 A96B          MOV port(*AR3(T0)), AR1 ; |2696| 
         001a97 99   
    5609 001a98 EC00          BCLR @#0, AR1 ; |2696| 
         001a9a 92   
    5610 001a9b EC00          BSET @#0, AR1 ; |2696| 
TMS320C55x Assembler PC v4.4.1 Tue Oct 02 02:33:44 2018

Tools Copyright (c) 1996-2012 Texas Instruments Incorporated
csl_usb.asm                                                          PAGE  137

         001a9d 90   
    5611 001a9e C96B          MOV AR1, port(*AR3(T0)) ; |2696| 
         001aa0 9A   
    5612                      .dwpsn  file "../c5535_bsl_revc/ezdsp5535_v1/c55xx_csl/src/csl_usb.c",line 2697,column 1,is_stmt
    5613 001aa1 4E01          AADD #1, SP
    5614                      .dwcfi  cfa_offset, 1
    5615              $C$DW$292       .dwtag  DW_TAG_TI_branch
    5616                      .dwattr $C$DW$292, DW_AT_low_pc(0x00)
    5617                      .dwattr $C$DW$292, DW_AT_TI_return
    5618 001aa3 4804          RET
    5619                                                      ; return occurs
    5620              
    5621              $C$DW$293       .dwtag  DW_TAG_TI_loop
    5622                      .dwattr $C$DW$293, DW_AT_name("F:\eZdsp-DBG-sim\tmp1\c55x-sim2\foo\Debug\csl_usb.asm:$C$L168:1:153847
    5623                      .dwattr $C$DW$293, DW_AT_TI_begin_file("../c5535_bsl_revc/ezdsp5535_v1/c55xx_csl/src/csl_usb.c")
    5624                      .dwattr $C$DW$293, DW_AT_TI_begin_line(0xa7e)
    5625                      .dwattr $C$DW$293, DW_AT_TI_end_line(0xa85)
    5626              $C$DW$294       .dwtag  DW_TAG_TI_loop_range
    5627                      .dwattr $C$DW$294, DW_AT_low_pc($C$DW$L$_USB_initPLL$2$B)
    5628                      .dwattr $C$DW$294, DW_AT_high_pc($C$DW$L$_USB_initPLL$2$E)
    5629              $C$DW$295       .dwtag  DW_TAG_TI_loop_range
    5630                      .dwattr $C$DW$295, DW_AT_low_pc($C$DW$L$_USB_initPLL$3$B)
    5631                      .dwattr $C$DW$295, DW_AT_high_pc($C$DW$L$_USB_initPLL$3$E)
    5632                      .dwendtag $C$DW$293
    5633              
    5634                      .dwattr $C$DW$290, DW_AT_TI_end_file("../c5535_bsl_revc/ezdsp5535_v1/c55xx_csl/src/csl_usb.c")
    5635                      .dwattr $C$DW$290, DW_AT_TI_end_line(0xa89)
    5636                      .dwattr $C$DW$290, DW_AT_TI_end_column(0x01)
    5637                      .dwendentry
    5638                      .dwendtag $C$DW$290
    5639              
    5640 001aa5               .sect   ".text"
    5641                      .align 4
    5642                      .global _USB_setParams
    5643              
    5644              $C$DW$296       .dwtag  DW_TAG_subprogram, DW_AT_name("USB_setParams")
    5645                      .dwattr $C$DW$296, DW_AT_low_pc(_USB_setParams)
    5646                      .dwattr $C$DW$296, DW_AT_high_pc(0x00)
    5647                      .dwattr $C$DW$296, DW_AT_TI_symbol_name("_USB_setParams")
    5648                      .dwattr $C$DW$296, DW_AT_external
    5649                      .dwattr $C$DW$296, DW_AT_type(*$C$DW$T$75)
    5650                      .dwattr $C$DW$296, DW_AT_TI_begin_file("../c5535_bsl_revc/ezdsp5535_v1/c55xx_csl/src/csl_usb.c")
    5651                      .dwattr $C$DW$296, DW_AT_TI_begin_line(0xaaf)
    5652                      .dwattr $C$DW$296, DW_AT_TI_begin_column(0x0c)
    5653                      .dwattr $C$DW$296, DW_AT_TI_max_frame_size(0x08)
    5654                      .dwpsn  file "../c5535_bsl_revc/ezdsp5535_v1/c55xx_csl/src/csl_usb.c",line 2738,column 1,is_stmt,addr
    5655              
    5656                      .dwfde $C$DW$CIE, _USB_setParams
    5657              $C$DW$297       .dwtag  DW_TAG_formal_parameter, DW_AT_name("devNum")
    5658                      .dwattr $C$DW$297, DW_AT_TI_symbol_name("_devNum")
    5659                      .dwattr $C$DW$297, DW_AT_type(*$C$DW$T$68)
    5660                      .dwattr $C$DW$297, DW_AT_location[DW_OP_reg12]
    5661              $C$DW$298       .dwtag  DW_TAG_formal_parameter, DW_AT_name("hEpObj")
    5662                      .dwattr $C$DW$298, DW_AT_TI_symbol_name("_hEpObj")
    5663                      .dwattr $C$DW$298, DW_AT_type(*$C$DW$T$146)
TMS320C55x Assembler PC v4.4.1 Tue Oct 02 02:33:44 2018

Tools Copyright (c) 1996-2012 Texas Instruments Incorporated
csl_usb.asm                                                          PAGE  138

    5664                      .dwattr $C$DW$298, DW_AT_location[DW_OP_reg17]
    5665              $C$DW$299       .dwtag  DW_TAG_formal_parameter, DW_AT_name("pSofTmrCnt")
    5666                      .dwattr $C$DW$299, DW_AT_TI_symbol_name("_pSofTmrCnt")
    5667                      .dwattr $C$DW$299, DW_AT_type(*$C$DW$T$19)
    5668                      .dwattr $C$DW$299, DW_AT_location[DW_OP_reg13]
    5669              ;*******************************************************************************
    5670              ;* FUNCTION NAME: USB_setParams                                                *
    5671              ;*                                                                             *
    5672              ;*   Function Uses Regs : AC0,AC0,T0,T1,AR0,XAR0,AR1,AR2,XAR2,AR3,XAR3,AR4,    *
    5673              ;*                        XAR4,SP,CARRY,TC1,M40,SATA,SATD,RDM,FRCT,SMUL        *
    5674              ;*   Stack Frame        : Compact (No Frame Pointer, w/ debug)                 *
    5675              ;*   Total Frame Size   : 8 words                                              *
    5676              ;*                        (1 return address/alignment)                         *
    5677              ;*                        (7 local values)                                     *
    5678              ;*   Min System Stack   : 1 word                                               *
    5679              ;*******************************************************************************
    5680 001aa8       _USB_setParams:
    5681                      .dwcfi  cfa_offset, 1
    5682                      .dwcfi  save_reg_to_mem, 91, -1
    5683 001aa8 4EF9          AADD #-7, SP
    5684                      .dwcfi  cfa_offset, 8
    5685              $C$DW$300       .dwtag  DW_TAG_variable, DW_AT_name("devNum")
    5686                      .dwattr $C$DW$300, DW_AT_TI_symbol_name("_devNum")
    5687                      .dwattr $C$DW$300, DW_AT_type(*$C$DW$T$68)
    5688                      .dwattr $C$DW$300, DW_AT_location[DW_OP_bregx 0x24 0]
    5689              $C$DW$301       .dwtag  DW_TAG_variable, DW_AT_name("hEpObj")
    5690                      .dwattr $C$DW$301, DW_AT_TI_symbol_name("_hEpObj")
    5691                      .dwattr $C$DW$301, DW_AT_type(*$C$DW$T$146)
    5692                      .dwattr $C$DW$301, DW_AT_location[DW_OP_bregx 0x24 2]
    5693              $C$DW$302       .dwtag  DW_TAG_variable, DW_AT_name("pSofTmrCnt")
    5694                      .dwattr $C$DW$302, DW_AT_TI_symbol_name("_pSofTmrCnt")
    5695                      .dwattr $C$DW$302, DW_AT_type(*$C$DW$T$19)
    5696                      .dwattr $C$DW$302, DW_AT_location[DW_OP_bregx 0x24 4]
    5697              $C$DW$303       .dwtag  DW_TAG_variable, DW_AT_name("status")
    5698                      .dwattr $C$DW$303, DW_AT_TI_symbol_name("_status")
    5699                      .dwattr $C$DW$303, DW_AT_type(*$C$DW$T$75)
    5700                      .dwattr $C$DW$303, DW_AT_location[DW_OP_bregx 0x24 5]
    5701              $C$DW$304       .dwtag  DW_TAG_variable, DW_AT_name("looper")
    5702                      .dwattr $C$DW$304, DW_AT_TI_symbol_name("_looper")
    5703                      .dwattr $C$DW$304, DW_AT_type(*$C$DW$T$19)
    5704                      .dwattr $C$DW$304, DW_AT_location[DW_OP_bregx 0x24 6]
    5705 001aaa C508          MOV T1, *SP(#4) ; |2738| 
    5706 001aac EB04          MOV XAR0, dbl(*SP(#2))
         001aae 85   
    5707 001aaf C400          MOV T0, *SP(#0) ; |2738| 
    5708                      .dwpsn  file "../c5535_bsl_revc/ezdsp5535_v1/c55xx_csl/src/csl_usb.c",line 2742,column 2,is_stmt
    5709 001ab1 E60A          MOV #0, *SP(#5) ; |2742| 
         001ab3 00   
    5710                      .dwpsn  file "../c5535_bsl_revc/ezdsp5535_v1/c55xx_csl/src/csl_usb.c",line 2744,column 2,is_stmt
    5711 001ab4 A900          MOV *SP(#0), AR1 ; |2744| 
    5712 001ab6 6309          BCC $C$L170,AR1 == #0 ; |2744| 
    5713                                                      ; branchcc occurs ; |2744| 
    5714                      .dwpsn  file "../c5535_bsl_revc/ezdsp5535_v1/c55xx_csl/src/csl_usb.c",line 2746,column 3,is_stmt
    5715 001ab8 E60A          MOV #-6, *SP(#5) ; |2746| 
         001aba FA   
TMS320C55x Assembler PC v4.4.1 Tue Oct 02 02:33:44 2018

Tools Copyright (c) 1996-2012 Texas Instruments Incorporated
csl_usb.asm                                                          PAGE  139

    5716                      .dwpsn  file "../c5535_bsl_revc/ezdsp5535_v1/c55xx_csl/src/csl_usb.c",line 2747,column 2,is_stmt
    5717 001abb 0600          B $C$L172 ; |2747| 
         001abd 52   
    5718                                                      ; branch occurs ; |2747| 
    5719 001abe       $C$L170:    
    5720                      .dwpsn  file "../c5535_bsl_revc/ezdsp5535_v1/c55xx_csl/src/csl_usb.c",line 2750,column 8,is_stmt
    5721 001abe E60C          MOV #0, *SP(#6) ; |2750| 
         001ac0 00   
    5722                      .dwpsn  file "../c5535_bsl_revc/ezdsp5535_v1/c55xx_csl/src/csl_usb.c",line 2750,column 20,is_stmt
    5723              
    5724 001ac1 A90C          MOV *SP(#6), AR1 ; |2750| 
    5725 001ac3 3D8A  ||      MOV #8, AR2
    5726              
    5727 001ac5 1298          CMPU AR1 >= AR2, TC1 ; |2750| 
         001ac7 A4   
    5728 001ac8 0464          BCC $C$L172,TC1 ; |2750| 
         001aca 45   
    5729                                                      ; branchcc occurs ; |2750| 
    5730 001acb       $C$L171:    
    5731 001acb       $C$DW$L$_USB_setParams$4$B:
    5732                      .dwpsn  file "../c5535_bsl_revc/ezdsp5535_v1/c55xx_csl/src/csl_usb.c",line 2752,column 4,is_stmt
    5733 001acb ED04          MOV dbl(*SP(#2)), XAR3
         001acd BF   
    5734 001ace DF0C          MOV uns(*SP(#6)), AC0 ; |2752| 
         001ad0 05   
    5735 001ad1 5000          SFTL AC0, #1 ; |2752| 
    5736 001ad3 900A          MOV AC0, XAR2
    5737 001ad5 DF0C          MOV uns(*SP(#6)), AC0 ; |2752| 
         001ad7 05   
    5738              
    5739 001ad8 14A1          AADD XAR2, XAR3 ; |2752| 
         001ada B0   
    5740 001adb 5100  ||      SFTL AC0, #1 ; |2752| 
    5741              
    5742 001add 900A          MOV AC0, XAR2
    5743 001adf ED61          MOV dbl(*AR3), XAR4
         001ae1 CF   
    5744 001ae2 EC31          AMOV #_gUsbEpHandle, XAR3 ; |2752| 
         001ae4 BE00 
         001ae6 01AE-
    5745 001ae8 14A1          AADD XAR2, XAR3 ; |2752| 
         001aea B0   
    5746 001aeb EB61          MOV XAR4, dbl(*AR3)
         001aed C5   
    5747                      .dwpsn  file "../c5535_bsl_revc/ezdsp5535_v1/c55xx_csl/src/csl_usb.c",line 2754,column 4,is_stmt
    5748 001aee ED04          MOV dbl(*SP(#2)), XAR3
         001af0 BF   
    5749 001af1 DF0C          MOV uns(*SP(#6)), AC0 ; |2754| 
         001af3 05   
    5750 001af4 5000          SFTL AC0, #1 ; |2754| 
    5751 001af6 900A          MOV AC0, XAR2
    5752 001af8 14A1          AADD XAR2, XAR3 ; |2754| 
         001afa B0   
    5753 001afb ED61          MOV dbl(*AR3), XAR3
         001afd BF   
TMS320C55x Assembler PC v4.4.1 Tue Oct 02 02:33:44 2018

Tools Copyright (c) 1996-2012 Texas Instruments Incorporated
csl_usb.asm                                                          PAGE  140

    5754 001afe 90B0          MOV XAR3, AC0
    5755 001b00 6700          BCC $C$L172,AC0 == #0 ; |2754| 
    5756                                                      ; branchcc occurs ; |2754| 
    5757 001b02       $C$DW$L$_USB_setParams$4$E:
    5758 001b02       $C$DW$L$_USB_setParams$5$B:
    5759                      .dwpsn  file "../c5535_bsl_revc/ezdsp5535_v1/c55xx_csl/src/csl_usb.c",line 2756,column 5,is_stmt
    5760                      .dwpsn  file "../c5535_bsl_revc/ezdsp5535_v1/c55xx_csl/src/csl_usb.c",line 2750,column 53,is_stmt
    5761 001b02 F70C          ADD #1, *SP(#6) ; |2750| 
         001b04 0001 
    5762                      .dwpsn  file "../c5535_bsl_revc/ezdsp5535_v1/c55xx_csl/src/csl_usb.c",line 2750,column 20,is_stmt
    5763              
    5764 001b06 A90C          MOV *SP(#6), AR1 ; |2750| 
    5765 001b08 3D8A  ||      MOV #8, AR2
    5766              
    5767 001b0a 1294          CMPU AR1 < AR2, TC1 ; |2750| 
         001b0c A4   
    5768 001b0d 0464          BCC $C$L171,TC1 ; |2750| 
         001b0f BB   
    5769                                                      ; branchcc occurs ; |2750| 
    5770 001b10       $C$DW$L$_USB_setParams$5$E:
    5771 001b10       $C$L172:    
    5772                      .dwpsn  file "../c5535_bsl_revc/ezdsp5535_v1/c55xx_csl/src/csl_usb.c",line 2761,column 2,is_stmt
    5773 001b10 A40A          MOV *SP(#5), T0 ; |2761| 
    5774                      .dwpsn  file "../c5535_bsl_revc/ezdsp5535_v1/c55xx_csl/src/csl_usb.c",line 2762,column 1,is_stmt
    5775 001b12 4E07          AADD #7, SP
    5776                      .dwcfi  cfa_offset, 1
    5777              $C$DW$305       .dwtag  DW_TAG_TI_branch
    5778                      .dwattr $C$DW$305, DW_AT_low_pc(0x00)
    5779                      .dwattr $C$DW$305, DW_AT_TI_return
    5780 001b14 4804          RET
    5781                                                      ; return occurs
    5782              
    5783              $C$DW$306       .dwtag  DW_TAG_TI_loop
    5784                      .dwattr $C$DW$306, DW_AT_name("F:\eZdsp-DBG-sim\tmp1\c55x-sim2\foo\Debug\csl_usb.asm:$C$L171:1:153847
    5785                      .dwattr $C$DW$306, DW_AT_TI_begin_file("../c5535_bsl_revc/ezdsp5535_v1/c55xx_csl/src/csl_usb.c")
    5786                      .dwattr $C$DW$306, DW_AT_TI_begin_line(0xabe)
    5787                      .dwattr $C$DW$306, DW_AT_TI_end_line(0xac6)
    5788              $C$DW$307       .dwtag  DW_TAG_TI_loop_range
    5789                      .dwattr $C$DW$307, DW_AT_low_pc($C$DW$L$_USB_setParams$4$B)
    5790                      .dwattr $C$DW$307, DW_AT_high_pc($C$DW$L$_USB_setParams$4$E)
    5791              $C$DW$308       .dwtag  DW_TAG_TI_loop_range
    5792                      .dwattr $C$DW$308, DW_AT_low_pc($C$DW$L$_USB_setParams$5$B)
    5793                      .dwattr $C$DW$308, DW_AT_high_pc($C$DW$L$_USB_setParams$5$E)
    5794                      .dwendtag $C$DW$306
    5795              
    5796                      .dwattr $C$DW$296, DW_AT_TI_end_file("../c5535_bsl_revc/ezdsp5535_v1/c55xx_csl/src/csl_usb.c")
    5797                      .dwattr $C$DW$296, DW_AT_TI_end_line(0xaca)
    5798                      .dwattr $C$DW$296, DW_AT_TI_end_column(0x01)
    5799                      .dwendentry
    5800                      .dwendtag $C$DW$296
    5801              
    5802 001b16               .sect   ".text"
    5803                      .align 4
    5804                      .global _USB_getMaxPower
    5805              
TMS320C55x Assembler PC v4.4.1 Tue Oct 02 02:33:44 2018

Tools Copyright (c) 1996-2012 Texas Instruments Incorporated
csl_usb.asm                                                          PAGE  141

    5806              $C$DW$309       .dwtag  DW_TAG_subprogram, DW_AT_name("USB_getMaxPower")
    5807                      .dwattr $C$DW$309, DW_AT_low_pc(_USB_getMaxPower)
    5808                      .dwattr $C$DW$309, DW_AT_high_pc(0x00)
    5809                      .dwattr $C$DW$309, DW_AT_TI_symbol_name("_USB_getMaxPower")
    5810                      .dwattr $C$DW$309, DW_AT_external
    5811                      .dwattr $C$DW$309, DW_AT_type(*$C$DW$T$80)
    5812                      .dwattr $C$DW$309, DW_AT_TI_begin_file("../c5535_bsl_revc/ezdsp5535_v1/c55xx_csl/src/csl_usb.c")
    5813                      .dwattr $C$DW$309, DW_AT_TI_begin_line(0xaf4)
    5814                      .dwattr $C$DW$309, DW_AT_TI_begin_column(0x06)
    5815                      .dwattr $C$DW$309, DW_AT_TI_max_frame_size(0x06)
    5816                      .dwpsn  file "../c5535_bsl_revc/ezdsp5535_v1/c55xx_csl/src/csl_usb.c",line 2805,column 1,is_stmt,addr
    5817              
    5818                      .dwfde $C$DW$CIE, _USB_getMaxPower
    5819              $C$DW$310       .dwtag  DW_TAG_formal_parameter, DW_AT_name("devNum")
    5820                      .dwattr $C$DW$310, DW_AT_TI_symbol_name("_devNum")
    5821                      .dwattr $C$DW$310, DW_AT_type(*$C$DW$T$68)
    5822                      .dwattr $C$DW$310, DW_AT_location[DW_OP_reg12]
    5823              ;*******************************************************************************
    5824              ;* FUNCTION NAME: USB_getMaxPower                                              *
    5825              ;*                                                                             *
    5826              ;*   Function Uses Regs : T0,AR1,AR3,XAR3,SP,M40,SATA,SATD,RDM,FRCT,SMUL       *
    5827              ;*   Stack Frame        : Compact (No Frame Pointer, w/ debug)                 *
    5828              ;*   Total Frame Size   : 6 words                                              *
    5829              ;*                        (2 return address/alignment)                         *
    5830              ;*                        (4 local values)                                     *
    5831              ;*   Min System Stack   : 1 word                                               *
    5832              ;*******************************************************************************
    5833 001b18       _USB_getMaxPower:
    5834                      .dwcfi  cfa_offset, 1
    5835                      .dwcfi  save_reg_to_mem, 91, -1
    5836 001b18 4EFB          AADD #-5, SP
    5837                      .dwcfi  cfa_offset, 6
    5838              $C$DW$311       .dwtag  DW_TAG_variable, DW_AT_name("devNum")
    5839                      .dwattr $C$DW$311, DW_AT_TI_symbol_name("_devNum")
    5840                      .dwattr $C$DW$311, DW_AT_type(*$C$DW$T$68)
    5841                      .dwattr $C$DW$311, DW_AT_location[DW_OP_bregx 0x24 0]
    5842              $C$DW$312       .dwtag  DW_TAG_variable, DW_AT_name("pContext")
    5843                      .dwattr $C$DW$312, DW_AT_TI_symbol_name("_pContext")
    5844                      .dwattr $C$DW$312, DW_AT_type(*$C$DW$T$142)
    5845                      .dwattr $C$DW$312, DW_AT_location[DW_OP_bregx 0x24 2]
    5846 001b1a C400          MOV T0, *SP(#0) ; |2805| 
    5847                      .dwpsn  file "../c5535_bsl_revc/ezdsp5535_v1/c55xx_csl/src/csl_usb.c",line 2808,column 2,is_stmt
    5848 001b1c EC31          AMOV #_gUsbContext, XAR3 ; |2808| 
         001b1e BE00 
         001b20 0002-
    5849 001b22 EB04          MOV XAR3, dbl(*SP(#2))
         001b24 B5   
    5850                      .dwpsn  file "../c5535_bsl_revc/ezdsp5535_v1/c55xx_csl/src/csl_usb.c",line 2810,column 2,is_stmt
    5851 001b25 A900          MOV *SP(#0), AR1 ; |2810| 
    5852 001b27 6219          BCC $C$L173,AR1 != #0 ; |2810| 
    5853                                                      ; branchcc occurs ; |2810| 
    5854                      .dwpsn  file "../c5535_bsl_revc/ezdsp5535_v1/c55xx_csl/src/csl_usb.c",line 2812,column 3,is_stmt
    5855 001b29 A473          MOV *AR3(short(#1)), T0 ; |2812| 
    5856 001b2b 4A04          B $C$L174 ; |2812| 
    5857                                                      ; branch occurs ; |2812| 
TMS320C55x Assembler PC v4.4.1 Tue Oct 02 02:33:44 2018

Tools Copyright (c) 1996-2012 Texas Instruments Incorporated
csl_usb.asm                                                          PAGE  142

    5858 001b2d       $C$L173:    
    5859                      .dwpsn  file "../c5535_bsl_revc/ezdsp5535_v1/c55xx_csl/src/csl_usb.c",line 2816,column 3,is_stmt
    5860 001b2d 76FF          MOV #65535, T0 ; |2816| 
         001b2f FF48 
    5861 001b31       $C$L174:    
    5862                      .dwpsn  file "../c5535_bsl_revc/ezdsp5535_v1/c55xx_csl/src/csl_usb.c",line 2818,column 1,is_stmt
    5863 001b31 4E05          AADD #5, SP
    5864                      .dwcfi  cfa_offset, 1
    5865              $C$DW$313       .dwtag  DW_TAG_TI_branch
    5866                      .dwattr $C$DW$313, DW_AT_low_pc(0x00)
    5867                      .dwattr $C$DW$313, DW_AT_TI_return
    5868 001b33 4804          RET
    5869                                                      ; return occurs
    5870                      .dwattr $C$DW$309, DW_AT_TI_end_file("../c5535_bsl_revc/ezdsp5535_v1/c55xx_csl/src/csl_usb.c")
    5871                      .dwattr $C$DW$309, DW_AT_TI_end_line(0xb02)
    5872                      .dwattr $C$DW$309, DW_AT_TI_end_column(0x01)
    5873                      .dwendentry
    5874                      .dwendtag $C$DW$309
    5875              
    5876 001b35               .sect   ".text"
    5877                      .align 4
    5878                      .global _USB_setFullSpeedMode
    5879              
    5880              $C$DW$314       .dwtag  DW_TAG_subprogram, DW_AT_name("USB_setFullSpeedMode")
    5881                      .dwattr $C$DW$314, DW_AT_low_pc(_USB_setFullSpeedMode)
    5882                      .dwattr $C$DW$314, DW_AT_high_pc(0x00)
    5883                      .dwattr $C$DW$314, DW_AT_TI_symbol_name("_USB_setFullSpeedMode")
    5884                      .dwattr $C$DW$314, DW_AT_external
    5885                      .dwattr $C$DW$314, DW_AT_TI_begin_file("../c5535_bsl_revc/ezdsp5535_v1/c55xx_csl/src/csl_usb.c")
    5886                      .dwattr $C$DW$314, DW_AT_TI_begin_line(0xb2a)
    5887                      .dwattr $C$DW$314, DW_AT_TI_begin_column(0x06)
    5888                      .dwattr $C$DW$314, DW_AT_TI_max_frame_size(0x08)
    5889                      .dwpsn  file "../c5535_bsl_revc/ezdsp5535_v1/c55xx_csl/src/csl_usb.c",line 2859,column 1,is_stmt,addr
    5890              
    5891                      .dwfde $C$DW$CIE, _USB_setFullSpeedMode
    5892              $C$DW$315       .dwtag  DW_TAG_formal_parameter, DW_AT_name("ep0DataSize")
    5893                      .dwattr $C$DW$315, DW_AT_TI_symbol_name("_ep0DataSize")
    5894                      .dwattr $C$DW$315, DW_AT_type(*$C$DW$T$19)
    5895                      .dwattr $C$DW$315, DW_AT_location[DW_OP_reg12]
    5896              ;*******************************************************************************
    5897              ;* FUNCTION NAME: USB_setFullSpeedMode                                         *
    5898              ;*                                                                             *
    5899              ;*   Function Uses Regs : AC0,AC0,T0,AR1,AR3,XAR3,SP,M40,SATA,SATD,RDM,FRCT,   *
    5900              ;*                        SMUL                                                 *
    5901              ;*   Stack Frame        : Compact (No Frame Pointer, w/ debug)                 *
    5902              ;*   Total Frame Size   : 8 words                                              *
    5903              ;*                        (2 return address/alignment)                         *
    5904              ;*                        (6 local values)                                     *
    5905              ;*   Min System Stack   : 1 word                                               *
    5906              ;*******************************************************************************
    5907 001b38       _USB_setFullSpeedMode:
    5908                      .dwcfi  cfa_offset, 1
    5909                      .dwcfi  save_reg_to_mem, 91, -1
    5910 001b38 4EF9          AADD #-7, SP
    5911                      .dwcfi  cfa_offset, 8
TMS320C55x Assembler PC v4.4.1 Tue Oct 02 02:33:44 2018

Tools Copyright (c) 1996-2012 Texas Instruments Incorporated
csl_usb.asm                                                          PAGE  143

    5912              $C$DW$316       .dwtag  DW_TAG_variable, DW_AT_name("ep0DataSize")
    5913                      .dwattr $C$DW$316, DW_AT_TI_symbol_name("_ep0DataSize")
    5914                      .dwattr $C$DW$316, DW_AT_type(*$C$DW$T$19)
    5915                      .dwattr $C$DW$316, DW_AT_location[DW_OP_bregx 0x24 0]
    5916              $C$DW$317       .dwtag  DW_TAG_variable, DW_AT_name("pContext")
    5917                      .dwattr $C$DW$317, DW_AT_TI_symbol_name("_pContext")
    5918                      .dwattr $C$DW$317, DW_AT_type(*$C$DW$T$142)
    5919                      .dwattr $C$DW$317, DW_AT_location[DW_OP_bregx 0x24 2]
    5920              $C$DW$318       .dwtag  DW_TAG_variable, DW_AT_name("peps")
    5921                      .dwattr $C$DW$318, DW_AT_TI_symbol_name("_peps")
    5922                      .dwattr $C$DW$318, DW_AT_type(*$C$DW$T$147)
    5923                      .dwattr $C$DW$318, DW_AT_location[DW_OP_bregx 0x24 4]
    5924 001b3a C400          MOV T0, *SP(#0) ; |2859| 
    5925                      .dwpsn  file "../c5535_bsl_revc/ezdsp5535_v1/c55xx_csl/src/csl_usb.c",line 2863,column 2,is_stmt
    5926 001b3c EC31          AMOV #_gUsbContext, XAR3 ; |2863| 
         001b3e BE00 
         001b40 0002-
    5927 001b42 EB04          MOV XAR3, dbl(*SP(#2))
         001b44 B5   
    5928                      .dwpsn  file "../c5535_bsl_revc/ezdsp5535_v1/c55xx_csl/src/csl_usb.c",line 2864,column 2,is_stmt
    5929 001b45 ED6D          MOV dbl(*AR3(#98)), XAR3
         001b47 BF00 
         001b49 62   
    5930 001b4a EB08          MOV XAR3, dbl(*SP(#4))
         001b4c B5   
    5931                      .dwpsn  file "../c5535_bsl_revc/ezdsp5535_v1/c55xx_csl/src/csl_usb.c",line 2865,column 2,is_stmt
    5932 001b4d DF00          MOV uns(*SP(#0)), AC0 ; |2865| 
         001b4f 05   
    5933 001b50 EB79          MOV AC0, dbl(*AR3(short(#4))) ; |2865| 
         001b52 08   
    5934                      .dwpsn  file "../c5535_bsl_revc/ezdsp5535_v1/c55xx_csl/src/csl_usb.c",line 2867,column 2,is_stmt
    5935 001b53 7604          MOV #1025, T0 ; |2867| 
         001b55 0148 
    5936 001b57 AB31          MOV *(#_usbRegisters), AR3 ; |2867| 
         001b59 0000 
         001b5b 00-  
    5937 001b5c A96B          MOV port(*AR3(T0)), AR1 ; |2867| 
         001b5e 99   
    5938 001b5f EC1A          BCLR @#13, AR1 ; |2867| 
         001b61 92   
    5939 001b62 C96B          MOV AR1, port(*AR3(T0)) ; |2867| 
         001b64 9A   
    5940                      .dwpsn  file "../c5535_bsl_revc/ezdsp5535_v1/c55xx_csl/src/csl_usb.c",line 2868,column 1,is_stmt
    5941 001b65 4E07          AADD #7, SP
    5942                      .dwcfi  cfa_offset, 1
    5943              $C$DW$319       .dwtag  DW_TAG_TI_branch
    5944                      .dwattr $C$DW$319, DW_AT_low_pc(0x00)
    5945                      .dwattr $C$DW$319, DW_AT_TI_return
    5946 001b67 4804          RET
    5947                                                      ; return occurs
    5948                      .dwattr $C$DW$314, DW_AT_TI_end_file("../c5535_bsl_revc/ezdsp5535_v1/c55xx_csl/src/csl_usb.c")
    5949                      .dwattr $C$DW$314, DW_AT_TI_end_line(0xb34)
    5950                      .dwattr $C$DW$314, DW_AT_TI_end_column(0x01)
    5951                      .dwendentry
    5952                      .dwendtag $C$DW$314
TMS320C55x Assembler PC v4.4.1 Tue Oct 02 02:33:44 2018

Tools Copyright (c) 1996-2012 Texas Instruments Incorporated
csl_usb.asm                                                          PAGE  144

    5953              
    5954 001b69               .sect   ".text"
    5955                      .align 4
    5956                      .global _USB_getDataCountReadFromFifo
    5957              
    5958              $C$DW$320       .dwtag  DW_TAG_subprogram, DW_AT_name("USB_getDataCountReadFromFifo")
    5959                      .dwattr $C$DW$320, DW_AT_low_pc(_USB_getDataCountReadFromFifo)
    5960                      .dwattr $C$DW$320, DW_AT_high_pc(0x00)
    5961                      .dwattr $C$DW$320, DW_AT_TI_symbol_name("_USB_getDataCountReadFromFifo")
    5962                      .dwattr $C$DW$320, DW_AT_external
    5963                      .dwattr $C$DW$320, DW_AT_type(*$C$DW$T$19)
    5964                      .dwattr $C$DW$320, DW_AT_TI_begin_file("../c5535_bsl_revc/ezdsp5535_v1/c55xx_csl/src/csl_usb.c")
    5965                      .dwattr $C$DW$320, DW_AT_TI_begin_line(0xb62)
    5966                      .dwattr $C$DW$320, DW_AT_TI_begin_column(0x08)
    5967                      .dwattr $C$DW$320, DW_AT_TI_max_frame_size(0x08)
    5968                      .dwpsn  file "../c5535_bsl_revc/ezdsp5535_v1/c55xx_csl/src/csl_usb.c",line 2915,column 1,is_stmt,addr
    5969              
    5970                      .dwfde $C$DW$CIE, _USB_getDataCountReadFromFifo
    5971              $C$DW$321       .dwtag  DW_TAG_formal_parameter, DW_AT_name("hEp")
    5972                      .dwattr $C$DW$321, DW_AT_TI_symbol_name("_hEp")
    5973                      .dwattr $C$DW$321, DW_AT_type(*$C$DW$T$102)
    5974                      .dwattr $C$DW$321, DW_AT_location[DW_OP_reg17]
    5975              ;*******************************************************************************
    5976              ;* FUNCTION NAME: USB_getDataCountReadFromFifo                                 *
    5977              ;*                                                                             *
    5978              ;*   Function Uses Regs : AC0,AC0,AC1,AC1,T0,AR0,XAR0,AR1,AR2,XAR2,AR3,XAR3,SP,*
    5979              ;*                        CARRY,M40,SATA,SATD,RDM,FRCT,SMUL                    *
    5980              ;*   Stack Frame        : Compact (No Frame Pointer, w/ debug)                 *
    5981              ;*   Total Frame Size   : 8 words                                              *
    5982              ;*                        (1 return address/alignment)                         *
    5983              ;*                        (7 local values)                                     *
    5984              ;*   Min System Stack   : 1 word                                               *
    5985              ;*******************************************************************************
    5986 001b6c       _USB_getDataCountReadFromFifo:
    5987                      .dwcfi  cfa_offset, 1
    5988                      .dwcfi  save_reg_to_mem, 91, -1
    5989 001b6c 4EF9          AADD #-7, SP
    5990                      .dwcfi  cfa_offset, 8
    5991              $C$DW$322       .dwtag  DW_TAG_variable, DW_AT_name("hEp")
    5992                      .dwattr $C$DW$322, DW_AT_TI_symbol_name("_hEp")
    5993                      .dwattr $C$DW$322, DW_AT_type(*$C$DW$T$102)
    5994                      .dwattr $C$DW$322, DW_AT_location[DW_OP_bregx 0x24 0]
    5995              $C$DW$323       .dwtag  DW_TAG_variable, DW_AT_name("peps")
    5996                      .dwattr $C$DW$323, DW_AT_TI_symbol_name("_peps")
    5997                      .dwattr $C$DW$323, DW_AT_type(*$C$DW$T$147)
    5998                      .dwattr $C$DW$323, DW_AT_location[DW_OP_bregx 0x24 2]
    5999              $C$DW$324       .dwtag  DW_TAG_variable, DW_AT_name("pContext")
    6000                      .dwattr $C$DW$324, DW_AT_TI_symbol_name("_pContext")
    6001                      .dwattr $C$DW$324, DW_AT_type(*$C$DW$T$142)
    6002                      .dwattr $C$DW$324, DW_AT_location[DW_OP_bregx 0x24 4]
    6003              $C$DW$325       .dwtag  DW_TAG_variable, DW_AT_name("fifoDataCount")
    6004                      .dwattr $C$DW$325, DW_AT_TI_symbol_name("_fifoDataCount")
    6005                      .dwattr $C$DW$325, DW_AT_type(*$C$DW$T$19)
    6006                      .dwattr $C$DW$325, DW_AT_location[DW_OP_bregx 0x24 6]
    6007 001b6e EB00          MOV XAR0, dbl(*SP(#0))
TMS320C55x Assembler PC v4.4.1 Tue Oct 02 02:33:44 2018

Tools Copyright (c) 1996-2012 Texas Instruments Incorporated
csl_usb.asm                                                          PAGE  145

         001b70 85   
    6008                      .dwpsn  file "../c5535_bsl_revc/ezdsp5535_v1/c55xx_csl/src/csl_usb.c",line 2920,column 2,is_stmt
    6009 001b71 3C00          MOV #0, AC0 ; |2920| 
    6010 001b73 EB04          MOV AC0, dbl(*SP(#2))
         001b75 08   
    6011                      .dwpsn  file "../c5535_bsl_revc/ezdsp5535_v1/c55xx_csl/src/csl_usb.c",line 2921,column 2,is_stmt
    6012 001b76 EC31          AMOV #_gUsbContext, XAR3 ; |2921| 
         001b78 BE00 
         001b7a 0002-
    6013 001b7c EB08          MOV XAR3, dbl(*SP(#4))
         001b7e B5   
    6014                      .dwpsn  file "../c5535_bsl_revc/ezdsp5535_v1/c55xx_csl/src/csl_usb.c",line 2922,column 2,is_stmt
    6015 001b7f E60C          MOV #0, *SP(#6) ; |2922| 
         001b81 00   
    6016                      .dwpsn  file "../c5535_bsl_revc/ezdsp5535_v1/c55xx_csl/src/csl_usb.c",line 2924,column 2,is_stmt
    6017 001b82 ED00          MOV dbl(*SP(#0)), XAR3
         001b84 BF   
    6018 001b85 90B0          MOV XAR3, AC0
    6019 001b87 0400          BCC $C$L175,AC0 == #0 ; |2924| 
         001b89 31   
    6020                                                      ; branchcc occurs ; |2924| 
    6021                      .dwpsn  file "../c5535_bsl_revc/ezdsp5535_v1/c55xx_csl/src/csl_usb.c",line 2926,column 3,is_stmt
    6022 001b8a A961          MOV *AR3, AR1 ; |2926| 
    6023 001b8c 2290          MOV AR1, AC0
    6024 001b8e ED08          MOV dbl(*SP(#4)), XAR3
         001b90 BF   
    6025 001b91 1005          SFTS AC0, #-2, AC0 ; |2926| 
         001b93 3E   
    6026 001b94 76E0          BFXTR #0xe000, AC0, AR2 ; |2926| 
         001b96 00A0 
    6027 001b98 249A          ADD AR1, AR2 ; |2926| 
    6028 001b9a 7DFF          AND #0xfffffff8, AR2, AR2 ; |2926| 
         001b9c F8AA 
    6029 001b9e ED6D          MOV dbl(*AR3(#98)), XAR3
         001ba0 BF00 
         001ba2 62   
    6030 001ba3 26A9          SUB AR2, AR1 ; |2926| 
    6031 001ba5 2291          MOV AR1, AC1
    6032 001ba7 1015          SFTS AC1, #1, AC0 ; |2926| 
         001ba9 01   
    6033 001baa 1013          ADD AC1 << #4, AC0 ; |2926| 
         001bac 04   
    6034 001bad 900A          MOV AC0, XAR2
    6035              
    6036 001baf 8E04          MOV XAR3, dbl(*SP(#2))
         001bb1 BB10 
         001bb3 B5A1 
    6037              ||      AADD XAR2, XAR3 ; |2926| 
    6038              
    6039                      .dwpsn  file "../c5535_bsl_revc/ezdsp5535_v1/c55xx_csl/src/csl_usb.c",line 2928,column 3,is_stmt
    6040 001bb5 A96D          MOV *AR3(#13), AR1 ; |2928| 
         001bb7 000D 
    6041 001bb9 C90C          MOV AR1, *SP(#6) ; |2928| 
    6042 001bbb       $C$L175:    
    6043                      .dwpsn  file "../c5535_bsl_revc/ezdsp5535_v1/c55xx_csl/src/csl_usb.c",line 2931,column 2,is_stmt
TMS320C55x Assembler PC v4.4.1 Tue Oct 02 02:33:44 2018

Tools Copyright (c) 1996-2012 Texas Instruments Incorporated
csl_usb.asm                                                          PAGE  146

    6044 001bbb A40C          MOV *SP(#6), T0 ; |2931| 
    6045                      .dwpsn  file "../c5535_bsl_revc/ezdsp5535_v1/c55xx_csl/src/csl_usb.c",line 2932,column 1,is_stmt
    6046 001bbd 4E07          AADD #7, SP
    6047                      .dwcfi  cfa_offset, 1
    6048              $C$DW$326       .dwtag  DW_TAG_TI_branch
    6049                      .dwattr $C$DW$326, DW_AT_low_pc(0x00)
    6050                      .dwattr $C$DW$326, DW_AT_TI_return
    6051 001bbf 4804          RET
    6052                                                      ; return occurs
    6053                      .dwattr $C$DW$320, DW_AT_TI_end_file("../c5535_bsl_revc/ezdsp5535_v1/c55xx_csl/src/csl_usb.c")
    6054                      .dwattr $C$DW$320, DW_AT_TI_end_line(0xb74)
    6055                      .dwattr $C$DW$320, DW_AT_TI_end_column(0x01)
    6056                      .dwendentry
    6057                      .dwendtag $C$DW$320
    6058              
    6059 001bc1               .sect   ".text"
    6060                      .align 4
    6061                      .global _USB_findFifoSize
    6062              
    6063              $C$DW$327       .dwtag  DW_TAG_subprogram, DW_AT_name("USB_findFifoSize")
    6064                      .dwattr $C$DW$327, DW_AT_low_pc(_USB_findFifoSize)
    6065                      .dwattr $C$DW$327, DW_AT_high_pc(0x00)
    6066                      .dwattr $C$DW$327, DW_AT_TI_symbol_name("_USB_findFifoSize")
    6067                      .dwattr $C$DW$327, DW_AT_external
    6068                      .dwattr $C$DW$327, DW_AT_type(*$C$DW$T$19)
    6069                      .dwattr $C$DW$327, DW_AT_TI_begin_file("../c5535_bsl_revc/ezdsp5535_v1/c55xx_csl/src/csl_usb.c")
    6070                      .dwattr $C$DW$327, DW_AT_TI_begin_line(0xb77)
    6071                      .dwattr $C$DW$327, DW_AT_TI_begin_column(0x08)
    6072                      .dwattr $C$DW$327, DW_AT_TI_max_frame_size(0x06)
    6073                      .dwpsn  file "../c5535_bsl_revc/ezdsp5535_v1/c55xx_csl/src/csl_usb.c",line 2936,column 1,is_stmt,addr
    6074              
    6075                      .dwfde $C$DW$CIE, _USB_findFifoSize
    6076              $C$DW$328       .dwtag  DW_TAG_formal_parameter, DW_AT_name("maxPktSize")
    6077                      .dwattr $C$DW$328, DW_AT_TI_symbol_name("_maxPktSize")
    6078                      .dwattr $C$DW$328, DW_AT_type(*$C$DW$T$19)
    6079                      .dwattr $C$DW$328, DW_AT_location[DW_OP_reg12]
    6080              $C$DW$329       .dwtag  DW_TAG_formal_parameter, DW_AT_name("xferType")
    6081                      .dwattr $C$DW$329, DW_AT_TI_symbol_name("_xferType")
    6082                      .dwattr $C$DW$329, DW_AT_type(*$C$DW$T$110)
    6083                      .dwattr $C$DW$329, DW_AT_location[DW_OP_reg13]
    6084              ;*******************************************************************************
    6085              ;* FUNCTION NAME: USB_findFifoSize                                             *
    6086              ;*                                                                             *
    6087              ;*   Function Uses Regs : T0,T1,AR1,AR2,AR3,XAR3,SP,TC1,M40,SATA,SATD,RDM,FRCT,*
    6088              ;*                        SMUL                                                 *
    6089              ;*   Stack Frame        : Compact (No Frame Pointer, w/ debug)                 *
    6090              ;*   Total Frame Size   : 6 words                                              *
    6091              ;*                        (1 return address/alignment)                         *
    6092              ;*                        (5 local values)                                     *
    6093              ;*   Min System Stack   : 1 word                                               *
    6094              ;*******************************************************************************
    6095 001bc4       _USB_findFifoSize:
    6096                      .dwcfi  cfa_offset, 1
    6097                      .dwcfi  save_reg_to_mem, 91, -1
    6098 001bc4 4EFB          AADD #-5, SP
TMS320C55x Assembler PC v4.4.1 Tue Oct 02 02:33:44 2018

Tools Copyright (c) 1996-2012 Texas Instruments Incorporated
csl_usb.asm                                                          PAGE  147

    6099                      .dwcfi  cfa_offset, 6
    6100              $C$DW$330       .dwtag  DW_TAG_variable, DW_AT_name("maxPktSize")
    6101                      .dwattr $C$DW$330, DW_AT_TI_symbol_name("_maxPktSize")
    6102                      .dwattr $C$DW$330, DW_AT_type(*$C$DW$T$19)
    6103                      .dwattr $C$DW$330, DW_AT_location[DW_OP_bregx 0x24 0]
    6104              $C$DW$331       .dwtag  DW_TAG_variable, DW_AT_name("xferType")
    6105                      .dwattr $C$DW$331, DW_AT_TI_symbol_name("_xferType")
    6106                      .dwattr $C$DW$331, DW_AT_type(*$C$DW$T$110)
    6107                      .dwattr $C$DW$331, DW_AT_location[DW_OP_bregx 0x24 1]
    6108              $C$DW$332       .dwtag  DW_TAG_variable, DW_AT_name("pContext")
    6109                      .dwattr $C$DW$332, DW_AT_TI_symbol_name("_pContext")
    6110                      .dwattr $C$DW$332, DW_AT_type(*$C$DW$T$142)
    6111                      .dwattr $C$DW$332, DW_AT_location[DW_OP_bregx 0x24 2]
    6112              $C$DW$333       .dwtag  DW_TAG_variable, DW_AT_name("fifoSize")
    6113                      .dwattr $C$DW$333, DW_AT_TI_symbol_name("_fifoSize")
    6114                      .dwattr $C$DW$333, DW_AT_type(*$C$DW$T$19)
    6115                      .dwattr $C$DW$333, DW_AT_location[DW_OP_bregx 0x24 4]
    6116 001bc6 C502          MOV T1, *SP(#1) ; |2936| 
    6117 001bc8 C400          MOV T0, *SP(#0) ; |2936| 
    6118                      .dwpsn  file "../c5535_bsl_revc/ezdsp5535_v1/c55xx_csl/src/csl_usb.c",line 2940,column 2,is_stmt
    6119 001bca EC31          AMOV #_gUsbContext, XAR3 ; |2940| 
         001bcc BE00 
         001bce 0002-
    6120 001bd0 EB04          MOV XAR3, dbl(*SP(#2))
         001bd2 B5   
    6121                      .dwpsn  file "../c5535_bsl_revc/ezdsp5535_v1/c55xx_csl/src/csl_usb.c",line 2944,column 2,is_stmt
    6122 001bd3 F002          CMP *SP(#1) == #3, TC1 ; |2944| 
         001bd5 0003 
    6123 001bd7 6D74          BCC $C$L187,!TC1 ; |2944| 
         001bd9 00AB 
    6124                                                      ; branchcc occurs ; |2944| 
    6125                      .dwpsn  file "../c5535_bsl_revc/ezdsp5535_v1/c55xx_csl/src/csl_usb.c",line 2947,column 9,is_stmt
    6126 001bdb A96D          MOV *AR3(#100), AR1 ; |2947| 
         001bdd 0064 
    6127 001bdf 0409          BCC $C$L181,AR1 == #0 ; |2947| 
         001be1 52   
    6128                                                      ; branchcc occurs ; |2947| 
    6129                      .dwpsn  file "../c5535_bsl_revc/ezdsp5535_v1/c55xx_csl/src/csl_usb.c",line 2950,column 4,is_stmt
    6130 001be2 7604          MOV #1024, AR2 ; |2950| 
         001be4 00A8 
    6131 001be6 A900          MOV *SP(#0), AR1 ; |2950| 
    6132 001be8 12A8          CMPU AR1 <= AR2, TC1 ; |2950| 
         001bea 94   
    6133 001beb 62E4          BCC $C$L176,TC1 ; |2950| 
    6134                                                      ; branchcc occurs ; |2950| 
    6135                      .dwpsn  file "../c5535_bsl_revc/ezdsp5535_v1/c55xx_csl/src/csl_usb.c",line 2953,column 5,is_stmt
    6136 001bed 3C04          MOV #0, T0
    6137 001bef 0601          B $C$L202 ; |2953| 
         001bf1 50   
    6138                                                      ; branch occurs ; |2953| 
    6139 001bf2       $C$L176:    
    6140                      .dwpsn  file "../c5535_bsl_revc/ezdsp5535_v1/c55xx_csl/src/csl_usb.c",line 2957,column 5,is_stmt
    6141 001bf2 7602          MOV #512, AR2 ; |2957| 
         001bf4 00A8 
    6142 001bf6 12A8          CMPU AR1 <= AR2, TC1 ; |2957| 
TMS320C55x Assembler PC v4.4.1 Tue Oct 02 02:33:44 2018

Tools Copyright (c) 1996-2012 Texas Instruments Incorporated
csl_usb.asm                                                          PAGE  148

         001bf8 94   
    6143 001bf9 6364          BCC $C$L177,TC1 ; |2957| 
    6144                                                      ; branchcc occurs ; |2957| 
    6145                      .dwpsn  file "../c5535_bsl_revc/ezdsp5535_v1/c55xx_csl/src/csl_usb.c",line 2958,column 6,is_stmt
    6146 001bfb E608          MOV #7, *SP(#4) ; |2958| 
         001bfd 07   
    6147 001bfe 0601          B $C$L201 ; |2958| 
         001c00 3F   
    6148                                                      ; branch occurs ; |2958| 
    6149 001c01       $C$L177:    
    6150                      .dwpsn  file "../c5535_bsl_revc/ezdsp5535_v1/c55xx_csl/src/csl_usb.c",line 2962,column 6,is_stmt
    6151 001c01 7601          MOV #256, AR2 ; |2962| 
         001c03 00A8 
    6152 001c05 12A8          CMPU AR1 <= AR2, TC1 ; |2962| 
         001c07 94   
    6153 001c08 6364          BCC $C$L178,TC1 ; |2962| 
    6154                                                      ; branchcc occurs ; |2962| 
    6155                      .dwpsn  file "../c5535_bsl_revc/ezdsp5535_v1/c55xx_csl/src/csl_usb.c",line 2963,column 7,is_stmt
    6156 001c0a E608          MOV #6, *SP(#4) ; |2963| 
         001c0c 06   
    6157 001c0d 0601          B $C$L201 ; |2963| 
         001c0f 30   
    6158                                                      ; branch occurs ; |2963| 
    6159 001c10       $C$L178:    
    6160                      .dwpsn  file "../c5535_bsl_revc/ezdsp5535_v1/c55xx_csl/src/csl_usb.c",line 2967,column 7,is_stmt
    6161 001c10 7600          MOV #128, AR2 ; |2967| 
         001c12 80A8 
    6162 001c14 12A8          CMPU AR1 <= AR2, TC1 ; |2967| 
         001c16 94   
    6163 001c17 6364          BCC $C$L179,TC1 ; |2967| 
    6164                                                      ; branchcc occurs ; |2967| 
    6165                      .dwpsn  file "../c5535_bsl_revc/ezdsp5535_v1/c55xx_csl/src/csl_usb.c",line 2968,column 8,is_stmt
    6166 001c19 E608          MOV #5, *SP(#4) ; |2968| 
         001c1b 05   
    6167 001c1c 0601          B $C$L201 ; |2968| 
         001c1e 21   
    6168                                                      ; branch occurs ; |2968| 
    6169 001c1f       $C$L179:    
    6170                      .dwpsn  file "../c5535_bsl_revc/ezdsp5535_v1/c55xx_csl/src/csl_usb.c",line 2972,column 8,is_stmt
    6171 001c1f 7600          MOV #64, AR2 ; |2972| 
         001c21 40A8 
    6172 001c23 12A8          CMPU AR1 <= AR2, TC1 ; |2972| 
         001c25 94   
    6173 001c26 6364          BCC $C$L180,TC1 ; |2972| 
    6174                                                      ; branchcc occurs ; |2972| 
    6175                      .dwpsn  file "../c5535_bsl_revc/ezdsp5535_v1/c55xx_csl/src/csl_usb.c",line 2973,column 9,is_stmt
    6176 001c28 E608          MOV #4, *SP(#4) ; |2973| 
         001c2a 04   
    6177 001c2b 0601          B $C$L201 ; |2973| 
         001c2d 12   
    6178                                                      ; branch occurs ; |2973| 
    6179 001c2e       $C$L180:    
    6180                      .dwpsn  file "../c5535_bsl_revc/ezdsp5535_v1/c55xx_csl/src/csl_usb.c",line 2977,column 9,is_stmt
    6181 001c2e E608          MOV #3, *SP(#4) ; |2977| 
         001c30 03   
TMS320C55x Assembler PC v4.4.1 Tue Oct 02 02:33:44 2018

Tools Copyright (c) 1996-2012 Texas Instruments Incorporated
csl_usb.asm                                                          PAGE  149

    6182                      .dwpsn  file "../c5535_bsl_revc/ezdsp5535_v1/c55xx_csl/src/csl_usb.c",line 2983,column 3,is_stmt
    6183 001c31 0601          B $C$L201 ; |2983| 
         001c33 0C   
    6184                                                      ; branch occurs ; |2983| 
    6185 001c34       $C$L181:    
    6186                      .dwpsn  file "../c5535_bsl_revc/ezdsp5535_v1/c55xx_csl/src/csl_usb.c",line 2987,column 4,is_stmt
    6187 001c34 7603          MOV #1023, AR2 ; |2987| 
         001c36 FFA8 
    6188 001c38 A900          MOV *SP(#0), AR1 ; |2987| 
    6189 001c3a 12A8          CMPU AR1 <= AR2, TC1 ; |2987| 
         001c3c 94   
    6190 001c3d 62E4          BCC $C$L182,TC1 ; |2987| 
    6191                                                      ; branchcc occurs ; |2987| 
    6192                      .dwpsn  file "../c5535_bsl_revc/ezdsp5535_v1/c55xx_csl/src/csl_usb.c",line 2990,column 5,is_stmt
    6193 001c3f 3C04          MOV #0, T0
    6194 001c41 0600          B $C$L202 ; |2990| 
         001c43 FE   
    6195                                                      ; branch occurs ; |2990| 
    6196 001c44       $C$L182:    
    6197                      .dwpsn  file "../c5535_bsl_revc/ezdsp5535_v1/c55xx_csl/src/csl_usb.c",line 2994,column 5,is_stmt
    6198 001c44 7602          MOV #512, AR2 ; |2994| 
         001c46 00A8 
    6199 001c48 12A8          CMPU AR1 <= AR2, TC1 ; |2994| 
         001c4a 94   
    6200 001c4b 6364          BCC $C$L183,TC1 ; |2994| 
    6201                                                      ; branchcc occurs ; |2994| 
    6202                      .dwpsn  file "../c5535_bsl_revc/ezdsp5535_v1/c55xx_csl/src/csl_usb.c",line 2995,column 6,is_stmt
    6203 001c4d E608          MOV #7, *SP(#4) ; |2995| 
         001c4f 07   
    6204 001c50 0600          B $C$L201 ; |2995| 
         001c52 ED   
    6205                                                      ; branch occurs ; |2995| 
    6206 001c53       $C$L183:    
    6207                      .dwpsn  file "../c5535_bsl_revc/ezdsp5535_v1/c55xx_csl/src/csl_usb.c",line 2999,column 6,is_stmt
    6208 001c53 7601          MOV #256, AR2 ; |2999| 
         001c55 00A8 
    6209 001c57 12A8          CMPU AR1 <= AR2, TC1 ; |2999| 
         001c59 94   
    6210 001c5a 6364          BCC $C$L184,TC1 ; |2999| 
    6211                                                      ; branchcc occurs ; |2999| 
    6212                      .dwpsn  file "../c5535_bsl_revc/ezdsp5535_v1/c55xx_csl/src/csl_usb.c",line 3000,column 7,is_stmt
    6213 001c5c E608          MOV #6, *SP(#4) ; |3000| 
         001c5e 06   
    6214 001c5f 0600          B $C$L201 ; |3000| 
         001c61 DE   
    6215                                                      ; branch occurs ; |3000| 
    6216 001c62       $C$L184:    
    6217                      .dwpsn  file "../c5535_bsl_revc/ezdsp5535_v1/c55xx_csl/src/csl_usb.c",line 3004,column 7,is_stmt
    6218 001c62 7600          MOV #128, AR2 ; |3004| 
         001c64 80A8 
    6219 001c66 12A8          CMPU AR1 <= AR2, TC1 ; |3004| 
         001c68 94   
    6220 001c69 6364          BCC $C$L185,TC1 ; |3004| 
    6221                                                      ; branchcc occurs ; |3004| 
    6222                      .dwpsn  file "../c5535_bsl_revc/ezdsp5535_v1/c55xx_csl/src/csl_usb.c",line 3005,column 8,is_stmt
TMS320C55x Assembler PC v4.4.1 Tue Oct 02 02:33:44 2018

Tools Copyright (c) 1996-2012 Texas Instruments Incorporated
csl_usb.asm                                                          PAGE  150

    6223 001c6b E608          MOV #5, *SP(#4) ; |3005| 
         001c6d 05   
    6224 001c6e 0600          B $C$L201 ; |3005| 
         001c70 CF   
    6225                                                      ; branch occurs ; |3005| 
    6226 001c71       $C$L185:    
    6227                      .dwpsn  file "../c5535_bsl_revc/ezdsp5535_v1/c55xx_csl/src/csl_usb.c",line 3009,column 8,is_stmt
    6228 001c71 7600          MOV #64, AR2 ; |3009| 
         001c73 40A8 
    6229 001c75 12A8          CMPU AR1 <= AR2, TC1 ; |3009| 
         001c77 94   
    6230 001c78 6364          BCC $C$L186,TC1 ; |3009| 
    6231                                                      ; branchcc occurs ; |3009| 
    6232                      .dwpsn  file "../c5535_bsl_revc/ezdsp5535_v1/c55xx_csl/src/csl_usb.c",line 3010,column 9,is_stmt
    6233 001c7a E608          MOV #4, *SP(#4) ; |3010| 
         001c7c 04   
    6234 001c7d 0600          B $C$L201 ; |3010| 
         001c7f C0   
    6235                                                      ; branch occurs ; |3010| 
    6236 001c80       $C$L186:    
    6237                      .dwpsn  file "../c5535_bsl_revc/ezdsp5535_v1/c55xx_csl/src/csl_usb.c",line 3014,column 9,is_stmt
    6238 001c80 E608          MOV #3, *SP(#4) ; |3014| 
         001c82 03   
    6239                      .dwpsn  file "../c5535_bsl_revc/ezdsp5535_v1/c55xx_csl/src/csl_usb.c",line 3021,column 2,is_stmt
    6240 001c83 0600          B $C$L201 ; |3021| 
         001c85 BA   
    6241                                                      ; branch occurs ; |3021| 
    6242 001c86       $C$L187:    
    6243                      .dwpsn  file "../c5535_bsl_revc/ezdsp5535_v1/c55xx_csl/src/csl_usb.c",line 3026,column 3,is_stmt
    6244 001c86 F002          CMP *SP(#1) == #2, TC1 ; |3026| 
         001c88 0002 
    6245 001c8a 0474          BCC $C$L194,!TC1 ; |3026| 
         001c8c 5F   
    6246                                                      ; branchcc occurs ; |3026| 
    6247                      .dwpsn  file "../c5535_bsl_revc/ezdsp5535_v1/c55xx_csl/src/csl_usb.c",line 3029,column 10,is_stmt
    6248 001c8d A96D          MOV *AR3(#100), AR1 ; |3029| 
         001c8f 0064 
    6249 001c91 0409          BCC $C$L193,AR1 == #0 ; |3029| 
         001c93 52   
    6250                                                      ; branchcc occurs ; |3029| 
    6251                      .dwpsn  file "../c5535_bsl_revc/ezdsp5535_v1/c55xx_csl/src/csl_usb.c",line 3032,column 5,is_stmt
    6252 001c94 7604          MOV #1024, AR2 ; |3032| 
         001c96 00A8 
    6253 001c98 A900          MOV *SP(#0), AR1 ; |3032| 
    6254 001c9a 12A8          CMPU AR1 <= AR2, TC1 ; |3032| 
         001c9c 94   
    6255 001c9d 62E4          BCC $C$L188,TC1 ; |3032| 
    6256                                                      ; branchcc occurs ; |3032| 
    6257                      .dwpsn  file "../c5535_bsl_revc/ezdsp5535_v1/c55xx_csl/src/csl_usb.c",line 3035,column 6,is_stmt
    6258 001c9f 3C04          MOV #0, T0
    6259 001ca1 0600          B $C$L202 ; |3035| 
         001ca3 9E   
    6260                                                      ; branch occurs ; |3035| 
    6261 001ca4       $C$L188:    
    6262                      .dwpsn  file "../c5535_bsl_revc/ezdsp5535_v1/c55xx_csl/src/csl_usb.c",line 3039,column 6,is_stmt
TMS320C55x Assembler PC v4.4.1 Tue Oct 02 02:33:44 2018

Tools Copyright (c) 1996-2012 Texas Instruments Incorporated
csl_usb.asm                                                          PAGE  151

    6263 001ca4 7602          MOV #512, AR2 ; |3039| 
         001ca6 00A8 
    6264 001ca8 12A8          CMPU AR1 <= AR2, TC1 ; |3039| 
         001caa 94   
    6265 001cab 6364          BCC $C$L189,TC1 ; |3039| 
    6266                                                      ; branchcc occurs ; |3039| 
    6267                      .dwpsn  file "../c5535_bsl_revc/ezdsp5535_v1/c55xx_csl/src/csl_usb.c",line 3040,column 7,is_stmt
    6268 001cad E608          MOV #7, *SP(#4) ; |3040| 
         001caf 07   
    6269 001cb0 0600          B $C$L201 ; |3040| 
         001cb2 8D   
    6270                                                      ; branch occurs ; |3040| 
    6271 001cb3       $C$L189:    
    6272                      .dwpsn  file "../c5535_bsl_revc/ezdsp5535_v1/c55xx_csl/src/csl_usb.c",line 3044,column 7,is_stmt
    6273 001cb3 7601          MOV #256, AR2 ; |3044| 
         001cb5 00A8 
    6274 001cb7 12A8          CMPU AR1 <= AR2, TC1 ; |3044| 
         001cb9 94   
    6275 001cba 6364          BCC $C$L190,TC1 ; |3044| 
    6276                                                      ; branchcc occurs ; |3044| 
    6277                      .dwpsn  file "../c5535_bsl_revc/ezdsp5535_v1/c55xx_csl/src/csl_usb.c",line 3045,column 8,is_stmt
    6278 001cbc E608          MOV #6, *SP(#4) ; |3045| 
         001cbe 06   
    6279 001cbf 0600          B $C$L201 ; |3045| 
         001cc1 7E   
    6280                                                      ; branch occurs ; |3045| 
    6281 001cc2       $C$L190:    
    6282                      .dwpsn  file "../c5535_bsl_revc/ezdsp5535_v1/c55xx_csl/src/csl_usb.c",line 3049,column 8,is_stmt
    6283 001cc2 7600          MOV #128, AR2 ; |3049| 
         001cc4 80A8 
    6284 001cc6 12A8          CMPU AR1 <= AR2, TC1 ; |3049| 
         001cc8 94   
    6285 001cc9 6364          BCC $C$L191,TC1 ; |3049| 
    6286                                                      ; branchcc occurs ; |3049| 
    6287                      .dwpsn  file "../c5535_bsl_revc/ezdsp5535_v1/c55xx_csl/src/csl_usb.c",line 3050,column 9,is_stmt
    6288 001ccb E608          MOV #5, *SP(#4) ; |3050| 
         001ccd 05   
    6289 001cce 0600          B $C$L201 ; |3050| 
         001cd0 6F   
    6290                                                      ; branch occurs ; |3050| 
    6291 001cd1       $C$L191:    
    6292                      .dwpsn  file "../c5535_bsl_revc/ezdsp5535_v1/c55xx_csl/src/csl_usb.c",line 3054,column 9,is_stmt
    6293 001cd1 7600          MOV #64, AR2 ; |3054| 
         001cd3 40A8 
    6294 001cd5 12A8          CMPU AR1 <= AR2, TC1 ; |3054| 
         001cd7 94   
    6295 001cd8 6364          BCC $C$L192,TC1 ; |3054| 
    6296                                                      ; branchcc occurs ; |3054| 
    6297                      .dwpsn  file "../c5535_bsl_revc/ezdsp5535_v1/c55xx_csl/src/csl_usb.c",line 3055,column 10,is_stmt
    6298 001cda E608          MOV #4, *SP(#4) ; |3055| 
         001cdc 04   
    6299 001cdd 0600          B $C$L201 ; |3055| 
         001cdf 60   
    6300                                                      ; branch occurs ; |3055| 
    6301 001ce0       $C$L192:    
TMS320C55x Assembler PC v4.4.1 Tue Oct 02 02:33:44 2018

Tools Copyright (c) 1996-2012 Texas Instruments Incorporated
csl_usb.asm                                                          PAGE  152

    6302                      .dwpsn  file "../c5535_bsl_revc/ezdsp5535_v1/c55xx_csl/src/csl_usb.c",line 3059,column 10,is_stmt
    6303 001ce0 E608          MOV #3, *SP(#4) ; |3059| 
         001ce2 03   
    6304                      .dwpsn  file "../c5535_bsl_revc/ezdsp5535_v1/c55xx_csl/src/csl_usb.c",line 3065,column 4,is_stmt
    6305 001ce3 0600          B $C$L201 ; |3065| 
         001ce5 5A   
    6306                                                      ; branch occurs ; |3065| 
    6307 001ce6       $C$L193:    
    6308                      .dwpsn  file "../c5535_bsl_revc/ezdsp5535_v1/c55xx_csl/src/csl_usb.c",line 3068,column 5,is_stmt
    6309 001ce6 E608          MOV #3, *SP(#4) ; |3068| 
         001ce8 03   
    6310                      .dwpsn  file "../c5535_bsl_revc/ezdsp5535_v1/c55xx_csl/src/csl_usb.c",line 3070,column 3,is_stmt
    6311 001ce9 0600          B $C$L201 ; |3070| 
         001ceb 54   
    6312                                                      ; branch occurs ; |3070| 
    6313 001cec       $C$L194:    
    6314                      .dwpsn  file "../c5535_bsl_revc/ezdsp5535_v1/c55xx_csl/src/csl_usb.c",line 3074,column 4,is_stmt
    6315 001cec F002          CMP *SP(#1) == #1, TC1 ; |3074| 
         001cee 0001 
    6316 001cf0 0474          BCC $C$L200,!TC1 ; |3074| 
         001cf2 4A   
    6317                                                      ; branchcc occurs ; |3074| 
    6318                      .dwpsn  file "../c5535_bsl_revc/ezdsp5535_v1/c55xx_csl/src/csl_usb.c",line 3077,column 11,is_stmt
    6319 001cf3 A96D          MOV *AR3(#100), AR1 ; |3077| 
         001cf5 0064 
    6320 001cf7 0409          BCC $C$L199,AR1 == #0 ; |3077| 
         001cf9 3E   
    6321                                                      ; branchcc occurs ; |3077| 
    6322                      .dwpsn  file "../c5535_bsl_revc/ezdsp5535_v1/c55xx_csl/src/csl_usb.c",line 3080,column 6,is_stmt
    6323 001cfa 7602          MOV #512, AR2 ; |3080| 
         001cfc 00A8 
    6324 001cfe A900          MOV *SP(#0), AR1 ; |3080| 
    6325 001d00 12A8          CMPU AR1 <= AR2, TC1 ; |3080| 
         001d02 94   
    6326 001d03 6264          BCC $C$L195,TC1 ; |3080| 
    6327                                                      ; branchcc occurs ; |3080| 
    6328                      .dwpsn  file "../c5535_bsl_revc/ezdsp5535_v1/c55xx_csl/src/csl_usb.c",line 3083,column 7,is_stmt
    6329 001d05 3C04          MOV #0, T0
    6330 001d07 4A39          B $C$L202 ; |3083| 
    6331                                                      ; branch occurs ; |3083| 
    6332 001d09       $C$L195:    
    6333                      .dwpsn  file "../c5535_bsl_revc/ezdsp5535_v1/c55xx_csl/src/csl_usb.c",line 3087,column 7,is_stmt
    6334 001d09 7601          MOV #256, AR2 ; |3087| 
         001d0b 00A8 
    6335 001d0d 12A8          CMPU AR1 <= AR2, TC1 ; |3087| 
         001d0f 94   
    6336 001d10 62E4          BCC $C$L196,TC1 ; |3087| 
    6337                                                      ; branchcc occurs ; |3087| 
    6338                      .dwpsn  file "../c5535_bsl_revc/ezdsp5535_v1/c55xx_csl/src/csl_usb.c",line 3088,column 8,is_stmt
    6339 001d12 E608          MOV #6, *SP(#4) ; |3088| 
         001d14 06   
    6340 001d15 4A29          B $C$L201 ; |3088| 
    6341                                                      ; branch occurs ; |3088| 
    6342 001d17       $C$L196:    
    6343                      .dwpsn  file "../c5535_bsl_revc/ezdsp5535_v1/c55xx_csl/src/csl_usb.c",line 3092,column 8,is_stmt
TMS320C55x Assembler PC v4.4.1 Tue Oct 02 02:33:44 2018

Tools Copyright (c) 1996-2012 Texas Instruments Incorporated
csl_usb.asm                                                          PAGE  153

    6344 001d17 7600          MOV #128, AR2 ; |3092| 
         001d19 80A8 
    6345 001d1b 12A8          CMPU AR1 <= AR2, TC1 ; |3092| 
         001d1d 94   
    6346 001d1e 62E4          BCC $C$L197,TC1 ; |3092| 
    6347                                                      ; branchcc occurs ; |3092| 
    6348                      .dwpsn  file "../c5535_bsl_revc/ezdsp5535_v1/c55xx_csl/src/csl_usb.c",line 3093,column 9,is_stmt
    6349 001d20 E608          MOV #5, *SP(#4) ; |3093| 
         001d22 05   
    6350 001d23 4A1B          B $C$L201 ; |3093| 
    6351                                                      ; branch occurs ; |3093| 
    6352 001d25       $C$L197:    
    6353                      .dwpsn  file "../c5535_bsl_revc/ezdsp5535_v1/c55xx_csl/src/csl_usb.c",line 3097,column 9,is_stmt
    6354 001d25 7600          MOV #64, AR2 ; |3097| 
         001d27 40A8 
    6355 001d29 12A8          CMPU AR1 <= AR2, TC1 ; |3097| 
         001d2b 94   
    6356 001d2c 62E4          BCC $C$L198,TC1 ; |3097| 
    6357                                                      ; branchcc occurs ; |3097| 
    6358                      .dwpsn  file "../c5535_bsl_revc/ezdsp5535_v1/c55xx_csl/src/csl_usb.c",line 3098,column 10,is_stmt
    6359 001d2e E608          MOV #4, *SP(#4) ; |3098| 
         001d30 04   
    6360 001d31 4A0D          B $C$L201 ; |3098| 
    6361                                                      ; branch occurs ; |3098| 
    6362 001d33       $C$L198:    
    6363                      .dwpsn  file "../c5535_bsl_revc/ezdsp5535_v1/c55xx_csl/src/csl_usb.c",line 3102,column 10,is_stmt
    6364 001d33 E608          MOV #3, *SP(#4) ; |3102| 
         001d35 03   
    6365                      .dwpsn  file "../c5535_bsl_revc/ezdsp5535_v1/c55xx_csl/src/csl_usb.c",line 3107,column 5,is_stmt
    6366 001d36 4A08          B $C$L201 ; |3107| 
    6367                                                      ; branch occurs ; |3107| 
    6368 001d38       $C$L199:    
    6369                      .dwpsn  file "../c5535_bsl_revc/ezdsp5535_v1/c55xx_csl/src/csl_usb.c",line 3110,column 6,is_stmt
    6370 001d38 E608          MOV #3, *SP(#4) ; |3110| 
         001d3a 03   
    6371                      .dwpsn  file "../c5535_bsl_revc/ezdsp5535_v1/c55xx_csl/src/csl_usb.c",line 3112,column 4,is_stmt
    6372 001d3b 4A03          B $C$L201 ; |3112| 
    6373                                                      ; branch occurs ; |3112| 
    6374 001d3d       $C$L200:    
    6375                      .dwpsn  file "../c5535_bsl_revc/ezdsp5535_v1/c55xx_csl/src/csl_usb.c",line 3115,column 5,is_stmt
    6376 001d3d E608          MOV #3, *SP(#4) ; |3115| 
         001d3f 03   
    6377 001d40       $C$L201:    
    6378                      .dwpsn  file "../c5535_bsl_revc/ezdsp5535_v1/c55xx_csl/src/csl_usb.c",line 3120,column 2,is_stmt
    6379 001d40 A408          MOV *SP(#4), T0 ; |3120| 
    6380 001d42       $C$L202:    
    6381                      .dwpsn  file "../c5535_bsl_revc/ezdsp5535_v1/c55xx_csl/src/csl_usb.c",line 3121,column 1,is_stmt
    6382 001d42 4E05          AADD #5, SP
    6383                      .dwcfi  cfa_offset, 1
    6384              $C$DW$334       .dwtag  DW_TAG_TI_branch
    6385                      .dwattr $C$DW$334, DW_AT_low_pc(0x00)
    6386                      .dwattr $C$DW$334, DW_AT_TI_return
    6387 001d44 4804          RET
    6388                                                      ; return occurs
    6389                      .dwattr $C$DW$327, DW_AT_TI_end_file("../c5535_bsl_revc/ezdsp5535_v1/c55xx_csl/src/csl_usb.c")
TMS320C55x Assembler PC v4.4.1 Tue Oct 02 02:33:44 2018

Tools Copyright (c) 1996-2012 Texas Instruments Incorporated
csl_usb.asm                                                          PAGE  154

    6390                      .dwattr $C$DW$327, DW_AT_TI_end_line(0xc31)
    6391                      .dwattr $C$DW$327, DW_AT_TI_end_column(0x01)
    6392                      .dwendentry
    6393                      .dwendtag $C$DW$327
    6394              
    6395 001d46               .sect   ".text"
    6396                      .align 4
    6397                      .global _USB_coreEventProcessEp0
    6398              
    6399              $C$DW$335       .dwtag  DW_TAG_subprogram, DW_AT_name("USB_coreEventProcessEp0")
    6400                      .dwattr $C$DW$335, DW_AT_low_pc(_USB_coreEventProcessEp0)
    6401                      .dwattr $C$DW$335, DW_AT_high_pc(0x00)
    6402                      .dwattr $C$DW$335, DW_AT_TI_symbol_name("_USB_coreEventProcessEp0")
    6403                      .dwattr $C$DW$335, DW_AT_external
    6404                      .dwattr $C$DW$335, DW_AT_type(*$C$DW$T$75)
    6405                      .dwattr $C$DW$335, DW_AT_TI_begin_file("../c5535_bsl_revc/ezdsp5535_v1/c55xx_csl/src/csl_usb.c")
    6406                      .dwattr $C$DW$335, DW_AT_TI_begin_line(0xc35)
    6407                      .dwattr $C$DW$335, DW_AT_TI_begin_column(0x0c)
    6408                      .dwattr $C$DW$335, DW_AT_TI_max_frame_size(0x14)
    6409                      .dwpsn  file "../c5535_bsl_revc/ezdsp5535_v1/c55xx_csl/src/csl_usb.c",line 3126,column 1,is_stmt,addr
    6410              
    6411                      .dwfde $C$DW$CIE, _USB_coreEventProcessEp0
    6412              $C$DW$336       .dwtag  DW_TAG_formal_parameter, DW_AT_name("pContext")
    6413                      .dwattr $C$DW$336, DW_AT_TI_symbol_name("_pContext")
    6414                      .dwattr $C$DW$336, DW_AT_type(*$C$DW$T$142)
    6415                      .dwattr $C$DW$336, DW_AT_location[DW_OP_reg17]
    6416              ;*******************************************************************************
    6417              ;* FUNCTION NAME: USB_coreEventProcessEp0                                      *
    6418              ;*                                                                             *
    6419              ;*   Function Uses Regs : AC0,AC0,AC1,AC1,T0,T1,AR0,XAR0,AR1,XAR1,AR2,AR3,XAR3,*
    6420              ;*                        SP,CARRY,TC1,M40,SATA,SATD,RDM,FRCT,SMUL             *
    6421              ;*   Stack Frame        : Compact (No Frame Pointer, w/ debug)                 *
    6422              ;*   Total Frame Size   : 20 words                                             *
    6423              ;*                        (1 return address/alignment)                         *
    6424              ;*                        (19 local values)                                    *
    6425              ;*   Min System Stack   : 1 word                                               *
    6426              ;*******************************************************************************
    6427 001d48       _USB_coreEventProcessEp0:
    6428                      .dwcfi  cfa_offset, 1
    6429                      .dwcfi  save_reg_to_mem, 91, -1
    6430 001d48 4EED          AADD #-19, SP
    6431                      .dwcfi  cfa_offset, 20
    6432              $C$DW$337       .dwtag  DW_TAG_variable, DW_AT_name("pContext")
    6433                      .dwattr $C$DW$337, DW_AT_TI_symbol_name("_pContext")
    6434                      .dwattr $C$DW$337, DW_AT_type(*$C$DW$T$142)
    6435                      .dwattr $C$DW$337, DW_AT_location[DW_OP_bregx 0x24 0]
    6436              $C$DW$338       .dwtag  DW_TAG_variable, DW_AT_name("hEPx")
    6437                      .dwattr $C$DW$338, DW_AT_TI_symbol_name("_hEPx")
    6438                      .dwattr $C$DW$338, DW_AT_type(*$C$DW$T$102)
    6439                      .dwattr $C$DW$338, DW_AT_location[DW_OP_bregx 0x24 2]
    6440              $C$DW$339       .dwtag  DW_TAG_variable, DW_AT_name("inOutFlag")
    6441                      .dwattr $C$DW$339, DW_AT_TI_symbol_name("_inOutFlag")
    6442                      .dwattr $C$DW$339, DW_AT_type(*$C$DW$T$19)
    6443                      .dwattr $C$DW$339, DW_AT_location[DW_OP_bregx 0x24 4]
    6444              $C$DW$340       .dwtag  DW_TAG_variable, DW_AT_name("tempLen")
TMS320C55x Assembler PC v4.4.1 Tue Oct 02 02:33:44 2018

Tools Copyright (c) 1996-2012 Texas Instruments Incorporated
csl_usb.asm                                                          PAGE  155

    6445                      .dwattr $C$DW$340, DW_AT_TI_symbol_name("_tempLen")
    6446                      .dwattr $C$DW$340, DW_AT_type(*$C$DW$T$19)
    6447                      .dwattr $C$DW$340, DW_AT_location[DW_OP_bregx 0x24 5]
    6448              $C$DW$341       .dwtag  DW_TAG_variable, DW_AT_name("saveIndex")
    6449                      .dwattr $C$DW$341, DW_AT_TI_symbol_name("_saveIndex")
    6450                      .dwattr $C$DW$341, DW_AT_type(*$C$DW$T$19)
    6451                      .dwattr $C$DW$341, DW_AT_location[DW_OP_bregx 0x24 6]
    6452              $C$DW$342       .dwtag  DW_TAG_variable, DW_AT_name("endpt")
    6453                      .dwattr $C$DW$342, DW_AT_TI_symbol_name("_endpt")
    6454                      .dwattr $C$DW$342, DW_AT_type(*$C$DW$T$19)
    6455                      .dwattr $C$DW$342, DW_AT_location[DW_OP_bregx 0x24 7]
    6456              $C$DW$343       .dwtag  DW_TAG_variable, DW_AT_name("status")
    6457                      .dwattr $C$DW$343, DW_AT_TI_symbol_name("_status")
    6458                      .dwattr $C$DW$343, DW_AT_type(*$C$DW$T$75)
    6459                      .dwattr $C$DW$343, DW_AT_location[DW_OP_bregx 0x24 8]
    6460              $C$DW$344       .dwtag  DW_TAG_variable, DW_AT_name("curConfigureNum")
    6461                      .dwattr $C$DW$344, DW_AT_TI_symbol_name("_curConfigureNum")
    6462                      .dwattr $C$DW$344, DW_AT_type(*$C$DW$T$19)
    6463                      .dwattr $C$DW$344, DW_AT_location[DW_OP_bregx 0x24 9]
    6464              $C$DW$345       .dwtag  DW_TAG_variable, DW_AT_name("curInterfaceNum")
    6465                      .dwattr $C$DW$345, DW_AT_TI_symbol_name("_curInterfaceNum")
    6466                      .dwattr $C$DW$345, DW_AT_type(*$C$DW$T$19)
    6467                      .dwattr $C$DW$345, DW_AT_location[DW_OP_bregx 0x24 10]
    6468              $C$DW$346       .dwtag  DW_TAG_variable, DW_AT_name("UsbCtrlBuffer")
    6469                      .dwattr $C$DW$346, DW_AT_TI_symbol_name("_UsbCtrlBuffer")
    6470                      .dwattr $C$DW$346, DW_AT_type(*$C$DW$T$189)
    6471                      .dwattr $C$DW$346, DW_AT_location[DW_OP_bregx 0x24 11]
    6472 001d4a EB00          MOV XAR0, dbl(*SP(#0))
         001d4c 85   
    6473                      .dwpsn  file "../c5535_bsl_revc/ezdsp5535_v1/c55xx_csl/src/csl_usb.c",line 3134,column 2,is_stmt
    6474 001d4d E610          MOV #0, *SP(#8) ; |3134| 
         001d4f 00   
    6475                      .dwpsn  file "../c5535_bsl_revc/ezdsp5535_v1/c55xx_csl/src/csl_usb.c",line 3136,column 2,is_stmt
    6476 001d50 7604          MOV #1038, T0 ; |3136| 
         001d52 0E48 
    6477 001d54 AB31          MOV *(#_usbRegisters), AR3 ; |3136| 
         001d56 0000 
         001d58 00-  
    6478 001d59 A96B          MOV port(*AR3(T0)), AR1 ; |3136| 
         001d5b 99   
    6479 001d5c C90C          MOV AR1, *SP(#6) ; |3136| 
    6480                      .dwpsn  file "../c5535_bsl_revc/ezdsp5535_v1/c55xx_csl/src/csl_usb.c",line 3137,column 3,is_stmt
    6481 001d5e A96B          MOV port(*AR3(T0)), AR1 ; |3137| 
         001d60 99   
    6482 001d61 7DFF          AND #0xfff0, AR1, AC0 ; |3137| 
         001d63 F009 
    6483 001d65 C06B          MOV AC0, port(*AR3(T0)) ; |3137| 
         001d67 9A   
    6484                      .dwpsn  file "../c5535_bsl_revc/ezdsp5535_v1/c55xx_csl/src/csl_usb.c",line 3140,column 2,is_stmt
    6485 001d68 ED00          MOV dbl(*SP(#0)), XAR0
         001d6a 8F   
    6486              
    6487 001d6b 1467          AADD #103, AR0 ; |3140| 
         001d6d 84   
    6488 001d6e 3D15  ||      MOV #1, T1
TMS320C55x Assembler PC v4.4.1 Tue Oct 02 02:33:44 2018

Tools Copyright (c) 1996-2012 Texas Instruments Incorporated
csl_usb.asm                                                          PAGE  156

    6489              
    6490              $C$DW$347       .dwtag  DW_TAG_TI_branch
    6491                      .dwattr $C$DW$347, DW_AT_low_pc(0x00)
    6492                      .dwattr $C$DW$347, DW_AT_name("_USB_getSetupPacket")
    6493                      .dwattr $C$DW$347, DW_AT_TI_call
    6494              
    6495 001d70 08F0          CALL #_USB_getSetupPacket ; |3140| 
         001d72 63   
    6496 001d73 3D04  ||      MOV #0, T0
    6497              
    6498                                                      ; call occurs [#_USB_getSetupPacket] ; |3140| 
    6499                      .dwpsn  file "../c5535_bsl_revc/ezdsp5535_v1/c55xx_csl/src/csl_usb.c",line 3142,column 2,is_stmt
    6500 001d75 7604          MOV #1042, T0 ; |3142| 
         001d77 1248 
    6501 001d79 AB31          MOV *(#_usbRegisters), AR3 ; |3142| 
         001d7b 0000 
         001d7d 00-  
    6502 001d7e A96B          MOV port(*AR3(T0)), AR1 ; |3142| 
         001d80 99   
    6503              
    6504 001d81 1801          AND #0x0001, AR1, AR1 ; |3142| 
         001d83 99   
    6505 001d84 3D1A  ||      MOV #1, AR2
    6506              
    6507 001d86 129C          CMPU AR1 != AR2, TC1 ; |3142| 
         001d88 A4   
    6508 001d89 6D64          BCC $C$L242,TC1 ; |3142| 
         001d8b 044C 
    6509                                                      ; branchcc occurs ; |3142| 
    6510                      .dwpsn  file "../c5535_bsl_revc/ezdsp5535_v1/c55xx_csl/src/csl_usb.c",line 3146,column 3,is_stmt
    6511              $C$DW$348       .dwtag  DW_TAG_TI_branch
    6512                      .dwattr $C$DW$348, DW_AT_low_pc(0x00)
    6513                      .dwattr $C$DW$348, DW_AT_name("_USB_clearEpRxPktRdy")
    6514                      .dwattr $C$DW$348, DW_AT_TI_call
    6515              
    6516 001d8d 08E4          CALL #_USB_clearEpRxPktRdy ; |3146| 
         001d8f BA   
    6517 001d90 3D00  ||      MOV #0, AC0 ; |3146| 
    6518              
    6519                                                      ; call occurs [#_USB_clearEpRxPktRdy] ; |3146| 
    6520                      .dwpsn  file "../c5535_bsl_revc/ezdsp5535_v1/c55xx_csl/src/csl_usb.c",line 3149,column 3,is_stmt
    6521 001d92 0604          B $C$L241 ; |3149| 
         001d94 1C   
    6522                                                      ; branch occurs ; |3149| 
    6523 001d95       $C$L203:    
    6524                      .dwpsn  file "../c5535_bsl_revc/ezdsp5535_v1/c55xx_csl/src/csl_usb.c",line 3159,column 7,is_stmt
    6525 001d95 DF6D          MOV uns(low_byte(*AR3(#107))), AR1 ; |3159| 
         001d97 9300 
         001d99 6B   
    6526 001d9a C90E          MOV AR1, *SP(#7) ; |3159| 
    6527                      .dwpsn  file "../c5535_bsl_revc/ezdsp5535_v1/c55xx_csl/src/csl_usb.c",line 3160,column 7,is_stmt
    6528 001d9c 2295          MOV AR1, T1
    6529              $C$DW$349       .dwtag  DW_TAG_TI_branch
    6530                      .dwattr $C$DW$349, DW_AT_low_pc(0x00)
    6531                      .dwattr $C$DW$349, DW_AT_name("_USB_epNumToHandle")
TMS320C55x Assembler PC v4.4.1 Tue Oct 02 02:33:44 2018

Tools Copyright (c) 1996-2012 Texas Instruments Incorporated
csl_usb.asm                                                          PAGE  157

    6532                      .dwattr $C$DW$349, DW_AT_TI_call
    6533              
    6534 001d9e 08F7          CALL #_USB_epNumToHandle ; |3160| 
         001da0 81   
    6535 001da1 3D04  ||      MOV #0, T0
    6536              
    6537                                                      ; call occurs [#_USB_epNumToHandle] ; |3160| 
    6538 001da3 EB04          MOV XAR0, dbl(*SP(#2))
         001da5 85   
    6539                      .dwpsn  file "../c5535_bsl_revc/ezdsp5535_v1/c55xx_csl/src/csl_usb.c",line 3161,column 7,is_stmt
    6540 001da6 EC10          AMAR *SP(#8), XAR1
         001da8 9E   
    6541              $C$DW$350       .dwtag  DW_TAG_TI_branch
    6542                      .dwattr $C$DW$350, DW_AT_low_pc(0x00)
    6543                      .dwattr $C$DW$350, DW_AT_name("_USB_getEndptStall")
    6544                      .dwattr $C$DW$350, DW_AT_TI_call
    6545 001da9 08F6          CALL #_USB_getEndptStall ; |3161| 
         001dab F8   
    6546                                                      ; call occurs [#_USB_getEndptStall] ; |3161| 
    6547 001dac 0414          BCC $C$L206,T0 != #0 ; |3161| 
         001dae 29   
    6548                                                      ; branchcc occurs ; |3161| 
    6549                      .dwpsn  file "../c5535_bsl_revc/ezdsp5535_v1/c55xx_csl/src/csl_usb.c",line 3163,column 8,is_stmt
    6550 001daf ED04          MOV dbl(*SP(#2)), XAR0
         001db1 8F   
    6551              $C$DW$351       .dwtag  DW_TAG_TI_branch
    6552                      .dwattr $C$DW$351, DW_AT_low_pc(0x00)
    6553                      .dwattr $C$DW$351, DW_AT_name("_USB_stallEndpt")
    6554                      .dwattr $C$DW$351, DW_AT_TI_call
    6555 001db2 08F3          CALL #_USB_stallEndpt ; |3163| 
         001db4 9B   
    6556                                                      ; call occurs [#_USB_stallEndpt] ; |3163| 
    6557                      .dwpsn  file "../c5535_bsl_revc/ezdsp5535_v1/c55xx_csl/src/csl_usb.c",line 3165,column 12,is_stmt
    6558 001db5 4A21          B $C$L206 ; |3165| 
    6559                                                      ; branch occurs ; |3165| 
    6560 001db7       $C$L204:    
    6561                      .dwpsn  file "../c5535_bsl_revc/ezdsp5535_v1/c55xx_csl/src/csl_usb.c",line 3168,column 7,is_stmt
    6562              $C$DW$352       .dwtag  DW_TAG_TI_branch
    6563                      .dwattr $C$DW$352, DW_AT_low_pc(0x00)
    6564                      .dwattr $C$DW$352, DW_AT_name("_USB_getRemoteWakeupStat")
    6565                      .dwattr $C$DW$352, DW_AT_TI_call
    6566              
    6567 001db7 08FA          CALL #_USB_getRemoteWakeupStat ; |3168| 
         001db9 EC   
    6568 001dba 3D04  ||      MOV #0, T0
    6569              
    6570                                                      ; call occurs [#_USB_getRemoteWakeupStat] ; |3168| 
    6571 001dbc 0414          BCC $C$L206,T0 != #0 ; |3168| 
         001dbe 19   
    6572                                                      ; branchcc occurs ; |3168| 
    6573                      .dwpsn  file "../c5535_bsl_revc/ezdsp5535_v1/c55xx_csl/src/csl_usb.c",line 3170,column 8,is_stmt
    6574              $C$DW$353       .dwtag  DW_TAG_TI_branch
    6575                      .dwattr $C$DW$353, DW_AT_low_pc(0x00)
    6576                      .dwattr $C$DW$353, DW_AT_name("_USB_setRemoteWakeup")
    6577                      .dwattr $C$DW$353, DW_AT_TI_call
TMS320C55x Assembler PC v4.4.1 Tue Oct 02 02:33:44 2018

Tools Copyright (c) 1996-2012 Texas Instruments Incorporated
csl_usb.asm                                                          PAGE  158

    6578              
    6579 001dbf 08FA          CALL #_USB_setRemoteWakeup ; |3170| 
         001dc1 B4   
    6580 001dc2 3D04  ||      MOV #0, T0
    6581              
    6582                                                      ; call occurs [#_USB_setRemoteWakeup] ; |3170| 
    6583                      .dwpsn  file "../c5535_bsl_revc/ezdsp5535_v1/c55xx_csl/src/csl_usb.c",line 3172,column 12,is_stmt
    6584 001dc4 4A12          B $C$L206 ; |3172| 
    6585                                                      ; branch occurs ; |3172| 
    6586 001dc6       $C$L205:    
    6587                      .dwpsn  file "../c5535_bsl_revc/ezdsp5535_v1/c55xx_csl/src/csl_usb.c",line 3153,column 5,is_stmt
    6588 001dc6 ED00          MOV dbl(*SP(#0)), XAR3
         001dc8 BF   
    6589 001dc9 A96D          MOV *AR3(#106), AR1 ; |3153| 
         001dcb 006A 
    6590 001dcd 0409          BCC $C$L203,AR1 == #0 ; |3153| 
         001dcf C5   
    6591                                                      ; branchcc occurs ; |3153| 
    6592 001dd0 3C1A          MOV #1, AR2
    6593 001dd2 1290          CMPU AR1 == AR2, TC1 ; |3153| 
         001dd4 A4   
    6594 001dd5 0464          BCC $C$L204,TC1 ; |3153| 
         001dd7 DF   
    6595                                                      ; branchcc occurs ; |3153| 
    6596 001dd8       $C$L206:    
    6597                      .dwpsn  file "../c5535_bsl_revc/ezdsp5535_v1/c55xx_csl/src/csl_usb.c",line 3179,column 5,is_stmt
    6598              $C$DW$354       .dwtag  DW_TAG_TI_branch
    6599                      .dwattr $C$DW$354, DW_AT_low_pc(0x00)
    6600                      .dwattr $C$DW$354, DW_AT_name("_USB_clearEpRxPktRdy")
    6601                      .dwattr $C$DW$354, DW_AT_TI_call
    6602              
    6603 001dd8 08E4          CALL #_USB_clearEpRxPktRdy ; |3179| 
         001dda 6F   
    6604 001ddb 3D00  ||      MOV #0, AC0 ; |3179| 
    6605              
    6606                                                      ; call occurs [#_USB_clearEpRxPktRdy] ; |3179| 
    6607                      .dwpsn  file "../c5535_bsl_revc/ezdsp5535_v1/c55xx_csl/src/csl_usb.c",line 3181,column 10,is_stmt
    6608 001ddd 0604          B $C$L243 ; |3181| 
         001ddf 0D   
    6609                                                      ; branch occurs ; |3181| 
    6610 001de0       $C$L207:    
    6611                      .dwpsn  file "../c5535_bsl_revc/ezdsp5535_v1/c55xx_csl/src/csl_usb.c",line 3187,column 7,is_stmt
    6612 001de0 DF6D          MOV uns(low_byte(*AR3(#107))), AR1 ; |3187| 
         001de2 9300 
         001de4 6B   
    6613 001de5 C90E          MOV AR1, *SP(#7) ; |3187| 
    6614                      .dwpsn  file "../c5535_bsl_revc/ezdsp5535_v1/c55xx_csl/src/csl_usb.c",line 3188,column 7,is_stmt
    6615 001de7 2295          MOV AR1, T1
    6616              $C$DW$355       .dwtag  DW_TAG_TI_branch
    6617                      .dwattr $C$DW$355, DW_AT_low_pc(0x00)
    6618                      .dwattr $C$DW$355, DW_AT_name("_USB_epNumToHandle")
    6619                      .dwattr $C$DW$355, DW_AT_TI_call
    6620              
    6621 001de9 08F7          CALL #_USB_epNumToHandle ; |3188| 
         001deb 36   
TMS320C55x Assembler PC v4.4.1 Tue Oct 02 02:33:44 2018

Tools Copyright (c) 1996-2012 Texas Instruments Incorporated
csl_usb.asm                                                          PAGE  159

    6622 001dec 3D04  ||      MOV #0, T0
    6623              
    6624                                                      ; call occurs [#_USB_epNumToHandle] ; |3188| 
    6625 001dee EB04          MOV XAR0, dbl(*SP(#2))
         001df0 85   
    6626                      .dwpsn  file "../c5535_bsl_revc/ezdsp5535_v1/c55xx_csl/src/csl_usb.c",line 3189,column 7,is_stmt
    6627 001df1 EC10          AMAR *SP(#8), XAR1
         001df3 9E   
    6628              $C$DW$356       .dwtag  DW_TAG_TI_branch
    6629                      .dwattr $C$DW$356, DW_AT_low_pc(0x00)
    6630                      .dwattr $C$DW$356, DW_AT_name("_USB_getEndptStall")
    6631                      .dwattr $C$DW$356, DW_AT_TI_call
    6632 001df4 08F6          CALL #_USB_getEndptStall ; |3189| 
         001df6 AD   
    6633                                                      ; call occurs [#_USB_getEndptStall] ; |3189| 
    6634 001df7 0404          BCC $C$L210,T0 == #0 ; |3189| 
         001df9 2B   
    6635                                                      ; branchcc occurs ; |3189| 
    6636                      .dwpsn  file "../c5535_bsl_revc/ezdsp5535_v1/c55xx_csl/src/csl_usb.c",line 3191,column 8,is_stmt
    6637 001dfa ED04          MOV dbl(*SP(#2)), XAR0
         001dfc 8F   
    6638              $C$DW$357       .dwtag  DW_TAG_TI_branch
    6639                      .dwattr $C$DW$357, DW_AT_low_pc(0x00)
    6640                      .dwattr $C$DW$357, DW_AT_name("_USB_clearEndptStall")
    6641                      .dwattr $C$DW$357, DW_AT_TI_call
    6642 001dfd 08F4          CALL #_USB_clearEndptStall ; |3191| 
         001dff C0   
    6643                                                      ; call occurs [#_USB_clearEndptStall] ; |3191| 
    6644                      .dwpsn  file "../c5535_bsl_revc/ezdsp5535_v1/c55xx_csl/src/csl_usb.c",line 3193,column 12,is_stmt
    6645 001e00 4A23          B $C$L210 ; |3193| 
    6646                                                      ; branch occurs ; |3193| 
    6647 001e02       $C$L208:    
    6648                      .dwpsn  file "../c5535_bsl_revc/ezdsp5535_v1/c55xx_csl/src/csl_usb.c",line 3196,column 7,is_stmt
    6649              $C$DW$358       .dwtag  DW_TAG_TI_branch
    6650                      .dwattr $C$DW$358, DW_AT_low_pc(0x00)
    6651                      .dwattr $C$DW$358, DW_AT_name("_USB_getRemoteWakeupStat")
    6652                      .dwattr $C$DW$358, DW_AT_TI_call
    6653              
    6654 001e02 08FA          CALL #_USB_getRemoteWakeupStat ; |3196| 
         001e04 A1   
    6655 001e05 3D04  ||      MOV #0, T0
    6656              
    6657                                                      ; call occurs [#_USB_getRemoteWakeupStat] ; |3196| 
    6658 001e07 0404          BCC $C$L210,T0 == #0 ; |3196| 
         001e09 1B   
    6659                                                      ; branchcc occurs ; |3196| 
    6660                      .dwpsn  file "../c5535_bsl_revc/ezdsp5535_v1/c55xx_csl/src/csl_usb.c",line 3198,column 8,is_stmt
    6661 001e0a 3C04          MOV #0, T0
    6662              $C$DW$359       .dwtag  DW_TAG_TI_branch
    6663                      .dwattr $C$DW$359, DW_AT_low_pc(0x00)
    6664                      .dwattr $C$DW$359, DW_AT_name("_USB_setRemoteWakeup")
    6665                      .dwattr $C$DW$359, DW_AT_TI_call
    6666              
    6667 001e0c 08FA          CALL #_USB_setRemoteWakeup ; |3198| 
         001e0e 67   
TMS320C55x Assembler PC v4.4.1 Tue Oct 02 02:33:44 2018

Tools Copyright (c) 1996-2012 Texas Instruments Incorporated
csl_usb.asm                                                          PAGE  160

    6668 001e0f 3D05  ||      MOV #0, T1
    6669              
    6670                                                      ; call occurs [#_USB_setRemoteWakeup] ; |3198| 
    6671                      .dwpsn  file "../c5535_bsl_revc/ezdsp5535_v1/c55xx_csl/src/csl_usb.c",line 3200,column 12,is_stmt
    6672 001e11 4A12          B $C$L210 ; |3200| 
    6673                                                      ; branch occurs ; |3200| 
    6674 001e13       $C$L209:    
    6675                      .dwpsn  file "../c5535_bsl_revc/ezdsp5535_v1/c55xx_csl/src/csl_usb.c",line 3184,column 5,is_stmt
    6676 001e13 ED00          MOV dbl(*SP(#0)), XAR3
         001e15 BF   
    6677 001e16 A96D          MOV *AR3(#106), AR1 ; |3184| 
         001e18 006A 
    6678 001e1a 0409          BCC $C$L207,AR1 == #0 ; |3184| 
         001e1c C3   
    6679                                                      ; branchcc occurs ; |3184| 
    6680 001e1d 3C1A          MOV #1, AR2
    6681 001e1f 1290          CMPU AR1 == AR2, TC1 ; |3184| 
         001e21 A4   
    6682 001e22 0464          BCC $C$L208,TC1 ; |3184| 
         001e24 DD   
    6683                                                      ; branchcc occurs ; |3184| 
    6684 001e25       $C$L210:    
    6685                      .dwpsn  file "../c5535_bsl_revc/ezdsp5535_v1/c55xx_csl/src/csl_usb.c",line 3207,column 5,is_stmt
    6686              $C$DW$360       .dwtag  DW_TAG_TI_branch
    6687                      .dwattr $C$DW$360, DW_AT_low_pc(0x00)
    6688                      .dwattr $C$DW$360, DW_AT_name("_USB_clearEpRxPktRdy")
    6689                      .dwattr $C$DW$360, DW_AT_TI_call
    6690              
    6691 001e25 08E4          CALL #_USB_clearEpRxPktRdy ; |3207| 
         001e27 22   
    6692 001e28 3D00  ||      MOV #0, AC0 ; |3207| 
    6693              
    6694                                                      ; call occurs [#_USB_clearEpRxPktRdy] ; |3207| 
    6695                      .dwpsn  file "../c5535_bsl_revc/ezdsp5535_v1/c55xx_csl/src/csl_usb.c",line 3209,column 10,is_stmt
    6696 001e2a 0603          B $C$L243 ; |3209| 
         001e2c C0   
    6697                                                      ; branch occurs ; |3209| 
    6698 001e2d       $C$L211:    
    6699                      .dwpsn  file "../c5535_bsl_revc/ezdsp5535_v1/c55xx_csl/src/csl_usb.c",line 3212,column 5,is_stmt
    6700 001e2d ED00          MOV dbl(*SP(#0)), XAR3
         001e2f BF   
    6701 001e30 A96D          MOV *AR3(#106), AR1 ; |3212| 
         001e32 006A 
    6702 001e34 C912          MOV AR1, *SP(#9) ; |3212| 
    6703                      .dwpsn  file "../c5535_bsl_revc/ezdsp5535_v1/c55xx_csl/src/csl_usb.c",line 3213,column 5,is_stmt
    6704 001e36 ED00          MOV dbl(*SP(#0)), XAR3
         001e38 BF   
    6705 001e39 A56D          MOV *AR3(#106), T1 ; |3213| 
         001e3b 006A 
    6706              $C$DW$361       .dwtag  DW_TAG_TI_branch
    6707                      .dwattr $C$DW$361, DW_AT_low_pc(0x00)
    6708                      .dwattr $C$DW$361, DW_AT_name("_USB_setConfiguration")
    6709                      .dwattr $C$DW$361, DW_AT_TI_call
    6710              
    6711 001e3d 08E2          CALL #_USB_setConfiguration ; |3213| 
TMS320C55x Assembler PC v4.4.1 Tue Oct 02 02:33:44 2018

Tools Copyright (c) 1996-2012 Texas Instruments Incorporated
csl_usb.asm                                                          PAGE  161

         001e3f 02   
    6712 001e40 3D04  ||      MOV #0, T0
    6713              
    6714                                                      ; call occurs [#_USB_setConfiguration] ; |3213| 
    6715                      .dwpsn  file "../c5535_bsl_revc/ezdsp5535_v1/c55xx_csl/src/csl_usb.c",line 3216,column 5,is_stmt
    6716              $C$DW$362       .dwtag  DW_TAG_TI_branch
    6717                      .dwattr $C$DW$362, DW_AT_low_pc(0x00)
    6718                      .dwattr $C$DW$362, DW_AT_name("_USB_clearEpRxPktRdy")
    6719                      .dwattr $C$DW$362, DW_AT_TI_call
    6720              
    6721 001e42 08E4          CALL #_USB_clearEpRxPktRdy ; |3216| 
         001e44 05   
    6722 001e45 3D00  ||      MOV #0, AC0 ; |3216| 
    6723              
    6724                                                      ; call occurs [#_USB_clearEpRxPktRdy] ; |3216| 
    6725                      .dwpsn  file "../c5535_bsl_revc/ezdsp5535_v1/c55xx_csl/src/csl_usb.c",line 3218,column 10,is_stmt
    6726 001e47 0603          B $C$L243 ; |3218| 
         001e49 A3   
    6727                                                      ; branch occurs ; |3218| 
    6728 001e4a       $C$L212:    
    6729                      .dwpsn  file "../c5535_bsl_revc/ezdsp5535_v1/c55xx_csl/src/csl_usb.c",line 3221,column 5,is_stmt
    6730 001e4a ED00          MOV dbl(*SP(#0)), XAR3
         001e4c BF   
    6731 001e4d A96D          MOV *AR3(#106), AR1 ; |3221| 
         001e4f 006A 
    6732 001e51 C914          MOV AR1, *SP(#10) ; |3221| 
    6733                      .dwpsn  file "../c5535_bsl_revc/ezdsp5535_v1/c55xx_csl/src/csl_usb.c",line 3222,column 5,is_stmt
    6734 001e53 ED00          MOV dbl(*SP(#0)), XAR3
         001e55 BF   
    6735 001e56 A96D          MOV *AR3(#106), AR1 ; |3222| 
         001e58 006A 
    6736 001e5a 6399          BCC $C$L213,AR1 != #0 ; |3222| 
    6737                                                      ; branchcc occurs ; |3222| 
    6738                      .dwpsn  file "../c5535_bsl_revc/ezdsp5535_v1/c55xx_csl/src/csl_usb.c",line 3223,column 6,is_stmt
    6739 001e5c 3C04          MOV #0, T0
    6740              $C$DW$363       .dwtag  DW_TAG_TI_branch
    6741                      .dwattr $C$DW$363, DW_AT_low_pc(0x00)
    6742                      .dwattr $C$DW$363, DW_AT_name("_USB_setConfiguration")
    6743                      .dwattr $C$DW$363, DW_AT_TI_call
    6744              
    6745 001e5e 08E1          CALL #_USB_setConfiguration ; |3223| 
         001e60 E1   
    6746 001e61 3D05  ||      MOV #0, T1
    6747              
    6748                                                      ; call occurs [#_USB_setConfiguration] ; |3223| 
    6749 001e63       $C$L213:    
    6750                      .dwpsn  file "../c5535_bsl_revc/ezdsp5535_v1/c55xx_csl/src/csl_usb.c",line 3226,column 5,is_stmt
    6751              $C$DW$364       .dwtag  DW_TAG_TI_branch
    6752                      .dwattr $C$DW$364, DW_AT_low_pc(0x00)
    6753                      .dwattr $C$DW$364, DW_AT_name("_USB_clearEpRxPktRdy")
    6754                      .dwattr $C$DW$364, DW_AT_TI_call
    6755              
    6756 001e63 08E3          CALL #_USB_clearEpRxPktRdy ; |3226| 
         001e65 E4   
    6757 001e66 3D00  ||      MOV #0, AC0 ; |3226| 
TMS320C55x Assembler PC v4.4.1 Tue Oct 02 02:33:44 2018

Tools Copyright (c) 1996-2012 Texas Instruments Incorporated
csl_usb.asm                                                          PAGE  162

    6758              
    6759                                                      ; call occurs [#_USB_clearEpRxPktRdy] ; |3226| 
    6760                      .dwpsn  file "../c5535_bsl_revc/ezdsp5535_v1/c55xx_csl/src/csl_usb.c",line 3228,column 10,is_stmt
    6761 001e68 0603          B $C$L243 ; |3228| 
         001e6a 82   
    6762                                                      ; branch occurs ; |3228| 
    6763 001e6b       $C$L214:    
    6764                      .dwpsn  file "../c5535_bsl_revc/ezdsp5535_v1/c55xx_csl/src/csl_usb.c",line 3236,column 7,is_stmt
    6765 001e6b ED6D          MOV dbl(*AR3(#184)), XAR0
         001e6d 8F00 
         001e6f B8   
    6766 001e70 ED6D          MOV dbl(*AR3(#120)), XAR3
         001e72 BF00 
         001e74 78   
    6767 001e75 DF61          MOV uns(low_byte(*AR3)), T0 ; |3236| 
         001e77 43   
    6768 001e78 ED00          MOV dbl(*SP(#0)), XAR3
         001e7a BF   
    6769 001e7b 7600          MOV #128, T1 ; |3236| 
         001e7d 8058 
    6770 001e7f ED6D          MOV dbl(*AR3(#120)), XAR1
         001e81 9F00 
         001e83 78   
    6771              $C$DW$365       .dwtag  DW_TAG_TI_branch
    6772                      .dwattr $C$DW$365, DW_AT_low_pc(0x00)
    6773                      .dwattr $C$DW$365, DW_AT_name("_USB_postTransaction")
    6774                      .dwattr $C$DW$365, DW_AT_TI_call
    6775 001e84 08EF          CALL #_USB_postTransaction ; |3236| 
         001e86 F9   
    6776                                                      ; call occurs [#_USB_postTransaction] ; |3236| 
    6777 001e87 C410          MOV T0, *SP(#8) ; |3236| 
    6778                      .dwpsn  file "../c5535_bsl_revc/ezdsp5535_v1/c55xx_csl/src/csl_usb.c",line 3239,column 12,is_stmt
    6779 001e89 0601          B $C$L231 ; |3239| 
         001e8b E6   
    6780                                                      ; branch occurs ; |3239| 
    6781 001e8c       $C$L215:    
    6782                      .dwpsn  file "../c5535_bsl_revc/ezdsp5535_v1/c55xx_csl/src/csl_usb.c",line 3242,column 7,is_stmt
    6783 001e8c F06D          CMP *AR3(#108) == #9, TC1 ; |3242| 
         001e8e 0009 
         001e90 006C 
    6784 001e92 0474          BCC $C$L216,!TC1 ; |3242| 
         001e94 18   
    6785                                                      ; branchcc occurs ; |3242| 
    6786                      .dwpsn  file "../c5535_bsl_revc/ezdsp5535_v1/c55xx_csl/src/csl_usb.c",line 3245,column 8,is_stmt
    6787 001e95 ED6D          MOV dbl(*AR3(#184)), XAR0
         001e97 8F00 
         001e99 B8   
    6788 001e9a ED6D          MOV dbl(*AR3(#124)), XAR1
         001e9c 9F00 
         001e9e 7C   
    6789 001e9f 7600          MOV #128, T1 ; |3245| 
         001ea1 8058 
    6790              $C$DW$366       .dwtag  DW_TAG_TI_branch
    6791                      .dwattr $C$DW$366, DW_AT_low_pc(0x00)
    6792                      .dwattr $C$DW$366, DW_AT_name("_USB_postTransaction")
TMS320C55x Assembler PC v4.4.1 Tue Oct 02 02:33:44 2018

Tools Copyright (c) 1996-2012 Texas Instruments Incorporated
csl_usb.asm                                                          PAGE  163

    6793                      .dwattr $C$DW$366, DW_AT_TI_call
    6794              
    6795 001ea3 08EF          CALL #_USB_postTransaction ; |3245| 
         001ea5 D8   
    6796 001ea6 3D94  ||      MOV #9, T0
    6797              
    6798                                                      ; call occurs [#_USB_postTransaction] ; |3245| 
    6799 001ea8 C410          MOV T0, *SP(#8) ; |3245| 
    6800                      .dwpsn  file "../c5535_bsl_revc/ezdsp5535_v1/c55xx_csl/src/csl_usb.c",line 3248,column 7,is_stmt
    6801 001eaa 0601          B $C$L231 ; |3248| 
         001eac C5   
    6802                                                      ; branch occurs ; |3248| 
    6803 001ead       $C$L216:    
    6804                      .dwpsn  file "../c5535_bsl_revc/ezdsp5535_v1/c55xx_csl/src/csl_usb.c",line 3252,column 8,is_stmt
    6805 001ead ED6D          MOV dbl(*AR3(#184)), XAR0
         001eaf 8F00 
         001eb1 B8   
    6806 001eb2 ED6D          MOV dbl(*AR3(#124)), XAR3
         001eb4 BF00 
         001eb6 7C   
    6807 001eb7 DF73          MOV uns(low_byte(*AR3(short(#1)))), T0 ; |3252| 
         001eb9 43   
    6808 001eba ED00          MOV dbl(*SP(#0)), XAR3
         001ebc BF   
    6809 001ebd 7600          MOV #128, T1 ; |3252| 
         001ebf 8058 
    6810 001ec1 ED6D          MOV dbl(*AR3(#124)), XAR1
         001ec3 9F00 
         001ec5 7C   
    6811              $C$DW$367       .dwtag  DW_TAG_TI_branch
    6812                      .dwattr $C$DW$367, DW_AT_low_pc(0x00)
    6813                      .dwattr $C$DW$367, DW_AT_name("_USB_postTransaction")
    6814                      .dwattr $C$DW$367, DW_AT_TI_call
    6815 001ec6 08EF          CALL #_USB_postTransaction ; |3252| 
         001ec8 B7   
    6816                                                      ; call occurs [#_USB_postTransaction] ; |3252| 
    6817 001ec9 C410          MOV T0, *SP(#8) ; |3252| 
    6818                      .dwpsn  file "../c5535_bsl_revc/ezdsp5535_v1/c55xx_csl/src/csl_usb.c",line 3257,column 12,is_stmt
    6819 001ecb 0601          B $C$L231 ; |3257| 
         001ecd A4   
    6820                                                      ; branch occurs ; |3257| 
    6821 001ece       $C$L217:    
    6822                      .dwpsn  file "../c5535_bsl_revc/ezdsp5535_v1/c55xx_csl/src/csl_usb.c",line 3260,column 7,is_stmt
    6823 001ece F06D          CMP *AR3(#108) == #9, TC1 ; |3260| 
         001ed0 0009 
         001ed2 006C 
    6824 001ed4 0474          BCC $C$L218,!TC1 ; |3260| 
         001ed6 1C   
    6825                                                      ; branchcc occurs ; |3260| 
    6826                      .dwpsn  file "../c5535_bsl_revc/ezdsp5535_v1/c55xx_csl/src/csl_usb.c",line 3262,column 15,is_stmt
    6827 001ed7 E608          MOV #13, *SP(#4) ; |3262| 
         001ed9 0D   
    6828                      .dwpsn  file "../c5535_bsl_revc/ezdsp5535_v1/c55xx_csl/src/csl_usb.c",line 3264,column 8,is_stmt
    6829 001eda ED00          MOV dbl(*SP(#0)), XAR3
         001edc BF   
TMS320C55x Assembler PC v4.4.1 Tue Oct 02 02:33:44 2018

Tools Copyright (c) 1996-2012 Texas Instruments Incorporated
csl_usb.asm                                                          PAGE  164

    6830 001edd A508          MOV *SP(#4), T1 ; |3264| 
    6831 001edf ED6D          MOV dbl(*AR3(#184)), XAR0
         001ee1 8F00 
         001ee3 B8   
    6832 001ee4 ED6D          MOV dbl(*AR3(#126)), XAR1
         001ee6 9F00 
         001ee8 7E   
    6833              $C$DW$368       .dwtag  DW_TAG_TI_branch
    6834                      .dwattr $C$DW$368, DW_AT_low_pc(0x00)
    6835                      .dwattr $C$DW$368, DW_AT_name("_USB_postTransaction")
    6836                      .dwattr $C$DW$368, DW_AT_TI_call
    6837              
    6838 001ee9 08EF          CALL #_USB_postTransaction ; |3264| 
         001eeb 92   
    6839 001eec 3D94  ||      MOV #9, T0
    6840              
    6841                                                      ; call occurs [#_USB_postTransaction] ; |3264| 
    6842 001eee C410          MOV T0, *SP(#8) ; |3264| 
    6843                      .dwpsn  file "../c5535_bsl_revc/ezdsp5535_v1/c55xx_csl/src/csl_usb.c",line 3267,column 7,is_stmt
    6844 001ef0 0601          B $C$L231 ; |3267| 
         001ef2 7F   
    6845                                                      ; branch occurs ; |3267| 
    6846 001ef3       $C$L218:    
    6847                      .dwpsn  file "../c5535_bsl_revc/ezdsp5535_v1/c55xx_csl/src/csl_usb.c",line 3270,column 15,is_stmt
    6848 001ef3 E608          MOV #12, *SP(#4) ; |3270| 
         001ef5 0C   
    6849                      .dwpsn  file "../c5535_bsl_revc/ezdsp5535_v1/c55xx_csl/src/csl_usb.c",line 3271,column 15,is_stmt
    6850 001ef6 ED00          MOV dbl(*SP(#0)), XAR3
         001ef8 BF   
    6851 001ef9 ED6D          MOV dbl(*AR3(#126)), XAR3
         001efb BF00 
         001efd 7E   
    6852 001efe DF73          MOV uns(low_byte(*AR3(short(#1)))), AR1 ; |3271| 
         001f00 93   
    6853 001f01 C90A          MOV AR1, *SP(#5) ; |3271| 
    6854                      .dwpsn  file "../c5535_bsl_revc/ezdsp5535_v1/c55xx_csl/src/csl_usb.c",line 3272,column 15,is_stmt
    6855 001f03 ED00          MOV dbl(*SP(#0)), XAR3
         001f05 BF   
    6856 001f06 AA0A          MOV *SP(#5), AR2 ; |3272| 
    6857 001f08 A96D          MOV *AR3(#108), AR1 ; |3272| 
         001f0a 006C 
    6858 001f0c 12AC          CMPU AR2 != AR1, TC1 ; |3272| 
         001f0e 94   
    6859 001f0f 6264          BCC $C$L219,TC1 ; |3272| 
    6860                                                      ; branchcc occurs ; |3272| 
    6861                      .dwpsn  file "../c5535_bsl_revc/ezdsp5535_v1/c55xx_csl/src/csl_usb.c",line 3274,column 9,is_stmt
    6862 001f11 F508          OR #0x0001, *SP(#4) ; |3274| 
         001f13 0001 
    6863 001f15       $C$L219:    
    6864                      .dwpsn  file "../c5535_bsl_revc/ezdsp5535_v1/c55xx_csl/src/csl_usb.c",line 3278,column 15,is_stmt
    6865 001f15 ED00          MOV dbl(*SP(#0)), XAR3
         001f17 BF   
    6866 001f18 AA0A          MOV *SP(#5), AR2 ; |3278| 
    6867 001f1a A96D          MOV *AR3(#108), AR1 ; |3278| 
         001f1c 006C 
TMS320C55x Assembler PC v4.4.1 Tue Oct 02 02:33:44 2018

Tools Copyright (c) 1996-2012 Texas Instruments Incorporated
csl_usb.asm                                                          PAGE  165

    6868 001f1e 12A8          CMPU AR2 >= AR1, TC1 ; |3278| 
         001f20 94   
    6869 001f21 6264          BCC $C$L220,TC1 ; |3278| 
    6870                                                      ; branchcc occurs ; |3278| 
    6871              
    6872 001f23 4A04          B $C$L221 ; |3278| 
    6873 001f25 23A9  ||      MOV AR2, AR1
    6874              
    6875                                                      ; branch occurs ; |3278| 
    6876 001f27       $C$L220:    
    6877 001f27 A96D          MOV *AR3(#108), AR1 ; |3278| 
         001f29 006C 
    6878 001f2b       $C$L221:    
    6879 001f2b C90A          MOV AR1, *SP(#5) ; |3278| 
    6880                      .dwpsn  file "../c5535_bsl_revc/ezdsp5535_v1/c55xx_csl/src/csl_usb.c",line 3280,column 8,is_stmt
    6881 001f2d ED00          MOV dbl(*SP(#0)), XAR3
         001f2f BF   
    6882 001f30 A40A          MOV *SP(#5), T0 ; |3280| 
    6883 001f32 A508          MOV *SP(#4), T1 ; |3280| 
    6884 001f34 ED6D          MOV dbl(*AR3(#184)), XAR0
         001f36 8F00 
         001f38 B8   
    6885 001f39 ED6D          MOV dbl(*AR3(#126)), XAR1
         001f3b 9F00 
         001f3d 7E   
    6886              $C$DW$369       .dwtag  DW_TAG_TI_branch
    6887                      .dwattr $C$DW$369, DW_AT_low_pc(0x00)
    6888                      .dwattr $C$DW$369, DW_AT_name("_USB_postTransaction")
    6889                      .dwattr $C$DW$369, DW_AT_TI_call
    6890 001f3e 08EF          CALL #_USB_postTransaction ; |3280| 
         001f40 3F   
    6891                                                      ; call occurs [#_USB_postTransaction] ; |3280| 
    6892 001f41 C410          MOV T0, *SP(#8) ; |3280| 
    6893                      .dwpsn  file "../c5535_bsl_revc/ezdsp5535_v1/c55xx_csl/src/csl_usb.c",line 3284,column 19,is_stmt
    6894 001f43 0601          B $C$L231 ; |3284| 
         001f45 2C   
    6895                                                      ; branch occurs ; |3284| 
    6896 001f46       $C$L222:    
    6897                      .dwpsn  file "../c5535_bsl_revc/ezdsp5535_v1/c55xx_csl/src/csl_usb.c",line 3287,column 7,is_stmt
    6898 001f46 DF6D          MOV uns(low_byte(*AR3(#106))), AR1 ; |3287| 
         001f48 9300 
         001f4a 6A   
    6899 001f4b 0419          BCC $C$L223,AR1 != #0 ; |3287| 
         001f4d 1E   
    6900                                                      ; branchcc occurs ; |3287| 
    6901                      .dwpsn  file "../c5535_bsl_revc/ezdsp5535_v1/c55xx_csl/src/csl_usb.c",line 3290,column 8,is_stmt
    6902 001f4e ED6D          MOV dbl(*AR3(#184)), XAR0
         001f50 8F00 
         001f52 B8   
    6903 001f53 ED6D          MOV dbl(*AR3(#128)), XAR3
         001f55 BF00 
         001f57 80   
    6904 001f58 DF61          MOV uns(low_byte(*AR3)), T0 ; |3290| 
         001f5a 43   
    6905 001f5b ED00          MOV dbl(*SP(#0)), XAR3
TMS320C55x Assembler PC v4.4.1 Tue Oct 02 02:33:44 2018

Tools Copyright (c) 1996-2012 Texas Instruments Incorporated
csl_usb.asm                                                          PAGE  166

         001f5d BF   
    6906 001f5e 7600          MOV #128, T1 ; |3290| 
         001f60 8058 
    6907 001f62 ED6D          MOV dbl(*AR3(#128)), XAR1
         001f64 9F00 
         001f66 80   
    6908              $C$DW$370       .dwtag  DW_TAG_TI_branch
    6909                      .dwattr $C$DW$370, DW_AT_low_pc(0x00)
    6910                      .dwattr $C$DW$370, DW_AT_name("_USB_postTransaction")
    6911                      .dwattr $C$DW$370, DW_AT_TI_call
    6912 001f67 08EF          CALL #_USB_postTransaction ; |3290| 
         001f69 16   
    6913                                                      ; call occurs [#_USB_postTransaction] ; |3290| 
    6914 001f6a C410          MOV T0, *SP(#8) ; |3290| 
    6915 001f6c       $C$L223:    
    6916                      .dwpsn  file "../c5535_bsl_revc/ezdsp5535_v1/c55xx_csl/src/csl_usb.c",line 3294,column 7,is_stmt
    6917 001f6c ED00          MOV dbl(*SP(#0)), XAR3
         001f6e BF   
    6918 001f6f 3C1A          MOV #1, AR2
    6919 001f71 DF6D          MOV uns(low_byte(*AR3(#106))), AR1 ; |3294| 
         001f73 9300 
         001f75 6A   
    6920 001f76 129C          CMPU AR1 != AR2, TC1 ; |3294| 
         001f78 A4   
    6921 001f79 0464          BCC $C$L224,TC1 ; |3294| 
         001f7b 1E   
    6922                                                      ; branchcc occurs ; |3294| 
    6923                      .dwpsn  file "../c5535_bsl_revc/ezdsp5535_v1/c55xx_csl/src/csl_usb.c",line 3297,column 8,is_stmt
    6924 001f7c ED6D          MOV dbl(*AR3(#184)), XAR0
         001f7e 8F00 
         001f80 B8   
    6925 001f81 ED6D          MOV dbl(*AR3(#130)), XAR3
         001f83 BF00 
         001f85 82   
    6926 001f86 DF61          MOV uns(low_byte(*AR3)), T0 ; |3297| 
         001f88 43   
    6927 001f89 ED00          MOV dbl(*SP(#0)), XAR3
         001f8b BF   
    6928 001f8c 7600          MOV #128, T1 ; |3297| 
         001f8e 8058 
    6929 001f90 ED6D          MOV dbl(*AR3(#130)), XAR1
         001f92 9F00 
         001f94 82   
    6930              $C$DW$371       .dwtag  DW_TAG_TI_branch
    6931                      .dwattr $C$DW$371, DW_AT_low_pc(0x00)
    6932                      .dwattr $C$DW$371, DW_AT_name("_USB_postTransaction")
    6933                      .dwattr $C$DW$371, DW_AT_TI_call
    6934 001f95 08EE          CALL #_USB_postTransaction ; |3297| 
         001f97 E8   
    6935                                                      ; call occurs [#_USB_postTransaction] ; |3297| 
    6936 001f98 C410          MOV T0, *SP(#8) ; |3297| 
    6937 001f9a       $C$L224:    
    6938                      .dwpsn  file "../c5535_bsl_revc/ezdsp5535_v1/c55xx_csl/src/csl_usb.c",line 3301,column 7,is_stmt
    6939 001f9a ED00          MOV dbl(*SP(#0)), XAR3
         001f9c BF   
TMS320C55x Assembler PC v4.4.1 Tue Oct 02 02:33:44 2018

Tools Copyright (c) 1996-2012 Texas Instruments Incorporated
csl_usb.asm                                                          PAGE  167

    6940 001f9d 3C2A          MOV #2, AR2
    6941 001f9f DF6D          MOV uns(low_byte(*AR3(#106))), AR1 ; |3301| 
         001fa1 9300 
         001fa3 6A   
    6942 001fa4 129C          CMPU AR1 != AR2, TC1 ; |3301| 
         001fa6 A4   
    6943 001fa7 0464          BCC $C$L225,TC1 ; |3301| 
         001fa9 1E   
    6944                                                      ; branchcc occurs ; |3301| 
    6945                      .dwpsn  file "../c5535_bsl_revc/ezdsp5535_v1/c55xx_csl/src/csl_usb.c",line 3304,column 8,is_stmt
    6946 001faa ED6D          MOV dbl(*AR3(#184)), XAR0
         001fac 8F00 
         001fae B8   
    6947 001faf ED6D          MOV dbl(*AR3(#132)), XAR3
         001fb1 BF00 
         001fb3 84   
    6948 001fb4 DF61          MOV uns(low_byte(*AR3)), T0 ; |3304| 
         001fb6 43   
    6949 001fb7 ED00          MOV dbl(*SP(#0)), XAR3
         001fb9 BF   
    6950 001fba 7600          MOV #128, T1 ; |3304| 
         001fbc 8058 
    6951 001fbe ED6D          MOV dbl(*AR3(#132)), XAR1
         001fc0 9F00 
         001fc2 84   
    6952              $C$DW$372       .dwtag  DW_TAG_TI_branch
    6953                      .dwattr $C$DW$372, DW_AT_low_pc(0x00)
    6954                      .dwattr $C$DW$372, DW_AT_name("_USB_postTransaction")
    6955                      .dwattr $C$DW$372, DW_AT_TI_call
    6956 001fc3 08EE          CALL #_USB_postTransaction ; |3304| 
         001fc5 BA   
    6957                                                      ; call occurs [#_USB_postTransaction] ; |3304| 
    6958 001fc6 C410          MOV T0, *SP(#8) ; |3304| 
    6959 001fc8       $C$L225:    
    6960                      .dwpsn  file "../c5535_bsl_revc/ezdsp5535_v1/c55xx_csl/src/csl_usb.c",line 3308,column 7,is_stmt
    6961 001fc8 ED00          MOV dbl(*SP(#0)), XAR3
         001fca BF   
    6962 001fcb 3C3A          MOV #3, AR2
    6963 001fcd DF6D          MOV uns(low_byte(*AR3(#106))), AR1 ; |3308| 
         001fcf 9300 
         001fd1 6A   
    6964 001fd2 129C          CMPU AR1 != AR2, TC1 ; |3308| 
         001fd4 A4   
    6965 001fd5 6D64          BCC $C$L231,TC1 ; |3308| 
         001fd7 0099 
    6966                                                      ; branchcc occurs ; |3308| 
    6967                      .dwpsn  file "../c5535_bsl_revc/ezdsp5535_v1/c55xx_csl/src/csl_usb.c",line 3311,column 8,is_stmt
    6968 001fd9 ED6D          MOV dbl(*AR3(#184)), XAR0
         001fdb 8F00 
         001fdd B8   
    6969 001fde ED6D          MOV dbl(*AR3(#134)), XAR3
         001fe0 BF00 
         001fe2 86   
    6970 001fe3 DF61          MOV uns(low_byte(*AR3)), T0 ; |3311| 
         001fe5 43   
TMS320C55x Assembler PC v4.4.1 Tue Oct 02 02:33:44 2018

Tools Copyright (c) 1996-2012 Texas Instruments Incorporated
csl_usb.asm                                                          PAGE  168

    6971 001fe6 ED00          MOV dbl(*SP(#0)), XAR3
         001fe8 BF   
    6972 001fe9 7600          MOV #128, T1 ; |3311| 
         001feb 8058 
    6973 001fed ED6D          MOV dbl(*AR3(#134)), XAR1
         001fef 9F00 
         001ff1 86   
    6974              $C$DW$373       .dwtag  DW_TAG_TI_branch
    6975                      .dwattr $C$DW$373, DW_AT_low_pc(0x00)
    6976                      .dwattr $C$DW$373, DW_AT_name("_USB_postTransaction")
    6977                      .dwattr $C$DW$373, DW_AT_TI_call
    6978 001ff2 08EE          CALL #_USB_postTransaction ; |3311| 
         001ff4 8B   
    6979                                                      ; call occurs [#_USB_postTransaction] ; |3311| 
    6980 001ff5 C410          MOV T0, *SP(#8) ; |3311| 
    6981                      .dwpsn  file "../c5535_bsl_revc/ezdsp5535_v1/c55xx_csl/src/csl_usb.c",line 3315,column 12,is_stmt
    6982 001ff7 0600          B $C$L231 ; |3315| 
         001ff9 78   
    6983                                                      ; branch occurs ; |3315| 
    6984 001ffa       $C$L226:    
    6985                      .dwpsn  file "../c5535_bsl_revc/ezdsp5535_v1/c55xx_csl/src/csl_usb.c",line 3319,column 13,is_stmt
    6986 001ffa ED6D          MOV dbl(*AR3(#122)), XAR3
         001ffc BF00 
         001ffe 7A   
    6987 001fff DF61          MOV uns(low_byte(*AR3)), AR1 ; |3319| 
         002001 93   
    6988 002002 C90A          MOV AR1, *SP(#5) ; |3319| 
    6989                      .dwpsn  file "../c5535_bsl_revc/ezdsp5535_v1/c55xx_csl/src/csl_usb.c",line 3321,column 16,is_stmt
    6990 002004 ED00          MOV dbl(*SP(#0)), XAR3
         002006 BF   
    6991 002007 AA0A          MOV *SP(#5), AR2 ; |3321| 
    6992 002009 A96D          MOV *AR3(#108), AR1 ; |3321| 
         00200b 006C 
    6993 00200d 12A8          CMPU AR2 >= AR1, TC1 ; |3321| 
         00200f 94   
    6994 002010 6264          BCC $C$L227,TC1 ; |3321| 
    6995                                                      ; branchcc occurs ; |3321| 
    6996              
    6997 002012 4A04          B $C$L228 ; |3321| 
    6998 002014 23A9  ||      MOV AR2, AR1
    6999              
    7000                                                      ; branch occurs ; |3321| 
    7001 002016       $C$L227:    
    7002 002016 A96D          MOV *AR3(#108), AR1 ; |3321| 
         002018 006C 
    7003 00201a       $C$L228:    
    7004 00201a C90A          MOV AR1, *SP(#5) ; |3321| 
    7005                      .dwpsn  file "../c5535_bsl_revc/ezdsp5535_v1/c55xx_csl/src/csl_usb.c",line 3322,column 7,is_stmt
    7006 00201c ED00          MOV dbl(*SP(#0)), XAR3
         00201e BF   
    7007 00201f 7600          MOV #128, T1 ; |3322| 
         002021 8058 
    7008 002023 A40A          MOV *SP(#5), T0 ; |3322| 
    7009 002025 ED6D          MOV dbl(*AR3(#184)), XAR0
         002027 8F00 
TMS320C55x Assembler PC v4.4.1 Tue Oct 02 02:33:44 2018

Tools Copyright (c) 1996-2012 Texas Instruments Incorporated
csl_usb.asm                                                          PAGE  169

         002029 B8   
    7010 00202a ED6D          MOV dbl(*AR3(#122)), XAR1
         00202c 9F00 
         00202e 7A   
    7011              $C$DW$374       .dwtag  DW_TAG_TI_branch
    7012                      .dwattr $C$DW$374, DW_AT_low_pc(0x00)
    7013                      .dwattr $C$DW$374, DW_AT_name("_USB_postTransaction")
    7014                      .dwattr $C$DW$374, DW_AT_TI_call
    7015 00202f 08EE          CALL #_USB_postTransaction ; |3322| 
         002031 4E   
    7016                                                      ; call occurs [#_USB_postTransaction] ; |3322| 
    7017 002032 C410          MOV T0, *SP(#8) ; |3322| 
    7018                      .dwpsn  file "../c5535_bsl_revc/ezdsp5535_v1/c55xx_csl/src/csl_usb.c",line 3325,column 12,is_stmt
    7019 002034 4A3C          B $C$L231 ; |3325| 
    7020                                                      ; branch occurs ; |3325| 
    7021 002036       $C$L229:    
    7022                      .dwpsn  file "../c5535_bsl_revc/ezdsp5535_v1/c55xx_csl/src/csl_usb.c",line 3232,column 5,is_stmt
    7023 002036 ED00          MOV dbl(*SP(#0)), XAR3
         002038 BF   
    7024 002039 3C3A          MOV #3, AR2
    7025 00203b DF6D          MOV uns(high_byte(*AR3(#106))), AR1 ; |3232| 
         00203d 9100 
         00203f 6A   
    7026 002040 12A4          CMP AR1 > AR2, TC1 ; |3232| 
         002042 90   
    7027 002043 0464          BCC $C$L230,TC1 ; |3232| 
         002045 1B   
    7028                                                      ; branchcc occurs ; |3232| 
    7029 002046 1290          CMP AR1 == AR2, TC1 ; |3232| 
         002048 A0   
    7030 002049 6D64          BCC $C$L222,TC1 ; |3232| 
         00204b FEF9 
    7031                                                      ; branchcc occurs ; |3232| 
    7032 00204d 3C1A          MOV #1, AR2
    7033 00204f 1290          CMPU AR1 == AR2, TC1 ; |3232| 
         002051 A4   
    7034 002052 6D64          BCC $C$L214,TC1 ; |3232| 
         002054 FE15 
    7035                                                      ; branchcc occurs ; |3232| 
    7036 002056 3C2A          MOV #2, AR2
    7037 002058 1290          CMPU AR1 == AR2, TC1 ; |3232| 
         00205a A4   
    7038 00205b 6D64          BCC $C$L215,TC1 ; |3232| 
         00205d FE2D 
    7039                                                      ; branchcc occurs ; |3232| 
    7040 00205f 4A11          B $C$L231 ; |3232| 
    7041                                                      ; branch occurs ; |3232| 
    7042 002061       $C$L230:    
    7043 002061 3C6A          MOV #6, AR2
    7044 002063 1290          CMPU AR1 == AR2, TC1 ; |3232| 
         002065 A4   
    7045 002066 0464          BCC $C$L226,TC1 ; |3232| 
         002068 91   
    7046                                                      ; branchcc occurs ; |3232| 
    7047 002069 3C7A          MOV #7, AR2
TMS320C55x Assembler PC v4.4.1 Tue Oct 02 02:33:44 2018

Tools Copyright (c) 1996-2012 Texas Instruments Incorporated
csl_usb.asm                                                          PAGE  170

    7048 00206b 1290          CMPU AR1 == AR2, TC1 ; |3232| 
         00206d A4   
    7049 00206e 6D64          BCC $C$L217,TC1 ; |3232| 
         002070 FE5C 
    7050                                                      ; branchcc occurs ; |3232| 
    7051 002072       $C$L231:    
    7052                      .dwpsn  file "../c5535_bsl_revc/ezdsp5535_v1/c55xx_csl/src/csl_usb.c",line 3332,column 5,is_stmt
    7053              $C$DW$375       .dwtag  DW_TAG_TI_branch
    7054                      .dwattr $C$DW$375, DW_AT_low_pc(0x00)
    7055                      .dwattr $C$DW$375, DW_AT_name("_USB_sendEpZLP")
    7056                      .dwattr $C$DW$375, DW_AT_TI_call
    7057              
    7058 002072 08E1          CALL #_USB_sendEpZLP ; |3332| 
         002074 69   
    7059 002075 3D00  ||      MOV #0, AC0 ; |3332| 
    7060              
    7061                                                      ; call occurs [#_USB_sendEpZLP] ; |3332| 
    7062                      .dwpsn  file "../c5535_bsl_revc/ezdsp5535_v1/c55xx_csl/src/csl_usb.c",line 3334,column 10,is_stmt
    7063 002077 0601          B $C$L243 ; |3334| 
         002079 73   
    7064                                                      ; branch occurs ; |3334| 
    7065 00207a       $C$L232:    
    7066                      .dwpsn  file "../c5535_bsl_revc/ezdsp5535_v1/c55xx_csl/src/csl_usb.c",line 3337,column 5,is_stmt
    7067 00207a ED00          MOV dbl(*SP(#0)), XAR3
         00207c BF   
    7068 00207d A96D          MOV *AR3(#106), AR1 ; |3337| 
         00207f 006A 
    7069 002081 C96D          MOV AR1, *AR3(#136) ; |3337| 
         002083 0088 
    7070                      .dwpsn  file "../c5535_bsl_revc/ezdsp5535_v1/c55xx_csl/src/csl_usb.c",line 3339,column 5,is_stmt
    7071 002085 ED00          MOV dbl(*SP(#0)), XAR3
         002087 BF   
    7072 002088 3C04          MOV #0, T0
    7073 00208a EC31          AMOV #0, XAR1 ; |3339| 
         00208c 9E00 
         00208e 0000 
    7074 002090 ED6D          MOV dbl(*AR3(#184)), XAR0
         002092 8F00 
         002094 B8   
    7075              $C$DW$376       .dwtag  DW_TAG_TI_branch
    7076                      .dwattr $C$DW$376, DW_AT_low_pc(0x00)
    7077                      .dwattr $C$DW$376, DW_AT_name("_USB_postTransaction")
    7078                      .dwattr $C$DW$376, DW_AT_TI_call
    7079              
    7080 002095 08ED          CALL #_USB_postTransaction ; |3339| 
         002097 E6   
    7081 002098 3D05  ||      MOV #0, T1
    7082              
    7083                                                      ; call occurs [#_USB_postTransaction] ; |3339| 
    7084                      .dwpsn  file "../c5535_bsl_revc/ezdsp5535_v1/c55xx_csl/src/csl_usb.c",line 3343,column 5,is_stmt
    7085              $C$DW$377       .dwtag  DW_TAG_TI_branch
    7086                      .dwattr $C$DW$377, DW_AT_low_pc(0x00)
    7087                      .dwattr $C$DW$377, DW_AT_name("_USB_clearEpRxPktRdy")
    7088                      .dwattr $C$DW$377, DW_AT_TI_call
    7089              
TMS320C55x Assembler PC v4.4.1 Tue Oct 02 02:33:44 2018

Tools Copyright (c) 1996-2012 Texas Instruments Incorporated
csl_usb.asm                                                          PAGE  171

    7090 00209a 08E1          CALL #_USB_clearEpRxPktRdy ; |3343| 
         00209c AD   
    7091 00209d 3D00  ||      MOV #0, AC0 ; |3343| 
    7092              
    7093                                                      ; call occurs [#_USB_clearEpRxPktRdy] ; |3343| 
    7094                      .dwpsn  file "../c5535_bsl_revc/ezdsp5535_v1/c55xx_csl/src/csl_usb.c",line 3345,column 10,is_stmt
    7095 00209f 0601          B $C$L243 ; |3345| 
         0020a1 4B   
    7096                                                      ; branch occurs ; |3345| 
    7097 0020a2       $C$L233:    
    7098                      .dwpsn  file "../c5535_bsl_revc/ezdsp5535_v1/c55xx_csl/src/csl_usb.c",line 3349,column 4,is_stmt
    7099 0020a2 A912          MOV *SP(#9), AR1 ; |3349| 
    7100 0020a4 C916          MOV AR1, *SP(#11) ; |3349| 
    7101                      .dwpsn  file "../c5535_bsl_revc/ezdsp5535_v1/c55xx_csl/src/csl_usb.c",line 3350,column 4,is_stmt
    7102 0020a6 ED00          MOV dbl(*SP(#0)), XAR3
         0020a8 BF   
    7103 0020a9 EC16          AMAR *SP(#11), XAR1
         0020ab 9E   
    7104 0020ac ED6D          MOV dbl(*AR3(#184)), XAR0
         0020ae 8F00 
         0020b0 B8   
    7105              $C$DW$378       .dwtag  DW_TAG_TI_branch
    7106                      .dwattr $C$DW$378, DW_AT_low_pc(0x00)
    7107                      .dwattr $C$DW$378, DW_AT_name("_USB_postTransaction")
    7108                      .dwattr $C$DW$378, DW_AT_TI_call
    7109              
    7110 0020b1 08ED          CALL #_USB_postTransaction ; |3350| 
         0020b3 CA   
    7111 0020b4 3D14  ||      MOV #1, T0
    7112              
    7113                                                      ; call occurs [#_USB_postTransaction] ; |3350| 
    7114                      .dwpsn  file "../c5535_bsl_revc/ezdsp5535_v1/c55xx_csl/src/csl_usb.c",line 3353,column 4,is_stmt
    7115              $C$DW$379       .dwtag  DW_TAG_TI_branch
    7116                      .dwattr $C$DW$379, DW_AT_low_pc(0x00)
    7117                      .dwattr $C$DW$379, DW_AT_name("_USB_sendEpZLP")
    7118                      .dwattr $C$DW$379, DW_AT_TI_call
    7119              
    7120 0020b6 08E1          CALL #_USB_sendEpZLP ; |3353| 
         0020b8 25   
    7121 0020b9 3D00  ||      MOV #0, AC0 ; |3353| 
    7122              
    7123                                                      ; call occurs [#_USB_sendEpZLP] ; |3353| 
    7124                      .dwpsn  file "../c5535_bsl_revc/ezdsp5535_v1/c55xx_csl/src/csl_usb.c",line 3355,column 9,is_stmt
    7125 0020bb 0601          B $C$L243 ; |3355| 
         0020bd 2F   
    7126                                                      ; branch occurs ; |3355| 
    7127 0020be       $C$L234:    
    7128                      .dwpsn  file "../c5535_bsl_revc/ezdsp5535_v1/c55xx_csl/src/csl_usb.c",line 3359,column 4,is_stmt
    7129 0020be ED00          MOV dbl(*SP(#0)), XAR3
         0020c0 BF   
    7130 0020c1 A96D          MOV *AR3(#106), AR1 ; |3359| 
         0020c3 006A 
    7131 0020c5 C916          MOV AR1, *SP(#11) ; |3359| 
    7132                      .dwpsn  file "../c5535_bsl_revc/ezdsp5535_v1/c55xx_csl/src/csl_usb.c",line 3360,column 4,is_stmt
    7133 0020c7 ED00          MOV dbl(*SP(#0)), XAR3
TMS320C55x Assembler PC v4.4.1 Tue Oct 02 02:33:44 2018

Tools Copyright (c) 1996-2012 Texas Instruments Incorporated
csl_usb.asm                                                          PAGE  172

         0020c9 BF   
    7134 0020ca EC16          AMAR *SP(#11), XAR1
         0020cc 9E   
    7135 0020cd ED6D          MOV dbl(*AR3(#184)), XAR0
         0020cf 8F00 
         0020d1 B8   
    7136              $C$DW$380       .dwtag  DW_TAG_TI_branch
    7137                      .dwattr $C$DW$380, DW_AT_low_pc(0x00)
    7138                      .dwattr $C$DW$380, DW_AT_name("_USB_postTransaction")
    7139                      .dwattr $C$DW$380, DW_AT_TI_call
    7140              
    7141 0020d2 08ED          CALL #_USB_postTransaction ; |3360| 
         0020d4 A9   
    7142 0020d5 3D14  ||      MOV #1, T0
    7143              
    7144                                                      ; call occurs [#_USB_postTransaction] ; |3360| 
    7145                      .dwpsn  file "../c5535_bsl_revc/ezdsp5535_v1/c55xx_csl/src/csl_usb.c",line 3363,column 4,is_stmt
    7146              $C$DW$381       .dwtag  DW_TAG_TI_branch
    7147                      .dwattr $C$DW$381, DW_AT_low_pc(0x00)
    7148                      .dwattr $C$DW$381, DW_AT_name("_USB_sendEpZLP")
    7149                      .dwattr $C$DW$381, DW_AT_TI_call
    7150              
    7151 0020d7 08E1          CALL #_USB_sendEpZLP ; |3363| 
         0020d9 04   
    7152 0020da 3D00  ||      MOV #0, AC0 ; |3363| 
    7153              
    7154                                                      ; call occurs [#_USB_sendEpZLP] ; |3363| 
    7155                      .dwpsn  file "../c5535_bsl_revc/ezdsp5535_v1/c55xx_csl/src/csl_usb.c",line 3365,column 9,is_stmt
    7156 0020dc 0601          B $C$L243 ; |3365| 
         0020de 0E   
    7157                                                      ; branch occurs ; |3365| 
    7158 0020df       $C$L235:    
    7159                      .dwpsn  file "../c5535_bsl_revc/ezdsp5535_v1/c55xx_csl/src/csl_usb.c",line 3374,column 6,is_stmt
    7160              $C$DW$382       .dwtag  DW_TAG_TI_branch
    7161                      .dwattr $C$DW$382, DW_AT_low_pc(0x00)
    7162                      .dwattr $C$DW$382, DW_AT_name("_USB_getRemoteWakeupStat")
    7163                      .dwattr $C$DW$382, DW_AT_TI_call
    7164              
    7165 0020df 08F7          CALL #_USB_getRemoteWakeupStat ; |3374| 
         0020e1 C4   
    7166 0020e2 3D04  ||      MOV #0, T0
    7167              
    7168                                                      ; call occurs [#_USB_getRemoteWakeupStat] ; |3374| 
    7169 0020e4 ED00          MOV dbl(*SP(#0)), XAR3
         0020e6 BF   
    7170 0020e7 ED6D          MOV dbl(*AR3(#124)), XAR3
         0020e9 BF00 
         0020eb 7C   
    7171 0020ec A077          MOV *AR3(short(#3)), AC0 ; |3374| 
    7172              
    7173 0020ee 7640          BFXTR #0x4000, AC0, AC0 ; |3374| 
         0020f0 0000 
    7174 0020f2 2341  ||      MOV T0, AC1 ; |3374| 
    7175              
    7176 0020f4 1011          OR AC1 << #1, AC0 ; |3374| 
TMS320C55x Assembler PC v4.4.1 Tue Oct 02 02:33:44 2018

Tools Copyright (c) 1996-2012 Texas Instruments Incorporated
csl_usb.asm                                                          PAGE  173

         0020f6 01   
    7177 0020f7 C016          MOV AC0, *SP(#11) ; |3374| 
    7178                      .dwpsn  file "../c5535_bsl_revc/ezdsp5535_v1/c55xx_csl/src/csl_usb.c",line 3376,column 6,is_stmt
    7179 0020f9 ED00          MOV dbl(*SP(#0)), XAR3
         0020fb BF   
    7180              
    7181 0020fc EC16          AMAR *SP(#11), XAR1
         0020fe 9E   
    7182 0020ff 3D05  ||      MOV #0, T1
    7183              
    7184 002101 ED6D          MOV dbl(*AR3(#184)), XAR0
         002103 8F00 
         002105 B8   
    7185              $C$DW$383       .dwtag  DW_TAG_TI_branch
    7186                      .dwattr $C$DW$383, DW_AT_low_pc(0x00)
    7187                      .dwattr $C$DW$383, DW_AT_name("_USB_postTransaction")
    7188                      .dwattr $C$DW$383, DW_AT_TI_call
    7189              
    7190 002106 08ED          CALL #_USB_postTransaction ; |3376| 
         002108 75   
    7191 002109 3D24  ||      MOV #2, T0
    7192              
    7193                                                      ; call occurs [#_USB_postTransaction] ; |3376| 
    7194                      .dwpsn  file "../c5535_bsl_revc/ezdsp5535_v1/c55xx_csl/src/csl_usb.c",line 3378,column 11,is_stmt
    7195 00210b 0600          B $C$L240 ; |3378| 
         00210d 9C   
    7196                                                      ; branch occurs ; |3378| 
    7197 00210e       $C$L236:    
    7198                      .dwpsn  file "../c5535_bsl_revc/ezdsp5535_v1/c55xx_csl/src/csl_usb.c",line 3383,column 6,is_stmt
    7199 00210e E616          MOV #0, *SP(#11) ; |3383| 
         002110 00   
    7200                      .dwpsn  file "../c5535_bsl_revc/ezdsp5535_v1/c55xx_csl/src/csl_usb.c",line 3384,column 6,is_stmt
    7201 002111 ED00          MOV dbl(*SP(#0)), XAR3
         002113 BF   
    7202              
    7203 002117 3D24          MOV #2, T0
    7204 002114 EC16  ||      AMAR *SP(#11), XAR1
         002116 9E   
    7205              
    7206 002119 ED6D          MOV dbl(*AR3(#184)), XAR0
         00211b 8F00 
         00211d B8   
    7207              $C$DW$384       .dwtag  DW_TAG_TI_branch
    7208                      .dwattr $C$DW$384, DW_AT_low_pc(0x00)
    7209                      .dwattr $C$DW$384, DW_AT_name("_USB_postTransaction")
    7210                      .dwattr $C$DW$384, DW_AT_TI_call
    7211              
    7212 00211e 08ED          CALL #_USB_postTransaction ; |3384| 
         002120 5D   
    7213 002121 3D05  ||      MOV #0, T1
    7214              
    7215                                                      ; call occurs [#_USB_postTransaction] ; |3384| 
    7216                      .dwpsn  file "../c5535_bsl_revc/ezdsp5535_v1/c55xx_csl/src/csl_usb.c",line 3386,column 11,is_stmt
    7217 002123 0600          B $C$L240 ; |3386| 
         002125 84   
TMS320C55x Assembler PC v4.4.1 Tue Oct 02 02:33:44 2018

Tools Copyright (c) 1996-2012 Texas Instruments Incorporated
csl_usb.asm                                                          PAGE  174

    7218                                                      ; branch occurs ; |3386| 
    7219 002126       $C$L237:    
    7220                      .dwpsn  file "../c5535_bsl_revc/ezdsp5535_v1/c55xx_csl/src/csl_usb.c",line 3391,column 6,is_stmt
    7221 002126 DF6D          MOV uns(low_byte(*AR3(#107))), AR1 ; |3391| 
         002128 9300 
         00212a 6B   
    7222 00212b C90E          MOV AR1, *SP(#7) ; |3391| 
    7223                      .dwpsn  file "../c5535_bsl_revc/ezdsp5535_v1/c55xx_csl/src/csl_usb.c",line 3393,column 6,is_stmt
    7224 00212d 2295          MOV AR1, T1
    7225              $C$DW$385       .dwtag  DW_TAG_TI_branch
    7226                      .dwattr $C$DW$385, DW_AT_low_pc(0x00)
    7227                      .dwattr $C$DW$385, DW_AT_name("_USB_epNumToHandle")
    7228                      .dwattr $C$DW$385, DW_AT_TI_call
    7229              
    7230 00212f 08F3          CALL #_USB_epNumToHandle ; |3393| 
         002131 F0   
    7231 002132 3D04  ||      MOV #0, T0
    7232              
    7233                                                      ; call occurs [#_USB_epNumToHandle] ; |3393| 
    7234 002134 EB04          MOV XAR0, dbl(*SP(#2))
         002136 85   
    7235                      .dwpsn  file "../c5535_bsl_revc/ezdsp5535_v1/c55xx_csl/src/csl_usb.c",line 3395,column 6,is_stmt
    7236 002137 EC10          AMAR *SP(#8), XAR1
         002139 9E   
    7237              $C$DW$386       .dwtag  DW_TAG_TI_branch
    7238                      .dwattr $C$DW$386, DW_AT_low_pc(0x00)
    7239                      .dwattr $C$DW$386, DW_AT_name("_USB_getEndptStall")
    7240                      .dwattr $C$DW$386, DW_AT_TI_call
    7241 00213a 08F3          CALL #_USB_getEndptStall ; |3395| 
         00213c 67   
    7242                                                      ; call occurs [#_USB_getEndptStall] ; |3395| 
    7243 00213d C416          MOV T0, *SP(#11) ; |3395| 
    7244                      .dwpsn  file "../c5535_bsl_revc/ezdsp5535_v1/c55xx_csl/src/csl_usb.c",line 3396,column 6,is_stmt
    7245 00213f ED00          MOV dbl(*SP(#0)), XAR3
         002141 BF   
    7246              
    7247 002142 EC16          AMAR *SP(#11), XAR1
         002144 9E   
    7248 002145 3D24  ||      MOV #2, T0
    7249              
    7250 002147 ED6D          MOV dbl(*AR3(#184)), XAR0
         002149 8F00 
         00214b B8   
    7251              $C$DW$387       .dwtag  DW_TAG_TI_branch
    7252                      .dwattr $C$DW$387, DW_AT_low_pc(0x00)
    7253                      .dwattr $C$DW$387, DW_AT_name("_USB_postTransaction")
    7254                      .dwattr $C$DW$387, DW_AT_TI_call
    7255              
    7256 00214c 08ED          CALL #_USB_postTransaction ; |3396| 
         00214e 2F   
    7257 00214f 3D05  ||      MOV #0, T1
    7258              
    7259                                                      ; call occurs [#_USB_postTransaction] ; |3396| 
    7260                      .dwpsn  file "../c5535_bsl_revc/ezdsp5535_v1/c55xx_csl/src/csl_usb.c",line 3397,column 11,is_stmt
    7261 002151 0600          B $C$L240 ; |3397| 
TMS320C55x Assembler PC v4.4.1 Tue Oct 02 02:33:44 2018

Tools Copyright (c) 1996-2012 Texas Instruments Incorporated
csl_usb.asm                                                          PAGE  175

         002153 56   
    7262                                                      ; branch occurs ; |3397| 
    7263 002154       $C$L238:    
    7264                      .dwpsn  file "../c5535_bsl_revc/ezdsp5535_v1/c55xx_csl/src/csl_usb.c",line 3402,column 6,is_stmt
    7265 002154 DF6D          MOV uns(low_byte(*AR3(#107))), AR1 ; |3402| 
         002156 9300 
         002158 6B   
    7266 002159 C90E          MOV AR1, *SP(#7) ; |3402| 
    7267                      .dwpsn  file "../c5535_bsl_revc/ezdsp5535_v1/c55xx_csl/src/csl_usb.c",line 3404,column 6,is_stmt
    7268 00215b 3C04          MOV #0, T0
    7269              $C$DW$388       .dwtag  DW_TAG_TI_branch
    7270                      .dwattr $C$DW$388, DW_AT_low_pc(0x00)
    7271                      .dwattr $C$DW$388, DW_AT_name("_USB_epNumToHandle")
    7272                      .dwattr $C$DW$388, DW_AT_TI_call
    7273              
    7274 00215d 08F3          CALL #_USB_epNumToHandle ; |3404| 
         00215f C2   
    7275 002160 2395  ||      MOV AR1, T1
    7276              
    7277                                                      ; call occurs [#_USB_epNumToHandle] ; |3404| 
    7278 002162 EB04          MOV XAR0, dbl(*SP(#2))
         002164 85   
    7279                      .dwpsn  file "../c5535_bsl_revc/ezdsp5535_v1/c55xx_csl/src/csl_usb.c",line 3406,column 6,is_stmt
    7280 002165 ED00          MOV dbl(*SP(#0)), XAR0
         002167 8F   
    7281 002168 B40F          AMAR *+AR0(#160) ; |3406| 
         00216a 00A0 
    7282              $C$DW$389       .dwtag  DW_TAG_TI_branch
    7283                      .dwattr $C$DW$389, DW_AT_low_pc(0x00)
    7284                      .dwattr $C$DW$389, DW_AT_name("_USB_stallEndpt")
    7285                      .dwattr $C$DW$389, DW_AT_TI_call
    7286 00216c 08EF          CALL #_USB_stallEndpt ; |3406| 
         00216e E1   
    7287                                                      ; call occurs [#_USB_stallEndpt] ; |3406| 
    7288 00216f C410          MOV T0, *SP(#8) ; |3406| 
    7289                      .dwpsn  file "../c5535_bsl_revc/ezdsp5535_v1/c55xx_csl/src/csl_usb.c",line 3407,column 6,is_stmt
    7290 002171 ED00          MOV dbl(*SP(#0)), XAR0
         002173 8F   
    7291 002174 B40F          AMAR *+AR0(#138) ; |3407| 
         002176 008A 
    7292              $C$DW$390       .dwtag  DW_TAG_TI_branch
    7293                      .dwattr $C$DW$390, DW_AT_low_pc(0x00)
    7294                      .dwattr $C$DW$390, DW_AT_name("_USB_stallEndpt")
    7295                      .dwattr $C$DW$390, DW_AT_TI_call
    7296 002178 08EF          CALL #_USB_stallEndpt ; |3407| 
         00217a D5   
    7297                                                      ; call occurs [#_USB_stallEndpt] ; |3407| 
    7298 00217b C410          MOV T0, *SP(#8) ; |3407| 
    7299                      .dwpsn  file "../c5535_bsl_revc/ezdsp5535_v1/c55xx_csl/src/csl_usb.c",line 3408,column 11,is_stmt
    7300 00217d 4A2B          B $C$L240 ; |3408| 
    7301                                                      ; branch occurs ; |3408| 
    7302 00217f       $C$L239:    
    7303                      .dwpsn  file "../c5535_bsl_revc/ezdsp5535_v1/c55xx_csl/src/csl_usb.c",line 3369,column 4,is_stmt
    7304 00217f ED00          MOV dbl(*SP(#0)), XAR3
         002181 BF   
TMS320C55x Assembler PC v4.4.1 Tue Oct 02 02:33:44 2018

Tools Copyright (c) 1996-2012 Texas Instruments Incorporated
csl_usb.asm                                                          PAGE  176

    7305 002182 7600          MOV #128, AR2 ; |3369| 
         002184 80A8 
    7306 002186 A96D          MOV *AR3(#104), AR1 ; |3369| 
         002188 0068 
    7307 00218a 1290          CMPU AR1 == AR2, TC1 ; |3369| 
         00218c A4   
    7308 00218d 6D64          BCC $C$L235,TC1 ; |3369| 
         00218f FF4E 
    7309                                                      ; branchcc occurs ; |3369| 
    7310 002191 7600          MOV #129, AR2 ; |3369| 
         002193 81A8 
    7311 002195 1290          CMPU AR1 == AR2, TC1 ; |3369| 
         002197 A4   
    7312 002198 6D64          BCC $C$L236,TC1 ; |3369| 
         00219a FF72 
    7313                                                      ; branchcc occurs ; |3369| 
    7314 00219c 7600          MOV #130, AR2 ; |3369| 
         00219e 82A8 
    7315 0021a0 1290          CMPU AR1 == AR2, TC1 ; |3369| 
         0021a2 A4   
    7316 0021a3 6D64          BCC $C$L237,TC1 ; |3369| 
         0021a5 FF7F 
    7317                                                      ; branchcc occurs ; |3369| 
    7318 0021a7 06FF          B $C$L238 ; |3369| 
         0021a9 AA   
    7319                                                      ; branch occurs ; |3369| 
    7320 0021aa       $C$L240:    
    7321                      .dwpsn  file "../c5535_bsl_revc/ezdsp5535_v1/c55xx_csl/src/csl_usb.c",line 3412,column 4,is_stmt
    7322              $C$DW$391       .dwtag  DW_TAG_TI_branch
    7323                      .dwattr $C$DW$391, DW_AT_low_pc(0x00)
    7324                      .dwattr $C$DW$391, DW_AT_name("_USB_sendEpZLP")
    7325                      .dwattr $C$DW$391, DW_AT_TI_call
    7326              
    7327 0021aa 08E0          CALL #_USB_sendEpZLP ; |3412| 
         0021ac 31   
    7328 0021ad 3D00  ||      MOV #0, AC0 ; |3412| 
    7329              
    7330                                                      ; call occurs [#_USB_sendEpZLP] ; |3412| 
    7331                      .dwpsn  file "../c5535_bsl_revc/ezdsp5535_v1/c55xx_csl/src/csl_usb.c",line 3414,column 9,is_stmt
    7332 0021af 4A3C          B $C$L243 ; |3414| 
    7333                                                      ; branch occurs ; |3414| 
    7334 0021b1       $C$L241:    
    7335                      .dwpsn  file "../c5535_bsl_revc/ezdsp5535_v1/c55xx_csl/src/csl_usb.c",line 3149,column 3,is_stmt
    7336 0021b1 ED00          MOV dbl(*SP(#0)), XAR3
         0021b3 BF   
    7337 0021b4 A06D          MOV *AR3(#105), AC0 ; |3149| 
         0021b6 0069 
    7338              
    7339 0021b8 2209          MOV AC0, AR1 ; |3149| 
    7340 0021ba 3DBA  ||      MOV #11, AR2
    7341              
    7342 0021bc 12A8          CMPU AR1 <= AR2, TC1 ; |3149| 
         0021be 94   
    7343 0021bf 0474          BCC $C$L243,!TC1 ; |3149| 
         0021c1 2B   
TMS320C55x Assembler PC v4.4.1 Tue Oct 02 02:33:44 2018

Tools Copyright (c) 1996-2012 Texas Instruments Incorporated
csl_usb.asm                                                          PAGE  177

    7344                                                      ; branchcc occurs ; |3149| 
    7345 0021c2 5000          SFTL AC0, #1, AC0 ; |3149| 
    7346 0021c4 7DFF          AND #0xffff, AC0, AC1 ; |3149| 
         0021c6 FF10 
    7347 0021c8 7A00          MOV #($C$SW1 >> 16) << #16, AC0 ; |3149| 
         0021ca 000A%
    7348 0021cc 7E00          OR #($C$SW1 & 0xffff), AC0, AC0 ; |3149| 
         0021ce 0000%
    7349 0021d0 2410          ADD AC1, AC0 ; |3149| 
    7350 0021d2 900B          MOV AC0, XAR3
    7351 0021d4 ED61          MOV dbl(*AR3), AC0 ; |3149| 
         0021d6 08   
    7352 0021d7 9100          B AC0     ; |3149| 
    7353                                                      ; branch occurs ; |3149| 
    7354 000000               .sect   ".switch:_USB_coreEventProcessEp0"
    7355                      .clink
    7356 000000 0000' $C$SW1: .long   $C$L239 ; 0
         000001 217F 
    7357 000002 0000'         .long   $C$L209 ; 1
         000003 1E13 
    7358 000004 0000'         .long   $C$L243 ; 0
         000005 21ED 
    7359 000006 0000'         .long   $C$L205 ; 3
         000007 1DC6 
    7360 000008 0000'         .long   $C$L243 ; 0
         000009 21ED 
    7361 00000a 0000'         .long   $C$L232 ; 5
         00000b 207A 
    7362 00000c 0000'         .long   $C$L229 ; 6
         00000d 2036 
    7363 00000e 0000'         .long   $C$L243 ; 0
         00000f 21ED 
    7364 000010 0000'         .long   $C$L233 ; 8
         000011 20A2 
    7365 000012 0000'         .long   $C$L211 ; 9
         000013 1E2D 
    7366 000014 0000'         .long   $C$L234 ; 10
         000015 20BE 
    7367 000016 0000'         .long   $C$L212 ; 11
         000017 1E4A 
    7368 0021d9               .sect   ".text"
    7369 0021d9       $C$L242:    
    7370                      .dwpsn  file "../c5535_bsl_revc/ezdsp5535_v1/c55xx_csl/src/csl_usb.c",line 3423,column 3,is_stmt
    7371 0021d9 ED00          MOV dbl(*SP(#0)), XAR3
         0021db BF   
    7372 0021dc F06D          CMP *AR3(#105) == #5, TC1 ; |3423| 
         0021de 0005 
         0021e0 0069 
    7373 0021e2 64F4          BCC $C$L243,!TC1 ; |3423| 
    7374                                                      ; branchcc occurs ; |3423| 
    7375                      .dwpsn  file "../c5535_bsl_revc/ezdsp5535_v1/c55xx_csl/src/csl_usb.c",line 3425,column 4,is_stmt
    7376 0021e4 A56D          MOV *AR3(#136), T1 ; |3425| 
         0021e6 0088 
    7377              $C$DW$392       .dwtag  DW_TAG_TI_branch
    7378                      .dwattr $C$DW$392, DW_AT_low_pc(0x00)
TMS320C55x Assembler PC v4.4.1 Tue Oct 02 02:33:44 2018

Tools Copyright (c) 1996-2012 Texas Instruments Incorporated
csl_usb.asm                                                          PAGE  178

    7379                      .dwattr $C$DW$392, DW_AT_name("_USB_setDevAddr")
    7380                      .dwattr $C$DW$392, DW_AT_TI_call
    7381              
    7382 0021e8 08F7          CALL #_USB_setDevAddr ; |3425| 
         0021ea 23   
    7383 0021eb 3D04  ||      MOV #0, T0
    7384              
    7385                                                      ; call occurs [#_USB_setDevAddr] ; |3425| 
    7386 0021ed       $C$L243:    
    7387                      .dwpsn  file "../c5535_bsl_revc/ezdsp5535_v1/c55xx_csl/src/csl_usb.c",line 3429,column 2,is_stmt
    7388 0021ed AB31          MOV *(#_usbRegisters), AR3 ; |3429| 
         0021ef 0000 
         0021f1 00-  
    7389 0021f2 7604          MOV #1038, T0 ; |3429| 
         0021f4 0E48 
    7390 0021f6 A90C          MOV *SP(#6), AR1 ; |3429| 
    7391 0021f8 C96B          MOV AR1, port(*AR3(T0)) ; |3429| 
         0021fa 9A   
    7392                      .dwpsn  file "../c5535_bsl_revc/ezdsp5535_v1/c55xx_csl/src/csl_usb.c",line 3431,column 2,is_stmt
    7393 0021fb A410          MOV *SP(#8), T0 ; |3431| 
    7394                      .dwpsn  file "../c5535_bsl_revc/ezdsp5535_v1/c55xx_csl/src/csl_usb.c",line 3432,column 1,is_stmt
    7395 0021fd 4E13          AADD #19, SP
    7396                      .dwcfi  cfa_offset, 1
    7397              $C$DW$393       .dwtag  DW_TAG_TI_branch
    7398                      .dwattr $C$DW$393, DW_AT_low_pc(0x00)
    7399                      .dwattr $C$DW$393, DW_AT_TI_return
    7400 0021ff 4804          RET
    7401                                                      ; return occurs
    7402                      .dwattr $C$DW$335, DW_AT_TI_end_file("../c5535_bsl_revc/ezdsp5535_v1/c55xx_csl/src/csl_usb.c")
    7403                      .dwattr $C$DW$335, DW_AT_TI_end_line(0xd68)
    7404                      .dwattr $C$DW$335, DW_AT_TI_end_column(0x01)
    7405                      .dwendentry
    7406                      .dwendtag $C$DW$335
    7407              
    7408              
    7409              ;*******************************************************************************
    7410              ;* TYPE INFORMATION                                                            *
    7411              ;*******************************************************************************
    7412              
    7413              $C$DW$T$67      .dwtag  DW_TAG_enumeration_type
    7414                      .dwattr $C$DW$T$67, DW_AT_byte_size(0x01)
    7415              $C$DW$394       .dwtag  DW_TAG_enumerator, DW_AT_name("CSL_USB0"), DW_AT_const_value(0x00)
    7416              $C$DW$395       .dwtag  DW_TAG_enumerator, DW_AT_name("CSL_USB1"), DW_AT_const_value(0x01)
    7417              $C$DW$396       .dwtag  DW_TAG_enumerator, DW_AT_name("CSL_USB2"), DW_AT_const_value(0x02)
    7418                      .dwendtag $C$DW$T$67
    7419              
    7420              $C$DW$T$68      .dwtag  DW_TAG_typedef, DW_AT_name("CSL_UsbDevNum")
    7421                      .dwattr $C$DW$T$68, DW_AT_type(*$C$DW$T$67)
    7422                      .dwattr $C$DW$T$68, DW_AT_language(DW_LANG_C)
    7423              
    7424              $C$DW$T$69      .dwtag  DW_TAG_enumeration_type
    7425                      .dwattr $C$DW$T$69, DW_AT_byte_size(0x01)
    7426              $C$DW$397       .dwtag  DW_TAG_enumerator, DW_AT_name("CSL_USB_OPMODE_POLLED"), DW_AT_const_value(0x00)
    7427              $C$DW$398       .dwtag  DW_TAG_enumerator, DW_AT_name("CSL_USB_OPMODE_DMA"), DW_AT_const_value(0x01)
    7428              $C$DW$399       .dwtag  DW_TAG_enumerator, DW_AT_name("CSL_USB_OPMODE_DMA_TXONLY"), DW_AT_const_value(0x02)
TMS320C55x Assembler PC v4.4.1 Tue Oct 02 02:33:44 2018

Tools Copyright (c) 1996-2012 Texas Instruments Incorporated
csl_usb.asm                                                          PAGE  179

    7429                      .dwendtag $C$DW$T$69
    7430              
    7431              $C$DW$T$70      .dwtag  DW_TAG_typedef, DW_AT_name("CSL_UsbOpMode")
    7432                      .dwattr $C$DW$T$70, DW_AT_type(*$C$DW$T$69)
    7433                      .dwattr $C$DW$T$70, DW_AT_language(DW_LANG_C)
    7434              
    7435              $C$DW$T$87      .dwtag  DW_TAG_enumeration_type
    7436                      .dwattr $C$DW$T$87, DW_AT_byte_size(0x01)
    7437              $C$DW$400       .dwtag  DW_TAG_enumerator, DW_AT_name("CSL_USB_FALSE"), DW_AT_const_value(0x00)
    7438              $C$DW$401       .dwtag  DW_TAG_enumerator, DW_AT_name("CSL_USB_TRUE"), DW_AT_const_value(0x01)
    7439                      .dwendtag $C$DW$T$87
    7440              
    7441              $C$DW$T$88      .dwtag  DW_TAG_typedef, DW_AT_name("CSL_UsbBoolean")
    7442                      .dwattr $C$DW$T$88, DW_AT_type(*$C$DW$T$87)
    7443                      .dwattr $C$DW$T$88, DW_AT_language(DW_LANG_C)
    7444              
    7445              $C$DW$T$91      .dwtag  DW_TAG_enumeration_type
    7446                      .dwattr $C$DW$T$91, DW_AT_byte_size(0x01)
    7447              $C$DW$402       .dwtag  DW_TAG_enumerator, DW_AT_name("CSL_USB_BS_UNKNOWN_SPEED"), DW_AT_const_value(0x00)
    7448              $C$DW$403       .dwtag  DW_TAG_enumerator, DW_AT_name("CSL_USB_BS_FULL_SPEED"), DW_AT_const_value(0x02)
    7449              $C$DW$404       .dwtag  DW_TAG_enumerator, DW_AT_name("CSL_USB_BS_HIGH_SPEED"), DW_AT_const_value(0x04)
    7450                      .dwendtag $C$DW$T$91
    7451              
    7452              $C$DW$T$92      .dwtag  DW_TAG_typedef, DW_AT_name("CSL_UsbBusSpeed")
    7453                      .dwattr $C$DW$T$92, DW_AT_type(*$C$DW$T$91)
    7454                      .dwattr $C$DW$T$92, DW_AT_language(DW_LANG_C)
    7455              $C$DW$T$129     .dwtag  DW_TAG_pointer_type
    7456                      .dwattr $C$DW$T$129, DW_AT_type(*$C$DW$T$92)
    7457                      .dwattr $C$DW$T$129, DW_AT_address_class(0x17)
    7458              
    7459              $C$DW$T$93      .dwtag  DW_TAG_enumeration_type
    7460                      .dwattr $C$DW$T$93, DW_AT_byte_size(0x01)
    7461              $C$DW$405       .dwtag  DW_TAG_enumerator, DW_AT_name("CSL_USB_EP0_IDLE"), DW_AT_const_value(0x00)
    7462              $C$DW$406       .dwtag  DW_TAG_enumerator, DW_AT_name("CSL_USB_EP0_STATUS_IN"), DW_AT_const_value(0x01)
    7463              $C$DW$407       .dwtag  DW_TAG_enumerator, DW_AT_name("CSL_USB_EP0_TX"), DW_AT_const_value(0x02)
    7464              $C$DW$408       .dwtag  DW_TAG_enumerator, DW_AT_name("CSL_USB_EP0_RX"), DW_AT_const_value(0x03)
    7465                      .dwendtag $C$DW$T$93
    7466              
    7467              $C$DW$T$94      .dwtag  DW_TAG_typedef, DW_AT_name("CSL_UsbEp0State")
    7468                      .dwattr $C$DW$T$94, DW_AT_type(*$C$DW$T$93)
    7469                      .dwattr $C$DW$T$94, DW_AT_language(DW_LANG_C)
    7470              
    7471              $C$DW$T$95      .dwtag  DW_TAG_enumeration_type
    7472                      .dwattr $C$DW$T$95, DW_AT_byte_size(0x01)
    7473              $C$DW$409       .dwtag  DW_TAG_enumerator, DW_AT_name("CSL_USB_DEVICE_DETACH"), DW_AT_const_value(0x00)
    7474              $C$DW$410       .dwtag  DW_TAG_enumerator, DW_AT_name("CSL_USB_DEVICE_ATTACH"), DW_AT_const_value(0x01)
    7475                      .dwendtag $C$DW$T$95
    7476              
    7477              $C$DW$T$96      .dwtag  DW_TAG_typedef, DW_AT_name("CSL_UsbDeviceEvent")
    7478                      .dwattr $C$DW$T$96, DW_AT_type(*$C$DW$T$95)
    7479                      .dwattr $C$DW$T$96, DW_AT_language(DW_LANG_C)
    7480              
    7481              $C$DW$T$107     .dwtag  DW_TAG_enumeration_type
    7482                      .dwattr $C$DW$T$107, DW_AT_byte_size(0x01)
    7483              $C$DW$411       .dwtag  DW_TAG_enumerator, DW_AT_name("CSL_USB_OUT_EP0"), DW_AT_const_value(0x00)
TMS320C55x Assembler PC v4.4.1 Tue Oct 02 02:33:44 2018

Tools Copyright (c) 1996-2012 Texas Instruments Incorporated
csl_usb.asm                                                          PAGE  180

    7484              $C$DW$412       .dwtag  DW_TAG_enumerator, DW_AT_name("CSL_USB_OUT_EP1"), DW_AT_const_value(0x01)
    7485              $C$DW$413       .dwtag  DW_TAG_enumerator, DW_AT_name("CSL_USB_OUT_EP2"), DW_AT_const_value(0x02)
    7486              $C$DW$414       .dwtag  DW_TAG_enumerator, DW_AT_name("CSL_USB_OUT_EP3"), DW_AT_const_value(0x03)
    7487              $C$DW$415       .dwtag  DW_TAG_enumerator, DW_AT_name("CSL_USB_OUT_EP4"), DW_AT_const_value(0x04)
    7488              $C$DW$416       .dwtag  DW_TAG_enumerator, DW_AT_name("CSL_USB_OUT_EP5"), DW_AT_const_value(0x05)
    7489              $C$DW$417       .dwtag  DW_TAG_enumerator, DW_AT_name("CSL_USB_OUT_EP6"), DW_AT_const_value(0x06)
    7490              $C$DW$418       .dwtag  DW_TAG_enumerator, DW_AT_name("CSL_USB_OUT_EP7"), DW_AT_const_value(0x07)
    7491              $C$DW$419       .dwtag  DW_TAG_enumerator, DW_AT_name("CSL_USB_IN_EP0"), DW_AT_const_value(0x08)
    7492              $C$DW$420       .dwtag  DW_TAG_enumerator, DW_AT_name("CSL_USB_IN_EP1"), DW_AT_const_value(0x09)
    7493              $C$DW$421       .dwtag  DW_TAG_enumerator, DW_AT_name("CSL_USB_IN_EP2"), DW_AT_const_value(0x0a)
    7494              $C$DW$422       .dwtag  DW_TAG_enumerator, DW_AT_name("CSL_USB_IN_EP3"), DW_AT_const_value(0x0b)
    7495              $C$DW$423       .dwtag  DW_TAG_enumerator, DW_AT_name("CSL_USB_IN_EP4"), DW_AT_const_value(0x0c)
    7496              $C$DW$424       .dwtag  DW_TAG_enumerator, DW_AT_name("CSL_USB_IN_EP5"), DW_AT_const_value(0x0d)
    7497              $C$DW$425       .dwtag  DW_TAG_enumerator, DW_AT_name("CSL_USB_IN_EP6"), DW_AT_const_value(0x0e)
    7498              $C$DW$426       .dwtag  DW_TAG_enumerator, DW_AT_name("CSL_USB_IN_EP7"), DW_AT_const_value(0x0f)
    7499                      .dwendtag $C$DW$T$107
    7500              
    7501              $C$DW$T$108     .dwtag  DW_TAG_typedef, DW_AT_name("CSL_UsbEpNum")
    7502                      .dwattr $C$DW$T$108, DW_AT_type(*$C$DW$T$107)
    7503                      .dwattr $C$DW$T$108, DW_AT_language(DW_LANG_C)
    7504              
    7505              $C$DW$T$109     .dwtag  DW_TAG_enumeration_type
    7506                      .dwattr $C$DW$T$109, DW_AT_byte_size(0x01)
    7507              $C$DW$427       .dwtag  DW_TAG_enumerator, DW_AT_name("CSL_USB_CTRL"), DW_AT_const_value(0x00)
    7508              $C$DW$428       .dwtag  DW_TAG_enumerator, DW_AT_name("CSL_USB_BULK"), DW_AT_const_value(0x01)
    7509              $C$DW$429       .dwtag  DW_TAG_enumerator, DW_AT_name("CSL_USB_INTR"), DW_AT_const_value(0x02)
    7510              $C$DW$430       .dwtag  DW_TAG_enumerator, DW_AT_name("CSL_USB_ISO"), DW_AT_const_value(0x03)
    7511              $C$DW$431       .dwtag  DW_TAG_enumerator, DW_AT_name("CSL_USB_HPORT"), DW_AT_const_value(0x04)
    7512                      .dwendtag $C$DW$T$109
    7513              
    7514              $C$DW$T$110     .dwtag  DW_TAG_typedef, DW_AT_name("CSL_UsbXferType")
    7515                      .dwattr $C$DW$T$110, DW_AT_type(*$C$DW$T$109)
    7516                      .dwattr $C$DW$T$110, DW_AT_language(DW_LANG_C)
    7517              
    7518              $C$DW$T$22      .dwtag  DW_TAG_structure_type
    7519                      .dwattr $C$DW$T$22, DW_AT_byte_size(0x08)
    7520              $C$DW$432       .dwtag  DW_TAG_member
    7521                      .dwattr $C$DW$432, DW_AT_type(*$C$DW$T$20)
    7522                      .dwattr $C$DW$432, DW_AT_name("TXFUNCADDR")
    7523                      .dwattr $C$DW$432, DW_AT_TI_symbol_name("_TXFUNCADDR")
    7524                      .dwattr $C$DW$432, DW_AT_data_member_location[DW_OP_plus_uconst 0x0]
    7525                      .dwattr $C$DW$432, DW_AT_accessibility(DW_ACCESS_public)
    7526              $C$DW$433       .dwtag  DW_TAG_member
    7527                      .dwattr $C$DW$433, DW_AT_type(*$C$DW$T$20)
    7528                      .dwattr $C$DW$433, DW_AT_name("TXHUBADDR_TXHUBPORT")
    7529                      .dwattr $C$DW$433, DW_AT_TI_symbol_name("_TXHUBADDR_TXHUBPORT")
    7530                      .dwattr $C$DW$433, DW_AT_data_member_location[DW_OP_plus_uconst 0x1]
    7531                      .dwattr $C$DW$433, DW_AT_accessibility(DW_ACCESS_public)
    7532              $C$DW$434       .dwtag  DW_TAG_member
    7533                      .dwattr $C$DW$434, DW_AT_type(*$C$DW$T$21)
    7534                      .dwattr $C$DW$434, DW_AT_name("RSVD0")
    7535                      .dwattr $C$DW$434, DW_AT_TI_symbol_name("_RSVD0")
    7536                      .dwattr $C$DW$434, DW_AT_data_member_location[DW_OP_plus_uconst 0x2]
    7537                      .dwattr $C$DW$434, DW_AT_accessibility(DW_ACCESS_public)
    7538              $C$DW$435       .dwtag  DW_TAG_member
TMS320C55x Assembler PC v4.4.1 Tue Oct 02 02:33:44 2018

Tools Copyright (c) 1996-2012 Texas Instruments Incorporated
csl_usb.asm                                                          PAGE  181

    7539                      .dwattr $C$DW$435, DW_AT_type(*$C$DW$T$20)
    7540                      .dwattr $C$DW$435, DW_AT_name("RXFUNCADDR")
    7541                      .dwattr $C$DW$435, DW_AT_TI_symbol_name("_RXFUNCADDR")
    7542                      .dwattr $C$DW$435, DW_AT_data_member_location[DW_OP_plus_uconst 0x4]
    7543                      .dwattr $C$DW$435, DW_AT_accessibility(DW_ACCESS_public)
    7544              $C$DW$436       .dwtag  DW_TAG_member
    7545                      .dwattr $C$DW$436, DW_AT_type(*$C$DW$T$20)
    7546                      .dwattr $C$DW$436, DW_AT_name("RXHUBADDR_RXHUBPORT")
    7547                      .dwattr $C$DW$436, DW_AT_TI_symbol_name("_RXHUBADDR_RXHUBPORT")
    7548                      .dwattr $C$DW$436, DW_AT_data_member_location[DW_OP_plus_uconst 0x5]
    7549                      .dwattr $C$DW$436, DW_AT_accessibility(DW_ACCESS_public)
    7550              $C$DW$437       .dwtag  DW_TAG_member
    7551                      .dwattr $C$DW$437, DW_AT_type(*$C$DW$T$21)
    7552                      .dwattr $C$DW$437, DW_AT_name("RSVD36")
    7553                      .dwattr $C$DW$437, DW_AT_TI_symbol_name("_RSVD36")
    7554                      .dwattr $C$DW$437, DW_AT_data_member_location[DW_OP_plus_uconst 0x6]
    7555                      .dwattr $C$DW$437, DW_AT_accessibility(DW_ACCESS_public)
    7556                      .dwendtag $C$DW$T$22
    7557              
    7558              $C$DW$T$39      .dwtag  DW_TAG_typedef, DW_AT_name("CSL_UsbEptrgRegs")
    7559                      .dwattr $C$DW$T$39, DW_AT_type(*$C$DW$T$22)
    7560                      .dwattr $C$DW$T$39, DW_AT_language(DW_LANG_C)
    7561              
    7562              $C$DW$T$40      .dwtag  DW_TAG_array_type
    7563                      .dwattr $C$DW$T$40, DW_AT_type(*$C$DW$T$39)
    7564                      .dwattr $C$DW$T$40, DW_AT_language(DW_LANG_C)
    7565                      .dwattr $C$DW$T$40, DW_AT_byte_size(0x28)
    7566              $C$DW$438       .dwtag  DW_TAG_subrange_type
    7567                      .dwattr $C$DW$438, DW_AT_upper_bound(0x04)
    7568                      .dwendtag $C$DW$T$40
    7569              
    7570              
    7571              $C$DW$T$24      .dwtag  DW_TAG_structure_type
    7572                      .dwattr $C$DW$T$24, DW_AT_byte_size(0x10)
    7573              $C$DW$439       .dwtag  DW_TAG_member
    7574                      .dwattr $C$DW$439, DW_AT_type(*$C$DW$T$20)
    7575                      .dwattr $C$DW$439, DW_AT_name("TXMAXP")
    7576                      .dwattr $C$DW$439, DW_AT_TI_symbol_name("_TXMAXP")
    7577                      .dwattr $C$DW$439, DW_AT_data_member_location[DW_OP_plus_uconst 0x0]
    7578                      .dwattr $C$DW$439, DW_AT_accessibility(DW_ACCESS_public)
    7579              $C$DW$440       .dwtag  DW_TAG_member
    7580                      .dwattr $C$DW$440, DW_AT_type(*$C$DW$T$20)
    7581                      .dwattr $C$DW$440, DW_AT_name("PERI_TXCSR")
    7582                      .dwattr $C$DW$440, DW_AT_TI_symbol_name("_PERI_TXCSR")
    7583                      .dwattr $C$DW$440, DW_AT_data_member_location[DW_OP_plus_uconst 0x1]
    7584                      .dwattr $C$DW$440, DW_AT_accessibility(DW_ACCESS_public)
    7585              $C$DW$441       .dwtag  DW_TAG_member
    7586                      .dwattr $C$DW$441, DW_AT_type(*$C$DW$T$21)
    7587                      .dwattr $C$DW$441, DW_AT_name("RSVD0")
    7588                      .dwattr $C$DW$441, DW_AT_TI_symbol_name("_RSVD0")
    7589                      .dwattr $C$DW$441, DW_AT_data_member_location[DW_OP_plus_uconst 0x2]
    7590                      .dwattr $C$DW$441, DW_AT_accessibility(DW_ACCESS_public)
    7591              $C$DW$442       .dwtag  DW_TAG_member
    7592                      .dwattr $C$DW$442, DW_AT_type(*$C$DW$T$20)
    7593                      .dwattr $C$DW$442, DW_AT_name("RXMAXP")
TMS320C55x Assembler PC v4.4.1 Tue Oct 02 02:33:44 2018

Tools Copyright (c) 1996-2012 Texas Instruments Incorporated
csl_usb.asm                                                          PAGE  182

    7594                      .dwattr $C$DW$442, DW_AT_TI_symbol_name("_RXMAXP")
    7595                      .dwattr $C$DW$442, DW_AT_data_member_location[DW_OP_plus_uconst 0x4]
    7596                      .dwattr $C$DW$442, DW_AT_accessibility(DW_ACCESS_public)
    7597              $C$DW$443       .dwtag  DW_TAG_member
    7598                      .dwattr $C$DW$443, DW_AT_type(*$C$DW$T$20)
    7599                      .dwattr $C$DW$443, DW_AT_name("PERI_RXCSR")
    7600                      .dwattr $C$DW$443, DW_AT_TI_symbol_name("_PERI_RXCSR")
    7601                      .dwattr $C$DW$443, DW_AT_data_member_location[DW_OP_plus_uconst 0x5]
    7602                      .dwattr $C$DW$443, DW_AT_accessibility(DW_ACCESS_public)
    7603              $C$DW$444       .dwtag  DW_TAG_member
    7604                      .dwattr $C$DW$444, DW_AT_type(*$C$DW$T$21)
    7605                      .dwattr $C$DW$444, DW_AT_name("RSVD1")
    7606                      .dwattr $C$DW$444, DW_AT_TI_symbol_name("_RSVD1")
    7607                      .dwattr $C$DW$444, DW_AT_data_member_location[DW_OP_plus_uconst 0x6]
    7608                      .dwattr $C$DW$444, DW_AT_accessibility(DW_ACCESS_public)
    7609              $C$DW$445       .dwtag  DW_TAG_member
    7610                      .dwattr $C$DW$445, DW_AT_type(*$C$DW$T$20)
    7611                      .dwattr $C$DW$445, DW_AT_name("RXCOUNT")
    7612                      .dwattr $C$DW$445, DW_AT_TI_symbol_name("_RXCOUNT")
    7613                      .dwattr $C$DW$445, DW_AT_data_member_location[DW_OP_plus_uconst 0x8]
    7614                      .dwattr $C$DW$445, DW_AT_accessibility(DW_ACCESS_public)
    7615              $C$DW$446       .dwtag  DW_TAG_member
    7616                      .dwattr $C$DW$446, DW_AT_type(*$C$DW$T$23)
    7617                      .dwattr $C$DW$446, DW_AT_name("RSVD41")
    7618                      .dwattr $C$DW$446, DW_AT_TI_symbol_name("_RSVD41")
    7619                      .dwattr $C$DW$446, DW_AT_data_member_location[DW_OP_plus_uconst 0x9]
    7620                      .dwattr $C$DW$446, DW_AT_accessibility(DW_ACCESS_public)
    7621                      .dwendtag $C$DW$T$24
    7622              
    7623              $C$DW$T$42      .dwtag  DW_TAG_typedef, DW_AT_name("CSL_UsbEpcsrRegs")
    7624                      .dwattr $C$DW$T$42, DW_AT_type(*$C$DW$T$24)
    7625                      .dwattr $C$DW$T$42, DW_AT_language(DW_LANG_C)
    7626              
    7627              $C$DW$T$43      .dwtag  DW_TAG_array_type
    7628                      .dwattr $C$DW$T$43, DW_AT_type(*$C$DW$T$42)
    7629                      .dwattr $C$DW$T$43, DW_AT_language(DW_LANG_C)
    7630                      .dwattr $C$DW$T$43, DW_AT_byte_size(0x40)
    7631              $C$DW$447       .dwtag  DW_TAG_subrange_type
    7632                      .dwattr $C$DW$447, DW_AT_upper_bound(0x03)
    7633                      .dwendtag $C$DW$T$43
    7634              
    7635              
    7636              $C$DW$T$27      .dwtag  DW_TAG_structure_type
    7637                      .dwattr $C$DW$T$27, DW_AT_byte_size(0x20)
    7638              $C$DW$448       .dwtag  DW_TAG_member
    7639                      .dwattr $C$DW$448, DW_AT_type(*$C$DW$T$20)
    7640                      .dwattr $C$DW$448, DW_AT_name("TXGCR1")
    7641                      .dwattr $C$DW$448, DW_AT_TI_symbol_name("_TXGCR1")
    7642                      .dwattr $C$DW$448, DW_AT_data_member_location[DW_OP_plus_uconst 0x0]
    7643                      .dwattr $C$DW$448, DW_AT_accessibility(DW_ACCESS_public)
    7644              $C$DW$449       .dwtag  DW_TAG_member
    7645                      .dwattr $C$DW$449, DW_AT_type(*$C$DW$T$20)
    7646                      .dwattr $C$DW$449, DW_AT_name("TXGCR2")
    7647                      .dwattr $C$DW$449, DW_AT_TI_symbol_name("_TXGCR2")
    7648                      .dwattr $C$DW$449, DW_AT_data_member_location[DW_OP_plus_uconst 0x1]
TMS320C55x Assembler PC v4.4.1 Tue Oct 02 02:33:44 2018

Tools Copyright (c) 1996-2012 Texas Instruments Incorporated
csl_usb.asm                                                          PAGE  183

    7649                      .dwattr $C$DW$449, DW_AT_accessibility(DW_ACCESS_public)
    7650              $C$DW$450       .dwtag  DW_TAG_member
    7651                      .dwattr $C$DW$450, DW_AT_type(*$C$DW$T$25)
    7652                      .dwattr $C$DW$450, DW_AT_name("RSVD0")
    7653                      .dwattr $C$DW$450, DW_AT_TI_symbol_name("_RSVD0")
    7654                      .dwattr $C$DW$450, DW_AT_data_member_location[DW_OP_plus_uconst 0x2]
    7655                      .dwattr $C$DW$450, DW_AT_accessibility(DW_ACCESS_public)
    7656              $C$DW$451       .dwtag  DW_TAG_member
    7657                      .dwattr $C$DW$451, DW_AT_type(*$C$DW$T$20)
    7658                      .dwattr $C$DW$451, DW_AT_name("RXGCR1")
    7659                      .dwattr $C$DW$451, DW_AT_TI_symbol_name("_RXGCR1")
    7660                      .dwattr $C$DW$451, DW_AT_data_member_location[DW_OP_plus_uconst 0x8]
    7661                      .dwattr $C$DW$451, DW_AT_accessibility(DW_ACCESS_public)
    7662              $C$DW$452       .dwtag  DW_TAG_member
    7663                      .dwattr $C$DW$452, DW_AT_type(*$C$DW$T$20)
    7664                      .dwattr $C$DW$452, DW_AT_name("RXGCR2")
    7665                      .dwattr $C$DW$452, DW_AT_TI_symbol_name("_RXGCR2")
    7666                      .dwattr $C$DW$452, DW_AT_data_member_location[DW_OP_plus_uconst 0x9]
    7667                      .dwattr $C$DW$452, DW_AT_accessibility(DW_ACCESS_public)
    7668              $C$DW$453       .dwtag  DW_TAG_member
    7669                      .dwattr $C$DW$453, DW_AT_type(*$C$DW$T$21)
    7670                      .dwattr $C$DW$453, DW_AT_name("RSVD1")
    7671                      .dwattr $C$DW$453, DW_AT_TI_symbol_name("_RSVD1")
    7672                      .dwattr $C$DW$453, DW_AT_data_member_location[DW_OP_plus_uconst 0xa]
    7673                      .dwattr $C$DW$453, DW_AT_accessibility(DW_ACCESS_public)
    7674              $C$DW$454       .dwtag  DW_TAG_member
    7675                      .dwattr $C$DW$454, DW_AT_type(*$C$DW$T$20)
    7676                      .dwattr $C$DW$454, DW_AT_name("RXHPCR1A")
    7677                      .dwattr $C$DW$454, DW_AT_TI_symbol_name("_RXHPCR1A")
    7678                      .dwattr $C$DW$454, DW_AT_data_member_location[DW_OP_plus_uconst 0xc]
    7679                      .dwattr $C$DW$454, DW_AT_accessibility(DW_ACCESS_public)
    7680              $C$DW$455       .dwtag  DW_TAG_member
    7681                      .dwattr $C$DW$455, DW_AT_type(*$C$DW$T$20)
    7682                      .dwattr $C$DW$455, DW_AT_name("RXHPCR2A")
    7683                      .dwattr $C$DW$455, DW_AT_TI_symbol_name("_RXHPCR2A")
    7684                      .dwattr $C$DW$455, DW_AT_data_member_location[DW_OP_plus_uconst 0xd]
    7685                      .dwattr $C$DW$455, DW_AT_accessibility(DW_ACCESS_public)
    7686              $C$DW$456       .dwtag  DW_TAG_member
    7687                      .dwattr $C$DW$456, DW_AT_type(*$C$DW$T$21)
    7688                      .dwattr $C$DW$456, DW_AT_name("RSVD2")
    7689                      .dwattr $C$DW$456, DW_AT_TI_symbol_name("_RSVD2")
    7690                      .dwattr $C$DW$456, DW_AT_data_member_location[DW_OP_plus_uconst 0xe]
    7691                      .dwattr $C$DW$456, DW_AT_accessibility(DW_ACCESS_public)
    7692              $C$DW$457       .dwtag  DW_TAG_member
    7693                      .dwattr $C$DW$457, DW_AT_type(*$C$DW$T$20)
    7694                      .dwattr $C$DW$457, DW_AT_name("RXHPCR1B")
    7695                      .dwattr $C$DW$457, DW_AT_TI_symbol_name("_RXHPCR1B")
    7696                      .dwattr $C$DW$457, DW_AT_data_member_location[DW_OP_plus_uconst 0x10]
    7697                      .dwattr $C$DW$457, DW_AT_accessibility(DW_ACCESS_public)
    7698              $C$DW$458       .dwtag  DW_TAG_member
    7699                      .dwattr $C$DW$458, DW_AT_type(*$C$DW$T$20)
    7700                      .dwattr $C$DW$458, DW_AT_name("RXHPCR2B")
    7701                      .dwattr $C$DW$458, DW_AT_TI_symbol_name("_RXHPCR2B")
    7702                      .dwattr $C$DW$458, DW_AT_data_member_location[DW_OP_plus_uconst 0x11]
    7703                      .dwattr $C$DW$458, DW_AT_accessibility(DW_ACCESS_public)
TMS320C55x Assembler PC v4.4.1 Tue Oct 02 02:33:44 2018

Tools Copyright (c) 1996-2012 Texas Instruments Incorporated
csl_usb.asm                                                          PAGE  184

    7704              $C$DW$459       .dwtag  DW_TAG_member
    7705                      .dwattr $C$DW$459, DW_AT_type(*$C$DW$T$26)
    7706                      .dwattr $C$DW$459, DW_AT_name("RSVD46")
    7707                      .dwattr $C$DW$459, DW_AT_TI_symbol_name("_RSVD46")
    7708                      .dwattr $C$DW$459, DW_AT_data_member_location[DW_OP_plus_uconst 0x12]
    7709                      .dwattr $C$DW$459, DW_AT_accessibility(DW_ACCESS_public)
    7710                      .dwendtag $C$DW$T$27
    7711              
    7712              $C$DW$T$46      .dwtag  DW_TAG_typedef, DW_AT_name("CSL_UsbChannelRegs")
    7713                      .dwattr $C$DW$T$46, DW_AT_type(*$C$DW$T$27)
    7714                      .dwattr $C$DW$T$46, DW_AT_language(DW_LANG_C)
    7715              
    7716              $C$DW$T$47      .dwtag  DW_TAG_array_type
    7717                      .dwattr $C$DW$T$47, DW_AT_type(*$C$DW$T$46)
    7718                      .dwattr $C$DW$T$47, DW_AT_language(DW_LANG_C)
    7719                      .dwattr $C$DW$T$47, DW_AT_byte_size(0x80)
    7720              $C$DW$460       .dwtag  DW_TAG_subrange_type
    7721                      .dwattr $C$DW$460, DW_AT_upper_bound(0x03)
    7722                      .dwendtag $C$DW$T$47
    7723              
    7724              
    7725              $C$DW$T$28      .dwtag  DW_TAG_structure_type
    7726                      .dwattr $C$DW$T$28, DW_AT_byte_size(0x04)
    7727              $C$DW$461       .dwtag  DW_TAG_member
    7728                      .dwattr $C$DW$461, DW_AT_type(*$C$DW$T$20)
    7729                      .dwattr $C$DW$461, DW_AT_name("ENTRYLSW")
    7730                      .dwattr $C$DW$461, DW_AT_TI_symbol_name("_ENTRYLSW")
    7731                      .dwattr $C$DW$461, DW_AT_data_member_location[DW_OP_plus_uconst 0x0]
    7732                      .dwattr $C$DW$461, DW_AT_accessibility(DW_ACCESS_public)
    7733              $C$DW$462       .dwtag  DW_TAG_member
    7734                      .dwattr $C$DW$462, DW_AT_type(*$C$DW$T$20)
    7735                      .dwattr $C$DW$462, DW_AT_name("ENTRYMSW")
    7736                      .dwattr $C$DW$462, DW_AT_TI_symbol_name("_ENTRYMSW")
    7737                      .dwattr $C$DW$462, DW_AT_data_member_location[DW_OP_plus_uconst 0x1]
    7738                      .dwattr $C$DW$462, DW_AT_accessibility(DW_ACCESS_public)
    7739              $C$DW$463       .dwtag  DW_TAG_member
    7740                      .dwattr $C$DW$463, DW_AT_type(*$C$DW$T$21)
    7741                      .dwattr $C$DW$463, DW_AT_name("RSVD49")
    7742                      .dwattr $C$DW$463, DW_AT_TI_symbol_name("_RSVD49")
    7743                      .dwattr $C$DW$463, DW_AT_data_member_location[DW_OP_plus_uconst 0x2]
    7744                      .dwattr $C$DW$463, DW_AT_accessibility(DW_ACCESS_public)
    7745                      .dwendtag $C$DW$T$28
    7746              
    7747              $C$DW$T$50      .dwtag  DW_TAG_typedef, DW_AT_name("CSL_UsbCdmaschetblwordRegs")
    7748                      .dwattr $C$DW$T$50, DW_AT_type(*$C$DW$T$28)
    7749                      .dwattr $C$DW$T$50, DW_AT_language(DW_LANG_C)
    7750              
    7751              $C$DW$T$51      .dwtag  DW_TAG_array_type
    7752                      .dwattr $C$DW$T$51, DW_AT_type(*$C$DW$T$50)
    7753                      .dwattr $C$DW$T$51, DW_AT_language(DW_LANG_C)
    7754                      .dwattr $C$DW$T$51, DW_AT_byte_size(0x100)
    7755              $C$DW$464       .dwtag  DW_TAG_subrange_type
    7756                      .dwattr $C$DW$464, DW_AT_upper_bound(0x3f)
    7757                      .dwendtag $C$DW$T$51
    7758              
TMS320C55x Assembler PC v4.4.1 Tue Oct 02 02:33:44 2018

Tools Copyright (c) 1996-2012 Texas Instruments Incorporated
csl_usb.asm                                                          PAGE  185

    7759              
    7760              $C$DW$T$30      .dwtag  DW_TAG_structure_type
    7761                      .dwattr $C$DW$T$30, DW_AT_byte_size(0x10)
    7762              $C$DW$465       .dwtag  DW_TAG_member
    7763                      .dwattr $C$DW$465, DW_AT_type(*$C$DW$T$20)
    7764                      .dwattr $C$DW$465, DW_AT_name("QMEMRBASE1")
    7765                      .dwattr $C$DW$465, DW_AT_TI_symbol_name("_QMEMRBASE1")
    7766                      .dwattr $C$DW$465, DW_AT_data_member_location[DW_OP_plus_uconst 0x0]
    7767                      .dwattr $C$DW$465, DW_AT_accessibility(DW_ACCESS_public)
    7768              $C$DW$466       .dwtag  DW_TAG_member
    7769                      .dwattr $C$DW$466, DW_AT_type(*$C$DW$T$20)
    7770                      .dwattr $C$DW$466, DW_AT_name("QMEMRBASE2")
    7771                      .dwattr $C$DW$466, DW_AT_TI_symbol_name("_QMEMRBASE2")
    7772                      .dwattr $C$DW$466, DW_AT_data_member_location[DW_OP_plus_uconst 0x1]
    7773                      .dwattr $C$DW$466, DW_AT_accessibility(DW_ACCESS_public)
    7774              $C$DW$467       .dwtag  DW_TAG_member
    7775                      .dwattr $C$DW$467, DW_AT_type(*$C$DW$T$21)
    7776                      .dwattr $C$DW$467, DW_AT_name("RSVD0")
    7777                      .dwattr $C$DW$467, DW_AT_TI_symbol_name("_RSVD0")
    7778                      .dwattr $C$DW$467, DW_AT_data_member_location[DW_OP_plus_uconst 0x2]
    7779                      .dwattr $C$DW$467, DW_AT_accessibility(DW_ACCESS_public)
    7780              $C$DW$468       .dwtag  DW_TAG_member
    7781                      .dwattr $C$DW$468, DW_AT_type(*$C$DW$T$20)
    7782                      .dwattr $C$DW$468, DW_AT_name("QMEMRCTRL1")
    7783                      .dwattr $C$DW$468, DW_AT_TI_symbol_name("_QMEMRCTRL1")
    7784                      .dwattr $C$DW$468, DW_AT_data_member_location[DW_OP_plus_uconst 0x4]
    7785                      .dwattr $C$DW$468, DW_AT_accessibility(DW_ACCESS_public)
    7786              $C$DW$469       .dwtag  DW_TAG_member
    7787                      .dwattr $C$DW$469, DW_AT_type(*$C$DW$T$20)
    7788                      .dwattr $C$DW$469, DW_AT_name("QMEMRCTRL2")
    7789                      .dwattr $C$DW$469, DW_AT_TI_symbol_name("_QMEMRCTRL2")
    7790                      .dwattr $C$DW$469, DW_AT_data_member_location[DW_OP_plus_uconst 0x5]
    7791                      .dwattr $C$DW$469, DW_AT_accessibility(DW_ACCESS_public)
    7792              $C$DW$470       .dwtag  DW_TAG_member
    7793                      .dwattr $C$DW$470, DW_AT_type(*$C$DW$T$29)
    7794                      .dwattr $C$DW$470, DW_AT_name("RSVD63")
    7795                      .dwattr $C$DW$470, DW_AT_TI_symbol_name("_RSVD63")
    7796                      .dwattr $C$DW$470, DW_AT_data_member_location[DW_OP_plus_uconst 0x6]
    7797                      .dwattr $C$DW$470, DW_AT_accessibility(DW_ACCESS_public)
    7798                      .dwendtag $C$DW$T$30
    7799              
    7800              $C$DW$T$56      .dwtag  DW_TAG_typedef, DW_AT_name("CSL_UsbQmmemregrRegs")
    7801                      .dwattr $C$DW$T$56, DW_AT_type(*$C$DW$T$30)
    7802                      .dwattr $C$DW$T$56, DW_AT_language(DW_LANG_C)
    7803              
    7804              $C$DW$T$57      .dwtag  DW_TAG_array_type
    7805                      .dwattr $C$DW$T$57, DW_AT_type(*$C$DW$T$56)
    7806                      .dwattr $C$DW$T$57, DW_AT_language(DW_LANG_C)
    7807                      .dwattr $C$DW$T$57, DW_AT_byte_size(0x100)
    7808              $C$DW$471       .dwtag  DW_TAG_subrange_type
    7809                      .dwattr $C$DW$471, DW_AT_upper_bound(0x0f)
    7810                      .dwendtag $C$DW$T$57
    7811              
    7812              
    7813              $C$DW$T$32      .dwtag  DW_TAG_structure_type
TMS320C55x Assembler PC v4.4.1 Tue Oct 02 02:33:44 2018

Tools Copyright (c) 1996-2012 Texas Instruments Incorporated
csl_usb.asm                                                          PAGE  186

    7814                      .dwattr $C$DW$T$32, DW_AT_byte_size(0x10)
    7815              $C$DW$472       .dwtag  DW_TAG_member
    7816                      .dwattr $C$DW$472, DW_AT_type(*$C$DW$T$31)
    7817                      .dwattr $C$DW$472, DW_AT_name("RSVD0")
    7818                      .dwattr $C$DW$472, DW_AT_TI_symbol_name("_RSVD0")
    7819                      .dwattr $C$DW$472, DW_AT_data_member_location[DW_OP_plus_uconst 0x0]
    7820                      .dwattr $C$DW$472, DW_AT_accessibility(DW_ACCESS_public)
    7821              $C$DW$473       .dwtag  DW_TAG_member
    7822                      .dwattr $C$DW$473, DW_AT_type(*$C$DW$T$20)
    7823                      .dwattr $C$DW$473, DW_AT_name("CTRL1D")
    7824                      .dwattr $C$DW$473, DW_AT_TI_symbol_name("_CTRL1D")
    7825                      .dwattr $C$DW$473, DW_AT_data_member_location[DW_OP_plus_uconst 0xc]
    7826                      .dwattr $C$DW$473, DW_AT_accessibility(DW_ACCESS_public)
    7827              $C$DW$474       .dwtag  DW_TAG_member
    7828                      .dwattr $C$DW$474, DW_AT_type(*$C$DW$T$20)
    7829                      .dwattr $C$DW$474, DW_AT_name("CTRL2D")
    7830                      .dwattr $C$DW$474, DW_AT_TI_symbol_name("_CTRL2D")
    7831                      .dwattr $C$DW$474, DW_AT_data_member_location[DW_OP_plus_uconst 0xd]
    7832                      .dwattr $C$DW$474, DW_AT_accessibility(DW_ACCESS_public)
    7833              $C$DW$475       .dwtag  DW_TAG_member
    7834                      .dwattr $C$DW$475, DW_AT_type(*$C$DW$T$21)
    7835                      .dwattr $C$DW$475, DW_AT_name("RSVD65")
    7836                      .dwattr $C$DW$475, DW_AT_TI_symbol_name("_RSVD65")
    7837                      .dwattr $C$DW$475, DW_AT_data_member_location[DW_OP_plus_uconst 0xe]
    7838                      .dwattr $C$DW$475, DW_AT_accessibility(DW_ACCESS_public)
    7839                      .dwendtag $C$DW$T$32
    7840              
    7841              $C$DW$T$59      .dwtag  DW_TAG_typedef, DW_AT_name("CSL_UsbQmqnRegs")
    7842                      .dwattr $C$DW$T$59, DW_AT_type(*$C$DW$T$32)
    7843                      .dwattr $C$DW$T$59, DW_AT_language(DW_LANG_C)
    7844              
    7845              $C$DW$T$60      .dwtag  DW_TAG_array_type
    7846                      .dwattr $C$DW$T$60, DW_AT_type(*$C$DW$T$59)
    7847                      .dwattr $C$DW$T$60, DW_AT_language(DW_LANG_C)
    7848                      .dwattr $C$DW$T$60, DW_AT_byte_size(0x400)
    7849              $C$DW$476       .dwtag  DW_TAG_subrange_type
    7850                      .dwattr $C$DW$476, DW_AT_upper_bound(0x3f)
    7851                      .dwendtag $C$DW$T$60
    7852              
    7853              
    7854              $C$DW$T$34      .dwtag  DW_TAG_structure_type
    7855                      .dwattr $C$DW$T$34, DW_AT_byte_size(0x10)
    7856              $C$DW$477       .dwtag  DW_TAG_member
    7857                      .dwattr $C$DW$477, DW_AT_type(*$C$DW$T$20)
    7858                      .dwattr $C$DW$477, DW_AT_name("QSTATA")
    7859                      .dwattr $C$DW$477, DW_AT_TI_symbol_name("_QSTATA")
    7860                      .dwattr $C$DW$477, DW_AT_data_member_location[DW_OP_plus_uconst 0x0]
    7861                      .dwattr $C$DW$477, DW_AT_accessibility(DW_ACCESS_public)
    7862              $C$DW$478       .dwtag  DW_TAG_member
    7863                      .dwattr $C$DW$478, DW_AT_type(*$C$DW$T$33)
    7864                      .dwattr $C$DW$478, DW_AT_name("RSVD0")
    7865                      .dwattr $C$DW$478, DW_AT_TI_symbol_name("_RSVD0")
    7866                      .dwattr $C$DW$478, DW_AT_data_member_location[DW_OP_plus_uconst 0x1]
    7867                      .dwattr $C$DW$478, DW_AT_accessibility(DW_ACCESS_public)
    7868              $C$DW$479       .dwtag  DW_TAG_member
TMS320C55x Assembler PC v4.4.1 Tue Oct 02 02:33:44 2018

Tools Copyright (c) 1996-2012 Texas Instruments Incorporated
csl_usb.asm                                                          PAGE  187

    7869                      .dwattr $C$DW$479, DW_AT_type(*$C$DW$T$20)
    7870                      .dwattr $C$DW$479, DW_AT_name("QSTAT1B")
    7871                      .dwattr $C$DW$479, DW_AT_TI_symbol_name("_QSTAT1B")
    7872                      .dwattr $C$DW$479, DW_AT_data_member_location[DW_OP_plus_uconst 0x4]
    7873                      .dwattr $C$DW$479, DW_AT_accessibility(DW_ACCESS_public)
    7874              $C$DW$480       .dwtag  DW_TAG_member
    7875                      .dwattr $C$DW$480, DW_AT_type(*$C$DW$T$20)
    7876                      .dwattr $C$DW$480, DW_AT_name("QSTAT2B")
    7877                      .dwattr $C$DW$480, DW_AT_TI_symbol_name("_QSTAT2B")
    7878                      .dwattr $C$DW$480, DW_AT_data_member_location[DW_OP_plus_uconst 0x5]
    7879                      .dwattr $C$DW$480, DW_AT_accessibility(DW_ACCESS_public)
    7880              $C$DW$481       .dwtag  DW_TAG_member
    7881                      .dwattr $C$DW$481, DW_AT_type(*$C$DW$T$21)
    7882                      .dwattr $C$DW$481, DW_AT_name("RSVD1")
    7883                      .dwattr $C$DW$481, DW_AT_TI_symbol_name("_RSVD1")
    7884                      .dwattr $C$DW$481, DW_AT_data_member_location[DW_OP_plus_uconst 0x6]
    7885                      .dwattr $C$DW$481, DW_AT_accessibility(DW_ACCESS_public)
    7886              $C$DW$482       .dwtag  DW_TAG_member
    7887                      .dwattr $C$DW$482, DW_AT_type(*$C$DW$T$20)
    7888                      .dwattr $C$DW$482, DW_AT_name("QSTAT1C")
    7889                      .dwattr $C$DW$482, DW_AT_TI_symbol_name("_QSTAT1C")
    7890                      .dwattr $C$DW$482, DW_AT_data_member_location[DW_OP_plus_uconst 0x8]
    7891                      .dwattr $C$DW$482, DW_AT_accessibility(DW_ACCESS_public)
    7892              $C$DW$483       .dwtag  DW_TAG_member
    7893                      .dwattr $C$DW$483, DW_AT_type(*$C$DW$T$23)
    7894                      .dwattr $C$DW$483, DW_AT_name("RSVD67")
    7895                      .dwattr $C$DW$483, DW_AT_TI_symbol_name("_RSVD67")
    7896                      .dwattr $C$DW$483, DW_AT_data_member_location[DW_OP_plus_uconst 0x9]
    7897                      .dwattr $C$DW$483, DW_AT_accessibility(DW_ACCESS_public)
    7898                      .dwendtag $C$DW$T$34
    7899              
    7900              $C$DW$T$62      .dwtag  DW_TAG_typedef, DW_AT_name("CSL_UsbQmqnsRegs")
    7901                      .dwattr $C$DW$T$62, DW_AT_type(*$C$DW$T$34)
    7902                      .dwattr $C$DW$T$62, DW_AT_language(DW_LANG_C)
    7903              
    7904              $C$DW$T$63      .dwtag  DW_TAG_array_type
    7905                      .dwattr $C$DW$T$63, DW_AT_type(*$C$DW$T$62)
    7906                      .dwattr $C$DW$T$63, DW_AT_language(DW_LANG_C)
    7907                      .dwattr $C$DW$T$63, DW_AT_byte_size(0x400)
    7908              $C$DW$484       .dwtag  DW_TAG_subrange_type
    7909                      .dwattr $C$DW$484, DW_AT_upper_bound(0x3f)
    7910                      .dwendtag $C$DW$T$63
    7911              
    7912              
    7913              $C$DW$T$64      .dwtag  DW_TAG_structure_type
    7914                      .dwattr $C$DW$T$64, DW_AT_byte_size(0x6c00)
    7915              $C$DW$485       .dwtag  DW_TAG_member
    7916                      .dwattr $C$DW$485, DW_AT_type(*$C$DW$T$20)
    7917                      .dwattr $C$DW$485, DW_AT_name("REVID1")
    7918                      .dwattr $C$DW$485, DW_AT_TI_symbol_name("_REVID1")
    7919                      .dwattr $C$DW$485, DW_AT_data_member_location[DW_OP_plus_uconst 0x0]
    7920                      .dwattr $C$DW$485, DW_AT_accessibility(DW_ACCESS_public)
    7921              $C$DW$486       .dwtag  DW_TAG_member
    7922                      .dwattr $C$DW$486, DW_AT_type(*$C$DW$T$20)
    7923                      .dwattr $C$DW$486, DW_AT_name("REVID2")
TMS320C55x Assembler PC v4.4.1 Tue Oct 02 02:33:44 2018

Tools Copyright (c) 1996-2012 Texas Instruments Incorporated
csl_usb.asm                                                          PAGE  188

    7924                      .dwattr $C$DW$486, DW_AT_TI_symbol_name("_REVID2")
    7925                      .dwattr $C$DW$486, DW_AT_data_member_location[DW_OP_plus_uconst 0x1]
    7926                      .dwattr $C$DW$486, DW_AT_accessibility(DW_ACCESS_public)
    7927              $C$DW$487       .dwtag  DW_TAG_member
    7928                      .dwattr $C$DW$487, DW_AT_type(*$C$DW$T$21)
    7929                      .dwattr $C$DW$487, DW_AT_name("RSVD0")
    7930                      .dwattr $C$DW$487, DW_AT_TI_symbol_name("_RSVD0")
    7931                      .dwattr $C$DW$487, DW_AT_data_member_location[DW_OP_plus_uconst 0x2]
    7932                      .dwattr $C$DW$487, DW_AT_accessibility(DW_ACCESS_public)
    7933              $C$DW$488       .dwtag  DW_TAG_member
    7934                      .dwattr $C$DW$488, DW_AT_type(*$C$DW$T$20)
    7935                      .dwattr $C$DW$488, DW_AT_name("CTRLR")
    7936                      .dwattr $C$DW$488, DW_AT_TI_symbol_name("_CTRLR")
    7937                      .dwattr $C$DW$488, DW_AT_data_member_location[DW_OP_plus_uconst 0x4]
    7938                      .dwattr $C$DW$488, DW_AT_accessibility(DW_ACCESS_public)
    7939              $C$DW$489       .dwtag  DW_TAG_member
    7940                      .dwattr $C$DW$489, DW_AT_type(*$C$DW$T$33)
    7941                      .dwattr $C$DW$489, DW_AT_name("RSVD1")
    7942                      .dwattr $C$DW$489, DW_AT_TI_symbol_name("_RSVD1")
    7943                      .dwattr $C$DW$489, DW_AT_data_member_location[DW_OP_plus_uconst 0x5]
    7944                      .dwattr $C$DW$489, DW_AT_accessibility(DW_ACCESS_public)
    7945              $C$DW$490       .dwtag  DW_TAG_member
    7946                      .dwattr $C$DW$490, DW_AT_type(*$C$DW$T$20)
    7947                      .dwattr $C$DW$490, DW_AT_name("STATR")
    7948                      .dwattr $C$DW$490, DW_AT_TI_symbol_name("_STATR")
    7949                      .dwattr $C$DW$490, DW_AT_data_member_location[DW_OP_plus_uconst 0x8]
    7950                      .dwattr $C$DW$490, DW_AT_accessibility(DW_ACCESS_public)
    7951              $C$DW$491       .dwtag  DW_TAG_member
    7952                      .dwattr $C$DW$491, DW_AT_type(*$C$DW$T$33)
    7953                      .dwattr $C$DW$491, DW_AT_name("RSVD2")
    7954                      .dwattr $C$DW$491, DW_AT_TI_symbol_name("_RSVD2")
    7955                      .dwattr $C$DW$491, DW_AT_data_member_location[DW_OP_plus_uconst 0x9]
    7956                      .dwattr $C$DW$491, DW_AT_accessibility(DW_ACCESS_public)
    7957              $C$DW$492       .dwtag  DW_TAG_member
    7958                      .dwattr $C$DW$492, DW_AT_type(*$C$DW$T$20)
    7959                      .dwattr $C$DW$492, DW_AT_name("EMUR")
    7960                      .dwattr $C$DW$492, DW_AT_TI_symbol_name("_EMUR")
    7961                      .dwattr $C$DW$492, DW_AT_data_member_location[DW_OP_plus_uconst 0xc]
    7962                      .dwattr $C$DW$492, DW_AT_accessibility(DW_ACCESS_public)
    7963              $C$DW$493       .dwtag  DW_TAG_member
    7964                      .dwattr $C$DW$493, DW_AT_type(*$C$DW$T$33)
    7965                      .dwattr $C$DW$493, DW_AT_name("RSVD3")
    7966                      .dwattr $C$DW$493, DW_AT_TI_symbol_name("_RSVD3")
    7967                      .dwattr $C$DW$493, DW_AT_data_member_location[DW_OP_plus_uconst 0xd]
    7968                      .dwattr $C$DW$493, DW_AT_accessibility(DW_ACCESS_public)
    7969              $C$DW$494       .dwtag  DW_TAG_member
    7970                      .dwattr $C$DW$494, DW_AT_type(*$C$DW$T$20)
    7971                      .dwattr $C$DW$494, DW_AT_name("MODE1")
    7972                      .dwattr $C$DW$494, DW_AT_TI_symbol_name("_MODE1")
    7973                      .dwattr $C$DW$494, DW_AT_data_member_location[DW_OP_plus_uconst 0x10]
    7974                      .dwattr $C$DW$494, DW_AT_accessibility(DW_ACCESS_public)
    7975              $C$DW$495       .dwtag  DW_TAG_member
    7976                      .dwattr $C$DW$495, DW_AT_type(*$C$DW$T$20)
    7977                      .dwattr $C$DW$495, DW_AT_name("MODE2")
    7978                      .dwattr $C$DW$495, DW_AT_TI_symbol_name("_MODE2")
TMS320C55x Assembler PC v4.4.1 Tue Oct 02 02:33:44 2018

Tools Copyright (c) 1996-2012 Texas Instruments Incorporated
csl_usb.asm                                                          PAGE  189

    7979                      .dwattr $C$DW$495, DW_AT_data_member_location[DW_OP_plus_uconst 0x11]
    7980                      .dwattr $C$DW$495, DW_AT_accessibility(DW_ACCESS_public)
    7981              $C$DW$496       .dwtag  DW_TAG_member
    7982                      .dwattr $C$DW$496, DW_AT_type(*$C$DW$T$21)
    7983                      .dwattr $C$DW$496, DW_AT_name("RSVD4")
    7984                      .dwattr $C$DW$496, DW_AT_TI_symbol_name("_RSVD4")
    7985                      .dwattr $C$DW$496, DW_AT_data_member_location[DW_OP_plus_uconst 0x12]
    7986                      .dwattr $C$DW$496, DW_AT_accessibility(DW_ACCESS_public)
    7987              $C$DW$497       .dwtag  DW_TAG_member
    7988                      .dwattr $C$DW$497, DW_AT_type(*$C$DW$T$20)
    7989                      .dwattr $C$DW$497, DW_AT_name("AUTOREQ")
    7990                      .dwattr $C$DW$497, DW_AT_TI_symbol_name("_AUTOREQ")
    7991                      .dwattr $C$DW$497, DW_AT_data_member_location[DW_OP_plus_uconst 0x14]
    7992                      .dwattr $C$DW$497, DW_AT_accessibility(DW_ACCESS_public)
    7993              $C$DW$498       .dwtag  DW_TAG_member
    7994                      .dwattr $C$DW$498, DW_AT_type(*$C$DW$T$33)
    7995                      .dwattr $C$DW$498, DW_AT_name("RSVD5")
    7996                      .dwattr $C$DW$498, DW_AT_TI_symbol_name("_RSVD5")
    7997                      .dwattr $C$DW$498, DW_AT_data_member_location[DW_OP_plus_uconst 0x15]
    7998                      .dwattr $C$DW$498, DW_AT_accessibility(DW_ACCESS_public)
    7999              $C$DW$499       .dwtag  DW_TAG_member
    8000                      .dwattr $C$DW$499, DW_AT_type(*$C$DW$T$20)
    8001                      .dwattr $C$DW$499, DW_AT_name("SPRFIXTIME1")
    8002                      .dwattr $C$DW$499, DW_AT_TI_symbol_name("_SPRFIXTIME1")
    8003                      .dwattr $C$DW$499, DW_AT_data_member_location[DW_OP_plus_uconst 0x18]
    8004                      .dwattr $C$DW$499, DW_AT_accessibility(DW_ACCESS_public)
    8005              $C$DW$500       .dwtag  DW_TAG_member
    8006                      .dwattr $C$DW$500, DW_AT_type(*$C$DW$T$20)
    8007                      .dwattr $C$DW$500, DW_AT_name("SPRFIXTIME2")
    8008                      .dwattr $C$DW$500, DW_AT_TI_symbol_name("_SPRFIXTIME2")
    8009                      .dwattr $C$DW$500, DW_AT_data_member_location[DW_OP_plus_uconst 0x19]
    8010                      .dwattr $C$DW$500, DW_AT_accessibility(DW_ACCESS_public)
    8011              $C$DW$501       .dwtag  DW_TAG_member
    8012                      .dwattr $C$DW$501, DW_AT_type(*$C$DW$T$21)
    8013                      .dwattr $C$DW$501, DW_AT_name("RSVD6")
    8014                      .dwattr $C$DW$501, DW_AT_TI_symbol_name("_RSVD6")
    8015                      .dwattr $C$DW$501, DW_AT_data_member_location[DW_OP_plus_uconst 0x1a]
    8016                      .dwattr $C$DW$501, DW_AT_accessibility(DW_ACCESS_public)
    8017              $C$DW$502       .dwtag  DW_TAG_member
    8018                      .dwattr $C$DW$502, DW_AT_type(*$C$DW$T$20)
    8019                      .dwattr $C$DW$502, DW_AT_name("TEARDOWN1")
    8020                      .dwattr $C$DW$502, DW_AT_TI_symbol_name("_TEARDOWN1")
    8021                      .dwattr $C$DW$502, DW_AT_data_member_location[DW_OP_plus_uconst 0x1c]
    8022                      .dwattr $C$DW$502, DW_AT_accessibility(DW_ACCESS_public)
    8023              $C$DW$503       .dwtag  DW_TAG_member
    8024                      .dwattr $C$DW$503, DW_AT_type(*$C$DW$T$20)
    8025                      .dwattr $C$DW$503, DW_AT_name("TEARDOWN2")
    8026                      .dwattr $C$DW$503, DW_AT_TI_symbol_name("_TEARDOWN2")
    8027                      .dwattr $C$DW$503, DW_AT_data_member_location[DW_OP_plus_uconst 0x1d]
    8028                      .dwattr $C$DW$503, DW_AT_accessibility(DW_ACCESS_public)
    8029              $C$DW$504       .dwtag  DW_TAG_member
    8030                      .dwattr $C$DW$504, DW_AT_type(*$C$DW$T$21)
    8031                      .dwattr $C$DW$504, DW_AT_name("RSVD7")
    8032                      .dwattr $C$DW$504, DW_AT_TI_symbol_name("_RSVD7")
    8033                      .dwattr $C$DW$504, DW_AT_data_member_location[DW_OP_plus_uconst 0x1e]
TMS320C55x Assembler PC v4.4.1 Tue Oct 02 02:33:44 2018

Tools Copyright (c) 1996-2012 Texas Instruments Incorporated
csl_usb.asm                                                          PAGE  190

    8034                      .dwattr $C$DW$504, DW_AT_accessibility(DW_ACCESS_public)
    8035              $C$DW$505       .dwtag  DW_TAG_member
    8036                      .dwattr $C$DW$505, DW_AT_type(*$C$DW$T$20)
    8037                      .dwattr $C$DW$505, DW_AT_name("INTSRCR1")
    8038                      .dwattr $C$DW$505, DW_AT_TI_symbol_name("_INTSRCR1")
    8039                      .dwattr $C$DW$505, DW_AT_data_member_location[DW_OP_plus_uconst 0x20]
    8040                      .dwattr $C$DW$505, DW_AT_accessibility(DW_ACCESS_public)
    8041              $C$DW$506       .dwtag  DW_TAG_member
    8042                      .dwattr $C$DW$506, DW_AT_type(*$C$DW$T$20)
    8043                      .dwattr $C$DW$506, DW_AT_name("INTSRCR2")
    8044                      .dwattr $C$DW$506, DW_AT_TI_symbol_name("_INTSRCR2")
    8045                      .dwattr $C$DW$506, DW_AT_data_member_location[DW_OP_plus_uconst 0x21]
    8046                      .dwattr $C$DW$506, DW_AT_accessibility(DW_ACCESS_public)
    8047              $C$DW$507       .dwtag  DW_TAG_member
    8048                      .dwattr $C$DW$507, DW_AT_type(*$C$DW$T$21)
    8049                      .dwattr $C$DW$507, DW_AT_name("RSVD8")
    8050                      .dwattr $C$DW$507, DW_AT_TI_symbol_name("_RSVD8")
    8051                      .dwattr $C$DW$507, DW_AT_data_member_location[DW_OP_plus_uconst 0x22]
    8052                      .dwattr $C$DW$507, DW_AT_accessibility(DW_ACCESS_public)
    8053              $C$DW$508       .dwtag  DW_TAG_member
    8054                      .dwattr $C$DW$508, DW_AT_type(*$C$DW$T$20)
    8055                      .dwattr $C$DW$508, DW_AT_name("INTSETR1")
    8056                      .dwattr $C$DW$508, DW_AT_TI_symbol_name("_INTSETR1")
    8057                      .dwattr $C$DW$508, DW_AT_data_member_location[DW_OP_plus_uconst 0x24]
    8058                      .dwattr $C$DW$508, DW_AT_accessibility(DW_ACCESS_public)
    8059              $C$DW$509       .dwtag  DW_TAG_member
    8060                      .dwattr $C$DW$509, DW_AT_type(*$C$DW$T$20)
    8061                      .dwattr $C$DW$509, DW_AT_name("INTSETR2")
    8062                      .dwattr $C$DW$509, DW_AT_TI_symbol_name("_INTSETR2")
    8063                      .dwattr $C$DW$509, DW_AT_data_member_location[DW_OP_plus_uconst 0x25]
    8064                      .dwattr $C$DW$509, DW_AT_accessibility(DW_ACCESS_public)
    8065              $C$DW$510       .dwtag  DW_TAG_member
    8066                      .dwattr $C$DW$510, DW_AT_type(*$C$DW$T$21)
    8067                      .dwattr $C$DW$510, DW_AT_name("RSVD9")
    8068                      .dwattr $C$DW$510, DW_AT_TI_symbol_name("_RSVD9")
    8069                      .dwattr $C$DW$510, DW_AT_data_member_location[DW_OP_plus_uconst 0x26]
    8070                      .dwattr $C$DW$510, DW_AT_accessibility(DW_ACCESS_public)
    8071              $C$DW$511       .dwtag  DW_TAG_member
    8072                      .dwattr $C$DW$511, DW_AT_type(*$C$DW$T$20)
    8073                      .dwattr $C$DW$511, DW_AT_name("INTCLRR1")
    8074                      .dwattr $C$DW$511, DW_AT_TI_symbol_name("_INTCLRR1")
    8075                      .dwattr $C$DW$511, DW_AT_data_member_location[DW_OP_plus_uconst 0x28]
    8076                      .dwattr $C$DW$511, DW_AT_accessibility(DW_ACCESS_public)
    8077              $C$DW$512       .dwtag  DW_TAG_member
    8078                      .dwattr $C$DW$512, DW_AT_type(*$C$DW$T$20)
    8079                      .dwattr $C$DW$512, DW_AT_name("INTCLRR2")
    8080                      .dwattr $C$DW$512, DW_AT_TI_symbol_name("_INTCLRR2")
    8081                      .dwattr $C$DW$512, DW_AT_data_member_location[DW_OP_plus_uconst 0x29]
    8082                      .dwattr $C$DW$512, DW_AT_accessibility(DW_ACCESS_public)
    8083              $C$DW$513       .dwtag  DW_TAG_member
    8084                      .dwattr $C$DW$513, DW_AT_type(*$C$DW$T$21)
    8085                      .dwattr $C$DW$513, DW_AT_name("RSVD10")
    8086                      .dwattr $C$DW$513, DW_AT_TI_symbol_name("_RSVD10")
    8087                      .dwattr $C$DW$513, DW_AT_data_member_location[DW_OP_plus_uconst 0x2a]
    8088                      .dwattr $C$DW$513, DW_AT_accessibility(DW_ACCESS_public)
TMS320C55x Assembler PC v4.4.1 Tue Oct 02 02:33:44 2018

Tools Copyright (c) 1996-2012 Texas Instruments Incorporated
csl_usb.asm                                                          PAGE  191

    8089              $C$DW$514       .dwtag  DW_TAG_member
    8090                      .dwattr $C$DW$514, DW_AT_type(*$C$DW$T$20)
    8091                      .dwattr $C$DW$514, DW_AT_name("INTMSKR1")
    8092                      .dwattr $C$DW$514, DW_AT_TI_symbol_name("_INTMSKR1")
    8093                      .dwattr $C$DW$514, DW_AT_data_member_location[DW_OP_plus_uconst 0x2c]
    8094                      .dwattr $C$DW$514, DW_AT_accessibility(DW_ACCESS_public)
    8095              $C$DW$515       .dwtag  DW_TAG_member
    8096                      .dwattr $C$DW$515, DW_AT_type(*$C$DW$T$20)
    8097                      .dwattr $C$DW$515, DW_AT_name("INTMSKR2")
    8098                      .dwattr $C$DW$515, DW_AT_TI_symbol_name("_INTMSKR2")
    8099                      .dwattr $C$DW$515, DW_AT_data_member_location[DW_OP_plus_uconst 0x2d]
    8100                      .dwattr $C$DW$515, DW_AT_accessibility(DW_ACCESS_public)
    8101              $C$DW$516       .dwtag  DW_TAG_member
    8102                      .dwattr $C$DW$516, DW_AT_type(*$C$DW$T$21)
    8103                      .dwattr $C$DW$516, DW_AT_name("RSVD11")
    8104                      .dwattr $C$DW$516, DW_AT_TI_symbol_name("_RSVD11")
    8105                      .dwattr $C$DW$516, DW_AT_data_member_location[DW_OP_plus_uconst 0x2e]
    8106                      .dwattr $C$DW$516, DW_AT_accessibility(DW_ACCESS_public)
    8107              $C$DW$517       .dwtag  DW_TAG_member
    8108                      .dwattr $C$DW$517, DW_AT_type(*$C$DW$T$20)
    8109                      .dwattr $C$DW$517, DW_AT_name("INTMSKSETR1")
    8110                      .dwattr $C$DW$517, DW_AT_TI_symbol_name("_INTMSKSETR1")
    8111                      .dwattr $C$DW$517, DW_AT_data_member_location[DW_OP_plus_uconst 0x30]
    8112                      .dwattr $C$DW$517, DW_AT_accessibility(DW_ACCESS_public)
    8113              $C$DW$518       .dwtag  DW_TAG_member
    8114                      .dwattr $C$DW$518, DW_AT_type(*$C$DW$T$20)
    8115                      .dwattr $C$DW$518, DW_AT_name("INTMSKSETR2")
    8116                      .dwattr $C$DW$518, DW_AT_TI_symbol_name("_INTMSKSETR2")
    8117                      .dwattr $C$DW$518, DW_AT_data_member_location[DW_OP_plus_uconst 0x31]
    8118                      .dwattr $C$DW$518, DW_AT_accessibility(DW_ACCESS_public)
    8119              $C$DW$519       .dwtag  DW_TAG_member
    8120                      .dwattr $C$DW$519, DW_AT_type(*$C$DW$T$21)
    8121                      .dwattr $C$DW$519, DW_AT_name("RSVD12")
    8122                      .dwattr $C$DW$519, DW_AT_TI_symbol_name("_RSVD12")
    8123                      .dwattr $C$DW$519, DW_AT_data_member_location[DW_OP_plus_uconst 0x32]
    8124                      .dwattr $C$DW$519, DW_AT_accessibility(DW_ACCESS_public)
    8125              $C$DW$520       .dwtag  DW_TAG_member
    8126                      .dwattr $C$DW$520, DW_AT_type(*$C$DW$T$20)
    8127                      .dwattr $C$DW$520, DW_AT_name("INTMSKCLRR1")
    8128                      .dwattr $C$DW$520, DW_AT_TI_symbol_name("_INTMSKCLRR1")
    8129                      .dwattr $C$DW$520, DW_AT_data_member_location[DW_OP_plus_uconst 0x34]
    8130                      .dwattr $C$DW$520, DW_AT_accessibility(DW_ACCESS_public)
    8131              $C$DW$521       .dwtag  DW_TAG_member
    8132                      .dwattr $C$DW$521, DW_AT_type(*$C$DW$T$20)
    8133                      .dwattr $C$DW$521, DW_AT_name("INTMSKCLRR2")
    8134                      .dwattr $C$DW$521, DW_AT_TI_symbol_name("_INTMSKCLRR2")
    8135                      .dwattr $C$DW$521, DW_AT_data_member_location[DW_OP_plus_uconst 0x35]
    8136                      .dwattr $C$DW$521, DW_AT_accessibility(DW_ACCESS_public)
    8137              $C$DW$522       .dwtag  DW_TAG_member
    8138                      .dwattr $C$DW$522, DW_AT_type(*$C$DW$T$21)
    8139                      .dwattr $C$DW$522, DW_AT_name("RSVD13")
    8140                      .dwattr $C$DW$522, DW_AT_TI_symbol_name("_RSVD13")
    8141                      .dwattr $C$DW$522, DW_AT_data_member_location[DW_OP_plus_uconst 0x36]
    8142                      .dwattr $C$DW$522, DW_AT_accessibility(DW_ACCESS_public)
    8143              $C$DW$523       .dwtag  DW_TAG_member
TMS320C55x Assembler PC v4.4.1 Tue Oct 02 02:33:44 2018

Tools Copyright (c) 1996-2012 Texas Instruments Incorporated
csl_usb.asm                                                          PAGE  192

    8144                      .dwattr $C$DW$523, DW_AT_type(*$C$DW$T$20)
    8145                      .dwattr $C$DW$523, DW_AT_name("INTMASKEDR1")
    8146                      .dwattr $C$DW$523, DW_AT_TI_symbol_name("_INTMASKEDR1")
    8147                      .dwattr $C$DW$523, DW_AT_data_member_location[DW_OP_plus_uconst 0x38]
    8148                      .dwattr $C$DW$523, DW_AT_accessibility(DW_ACCESS_public)
    8149              $C$DW$524       .dwtag  DW_TAG_member
    8150                      .dwattr $C$DW$524, DW_AT_type(*$C$DW$T$20)
    8151                      .dwattr $C$DW$524, DW_AT_name("INTMASKEDR2")
    8152                      .dwattr $C$DW$524, DW_AT_TI_symbol_name("_INTMASKEDR2")
    8153                      .dwattr $C$DW$524, DW_AT_data_member_location[DW_OP_plus_uconst 0x39]
    8154                      .dwattr $C$DW$524, DW_AT_accessibility(DW_ACCESS_public)
    8155              $C$DW$525       .dwtag  DW_TAG_member
    8156                      .dwattr $C$DW$525, DW_AT_type(*$C$DW$T$21)
    8157                      .dwattr $C$DW$525, DW_AT_name("RSVD14")
    8158                      .dwattr $C$DW$525, DW_AT_TI_symbol_name("_RSVD14")
    8159                      .dwattr $C$DW$525, DW_AT_data_member_location[DW_OP_plus_uconst 0x3a]
    8160                      .dwattr $C$DW$525, DW_AT_accessibility(DW_ACCESS_public)
    8161              $C$DW$526       .dwtag  DW_TAG_member
    8162                      .dwattr $C$DW$526, DW_AT_type(*$C$DW$T$20)
    8163                      .dwattr $C$DW$526, DW_AT_name("EOIR")
    8164                      .dwattr $C$DW$526, DW_AT_TI_symbol_name("_EOIR")
    8165                      .dwattr $C$DW$526, DW_AT_data_member_location[DW_OP_plus_uconst 0x3c]
    8166                      .dwattr $C$DW$526, DW_AT_accessibility(DW_ACCESS_public)
    8167              $C$DW$527       .dwtag  DW_TAG_member
    8168                      .dwattr $C$DW$527, DW_AT_type(*$C$DW$T$33)
    8169                      .dwattr $C$DW$527, DW_AT_name("RSVD15")
    8170                      .dwattr $C$DW$527, DW_AT_TI_symbol_name("_RSVD15")
    8171                      .dwattr $C$DW$527, DW_AT_data_member_location[DW_OP_plus_uconst 0x3d]
    8172                      .dwattr $C$DW$527, DW_AT_accessibility(DW_ACCESS_public)
    8173              $C$DW$528       .dwtag  DW_TAG_member
    8174                      .dwattr $C$DW$528, DW_AT_type(*$C$DW$T$20)
    8175                      .dwattr $C$DW$528, DW_AT_name("INTVECTR1")
    8176                      .dwattr $C$DW$528, DW_AT_TI_symbol_name("_INTVECTR1")
    8177                      .dwattr $C$DW$528, DW_AT_data_member_location[DW_OP_plus_uconst 0x40]
    8178                      .dwattr $C$DW$528, DW_AT_accessibility(DW_ACCESS_public)
    8179              $C$DW$529       .dwtag  DW_TAG_member
    8180                      .dwattr $C$DW$529, DW_AT_type(*$C$DW$T$20)
    8181                      .dwattr $C$DW$529, DW_AT_name("INTVECTR2")
    8182                      .dwattr $C$DW$529, DW_AT_TI_symbol_name("_INTVECTR2")
    8183                      .dwattr $C$DW$529, DW_AT_data_member_location[DW_OP_plus_uconst 0x41]
    8184                      .dwattr $C$DW$529, DW_AT_accessibility(DW_ACCESS_public)
    8185              $C$DW$530       .dwtag  DW_TAG_member
    8186                      .dwattr $C$DW$530, DW_AT_type(*$C$DW$T$26)
    8187                      .dwattr $C$DW$530, DW_AT_name("RSVD16")
    8188                      .dwattr $C$DW$530, DW_AT_TI_symbol_name("_RSVD16")
    8189                      .dwattr $C$DW$530, DW_AT_data_member_location[DW_OP_plus_uconst 0x42]
    8190                      .dwattr $C$DW$530, DW_AT_accessibility(DW_ACCESS_public)
    8191              $C$DW$531       .dwtag  DW_TAG_member
    8192                      .dwattr $C$DW$531, DW_AT_type(*$C$DW$T$20)
    8193                      .dwattr $C$DW$531, DW_AT_name("GREP1SZR1")
    8194                      .dwattr $C$DW$531, DW_AT_TI_symbol_name("_GREP1SZR1")
    8195                      .dwattr $C$DW$531, DW_AT_data_member_location[DW_OP_plus_uconst 0x50]
    8196                      .dwattr $C$DW$531, DW_AT_accessibility(DW_ACCESS_public)
    8197              $C$DW$532       .dwtag  DW_TAG_member
    8198                      .dwattr $C$DW$532, DW_AT_type(*$C$DW$T$20)
TMS320C55x Assembler PC v4.4.1 Tue Oct 02 02:33:44 2018

Tools Copyright (c) 1996-2012 Texas Instruments Incorporated
csl_usb.asm                                                          PAGE  193

    8199                      .dwattr $C$DW$532, DW_AT_name("GREP1SZR2")
    8200                      .dwattr $C$DW$532, DW_AT_TI_symbol_name("_GREP1SZR2")
    8201                      .dwattr $C$DW$532, DW_AT_data_member_location[DW_OP_plus_uconst 0x51]
    8202                      .dwattr $C$DW$532, DW_AT_accessibility(DW_ACCESS_public)
    8203              $C$DW$533       .dwtag  DW_TAG_member
    8204                      .dwattr $C$DW$533, DW_AT_type(*$C$DW$T$21)
    8205                      .dwattr $C$DW$533, DW_AT_name("RSVD17")
    8206                      .dwattr $C$DW$533, DW_AT_TI_symbol_name("_RSVD17")
    8207                      .dwattr $C$DW$533, DW_AT_data_member_location[DW_OP_plus_uconst 0x52]
    8208                      .dwattr $C$DW$533, DW_AT_accessibility(DW_ACCESS_public)
    8209              $C$DW$534       .dwtag  DW_TAG_member
    8210                      .dwattr $C$DW$534, DW_AT_type(*$C$DW$T$20)
    8211                      .dwattr $C$DW$534, DW_AT_name("GREP2SZR1")
    8212                      .dwattr $C$DW$534, DW_AT_TI_symbol_name("_GREP2SZR1")
    8213                      .dwattr $C$DW$534, DW_AT_data_member_location[DW_OP_plus_uconst 0x54]
    8214                      .dwattr $C$DW$534, DW_AT_accessibility(DW_ACCESS_public)
    8215              $C$DW$535       .dwtag  DW_TAG_member
    8216                      .dwattr $C$DW$535, DW_AT_type(*$C$DW$T$20)
    8217                      .dwattr $C$DW$535, DW_AT_name("GREP2SZR2")
    8218                      .dwattr $C$DW$535, DW_AT_TI_symbol_name("_GREP2SZR2")
    8219                      .dwattr $C$DW$535, DW_AT_data_member_location[DW_OP_plus_uconst 0x55]
    8220                      .dwattr $C$DW$535, DW_AT_accessibility(DW_ACCESS_public)
    8221              $C$DW$536       .dwtag  DW_TAG_member
    8222                      .dwattr $C$DW$536, DW_AT_type(*$C$DW$T$21)
    8223                      .dwattr $C$DW$536, DW_AT_name("RSVD18")
    8224                      .dwattr $C$DW$536, DW_AT_TI_symbol_name("_RSVD18")
    8225                      .dwattr $C$DW$536, DW_AT_data_member_location[DW_OP_plus_uconst 0x56]
    8226                      .dwattr $C$DW$536, DW_AT_accessibility(DW_ACCESS_public)
    8227              $C$DW$537       .dwtag  DW_TAG_member
    8228                      .dwattr $C$DW$537, DW_AT_type(*$C$DW$T$20)
    8229                      .dwattr $C$DW$537, DW_AT_name("GREP3SZR1")
    8230                      .dwattr $C$DW$537, DW_AT_TI_symbol_name("_GREP3SZR1")
    8231                      .dwattr $C$DW$537, DW_AT_data_member_location[DW_OP_plus_uconst 0x58]
    8232                      .dwattr $C$DW$537, DW_AT_accessibility(DW_ACCESS_public)
    8233              $C$DW$538       .dwtag  DW_TAG_member
    8234                      .dwattr $C$DW$538, DW_AT_type(*$C$DW$T$20)
    8235                      .dwattr $C$DW$538, DW_AT_name("GREP3SZR2")
    8236                      .dwattr $C$DW$538, DW_AT_TI_symbol_name("_GREP3SZR2")
    8237                      .dwattr $C$DW$538, DW_AT_data_member_location[DW_OP_plus_uconst 0x59]
    8238                      .dwattr $C$DW$538, DW_AT_accessibility(DW_ACCESS_public)
    8239              $C$DW$539       .dwtag  DW_TAG_member
    8240                      .dwattr $C$DW$539, DW_AT_type(*$C$DW$T$21)
    8241                      .dwattr $C$DW$539, DW_AT_name("RSVD19")
    8242                      .dwattr $C$DW$539, DW_AT_TI_symbol_name("_RSVD19")
    8243                      .dwattr $C$DW$539, DW_AT_data_member_location[DW_OP_plus_uconst 0x5a]
    8244                      .dwattr $C$DW$539, DW_AT_accessibility(DW_ACCESS_public)
    8245              $C$DW$540       .dwtag  DW_TAG_member
    8246                      .dwattr $C$DW$540, DW_AT_type(*$C$DW$T$20)
    8247                      .dwattr $C$DW$540, DW_AT_name("GREP4SZR1")
    8248                      .dwattr $C$DW$540, DW_AT_TI_symbol_name("_GREP4SZR1")
    8249                      .dwattr $C$DW$540, DW_AT_data_member_location[DW_OP_plus_uconst 0x5c]
    8250                      .dwattr $C$DW$540, DW_AT_accessibility(DW_ACCESS_public)
    8251              $C$DW$541       .dwtag  DW_TAG_member
    8252                      .dwattr $C$DW$541, DW_AT_type(*$C$DW$T$20)
    8253                      .dwattr $C$DW$541, DW_AT_name("GREP4SZR2")
TMS320C55x Assembler PC v4.4.1 Tue Oct 02 02:33:44 2018

Tools Copyright (c) 1996-2012 Texas Instruments Incorporated
csl_usb.asm                                                          PAGE  194

    8254                      .dwattr $C$DW$541, DW_AT_TI_symbol_name("_GREP4SZR2")
    8255                      .dwattr $C$DW$541, DW_AT_data_member_location[DW_OP_plus_uconst 0x5d]
    8256                      .dwattr $C$DW$541, DW_AT_accessibility(DW_ACCESS_public)
    8257              $C$DW$542       .dwtag  DW_TAG_member
    8258                      .dwattr $C$DW$542, DW_AT_type(*$C$DW$T$35)
    8259                      .dwattr $C$DW$542, DW_AT_name("RSVD20")
    8260                      .dwattr $C$DW$542, DW_AT_TI_symbol_name("_RSVD20")
    8261                      .dwattr $C$DW$542, DW_AT_data_member_location[DW_OP_plus_uconst 0x5e]
    8262                      .dwattr $C$DW$542, DW_AT_accessibility(DW_ACCESS_public)
    8263              $C$DW$543       .dwtag  DW_TAG_member
    8264                      .dwattr $C$DW$543, DW_AT_type(*$C$DW$T$20)
    8265                      .dwattr $C$DW$543, DW_AT_name("FADDR_POWER")
    8266                      .dwattr $C$DW$543, DW_AT_TI_symbol_name("_FADDR_POWER")
    8267                      .dwattr $C$DW$543, DW_AT_data_member_location[DW_OP_plus_uconst 0x401]
    8268                      .dwattr $C$DW$543, DW_AT_accessibility(DW_ACCESS_public)
    8269              $C$DW$544       .dwtag  DW_TAG_member
    8270                      .dwattr $C$DW$544, DW_AT_type(*$C$DW$T$20)
    8271                      .dwattr $C$DW$544, DW_AT_name("INTRTX")
    8272                      .dwattr $C$DW$544, DW_AT_TI_symbol_name("_INTRTX")
    8273                      .dwattr $C$DW$544, DW_AT_data_member_location[DW_OP_plus_uconst 0x402]
    8274                      .dwattr $C$DW$544, DW_AT_accessibility(DW_ACCESS_public)
    8275              $C$DW$545       .dwtag  DW_TAG_member
    8276                      .dwattr $C$DW$545, DW_AT_type(*$C$DW$T$21)
    8277                      .dwattr $C$DW$545, DW_AT_name("RSVD21")
    8278                      .dwattr $C$DW$545, DW_AT_TI_symbol_name("_RSVD21")
    8279                      .dwattr $C$DW$545, DW_AT_data_member_location[DW_OP_plus_uconst 0x403]
    8280                      .dwattr $C$DW$545, DW_AT_accessibility(DW_ACCESS_public)
    8281              $C$DW$546       .dwtag  DW_TAG_member
    8282                      .dwattr $C$DW$546, DW_AT_type(*$C$DW$T$20)
    8283                      .dwattr $C$DW$546, DW_AT_name("INTRRX")
    8284                      .dwattr $C$DW$546, DW_AT_TI_symbol_name("_INTRRX")
    8285                      .dwattr $C$DW$546, DW_AT_data_member_location[DW_OP_plus_uconst 0x405]
    8286                      .dwattr $C$DW$546, DW_AT_accessibility(DW_ACCESS_public)
    8287              $C$DW$547       .dwtag  DW_TAG_member
    8288                      .dwattr $C$DW$547, DW_AT_type(*$C$DW$T$20)
    8289                      .dwattr $C$DW$547, DW_AT_name("INTRTXE")
    8290                      .dwattr $C$DW$547, DW_AT_TI_symbol_name("_INTRTXE")
    8291                      .dwattr $C$DW$547, DW_AT_data_member_location[DW_OP_plus_uconst 0x406]
    8292                      .dwattr $C$DW$547, DW_AT_accessibility(DW_ACCESS_public)
    8293              $C$DW$548       .dwtag  DW_TAG_member
    8294                      .dwattr $C$DW$548, DW_AT_type(*$C$DW$T$21)
    8295                      .dwattr $C$DW$548, DW_AT_name("RSVD22")
    8296                      .dwattr $C$DW$548, DW_AT_TI_symbol_name("_RSVD22")
    8297                      .dwattr $C$DW$548, DW_AT_data_member_location[DW_OP_plus_uconst 0x407]
    8298                      .dwattr $C$DW$548, DW_AT_accessibility(DW_ACCESS_public)
    8299              $C$DW$549       .dwtag  DW_TAG_member
    8300                      .dwattr $C$DW$549, DW_AT_type(*$C$DW$T$20)
    8301                      .dwattr $C$DW$549, DW_AT_name("INTRRXE")
    8302                      .dwattr $C$DW$549, DW_AT_TI_symbol_name("_INTRRXE")
    8303                      .dwattr $C$DW$549, DW_AT_data_member_location[DW_OP_plus_uconst 0x409]
    8304                      .dwattr $C$DW$549, DW_AT_accessibility(DW_ACCESS_public)
    8305              $C$DW$550       .dwtag  DW_TAG_member
    8306                      .dwattr $C$DW$550, DW_AT_type(*$C$DW$T$20)
    8307                      .dwattr $C$DW$550, DW_AT_name("INTRUSB_INTRUSBE")
    8308                      .dwattr $C$DW$550, DW_AT_TI_symbol_name("_INTRUSB_INTRUSBE")
TMS320C55x Assembler PC v4.4.1 Tue Oct 02 02:33:44 2018

Tools Copyright (c) 1996-2012 Texas Instruments Incorporated
csl_usb.asm                                                          PAGE  195

    8309                      .dwattr $C$DW$550, DW_AT_data_member_location[DW_OP_plus_uconst 0x40a]
    8310                      .dwattr $C$DW$550, DW_AT_accessibility(DW_ACCESS_public)
    8311              $C$DW$551       .dwtag  DW_TAG_member
    8312                      .dwattr $C$DW$551, DW_AT_type(*$C$DW$T$21)
    8313                      .dwattr $C$DW$551, DW_AT_name("RSVD23")
    8314                      .dwattr $C$DW$551, DW_AT_TI_symbol_name("_RSVD23")
    8315                      .dwattr $C$DW$551, DW_AT_data_member_location[DW_OP_plus_uconst 0x40b]
    8316                      .dwattr $C$DW$551, DW_AT_accessibility(DW_ACCESS_public)
    8317              $C$DW$552       .dwtag  DW_TAG_member
    8318                      .dwattr $C$DW$552, DW_AT_type(*$C$DW$T$20)
    8319                      .dwattr $C$DW$552, DW_AT_name("FRAME")
    8320                      .dwattr $C$DW$552, DW_AT_TI_symbol_name("_FRAME")
    8321                      .dwattr $C$DW$552, DW_AT_data_member_location[DW_OP_plus_uconst 0x40d]
    8322                      .dwattr $C$DW$552, DW_AT_accessibility(DW_ACCESS_public)
    8323              $C$DW$553       .dwtag  DW_TAG_member
    8324                      .dwattr $C$DW$553, DW_AT_type(*$C$DW$T$20)
    8325                      .dwattr $C$DW$553, DW_AT_name("INDEX_TESTMODE")
    8326                      .dwattr $C$DW$553, DW_AT_TI_symbol_name("_INDEX_TESTMODE")
    8327                      .dwattr $C$DW$553, DW_AT_data_member_location[DW_OP_plus_uconst 0x40e]
    8328                      .dwattr $C$DW$553, DW_AT_accessibility(DW_ACCESS_public)
    8329              $C$DW$554       .dwtag  DW_TAG_member
    8330                      .dwattr $C$DW$554, DW_AT_type(*$C$DW$T$21)
    8331                      .dwattr $C$DW$554, DW_AT_name("RSVD24")
    8332                      .dwattr $C$DW$554, DW_AT_TI_symbol_name("_RSVD24")
    8333                      .dwattr $C$DW$554, DW_AT_data_member_location[DW_OP_plus_uconst 0x40f]
    8334                      .dwattr $C$DW$554, DW_AT_accessibility(DW_ACCESS_public)
    8335              $C$DW$555       .dwtag  DW_TAG_member
    8336                      .dwattr $C$DW$555, DW_AT_type(*$C$DW$T$20)
    8337                      .dwattr $C$DW$555, DW_AT_name("TXMAXP_INDX")
    8338                      .dwattr $C$DW$555, DW_AT_TI_symbol_name("_TXMAXP_INDX")
    8339                      .dwattr $C$DW$555, DW_AT_data_member_location[DW_OP_plus_uconst 0x411]
    8340                      .dwattr $C$DW$555, DW_AT_accessibility(DW_ACCESS_public)
    8341              $C$DW$556       .dwtag  DW_TAG_member
    8342                      .dwattr $C$DW$556, DW_AT_type(*$C$DW$T$20)
    8343                      .dwattr $C$DW$556, DW_AT_name("PERI_CSR0_INDX")
    8344                      .dwattr $C$DW$556, DW_AT_TI_symbol_name("_PERI_CSR0_INDX")
    8345                      .dwattr $C$DW$556, DW_AT_data_member_location[DW_OP_plus_uconst 0x412]
    8346                      .dwattr $C$DW$556, DW_AT_accessibility(DW_ACCESS_public)
    8347              $C$DW$557       .dwtag  DW_TAG_member
    8348                      .dwattr $C$DW$557, DW_AT_type(*$C$DW$T$21)
    8349                      .dwattr $C$DW$557, DW_AT_name("RSVD25")
    8350                      .dwattr $C$DW$557, DW_AT_TI_symbol_name("_RSVD25")
    8351                      .dwattr $C$DW$557, DW_AT_data_member_location[DW_OP_plus_uconst 0x413]
    8352                      .dwattr $C$DW$557, DW_AT_accessibility(DW_ACCESS_public)
    8353              $C$DW$558       .dwtag  DW_TAG_member
    8354                      .dwattr $C$DW$558, DW_AT_type(*$C$DW$T$20)
    8355                      .dwattr $C$DW$558, DW_AT_name("RXMAXP_INDX")
    8356                      .dwattr $C$DW$558, DW_AT_TI_symbol_name("_RXMAXP_INDX")
    8357                      .dwattr $C$DW$558, DW_AT_data_member_location[DW_OP_plus_uconst 0x415]
    8358                      .dwattr $C$DW$558, DW_AT_accessibility(DW_ACCESS_public)
    8359              $C$DW$559       .dwtag  DW_TAG_member
    8360                      .dwattr $C$DW$559, DW_AT_type(*$C$DW$T$20)
    8361                      .dwattr $C$DW$559, DW_AT_name("PERI_RXCSR_INDX")
    8362                      .dwattr $C$DW$559, DW_AT_TI_symbol_name("_PERI_RXCSR_INDX")
    8363                      .dwattr $C$DW$559, DW_AT_data_member_location[DW_OP_plus_uconst 0x416]
TMS320C55x Assembler PC v4.4.1 Tue Oct 02 02:33:44 2018

Tools Copyright (c) 1996-2012 Texas Instruments Incorporated
csl_usb.asm                                                          PAGE  196

    8364                      .dwattr $C$DW$559, DW_AT_accessibility(DW_ACCESS_public)
    8365              $C$DW$560       .dwtag  DW_TAG_member
    8366                      .dwattr $C$DW$560, DW_AT_type(*$C$DW$T$21)
    8367                      .dwattr $C$DW$560, DW_AT_name("RSVD26")
    8368                      .dwattr $C$DW$560, DW_AT_TI_symbol_name("_RSVD26")
    8369                      .dwattr $C$DW$560, DW_AT_data_member_location[DW_OP_plus_uconst 0x417]
    8370                      .dwattr $C$DW$560, DW_AT_accessibility(DW_ACCESS_public)
    8371              $C$DW$561       .dwtag  DW_TAG_member
    8372                      .dwattr $C$DW$561, DW_AT_type(*$C$DW$T$20)
    8373                      .dwattr $C$DW$561, DW_AT_name("COUNT0_INDX")
    8374                      .dwattr $C$DW$561, DW_AT_TI_symbol_name("_COUNT0_INDX")
    8375                      .dwattr $C$DW$561, DW_AT_data_member_location[DW_OP_plus_uconst 0x419]
    8376                      .dwattr $C$DW$561, DW_AT_accessibility(DW_ACCESS_public)
    8377              $C$DW$562       .dwtag  DW_TAG_member
    8378                      .dwattr $C$DW$562, DW_AT_type(*$C$DW$T$36)
    8379                      .dwattr $C$DW$562, DW_AT_name("RSVD27")
    8380                      .dwattr $C$DW$562, DW_AT_TI_symbol_name("_RSVD27")
    8381                      .dwattr $C$DW$562, DW_AT_data_member_location[DW_OP_plus_uconst 0x41a]
    8382                      .dwattr $C$DW$562, DW_AT_accessibility(DW_ACCESS_public)
    8383              $C$DW$563       .dwtag  DW_TAG_member
    8384                      .dwattr $C$DW$563, DW_AT_type(*$C$DW$T$20)
    8385                      .dwattr $C$DW$563, DW_AT_name("CONFIGDATA_INDX")
    8386                      .dwattr $C$DW$563, DW_AT_TI_symbol_name("_CONFIGDATA_INDX")
    8387                      .dwattr $C$DW$563, DW_AT_data_member_location[DW_OP_plus_uconst 0x41e]
    8388                      .dwattr $C$DW$563, DW_AT_accessibility(DW_ACCESS_public)
    8389              $C$DW$564       .dwtag  DW_TAG_member
    8390                      .dwattr $C$DW$564, DW_AT_type(*$C$DW$T$21)
    8391                      .dwattr $C$DW$564, DW_AT_name("RSVD28")
    8392                      .dwattr $C$DW$564, DW_AT_TI_symbol_name("_RSVD28")
    8393                      .dwattr $C$DW$564, DW_AT_data_member_location[DW_OP_plus_uconst 0x41f]
    8394                      .dwattr $C$DW$564, DW_AT_accessibility(DW_ACCESS_public)
    8395              $C$DW$565       .dwtag  DW_TAG_member
    8396                      .dwattr $C$DW$565, DW_AT_type(*$C$DW$T$20)
    8397                      .dwattr $C$DW$565, DW_AT_name("FIFO0R1")
    8398                      .dwattr $C$DW$565, DW_AT_TI_symbol_name("_FIFO0R1")
    8399                      .dwattr $C$DW$565, DW_AT_data_member_location[DW_OP_plus_uconst 0x421]
    8400                      .dwattr $C$DW$565, DW_AT_accessibility(DW_ACCESS_public)
    8401              $C$DW$566       .dwtag  DW_TAG_member
    8402                      .dwattr $C$DW$566, DW_AT_type(*$C$DW$T$20)
    8403                      .dwattr $C$DW$566, DW_AT_name("FIFO0R2")
    8404                      .dwattr $C$DW$566, DW_AT_TI_symbol_name("_FIFO0R2")
    8405                      .dwattr $C$DW$566, DW_AT_data_member_location[DW_OP_plus_uconst 0x422]
    8406                      .dwattr $C$DW$566, DW_AT_accessibility(DW_ACCESS_public)
    8407              $C$DW$567       .dwtag  DW_TAG_member
    8408                      .dwattr $C$DW$567, DW_AT_type(*$C$DW$T$21)
    8409                      .dwattr $C$DW$567, DW_AT_name("RSVD29")
    8410                      .dwattr $C$DW$567, DW_AT_TI_symbol_name("_RSVD29")
    8411                      .dwattr $C$DW$567, DW_AT_data_member_location[DW_OP_plus_uconst 0x423]
    8412                      .dwattr $C$DW$567, DW_AT_accessibility(DW_ACCESS_public)
    8413              $C$DW$568       .dwtag  DW_TAG_member
    8414                      .dwattr $C$DW$568, DW_AT_type(*$C$DW$T$20)
    8415                      .dwattr $C$DW$568, DW_AT_name("FIFO1R1")
    8416                      .dwattr $C$DW$568, DW_AT_TI_symbol_name("_FIFO1R1")
    8417                      .dwattr $C$DW$568, DW_AT_data_member_location[DW_OP_plus_uconst 0x425]
    8418                      .dwattr $C$DW$568, DW_AT_accessibility(DW_ACCESS_public)
TMS320C55x Assembler PC v4.4.1 Tue Oct 02 02:33:44 2018

Tools Copyright (c) 1996-2012 Texas Instruments Incorporated
csl_usb.asm                                                          PAGE  197

    8419              $C$DW$569       .dwtag  DW_TAG_member
    8420                      .dwattr $C$DW$569, DW_AT_type(*$C$DW$T$20)
    8421                      .dwattr $C$DW$569, DW_AT_name("FIFO1R2")
    8422                      .dwattr $C$DW$569, DW_AT_TI_symbol_name("_FIFO1R2")
    8423                      .dwattr $C$DW$569, DW_AT_data_member_location[DW_OP_plus_uconst 0x426]
    8424                      .dwattr $C$DW$569, DW_AT_accessibility(DW_ACCESS_public)
    8425              $C$DW$570       .dwtag  DW_TAG_member
    8426                      .dwattr $C$DW$570, DW_AT_type(*$C$DW$T$21)
    8427                      .dwattr $C$DW$570, DW_AT_name("RSVD30")
    8428                      .dwattr $C$DW$570, DW_AT_TI_symbol_name("_RSVD30")
    8429                      .dwattr $C$DW$570, DW_AT_data_member_location[DW_OP_plus_uconst 0x427]
    8430                      .dwattr $C$DW$570, DW_AT_accessibility(DW_ACCESS_public)
    8431              $C$DW$571       .dwtag  DW_TAG_member
    8432                      .dwattr $C$DW$571, DW_AT_type(*$C$DW$T$20)
    8433                      .dwattr $C$DW$571, DW_AT_name("FIFO2R1")
    8434                      .dwattr $C$DW$571, DW_AT_TI_symbol_name("_FIFO2R1")
    8435                      .dwattr $C$DW$571, DW_AT_data_member_location[DW_OP_plus_uconst 0x429]
    8436                      .dwattr $C$DW$571, DW_AT_accessibility(DW_ACCESS_public)
    8437              $C$DW$572       .dwtag  DW_TAG_member
    8438                      .dwattr $C$DW$572, DW_AT_type(*$C$DW$T$20)
    8439                      .dwattr $C$DW$572, DW_AT_name("FIFO2R2")
    8440                      .dwattr $C$DW$572, DW_AT_TI_symbol_name("_FIFO2R2")
    8441                      .dwattr $C$DW$572, DW_AT_data_member_location[DW_OP_plus_uconst 0x42a]
    8442                      .dwattr $C$DW$572, DW_AT_accessibility(DW_ACCESS_public)
    8443              $C$DW$573       .dwtag  DW_TAG_member
    8444                      .dwattr $C$DW$573, DW_AT_type(*$C$DW$T$21)
    8445                      .dwattr $C$DW$573, DW_AT_name("RSVD31")
    8446                      .dwattr $C$DW$573, DW_AT_TI_symbol_name("_RSVD31")
    8447                      .dwattr $C$DW$573, DW_AT_data_member_location[DW_OP_plus_uconst 0x42b]
    8448                      .dwattr $C$DW$573, DW_AT_accessibility(DW_ACCESS_public)
    8449              $C$DW$574       .dwtag  DW_TAG_member
    8450                      .dwattr $C$DW$574, DW_AT_type(*$C$DW$T$20)
    8451                      .dwattr $C$DW$574, DW_AT_name("FIFO3R1")
    8452                      .dwattr $C$DW$574, DW_AT_TI_symbol_name("_FIFO3R1")
    8453                      .dwattr $C$DW$574, DW_AT_data_member_location[DW_OP_plus_uconst 0x42d]
    8454                      .dwattr $C$DW$574, DW_AT_accessibility(DW_ACCESS_public)
    8455              $C$DW$575       .dwtag  DW_TAG_member
    8456                      .dwattr $C$DW$575, DW_AT_type(*$C$DW$T$20)
    8457                      .dwattr $C$DW$575, DW_AT_name("FIFO3R2")
    8458                      .dwattr $C$DW$575, DW_AT_TI_symbol_name("_FIFO3R2")
    8459                      .dwattr $C$DW$575, DW_AT_data_member_location[DW_OP_plus_uconst 0x42e]
    8460                      .dwattr $C$DW$575, DW_AT_accessibility(DW_ACCESS_public)
    8461              $C$DW$576       .dwtag  DW_TAG_member
    8462                      .dwattr $C$DW$576, DW_AT_type(*$C$DW$T$21)
    8463                      .dwattr $C$DW$576, DW_AT_name("RSVD32")
    8464                      .dwattr $C$DW$576, DW_AT_TI_symbol_name("_RSVD32")
    8465                      .dwattr $C$DW$576, DW_AT_data_member_location[DW_OP_plus_uconst 0x42f]
    8466                      .dwattr $C$DW$576, DW_AT_accessibility(DW_ACCESS_public)
    8467              $C$DW$577       .dwtag  DW_TAG_member
    8468                      .dwattr $C$DW$577, DW_AT_type(*$C$DW$T$20)
    8469                      .dwattr $C$DW$577, DW_AT_name("FIFO4R1")
    8470                      .dwattr $C$DW$577, DW_AT_TI_symbol_name("_FIFO4R1")
    8471                      .dwattr $C$DW$577, DW_AT_data_member_location[DW_OP_plus_uconst 0x431]
    8472                      .dwattr $C$DW$577, DW_AT_accessibility(DW_ACCESS_public)
    8473              $C$DW$578       .dwtag  DW_TAG_member
TMS320C55x Assembler PC v4.4.1 Tue Oct 02 02:33:44 2018

Tools Copyright (c) 1996-2012 Texas Instruments Incorporated
csl_usb.asm                                                          PAGE  198

    8474                      .dwattr $C$DW$578, DW_AT_type(*$C$DW$T$20)
    8475                      .dwattr $C$DW$578, DW_AT_name("FIFO4R2")
    8476                      .dwattr $C$DW$578, DW_AT_TI_symbol_name("_FIFO4R2")
    8477                      .dwattr $C$DW$578, DW_AT_data_member_location[DW_OP_plus_uconst 0x432]
    8478                      .dwattr $C$DW$578, DW_AT_accessibility(DW_ACCESS_public)
    8479              $C$DW$579       .dwtag  DW_TAG_member
    8480                      .dwattr $C$DW$579, DW_AT_type(*$C$DW$T$37)
    8481                      .dwattr $C$DW$579, DW_AT_name("RSVD33")
    8482                      .dwattr $C$DW$579, DW_AT_TI_symbol_name("_RSVD33")
    8483                      .dwattr $C$DW$579, DW_AT_data_member_location[DW_OP_plus_uconst 0x433]
    8484                      .dwattr $C$DW$579, DW_AT_accessibility(DW_ACCESS_public)
    8485              $C$DW$580       .dwtag  DW_TAG_member
    8486                      .dwattr $C$DW$580, DW_AT_type(*$C$DW$T$20)
    8487                      .dwattr $C$DW$580, DW_AT_name("DEVCTL")
    8488                      .dwattr $C$DW$580, DW_AT_TI_symbol_name("_DEVCTL")
    8489                      .dwattr $C$DW$580, DW_AT_data_member_location[DW_OP_plus_uconst 0x461]
    8490                      .dwattr $C$DW$580, DW_AT_accessibility(DW_ACCESS_public)
    8491              $C$DW$581       .dwtag  DW_TAG_member
    8492                      .dwattr $C$DW$581, DW_AT_type(*$C$DW$T$20)
    8493                      .dwattr $C$DW$581, DW_AT_name("TXFIFOSZ_RXFIFOSZ")
    8494                      .dwattr $C$DW$581, DW_AT_TI_symbol_name("_TXFIFOSZ_RXFIFOSZ")
    8495                      .dwattr $C$DW$581, DW_AT_data_member_location[DW_OP_plus_uconst 0x462]
    8496                      .dwattr $C$DW$581, DW_AT_accessibility(DW_ACCESS_public)
    8497              $C$DW$582       .dwtag  DW_TAG_member
    8498                      .dwattr $C$DW$582, DW_AT_type(*$C$DW$T$21)
    8499                      .dwattr $C$DW$582, DW_AT_name("RSVD34")
    8500                      .dwattr $C$DW$582, DW_AT_TI_symbol_name("_RSVD34")
    8501                      .dwattr $C$DW$582, DW_AT_data_member_location[DW_OP_plus_uconst 0x463]
    8502                      .dwattr $C$DW$582, DW_AT_accessibility(DW_ACCESS_public)
    8503              $C$DW$583       .dwtag  DW_TAG_member
    8504                      .dwattr $C$DW$583, DW_AT_type(*$C$DW$T$20)
    8505                      .dwattr $C$DW$583, DW_AT_name("TXFIFOADDR")
    8506                      .dwattr $C$DW$583, DW_AT_TI_symbol_name("_TXFIFOADDR")
    8507                      .dwattr $C$DW$583, DW_AT_data_member_location[DW_OP_plus_uconst 0x465]
    8508                      .dwattr $C$DW$583, DW_AT_accessibility(DW_ACCESS_public)
    8509              $C$DW$584       .dwtag  DW_TAG_member
    8510                      .dwattr $C$DW$584, DW_AT_type(*$C$DW$T$20)
    8511                      .dwattr $C$DW$584, DW_AT_name("RXFIFOADDR")
    8512                      .dwattr $C$DW$584, DW_AT_TI_symbol_name("_RXFIFOADDR")
    8513                      .dwattr $C$DW$584, DW_AT_data_member_location[DW_OP_plus_uconst 0x466]
    8514                      .dwattr $C$DW$584, DW_AT_accessibility(DW_ACCESS_public)
    8515              $C$DW$585       .dwtag  DW_TAG_member
    8516                      .dwattr $C$DW$585, DW_AT_type(*$C$DW$T$25)
    8517                      .dwattr $C$DW$585, DW_AT_name("RSVD35")
    8518                      .dwattr $C$DW$585, DW_AT_TI_symbol_name("_RSVD35")
    8519                      .dwattr $C$DW$585, DW_AT_data_member_location[DW_OP_plus_uconst 0x467]
    8520                      .dwattr $C$DW$585, DW_AT_accessibility(DW_ACCESS_public)
    8521              $C$DW$586       .dwtag  DW_TAG_member
    8522                      .dwattr $C$DW$586, DW_AT_type(*$C$DW$T$20)
    8523                      .dwattr $C$DW$586, DW_AT_name("HWVERS")
    8524                      .dwattr $C$DW$586, DW_AT_TI_symbol_name("_HWVERS")
    8525                      .dwattr $C$DW$586, DW_AT_data_member_location[DW_OP_plus_uconst 0x46d]
    8526                      .dwattr $C$DW$586, DW_AT_accessibility(DW_ACCESS_public)
    8527              $C$DW$587       .dwtag  DW_TAG_member
    8528                      .dwattr $C$DW$587, DW_AT_type(*$C$DW$T$38)
TMS320C55x Assembler PC v4.4.1 Tue Oct 02 02:33:44 2018

Tools Copyright (c) 1996-2012 Texas Instruments Incorporated
csl_usb.asm                                                          PAGE  199

    8529                      .dwattr $C$DW$587, DW_AT_name("RSVD37")
    8530                      .dwattr $C$DW$587, DW_AT_TI_symbol_name("_RSVD37")
    8531                      .dwattr $C$DW$587, DW_AT_data_member_location[DW_OP_plus_uconst 0x46e]
    8532                      .dwattr $C$DW$587, DW_AT_accessibility(DW_ACCESS_public)
    8533              $C$DW$588       .dwtag  DW_TAG_member
    8534                      .dwattr $C$DW$588, DW_AT_type(*$C$DW$T$40)
    8535                      .dwattr $C$DW$588, DW_AT_name("EPTRG")
    8536                      .dwattr $C$DW$588, DW_AT_TI_symbol_name("_EPTRG")
    8537                      .dwattr $C$DW$588, DW_AT_data_member_location[DW_OP_plus_uconst 0x481]
    8538                      .dwattr $C$DW$588, DW_AT_accessibility(DW_ACCESS_public)
    8539              $C$DW$589       .dwtag  DW_TAG_member
    8540                      .dwattr $C$DW$589, DW_AT_type(*$C$DW$T$41)
    8541                      .dwattr $C$DW$589, DW_AT_name("RSVD38")
    8542                      .dwattr $C$DW$589, DW_AT_TI_symbol_name("_RSVD38")
    8543                      .dwattr $C$DW$589, DW_AT_data_member_location[DW_OP_plus_uconst 0x4a9]
    8544                      .dwattr $C$DW$589, DW_AT_accessibility(DW_ACCESS_public)
    8545              $C$DW$590       .dwtag  DW_TAG_member
    8546                      .dwattr $C$DW$590, DW_AT_type(*$C$DW$T$20)
    8547                      .dwattr $C$DW$590, DW_AT_name("PERI_CSR0")
    8548                      .dwattr $C$DW$590, DW_AT_TI_symbol_name("_PERI_CSR0")
    8549                      .dwattr $C$DW$590, DW_AT_data_member_location[DW_OP_plus_uconst 0x502]
    8550                      .dwattr $C$DW$590, DW_AT_accessibility(DW_ACCESS_public)
    8551              $C$DW$591       .dwtag  DW_TAG_member
    8552                      .dwattr $C$DW$591, DW_AT_type(*$C$DW$T$25)
    8553                      .dwattr $C$DW$591, DW_AT_name("RSVD39")
    8554                      .dwattr $C$DW$591, DW_AT_TI_symbol_name("_RSVD39")
    8555                      .dwattr $C$DW$591, DW_AT_data_member_location[DW_OP_plus_uconst 0x503]
    8556                      .dwattr $C$DW$591, DW_AT_accessibility(DW_ACCESS_public)
    8557              $C$DW$592       .dwtag  DW_TAG_member
    8558                      .dwattr $C$DW$592, DW_AT_type(*$C$DW$T$20)
    8559                      .dwattr $C$DW$592, DW_AT_name("COUNT0")
    8560                      .dwattr $C$DW$592, DW_AT_TI_symbol_name("_COUNT0")
    8561                      .dwattr $C$DW$592, DW_AT_data_member_location[DW_OP_plus_uconst 0x509]
    8562                      .dwattr $C$DW$592, DW_AT_accessibility(DW_ACCESS_public)
    8563              $C$DW$593       .dwtag  DW_TAG_member
    8564                      .dwattr $C$DW$593, DW_AT_type(*$C$DW$T$36)
    8565                      .dwattr $C$DW$593, DW_AT_name("RSVD40")
    8566                      .dwattr $C$DW$593, DW_AT_TI_symbol_name("_RSVD40")
    8567                      .dwattr $C$DW$593, DW_AT_data_member_location[DW_OP_plus_uconst 0x50a]
    8568                      .dwattr $C$DW$593, DW_AT_accessibility(DW_ACCESS_public)
    8569              $C$DW$594       .dwtag  DW_TAG_member
    8570                      .dwattr $C$DW$594, DW_AT_type(*$C$DW$T$20)
    8571                      .dwattr $C$DW$594, DW_AT_name("CONFIGDATA")
    8572                      .dwattr $C$DW$594, DW_AT_TI_symbol_name("_CONFIGDATA")
    8573                      .dwattr $C$DW$594, DW_AT_data_member_location[DW_OP_plus_uconst 0x50e]
    8574                      .dwattr $C$DW$594, DW_AT_accessibility(DW_ACCESS_public)
    8575              $C$DW$595       .dwtag  DW_TAG_member
    8576                      .dwattr $C$DW$595, DW_AT_type(*$C$DW$T$21)
    8577                      .dwattr $C$DW$595, DW_AT_name("RSVD42")
    8578                      .dwattr $C$DW$595, DW_AT_TI_symbol_name("_RSVD42")
    8579                      .dwattr $C$DW$595, DW_AT_data_member_location[DW_OP_plus_uconst 0x50f]
    8580                      .dwattr $C$DW$595, DW_AT_accessibility(DW_ACCESS_public)
    8581              $C$DW$596       .dwtag  DW_TAG_member
    8582                      .dwattr $C$DW$596, DW_AT_type(*$C$DW$T$43)
    8583                      .dwattr $C$DW$596, DW_AT_name("EPCSR")
TMS320C55x Assembler PC v4.4.1 Tue Oct 02 02:33:44 2018

Tools Copyright (c) 1996-2012 Texas Instruments Incorporated
csl_usb.asm                                                          PAGE  200

    8584                      .dwattr $C$DW$596, DW_AT_TI_symbol_name("_EPCSR")
    8585                      .dwattr $C$DW$596, DW_AT_data_member_location[DW_OP_plus_uconst 0x511]
    8586                      .dwattr $C$DW$596, DW_AT_accessibility(DW_ACCESS_public)
    8587              $C$DW$597       .dwtag  DW_TAG_member
    8588                      .dwattr $C$DW$597, DW_AT_type(*$C$DW$T$44)
    8589                      .dwattr $C$DW$597, DW_AT_name("RSVD43")
    8590                      .dwattr $C$DW$597, DW_AT_TI_symbol_name("_RSVD43")
    8591                      .dwattr $C$DW$597, DW_AT_data_member_location[DW_OP_plus_uconst 0x551]
    8592                      .dwattr $C$DW$597, DW_AT_accessibility(DW_ACCESS_public)
    8593              $C$DW$598       .dwtag  DW_TAG_member
    8594                      .dwattr $C$DW$598, DW_AT_type(*$C$DW$T$20)
    8595                      .dwattr $C$DW$598, DW_AT_name("DMAREVID1")
    8596                      .dwattr $C$DW$598, DW_AT_TI_symbol_name("_DMAREVID1")
    8597                      .dwattr $C$DW$598, DW_AT_data_member_location[DW_OP_plus_uconst 0x1000]
    8598                      .dwattr $C$DW$598, DW_AT_accessibility(DW_ACCESS_public)
    8599              $C$DW$599       .dwtag  DW_TAG_member
    8600                      .dwattr $C$DW$599, DW_AT_type(*$C$DW$T$20)
    8601                      .dwattr $C$DW$599, DW_AT_name("DMAREVID2")
    8602                      .dwattr $C$DW$599, DW_AT_TI_symbol_name("_DMAREVID2")
    8603                      .dwattr $C$DW$599, DW_AT_data_member_location[DW_OP_plus_uconst 0x1001]
    8604                      .dwattr $C$DW$599, DW_AT_accessibility(DW_ACCESS_public)
    8605              $C$DW$600       .dwtag  DW_TAG_member
    8606                      .dwattr $C$DW$600, DW_AT_type(*$C$DW$T$21)
    8607                      .dwattr $C$DW$600, DW_AT_name("RSVD44")
    8608                      .dwattr $C$DW$600, DW_AT_TI_symbol_name("_RSVD44")
    8609                      .dwattr $C$DW$600, DW_AT_data_member_location[DW_OP_plus_uconst 0x1002]
    8610                      .dwattr $C$DW$600, DW_AT_accessibility(DW_ACCESS_public)
    8611              $C$DW$601       .dwtag  DW_TAG_member
    8612                      .dwattr $C$DW$601, DW_AT_type(*$C$DW$T$20)
    8613                      .dwattr $C$DW$601, DW_AT_name("TDFDQ")
    8614                      .dwattr $C$DW$601, DW_AT_TI_symbol_name("_TDFDQ")
    8615                      .dwattr $C$DW$601, DW_AT_data_member_location[DW_OP_plus_uconst 0x1004]
    8616                      .dwattr $C$DW$601, DW_AT_accessibility(DW_ACCESS_public)
    8617              $C$DW$602       .dwtag  DW_TAG_member
    8618                      .dwattr $C$DW$602, DW_AT_type(*$C$DW$T$33)
    8619                      .dwattr $C$DW$602, DW_AT_name("RSVD45")
    8620                      .dwattr $C$DW$602, DW_AT_TI_symbol_name("_RSVD45")
    8621                      .dwattr $C$DW$602, DW_AT_data_member_location[DW_OP_plus_uconst 0x1005]
    8622                      .dwattr $C$DW$602, DW_AT_accessibility(DW_ACCESS_public)
    8623              $C$DW$603       .dwtag  DW_TAG_member
    8624                      .dwattr $C$DW$603, DW_AT_type(*$C$DW$T$20)
    8625                      .dwattr $C$DW$603, DW_AT_name("DMAEMU")
    8626                      .dwattr $C$DW$603, DW_AT_TI_symbol_name("_DMAEMU")
    8627                      .dwattr $C$DW$603, DW_AT_data_member_location[DW_OP_plus_uconst 0x1008]
    8628                      .dwattr $C$DW$603, DW_AT_accessibility(DW_ACCESS_public)
    8629              $C$DW$604       .dwtag  DW_TAG_member
    8630                      .dwattr $C$DW$604, DW_AT_type(*$C$DW$T$45)
    8631                      .dwattr $C$DW$604, DW_AT_name("RSVD47")
    8632                      .dwattr $C$DW$604, DW_AT_TI_symbol_name("_RSVD47")
    8633                      .dwattr $C$DW$604, DW_AT_data_member_location[DW_OP_plus_uconst 0x1009]
    8634                      .dwattr $C$DW$604, DW_AT_accessibility(DW_ACCESS_public)
    8635              $C$DW$605       .dwtag  DW_TAG_member
    8636                      .dwattr $C$DW$605, DW_AT_type(*$C$DW$T$47)
    8637                      .dwattr $C$DW$605, DW_AT_name("CHANNEL")
    8638                      .dwattr $C$DW$605, DW_AT_TI_symbol_name("_CHANNEL")
TMS320C55x Assembler PC v4.4.1 Tue Oct 02 02:33:44 2018

Tools Copyright (c) 1996-2012 Texas Instruments Incorporated
csl_usb.asm                                                          PAGE  201

    8639                      .dwattr $C$DW$605, DW_AT_data_member_location[DW_OP_plus_uconst 0x1800]
    8640                      .dwattr $C$DW$605, DW_AT_accessibility(DW_ACCESS_public)
    8641              $C$DW$606       .dwtag  DW_TAG_member
    8642                      .dwattr $C$DW$606, DW_AT_type(*$C$DW$T$48)
    8643                      .dwattr $C$DW$606, DW_AT_name("RSVD48")
    8644                      .dwattr $C$DW$606, DW_AT_TI_symbol_name("_RSVD48")
    8645                      .dwattr $C$DW$606, DW_AT_data_member_location[DW_OP_plus_uconst 0x1880]
    8646                      .dwattr $C$DW$606, DW_AT_accessibility(DW_ACCESS_public)
    8647              $C$DW$607       .dwtag  DW_TAG_member
    8648                      .dwattr $C$DW$607, DW_AT_type(*$C$DW$T$20)
    8649                      .dwattr $C$DW$607, DW_AT_name("DMA_SCHED_CTRL1")
    8650                      .dwattr $C$DW$607, DW_AT_TI_symbol_name("_DMA_SCHED_CTRL1")
    8651                      .dwattr $C$DW$607, DW_AT_data_member_location[DW_OP_plus_uconst 0x2000]
    8652                      .dwattr $C$DW$607, DW_AT_accessibility(DW_ACCESS_public)
    8653              $C$DW$608       .dwtag  DW_TAG_member
    8654                      .dwattr $C$DW$608, DW_AT_type(*$C$DW$T$20)
    8655                      .dwattr $C$DW$608, DW_AT_name("DMA_SCHED_CTRL2")
    8656                      .dwattr $C$DW$608, DW_AT_TI_symbol_name("_DMA_SCHED_CTRL2")
    8657                      .dwattr $C$DW$608, DW_AT_data_member_location[DW_OP_plus_uconst 0x2001]
    8658                      .dwattr $C$DW$608, DW_AT_accessibility(DW_ACCESS_public)
    8659              $C$DW$609       .dwtag  DW_TAG_member
    8660                      .dwattr $C$DW$609, DW_AT_type(*$C$DW$T$49)
    8661                      .dwattr $C$DW$609, DW_AT_name("RSVD50")
    8662                      .dwattr $C$DW$609, DW_AT_TI_symbol_name("_RSVD50")
    8663                      .dwattr $C$DW$609, DW_AT_data_member_location[DW_OP_plus_uconst 0x2002]
    8664                      .dwattr $C$DW$609, DW_AT_accessibility(DW_ACCESS_public)
    8665              $C$DW$610       .dwtag  DW_TAG_member
    8666                      .dwattr $C$DW$610, DW_AT_type(*$C$DW$T$51)
    8667                      .dwattr $C$DW$610, DW_AT_name("CDMASCHETBLWORD")
    8668                      .dwattr $C$DW$610, DW_AT_TI_symbol_name("_CDMASCHETBLWORD")
    8669                      .dwattr $C$DW$610, DW_AT_data_member_location[DW_OP_plus_uconst 0x2800]
    8670                      .dwattr $C$DW$610, DW_AT_accessibility(DW_ACCESS_public)
    8671              $C$DW$611       .dwtag  DW_TAG_member
    8672                      .dwattr $C$DW$611, DW_AT_type(*$C$DW$T$52)
    8673                      .dwattr $C$DW$611, DW_AT_name("RSVD51")
    8674                      .dwattr $C$DW$611, DW_AT_TI_symbol_name("_RSVD51")
    8675                      .dwattr $C$DW$611, DW_AT_data_member_location[DW_OP_plus_uconst 0x2900]
    8676                      .dwattr $C$DW$611, DW_AT_accessibility(DW_ACCESS_public)
    8677              $C$DW$612       .dwtag  DW_TAG_member
    8678                      .dwattr $C$DW$612, DW_AT_type(*$C$DW$T$20)
    8679                      .dwattr $C$DW$612, DW_AT_name("QMGRREVID1")
    8680                      .dwattr $C$DW$612, DW_AT_TI_symbol_name("_QMGRREVID1")
    8681                      .dwattr $C$DW$612, DW_AT_data_member_location[DW_OP_plus_uconst 0x4000]
    8682                      .dwattr $C$DW$612, DW_AT_accessibility(DW_ACCESS_public)
    8683              $C$DW$613       .dwtag  DW_TAG_member
    8684                      .dwattr $C$DW$613, DW_AT_type(*$C$DW$T$20)
    8685                      .dwattr $C$DW$613, DW_AT_name("QMGRREVID2")
    8686                      .dwattr $C$DW$613, DW_AT_TI_symbol_name("_QMGRREVID2")
    8687                      .dwattr $C$DW$613, DW_AT_data_member_location[DW_OP_plus_uconst 0x4001]
    8688                      .dwattr $C$DW$613, DW_AT_accessibility(DW_ACCESS_public)
    8689              $C$DW$614       .dwtag  DW_TAG_member
    8690                      .dwattr $C$DW$614, DW_AT_type(*$C$DW$T$25)
    8691                      .dwattr $C$DW$614, DW_AT_name("RSVD52")
    8692                      .dwattr $C$DW$614, DW_AT_TI_symbol_name("_RSVD52")
    8693                      .dwattr $C$DW$614, DW_AT_data_member_location[DW_OP_plus_uconst 0x4002]
TMS320C55x Assembler PC v4.4.1 Tue Oct 02 02:33:44 2018

Tools Copyright (c) 1996-2012 Texas Instruments Incorporated
csl_usb.asm                                                          PAGE  202

    8694                      .dwattr $C$DW$614, DW_AT_accessibility(DW_ACCESS_public)
    8695              $C$DW$615       .dwtag  DW_TAG_member
    8696                      .dwattr $C$DW$615, DW_AT_type(*$C$DW$T$20)
    8697                      .dwattr $C$DW$615, DW_AT_name("DIVERSION1")
    8698                      .dwattr $C$DW$615, DW_AT_TI_symbol_name("_DIVERSION1")
    8699                      .dwattr $C$DW$615, DW_AT_data_member_location[DW_OP_plus_uconst 0x4008]
    8700                      .dwattr $C$DW$615, DW_AT_accessibility(DW_ACCESS_public)
    8701              $C$DW$616       .dwtag  DW_TAG_member
    8702                      .dwattr $C$DW$616, DW_AT_type(*$C$DW$T$20)
    8703                      .dwattr $C$DW$616, DW_AT_name("DIVERSION2")
    8704                      .dwattr $C$DW$616, DW_AT_TI_symbol_name("_DIVERSION2")
    8705                      .dwattr $C$DW$616, DW_AT_data_member_location[DW_OP_plus_uconst 0x4009]
    8706                      .dwattr $C$DW$616, DW_AT_accessibility(DW_ACCESS_public)
    8707              $C$DW$617       .dwtag  DW_TAG_member
    8708                      .dwattr $C$DW$617, DW_AT_type(*$C$DW$T$53)
    8709                      .dwattr $C$DW$617, DW_AT_name("RSVD53")
    8710                      .dwattr $C$DW$617, DW_AT_TI_symbol_name("_RSVD53")
    8711                      .dwattr $C$DW$617, DW_AT_data_member_location[DW_OP_plus_uconst 0x400a]
    8712                      .dwattr $C$DW$617, DW_AT_accessibility(DW_ACCESS_public)
    8713              $C$DW$618       .dwtag  DW_TAG_member
    8714                      .dwattr $C$DW$618, DW_AT_type(*$C$DW$T$20)
    8715                      .dwattr $C$DW$618, DW_AT_name("FDBSC0")
    8716                      .dwattr $C$DW$618, DW_AT_TI_symbol_name("_FDBSC0")
    8717                      .dwattr $C$DW$618, DW_AT_data_member_location[DW_OP_plus_uconst 0x4020]
    8718                      .dwattr $C$DW$618, DW_AT_accessibility(DW_ACCESS_public)
    8719              $C$DW$619       .dwtag  DW_TAG_member
    8720                      .dwattr $C$DW$619, DW_AT_type(*$C$DW$T$20)
    8721                      .dwattr $C$DW$619, DW_AT_name("FDBSC1")
    8722                      .dwattr $C$DW$619, DW_AT_TI_symbol_name("_FDBSC1")
    8723                      .dwattr $C$DW$619, DW_AT_data_member_location[DW_OP_plus_uconst 0x4021]
    8724                      .dwattr $C$DW$619, DW_AT_accessibility(DW_ACCESS_public)
    8725              $C$DW$620       .dwtag  DW_TAG_member
    8726                      .dwattr $C$DW$620, DW_AT_type(*$C$DW$T$21)
    8727                      .dwattr $C$DW$620, DW_AT_name("RSVD54")
    8728                      .dwattr $C$DW$620, DW_AT_TI_symbol_name("_RSVD54")
    8729                      .dwattr $C$DW$620, DW_AT_data_member_location[DW_OP_plus_uconst 0x4022]
    8730                      .dwattr $C$DW$620, DW_AT_accessibility(DW_ACCESS_public)
    8731              $C$DW$621       .dwtag  DW_TAG_member
    8732                      .dwattr $C$DW$621, DW_AT_type(*$C$DW$T$20)
    8733                      .dwattr $C$DW$621, DW_AT_name("FDBSC2")
    8734                      .dwattr $C$DW$621, DW_AT_TI_symbol_name("_FDBSC2")
    8735                      .dwattr $C$DW$621, DW_AT_data_member_location[DW_OP_plus_uconst 0x4024]
    8736                      .dwattr $C$DW$621, DW_AT_accessibility(DW_ACCESS_public)
    8737              $C$DW$622       .dwtag  DW_TAG_member
    8738                      .dwattr $C$DW$622, DW_AT_type(*$C$DW$T$20)
    8739                      .dwattr $C$DW$622, DW_AT_name("FDBSC3")
    8740                      .dwattr $C$DW$622, DW_AT_TI_symbol_name("_FDBSC3")
    8741                      .dwattr $C$DW$622, DW_AT_data_member_location[DW_OP_plus_uconst 0x4025]
    8742                      .dwattr $C$DW$622, DW_AT_accessibility(DW_ACCESS_public)
    8743              $C$DW$623       .dwtag  DW_TAG_member
    8744                      .dwattr $C$DW$623, DW_AT_type(*$C$DW$T$21)
    8745                      .dwattr $C$DW$623, DW_AT_name("RSVD55")
    8746                      .dwattr $C$DW$623, DW_AT_TI_symbol_name("_RSVD55")
    8747                      .dwattr $C$DW$623, DW_AT_data_member_location[DW_OP_plus_uconst 0x4026]
    8748                      .dwattr $C$DW$623, DW_AT_accessibility(DW_ACCESS_public)
TMS320C55x Assembler PC v4.4.1 Tue Oct 02 02:33:44 2018

Tools Copyright (c) 1996-2012 Texas Instruments Incorporated
csl_usb.asm                                                          PAGE  203

    8749              $C$DW$624       .dwtag  DW_TAG_member
    8750                      .dwattr $C$DW$624, DW_AT_type(*$C$DW$T$20)
    8751                      .dwattr $C$DW$624, DW_AT_name("FDBSC4")
    8752                      .dwattr $C$DW$624, DW_AT_TI_symbol_name("_FDBSC4")
    8753                      .dwattr $C$DW$624, DW_AT_data_member_location[DW_OP_plus_uconst 0x4028]
    8754                      .dwattr $C$DW$624, DW_AT_accessibility(DW_ACCESS_public)
    8755              $C$DW$625       .dwtag  DW_TAG_member
    8756                      .dwattr $C$DW$625, DW_AT_type(*$C$DW$T$20)
    8757                      .dwattr $C$DW$625, DW_AT_name("FDBSC5")
    8758                      .dwattr $C$DW$625, DW_AT_TI_symbol_name("_FDBSC5")
    8759                      .dwattr $C$DW$625, DW_AT_data_member_location[DW_OP_plus_uconst 0x4029]
    8760                      .dwattr $C$DW$625, DW_AT_accessibility(DW_ACCESS_public)
    8761              $C$DW$626       .dwtag  DW_TAG_member
    8762                      .dwattr $C$DW$626, DW_AT_type(*$C$DW$T$21)
    8763                      .dwattr $C$DW$626, DW_AT_name("RSVD56")
    8764                      .dwattr $C$DW$626, DW_AT_TI_symbol_name("_RSVD56")
    8765                      .dwattr $C$DW$626, DW_AT_data_member_location[DW_OP_plus_uconst 0x402a]
    8766                      .dwattr $C$DW$626, DW_AT_accessibility(DW_ACCESS_public)
    8767              $C$DW$627       .dwtag  DW_TAG_member
    8768                      .dwattr $C$DW$627, DW_AT_type(*$C$DW$T$20)
    8769                      .dwattr $C$DW$627, DW_AT_name("FDBSC6")
    8770                      .dwattr $C$DW$627, DW_AT_TI_symbol_name("_FDBSC6")
    8771                      .dwattr $C$DW$627, DW_AT_data_member_location[DW_OP_plus_uconst 0x402c]
    8772                      .dwattr $C$DW$627, DW_AT_accessibility(DW_ACCESS_public)
    8773              $C$DW$628       .dwtag  DW_TAG_member
    8774                      .dwattr $C$DW$628, DW_AT_type(*$C$DW$T$20)
    8775                      .dwattr $C$DW$628, DW_AT_name("FDBSC7")
    8776                      .dwattr $C$DW$628, DW_AT_TI_symbol_name("_FDBSC7")
    8777                      .dwattr $C$DW$628, DW_AT_data_member_location[DW_OP_plus_uconst 0x402d]
    8778                      .dwattr $C$DW$628, DW_AT_accessibility(DW_ACCESS_public)
    8779              $C$DW$629       .dwtag  DW_TAG_member
    8780                      .dwattr $C$DW$629, DW_AT_type(*$C$DW$T$54)
    8781                      .dwattr $C$DW$629, DW_AT_name("RSVD57")
    8782                      .dwattr $C$DW$629, DW_AT_TI_symbol_name("_RSVD57")
    8783                      .dwattr $C$DW$629, DW_AT_data_member_location[DW_OP_plus_uconst 0x402e]
    8784                      .dwattr $C$DW$629, DW_AT_accessibility(DW_ACCESS_public)
    8785              $C$DW$630       .dwtag  DW_TAG_member
    8786                      .dwattr $C$DW$630, DW_AT_type(*$C$DW$T$20)
    8787                      .dwattr $C$DW$630, DW_AT_name("LRAM0BASE1")
    8788                      .dwattr $C$DW$630, DW_AT_TI_symbol_name("_LRAM0BASE1")
    8789                      .dwattr $C$DW$630, DW_AT_data_member_location[DW_OP_plus_uconst 0x4080]
    8790                      .dwattr $C$DW$630, DW_AT_accessibility(DW_ACCESS_public)
    8791              $C$DW$631       .dwtag  DW_TAG_member
    8792                      .dwattr $C$DW$631, DW_AT_type(*$C$DW$T$20)
    8793                      .dwattr $C$DW$631, DW_AT_name("LRAM0BASE2")
    8794                      .dwattr $C$DW$631, DW_AT_TI_symbol_name("_LRAM0BASE2")
    8795                      .dwattr $C$DW$631, DW_AT_data_member_location[DW_OP_plus_uconst 0x4081]
    8796                      .dwattr $C$DW$631, DW_AT_accessibility(DW_ACCESS_public)
    8797              $C$DW$632       .dwtag  DW_TAG_member
    8798                      .dwattr $C$DW$632, DW_AT_type(*$C$DW$T$21)
    8799                      .dwattr $C$DW$632, DW_AT_name("RSVD58")
    8800                      .dwattr $C$DW$632, DW_AT_TI_symbol_name("_RSVD58")
    8801                      .dwattr $C$DW$632, DW_AT_data_member_location[DW_OP_plus_uconst 0x4082]
    8802                      .dwattr $C$DW$632, DW_AT_accessibility(DW_ACCESS_public)
    8803              $C$DW$633       .dwtag  DW_TAG_member
TMS320C55x Assembler PC v4.4.1 Tue Oct 02 02:33:44 2018

Tools Copyright (c) 1996-2012 Texas Instruments Incorporated
csl_usb.asm                                                          PAGE  204

    8804                      .dwattr $C$DW$633, DW_AT_type(*$C$DW$T$20)
    8805                      .dwattr $C$DW$633, DW_AT_name("LRAM0SIZE")
    8806                      .dwattr $C$DW$633, DW_AT_TI_symbol_name("_LRAM0SIZE")
    8807                      .dwattr $C$DW$633, DW_AT_data_member_location[DW_OP_plus_uconst 0x4084]
    8808                      .dwattr $C$DW$633, DW_AT_accessibility(DW_ACCESS_public)
    8809              $C$DW$634       .dwtag  DW_TAG_member
    8810                      .dwattr $C$DW$634, DW_AT_type(*$C$DW$T$33)
    8811                      .dwattr $C$DW$634, DW_AT_name("RSVD59")
    8812                      .dwattr $C$DW$634, DW_AT_TI_symbol_name("_RSVD59")
    8813                      .dwattr $C$DW$634, DW_AT_data_member_location[DW_OP_plus_uconst 0x4085]
    8814                      .dwattr $C$DW$634, DW_AT_accessibility(DW_ACCESS_public)
    8815              $C$DW$635       .dwtag  DW_TAG_member
    8816                      .dwattr $C$DW$635, DW_AT_type(*$C$DW$T$20)
    8817                      .dwattr $C$DW$635, DW_AT_name("LRAM1BASE1")
    8818                      .dwattr $C$DW$635, DW_AT_TI_symbol_name("_LRAM1BASE1")
    8819                      .dwattr $C$DW$635, DW_AT_data_member_location[DW_OP_plus_uconst 0x4088]
    8820                      .dwattr $C$DW$635, DW_AT_accessibility(DW_ACCESS_public)
    8821              $C$DW$636       .dwtag  DW_TAG_member
    8822                      .dwattr $C$DW$636, DW_AT_type(*$C$DW$T$20)
    8823                      .dwattr $C$DW$636, DW_AT_name("LRAM1BASE2")
    8824                      .dwattr $C$DW$636, DW_AT_TI_symbol_name("_LRAM1BASE2")
    8825                      .dwattr $C$DW$636, DW_AT_data_member_location[DW_OP_plus_uconst 0x4089]
    8826                      .dwattr $C$DW$636, DW_AT_accessibility(DW_ACCESS_public)
    8827              $C$DW$637       .dwtag  DW_TAG_member
    8828                      .dwattr $C$DW$637, DW_AT_type(*$C$DW$T$25)
    8829                      .dwattr $C$DW$637, DW_AT_name("RSVD60")
    8830                      .dwattr $C$DW$637, DW_AT_TI_symbol_name("_RSVD60")
    8831                      .dwattr $C$DW$637, DW_AT_data_member_location[DW_OP_plus_uconst 0x408a]
    8832                      .dwattr $C$DW$637, DW_AT_accessibility(DW_ACCESS_public)
    8833              $C$DW$638       .dwtag  DW_TAG_member
    8834                      .dwattr $C$DW$638, DW_AT_type(*$C$DW$T$20)
    8835                      .dwattr $C$DW$638, DW_AT_name("PEND0")
    8836                      .dwattr $C$DW$638, DW_AT_TI_symbol_name("_PEND0")
    8837                      .dwattr $C$DW$638, DW_AT_data_member_location[DW_OP_plus_uconst 0x4090]
    8838                      .dwattr $C$DW$638, DW_AT_accessibility(DW_ACCESS_public)
    8839              $C$DW$639       .dwtag  DW_TAG_member
    8840                      .dwattr $C$DW$639, DW_AT_type(*$C$DW$T$20)
    8841                      .dwattr $C$DW$639, DW_AT_name("PEND1")
    8842                      .dwattr $C$DW$639, DW_AT_TI_symbol_name("_PEND1")
    8843                      .dwattr $C$DW$639, DW_AT_data_member_location[DW_OP_plus_uconst 0x4091]
    8844                      .dwattr $C$DW$639, DW_AT_accessibility(DW_ACCESS_public)
    8845              $C$DW$640       .dwtag  DW_TAG_member
    8846                      .dwattr $C$DW$640, DW_AT_type(*$C$DW$T$21)
    8847                      .dwattr $C$DW$640, DW_AT_name("RSVD61")
    8848                      .dwattr $C$DW$640, DW_AT_TI_symbol_name("_RSVD61")
    8849                      .dwattr $C$DW$640, DW_AT_data_member_location[DW_OP_plus_uconst 0x4092]
    8850                      .dwattr $C$DW$640, DW_AT_accessibility(DW_ACCESS_public)
    8851              $C$DW$641       .dwtag  DW_TAG_member
    8852                      .dwattr $C$DW$641, DW_AT_type(*$C$DW$T$20)
    8853                      .dwattr $C$DW$641, DW_AT_name("PEND2")
    8854                      .dwattr $C$DW$641, DW_AT_TI_symbol_name("_PEND2")
    8855                      .dwattr $C$DW$641, DW_AT_data_member_location[DW_OP_plus_uconst 0x4094]
    8856                      .dwattr $C$DW$641, DW_AT_accessibility(DW_ACCESS_public)
    8857              $C$DW$642       .dwtag  DW_TAG_member
    8858                      .dwattr $C$DW$642, DW_AT_type(*$C$DW$T$20)
TMS320C55x Assembler PC v4.4.1 Tue Oct 02 02:33:44 2018

Tools Copyright (c) 1996-2012 Texas Instruments Incorporated
csl_usb.asm                                                          PAGE  205

    8859                      .dwattr $C$DW$642, DW_AT_name("PEND3")
    8860                      .dwattr $C$DW$642, DW_AT_TI_symbol_name("_PEND3")
    8861                      .dwattr $C$DW$642, DW_AT_data_member_location[DW_OP_plus_uconst 0x4095]
    8862                      .dwattr $C$DW$642, DW_AT_accessibility(DW_ACCESS_public)
    8863              $C$DW$643       .dwtag  DW_TAG_member
    8864                      .dwattr $C$DW$643, DW_AT_type(*$C$DW$T$21)
    8865                      .dwattr $C$DW$643, DW_AT_name("RSVD62")
    8866                      .dwattr $C$DW$643, DW_AT_TI_symbol_name("_RSVD62")
    8867                      .dwattr $C$DW$643, DW_AT_data_member_location[DW_OP_plus_uconst 0x4096]
    8868                      .dwattr $C$DW$643, DW_AT_accessibility(DW_ACCESS_public)
    8869              $C$DW$644       .dwtag  DW_TAG_member
    8870                      .dwattr $C$DW$644, DW_AT_type(*$C$DW$T$20)
    8871                      .dwattr $C$DW$644, DW_AT_name("PEND4")
    8872                      .dwattr $C$DW$644, DW_AT_TI_symbol_name("_PEND4")
    8873                      .dwattr $C$DW$644, DW_AT_data_member_location[DW_OP_plus_uconst 0x4098]
    8874                      .dwattr $C$DW$644, DW_AT_accessibility(DW_ACCESS_public)
    8875              $C$DW$645       .dwtag  DW_TAG_member
    8876                      .dwattr $C$DW$645, DW_AT_type(*$C$DW$T$20)
    8877                      .dwattr $C$DW$645, DW_AT_name("PEND5")
    8878                      .dwattr $C$DW$645, DW_AT_TI_symbol_name("_PEND5")
    8879                      .dwattr $C$DW$645, DW_AT_data_member_location[DW_OP_plus_uconst 0x4099]
    8880                      .dwattr $C$DW$645, DW_AT_accessibility(DW_ACCESS_public)
    8881              $C$DW$646       .dwtag  DW_TAG_member
    8882                      .dwattr $C$DW$646, DW_AT_type(*$C$DW$T$55)
    8883                      .dwattr $C$DW$646, DW_AT_name("RSVD64")
    8884                      .dwattr $C$DW$646, DW_AT_TI_symbol_name("_RSVD64")
    8885                      .dwattr $C$DW$646, DW_AT_data_member_location[DW_OP_plus_uconst 0x409a]
    8886                      .dwattr $C$DW$646, DW_AT_accessibility(DW_ACCESS_public)
    8887              $C$DW$647       .dwtag  DW_TAG_member
    8888                      .dwattr $C$DW$647, DW_AT_type(*$C$DW$T$57)
    8889                      .dwattr $C$DW$647, DW_AT_name("QMMEMREGR")
    8890                      .dwattr $C$DW$647, DW_AT_TI_symbol_name("_QMMEMREGR")
    8891                      .dwattr $C$DW$647, DW_AT_data_member_location[DW_OP_plus_uconst 0x5000]
    8892                      .dwattr $C$DW$647, DW_AT_accessibility(DW_ACCESS_public)
    8893              $C$DW$648       .dwtag  DW_TAG_member
    8894                      .dwattr $C$DW$648, DW_AT_type(*$C$DW$T$58)
    8895                      .dwattr $C$DW$648, DW_AT_name("RSVD66")
    8896                      .dwattr $C$DW$648, DW_AT_TI_symbol_name("_RSVD66")
    8897                      .dwattr $C$DW$648, DW_AT_data_member_location[DW_OP_plus_uconst 0x5100]
    8898                      .dwattr $C$DW$648, DW_AT_accessibility(DW_ACCESS_public)
    8899              $C$DW$649       .dwtag  DW_TAG_member
    8900                      .dwattr $C$DW$649, DW_AT_type(*$C$DW$T$60)
    8901                      .dwattr $C$DW$649, DW_AT_name("QMQN")
    8902                      .dwattr $C$DW$649, DW_AT_TI_symbol_name("_QMQN")
    8903                      .dwattr $C$DW$649, DW_AT_data_member_location[DW_OP_plus_uconst 0x6000]
    8904                      .dwattr $C$DW$649, DW_AT_accessibility(DW_ACCESS_public)
    8905              $C$DW$650       .dwtag  DW_TAG_member
    8906                      .dwattr $C$DW$650, DW_AT_type(*$C$DW$T$61)
    8907                      .dwattr $C$DW$650, DW_AT_name("RSVD68")
    8908                      .dwattr $C$DW$650, DW_AT_TI_symbol_name("_RSVD68")
    8909                      .dwattr $C$DW$650, DW_AT_data_member_location[DW_OP_plus_uconst 0x6400]
    8910                      .dwattr $C$DW$650, DW_AT_accessibility(DW_ACCESS_public)
    8911              $C$DW$651       .dwtag  DW_TAG_member
    8912                      .dwattr $C$DW$651, DW_AT_type(*$C$DW$T$63)
    8913                      .dwattr $C$DW$651, DW_AT_name("QMQNS")
TMS320C55x Assembler PC v4.4.1 Tue Oct 02 02:33:44 2018

Tools Copyright (c) 1996-2012 Texas Instruments Incorporated
csl_usb.asm                                                          PAGE  206

    8914                      .dwattr $C$DW$651, DW_AT_TI_symbol_name("_QMQNS")
    8915                      .dwattr $C$DW$651, DW_AT_data_member_location[DW_OP_plus_uconst 0x6800]
    8916                      .dwattr $C$DW$651, DW_AT_accessibility(DW_ACCESS_public)
    8917                      .dwendtag $C$DW$T$64
    8918              
    8919              $C$DW$T$130     .dwtag  DW_TAG_typedef, DW_AT_name("CSL_UsbRegs")
    8920                      .dwattr $C$DW$T$130, DW_AT_type(*$C$DW$T$64)
    8921                      .dwattr $C$DW$T$130, DW_AT_language(DW_LANG_C)
    8922              $C$DW$652       .dwtag  DW_TAG_TI_far_type
    8923                      .dwattr $C$DW$652, DW_AT_type(*$C$DW$T$130)
    8924              $C$DW$653       .dwtag  DW_TAG_TI_ioport_type
    8925                      .dwattr $C$DW$653, DW_AT_type(*$C$DW$652)
    8926              $C$DW$T$131     .dwtag  DW_TAG_volatile_type
    8927                      .dwattr $C$DW$T$131, DW_AT_type(*$C$DW$653)
    8928              $C$DW$T$132     .dwtag  DW_TAG_pointer_type
    8929                      .dwattr $C$DW$T$132, DW_AT_type(*$C$DW$T$131)
    8930                      .dwattr $C$DW$T$132, DW_AT_address_class(0x10)
    8931              $C$DW$T$133     .dwtag  DW_TAG_typedef, DW_AT_name("CSL_UsbRegsOvly")
    8932                      .dwattr $C$DW$T$133, DW_AT_type(*$C$DW$T$132)
    8933                      .dwattr $C$DW$T$133, DW_AT_language(DW_LANG_C)
    8934              
    8935              $C$DW$T$66      .dwtag  DW_TAG_structure_type
    8936                      .dwattr $C$DW$T$66, DW_AT_byte_size(0x48)
    8937              $C$DW$654       .dwtag  DW_TAG_member
    8938                      .dwattr $C$DW$654, DW_AT_type(*$C$DW$T$20)
    8939                      .dwattr $C$DW$654, DW_AT_name("EBSR")
    8940                      .dwattr $C$DW$654, DW_AT_TI_symbol_name("_EBSR")
    8941                      .dwattr $C$DW$654, DW_AT_data_member_location[DW_OP_plus_uconst 0x0]
    8942                      .dwattr $C$DW$654, DW_AT_accessibility(DW_ACCESS_public)
    8943              $C$DW$655       .dwtag  DW_TAG_member
    8944                      .dwattr $C$DW$655, DW_AT_type(*$C$DW$T$20)
    8945                      .dwattr $C$DW$655, DW_AT_name("RSVD0")
    8946                      .dwattr $C$DW$655, DW_AT_TI_symbol_name("_RSVD0")
    8947                      .dwattr $C$DW$655, DW_AT_data_member_location[DW_OP_plus_uconst 0x1]
    8948                      .dwattr $C$DW$655, DW_AT_accessibility(DW_ACCESS_public)
    8949              $C$DW$656       .dwtag  DW_TAG_member
    8950                      .dwattr $C$DW$656, DW_AT_type(*$C$DW$T$20)
    8951                      .dwattr $C$DW$656, DW_AT_name("PCGCR1")
    8952                      .dwattr $C$DW$656, DW_AT_TI_symbol_name("_PCGCR1")
    8953                      .dwattr $C$DW$656, DW_AT_data_member_location[DW_OP_plus_uconst 0x2]
    8954                      .dwattr $C$DW$656, DW_AT_accessibility(DW_ACCESS_public)
    8955              $C$DW$657       .dwtag  DW_TAG_member
    8956                      .dwattr $C$DW$657, DW_AT_type(*$C$DW$T$20)
    8957                      .dwattr $C$DW$657, DW_AT_name("PCGCR2")
    8958                      .dwattr $C$DW$657, DW_AT_TI_symbol_name("_PCGCR2")
    8959                      .dwattr $C$DW$657, DW_AT_data_member_location[DW_OP_plus_uconst 0x3]
    8960                      .dwattr $C$DW$657, DW_AT_accessibility(DW_ACCESS_public)
    8961              $C$DW$658       .dwtag  DW_TAG_member
    8962                      .dwattr $C$DW$658, DW_AT_type(*$C$DW$T$20)
    8963                      .dwattr $C$DW$658, DW_AT_name("PSRCR")
    8964                      .dwattr $C$DW$658, DW_AT_TI_symbol_name("_PSRCR")
    8965                      .dwattr $C$DW$658, DW_AT_data_member_location[DW_OP_plus_uconst 0x4]
    8966                      .dwattr $C$DW$658, DW_AT_accessibility(DW_ACCESS_public)
    8967              $C$DW$659       .dwtag  DW_TAG_member
    8968                      .dwattr $C$DW$659, DW_AT_type(*$C$DW$T$20)
TMS320C55x Assembler PC v4.4.1 Tue Oct 02 02:33:44 2018

Tools Copyright (c) 1996-2012 Texas Instruments Incorporated
csl_usb.asm                                                          PAGE  207

    8969                      .dwattr $C$DW$659, DW_AT_name("PRCR")
    8970                      .dwattr $C$DW$659, DW_AT_TI_symbol_name("_PRCR")
    8971                      .dwattr $C$DW$659, DW_AT_data_member_location[DW_OP_plus_uconst 0x5]
    8972                      .dwattr $C$DW$659, DW_AT_accessibility(DW_ACCESS_public)
    8973              $C$DW$660       .dwtag  DW_TAG_member
    8974                      .dwattr $C$DW$660, DW_AT_type(*$C$DW$T$26)
    8975                      .dwattr $C$DW$660, DW_AT_name("RSVD1")
    8976                      .dwattr $C$DW$660, DW_AT_TI_symbol_name("_RSVD1")
    8977                      .dwattr $C$DW$660, DW_AT_data_member_location[DW_OP_plus_uconst 0x6]
    8978                      .dwattr $C$DW$660, DW_AT_accessibility(DW_ACCESS_public)
    8979              $C$DW$661       .dwtag  DW_TAG_member
    8980                      .dwattr $C$DW$661, DW_AT_type(*$C$DW$T$20)
    8981                      .dwattr $C$DW$661, DW_AT_name("TIAFR")
    8982                      .dwattr $C$DW$661, DW_AT_TI_symbol_name("_TIAFR")
    8983                      .dwattr $C$DW$661, DW_AT_data_member_location[DW_OP_plus_uconst 0x14]
    8984                      .dwattr $C$DW$661, DW_AT_accessibility(DW_ACCESS_public)
    8985              $C$DW$662       .dwtag  DW_TAG_member
    8986                      .dwattr $C$DW$662, DW_AT_type(*$C$DW$T$20)
    8987                      .dwattr $C$DW$662, DW_AT_name("RSVD2")
    8988                      .dwattr $C$DW$662, DW_AT_TI_symbol_name("_RSVD2")
    8989                      .dwattr $C$DW$662, DW_AT_data_member_location[DW_OP_plus_uconst 0x15]
    8990                      .dwattr $C$DW$662, DW_AT_accessibility(DW_ACCESS_public)
    8991              $C$DW$663       .dwtag  DW_TAG_member
    8992                      .dwattr $C$DW$663, DW_AT_type(*$C$DW$T$20)
    8993                      .dwattr $C$DW$663, DW_AT_name("ODSCR")
    8994                      .dwattr $C$DW$663, DW_AT_TI_symbol_name("_ODSCR")
    8995                      .dwattr $C$DW$663, DW_AT_data_member_location[DW_OP_plus_uconst 0x16]
    8996                      .dwattr $C$DW$663, DW_AT_accessibility(DW_ACCESS_public)
    8997              $C$DW$664       .dwtag  DW_TAG_member
    8998                      .dwattr $C$DW$664, DW_AT_type(*$C$DW$T$20)
    8999                      .dwattr $C$DW$664, DW_AT_name("PDINHIBR1")
    9000                      .dwattr $C$DW$664, DW_AT_TI_symbol_name("_PDINHIBR1")
    9001                      .dwattr $C$DW$664, DW_AT_data_member_location[DW_OP_plus_uconst 0x17]
    9002                      .dwattr $C$DW$664, DW_AT_accessibility(DW_ACCESS_public)
    9003              $C$DW$665       .dwtag  DW_TAG_member
    9004                      .dwattr $C$DW$665, DW_AT_type(*$C$DW$T$20)
    9005                      .dwattr $C$DW$665, DW_AT_name("PDINHIBR2")
    9006                      .dwattr $C$DW$665, DW_AT_TI_symbol_name("_PDINHIBR2")
    9007                      .dwattr $C$DW$665, DW_AT_data_member_location[DW_OP_plus_uconst 0x18]
    9008                      .dwattr $C$DW$665, DW_AT_accessibility(DW_ACCESS_public)
    9009              $C$DW$666       .dwtag  DW_TAG_member
    9010                      .dwattr $C$DW$666, DW_AT_type(*$C$DW$T$20)
    9011                      .dwattr $C$DW$666, DW_AT_name("PDINHIBR3")
    9012                      .dwattr $C$DW$666, DW_AT_TI_symbol_name("_PDINHIBR3")
    9013                      .dwattr $C$DW$666, DW_AT_data_member_location[DW_OP_plus_uconst 0x19]
    9014                      .dwattr $C$DW$666, DW_AT_accessibility(DW_ACCESS_public)
    9015              $C$DW$667       .dwtag  DW_TAG_member
    9016                      .dwattr $C$DW$667, DW_AT_type(*$C$DW$T$20)
    9017                      .dwattr $C$DW$667, DW_AT_name("DMA0CESR1")
    9018                      .dwattr $C$DW$667, DW_AT_TI_symbol_name("_DMA0CESR1")
    9019                      .dwattr $C$DW$667, DW_AT_data_member_location[DW_OP_plus_uconst 0x1a]
    9020                      .dwattr $C$DW$667, DW_AT_accessibility(DW_ACCESS_public)
    9021              $C$DW$668       .dwtag  DW_TAG_member
    9022                      .dwattr $C$DW$668, DW_AT_type(*$C$DW$T$20)
    9023                      .dwattr $C$DW$668, DW_AT_name("DMA0CESR2")
TMS320C55x Assembler PC v4.4.1 Tue Oct 02 02:33:44 2018

Tools Copyright (c) 1996-2012 Texas Instruments Incorporated
csl_usb.asm                                                          PAGE  208

    9024                      .dwattr $C$DW$668, DW_AT_TI_symbol_name("_DMA0CESR2")
    9025                      .dwattr $C$DW$668, DW_AT_data_member_location[DW_OP_plus_uconst 0x1b]
    9026                      .dwattr $C$DW$668, DW_AT_accessibility(DW_ACCESS_public)
    9027              $C$DW$669       .dwtag  DW_TAG_member
    9028                      .dwattr $C$DW$669, DW_AT_type(*$C$DW$T$20)
    9029                      .dwattr $C$DW$669, DW_AT_name("DMA1CESR1")
    9030                      .dwattr $C$DW$669, DW_AT_TI_symbol_name("_DMA1CESR1")
    9031                      .dwattr $C$DW$669, DW_AT_data_member_location[DW_OP_plus_uconst 0x1c]
    9032                      .dwattr $C$DW$669, DW_AT_accessibility(DW_ACCESS_public)
    9033              $C$DW$670       .dwtag  DW_TAG_member
    9034                      .dwattr $C$DW$670, DW_AT_type(*$C$DW$T$20)
    9035                      .dwattr $C$DW$670, DW_AT_name("DMA1CESR2")
    9036                      .dwattr $C$DW$670, DW_AT_TI_symbol_name("_DMA1CESR2")
    9037                      .dwattr $C$DW$670, DW_AT_data_member_location[DW_OP_plus_uconst 0x1d]
    9038                      .dwattr $C$DW$670, DW_AT_accessibility(DW_ACCESS_public)
    9039              $C$DW$671       .dwtag  DW_TAG_member
    9040                      .dwattr $C$DW$671, DW_AT_type(*$C$DW$T$20)
    9041                      .dwattr $C$DW$671, DW_AT_name("SDRAMCCR")
    9042                      .dwattr $C$DW$671, DW_AT_TI_symbol_name("_SDRAMCCR")
    9043                      .dwattr $C$DW$671, DW_AT_data_member_location[DW_OP_plus_uconst 0x1e]
    9044                      .dwattr $C$DW$671, DW_AT_accessibility(DW_ACCESS_public)
    9045              $C$DW$672       .dwtag  DW_TAG_member
    9046                      .dwattr $C$DW$672, DW_AT_type(*$C$DW$T$20)
    9047                      .dwattr $C$DW$672, DW_AT_name("CCR2")
    9048                      .dwattr $C$DW$672, DW_AT_TI_symbol_name("_CCR2")
    9049                      .dwattr $C$DW$672, DW_AT_data_member_location[DW_OP_plus_uconst 0x1f]
    9050                      .dwattr $C$DW$672, DW_AT_accessibility(DW_ACCESS_public)
    9051              $C$DW$673       .dwtag  DW_TAG_member
    9052                      .dwattr $C$DW$673, DW_AT_type(*$C$DW$T$20)
    9053                      .dwattr $C$DW$673, DW_AT_name("CGCR1")
    9054                      .dwattr $C$DW$673, DW_AT_TI_symbol_name("_CGCR1")
    9055                      .dwattr $C$DW$673, DW_AT_data_member_location[DW_OP_plus_uconst 0x20]
    9056                      .dwattr $C$DW$673, DW_AT_accessibility(DW_ACCESS_public)
    9057              $C$DW$674       .dwtag  DW_TAG_member
    9058                      .dwattr $C$DW$674, DW_AT_type(*$C$DW$T$20)
    9059                      .dwattr $C$DW$674, DW_AT_name("CGICR")
    9060                      .dwattr $C$DW$674, DW_AT_TI_symbol_name("_CGICR")
    9061                      .dwattr $C$DW$674, DW_AT_data_member_location[DW_OP_plus_uconst 0x21]
    9062                      .dwattr $C$DW$674, DW_AT_accessibility(DW_ACCESS_public)
    9063              $C$DW$675       .dwtag  DW_TAG_member
    9064                      .dwattr $C$DW$675, DW_AT_type(*$C$DW$T$20)
    9065                      .dwattr $C$DW$675, DW_AT_name("CGCR2")
    9066                      .dwattr $C$DW$675, DW_AT_TI_symbol_name("_CGCR2")
    9067                      .dwattr $C$DW$675, DW_AT_data_member_location[DW_OP_plus_uconst 0x22]
    9068                      .dwattr $C$DW$675, DW_AT_accessibility(DW_ACCESS_public)
    9069              $C$DW$676       .dwtag  DW_TAG_member
    9070                      .dwattr $C$DW$676, DW_AT_type(*$C$DW$T$20)
    9071                      .dwattr $C$DW$676, DW_AT_name("CGOCR")
    9072                      .dwattr $C$DW$676, DW_AT_TI_symbol_name("_CGOCR")
    9073                      .dwattr $C$DW$676, DW_AT_data_member_location[DW_OP_plus_uconst 0x23]
    9074                      .dwattr $C$DW$676, DW_AT_accessibility(DW_ACCESS_public)
    9075              $C$DW$677       .dwtag  DW_TAG_member
    9076                      .dwattr $C$DW$677, DW_AT_type(*$C$DW$T$20)
    9077                      .dwattr $C$DW$677, DW_AT_name("CCSSR")
    9078                      .dwattr $C$DW$677, DW_AT_TI_symbol_name("_CCSSR")
TMS320C55x Assembler PC v4.4.1 Tue Oct 02 02:33:44 2018

Tools Copyright (c) 1996-2012 Texas Instruments Incorporated
csl_usb.asm                                                          PAGE  209

    9079                      .dwattr $C$DW$677, DW_AT_data_member_location[DW_OP_plus_uconst 0x24]
    9080                      .dwattr $C$DW$677, DW_AT_accessibility(DW_ACCESS_public)
    9081              $C$DW$678       .dwtag  DW_TAG_member
    9082                      .dwattr $C$DW$678, DW_AT_type(*$C$DW$T$20)
    9083                      .dwattr $C$DW$678, DW_AT_name("RSVD3")
    9084                      .dwattr $C$DW$678, DW_AT_TI_symbol_name("_RSVD3")
    9085                      .dwattr $C$DW$678, DW_AT_data_member_location[DW_OP_plus_uconst 0x25]
    9086                      .dwattr $C$DW$678, DW_AT_accessibility(DW_ACCESS_public)
    9087              $C$DW$679       .dwtag  DW_TAG_member
    9088                      .dwattr $C$DW$679, DW_AT_type(*$C$DW$T$20)
    9089                      .dwattr $C$DW$679, DW_AT_name("ECDR")
    9090                      .dwattr $C$DW$679, DW_AT_TI_symbol_name("_ECDR")
    9091                      .dwattr $C$DW$679, DW_AT_data_member_location[DW_OP_plus_uconst 0x26]
    9092                      .dwattr $C$DW$679, DW_AT_accessibility(DW_ACCESS_public)
    9093              $C$DW$680       .dwtag  DW_TAG_member
    9094                      .dwattr $C$DW$680, DW_AT_type(*$C$DW$T$20)
    9095                      .dwattr $C$DW$680, DW_AT_name("RSVD4")
    9096                      .dwattr $C$DW$680, DW_AT_TI_symbol_name("_RSVD4")
    9097                      .dwattr $C$DW$680, DW_AT_data_member_location[DW_OP_plus_uconst 0x27]
    9098                      .dwattr $C$DW$680, DW_AT_accessibility(DW_ACCESS_public)
    9099              $C$DW$681       .dwtag  DW_TAG_member
    9100                      .dwattr $C$DW$681, DW_AT_type(*$C$DW$T$20)
    9101                      .dwattr $C$DW$681, DW_AT_name("RAMSLPMDCNTLR1")
    9102                      .dwattr $C$DW$681, DW_AT_TI_symbol_name("_RAMSLPMDCNTLR1")
    9103                      .dwattr $C$DW$681, DW_AT_data_member_location[DW_OP_plus_uconst 0x28]
    9104                      .dwattr $C$DW$681, DW_AT_accessibility(DW_ACCESS_public)
    9105              $C$DW$682       .dwtag  DW_TAG_member
    9106                      .dwattr $C$DW$682, DW_AT_type(*$C$DW$T$20)
    9107                      .dwattr $C$DW$682, DW_AT_name("RSVD5")
    9108                      .dwattr $C$DW$682, DW_AT_TI_symbol_name("_RSVD5")
    9109                      .dwattr $C$DW$682, DW_AT_data_member_location[DW_OP_plus_uconst 0x29]
    9110                      .dwattr $C$DW$682, DW_AT_accessibility(DW_ACCESS_public)
    9111              $C$DW$683       .dwtag  DW_TAG_member
    9112                      .dwattr $C$DW$683, DW_AT_type(*$C$DW$T$20)
    9113                      .dwattr $C$DW$683, DW_AT_name("RAMSLPMDCNTLR2")
    9114                      .dwattr $C$DW$683, DW_AT_TI_symbol_name("_RAMSLPMDCNTLR2")
    9115                      .dwattr $C$DW$683, DW_AT_data_member_location[DW_OP_plus_uconst 0x2a]
    9116                      .dwattr $C$DW$683, DW_AT_accessibility(DW_ACCESS_public)
    9117              $C$DW$684       .dwtag  DW_TAG_member
    9118                      .dwattr $C$DW$684, DW_AT_type(*$C$DW$T$20)
    9119                      .dwattr $C$DW$684, DW_AT_name("RAMSLPMDCNTLR3")
    9120                      .dwattr $C$DW$684, DW_AT_TI_symbol_name("_RAMSLPMDCNTLR3")
    9121                      .dwattr $C$DW$684, DW_AT_data_member_location[DW_OP_plus_uconst 0x2b]
    9122                      .dwattr $C$DW$684, DW_AT_accessibility(DW_ACCESS_public)
    9123              $C$DW$685       .dwtag  DW_TAG_member
    9124                      .dwattr $C$DW$685, DW_AT_type(*$C$DW$T$20)
    9125                      .dwattr $C$DW$685, DW_AT_name("RAMSLPMDCNTLR4")
    9126                      .dwattr $C$DW$685, DW_AT_TI_symbol_name("_RAMSLPMDCNTLR4")
    9127                      .dwattr $C$DW$685, DW_AT_data_member_location[DW_OP_plus_uconst 0x2c]
    9128                      .dwattr $C$DW$685, DW_AT_accessibility(DW_ACCESS_public)
    9129              $C$DW$686       .dwtag  DW_TAG_member
    9130                      .dwattr $C$DW$686, DW_AT_type(*$C$DW$T$20)
    9131                      .dwattr $C$DW$686, DW_AT_name("RAMSLPMDCNTLR5")
    9132                      .dwattr $C$DW$686, DW_AT_TI_symbol_name("_RAMSLPMDCNTLR5")
    9133                      .dwattr $C$DW$686, DW_AT_data_member_location[DW_OP_plus_uconst 0x2d]
TMS320C55x Assembler PC v4.4.1 Tue Oct 02 02:33:44 2018

Tools Copyright (c) 1996-2012 Texas Instruments Incorporated
csl_usb.asm                                                          PAGE  210

    9134                      .dwattr $C$DW$686, DW_AT_accessibility(DW_ACCESS_public)
    9135              $C$DW$687       .dwtag  DW_TAG_member
    9136                      .dwattr $C$DW$687, DW_AT_type(*$C$DW$T$21)
    9137                      .dwattr $C$DW$687, DW_AT_name("RSVD6")
    9138                      .dwattr $C$DW$687, DW_AT_TI_symbol_name("_RSVD6")
    9139                      .dwattr $C$DW$687, DW_AT_data_member_location[DW_OP_plus_uconst 0x2e]
    9140                      .dwattr $C$DW$687, DW_AT_accessibility(DW_ACCESS_public)
    9141              $C$DW$688       .dwtag  DW_TAG_member
    9142                      .dwattr $C$DW$688, DW_AT_type(*$C$DW$T$20)
    9143                      .dwattr $C$DW$688, DW_AT_name("DMAIFR")
    9144                      .dwattr $C$DW$688, DW_AT_TI_symbol_name("_DMAIFR")
    9145                      .dwattr $C$DW$688, DW_AT_data_member_location[DW_OP_plus_uconst 0x30]
    9146                      .dwattr $C$DW$688, DW_AT_accessibility(DW_ACCESS_public)
    9147              $C$DW$689       .dwtag  DW_TAG_member
    9148                      .dwattr $C$DW$689, DW_AT_type(*$C$DW$T$20)
    9149                      .dwattr $C$DW$689, DW_AT_name("DMAIER")
    9150                      .dwattr $C$DW$689, DW_AT_TI_symbol_name("_DMAIER")
    9151                      .dwattr $C$DW$689, DW_AT_data_member_location[DW_OP_plus_uconst 0x31]
    9152                      .dwattr $C$DW$689, DW_AT_accessibility(DW_ACCESS_public)
    9153              $C$DW$690       .dwtag  DW_TAG_member
    9154                      .dwattr $C$DW$690, DW_AT_type(*$C$DW$T$20)
    9155                      .dwattr $C$DW$690, DW_AT_name("USBSCR")
    9156                      .dwattr $C$DW$690, DW_AT_TI_symbol_name("_USBSCR")
    9157                      .dwattr $C$DW$690, DW_AT_data_member_location[DW_OP_plus_uconst 0x32]
    9158                      .dwattr $C$DW$690, DW_AT_accessibility(DW_ACCESS_public)
    9159              $C$DW$691       .dwtag  DW_TAG_member
    9160                      .dwattr $C$DW$691, DW_AT_type(*$C$DW$T$20)
    9161                      .dwattr $C$DW$691, DW_AT_name("ESCR")
    9162                      .dwattr $C$DW$691, DW_AT_TI_symbol_name("_ESCR")
    9163                      .dwattr $C$DW$691, DW_AT_data_member_location[DW_OP_plus_uconst 0x33]
    9164                      .dwattr $C$DW$691, DW_AT_accessibility(DW_ACCESS_public)
    9165              $C$DW$692       .dwtag  DW_TAG_member
    9166                      .dwattr $C$DW$692, DW_AT_type(*$C$DW$T$21)
    9167                      .dwattr $C$DW$692, DW_AT_name("RSVD7")
    9168                      .dwattr $C$DW$692, DW_AT_TI_symbol_name("_RSVD7")
    9169                      .dwattr $C$DW$692, DW_AT_data_member_location[DW_OP_plus_uconst 0x34]
    9170                      .dwattr $C$DW$692, DW_AT_accessibility(DW_ACCESS_public)
    9171              $C$DW$693       .dwtag  DW_TAG_member
    9172                      .dwattr $C$DW$693, DW_AT_type(*$C$DW$T$20)
    9173                      .dwattr $C$DW$693, DW_AT_name("DMA2CESR1")
    9174                      .dwattr $C$DW$693, DW_AT_TI_symbol_name("_DMA2CESR1")
    9175                      .dwattr $C$DW$693, DW_AT_data_member_location[DW_OP_plus_uconst 0x36]
    9176                      .dwattr $C$DW$693, DW_AT_accessibility(DW_ACCESS_public)
    9177              $C$DW$694       .dwtag  DW_TAG_member
    9178                      .dwattr $C$DW$694, DW_AT_type(*$C$DW$T$20)
    9179                      .dwattr $C$DW$694, DW_AT_name("DMA2CESR2")
    9180                      .dwattr $C$DW$694, DW_AT_TI_symbol_name("_DMA2CESR2")
    9181                      .dwattr $C$DW$694, DW_AT_data_member_location[DW_OP_plus_uconst 0x37]
    9182                      .dwattr $C$DW$694, DW_AT_accessibility(DW_ACCESS_public)
    9183              $C$DW$695       .dwtag  DW_TAG_member
    9184                      .dwattr $C$DW$695, DW_AT_type(*$C$DW$T$20)
    9185                      .dwattr $C$DW$695, DW_AT_name("DMA3CESR1")
    9186                      .dwattr $C$DW$695, DW_AT_TI_symbol_name("_DMA3CESR1")
    9187                      .dwattr $C$DW$695, DW_AT_data_member_location[DW_OP_plus_uconst 0x38]
    9188                      .dwattr $C$DW$695, DW_AT_accessibility(DW_ACCESS_public)
TMS320C55x Assembler PC v4.4.1 Tue Oct 02 02:33:44 2018

Tools Copyright (c) 1996-2012 Texas Instruments Incorporated
csl_usb.asm                                                          PAGE  211

    9189              $C$DW$696       .dwtag  DW_TAG_member
    9190                      .dwattr $C$DW$696, DW_AT_type(*$C$DW$T$20)
    9191                      .dwattr $C$DW$696, DW_AT_name("DMA3CESR2")
    9192                      .dwattr $C$DW$696, DW_AT_TI_symbol_name("_DMA3CESR2")
    9193                      .dwattr $C$DW$696, DW_AT_data_member_location[DW_OP_plus_uconst 0x39]
    9194                      .dwattr $C$DW$696, DW_AT_accessibility(DW_ACCESS_public)
    9195              $C$DW$697       .dwtag  DW_TAG_member
    9196                      .dwattr $C$DW$697, DW_AT_type(*$C$DW$T$20)
    9197                      .dwattr $C$DW$697, DW_AT_name("CLKSTOP")
    9198                      .dwattr $C$DW$697, DW_AT_TI_symbol_name("_CLKSTOP")
    9199                      .dwattr $C$DW$697, DW_AT_data_member_location[DW_OP_plus_uconst 0x3a]
    9200                      .dwattr $C$DW$697, DW_AT_accessibility(DW_ACCESS_public)
    9201              $C$DW$698       .dwtag  DW_TAG_member
    9202                      .dwattr $C$DW$698, DW_AT_type(*$C$DW$T$65)
    9203                      .dwattr $C$DW$698, DW_AT_name("RSVD8")
    9204                      .dwattr $C$DW$698, DW_AT_TI_symbol_name("_RSVD8")
    9205                      .dwattr $C$DW$698, DW_AT_data_member_location[DW_OP_plus_uconst 0x3b]
    9206                      .dwattr $C$DW$698, DW_AT_accessibility(DW_ACCESS_public)
    9207              $C$DW$699       .dwtag  DW_TAG_member
    9208                      .dwattr $C$DW$699, DW_AT_type(*$C$DW$T$20)
    9209                      .dwattr $C$DW$699, DW_AT_name("DIEIDR0")
    9210                      .dwattr $C$DW$699, DW_AT_TI_symbol_name("_DIEIDR0")
    9211                      .dwattr $C$DW$699, DW_AT_data_member_location[DW_OP_plus_uconst 0x40]
    9212                      .dwattr $C$DW$699, DW_AT_accessibility(DW_ACCESS_public)
    9213              $C$DW$700       .dwtag  DW_TAG_member
    9214                      .dwattr $C$DW$700, DW_AT_type(*$C$DW$T$20)
    9215                      .dwattr $C$DW$700, DW_AT_name("DIEIDR1")
    9216                      .dwattr $C$DW$700, DW_AT_TI_symbol_name("_DIEIDR1")
    9217                      .dwattr $C$DW$700, DW_AT_data_member_location[DW_OP_plus_uconst 0x41]
    9218                      .dwattr $C$DW$700, DW_AT_accessibility(DW_ACCESS_public)
    9219              $C$DW$701       .dwtag  DW_TAG_member
    9220                      .dwattr $C$DW$701, DW_AT_type(*$C$DW$T$20)
    9221                      .dwattr $C$DW$701, DW_AT_name("DIEIDR2")
    9222                      .dwattr $C$DW$701, DW_AT_TI_symbol_name("_DIEIDR2")
    9223                      .dwattr $C$DW$701, DW_AT_data_member_location[DW_OP_plus_uconst 0x42]
    9224                      .dwattr $C$DW$701, DW_AT_accessibility(DW_ACCESS_public)
    9225              $C$DW$702       .dwtag  DW_TAG_member
    9226                      .dwattr $C$DW$702, DW_AT_type(*$C$DW$T$20)
    9227                      .dwattr $C$DW$702, DW_AT_name("DIEIDR3")
    9228                      .dwattr $C$DW$702, DW_AT_TI_symbol_name("_DIEIDR3")
    9229                      .dwattr $C$DW$702, DW_AT_data_member_location[DW_OP_plus_uconst 0x43]
    9230                      .dwattr $C$DW$702, DW_AT_accessibility(DW_ACCESS_public)
    9231              $C$DW$703       .dwtag  DW_TAG_member
    9232                      .dwattr $C$DW$703, DW_AT_type(*$C$DW$T$20)
    9233                      .dwattr $C$DW$703, DW_AT_name("DIEIDR4")
    9234                      .dwattr $C$DW$703, DW_AT_TI_symbol_name("_DIEIDR4")
    9235                      .dwattr $C$DW$703, DW_AT_data_member_location[DW_OP_plus_uconst 0x44]
    9236                      .dwattr $C$DW$703, DW_AT_accessibility(DW_ACCESS_public)
    9237              $C$DW$704       .dwtag  DW_TAG_member
    9238                      .dwattr $C$DW$704, DW_AT_type(*$C$DW$T$20)
    9239                      .dwattr $C$DW$704, DW_AT_name("DIEIDR5")
    9240                      .dwattr $C$DW$704, DW_AT_TI_symbol_name("_DIEIDR5")
    9241                      .dwattr $C$DW$704, DW_AT_data_member_location[DW_OP_plus_uconst 0x45]
    9242                      .dwattr $C$DW$704, DW_AT_accessibility(DW_ACCESS_public)
    9243              $C$DW$705       .dwtag  DW_TAG_member
TMS320C55x Assembler PC v4.4.1 Tue Oct 02 02:33:44 2018

Tools Copyright (c) 1996-2012 Texas Instruments Incorporated
csl_usb.asm                                                          PAGE  212

    9244                      .dwattr $C$DW$705, DW_AT_type(*$C$DW$T$20)
    9245                      .dwattr $C$DW$705, DW_AT_name("DIEIDR6")
    9246                      .dwattr $C$DW$705, DW_AT_TI_symbol_name("_DIEIDR6")
    9247                      .dwattr $C$DW$705, DW_AT_data_member_location[DW_OP_plus_uconst 0x46]
    9248                      .dwattr $C$DW$705, DW_AT_accessibility(DW_ACCESS_public)
    9249              $C$DW$706       .dwtag  DW_TAG_member
    9250                      .dwattr $C$DW$706, DW_AT_type(*$C$DW$T$20)
    9251                      .dwattr $C$DW$706, DW_AT_name("DIEIDR7")
    9252                      .dwattr $C$DW$706, DW_AT_TI_symbol_name("_DIEIDR7")
    9253                      .dwattr $C$DW$706, DW_AT_data_member_location[DW_OP_plus_uconst 0x47]
    9254                      .dwattr $C$DW$706, DW_AT_accessibility(DW_ACCESS_public)
    9255                      .dwendtag $C$DW$T$66
    9256              
    9257              $C$DW$T$134     .dwtag  DW_TAG_typedef, DW_AT_name("CSL_SysRegs")
    9258                      .dwattr $C$DW$T$134, DW_AT_type(*$C$DW$T$66)
    9259                      .dwattr $C$DW$T$134, DW_AT_language(DW_LANG_C)
    9260              $C$DW$707       .dwtag  DW_TAG_TI_far_type
    9261                      .dwattr $C$DW$707, DW_AT_type(*$C$DW$T$134)
    9262              $C$DW$708       .dwtag  DW_TAG_TI_ioport_type
    9263                      .dwattr $C$DW$708, DW_AT_type(*$C$DW$707)
    9264              $C$DW$T$135     .dwtag  DW_TAG_volatile_type
    9265                      .dwattr $C$DW$T$135, DW_AT_type(*$C$DW$708)
    9266              $C$DW$T$136     .dwtag  DW_TAG_pointer_type
    9267                      .dwattr $C$DW$T$136, DW_AT_type(*$C$DW$T$135)
    9268                      .dwattr $C$DW$T$136, DW_AT_address_class(0x10)
    9269              $C$DW$T$137     .dwtag  DW_TAG_typedef, DW_AT_name("CSL_SysRegsOvly")
    9270                      .dwattr $C$DW$T$137, DW_AT_type(*$C$DW$T$136)
    9271                      .dwattr $C$DW$T$137, DW_AT_language(DW_LANG_C)
    9272              
    9273              $C$DW$T$79      .dwtag  DW_TAG_structure_type
    9274                      .dwattr $C$DW$T$79, DW_AT_name("CSL_UsbConfig")
    9275                      .dwattr $C$DW$T$79, DW_AT_byte_size(0x0c)
    9276              $C$DW$709       .dwtag  DW_TAG_member
    9277                      .dwattr $C$DW$709, DW_AT_type(*$C$DW$T$68)
    9278                      .dwattr $C$DW$709, DW_AT_name("devNum")
    9279                      .dwattr $C$DW$709, DW_AT_TI_symbol_name("_devNum")
    9280                      .dwattr $C$DW$709, DW_AT_data_member_location[DW_OP_plus_uconst 0x0]
    9281                      .dwattr $C$DW$709, DW_AT_accessibility(DW_ACCESS_public)
    9282              $C$DW$710       .dwtag  DW_TAG_member
    9283                      .dwattr $C$DW$710, DW_AT_type(*$C$DW$T$70)
    9284                      .dwattr $C$DW$710, DW_AT_name("opMode")
    9285                      .dwattr $C$DW$710, DW_AT_TI_symbol_name("_opMode")
    9286                      .dwattr $C$DW$710, DW_AT_data_member_location[DW_OP_plus_uconst 0x1]
    9287                      .dwattr $C$DW$710, DW_AT_accessibility(DW_ACCESS_public)
    9288              $C$DW$711       .dwtag  DW_TAG_member
    9289                      .dwattr $C$DW$711, DW_AT_type(*$C$DW$T$19)
    9290                      .dwattr $C$DW$711, DW_AT_name("maxCurrent")
    9291                      .dwattr $C$DW$711, DW_AT_TI_symbol_name("_maxCurrent")
    9292                      .dwattr $C$DW$711, DW_AT_data_member_location[DW_OP_plus_uconst 0x2]
    9293                      .dwattr $C$DW$711, DW_AT_accessibility(DW_ACCESS_public)
    9294              $C$DW$712       .dwtag  DW_TAG_member
    9295                      .dwattr $C$DW$712, DW_AT_type(*$C$DW$T$73)
    9296                      .dwattr $C$DW$712, DW_AT_name("appSuspendCallBack")
    9297                      .dwattr $C$DW$712, DW_AT_TI_symbol_name("_appSuspendCallBack")
    9298                      .dwattr $C$DW$712, DW_AT_data_member_location[DW_OP_plus_uconst 0x4]
TMS320C55x Assembler PC v4.4.1 Tue Oct 02 02:33:44 2018

Tools Copyright (c) 1996-2012 Texas Instruments Incorporated
csl_usb.asm                                                          PAGE  213

    9299                      .dwattr $C$DW$712, DW_AT_accessibility(DW_ACCESS_public)
    9300              $C$DW$713       .dwtag  DW_TAG_member
    9301                      .dwattr $C$DW$713, DW_AT_type(*$C$DW$T$73)
    9302                      .dwattr $C$DW$713, DW_AT_name("appWakeupCallBack")
    9303                      .dwattr $C$DW$713, DW_AT_TI_symbol_name("_appWakeupCallBack")
    9304                      .dwattr $C$DW$713, DW_AT_data_member_location[DW_OP_plus_uconst 0x6]
    9305                      .dwattr $C$DW$713, DW_AT_accessibility(DW_ACCESS_public)
    9306              $C$DW$714       .dwtag  DW_TAG_member
    9307                      .dwattr $C$DW$714, DW_AT_type(*$C$DW$T$78)
    9308                      .dwattr $C$DW$714, DW_AT_name("startTransferCallback")
    9309                      .dwattr $C$DW$714, DW_AT_TI_symbol_name("_startTransferCallback")
    9310                      .dwattr $C$DW$714, DW_AT_data_member_location[DW_OP_plus_uconst 0x8]
    9311                      .dwattr $C$DW$714, DW_AT_accessibility(DW_ACCESS_public)
    9312              $C$DW$715       .dwtag  DW_TAG_member
    9313                      .dwattr $C$DW$715, DW_AT_type(*$C$DW$T$78)
    9314                      .dwattr $C$DW$715, DW_AT_name("completeTransferCallback")
    9315                      .dwattr $C$DW$715, DW_AT_TI_symbol_name("_completeTransferCallback")
    9316                      .dwattr $C$DW$715, DW_AT_data_member_location[DW_OP_plus_uconst 0xa]
    9317                      .dwattr $C$DW$715, DW_AT_accessibility(DW_ACCESS_public)
    9318                      .dwendtag $C$DW$T$79
    9319              
    9320              $C$DW$T$138     .dwtag  DW_TAG_typedef, DW_AT_name("CSL_UsbConfig")
    9321                      .dwattr $C$DW$T$138, DW_AT_type(*$C$DW$T$79)
    9322                      .dwattr $C$DW$T$138, DW_AT_language(DW_LANG_C)
    9323              $C$DW$T$139     .dwtag  DW_TAG_pointer_type
    9324                      .dwattr $C$DW$T$139, DW_AT_type(*$C$DW$T$138)
    9325                      .dwattr $C$DW$T$139, DW_AT_address_class(0x17)
    9326              
    9327              $C$DW$T$104     .dwtag  DW_TAG_structure_type
    9328                      .dwattr $C$DW$T$104, DW_AT_name("CSL_UsbContext")
    9329                      .dwattr $C$DW$T$104, DW_AT_byte_size(0xc8)
    9330              $C$DW$716       .dwtag  DW_TAG_member
    9331                      .dwattr $C$DW$716, DW_AT_type(*$C$DW$T$70)
    9332                      .dwattr $C$DW$716, DW_AT_name("opMode")
    9333                      .dwattr $C$DW$716, DW_AT_TI_symbol_name("_opMode")
    9334                      .dwattr $C$DW$716, DW_AT_data_member_location[DW_OP_plus_uconst 0x0]
    9335                      .dwattr $C$DW$716, DW_AT_accessibility(DW_ACCESS_public)
    9336              $C$DW$717       .dwtag  DW_TAG_member
    9337                      .dwattr $C$DW$717, DW_AT_type(*$C$DW$T$80)
    9338                      .dwattr $C$DW$717, DW_AT_name("maxCurrent")
    9339                      .dwattr $C$DW$717, DW_AT_TI_symbol_name("_maxCurrent")
    9340                      .dwattr $C$DW$717, DW_AT_data_member_location[DW_OP_plus_uconst 0x1]
    9341                      .dwattr $C$DW$717, DW_AT_accessibility(DW_ACCESS_public)
    9342              $C$DW$718       .dwtag  DW_TAG_member
    9343                      .dwattr $C$DW$718, DW_AT_type(*$C$DW$T$81)
    9344                      .dwattr $C$DW$718, DW_AT_name("fInitialized")
    9345                      .dwattr $C$DW$718, DW_AT_TI_symbol_name("_fInitialized")
    9346                      .dwattr $C$DW$718, DW_AT_data_member_location[DW_OP_plus_uconst 0x2]
    9347                      .dwattr $C$DW$718, DW_AT_accessibility(DW_ACCESS_public)
    9348              $C$DW$719       .dwtag  DW_TAG_member
    9349                      .dwattr $C$DW$719, DW_AT_type(*$C$DW$T$81)
    9350                      .dwattr $C$DW$719, DW_AT_name("fSetupPktCmd")
    9351                      .dwattr $C$DW$719, DW_AT_TI_symbol_name("_fSetupPktCmd")
    9352                      .dwattr $C$DW$719, DW_AT_data_member_location[DW_OP_plus_uconst 0x3]
    9353                      .dwattr $C$DW$719, DW_AT_accessibility(DW_ACCESS_public)
TMS320C55x Assembler PC v4.4.1 Tue Oct 02 02:33:44 2018

Tools Copyright (c) 1996-2012 Texas Instruments Incorporated
csl_usb.asm                                                          PAGE  214

    9354              $C$DW$720       .dwtag  DW_TAG_member
    9355                      .dwattr $C$DW$720, DW_AT_type(*$C$DW$T$81)
    9356                      .dwattr $C$DW$720, DW_AT_name("fOutPhaseCmd")
    9357                      .dwattr $C$DW$720, DW_AT_TI_symbol_name("_fOutPhaseCmd")
    9358                      .dwattr $C$DW$720, DW_AT_data_member_location[DW_OP_plus_uconst 0x4]
    9359                      .dwattr $C$DW$720, DW_AT_accessibility(DW_ACCESS_public)
    9360              $C$DW$721       .dwtag  DW_TAG_member
    9361                      .dwattr $C$DW$721, DW_AT_type(*$C$DW$T$81)
    9362                      .dwattr $C$DW$721, DW_AT_name("fWaitingOnFlagA")
    9363                      .dwattr $C$DW$721, DW_AT_TI_symbol_name("_fWaitingOnFlagA")
    9364                      .dwattr $C$DW$721, DW_AT_data_member_location[DW_OP_plus_uconst 0x5]
    9365                      .dwattr $C$DW$721, DW_AT_accessibility(DW_ACCESS_public)
    9366              $C$DW$722       .dwtag  DW_TAG_member
    9367                      .dwattr $C$DW$722, DW_AT_type(*$C$DW$T$81)
    9368                      .dwattr $C$DW$722, DW_AT_name("fWaitingOnFlagB")
    9369                      .dwattr $C$DW$722, DW_AT_TI_symbol_name("_fWaitingOnFlagB")
    9370                      .dwattr $C$DW$722, DW_AT_data_member_location[DW_OP_plus_uconst 0x6]
    9371                      .dwattr $C$DW$722, DW_AT_accessibility(DW_ACCESS_public)
    9372              $C$DW$723       .dwtag  DW_TAG_member
    9373                      .dwattr $C$DW$723, DW_AT_type(*$C$DW$T$81)
    9374                      .dwattr $C$DW$723, DW_AT_name("fWaitingOnEP0BUFAvail")
    9375                      .dwattr $C$DW$723, DW_AT_TI_symbol_name("_fWaitingOnEP0BUFAvail")
    9376                      .dwattr $C$DW$723, DW_AT_data_member_location[DW_OP_plus_uconst 0x7]
    9377                      .dwattr $C$DW$723, DW_AT_accessibility(DW_ACCESS_public)
    9378              $C$DW$724       .dwtag  DW_TAG_member
    9379                      .dwattr $C$DW$724, DW_AT_type(*$C$DW$T$81)
    9380                      .dwattr $C$DW$724, DW_AT_name("fWaitingOnEP1InBUFAvail")
    9381                      .dwattr $C$DW$724, DW_AT_TI_symbol_name("_fWaitingOnEP1InBUFAvail")
    9382                      .dwattr $C$DW$724, DW_AT_data_member_location[DW_OP_plus_uconst 0x8]
    9383                      .dwattr $C$DW$724, DW_AT_accessibility(DW_ACCESS_public)
    9384              $C$DW$725       .dwtag  DW_TAG_member
    9385                      .dwattr $C$DW$725, DW_AT_type(*$C$DW$T$82)
    9386                      .dwattr $C$DW$725, DW_AT_name("rgbDescriptors")
    9387                      .dwattr $C$DW$725, DW_AT_TI_symbol_name("_rgbDescriptors")
    9388                      .dwattr $C$DW$725, DW_AT_data_member_location[DW_OP_plus_uconst 0xa]
    9389                      .dwattr $C$DW$725, DW_AT_accessibility(DW_ACCESS_public)
    9390              $C$DW$726       .dwtag  DW_TAG_member
    9391                      .dwattr $C$DW$726, DW_AT_type(*$C$DW$T$80)
    9392                      .dwattr $C$DW$726, DW_AT_name("cbDescriptors")
    9393                      .dwattr $C$DW$726, DW_AT_TI_symbol_name("_cbDescriptors")
    9394                      .dwattr $C$DW$726, DW_AT_data_member_location[DW_OP_plus_uconst 0xc]
    9395                      .dwattr $C$DW$726, DW_AT_accessibility(DW_ACCESS_public)
    9396              $C$DW$727       .dwtag  DW_TAG_member
    9397                      .dwattr $C$DW$727, DW_AT_type(*$C$DW$T$84)
    9398                      .dwattr $C$DW$727, DW_AT_name("dwFlagAEndpointAssigned")
    9399                      .dwattr $C$DW$727, DW_AT_TI_symbol_name("_dwFlagAEndpointAssigned")
    9400                      .dwattr $C$DW$727, DW_AT_data_member_location[DW_OP_plus_uconst 0xe]
    9401                      .dwattr $C$DW$727, DW_AT_accessibility(DW_ACCESS_public)
    9402              $C$DW$728       .dwtag  DW_TAG_member
    9403                      .dwattr $C$DW$728, DW_AT_type(*$C$DW$T$84)
    9404                      .dwattr $C$DW$728, DW_AT_name("dwFlagBEndpointAssigned")
    9405                      .dwattr $C$DW$728, DW_AT_TI_symbol_name("_dwFlagBEndpointAssigned")
    9406                      .dwattr $C$DW$728, DW_AT_data_member_location[DW_OP_plus_uconst 0x10]
    9407                      .dwattr $C$DW$728, DW_AT_accessibility(DW_ACCESS_public)
    9408              $C$DW$729       .dwtag  DW_TAG_member
TMS320C55x Assembler PC v4.4.1 Tue Oct 02 02:33:44 2018

Tools Copyright (c) 1996-2012 Texas Instruments Incorporated
csl_usb.asm                                                          PAGE  215

    9409                      .dwattr $C$DW$729, DW_AT_type(*$C$DW$T$85)
    9410                      .dwattr $C$DW$729, DW_AT_name("pFIFOBaseAddress")
    9411                      .dwattr $C$DW$729, DW_AT_TI_symbol_name("_pFIFOBaseAddress")
    9412                      .dwattr $C$DW$729, DW_AT_data_member_location[DW_OP_plus_uconst 0x12]
    9413                      .dwattr $C$DW$729, DW_AT_accessibility(DW_ACCESS_public)
    9414              $C$DW$730       .dwtag  DW_TAG_member
    9415                      .dwattr $C$DW$730, DW_AT_type(*$C$DW$T$85)
    9416                      .dwattr $C$DW$730, DW_AT_name("pInterruptAddr")
    9417                      .dwattr $C$DW$730, DW_AT_TI_symbol_name("_pInterruptAddr")
    9418                      .dwattr $C$DW$730, DW_AT_data_member_location[DW_OP_plus_uconst 0x14]
    9419                      .dwattr $C$DW$730, DW_AT_accessibility(DW_ACCESS_public)
    9420              $C$DW$731       .dwtag  DW_TAG_member
    9421                      .dwattr $C$DW$731, DW_AT_type(*$C$DW$T$81)
    9422                      .dwattr $C$DW$731, DW_AT_name("fSendHandshake")
    9423                      .dwattr $C$DW$731, DW_AT_TI_symbol_name("_fSendHandshake")
    9424                      .dwattr $C$DW$731, DW_AT_data_member_location[DW_OP_plus_uconst 0x16]
    9425                      .dwattr $C$DW$731, DW_AT_accessibility(DW_ACCESS_public)
    9426              $C$DW$732       .dwtag  DW_TAG_member
    9427                      .dwattr $C$DW$732, DW_AT_type(*$C$DW$T$81)
    9428                      .dwattr $C$DW$732, DW_AT_name("fMUSBIsReady")
    9429                      .dwattr $C$DW$732, DW_AT_TI_symbol_name("_fMUSBIsReady")
    9430                      .dwattr $C$DW$732, DW_AT_data_member_location[DW_OP_plus_uconst 0x17]
    9431                      .dwattr $C$DW$732, DW_AT_accessibility(DW_ACCESS_public)
    9432              $C$DW$733       .dwtag  DW_TAG_member
    9433                      .dwattr $C$DW$733, DW_AT_type(*$C$DW$T$80)
    9434                      .dwattr $C$DW$733, DW_AT_name("cbOutEP0Buf")
    9435                      .dwattr $C$DW$733, DW_AT_TI_symbol_name("_cbOutEP0Buf")
    9436                      .dwattr $C$DW$733, DW_AT_data_member_location[DW_OP_plus_uconst 0x18]
    9437                      .dwattr $C$DW$733, DW_AT_accessibility(DW_ACCESS_public)
    9438              $C$DW$734       .dwtag  DW_TAG_member
    9439                      .dwattr $C$DW$734, DW_AT_type(*$C$DW$T$80)
    9440                      .dwattr $C$DW$734, DW_AT_name("cbOutEP0DataReceived")
    9441                      .dwattr $C$DW$734, DW_AT_TI_symbol_name("_cbOutEP0DataReceived")
    9442                      .dwattr $C$DW$734, DW_AT_data_member_location[DW_OP_plus_uconst 0x19]
    9443                      .dwattr $C$DW$734, DW_AT_accessibility(DW_ACCESS_public)
    9444              $C$DW$735       .dwtag  DW_TAG_member
    9445                      .dwattr $C$DW$735, DW_AT_type(*$C$DW$T$86)
    9446                      .dwattr $C$DW$735, DW_AT_name("dwOutEP0Buf")
    9447                      .dwattr $C$DW$735, DW_AT_TI_symbol_name("_dwOutEP0Buf")
    9448                      .dwattr $C$DW$735, DW_AT_data_member_location[DW_OP_plus_uconst 0x1a]
    9449                      .dwattr $C$DW$735, DW_AT_accessibility(DW_ACCESS_public)
    9450              $C$DW$736       .dwtag  DW_TAG_member
    9451                      .dwattr $C$DW$736, DW_AT_type(*$C$DW$T$81)
    9452                      .dwattr $C$DW$736, DW_AT_name("fEP0BUFAvailable")
    9453                      .dwattr $C$DW$736, DW_AT_TI_symbol_name("_fEP0BUFAvailable")
    9454                      .dwattr $C$DW$736, DW_AT_data_member_location[DW_OP_plus_uconst 0x5a]
    9455                      .dwattr $C$DW$736, DW_AT_accessibility(DW_ACCESS_public)
    9456              $C$DW$737       .dwtag  DW_TAG_member
    9457                      .dwattr $C$DW$737, DW_AT_type(*$C$DW$T$81)
    9458                      .dwattr $C$DW$737, DW_AT_name("fEP1InBUFAvailable")
    9459                      .dwattr $C$DW$737, DW_AT_TI_symbol_name("_fEP1InBUFAvailable")
    9460                      .dwattr $C$DW$737, DW_AT_data_member_location[DW_OP_plus_uconst 0x5b]
    9461                      .dwattr $C$DW$737, DW_AT_accessibility(DW_ACCESS_public)
    9462              $C$DW$738       .dwtag  DW_TAG_member
    9463                      .dwattr $C$DW$738, DW_AT_type(*$C$DW$T$80)
TMS320C55x Assembler PC v4.4.1 Tue Oct 02 02:33:44 2018

Tools Copyright (c) 1996-2012 Texas Instruments Incorporated
csl_usb.asm                                                          PAGE  216

    9464                      .dwattr $C$DW$738, DW_AT_name("dwQueuePend1")
    9465                      .dwattr $C$DW$738, DW_AT_TI_symbol_name("_dwQueuePend1")
    9466                      .dwattr $C$DW$738, DW_AT_data_member_location[DW_OP_plus_uconst 0x5c]
    9467                      .dwattr $C$DW$738, DW_AT_accessibility(DW_ACCESS_public)
    9468              $C$DW$739       .dwtag  DW_TAG_member
    9469                      .dwattr $C$DW$739, DW_AT_type(*$C$DW$T$81)
    9470                      .dwattr $C$DW$739, DW_AT_name("fEP3InBUFAvailable")
    9471                      .dwattr $C$DW$739, DW_AT_TI_symbol_name("_fEP3InBUFAvailable")
    9472                      .dwattr $C$DW$739, DW_AT_data_member_location[DW_OP_plus_uconst 0x5d]
    9473                      .dwattr $C$DW$739, DW_AT_accessibility(DW_ACCESS_public)
    9474              $C$DW$740       .dwtag  DW_TAG_member
    9475                      .dwattr $C$DW$740, DW_AT_type(*$C$DW$T$80)
    9476                      .dwattr $C$DW$740, DW_AT_name("dwIntSourceL")
    9477                      .dwattr $C$DW$740, DW_AT_TI_symbol_name("_dwIntSourceL")
    9478                      .dwattr $C$DW$740, DW_AT_data_member_location[DW_OP_plus_uconst 0x5e]
    9479                      .dwattr $C$DW$740, DW_AT_accessibility(DW_ACCESS_public)
    9480              $C$DW$741       .dwtag  DW_TAG_member
    9481                      .dwattr $C$DW$741, DW_AT_type(*$C$DW$T$80)
    9482                      .dwattr $C$DW$741, DW_AT_name("dwIntSourceH")
    9483                      .dwattr $C$DW$741, DW_AT_TI_symbol_name("_dwIntSourceH")
    9484                      .dwattr $C$DW$741, DW_AT_data_member_location[DW_OP_plus_uconst 0x5f]
    9485                      .dwattr $C$DW$741, DW_AT_accessibility(DW_ACCESS_public)
    9486              $C$DW$742       .dwtag  DW_TAG_member
    9487                      .dwattr $C$DW$742, DW_AT_type(*$C$DW$T$88)
    9488                      .dwattr $C$DW$742, DW_AT_name("remoteWkpStat")
    9489                      .dwattr $C$DW$742, DW_AT_TI_symbol_name("_remoteWkpStat")
    9490                      .dwattr $C$DW$742, DW_AT_data_member_location[DW_OP_plus_uconst 0x60]
    9491                      .dwattr $C$DW$742, DW_AT_accessibility(DW_ACCESS_public)
    9492              $C$DW$743       .dwtag  DW_TAG_member
    9493                      .dwattr $C$DW$743, DW_AT_type(*$C$DW$T$90)
    9494                      .dwattr $C$DW$743, DW_AT_name("pEpStatus")
    9495                      .dwattr $C$DW$743, DW_AT_TI_symbol_name("_pEpStatus")
    9496                      .dwattr $C$DW$743, DW_AT_data_member_location[DW_OP_plus_uconst 0x62]
    9497                      .dwattr $C$DW$743, DW_AT_accessibility(DW_ACCESS_public)
    9498              $C$DW$744       .dwtag  DW_TAG_member
    9499                      .dwattr $C$DW$744, DW_AT_type(*$C$DW$T$92)
    9500                      .dwattr $C$DW$744, DW_AT_name("busSpeed")
    9501                      .dwattr $C$DW$744, DW_AT_TI_symbol_name("_busSpeed")
    9502                      .dwattr $C$DW$744, DW_AT_data_member_location[DW_OP_plus_uconst 0x64]
    9503                      .dwattr $C$DW$744, DW_AT_accessibility(DW_ACCESS_public)
    9504              $C$DW$745       .dwtag  DW_TAG_member
    9505                      .dwattr $C$DW$745, DW_AT_type(*$C$DW$T$94)
    9506                      .dwattr $C$DW$745, DW_AT_name("ep0State")
    9507                      .dwattr $C$DW$745, DW_AT_TI_symbol_name("_ep0State")
    9508                      .dwattr $C$DW$745, DW_AT_data_member_location[DW_OP_plus_uconst 0x65]
    9509                      .dwattr $C$DW$745, DW_AT_accessibility(DW_ACCESS_public)
    9510              $C$DW$746       .dwtag  DW_TAG_member
    9511                      .dwattr $C$DW$746, DW_AT_type(*$C$DW$T$96)
    9512                      .dwattr $C$DW$746, DW_AT_name("cableState")
    9513                      .dwattr $C$DW$746, DW_AT_TI_symbol_name("_cableState")
    9514                      .dwattr $C$DW$746, DW_AT_data_member_location[DW_OP_plus_uconst 0x66]
    9515                      .dwattr $C$DW$746, DW_AT_accessibility(DW_ACCESS_public)
    9516              $C$DW$747       .dwtag  DW_TAG_member
    9517                      .dwattr $C$DW$747, DW_AT_type(*$C$DW$T$97)
    9518                      .dwattr $C$DW$747, DW_AT_name("usbSetup")
TMS320C55x Assembler PC v4.4.1 Tue Oct 02 02:33:44 2018

Tools Copyright (c) 1996-2012 Texas Instruments Incorporated
csl_usb.asm                                                          PAGE  217

    9519                      .dwattr $C$DW$747, DW_AT_TI_symbol_name("_usbSetup")
    9520                      .dwattr $C$DW$747, DW_AT_data_member_location[DW_OP_plus_uconst 0x67]
    9521                      .dwattr $C$DW$747, DW_AT_accessibility(DW_ACCESS_public)
    9522              $C$DW$748       .dwtag  DW_TAG_member
    9523                      .dwattr $C$DW$748, DW_AT_type(*$C$DW$T$73)
    9524                      .dwattr $C$DW$748, DW_AT_name("suspendCallBackFxn")
    9525                      .dwattr $C$DW$748, DW_AT_TI_symbol_name("_suspendCallBackFxn")
    9526                      .dwattr $C$DW$748, DW_AT_data_member_location[DW_OP_plus_uconst 0x6e]
    9527                      .dwattr $C$DW$748, DW_AT_accessibility(DW_ACCESS_public)
    9528              $C$DW$749       .dwtag  DW_TAG_member
    9529                      .dwattr $C$DW$749, DW_AT_type(*$C$DW$T$73)
    9530                      .dwattr $C$DW$749, DW_AT_name("wakeupCallBackFxn")
    9531                      .dwattr $C$DW$749, DW_AT_TI_symbol_name("_wakeupCallBackFxn")
    9532                      .dwattr $C$DW$749, DW_AT_data_member_location[DW_OP_plus_uconst 0x70]
    9533                      .dwattr $C$DW$749, DW_AT_accessibility(DW_ACCESS_public)
    9534              $C$DW$750       .dwtag  DW_TAG_member
    9535                      .dwattr $C$DW$750, DW_AT_type(*$C$DW$T$78)
    9536                      .dwattr $C$DW$750, DW_AT_name("startTransferCallback")
    9537                      .dwattr $C$DW$750, DW_AT_TI_symbol_name("_startTransferCallback")
    9538                      .dwattr $C$DW$750, DW_AT_data_member_location[DW_OP_plus_uconst 0x72]
    9539                      .dwattr $C$DW$750, DW_AT_accessibility(DW_ACCESS_public)
    9540              $C$DW$751       .dwtag  DW_TAG_member
    9541                      .dwattr $C$DW$751, DW_AT_type(*$C$DW$T$78)
    9542                      .dwattr $C$DW$751, DW_AT_name("completeTransferCallback")
    9543                      .dwattr $C$DW$751, DW_AT_TI_symbol_name("_completeTransferCallback")
    9544                      .dwattr $C$DW$751, DW_AT_data_member_location[DW_OP_plus_uconst 0x74]
    9545                      .dwattr $C$DW$751, DW_AT_accessibility(DW_ACCESS_public)
    9546              $C$DW$752       .dwtag  DW_TAG_member
    9547                      .dwattr $C$DW$752, DW_AT_type(*$C$DW$T$80)
    9548                      .dwattr $C$DW$752, DW_AT_name("dwFIFOStartAddr")
    9549                      .dwattr $C$DW$752, DW_AT_TI_symbol_name("_dwFIFOStartAddr")
    9550                      .dwattr $C$DW$752, DW_AT_data_member_location[DW_OP_plus_uconst 0x76]
    9551                      .dwattr $C$DW$752, DW_AT_accessibility(DW_ACCESS_public)
    9552              $C$DW$753       .dwtag  DW_TAG_member
    9553                      .dwattr $C$DW$753, DW_AT_type(*$C$DW$T$98)
    9554                      .dwattr $C$DW$753, DW_AT_name("deviceDescPtr")
    9555                      .dwattr $C$DW$753, DW_AT_TI_symbol_name("_deviceDescPtr")
    9556                      .dwattr $C$DW$753, DW_AT_data_member_location[DW_OP_plus_uconst 0x78]
    9557                      .dwattr $C$DW$753, DW_AT_accessibility(DW_ACCESS_public)
    9558              $C$DW$754       .dwtag  DW_TAG_member
    9559                      .dwattr $C$DW$754, DW_AT_type(*$C$DW$T$98)
    9560                      .dwattr $C$DW$754, DW_AT_name("deviceQualDescPtr")
    9561                      .dwattr $C$DW$754, DW_AT_TI_symbol_name("_deviceQualDescPtr")
    9562                      .dwattr $C$DW$754, DW_AT_data_member_location[DW_OP_plus_uconst 0x7a]
    9563                      .dwattr $C$DW$754, DW_AT_accessibility(DW_ACCESS_public)
    9564              $C$DW$755       .dwtag  DW_TAG_member
    9565                      .dwattr $C$DW$755, DW_AT_type(*$C$DW$T$98)
    9566                      .dwattr $C$DW$755, DW_AT_name("cfgDescPtr")
    9567                      .dwattr $C$DW$755, DW_AT_TI_symbol_name("_cfgDescPtr")
    9568                      .dwattr $C$DW$755, DW_AT_data_member_location[DW_OP_plus_uconst 0x7c]
    9569                      .dwattr $C$DW$755, DW_AT_accessibility(DW_ACCESS_public)
    9570              $C$DW$756       .dwtag  DW_TAG_member
    9571                      .dwattr $C$DW$756, DW_AT_type(*$C$DW$T$98)
    9572                      .dwattr $C$DW$756, DW_AT_name("cfgDescFSPtr")
    9573                      .dwattr $C$DW$756, DW_AT_TI_symbol_name("_cfgDescFSPtr")
TMS320C55x Assembler PC v4.4.1 Tue Oct 02 02:33:44 2018

Tools Copyright (c) 1996-2012 Texas Instruments Incorporated
csl_usb.asm                                                          PAGE  218

    9574                      .dwattr $C$DW$756, DW_AT_data_member_location[DW_OP_plus_uconst 0x7e]
    9575                      .dwattr $C$DW$756, DW_AT_accessibility(DW_ACCESS_public)
    9576              $C$DW$757       .dwtag  DW_TAG_member
    9577                      .dwattr $C$DW$757, DW_AT_type(*$C$DW$T$99)
    9578                      .dwattr $C$DW$757, DW_AT_name("strDescPtr")
    9579                      .dwattr $C$DW$757, DW_AT_TI_symbol_name("_strDescPtr")
    9580                      .dwattr $C$DW$757, DW_AT_data_member_location[DW_OP_plus_uconst 0x80]
    9581                      .dwattr $C$DW$757, DW_AT_accessibility(DW_ACCESS_public)
    9582              $C$DW$758       .dwtag  DW_TAG_member
    9583                      .dwattr $C$DW$758, DW_AT_type(*$C$DW$T$19)
    9584                      .dwattr $C$DW$758, DW_AT_name("devAddr")
    9585                      .dwattr $C$DW$758, DW_AT_TI_symbol_name("_devAddr")
    9586                      .dwattr $C$DW$758, DW_AT_data_member_location[DW_OP_plus_uconst 0x88]
    9587                      .dwattr $C$DW$758, DW_AT_accessibility(DW_ACCESS_public)
    9588              $C$DW$759       .dwtag  DW_TAG_member
    9589                      .dwattr $C$DW$759, DW_AT_type(*$C$DW$T$100)
    9590                      .dwattr $C$DW$759, DW_AT_name("ctrlInEpObj")
    9591                      .dwattr $C$DW$759, DW_AT_TI_symbol_name("_ctrlInEpObj")
    9592                      .dwattr $C$DW$759, DW_AT_data_member_location[DW_OP_plus_uconst 0x8a]
    9593                      .dwattr $C$DW$759, DW_AT_accessibility(DW_ACCESS_public)
    9594              $C$DW$760       .dwtag  DW_TAG_member
    9595                      .dwattr $C$DW$760, DW_AT_type(*$C$DW$T$68)
    9596                      .dwattr $C$DW$760, DW_AT_name("devNum")
    9597                      .dwattr $C$DW$760, DW_AT_TI_symbol_name("_devNum")
    9598                      .dwattr $C$DW$760, DW_AT_data_member_location[DW_OP_plus_uconst 0x9e]
    9599                      .dwattr $C$DW$760, DW_AT_accessibility(DW_ACCESS_public)
    9600              $C$DW$761       .dwtag  DW_TAG_member
    9601                      .dwattr $C$DW$761, DW_AT_type(*$C$DW$T$100)
    9602                      .dwattr $C$DW$761, DW_AT_name("ctrlOutEpObj")
    9603                      .dwattr $C$DW$761, DW_AT_TI_symbol_name("_ctrlOutEpObj")
    9604                      .dwattr $C$DW$761, DW_AT_data_member_location[DW_OP_plus_uconst 0xa0]
    9605                      .dwattr $C$DW$761, DW_AT_accessibility(DW_ACCESS_public)
    9606              $C$DW$762       .dwtag  DW_TAG_member
    9607                      .dwattr $C$DW$762, DW_AT_type(*$C$DW$T$19)
    9608                      .dwattr $C$DW$762, DW_AT_name("suspendFlag")
    9609                      .dwattr $C$DW$762, DW_AT_TI_symbol_name("_suspendFlag")
    9610                      .dwattr $C$DW$762, DW_AT_data_member_location[DW_OP_plus_uconst 0xb4]
    9611                      .dwattr $C$DW$762, DW_AT_accessibility(DW_ACCESS_public)
    9612              $C$DW$763       .dwtag  DW_TAG_member
    9613                      .dwattr $C$DW$763, DW_AT_type(*$C$DW$T$103)
    9614                      .dwattr $C$DW$763, DW_AT_name("hEpObjArray")
    9615                      .dwattr $C$DW$763, DW_AT_TI_symbol_name("_hEpObjArray")
    9616                      .dwattr $C$DW$763, DW_AT_data_member_location[DW_OP_plus_uconst 0xb6]
    9617                      .dwattr $C$DW$763, DW_AT_accessibility(DW_ACCESS_public)
    9618              $C$DW$764       .dwtag  DW_TAG_member
    9619                      .dwattr $C$DW$764, DW_AT_type(*$C$DW$T$19)
    9620                      .dwattr $C$DW$764, DW_AT_name("curConfigStat")
    9621                      .dwattr $C$DW$764, DW_AT_TI_symbol_name("_curConfigStat")
    9622                      .dwattr $C$DW$764, DW_AT_data_member_location[DW_OP_plus_uconst 0xc6]
    9623                      .dwattr $C$DW$764, DW_AT_accessibility(DW_ACCESS_public)
    9624              $C$DW$765       .dwtag  DW_TAG_member
    9625                      .dwattr $C$DW$765, DW_AT_type(*$C$DW$T$81)
    9626                      .dwattr $C$DW$765, DW_AT_name("usbSpeedCfg")
    9627                      .dwattr $C$DW$765, DW_AT_TI_symbol_name("_usbSpeedCfg")
    9628                      .dwattr $C$DW$765, DW_AT_data_member_location[DW_OP_plus_uconst 0xc7]
TMS320C55x Assembler PC v4.4.1 Tue Oct 02 02:33:44 2018

Tools Copyright (c) 1996-2012 Texas Instruments Incorporated
csl_usb.asm                                                          PAGE  219

    9629                      .dwattr $C$DW$765, DW_AT_accessibility(DW_ACCESS_public)
    9630                      .dwendtag $C$DW$T$104
    9631              
    9632              $C$DW$T$140     .dwtag  DW_TAG_typedef, DW_AT_name("CSL_UsbContext")
    9633                      .dwattr $C$DW$T$140, DW_AT_type(*$C$DW$T$104)
    9634                      .dwattr $C$DW$T$140, DW_AT_language(DW_LANG_C)
    9635              $C$DW$T$141     .dwtag  DW_TAG_pointer_type
    9636                      .dwattr $C$DW$T$141, DW_AT_type(*$C$DW$T$140)
    9637                      .dwattr $C$DW$T$141, DW_AT_address_class(0x17)
    9638              $C$DW$T$142     .dwtag  DW_TAG_typedef, DW_AT_name("pUsbContext")
    9639                      .dwattr $C$DW$T$142, DW_AT_type(*$C$DW$T$141)
    9640                      .dwattr $C$DW$T$142, DW_AT_language(DW_LANG_C)
    9641              
    9642              $C$DW$T$106     .dwtag  DW_TAG_structure_type
    9643                      .dwattr $C$DW$T$106, DW_AT_name("CSL_UsbDataStruct")
    9644                      .dwattr $C$DW$T$106, DW_AT_byte_size(0x06)
    9645              $C$DW$766       .dwtag  DW_TAG_member
    9646                      .dwattr $C$DW$766, DW_AT_type(*$C$DW$T$19)
    9647                      .dwattr $C$DW$766, DW_AT_name("bytes")
    9648                      .dwattr $C$DW$766, DW_AT_TI_symbol_name("_bytes")
    9649                      .dwattr $C$DW$766, DW_AT_data_member_location[DW_OP_plus_uconst 0x0]
    9650                      .dwattr $C$DW$766, DW_AT_accessibility(DW_ACCESS_public)
    9651              $C$DW$767       .dwtag  DW_TAG_member
    9652                      .dwattr $C$DW$767, DW_AT_type(*$C$DW$T$98)
    9653                      .dwattr $C$DW$767, DW_AT_name("pBuffer")
    9654                      .dwattr $C$DW$767, DW_AT_TI_symbol_name("_pBuffer")
    9655                      .dwattr $C$DW$767, DW_AT_data_member_location[DW_OP_plus_uconst 0x2]
    9656                      .dwattr $C$DW$767, DW_AT_accessibility(DW_ACCESS_public)
    9657              $C$DW$768       .dwtag  DW_TAG_member
    9658                      .dwattr $C$DW$768, DW_AT_type(*$C$DW$T$105)
    9659                      .dwattr $C$DW$768, DW_AT_name("pNextBuffer")
    9660                      .dwattr $C$DW$768, DW_AT_TI_symbol_name("_pNextBuffer")
    9661                      .dwattr $C$DW$768, DW_AT_data_member_location[DW_OP_plus_uconst 0x4]
    9662                      .dwattr $C$DW$768, DW_AT_accessibility(DW_ACCESS_public)
    9663                      .dwendtag $C$DW$T$106
    9664              
    9665              $C$DW$T$114     .dwtag  DW_TAG_typedef, DW_AT_name("CSL_UsbDataStruct")
    9666                      .dwattr $C$DW$T$114, DW_AT_type(*$C$DW$T$106)
    9667                      .dwattr $C$DW$T$114, DW_AT_language(DW_LANG_C)
    9668              $C$DW$T$115     .dwtag  DW_TAG_pointer_type
    9669                      .dwattr $C$DW$T$115, DW_AT_type(*$C$DW$T$114)
    9670                      .dwattr $C$DW$T$115, DW_AT_address_class(0x17)
    9671              $C$DW$T$105     .dwtag  DW_TAG_pointer_type
    9672                      .dwattr $C$DW$T$105, DW_AT_type(*$C$DW$T$106)
    9673                      .dwattr $C$DW$T$105, DW_AT_address_class(0x17)
    9674              
    9675              $C$DW$T$116     .dwtag  DW_TAG_structure_type
    9676                      .dwattr $C$DW$T$116, DW_AT_name("CSL_UsbEpObj")
    9677                      .dwattr $C$DW$T$116, DW_AT_byte_size(0x14)
    9678              $C$DW$769       .dwtag  DW_TAG_member
    9679                      .dwattr $C$DW$769, DW_AT_type(*$C$DW$T$108)
    9680                      .dwattr $C$DW$769, DW_AT_name("epNum")
    9681                      .dwattr $C$DW$769, DW_AT_TI_symbol_name("_epNum")
    9682                      .dwattr $C$DW$769, DW_AT_data_member_location[DW_OP_plus_uconst 0x0]
    9683                      .dwattr $C$DW$769, DW_AT_accessibility(DW_ACCESS_public)
TMS320C55x Assembler PC v4.4.1 Tue Oct 02 02:33:44 2018

Tools Copyright (c) 1996-2012 Texas Instruments Incorporated
csl_usb.asm                                                          PAGE  220

    9684              $C$DW$770       .dwtag  DW_TAG_member
    9685                      .dwattr $C$DW$770, DW_AT_type(*$C$DW$T$110)
    9686                      .dwattr $C$DW$770, DW_AT_name("xferType")
    9687                      .dwattr $C$DW$770, DW_AT_TI_symbol_name("_xferType")
    9688                      .dwattr $C$DW$770, DW_AT_data_member_location[DW_OP_plus_uconst 0x1]
    9689                      .dwattr $C$DW$770, DW_AT_accessibility(DW_ACCESS_public)
    9690              $C$DW$771       .dwtag  DW_TAG_member
    9691                      .dwattr $C$DW$771, DW_AT_type(*$C$DW$T$19)
    9692                      .dwattr $C$DW$771, DW_AT_name("maxPktSiz")
    9693                      .dwattr $C$DW$771, DW_AT_TI_symbol_name("_maxPktSiz")
    9694                      .dwattr $C$DW$771, DW_AT_data_member_location[DW_OP_plus_uconst 0x2]
    9695                      .dwattr $C$DW$771, DW_AT_accessibility(DW_ACCESS_public)
    9696              $C$DW$772       .dwtag  DW_TAG_member
    9697                      .dwattr $C$DW$772, DW_AT_type(*$C$DW$T$19)
    9698                      .dwattr $C$DW$772, DW_AT_name("eventMask")
    9699                      .dwattr $C$DW$772, DW_AT_TI_symbol_name("_eventMask")
    9700                      .dwattr $C$DW$772, DW_AT_data_member_location[DW_OP_plus_uconst 0x3]
    9701                      .dwattr $C$DW$772, DW_AT_accessibility(DW_ACCESS_public)
    9702              $C$DW$773       .dwtag  DW_TAG_member
    9703                      .dwattr $C$DW$773, DW_AT_type(*$C$DW$T$113)
    9704                      .dwattr $C$DW$773, DW_AT_name("fxn")
    9705                      .dwattr $C$DW$773, DW_AT_TI_symbol_name("_fxn")
    9706                      .dwattr $C$DW$773, DW_AT_data_member_location[DW_OP_plus_uconst 0x4]
    9707                      .dwattr $C$DW$773, DW_AT_accessibility(DW_ACCESS_public)
    9708              $C$DW$774       .dwtag  DW_TAG_member
    9709                      .dwattr $C$DW$774, DW_AT_type(*$C$DW$T$19)
    9710                      .dwattr $C$DW$774, DW_AT_name("dataFlags")
    9711                      .dwattr $C$DW$774, DW_AT_TI_symbol_name("_dataFlags")
    9712                      .dwattr $C$DW$774, DW_AT_data_member_location[DW_OP_plus_uconst 0x6]
    9713                      .dwattr $C$DW$774, DW_AT_accessibility(DW_ACCESS_public)
    9714              $C$DW$775       .dwtag  DW_TAG_member
    9715                      .dwattr $C$DW$775, DW_AT_type(*$C$DW$T$19)
    9716                      .dwattr $C$DW$775, DW_AT_name("status")
    9717                      .dwattr $C$DW$775, DW_AT_TI_symbol_name("_status")
    9718                      .dwattr $C$DW$775, DW_AT_data_member_location[DW_OP_plus_uconst 0x7]
    9719                      .dwattr $C$DW$775, DW_AT_accessibility(DW_ACCESS_public)
    9720              $C$DW$776       .dwtag  DW_TAG_member
    9721                      .dwattr $C$DW$776, DW_AT_type(*$C$DW$T$19)
    9722                      .dwattr $C$DW$776, DW_AT_name("epDescRegSAddr")
    9723                      .dwattr $C$DW$776, DW_AT_TI_symbol_name("_epDescRegSAddr")
    9724                      .dwattr $C$DW$776, DW_AT_data_member_location[DW_OP_plus_uconst 0x8]
    9725                      .dwattr $C$DW$776, DW_AT_accessibility(DW_ACCESS_public)
    9726              $C$DW$777       .dwtag  DW_TAG_member
    9727                      .dwattr $C$DW$777, DW_AT_type(*$C$DW$T$19)
    9728                      .dwattr $C$DW$777, DW_AT_name("dmaRegSAddr")
    9729                      .dwattr $C$DW$777, DW_AT_TI_symbol_name("_dmaRegSAddr")
    9730                      .dwattr $C$DW$777, DW_AT_data_member_location[DW_OP_plus_uconst 0x9]
    9731                      .dwattr $C$DW$777, DW_AT_accessibility(DW_ACCESS_public)
    9732              $C$DW$778       .dwtag  DW_TAG_member
    9733                      .dwattr $C$DW$778, DW_AT_type(*$C$DW$T$19)
    9734                      .dwattr $C$DW$778, DW_AT_name("totByteCnt")
    9735                      .dwattr $C$DW$778, DW_AT_TI_symbol_name("_totByteCnt")
    9736                      .dwattr $C$DW$778, DW_AT_data_member_location[DW_OP_plus_uconst 0xa]
    9737                      .dwattr $C$DW$778, DW_AT_accessibility(DW_ACCESS_public)
    9738              $C$DW$779       .dwtag  DW_TAG_member
TMS320C55x Assembler PC v4.4.1 Tue Oct 02 02:33:44 2018

Tools Copyright (c) 1996-2012 Texas Instruments Incorporated
csl_usb.asm                                                          PAGE  221

    9739                      .dwattr $C$DW$779, DW_AT_type(*$C$DW$T$19)
    9740                      .dwattr $C$DW$779, DW_AT_name("byteInThisSeg")
    9741                      .dwattr $C$DW$779, DW_AT_TI_symbol_name("_byteInThisSeg")
    9742                      .dwattr $C$DW$779, DW_AT_data_member_location[DW_OP_plus_uconst 0xb]
    9743                      .dwattr $C$DW$779, DW_AT_accessibility(DW_ACCESS_public)
    9744              $C$DW$780       .dwtag  DW_TAG_member
    9745                      .dwattr $C$DW$780, DW_AT_type(*$C$DW$T$98)
    9746                      .dwattr $C$DW$780, DW_AT_name("xferBytCnt")
    9747                      .dwattr $C$DW$780, DW_AT_TI_symbol_name("_xferBytCnt")
    9748                      .dwattr $C$DW$780, DW_AT_data_member_location[DW_OP_plus_uconst 0xc]
    9749                      .dwattr $C$DW$780, DW_AT_accessibility(DW_ACCESS_public)
    9750              $C$DW$781       .dwtag  DW_TAG_member
    9751                      .dwattr $C$DW$781, DW_AT_type(*$C$DW$T$98)
    9752                      .dwattr $C$DW$781, DW_AT_name("pBuffer")
    9753                      .dwattr $C$DW$781, DW_AT_TI_symbol_name("_pBuffer")
    9754                      .dwattr $C$DW$781, DW_AT_data_member_location[DW_OP_plus_uconst 0xe]
    9755                      .dwattr $C$DW$781, DW_AT_accessibility(DW_ACCESS_public)
    9756              $C$DW$782       .dwtag  DW_TAG_member
    9757                      .dwattr $C$DW$782, DW_AT_type(*$C$DW$T$115)
    9758                      .dwattr $C$DW$782, DW_AT_name("pNextBuffer")
    9759                      .dwattr $C$DW$782, DW_AT_TI_symbol_name("_pNextBuffer")
    9760                      .dwattr $C$DW$782, DW_AT_data_member_location[DW_OP_plus_uconst 0x10]
    9761                      .dwattr $C$DW$782, DW_AT_accessibility(DW_ACCESS_public)
    9762              $C$DW$783       .dwtag  DW_TAG_member
    9763                      .dwattr $C$DW$783, DW_AT_type(*$C$DW$T$19)
    9764                      .dwattr $C$DW$783, DW_AT_name("eventFlag")
    9765                      .dwattr $C$DW$783, DW_AT_TI_symbol_name("_eventFlag")
    9766                      .dwattr $C$DW$783, DW_AT_data_member_location[DW_OP_plus_uconst 0x12]
    9767                      .dwattr $C$DW$783, DW_AT_accessibility(DW_ACCESS_public)
    9768                      .dwendtag $C$DW$T$116
    9769              
    9770              $C$DW$T$100     .dwtag  DW_TAG_typedef, DW_AT_name("CSL_UsbEpObj")
    9771                      .dwattr $C$DW$T$100, DW_AT_type(*$C$DW$T$116)
    9772                      .dwattr $C$DW$T$100, DW_AT_language(DW_LANG_C)
    9773              $C$DW$T$101     .dwtag  DW_TAG_pointer_type
    9774                      .dwattr $C$DW$T$101, DW_AT_type(*$C$DW$T$100)
    9775                      .dwattr $C$DW$T$101, DW_AT_address_class(0x17)
    9776              $C$DW$T$102     .dwtag  DW_TAG_typedef, DW_AT_name("pUsbEpHandle")
    9777                      .dwattr $C$DW$T$102, DW_AT_type(*$C$DW$T$101)
    9778                      .dwattr $C$DW$T$102, DW_AT_language(DW_LANG_C)
    9779              
    9780              $C$DW$T$103     .dwtag  DW_TAG_array_type
    9781                      .dwattr $C$DW$T$103, DW_AT_type(*$C$DW$T$102)
    9782                      .dwattr $C$DW$T$103, DW_AT_language(DW_LANG_C)
    9783                      .dwattr $C$DW$T$103, DW_AT_byte_size(0x10)
    9784              $C$DW$784       .dwtag  DW_TAG_subrange_type
    9785                      .dwattr $C$DW$784, DW_AT_upper_bound(0x07)
    9786                      .dwendtag $C$DW$T$103
    9787              
    9788              $C$DW$T$146     .dwtag  DW_TAG_pointer_type
    9789                      .dwattr $C$DW$T$146, DW_AT_type(*$C$DW$T$102)
    9790                      .dwattr $C$DW$T$146, DW_AT_address_class(0x17)
    9791              
    9792              $C$DW$T$119     .dwtag  DW_TAG_structure_type
    9793                      .dwattr $C$DW$T$119, DW_AT_name("CSL_UsbEpStatus")
TMS320C55x Assembler PC v4.4.1 Tue Oct 02 02:33:44 2018

Tools Copyright (c) 1996-2012 Texas Instruments Incorporated
csl_usb.asm                                                          PAGE  222

    9794                      .dwattr $C$DW$T$119, DW_AT_byte_size(0x12)
    9795              $C$DW$785       .dwtag  DW_TAG_member
    9796                      .dwattr $C$DW$785, DW_AT_type(*$C$DW$T$84)
    9797                      .dwattr $C$DW$785, DW_AT_name("dwEndpoint")
    9798                      .dwattr $C$DW$785, DW_AT_TI_symbol_name("_dwEndpoint")
    9799                      .dwattr $C$DW$785, DW_AT_data_member_location[DW_OP_plus_uconst 0x0]
    9800                      .dwattr $C$DW$785, DW_AT_accessibility(DW_ACCESS_public)
    9801              $C$DW$786       .dwtag  DW_TAG_member
    9802                      .dwattr $C$DW$786, DW_AT_type(*$C$DW$T$110)
    9803                      .dwattr $C$DW$786, DW_AT_name("xferType")
    9804                      .dwattr $C$DW$786, DW_AT_TI_symbol_name("_xferType")
    9805                      .dwattr $C$DW$786, DW_AT_data_member_location[DW_OP_plus_uconst 0x2]
    9806                      .dwattr $C$DW$786, DW_AT_accessibility(DW_ACCESS_public)
    9807              $C$DW$787       .dwtag  DW_TAG_member
    9808                      .dwattr $C$DW$787, DW_AT_type(*$C$DW$T$84)
    9809                      .dwattr $C$DW$787, DW_AT_name("dwPacketSizeAssigned")
    9810                      .dwattr $C$DW$787, DW_AT_TI_symbol_name("_dwPacketSizeAssigned")
    9811                      .dwattr $C$DW$787, DW_AT_data_member_location[DW_OP_plus_uconst 0x4]
    9812                      .dwattr $C$DW$787, DW_AT_accessibility(DW_ACCESS_public)
    9813              $C$DW$788       .dwtag  DW_TAG_member
    9814                      .dwattr $C$DW$788, DW_AT_type(*$C$DW$T$81)
    9815                      .dwattr $C$DW$788, DW_AT_name("fInitialized")
    9816                      .dwattr $C$DW$788, DW_AT_TI_symbol_name("_fInitialized")
    9817                      .dwattr $C$DW$788, DW_AT_data_member_location[DW_OP_plus_uconst 0x6]
    9818                      .dwattr $C$DW$788, DW_AT_accessibility(DW_ACCESS_public)
    9819              $C$DW$789       .dwtag  DW_TAG_member
    9820                      .dwattr $C$DW$789, DW_AT_type(*$C$DW$T$85)
    9821                      .dwattr $C$DW$789, DW_AT_name("pFifoAddr")
    9822                      .dwattr $C$DW$789, DW_AT_TI_symbol_name("_pFifoAddr")
    9823                      .dwattr $C$DW$789, DW_AT_data_member_location[DW_OP_plus_uconst 0x8]
    9824                      .dwattr $C$DW$789, DW_AT_accessibility(DW_ACCESS_public)
    9825              $C$DW$790       .dwtag  DW_TAG_member
    9826                      .dwattr $C$DW$790, DW_AT_type(*$C$DW$T$118)
    9827                      .dwattr $C$DW$790, DW_AT_name("pTransfer")
    9828                      .dwattr $C$DW$790, DW_AT_TI_symbol_name("_pTransfer")
    9829                      .dwattr $C$DW$790, DW_AT_data_member_location[DW_OP_plus_uconst 0xa]
    9830                      .dwattr $C$DW$790, DW_AT_accessibility(DW_ACCESS_public)
    9831              $C$DW$791       .dwtag  DW_TAG_member
    9832                      .dwattr $C$DW$791, DW_AT_type(*$C$DW$T$80)
    9833                      .dwattr $C$DW$791, DW_AT_name("wUSBEvents")
    9834                      .dwattr $C$DW$791, DW_AT_TI_symbol_name("_wUSBEvents")
    9835                      .dwattr $C$DW$791, DW_AT_data_member_location[DW_OP_plus_uconst 0xc]
    9836                      .dwattr $C$DW$791, DW_AT_accessibility(DW_ACCESS_public)
    9837              $C$DW$792       .dwtag  DW_TAG_member
    9838                      .dwattr $C$DW$792, DW_AT_type(*$C$DW$T$80)
    9839                      .dwattr $C$DW$792, DW_AT_name("dataReadFromFifo")
    9840                      .dwattr $C$DW$792, DW_AT_TI_symbol_name("_dataReadFromFifo")
    9841                      .dwattr $C$DW$792, DW_AT_data_member_location[DW_OP_plus_uconst 0xd]
    9842                      .dwattr $C$DW$792, DW_AT_accessibility(DW_ACCESS_public)
    9843              $C$DW$793       .dwtag  DW_TAG_member
    9844                      .dwattr $C$DW$793, DW_AT_type(*$C$DW$T$113)
    9845                      .dwattr $C$DW$793, DW_AT_name("hEventHandler")
    9846                      .dwattr $C$DW$793, DW_AT_TI_symbol_name("_hEventHandler")
    9847                      .dwattr $C$DW$793, DW_AT_data_member_location[DW_OP_plus_uconst 0xe]
    9848                      .dwattr $C$DW$793, DW_AT_accessibility(DW_ACCESS_public)
TMS320C55x Assembler PC v4.4.1 Tue Oct 02 02:33:44 2018

Tools Copyright (c) 1996-2012 Texas Instruments Incorporated
csl_usb.asm                                                          PAGE  223

    9849              $C$DW$794       .dwtag  DW_TAG_member
    9850                      .dwattr $C$DW$794, DW_AT_type(*$C$DW$T$81)
    9851                      .dwattr $C$DW$794, DW_AT_name("fStalled")
    9852                      .dwattr $C$DW$794, DW_AT_TI_symbol_name("_fStalled")
    9853                      .dwattr $C$DW$794, DW_AT_data_member_location[DW_OP_plus_uconst 0x10]
    9854                      .dwattr $C$DW$794, DW_AT_accessibility(DW_ACCESS_public)
    9855              $C$DW$795       .dwtag  DW_TAG_member
    9856                      .dwattr $C$DW$795, DW_AT_type(*$C$DW$T$81)
    9857                      .dwattr $C$DW$795, DW_AT_name("fSelected")
    9858                      .dwattr $C$DW$795, DW_AT_TI_symbol_name("_fSelected")
    9859                      .dwattr $C$DW$795, DW_AT_data_member_location[DW_OP_plus_uconst 0x11]
    9860                      .dwattr $C$DW$795, DW_AT_accessibility(DW_ACCESS_public)
    9861                      .dwendtag $C$DW$T$119
    9862              
    9863              $C$DW$T$89      .dwtag  DW_TAG_typedef, DW_AT_name("CSL_UsbEpStatus")
    9864                      .dwattr $C$DW$T$89, DW_AT_type(*$C$DW$T$119)
    9865                      .dwattr $C$DW$T$89, DW_AT_language(DW_LANG_C)
    9866              $C$DW$T$90      .dwtag  DW_TAG_pointer_type
    9867                      .dwattr $C$DW$T$90, DW_AT_type(*$C$DW$T$89)
    9868                      .dwattr $C$DW$T$90, DW_AT_address_class(0x17)
    9869              $C$DW$T$147     .dwtag  DW_TAG_typedef, DW_AT_name("pUsbEpStatus")
    9870                      .dwattr $C$DW$T$147, DW_AT_type(*$C$DW$T$90)
    9871                      .dwattr $C$DW$T$147, DW_AT_language(DW_LANG_C)
    9872              
    9873              $C$DW$T$148     .dwtag  DW_TAG_array_type
    9874                      .dwattr $C$DW$T$148, DW_AT_type(*$C$DW$T$89)
    9875                      .dwattr $C$DW$T$148, DW_AT_language(DW_LANG_C)
    9876                      .dwattr $C$DW$T$148, DW_AT_byte_size(0x90)
    9877              $C$DW$796       .dwtag  DW_TAG_subrange_type
    9878                      .dwattr $C$DW$796, DW_AT_upper_bound(0x07)
    9879                      .dwendtag $C$DW$T$148
    9880              
    9881              
    9882              $C$DW$T$120     .dwtag  DW_TAG_structure_type
    9883                      .dwattr $C$DW$T$120, DW_AT_name("CSL_UsbSetupStruct")
    9884                      .dwattr $C$DW$T$120, DW_AT_byte_size(0x06)
    9885              $C$DW$797       .dwtag  DW_TAG_member
    9886                      .dwattr $C$DW$797, DW_AT_type(*$C$DW$T$10)
    9887                      .dwattr $C$DW$797, DW_AT_name("newPacket")
    9888                      .dwattr $C$DW$797, DW_AT_TI_symbol_name("_newPacket")
    9889                      .dwattr $C$DW$797, DW_AT_data_member_location[DW_OP_plus_uconst 0x0]
    9890                      .dwattr $C$DW$797, DW_AT_accessibility(DW_ACCESS_public)
    9891              $C$DW$798       .dwtag  DW_TAG_member
    9892                      .dwattr $C$DW$798, DW_AT_type(*$C$DW$T$19)
    9893                      .dwattr $C$DW$798, DW_AT_name("bmRequestType")
    9894                      .dwattr $C$DW$798, DW_AT_TI_symbol_name("_bmRequestType")
    9895                      .dwattr $C$DW$798, DW_AT_data_member_location[DW_OP_plus_uconst 0x1]
    9896                      .dwattr $C$DW$798, DW_AT_accessibility(DW_ACCESS_public)
    9897              $C$DW$799       .dwtag  DW_TAG_member
    9898                      .dwattr $C$DW$799, DW_AT_type(*$C$DW$T$19)
    9899                      .dwattr $C$DW$799, DW_AT_name("bRequest")
    9900                      .dwattr $C$DW$799, DW_AT_TI_symbol_name("_bRequest")
    9901                      .dwattr $C$DW$799, DW_AT_data_member_location[DW_OP_plus_uconst 0x2]
    9902                      .dwattr $C$DW$799, DW_AT_accessibility(DW_ACCESS_public)
    9903              $C$DW$800       .dwtag  DW_TAG_member
TMS320C55x Assembler PC v4.4.1 Tue Oct 02 02:33:44 2018

Tools Copyright (c) 1996-2012 Texas Instruments Incorporated
csl_usb.asm                                                          PAGE  224

    9904                      .dwattr $C$DW$800, DW_AT_type(*$C$DW$T$19)
    9905                      .dwattr $C$DW$800, DW_AT_name("wValue")
    9906                      .dwattr $C$DW$800, DW_AT_TI_symbol_name("_wValue")
    9907                      .dwattr $C$DW$800, DW_AT_data_member_location[DW_OP_plus_uconst 0x3]
    9908                      .dwattr $C$DW$800, DW_AT_accessibility(DW_ACCESS_public)
    9909              $C$DW$801       .dwtag  DW_TAG_member
    9910                      .dwattr $C$DW$801, DW_AT_type(*$C$DW$T$19)
    9911                      .dwattr $C$DW$801, DW_AT_name("wIndex")
    9912                      .dwattr $C$DW$801, DW_AT_TI_symbol_name("_wIndex")
    9913                      .dwattr $C$DW$801, DW_AT_data_member_location[DW_OP_plus_uconst 0x4]
    9914                      .dwattr $C$DW$801, DW_AT_accessibility(DW_ACCESS_public)
    9915              $C$DW$802       .dwtag  DW_TAG_member
    9916                      .dwattr $C$DW$802, DW_AT_type(*$C$DW$T$19)
    9917                      .dwattr $C$DW$802, DW_AT_name("wLength")
    9918                      .dwattr $C$DW$802, DW_AT_TI_symbol_name("_wLength")
    9919                      .dwattr $C$DW$802, DW_AT_data_member_location[DW_OP_plus_uconst 0x5]
    9920                      .dwattr $C$DW$802, DW_AT_accessibility(DW_ACCESS_public)
    9921                      .dwendtag $C$DW$T$120
    9922              
    9923              $C$DW$T$97      .dwtag  DW_TAG_typedef, DW_AT_name("CSL_UsbSetupStruct")
    9924                      .dwattr $C$DW$T$97, DW_AT_type(*$C$DW$T$120)
    9925                      .dwattr $C$DW$T$97, DW_AT_language(DW_LANG_C)
    9926              $C$DW$T$149     .dwtag  DW_TAG_pointer_type
    9927                      .dwattr $C$DW$T$149, DW_AT_type(*$C$DW$T$97)
    9928                      .dwattr $C$DW$T$149, DW_AT_address_class(0x17)
    9929              
    9930              $C$DW$T$123     .dwtag  DW_TAG_structure_type
    9931                      .dwattr $C$DW$T$123, DW_AT_name("CSL_UsbTransfer")
    9932                      .dwattr $C$DW$T$123, DW_AT_byte_size(0x0e)
    9933              $C$DW$803       .dwtag  DW_TAG_member
    9934                      .dwattr $C$DW$803, DW_AT_type(*$C$DW$T$84)
    9935                      .dwattr $C$DW$803, DW_AT_name("dwFlags")
    9936                      .dwattr $C$DW$803, DW_AT_TI_symbol_name("_dwFlags")
    9937                      .dwattr $C$DW$803, DW_AT_data_member_location[DW_OP_plus_uconst 0x0]
    9938                      .dwattr $C$DW$803, DW_AT_accessibility(DW_ACCESS_public)
    9939              $C$DW$804       .dwtag  DW_TAG_member
    9940                      .dwattr $C$DW$804, DW_AT_type(*$C$DW$T$84)
    9941                      .dwattr $C$DW$804, DW_AT_name("dwEndpoint")
    9942                      .dwattr $C$DW$804, DW_AT_TI_symbol_name("_dwEndpoint")
    9943                      .dwattr $C$DW$804, DW_AT_data_member_location[DW_OP_plus_uconst 0x2]
    9944                      .dwattr $C$DW$804, DW_AT_accessibility(DW_ACCESS_public)
    9945              $C$DW$805       .dwtag  DW_TAG_member
    9946                      .dwattr $C$DW$805, DW_AT_type(*$C$DW$T$121)
    9947                      .dwattr $C$DW$805, DW_AT_name("pvBuffer")
    9948                      .dwattr $C$DW$805, DW_AT_TI_symbol_name("_pvBuffer")
    9949                      .dwattr $C$DW$805, DW_AT_data_member_location[DW_OP_plus_uconst 0x4]
    9950                      .dwattr $C$DW$805, DW_AT_accessibility(DW_ACCESS_public)
    9951              $C$DW$806       .dwtag  DW_TAG_member
    9952                      .dwattr $C$DW$806, DW_AT_type(*$C$DW$T$84)
    9953                      .dwattr $C$DW$806, DW_AT_name("cbBuffer")
    9954                      .dwattr $C$DW$806, DW_AT_TI_symbol_name("_cbBuffer")
    9955                      .dwattr $C$DW$806, DW_AT_data_member_location[DW_OP_plus_uconst 0x6]
    9956                      .dwattr $C$DW$806, DW_AT_accessibility(DW_ACCESS_public)
    9957              $C$DW$807       .dwtag  DW_TAG_member
    9958                      .dwattr $C$DW$807, DW_AT_type(*$C$DW$T$84)
TMS320C55x Assembler PC v4.4.1 Tue Oct 02 02:33:44 2018

Tools Copyright (c) 1996-2012 Texas Instruments Incorporated
csl_usb.asm                                                          PAGE  225

    9959                      .dwattr $C$DW$807, DW_AT_name("cbTransferred")
    9960                      .dwattr $C$DW$807, DW_AT_TI_symbol_name("_cbTransferred")
    9961                      .dwattr $C$DW$807, DW_AT_data_member_location[DW_OP_plus_uconst 0x8]
    9962                      .dwattr $C$DW$807, DW_AT_accessibility(DW_ACCESS_public)
    9963              $C$DW$808       .dwtag  DW_TAG_member
    9964                      .dwattr $C$DW$808, DW_AT_type(*$C$DW$T$84)
    9965                      .dwattr $C$DW$808, DW_AT_name("prevTxferLen")
    9966                      .dwattr $C$DW$808, DW_AT_TI_symbol_name("_prevTxferLen")
    9967                      .dwattr $C$DW$808, DW_AT_data_member_location[DW_OP_plus_uconst 0xa]
    9968                      .dwattr $C$DW$808, DW_AT_accessibility(DW_ACCESS_public)
    9969              $C$DW$809       .dwtag  DW_TAG_member
    9970                      .dwattr $C$DW$809, DW_AT_type(*$C$DW$T$81)
    9971                      .dwattr $C$DW$809, DW_AT_name("fComplete")
    9972                      .dwattr $C$DW$809, DW_AT_TI_symbol_name("_fComplete")
    9973                      .dwattr $C$DW$809, DW_AT_data_member_location[DW_OP_plus_uconst 0xc]
    9974                      .dwattr $C$DW$809, DW_AT_accessibility(DW_ACCESS_public)
    9975              $C$DW$810       .dwtag  DW_TAG_member
    9976                      .dwattr $C$DW$810, DW_AT_type(*$C$DW$T$122)
    9977                      .dwattr $C$DW$810, DW_AT_name("ioFlags")
    9978                      .dwattr $C$DW$810, DW_AT_TI_symbol_name("_ioFlags")
    9979                      .dwattr $C$DW$810, DW_AT_data_member_location[DW_OP_plus_uconst 0xd]
    9980                      .dwattr $C$DW$810, DW_AT_accessibility(DW_ACCESS_public)
    9981                      .dwendtag $C$DW$T$123
    9982              
    9983              $C$DW$T$117     .dwtag  DW_TAG_typedef, DW_AT_name("CSL_UsbTransfer")
    9984                      .dwattr $C$DW$T$117, DW_AT_type(*$C$DW$T$123)
    9985                      .dwattr $C$DW$T$117, DW_AT_language(DW_LANG_C)
    9986              $C$DW$T$118     .dwtag  DW_TAG_pointer_type
    9987                      .dwattr $C$DW$T$118, DW_AT_type(*$C$DW$T$117)
    9988                      .dwattr $C$DW$T$118, DW_AT_address_class(0x17)
    9989              $C$DW$T$150     .dwtag  DW_TAG_typedef, DW_AT_name("pUsbTransfer")
    9990                      .dwattr $C$DW$T$150, DW_AT_type(*$C$DW$T$118)
    9991                      .dwattr $C$DW$T$150, DW_AT_language(DW_LANG_C)
    9992              $C$DW$T$3       .dwtag  DW_TAG_pointer_type
    9993                      .dwattr $C$DW$T$3, DW_AT_address_class(0x17)
    9994              $C$DW$T$121     .dwtag  DW_TAG_typedef, DW_AT_name("PVOID")
    9995                      .dwattr $C$DW$T$121, DW_AT_type(*$C$DW$T$3)
    9996                      .dwattr $C$DW$T$121, DW_AT_language(DW_LANG_C)
    9997              
    9998              $C$DW$T$71      .dwtag  DW_TAG_subroutine_type
    9999                      .dwattr $C$DW$T$71, DW_AT_language(DW_LANG_C)
   10000              $C$DW$811       .dwtag  DW_TAG_formal_parameter
   10001                      .dwattr $C$DW$811, DW_AT_type(*$C$DW$T$19)
   10002                      .dwendtag $C$DW$T$71
   10003              
   10004              $C$DW$T$72      .dwtag  DW_TAG_pointer_type
   10005                      .dwattr $C$DW$T$72, DW_AT_type(*$C$DW$T$71)
   10006                      .dwattr $C$DW$T$72, DW_AT_address_class(0x20)
   10007              $C$DW$T$73      .dwtag  DW_TAG_typedef, DW_AT_name("CSL_USB_APP_CALLBACK")
   10008                      .dwattr $C$DW$T$73, DW_AT_type(*$C$DW$T$72)
   10009                      .dwattr $C$DW$T$73, DW_AT_language(DW_LANG_C)
   10010              
   10011              $C$DW$T$111     .dwtag  DW_TAG_subroutine_type
   10012                      .dwattr $C$DW$T$111, DW_AT_language(DW_LANG_C)
   10013              $C$DW$T$112     .dwtag  DW_TAG_pointer_type
TMS320C55x Assembler PC v4.4.1 Tue Oct 02 02:33:44 2018

Tools Copyright (c) 1996-2012 Texas Instruments Incorporated
csl_usb.asm                                                          PAGE  226

   10014                      .dwattr $C$DW$T$112, DW_AT_type(*$C$DW$T$111)
   10015                      .dwattr $C$DW$T$112, DW_AT_address_class(0x20)
   10016              $C$DW$T$113     .dwtag  DW_TAG_typedef, DW_AT_name("CSL_USB_EVENT_ISR")
   10017                      .dwattr $C$DW$T$113, DW_AT_type(*$C$DW$T$112)
   10018                      .dwattr $C$DW$T$113, DW_AT_language(DW_LANG_C)
   10019              $C$DW$T$4       .dwtag  DW_TAG_base_type
   10020                      .dwattr $C$DW$T$4, DW_AT_encoding(DW_ATE_boolean)
   10021                      .dwattr $C$DW$T$4, DW_AT_name("bool")
   10022                      .dwattr $C$DW$T$4, DW_AT_byte_size(0x01)
   10023              $C$DW$T$5       .dwtag  DW_TAG_base_type
   10024                      .dwattr $C$DW$T$5, DW_AT_encoding(DW_ATE_signed_char)
   10025                      .dwattr $C$DW$T$5, DW_AT_name("signed char")
   10026                      .dwattr $C$DW$T$5, DW_AT_byte_size(0x01)
   10027              $C$DW$T$6       .dwtag  DW_TAG_base_type
   10028                      .dwattr $C$DW$T$6, DW_AT_encoding(DW_ATE_unsigned_char)
   10029                      .dwattr $C$DW$T$6, DW_AT_name("unsigned char")
   10030                      .dwattr $C$DW$T$6, DW_AT_byte_size(0x01)
   10031              $C$DW$T$7       .dwtag  DW_TAG_base_type
   10032                      .dwattr $C$DW$T$7, DW_AT_encoding(DW_ATE_signed_char)
   10033                      .dwattr $C$DW$T$7, DW_AT_name("wchar_t")
   10034                      .dwattr $C$DW$T$7, DW_AT_byte_size(0x01)
   10035              $C$DW$T$8       .dwtag  DW_TAG_base_type
   10036                      .dwattr $C$DW$T$8, DW_AT_encoding(DW_ATE_signed)
   10037                      .dwattr $C$DW$T$8, DW_AT_name("short")
   10038                      .dwattr $C$DW$T$8, DW_AT_byte_size(0x01)
   10039              $C$DW$T$74      .dwtag  DW_TAG_typedef, DW_AT_name("Int16")
   10040                      .dwattr $C$DW$T$74, DW_AT_type(*$C$DW$T$8)
   10041                      .dwattr $C$DW$T$74, DW_AT_language(DW_LANG_C)
   10042              $C$DW$T$75      .dwtag  DW_TAG_typedef, DW_AT_name("CSL_Status")
   10043                      .dwattr $C$DW$T$75, DW_AT_type(*$C$DW$T$74)
   10044                      .dwattr $C$DW$T$75, DW_AT_language(DW_LANG_C)
   10045              
   10046              $C$DW$T$76      .dwtag  DW_TAG_subroutine_type
   10047                      .dwattr $C$DW$T$76, DW_AT_type(*$C$DW$T$75)
   10048                      .dwattr $C$DW$T$76, DW_AT_language(DW_LANG_C)
   10049              $C$DW$812       .dwtag  DW_TAG_formal_parameter
   10050                      .dwattr $C$DW$812, DW_AT_type(*$C$DW$T$3)
   10051              $C$DW$813       .dwtag  DW_TAG_formal_parameter
   10052                      .dwattr $C$DW$813, DW_AT_type(*$C$DW$T$3)
   10053                      .dwendtag $C$DW$T$76
   10054              
   10055              $C$DW$T$77      .dwtag  DW_TAG_pointer_type
   10056                      .dwattr $C$DW$T$77, DW_AT_type(*$C$DW$T$76)
   10057                      .dwattr $C$DW$T$77, DW_AT_address_class(0x20)
   10058              $C$DW$T$78      .dwtag  DW_TAG_typedef, DW_AT_name("CSL_USB_APP_TRANSFER_CALLBACK")
   10059                      .dwattr $C$DW$T$78, DW_AT_type(*$C$DW$T$77)
   10060                      .dwattr $C$DW$T$78, DW_AT_language(DW_LANG_C)
   10061              $C$DW$T$124     .dwtag  DW_TAG_pointer_type
   10062                      .dwattr $C$DW$T$124, DW_AT_type(*$C$DW$T$75)
   10063                      .dwattr $C$DW$T$124, DW_AT_address_class(0x17)
   10064              $C$DW$T$9       .dwtag  DW_TAG_base_type
   10065                      .dwattr $C$DW$T$9, DW_AT_encoding(DW_ATE_unsigned)
   10066                      .dwattr $C$DW$T$9, DW_AT_name("unsigned short")
   10067                      .dwattr $C$DW$T$9, DW_AT_byte_size(0x01)
   10068              $C$DW$T$19      .dwtag  DW_TAG_typedef, DW_AT_name("Uint16")
TMS320C55x Assembler PC v4.4.1 Tue Oct 02 02:33:44 2018

Tools Copyright (c) 1996-2012 Texas Instruments Incorporated
csl_usb.asm                                                          PAGE  227

   10069                      .dwattr $C$DW$T$19, DW_AT_type(*$C$DW$T$9)
   10070                      .dwattr $C$DW$T$19, DW_AT_language(DW_LANG_C)
   10071              $C$DW$T$173     .dwtag  DW_TAG_typedef, DW_AT_name("CSL_UsbByteCount")
   10072                      .dwattr $C$DW$T$173, DW_AT_type(*$C$DW$T$19)
   10073                      .dwattr $C$DW$T$173, DW_AT_language(DW_LANG_C)
   10074              $C$DW$T$175     .dwtag  DW_TAG_typedef, DW_AT_name("CSL_UsbEventMask")
   10075                      .dwattr $C$DW$T$175, DW_AT_type(*$C$DW$T$19)
   10076                      .dwattr $C$DW$T$175, DW_AT_language(DW_LANG_C)
   10077              $C$DW$T$177     .dwtag  DW_TAG_typedef, DW_AT_name("CSL_UsbFrameNum")
   10078                      .dwattr $C$DW$T$177, DW_AT_type(*$C$DW$T$19)
   10079                      .dwattr $C$DW$T$177, DW_AT_language(DW_LANG_C)
   10080              $C$DW$T$122     .dwtag  DW_TAG_typedef, DW_AT_name("CSL_UsbIoFlags")
   10081                      .dwattr $C$DW$T$122, DW_AT_type(*$C$DW$T$19)
   10082                      .dwattr $C$DW$T$122, DW_AT_language(DW_LANG_C)
   10083              $C$DW$814       .dwtag  DW_TAG_TI_far_type
   10084                      .dwattr $C$DW$814, DW_AT_type(*$C$DW$T$19)
   10085              $C$DW$T$20      .dwtag  DW_TAG_volatile_type
   10086                      .dwattr $C$DW$T$20, DW_AT_type(*$C$DW$814)
   10087              
   10088              $C$DW$T$21      .dwtag  DW_TAG_array_type
   10089                      .dwattr $C$DW$T$21, DW_AT_type(*$C$DW$T$20)
   10090                      .dwattr $C$DW$T$21, DW_AT_language(DW_LANG_C)
   10091                      .dwattr $C$DW$T$21, DW_AT_byte_size(0x02)
   10092              $C$DW$815       .dwtag  DW_TAG_subrange_type
   10093                      .dwattr $C$DW$815, DW_AT_upper_bound(0x01)
   10094                      .dwendtag $C$DW$T$21
   10095              
   10096              
   10097              $C$DW$T$23      .dwtag  DW_TAG_array_type
   10098                      .dwattr $C$DW$T$23, DW_AT_type(*$C$DW$T$20)
   10099                      .dwattr $C$DW$T$23, DW_AT_language(DW_LANG_C)
   10100                      .dwattr $C$DW$T$23, DW_AT_byte_size(0x07)
   10101              $C$DW$816       .dwtag  DW_TAG_subrange_type
   10102                      .dwattr $C$DW$816, DW_AT_upper_bound(0x06)
   10103                      .dwendtag $C$DW$T$23
   10104              
   10105              
   10106              $C$DW$T$25      .dwtag  DW_TAG_array_type
   10107                      .dwattr $C$DW$T$25, DW_AT_type(*$C$DW$T$20)
   10108                      .dwattr $C$DW$T$25, DW_AT_language(DW_LANG_C)
   10109                      .dwattr $C$DW$T$25, DW_AT_byte_size(0x06)
   10110              $C$DW$817       .dwtag  DW_TAG_subrange_type
   10111                      .dwattr $C$DW$817, DW_AT_upper_bound(0x05)
   10112                      .dwendtag $C$DW$T$25
   10113              
   10114              
   10115              $C$DW$T$26      .dwtag  DW_TAG_array_type
   10116                      .dwattr $C$DW$T$26, DW_AT_type(*$C$DW$T$20)
   10117                      .dwattr $C$DW$T$26, DW_AT_language(DW_LANG_C)
   10118                      .dwattr $C$DW$T$26, DW_AT_byte_size(0x0e)
   10119              $C$DW$818       .dwtag  DW_TAG_subrange_type
   10120                      .dwattr $C$DW$818, DW_AT_upper_bound(0x0d)
   10121                      .dwendtag $C$DW$T$26
   10122              
   10123              
TMS320C55x Assembler PC v4.4.1 Tue Oct 02 02:33:44 2018

Tools Copyright (c) 1996-2012 Texas Instruments Incorporated
csl_usb.asm                                                          PAGE  228

   10124              $C$DW$T$29      .dwtag  DW_TAG_array_type
   10125                      .dwattr $C$DW$T$29, DW_AT_type(*$C$DW$T$20)
   10126                      .dwattr $C$DW$T$29, DW_AT_language(DW_LANG_C)
   10127                      .dwattr $C$DW$T$29, DW_AT_byte_size(0x0a)
   10128              $C$DW$819       .dwtag  DW_TAG_subrange_type
   10129                      .dwattr $C$DW$819, DW_AT_upper_bound(0x09)
   10130                      .dwendtag $C$DW$T$29
   10131              
   10132              
   10133              $C$DW$T$31      .dwtag  DW_TAG_array_type
   10134                      .dwattr $C$DW$T$31, DW_AT_type(*$C$DW$T$20)
   10135                      .dwattr $C$DW$T$31, DW_AT_language(DW_LANG_C)
   10136                      .dwattr $C$DW$T$31, DW_AT_byte_size(0x0c)
   10137              $C$DW$820       .dwtag  DW_TAG_subrange_type
   10138                      .dwattr $C$DW$820, DW_AT_upper_bound(0x0b)
   10139                      .dwendtag $C$DW$T$31
   10140              
   10141              
   10142              $C$DW$T$33      .dwtag  DW_TAG_array_type
   10143                      .dwattr $C$DW$T$33, DW_AT_type(*$C$DW$T$20)
   10144                      .dwattr $C$DW$T$33, DW_AT_language(DW_LANG_C)
   10145                      .dwattr $C$DW$T$33, DW_AT_byte_size(0x03)
   10146              $C$DW$821       .dwtag  DW_TAG_subrange_type
   10147                      .dwattr $C$DW$821, DW_AT_upper_bound(0x02)
   10148                      .dwendtag $C$DW$T$33
   10149              
   10150              
   10151              $C$DW$T$35      .dwtag  DW_TAG_array_type
   10152                      .dwattr $C$DW$T$35, DW_AT_type(*$C$DW$T$20)
   10153                      .dwattr $C$DW$T$35, DW_AT_language(DW_LANG_C)
   10154                      .dwattr $C$DW$T$35, DW_AT_byte_size(0x3a3)
   10155              $C$DW$822       .dwtag  DW_TAG_subrange_type
   10156                      .dwattr $C$DW$822, DW_AT_upper_bound(0x3a2)
   10157                      .dwendtag $C$DW$T$35
   10158              
   10159              
   10160              $C$DW$T$36      .dwtag  DW_TAG_array_type
   10161                      .dwattr $C$DW$T$36, DW_AT_type(*$C$DW$T$20)
   10162                      .dwattr $C$DW$T$36, DW_AT_language(DW_LANG_C)
   10163                      .dwattr $C$DW$T$36, DW_AT_byte_size(0x04)
   10164              $C$DW$823       .dwtag  DW_TAG_subrange_type
   10165                      .dwattr $C$DW$823, DW_AT_upper_bound(0x03)
   10166                      .dwendtag $C$DW$T$36
   10167              
   10168              
   10169              $C$DW$T$37      .dwtag  DW_TAG_array_type
   10170                      .dwattr $C$DW$T$37, DW_AT_type(*$C$DW$T$20)
   10171                      .dwattr $C$DW$T$37, DW_AT_language(DW_LANG_C)
   10172                      .dwattr $C$DW$T$37, DW_AT_byte_size(0x2e)
   10173              $C$DW$824       .dwtag  DW_TAG_subrange_type
   10174                      .dwattr $C$DW$824, DW_AT_upper_bound(0x2d)
   10175                      .dwendtag $C$DW$T$37
   10176              
   10177              
   10178              $C$DW$T$38      .dwtag  DW_TAG_array_type
TMS320C55x Assembler PC v4.4.1 Tue Oct 02 02:33:44 2018

Tools Copyright (c) 1996-2012 Texas Instruments Incorporated
csl_usb.asm                                                          PAGE  229

   10179                      .dwattr $C$DW$T$38, DW_AT_type(*$C$DW$T$20)
   10180                      .dwattr $C$DW$T$38, DW_AT_language(DW_LANG_C)
   10181                      .dwattr $C$DW$T$38, DW_AT_byte_size(0x13)
   10182              $C$DW$825       .dwtag  DW_TAG_subrange_type
   10183                      .dwattr $C$DW$825, DW_AT_upper_bound(0x12)
   10184                      .dwendtag $C$DW$T$38
   10185              
   10186              
   10187              $C$DW$T$41      .dwtag  DW_TAG_array_type
   10188                      .dwattr $C$DW$T$41, DW_AT_type(*$C$DW$T$20)
   10189                      .dwattr $C$DW$T$41, DW_AT_language(DW_LANG_C)
   10190                      .dwattr $C$DW$T$41, DW_AT_byte_size(0x59)
   10191              $C$DW$826       .dwtag  DW_TAG_subrange_type
   10192                      .dwattr $C$DW$826, DW_AT_upper_bound(0x58)
   10193                      .dwendtag $C$DW$T$41
   10194              
   10195              
   10196              $C$DW$T$44      .dwtag  DW_TAG_array_type
   10197                      .dwattr $C$DW$T$44, DW_AT_type(*$C$DW$T$20)
   10198                      .dwattr $C$DW$T$44, DW_AT_language(DW_LANG_C)
   10199                      .dwattr $C$DW$T$44, DW_AT_byte_size(0xaaf)
   10200              $C$DW$827       .dwtag  DW_TAG_subrange_type
   10201                      .dwattr $C$DW$827, DW_AT_upper_bound(0xaae)
   10202                      .dwendtag $C$DW$T$44
   10203              
   10204              
   10205              $C$DW$T$45      .dwtag  DW_TAG_array_type
   10206                      .dwattr $C$DW$T$45, DW_AT_type(*$C$DW$T$20)
   10207                      .dwattr $C$DW$T$45, DW_AT_language(DW_LANG_C)
   10208                      .dwattr $C$DW$T$45, DW_AT_byte_size(0x7f7)
   10209              $C$DW$828       .dwtag  DW_TAG_subrange_type
   10210                      .dwattr $C$DW$828, DW_AT_upper_bound(0x7f6)
   10211                      .dwendtag $C$DW$T$45
   10212              
   10213              
   10214              $C$DW$T$48      .dwtag  DW_TAG_array_type
   10215                      .dwattr $C$DW$T$48, DW_AT_type(*$C$DW$T$20)
   10216                      .dwattr $C$DW$T$48, DW_AT_language(DW_LANG_C)
   10217                      .dwattr $C$DW$T$48, DW_AT_byte_size(0x780)
   10218              $C$DW$829       .dwtag  DW_TAG_subrange_type
   10219                      .dwattr $C$DW$829, DW_AT_upper_bound(0x77f)
   10220                      .dwendtag $C$DW$T$48
   10221              
   10222              
   10223              $C$DW$T$49      .dwtag  DW_TAG_array_type
   10224                      .dwattr $C$DW$T$49, DW_AT_type(*$C$DW$T$20)
   10225                      .dwattr $C$DW$T$49, DW_AT_language(DW_LANG_C)
   10226                      .dwattr $C$DW$T$49, DW_AT_byte_size(0x7fe)
   10227              $C$DW$830       .dwtag  DW_TAG_subrange_type
   10228                      .dwattr $C$DW$830, DW_AT_upper_bound(0x7fd)
   10229                      .dwendtag $C$DW$T$49
   10230              
   10231              
   10232              $C$DW$T$52      .dwtag  DW_TAG_array_type
   10233                      .dwattr $C$DW$T$52, DW_AT_type(*$C$DW$T$20)
TMS320C55x Assembler PC v4.4.1 Tue Oct 02 02:33:44 2018

Tools Copyright (c) 1996-2012 Texas Instruments Incorporated
csl_usb.asm                                                          PAGE  230

   10234                      .dwattr $C$DW$T$52, DW_AT_language(DW_LANG_C)
   10235                      .dwattr $C$DW$T$52, DW_AT_byte_size(0x1700)
   10236              $C$DW$831       .dwtag  DW_TAG_subrange_type
   10237                      .dwattr $C$DW$831, DW_AT_upper_bound(0x16ff)
   10238                      .dwendtag $C$DW$T$52
   10239              
   10240              
   10241              $C$DW$T$53      .dwtag  DW_TAG_array_type
   10242                      .dwattr $C$DW$T$53, DW_AT_type(*$C$DW$T$20)
   10243                      .dwattr $C$DW$T$53, DW_AT_language(DW_LANG_C)
   10244                      .dwattr $C$DW$T$53, DW_AT_byte_size(0x16)
   10245              $C$DW$832       .dwtag  DW_TAG_subrange_type
   10246                      .dwattr $C$DW$832, DW_AT_upper_bound(0x15)
   10247                      .dwendtag $C$DW$T$53
   10248              
   10249              
   10250              $C$DW$T$54      .dwtag  DW_TAG_array_type
   10251                      .dwattr $C$DW$T$54, DW_AT_type(*$C$DW$T$20)
   10252                      .dwattr $C$DW$T$54, DW_AT_language(DW_LANG_C)
   10253                      .dwattr $C$DW$T$54, DW_AT_byte_size(0x52)
   10254              $C$DW$833       .dwtag  DW_TAG_subrange_type
   10255                      .dwattr $C$DW$833, DW_AT_upper_bound(0x51)
   10256                      .dwendtag $C$DW$T$54
   10257              
   10258              
   10259              $C$DW$T$55      .dwtag  DW_TAG_array_type
   10260                      .dwattr $C$DW$T$55, DW_AT_type(*$C$DW$T$20)
   10261                      .dwattr $C$DW$T$55, DW_AT_language(DW_LANG_C)
   10262                      .dwattr $C$DW$T$55, DW_AT_byte_size(0xf66)
   10263              $C$DW$834       .dwtag  DW_TAG_subrange_type
   10264                      .dwattr $C$DW$834, DW_AT_upper_bound(0xf65)
   10265                      .dwendtag $C$DW$T$55
   10266              
   10267              
   10268              $C$DW$T$58      .dwtag  DW_TAG_array_type
   10269                      .dwattr $C$DW$T$58, DW_AT_type(*$C$DW$T$20)
   10270                      .dwattr $C$DW$T$58, DW_AT_language(DW_LANG_C)
   10271                      .dwattr $C$DW$T$58, DW_AT_byte_size(0xf00)
   10272              $C$DW$835       .dwtag  DW_TAG_subrange_type
   10273                      .dwattr $C$DW$835, DW_AT_upper_bound(0xeff)
   10274                      .dwendtag $C$DW$T$58
   10275              
   10276              
   10277              $C$DW$T$61      .dwtag  DW_TAG_array_type
   10278                      .dwattr $C$DW$T$61, DW_AT_type(*$C$DW$T$20)
   10279                      .dwattr $C$DW$T$61, DW_AT_language(DW_LANG_C)
   10280                      .dwattr $C$DW$T$61, DW_AT_byte_size(0x400)
   10281              $C$DW$836       .dwtag  DW_TAG_subrange_type
   10282                      .dwattr $C$DW$836, DW_AT_upper_bound(0x3ff)
   10283                      .dwendtag $C$DW$T$61
   10284              
   10285              
   10286              $C$DW$T$65      .dwtag  DW_TAG_array_type
   10287                      .dwattr $C$DW$T$65, DW_AT_type(*$C$DW$T$20)
   10288                      .dwattr $C$DW$T$65, DW_AT_language(DW_LANG_C)
TMS320C55x Assembler PC v4.4.1 Tue Oct 02 02:33:44 2018

Tools Copyright (c) 1996-2012 Texas Instruments Incorporated
csl_usb.asm                                                          PAGE  231

   10289                      .dwattr $C$DW$T$65, DW_AT_byte_size(0x05)
   10290              $C$DW$837       .dwtag  DW_TAG_subrange_type
   10291                      .dwattr $C$DW$837, DW_AT_upper_bound(0x04)
   10292                      .dwendtag $C$DW$T$65
   10293              
   10294              $C$DW$T$80      .dwtag  DW_TAG_typedef, DW_AT_name("WORD")
   10295                      .dwattr $C$DW$T$80, DW_AT_type(*$C$DW$T$19)
   10296                      .dwattr $C$DW$T$80, DW_AT_language(DW_LANG_C)
   10297              $C$DW$T$82      .dwtag  DW_TAG_pointer_type
   10298                      .dwattr $C$DW$T$82, DW_AT_type(*$C$DW$T$80)
   10299                      .dwattr $C$DW$T$82, DW_AT_address_class(0x17)
   10300              $C$DW$T$98      .dwtag  DW_TAG_pointer_type
   10301                      .dwattr $C$DW$T$98, DW_AT_type(*$C$DW$T$19)
   10302                      .dwattr $C$DW$T$98, DW_AT_address_class(0x17)
   10303              
   10304              $C$DW$T$99      .dwtag  DW_TAG_array_type
   10305                      .dwattr $C$DW$T$99, DW_AT_type(*$C$DW$T$98)
   10306                      .dwattr $C$DW$T$99, DW_AT_language(DW_LANG_C)
   10307                      .dwattr $C$DW$T$99, DW_AT_byte_size(0x08)
   10308              $C$DW$838       .dwtag  DW_TAG_subrange_type
   10309                      .dwattr $C$DW$838, DW_AT_upper_bound(0x03)
   10310                      .dwendtag $C$DW$T$99
   10311              
   10312              
   10313              $C$DW$T$187     .dwtag  DW_TAG_array_type
   10314                      .dwattr $C$DW$T$187, DW_AT_type(*$C$DW$T$19)
   10315                      .dwattr $C$DW$T$187, DW_AT_language(DW_LANG_C)
   10316                      .dwattr $C$DW$T$187, DW_AT_byte_size(0x04)
   10317              $C$DW$839       .dwtag  DW_TAG_subrange_type
   10318                      .dwattr $C$DW$839, DW_AT_upper_bound(0x03)
   10319                      .dwendtag $C$DW$T$187
   10320              
   10321              
   10322              $C$DW$T$189     .dwtag  DW_TAG_array_type
   10323                      .dwattr $C$DW$T$189, DW_AT_type(*$C$DW$T$19)
   10324                      .dwattr $C$DW$T$189, DW_AT_language(DW_LANG_C)
   10325                      .dwattr $C$DW$T$189, DW_AT_byte_size(0x08)
   10326              $C$DW$840       .dwtag  DW_TAG_subrange_type
   10327                      .dwattr $C$DW$840, DW_AT_upper_bound(0x07)
   10328                      .dwendtag $C$DW$T$189
   10329              
   10330              $C$DW$T$10      .dwtag  DW_TAG_base_type
   10331                      .dwattr $C$DW$T$10, DW_AT_encoding(DW_ATE_signed)
   10332                      .dwattr $C$DW$T$10, DW_AT_name("int")
   10333                      .dwattr $C$DW$T$10, DW_AT_byte_size(0x01)
   10334              $C$DW$T$81      .dwtag  DW_TAG_typedef, DW_AT_name("Bool")
   10335                      .dwattr $C$DW$T$81, DW_AT_type(*$C$DW$T$10)
   10336                      .dwattr $C$DW$T$81, DW_AT_language(DW_LANG_C)
   10337              $C$DW$T$11      .dwtag  DW_TAG_base_type
   10338                      .dwattr $C$DW$T$11, DW_AT_encoding(DW_ATE_unsigned)
   10339                      .dwattr $C$DW$T$11, DW_AT_name("unsigned int")
   10340                      .dwattr $C$DW$T$11, DW_AT_byte_size(0x01)
   10341              $C$DW$T$12      .dwtag  DW_TAG_base_type
   10342                      .dwattr $C$DW$T$12, DW_AT_encoding(DW_ATE_signed)
   10343                      .dwattr $C$DW$T$12, DW_AT_name("long")
TMS320C55x Assembler PC v4.4.1 Tue Oct 02 02:33:44 2018

Tools Copyright (c) 1996-2012 Texas Instruments Incorporated
csl_usb.asm                                                          PAGE  232

   10344                      .dwattr $C$DW$T$12, DW_AT_byte_size(0x02)
   10345              $C$DW$T$13      .dwtag  DW_TAG_base_type
   10346                      .dwattr $C$DW$T$13, DW_AT_encoding(DW_ATE_unsigned)
   10347                      .dwattr $C$DW$T$13, DW_AT_name("unsigned long")
   10348                      .dwattr $C$DW$T$13, DW_AT_byte_size(0x02)
   10349              $C$DW$T$83      .dwtag  DW_TAG_typedef, DW_AT_name("Uint32")
   10350                      .dwattr $C$DW$T$83, DW_AT_type(*$C$DW$T$13)
   10351                      .dwattr $C$DW$T$83, DW_AT_language(DW_LANG_C)
   10352              $C$DW$T$84      .dwtag  DW_TAG_typedef, DW_AT_name("DWORD")
   10353                      .dwattr $C$DW$T$84, DW_AT_type(*$C$DW$T$83)
   10354                      .dwattr $C$DW$T$84, DW_AT_language(DW_LANG_C)
   10355              $C$DW$T$85      .dwtag  DW_TAG_pointer_type
   10356                      .dwattr $C$DW$T$85, DW_AT_type(*$C$DW$T$84)
   10357                      .dwattr $C$DW$T$85, DW_AT_address_class(0x17)
   10358              
   10359              $C$DW$T$86      .dwtag  DW_TAG_array_type
   10360                      .dwattr $C$DW$T$86, DW_AT_type(*$C$DW$T$84)
   10361                      .dwattr $C$DW$T$86, DW_AT_language(DW_LANG_C)
   10362                      .dwattr $C$DW$T$86, DW_AT_byte_size(0x40)
   10363              $C$DW$841       .dwtag  DW_TAG_subrange_type
   10364                      .dwattr $C$DW$841, DW_AT_upper_bound(0x1f)
   10365                      .dwendtag $C$DW$T$86
   10366              
   10367              $C$DW$842       .dwtag  DW_TAG_TI_far_type
   10368                      .dwattr $C$DW$842, DW_AT_type(*$C$DW$T$83)
   10369              $C$DW$T$193     .dwtag  DW_TAG_volatile_type
   10370                      .dwattr $C$DW$T$193, DW_AT_type(*$C$DW$842)
   10371              $C$DW$T$14      .dwtag  DW_TAG_base_type
   10372                      .dwattr $C$DW$T$14, DW_AT_encoding(DW_ATE_signed)
   10373                      .dwattr $C$DW$T$14, DW_AT_name("long long")
   10374                      .dwattr $C$DW$T$14, DW_AT_byte_size(0x04)
   10375                      .dwattr $C$DW$T$14, DW_AT_bit_size(0x28)
   10376                      .dwattr $C$DW$T$14, DW_AT_bit_offset(0x18)
   10377              $C$DW$T$15      .dwtag  DW_TAG_base_type
   10378                      .dwattr $C$DW$T$15, DW_AT_encoding(DW_ATE_unsigned)
   10379                      .dwattr $C$DW$T$15, DW_AT_name("unsigned long long")
   10380                      .dwattr $C$DW$T$15, DW_AT_byte_size(0x04)
   10381                      .dwattr $C$DW$T$15, DW_AT_bit_size(0x28)
   10382                      .dwattr $C$DW$T$15, DW_AT_bit_offset(0x18)
   10383              $C$DW$T$16      .dwtag  DW_TAG_base_type
   10384                      .dwattr $C$DW$T$16, DW_AT_encoding(DW_ATE_float)
   10385                      .dwattr $C$DW$T$16, DW_AT_name("float")
   10386                      .dwattr $C$DW$T$16, DW_AT_byte_size(0x02)
   10387              $C$DW$T$17      .dwtag  DW_TAG_base_type
   10388                      .dwattr $C$DW$T$17, DW_AT_encoding(DW_ATE_float)
   10389                      .dwattr $C$DW$T$17, DW_AT_name("double")
   10390                      .dwattr $C$DW$T$17, DW_AT_byte_size(0x02)
   10391              $C$DW$T$18      .dwtag  DW_TAG_base_type
   10392                      .dwattr $C$DW$T$18, DW_AT_encoding(DW_ATE_float)
   10393                      .dwattr $C$DW$T$18, DW_AT_name("long double")
   10394                      .dwattr $C$DW$T$18, DW_AT_byte_size(0x02)
   10395                      .dwattr $C$DW$CU, DW_AT_language(DW_LANG_C)
   10396              
   10397              ;***************************************************************
   10398              ;* DWARF CIE ENTRIES                                           *
TMS320C55x Assembler PC v4.4.1 Tue Oct 02 02:33:44 2018

Tools Copyright (c) 1996-2012 Texas Instruments Incorporated
csl_usb.asm                                                          PAGE  233

   10399              ;***************************************************************
   10400              
   10401              $C$DW$CIE       .dwcie 91
   10402                      .dwcfi  cfa_register, 36
   10403                      .dwcfi  cfa_offset, 0
   10404                      .dwcfi  undefined, 0
   10405                      .dwcfi  undefined, 1
   10406                      .dwcfi  undefined, 2
   10407                      .dwcfi  undefined, 3
   10408                      .dwcfi  undefined, 4
   10409                      .dwcfi  undefined, 5
   10410                      .dwcfi  undefined, 6
   10411                      .dwcfi  undefined, 7
   10412                      .dwcfi  undefined, 8
   10413                      .dwcfi  undefined, 9
   10414                      .dwcfi  undefined, 10
   10415                      .dwcfi  undefined, 11
   10416                      .dwcfi  undefined, 12
   10417                      .dwcfi  undefined, 13
   10418                      .dwcfi  same_value, 14
   10419                      .dwcfi  same_value, 15
   10420                      .dwcfi  undefined, 16
   10421                      .dwcfi  undefined, 17
   10422                      .dwcfi  undefined, 18
   10423                      .dwcfi  undefined, 19
   10424                      .dwcfi  undefined, 20
   10425                      .dwcfi  undefined, 21
   10426                      .dwcfi  undefined, 22
   10427                      .dwcfi  undefined, 23
   10428                      .dwcfi  undefined, 24
   10429                      .dwcfi  undefined, 25
   10430                      .dwcfi  same_value, 26
   10431                      .dwcfi  same_value, 27
   10432                      .dwcfi  same_value, 28
   10433                      .dwcfi  same_value, 29
   10434                      .dwcfi  same_value, 30
   10435                      .dwcfi  same_value, 31
   10436                      .dwcfi  undefined, 32
   10437                      .dwcfi  undefined, 33
   10438                      .dwcfi  undefined, 34
   10439                      .dwcfi  undefined, 35
   10440                      .dwcfi  undefined, 36
   10441                      .dwcfi  undefined, 37
   10442                      .dwcfi  undefined, 38
   10443                      .dwcfi  undefined, 39
   10444                      .dwcfi  undefined, 40
   10445                      .dwcfi  undefined, 41
   10446                      .dwcfi  undefined, 42
   10447                      .dwcfi  undefined, 43
   10448                      .dwcfi  undefined, 44
   10449                      .dwcfi  undefined, 45
   10450                      .dwcfi  undefined, 46
   10451                      .dwcfi  undefined, 47
   10452                      .dwcfi  undefined, 48
   10453                      .dwcfi  undefined, 49
TMS320C55x Assembler PC v4.4.1 Tue Oct 02 02:33:44 2018

Tools Copyright (c) 1996-2012 Texas Instruments Incorporated
csl_usb.asm                                                          PAGE  234

   10454                      .dwcfi  undefined, 50
   10455                      .dwcfi  undefined, 51
   10456                      .dwcfi  undefined, 52
   10457                      .dwcfi  undefined, 53
   10458                      .dwcfi  undefined, 54
   10459                      .dwcfi  undefined, 55
   10460                      .dwcfi  undefined, 56
   10461                      .dwcfi  undefined, 57
   10462                      .dwcfi  undefined, 58
   10463                      .dwcfi  undefined, 59
   10464                      .dwcfi  undefined, 60
   10465                      .dwcfi  undefined, 61
   10466                      .dwcfi  undefined, 62
   10467                      .dwcfi  undefined, 63
   10468                      .dwcfi  undefined, 64
   10469                      .dwcfi  undefined, 65
   10470                      .dwcfi  undefined, 66
   10471                      .dwcfi  undefined, 67
   10472                      .dwcfi  undefined, 68
   10473                      .dwcfi  undefined, 69
   10474                      .dwcfi  undefined, 70
   10475                      .dwcfi  undefined, 71
   10476                      .dwcfi  undefined, 72
   10477                      .dwcfi  undefined, 73
   10478                      .dwcfi  undefined, 74
   10479                      .dwcfi  undefined, 75
   10480                      .dwcfi  undefined, 76
   10481                      .dwcfi  undefined, 77
   10482                      .dwcfi  undefined, 78
   10483                      .dwcfi  undefined, 79
   10484                      .dwcfi  undefined, 80
   10485                      .dwcfi  undefined, 81
   10486                      .dwcfi  undefined, 82
   10487                      .dwcfi  undefined, 83
   10488                      .dwcfi  undefined, 84
   10489                      .dwcfi  undefined, 85
   10490                      .dwcfi  undefined, 86
   10491                      .dwcfi  undefined, 87
   10492                      .dwcfi  undefined, 88
   10493                      .dwcfi  undefined, 89
   10494                      .dwcfi  undefined, 90
   10495                      .dwcfi  undefined, 91
   10496                      .dwendentry
   10497              
   10498              ;***************************************************************
   10499              ;* DWARF REGISTER MAP                                          *
   10500              ;***************************************************************
   10501              
   10502              $C$DW$843       .dwtag  DW_TAG_TI_assign_register, DW_AT_name("AC0")
   10503                      .dwattr $C$DW$843, DW_AT_location[DW_OP_reg0]
   10504              $C$DW$844       .dwtag  DW_TAG_TI_assign_register, DW_AT_name("AC0")
   10505                      .dwattr $C$DW$844, DW_AT_location[DW_OP_reg1]
   10506              $C$DW$845       .dwtag  DW_TAG_TI_assign_register, DW_AT_name("AC0_G")
   10507                      .dwattr $C$DW$845, DW_AT_location[DW_OP_reg2]
   10508              $C$DW$846       .dwtag  DW_TAG_TI_assign_register, DW_AT_name("AC1")
TMS320C55x Assembler PC v4.4.1 Tue Oct 02 02:33:44 2018

Tools Copyright (c) 1996-2012 Texas Instruments Incorporated
csl_usb.asm                                                          PAGE  235

   10509                      .dwattr $C$DW$846, DW_AT_location[DW_OP_reg3]
   10510              $C$DW$847       .dwtag  DW_TAG_TI_assign_register, DW_AT_name("AC1")
   10511                      .dwattr $C$DW$847, DW_AT_location[DW_OP_reg4]
   10512              $C$DW$848       .dwtag  DW_TAG_TI_assign_register, DW_AT_name("AC1_G")
   10513                      .dwattr $C$DW$848, DW_AT_location[DW_OP_reg5]
   10514              $C$DW$849       .dwtag  DW_TAG_TI_assign_register, DW_AT_name("AC2")
   10515                      .dwattr $C$DW$849, DW_AT_location[DW_OP_reg6]
   10516              $C$DW$850       .dwtag  DW_TAG_TI_assign_register, DW_AT_name("AC2")
   10517                      .dwattr $C$DW$850, DW_AT_location[DW_OP_reg7]
   10518              $C$DW$851       .dwtag  DW_TAG_TI_assign_register, DW_AT_name("AC2_G")
   10519                      .dwattr $C$DW$851, DW_AT_location[DW_OP_reg8]
   10520              $C$DW$852       .dwtag  DW_TAG_TI_assign_register, DW_AT_name("AC3")
   10521                      .dwattr $C$DW$852, DW_AT_location[DW_OP_reg9]
   10522              $C$DW$853       .dwtag  DW_TAG_TI_assign_register, DW_AT_name("AC3")
   10523                      .dwattr $C$DW$853, DW_AT_location[DW_OP_reg10]
   10524              $C$DW$854       .dwtag  DW_TAG_TI_assign_register, DW_AT_name("AC3_G")
   10525                      .dwattr $C$DW$854, DW_AT_location[DW_OP_reg11]
   10526              $C$DW$855       .dwtag  DW_TAG_TI_assign_register, DW_AT_name("T0")
   10527                      .dwattr $C$DW$855, DW_AT_location[DW_OP_reg12]
   10528              $C$DW$856       .dwtag  DW_TAG_TI_assign_register, DW_AT_name("T1")
   10529                      .dwattr $C$DW$856, DW_AT_location[DW_OP_reg13]
   10530              $C$DW$857       .dwtag  DW_TAG_TI_assign_register, DW_AT_name("T2")
   10531                      .dwattr $C$DW$857, DW_AT_location[DW_OP_reg14]
   10532              $C$DW$858       .dwtag  DW_TAG_TI_assign_register, DW_AT_name("T3")
   10533                      .dwattr $C$DW$858, DW_AT_location[DW_OP_reg15]
   10534              $C$DW$859       .dwtag  DW_TAG_TI_assign_register, DW_AT_name("AR0")
   10535                      .dwattr $C$DW$859, DW_AT_location[DW_OP_reg16]
   10536              $C$DW$860       .dwtag  DW_TAG_TI_assign_register, DW_AT_name("XAR0")
   10537                      .dwattr $C$DW$860, DW_AT_location[DW_OP_reg17]
   10538              $C$DW$861       .dwtag  DW_TAG_TI_assign_register, DW_AT_name("AR1")
   10539                      .dwattr $C$DW$861, DW_AT_location[DW_OP_reg18]
   10540              $C$DW$862       .dwtag  DW_TAG_TI_assign_register, DW_AT_name("XAR1")
   10541                      .dwattr $C$DW$862, DW_AT_location[DW_OP_reg19]
   10542              $C$DW$863       .dwtag  DW_TAG_TI_assign_register, DW_AT_name("AR2")
   10543                      .dwattr $C$DW$863, DW_AT_location[DW_OP_reg20]
   10544              $C$DW$864       .dwtag  DW_TAG_TI_assign_register, DW_AT_name("XAR2")
   10545                      .dwattr $C$DW$864, DW_AT_location[DW_OP_reg21]
   10546              $C$DW$865       .dwtag  DW_TAG_TI_assign_register, DW_AT_name("AR3")
   10547                      .dwattr $C$DW$865, DW_AT_location[DW_OP_reg22]
   10548              $C$DW$866       .dwtag  DW_TAG_TI_assign_register, DW_AT_name("XAR3")
   10549                      .dwattr $C$DW$866, DW_AT_location[DW_OP_reg23]
   10550              $C$DW$867       .dwtag  DW_TAG_TI_assign_register, DW_AT_name("AR4")
   10551                      .dwattr $C$DW$867, DW_AT_location[DW_OP_reg24]
   10552              $C$DW$868       .dwtag  DW_TAG_TI_assign_register, DW_AT_name("XAR4")
   10553                      .dwattr $C$DW$868, DW_AT_location[DW_OP_reg25]
   10554              $C$DW$869       .dwtag  DW_TAG_TI_assign_register, DW_AT_name("AR5")
   10555                      .dwattr $C$DW$869, DW_AT_location[DW_OP_reg26]
   10556              $C$DW$870       .dwtag  DW_TAG_TI_assign_register, DW_AT_name("XAR5")
   10557                      .dwattr $C$DW$870, DW_AT_location[DW_OP_reg27]
   10558              $C$DW$871       .dwtag  DW_TAG_TI_assign_register, DW_AT_name("AR6")
   10559                      .dwattr $C$DW$871, DW_AT_location[DW_OP_reg28]
   10560              $C$DW$872       .dwtag  DW_TAG_TI_assign_register, DW_AT_name("XAR6")
   10561                      .dwattr $C$DW$872, DW_AT_location[DW_OP_reg29]
   10562              $C$DW$873       .dwtag  DW_TAG_TI_assign_register, DW_AT_name("AR7")
   10563                      .dwattr $C$DW$873, DW_AT_location[DW_OP_reg30]
TMS320C55x Assembler PC v4.4.1 Tue Oct 02 02:33:44 2018

Tools Copyright (c) 1996-2012 Texas Instruments Incorporated
csl_usb.asm                                                          PAGE  236

   10564              $C$DW$874       .dwtag  DW_TAG_TI_assign_register, DW_AT_name("XAR7")
   10565                      .dwattr $C$DW$874, DW_AT_location[DW_OP_reg31]
   10566              $C$DW$875       .dwtag  DW_TAG_TI_assign_register, DW_AT_name("FP")
   10567                      .dwattr $C$DW$875, DW_AT_location[DW_OP_regx 0x20]
   10568              $C$DW$876       .dwtag  DW_TAG_TI_assign_register, DW_AT_name("XFP")
   10569                      .dwattr $C$DW$876, DW_AT_location[DW_OP_regx 0x21]
   10570              $C$DW$877       .dwtag  DW_TAG_TI_assign_register, DW_AT_name("PC")
   10571                      .dwattr $C$DW$877, DW_AT_location[DW_OP_regx 0x22]
   10572              $C$DW$878       .dwtag  DW_TAG_TI_assign_register, DW_AT_name("SP")
   10573                      .dwattr $C$DW$878, DW_AT_location[DW_OP_regx 0x23]
   10574              $C$DW$879       .dwtag  DW_TAG_TI_assign_register, DW_AT_name("XSP")
   10575                      .dwattr $C$DW$879, DW_AT_location[DW_OP_regx 0x24]
   10576              $C$DW$880       .dwtag  DW_TAG_TI_assign_register, DW_AT_name("BKC")
   10577                      .dwattr $C$DW$880, DW_AT_location[DW_OP_regx 0x25]
   10578              $C$DW$881       .dwtag  DW_TAG_TI_assign_register, DW_AT_name("BK03")
   10579                      .dwattr $C$DW$881, DW_AT_location[DW_OP_regx 0x26]
   10580              $C$DW$882       .dwtag  DW_TAG_TI_assign_register, DW_AT_name("BK47")
   10581                      .dwattr $C$DW$882, DW_AT_location[DW_OP_regx 0x27]
   10582              $C$DW$883       .dwtag  DW_TAG_TI_assign_register, DW_AT_name("ST0")
   10583                      .dwattr $C$DW$883, DW_AT_location[DW_OP_regx 0x28]
   10584              $C$DW$884       .dwtag  DW_TAG_TI_assign_register, DW_AT_name("ST1")
   10585                      .dwattr $C$DW$884, DW_AT_location[DW_OP_regx 0x29]
   10586              $C$DW$885       .dwtag  DW_TAG_TI_assign_register, DW_AT_name("ST2")
   10587                      .dwattr $C$DW$885, DW_AT_location[DW_OP_regx 0x2a]
   10588              $C$DW$886       .dwtag  DW_TAG_TI_assign_register, DW_AT_name("ST3")
   10589                      .dwattr $C$DW$886, DW_AT_location[DW_OP_regx 0x2b]
   10590              $C$DW$887       .dwtag  DW_TAG_TI_assign_register, DW_AT_name("MDP")
   10591                      .dwattr $C$DW$887, DW_AT_location[DW_OP_regx 0x2c]
   10592              $C$DW$888       .dwtag  DW_TAG_TI_assign_register, DW_AT_name("MDP05")
   10593                      .dwattr $C$DW$888, DW_AT_location[DW_OP_regx 0x2d]
   10594              $C$DW$889       .dwtag  DW_TAG_TI_assign_register, DW_AT_name("MDP67")
   10595                      .dwattr $C$DW$889, DW_AT_location[DW_OP_regx 0x2e]
   10596              $C$DW$890       .dwtag  DW_TAG_TI_assign_register, DW_AT_name("BRC0")
   10597                      .dwattr $C$DW$890, DW_AT_location[DW_OP_regx 0x2f]
   10598              $C$DW$891       .dwtag  DW_TAG_TI_assign_register, DW_AT_name("RSA0")
   10599                      .dwattr $C$DW$891, DW_AT_location[DW_OP_regx 0x30]
   10600              $C$DW$892       .dwtag  DW_TAG_TI_assign_register, DW_AT_name("RSA0_H")
   10601                      .dwattr $C$DW$892, DW_AT_location[DW_OP_regx 0x31]
   10602              $C$DW$893       .dwtag  DW_TAG_TI_assign_register, DW_AT_name("REA0")
   10603                      .dwattr $C$DW$893, DW_AT_location[DW_OP_regx 0x32]
   10604              $C$DW$894       .dwtag  DW_TAG_TI_assign_register, DW_AT_name("REA0_H")
   10605                      .dwattr $C$DW$894, DW_AT_location[DW_OP_regx 0x33]
   10606              $C$DW$895       .dwtag  DW_TAG_TI_assign_register, DW_AT_name("BRS1")
   10607                      .dwattr $C$DW$895, DW_AT_location[DW_OP_regx 0x34]
   10608              $C$DW$896       .dwtag  DW_TAG_TI_assign_register, DW_AT_name("BRC1")
   10609                      .dwattr $C$DW$896, DW_AT_location[DW_OP_regx 0x35]
   10610              $C$DW$897       .dwtag  DW_TAG_TI_assign_register, DW_AT_name("RSA1")
   10611                      .dwattr $C$DW$897, DW_AT_location[DW_OP_regx 0x36]
   10612              $C$DW$898       .dwtag  DW_TAG_TI_assign_register, DW_AT_name("RSA1_H")
   10613                      .dwattr $C$DW$898, DW_AT_location[DW_OP_regx 0x37]
   10614              $C$DW$899       .dwtag  DW_TAG_TI_assign_register, DW_AT_name("REA1")
   10615                      .dwattr $C$DW$899, DW_AT_location[DW_OP_regx 0x38]
   10616              $C$DW$900       .dwtag  DW_TAG_TI_assign_register, DW_AT_name("REA1_H")
   10617                      .dwattr $C$DW$900, DW_AT_location[DW_OP_regx 0x39]
   10618              $C$DW$901       .dwtag  DW_TAG_TI_assign_register, DW_AT_name("CSR")
TMS320C55x Assembler PC v4.4.1 Tue Oct 02 02:33:44 2018

Tools Copyright (c) 1996-2012 Texas Instruments Incorporated
csl_usb.asm                                                          PAGE  237

   10619                      .dwattr $C$DW$901, DW_AT_location[DW_OP_regx 0x3a]
   10620              $C$DW$902       .dwtag  DW_TAG_TI_assign_register, DW_AT_name("RPTC")
   10621                      .dwattr $C$DW$902, DW_AT_location[DW_OP_regx 0x3b]
   10622              $C$DW$903       .dwtag  DW_TAG_TI_assign_register, DW_AT_name("CDP")
   10623                      .dwattr $C$DW$903, DW_AT_location[DW_OP_regx 0x3c]
   10624              $C$DW$904       .dwtag  DW_TAG_TI_assign_register, DW_AT_name("XCDP")
   10625                      .dwattr $C$DW$904, DW_AT_location[DW_OP_regx 0x3d]
   10626              $C$DW$905       .dwtag  DW_TAG_TI_assign_register, DW_AT_name("TRN0")
   10627                      .dwattr $C$DW$905, DW_AT_location[DW_OP_regx 0x3e]
   10628              $C$DW$906       .dwtag  DW_TAG_TI_assign_register, DW_AT_name("TRN1")
   10629                      .dwattr $C$DW$906, DW_AT_location[DW_OP_regx 0x3f]
   10630              $C$DW$907       .dwtag  DW_TAG_TI_assign_register, DW_AT_name("BSA01")
   10631                      .dwattr $C$DW$907, DW_AT_location[DW_OP_regx 0x40]
   10632              $C$DW$908       .dwtag  DW_TAG_TI_assign_register, DW_AT_name("BSA23")
   10633                      .dwattr $C$DW$908, DW_AT_location[DW_OP_regx 0x41]
   10634              $C$DW$909       .dwtag  DW_TAG_TI_assign_register, DW_AT_name("BSA45")
   10635                      .dwattr $C$DW$909, DW_AT_location[DW_OP_regx 0x42]
   10636              $C$DW$910       .dwtag  DW_TAG_TI_assign_register, DW_AT_name("BSA67")
   10637                      .dwattr $C$DW$910, DW_AT_location[DW_OP_regx 0x43]
   10638              $C$DW$911       .dwtag  DW_TAG_TI_assign_register, DW_AT_name("BSAC")
   10639                      .dwattr $C$DW$911, DW_AT_location[DW_OP_regx 0x44]
   10640              $C$DW$912       .dwtag  DW_TAG_TI_assign_register, DW_AT_name("CARRY")
   10641                      .dwattr $C$DW$912, DW_AT_location[DW_OP_regx 0x45]
   10642              $C$DW$913       .dwtag  DW_TAG_TI_assign_register, DW_AT_name("TC1")
   10643                      .dwattr $C$DW$913, DW_AT_location[DW_OP_regx 0x46]
   10644              $C$DW$914       .dwtag  DW_TAG_TI_assign_register, DW_AT_name("TC2")
   10645                      .dwattr $C$DW$914, DW_AT_location[DW_OP_regx 0x47]
   10646              $C$DW$915       .dwtag  DW_TAG_TI_assign_register, DW_AT_name("M40")
   10647                      .dwattr $C$DW$915, DW_AT_location[DW_OP_regx 0x48]
   10648              $C$DW$916       .dwtag  DW_TAG_TI_assign_register, DW_AT_name("SXMD")
   10649                      .dwattr $C$DW$916, DW_AT_location[DW_OP_regx 0x49]
   10650              $C$DW$917       .dwtag  DW_TAG_TI_assign_register, DW_AT_name("ARMS")
   10651                      .dwattr $C$DW$917, DW_AT_location[DW_OP_regx 0x4a]
   10652              $C$DW$918       .dwtag  DW_TAG_TI_assign_register, DW_AT_name("C54CM")
   10653                      .dwattr $C$DW$918, DW_AT_location[DW_OP_regx 0x4b]
   10654              $C$DW$919       .dwtag  DW_TAG_TI_assign_register, DW_AT_name("SATA")
   10655                      .dwattr $C$DW$919, DW_AT_location[DW_OP_regx 0x4c]
   10656              $C$DW$920       .dwtag  DW_TAG_TI_assign_register, DW_AT_name("SATD")
   10657                      .dwattr $C$DW$920, DW_AT_location[DW_OP_regx 0x4d]
   10658              $C$DW$921       .dwtag  DW_TAG_TI_assign_register, DW_AT_name("RDM")
   10659                      .dwattr $C$DW$921, DW_AT_location[DW_OP_regx 0x4e]
   10660              $C$DW$922       .dwtag  DW_TAG_TI_assign_register, DW_AT_name("FRCT")
   10661                      .dwattr $C$DW$922, DW_AT_location[DW_OP_regx 0x4f]
   10662              $C$DW$923       .dwtag  DW_TAG_TI_assign_register, DW_AT_name("SMUL")
   10663                      .dwattr $C$DW$923, DW_AT_location[DW_OP_regx 0x50]
   10664              $C$DW$924       .dwtag  DW_TAG_TI_assign_register, DW_AT_name("INTM")
   10665                      .dwattr $C$DW$924, DW_AT_location[DW_OP_regx 0x51]
   10666              $C$DW$925       .dwtag  DW_TAG_TI_assign_register, DW_AT_name("AR0LC")
   10667                      .dwattr $C$DW$925, DW_AT_location[DW_OP_regx 0x52]
   10668              $C$DW$926       .dwtag  DW_TAG_TI_assign_register, DW_AT_name("AR1LC")
   10669                      .dwattr $C$DW$926, DW_AT_location[DW_OP_regx 0x53]
   10670              $C$DW$927       .dwtag  DW_TAG_TI_assign_register, DW_AT_name("AR2LC")
   10671                      .dwattr $C$DW$927, DW_AT_location[DW_OP_regx 0x54]
   10672              $C$DW$928       .dwtag  DW_TAG_TI_assign_register, DW_AT_name("AR3LC")
   10673                      .dwattr $C$DW$928, DW_AT_location[DW_OP_regx 0x55]
TMS320C55x Assembler PC v4.4.1 Tue Oct 02 02:33:44 2018

Tools Copyright (c) 1996-2012 Texas Instruments Incorporated
csl_usb.asm                                                          PAGE  238

   10674              $C$DW$929       .dwtag  DW_TAG_TI_assign_register, DW_AT_name("AR4LC")
   10675                      .dwattr $C$DW$929, DW_AT_location[DW_OP_regx 0x56]
   10676              $C$DW$930       .dwtag  DW_TAG_TI_assign_register, DW_AT_name("AR5LC")
   10677                      .dwattr $C$DW$930, DW_AT_location[DW_OP_regx 0x57]
   10678              $C$DW$931       .dwtag  DW_TAG_TI_assign_register, DW_AT_name("AR6LC")
   10679                      .dwattr $C$DW$931, DW_AT_location[DW_OP_regx 0x58]
   10680              $C$DW$932       .dwtag  DW_TAG_TI_assign_register, DW_AT_name("AR7LC")
   10681                      .dwattr $C$DW$932, DW_AT_location[DW_OP_regx 0x59]
   10682              $C$DW$933       .dwtag  DW_TAG_TI_assign_register, DW_AT_name("CDPLC")
   10683                      .dwattr $C$DW$933, DW_AT_location[DW_OP_regx 0x5a]
   10684              $C$DW$934       .dwtag  DW_TAG_TI_assign_register, DW_AT_name("CIE_RETA")
   10685                      .dwattr $C$DW$934, DW_AT_location[DW_OP_regx 0x5b]
   10686                      .dwendtag $C$DW$CU
   10687              
   10687              
   10687              

No Assembly Errors, No Assembly Warnings
