TMS320C55x Assembler PC v4.4.1 Tue Oct 02 02:33:20 2018

Tools Copyright (c) 1996-2012 Texas Instruments Incorporated
csl_msc.asm                                                          PAGE    1

   10992              ; Temporary Registers Used: None
       1              ;*******************************************************************************
       2              ;* TMS320C55x C/C++ Codegen                                          PC v4.4.1 *
       3              ;* Date/Time created: Tue Oct 02 02:33:14 2018                                 *
       4              ;*******************************************************************************
       5                      .compiler_opts --hll_source=on --mem_model:code=flat --mem_model:data=large --object_format=coff --si
       6                      .mmregs
       7                      .cpl_on
       8                      .arms_on
       9                      .c54cm_off
      10                      .asg AR6, FP
      11                      .asg XAR6, XFP
      12                      .asg DPH, MDP
      13                      .model call=c55_std
      14                      .model mem=large
      15                      .noremark 5002  ; code respects overwrite rules
      16              ;*******************************************************************************
      17              ;* GLOBAL FILE PARAMETERS                                                      *
      18              ;*                                                                             *
      19              ;*   Architecture       : TMS320C55x                                           *
      20              ;*   Optimizing for     : Speed                                                *
      21              ;*   Memory             : Large Model (23-Bit Data Pointers)                   *
      22              ;*   Calls              : Normal Library ASM calls                             *
      23              ;*   Debug Info         : Standard TI Debug Information                        *
      24              ;*******************************************************************************
      25              
      26              $C$DW$CU        .dwtag  DW_TAG_compile_unit
      27                      .dwattr $C$DW$CU, DW_AT_name("../c5535_bsl_revc/ezdsp5535_v1/c55xx_csl/src/csl_msc.c")
      28                      .dwattr $C$DW$CU, DW_AT_producer("TMS320C55x C/C++ Codegen PC v4.4.1 Copyright (c) 1996-2012 Texas In
      29                      .dwattr $C$DW$CU, DW_AT_TI_version(0x01)
      30                      .dwattr $C$DW$CU, DW_AT_comp_dir("F:\eZdsp-DBG-sim\tmp1\c55x-sim2\foo\Debug")
      31              
      32              $C$DW$1 .dwtag  DW_TAG_subprogram, DW_AT_name("memcpy")
      33                      .dwattr $C$DW$1, DW_AT_TI_symbol_name("_memcpy")
      34                      .dwattr $C$DW$1, DW_AT_type(*$C$DW$T$3)
      35                      .dwattr $C$DW$1, DW_AT_declaration
      36                      .dwattr $C$DW$1, DW_AT_external
      37              $C$DW$2 .dwtag  DW_TAG_formal_parameter
      38                      .dwattr $C$DW$2, DW_AT_type(*$C$DW$T$3)
      39              $C$DW$3 .dwtag  DW_TAG_formal_parameter
      40                      .dwattr $C$DW$3, DW_AT_type(*$C$DW$T$111)
      41              $C$DW$4 .dwtag  DW_TAG_formal_parameter
      42                      .dwattr $C$DW$4, DW_AT_type(*$C$DW$T$112)
      43                      .dwendtag $C$DW$1
      44              
      45              
      46              $C$DW$5 .dwtag  DW_TAG_subprogram, DW_AT_name("strlen")
      47                      .dwattr $C$DW$5, DW_AT_TI_symbol_name("_strlen")
      48                      .dwattr $C$DW$5, DW_AT_type(*$C$DW$T$112)
      49                      .dwattr $C$DW$5, DW_AT_declaration
      50                      .dwattr $C$DW$5, DW_AT_external
      51              $C$DW$6 .dwtag  DW_TAG_formal_parameter
      52                      .dwattr $C$DW$6, DW_AT_type(*$C$DW$T$171)
      53                      .dwendtag $C$DW$5
      54              
TMS320C55x Assembler PC v4.4.1 Tue Oct 02 02:33:20 2018

Tools Copyright (c) 1996-2012 Texas Instruments Incorporated
csl_msc.asm                                                          PAGE    2

      55              
      56              $C$DW$7 .dwtag  DW_TAG_subprogram, DW_AT_name("USB_initEndptObj")
      57                      .dwattr $C$DW$7, DW_AT_TI_symbol_name("_USB_initEndptObj")
      58                      .dwattr $C$DW$7, DW_AT_type(*$C$DW$T$89)
      59                      .dwattr $C$DW$7, DW_AT_declaration
      60                      .dwattr $C$DW$7, DW_AT_external
      61              $C$DW$8 .dwtag  DW_TAG_formal_parameter
      62                      .dwattr $C$DW$8, DW_AT_type(*$C$DW$T$24)
      63              $C$DW$9 .dwtag  DW_TAG_formal_parameter
      64                      .dwattr $C$DW$9, DW_AT_type(*$C$DW$T$27)
      65              $C$DW$10        .dwtag  DW_TAG_formal_parameter
      66                      .dwattr $C$DW$10, DW_AT_type(*$C$DW$T$79)
      67              $C$DW$11        .dwtag  DW_TAG_formal_parameter
      68                      .dwattr $C$DW$11, DW_AT_type(*$C$DW$T$81)
      69              $C$DW$12        .dwtag  DW_TAG_formal_parameter
      70                      .dwattr $C$DW$12, DW_AT_type(*$C$DW$T$25)
      71              $C$DW$13        .dwtag  DW_TAG_formal_parameter
      72                      .dwattr $C$DW$13, DW_AT_type(*$C$DW$T$25)
      73              $C$DW$14        .dwtag  DW_TAG_formal_parameter
      74                      .dwattr $C$DW$14, DW_AT_type(*$C$DW$T$82)
      75                      .dwendtag $C$DW$7
      76              
      77              
      78              $C$DW$15        .dwtag  DW_TAG_subprogram, DW_AT_name("USB_getEvents")
      79                      .dwattr $C$DW$15, DW_AT_TI_symbol_name("_USB_getEvents")
      80                      .dwattr $C$DW$15, DW_AT_type(*$C$DW$T$150)
      81                      .dwattr $C$DW$15, DW_AT_declaration
      82                      .dwattr $C$DW$15, DW_AT_external
      83              $C$DW$16        .dwtag  DW_TAG_formal_parameter
      84                      .dwattr $C$DW$16, DW_AT_type(*$C$DW$T$27)
      85              $C$DW$17        .dwtag  DW_TAG_formal_parameter
      86                      .dwattr $C$DW$17, DW_AT_type(*$C$DW$T$90)
      87                      .dwendtag $C$DW$15
      88              
      89              
      90              $C$DW$18        .dwtag  DW_TAG_subprogram, DW_AT_name("USB_getSetupPacket")
      91                      .dwattr $C$DW$18, DW_AT_TI_symbol_name("_USB_getSetupPacket")
      92                      .dwattr $C$DW$18, DW_AT_type(*$C$DW$T$89)
      93                      .dwattr $C$DW$18, DW_AT_declaration
      94                      .dwattr $C$DW$18, DW_AT_external
      95              $C$DW$19        .dwtag  DW_TAG_formal_parameter
      96                      .dwattr $C$DW$19, DW_AT_type(*$C$DW$T$24)
      97              $C$DW$20        .dwtag  DW_TAG_formal_parameter
      98                      .dwattr $C$DW$20, DW_AT_type(*$C$DW$T$43)
      99              $C$DW$21        .dwtag  DW_TAG_formal_parameter
     100                      .dwattr $C$DW$21, DW_AT_type(*$C$DW$T$46)
     101                      .dwendtag $C$DW$18
     102              
     103              
     104              $C$DW$22        .dwtag  DW_TAG_subprogram, DW_AT_name("USB_postTransaction")
     105                      .dwattr $C$DW$22, DW_AT_TI_symbol_name("_USB_postTransaction")
     106                      .dwattr $C$DW$22, DW_AT_type(*$C$DW$T$89)
     107                      .dwattr $C$DW$22, DW_AT_declaration
     108                      .dwattr $C$DW$22, DW_AT_external
     109              $C$DW$23        .dwtag  DW_TAG_formal_parameter
TMS320C55x Assembler PC v4.4.1 Tue Oct 02 02:33:20 2018

Tools Copyright (c) 1996-2012 Texas Instruments Incorporated
csl_msc.asm                                                          PAGE    3

     110                      .dwattr $C$DW$23, DW_AT_type(*$C$DW$T$27)
     111              $C$DW$24        .dwtag  DW_TAG_formal_parameter
     112                      .dwattr $C$DW$24, DW_AT_type(*$C$DW$T$25)
     113              $C$DW$25        .dwtag  DW_TAG_formal_parameter
     114                      .dwattr $C$DW$25, DW_AT_type(*$C$DW$T$3)
     115              $C$DW$26        .dwtag  DW_TAG_formal_parameter
     116                      .dwattr $C$DW$26, DW_AT_type(*$C$DW$T$122)
     117                      .dwendtag $C$DW$22
     118              
     119              
     120              $C$DW$27        .dwtag  DW_TAG_subprogram, DW_AT_name("USB_isTransactionDone")
     121                      .dwattr $C$DW$27, DW_AT_TI_symbol_name("_USB_isTransactionDone")
     122                      .dwattr $C$DW$27, DW_AT_type(*$C$DW$T$87)
     123                      .dwattr $C$DW$27, DW_AT_declaration
     124                      .dwattr $C$DW$27, DW_AT_external
     125              $C$DW$28        .dwtag  DW_TAG_formal_parameter
     126                      .dwattr $C$DW$28, DW_AT_type(*$C$DW$T$27)
     127              $C$DW$29        .dwtag  DW_TAG_formal_parameter
     128                      .dwattr $C$DW$29, DW_AT_type(*$C$DW$T$90)
     129                      .dwendtag $C$DW$27
     130              
     131              
     132              $C$DW$30        .dwtag  DW_TAG_subprogram, DW_AT_name("USB_stallEndpt")
     133                      .dwattr $C$DW$30, DW_AT_TI_symbol_name("_USB_stallEndpt")
     134                      .dwattr $C$DW$30, DW_AT_type(*$C$DW$T$89)
     135                      .dwattr $C$DW$30, DW_AT_declaration
     136                      .dwattr $C$DW$30, DW_AT_external
     137              $C$DW$31        .dwtag  DW_TAG_formal_parameter
     138                      .dwattr $C$DW$31, DW_AT_type(*$C$DW$T$27)
     139                      .dwendtag $C$DW$30
     140              
     141              
     142              $C$DW$32        .dwtag  DW_TAG_subprogram, DW_AT_name("USB_abortTransaction")
     143                      .dwattr $C$DW$32, DW_AT_TI_symbol_name("_USB_abortTransaction")
     144                      .dwattr $C$DW$32, DW_AT_type(*$C$DW$T$89)
     145                      .dwattr $C$DW$32, DW_AT_declaration
     146                      .dwattr $C$DW$32, DW_AT_external
     147              $C$DW$33        .dwtag  DW_TAG_formal_parameter
     148                      .dwattr $C$DW$33, DW_AT_type(*$C$DW$T$27)
     149                      .dwendtag $C$DW$32
     150              
     151              
     152              $C$DW$34        .dwtag  DW_TAG_subprogram, DW_AT_name("USB_abortAllTransaction")
     153                      .dwattr $C$DW$34, DW_AT_TI_symbol_name("_USB_abortAllTransaction")
     154                      .dwattr $C$DW$34, DW_AT_type(*$C$DW$T$89)
     155                      .dwattr $C$DW$34, DW_AT_declaration
     156                      .dwattr $C$DW$34, DW_AT_external
     157              $C$DW$35        .dwtag  DW_TAG_formal_parameter
     158                      .dwattr $C$DW$35, DW_AT_type(*$C$DW$T$24)
     159                      .dwendtag $C$DW$34
     160              
     161              
     162              $C$DW$36        .dwtag  DW_TAG_subprogram, DW_AT_name("USB_connectDev")
     163                      .dwattr $C$DW$36, DW_AT_TI_symbol_name("_USB_connectDev")
     164                      .dwattr $C$DW$36, DW_AT_type(*$C$DW$T$89)
TMS320C55x Assembler PC v4.4.1 Tue Oct 02 02:33:20 2018

Tools Copyright (c) 1996-2012 Texas Instruments Incorporated
csl_msc.asm                                                          PAGE    4

     165                      .dwattr $C$DW$36, DW_AT_declaration
     166                      .dwattr $C$DW$36, DW_AT_external
     167              $C$DW$37        .dwtag  DW_TAG_formal_parameter
     168                      .dwattr $C$DW$37, DW_AT_type(*$C$DW$T$24)
     169                      .dwendtag $C$DW$36
     170              
     171              
     172              $C$DW$38        .dwtag  DW_TAG_subprogram, DW_AT_name("USB_disconnectDev")
     173                      .dwattr $C$DW$38, DW_AT_TI_symbol_name("_USB_disconnectDev")
     174                      .dwattr $C$DW$38, DW_AT_type(*$C$DW$T$89)
     175                      .dwattr $C$DW$38, DW_AT_declaration
     176                      .dwattr $C$DW$38, DW_AT_external
     177              $C$DW$39        .dwtag  DW_TAG_formal_parameter
     178                      .dwattr $C$DW$39, DW_AT_type(*$C$DW$T$24)
     179                      .dwendtag $C$DW$38
     180              
     181              
     182              $C$DW$40        .dwtag  DW_TAG_subprogram, DW_AT_name("USB_setParams")
     183                      .dwattr $C$DW$40, DW_AT_TI_symbol_name("_USB_setParams")
     184                      .dwattr $C$DW$40, DW_AT_type(*$C$DW$T$89)
     185                      .dwattr $C$DW$40, DW_AT_declaration
     186                      .dwattr $C$DW$40, DW_AT_external
     187              $C$DW$41        .dwtag  DW_TAG_formal_parameter
     188                      .dwattr $C$DW$41, DW_AT_type(*$C$DW$T$24)
     189              $C$DW$42        .dwtag  DW_TAG_formal_parameter
     190                      .dwattr $C$DW$42, DW_AT_type(*$C$DW$T$108)
     191              $C$DW$43        .dwtag  DW_TAG_formal_parameter
     192                      .dwattr $C$DW$43, DW_AT_type(*$C$DW$T$25)
     193                      .dwendtag $C$DW$40
     194              
     195              
     196              $C$DW$44        .dwtag  DW_TAG_subprogram, DW_AT_name("USB_getMaxPower")
     197                      .dwattr $C$DW$44, DW_AT_TI_symbol_name("_USB_getMaxPower")
     198                      .dwattr $C$DW$44, DW_AT_type(*$C$DW$T$74)
     199                      .dwattr $C$DW$44, DW_AT_declaration
     200                      .dwattr $C$DW$44, DW_AT_external
     201              $C$DW$45        .dwtag  DW_TAG_formal_parameter
     202                      .dwattr $C$DW$45, DW_AT_type(*$C$DW$T$24)
     203                      .dwendtag $C$DW$44
     204              
     205              
     206              $C$DW$46        .dwtag  DW_TAG_subprogram, DW_AT_name("USB_setFullSpeedMode")
     207                      .dwattr $C$DW$46, DW_AT_TI_symbol_name("_USB_setFullSpeedMode")
     208                      .dwattr $C$DW$46, DW_AT_declaration
     209                      .dwattr $C$DW$46, DW_AT_external
     210              $C$DW$47        .dwtag  DW_TAG_formal_parameter
     211                      .dwattr $C$DW$47, DW_AT_type(*$C$DW$T$25)
     212                      .dwendtag $C$DW$46
     213              
     214              
     215              $C$DW$48        .dwtag  DW_TAG_subprogram, DW_AT_name("USB_getDataCountReadFromFifo")
     216                      .dwattr $C$DW$48, DW_AT_TI_symbol_name("_USB_getDataCountReadFromFifo")
     217                      .dwattr $C$DW$48, DW_AT_type(*$C$DW$T$25)
     218                      .dwattr $C$DW$48, DW_AT_declaration
     219                      .dwattr $C$DW$48, DW_AT_external
TMS320C55x Assembler PC v4.4.1 Tue Oct 02 02:33:20 2018

Tools Copyright (c) 1996-2012 Texas Instruments Incorporated
csl_msc.asm                                                          PAGE    5

     220              $C$DW$49        .dwtag  DW_TAG_formal_parameter
     221                      .dwattr $C$DW$49, DW_AT_type(*$C$DW$T$27)
     222                      .dwendtag $C$DW$48
     223              
     224              ;       F:\t\cc5p5\ccsv5\tools\compiler\c5500_4.4.1\bin\acp55.exe -@f:\\AppData\\Local\\Temp\\1192812 
     225 000000               .sect   ".text"
     226                      .align 4
     227              
     228              $C$DW$50        .dwtag  DW_TAG_subprogram, DW_AT_name("MSC_SetSenseKeys")
     229                      .dwattr $C$DW$50, DW_AT_low_pc(_MSC_SetSenseKeys)
     230                      .dwattr $C$DW$50, DW_AT_high_pc(0x00)
     231                      .dwattr $C$DW$50, DW_AT_TI_symbol_name("_MSC_SetSenseKeys")
     232                      .dwattr $C$DW$50, DW_AT_TI_begin_file("F:/eZdsp-DBG-sim/tmp1/c55x-sim2/foo/c5535_bsl_revc/ezdsp5535_v
     233                      .dwattr $C$DW$50, DW_AT_TI_begin_line(0x58)
     234                      .dwattr $C$DW$50, DW_AT_TI_begin_column(0x06)
     235                      .dwattr $C$DW$50, DW_AT_TI_max_frame_size(0x06)
     236                      .dwpsn  file "F:/eZdsp-DBG-sim/tmp1/c55x-sim2/foo/c5535_bsl_revc/ezdsp5535_v1/c55xx_csl/inc/csl_mscAu
     237              
     238                      .dwfde $C$DW$CIE, _MSC_SetSenseKeys
     239              $C$DW$51        .dwtag  DW_TAG_formal_parameter, DW_AT_name("senseData")
     240                      .dwattr $C$DW$51, DW_AT_TI_symbol_name("_senseData")
     241                      .dwattr $C$DW$51, DW_AT_type(*$C$DW$T$47)
     242                      .dwattr $C$DW$51, DW_AT_location[DW_OP_reg17]
     243              $C$DW$52        .dwtag  DW_TAG_formal_parameter, DW_AT_name("senseKey")
     244                      .dwattr $C$DW$52, DW_AT_TI_symbol_name("_senseKey")
     245                      .dwattr $C$DW$52, DW_AT_type(*$C$DW$T$25)
     246                      .dwattr $C$DW$52, DW_AT_location[DW_OP_reg12]
     247              $C$DW$53        .dwtag  DW_TAG_formal_parameter, DW_AT_name("addSenseKey")
     248                      .dwattr $C$DW$53, DW_AT_TI_symbol_name("_addSenseKey")
     249                      .dwattr $C$DW$53, DW_AT_type(*$C$DW$T$25)
     250                      .dwattr $C$DW$53, DW_AT_location[DW_OP_reg13]
     251              ;*******************************************************************************
     252              ;* FUNCTION NAME: MSC_SetSenseKeys                                             *
     253              ;*                                                                             *
     254              ;*   Function Uses Regs : T0,T1,AR0,XAR0,AR1,AR3,XAR3,SP,M40,SATA,SATD,RDM,    *
     255              ;*                        FRCT,SMUL                                            *
     256              ;*   Stack Frame        : Compact (No Frame Pointer, w/ debug)                 *
     257              ;*   Total Frame Size   : 6 words                                              *
     258              ;*                        (2 return address/alignment)                         *
     259              ;*                        (4 local values)                                     *
     260              ;*   Min System Stack   : 1 word                                               *
     261              ;*******************************************************************************
     262 000000       _MSC_SetSenseKeys:
     263                      .dwcfi  cfa_offset, 1
     264                      .dwcfi  save_reg_to_mem, 91, -1
     265 000000 4EFB          AADD #-5, SP
     266                      .dwcfi  cfa_offset, 6
     267              $C$DW$54        .dwtag  DW_TAG_variable, DW_AT_name("senseData")
     268                      .dwattr $C$DW$54, DW_AT_TI_symbol_name("_senseData")
     269                      .dwattr $C$DW$54, DW_AT_type(*$C$DW$T$47)
     270                      .dwattr $C$DW$54, DW_AT_location[DW_OP_bregx 0x24 0]
     271              $C$DW$55        .dwtag  DW_TAG_variable, DW_AT_name("senseKey")
     272                      .dwattr $C$DW$55, DW_AT_TI_symbol_name("_senseKey")
     273                      .dwattr $C$DW$55, DW_AT_type(*$C$DW$T$25)
     274                      .dwattr $C$DW$55, DW_AT_location[DW_OP_bregx 0x24 2]
TMS320C55x Assembler PC v4.4.1 Tue Oct 02 02:33:20 2018

Tools Copyright (c) 1996-2012 Texas Instruments Incorporated
csl_msc.asm                                                          PAGE    6

     275              $C$DW$56        .dwtag  DW_TAG_variable, DW_AT_name("addSenseKey")
     276                      .dwattr $C$DW$56, DW_AT_TI_symbol_name("_addSenseKey")
     277                      .dwattr $C$DW$56, DW_AT_type(*$C$DW$T$25)
     278                      .dwattr $C$DW$56, DW_AT_location[DW_OP_bregx 0x24 3]
     279 000002 C506          MOV T1, *SP(#3) ; |91| 
     280 000004 C404          MOV T0, *SP(#2) ; |91| 
     281 000006 EB00          MOV XAR0, dbl(*SP(#0))
         000008 85   
     282                      .dwpsn  file "F:/eZdsp-DBG-sim/tmp1/c55x-sim2/foo/c5535_bsl_revc/ezdsp5535_v1/c55xx_csl/inc/csl_mscAu
     283 000009 ED00          MOV dbl(*SP(#0)), XAR3
         00000b BF   
     284 00000c A904          MOV *SP(#2), AR1 ; |92| 
     285 00000e C977          MOV AR1, *AR3(short(#3)) ; |92| 
     286                      .dwpsn  file "F:/eZdsp-DBG-sim/tmp1/c55x-sim2/foo/c5535_bsl_revc/ezdsp5535_v1/c55xx_csl/inc/csl_mscAu
     287 000010 ED00          MOV dbl(*SP(#0)), XAR3
         000012 BF   
     288 000013 A906          MOV *SP(#3), AR1 ; |93| 
     289 000015 C96D          MOV AR1, *AR3(#8) ; |93| 
         000017 0008 
     290                      .dwpsn  file "F:/eZdsp-DBG-sim/tmp1/c55x-sim2/foo/c5535_bsl_revc/ezdsp5535_v1/c55xx_csl/inc/csl_mscAu
     291 000019 4E05          AADD #5, SP
     292                      .dwcfi  cfa_offset, 1
     293              $C$DW$57        .dwtag  DW_TAG_TI_branch
     294                      .dwattr $C$DW$57, DW_AT_low_pc(0x00)
     295                      .dwattr $C$DW$57, DW_AT_TI_return
     296 00001b 4804          RET
     297                                                      ; return occurs
     298                      .dwattr $C$DW$50, DW_AT_TI_end_file("F:/eZdsp-DBG-sim/tmp1/c55x-sim2/foo/c5535_bsl_revc/ezdsp5535_v1/
     299                      .dwattr $C$DW$50, DW_AT_TI_end_line(0x5e)
     300                      .dwattr $C$DW$50, DW_AT_TI_end_column(0x01)
     301                      .dwendentry
     302                      .dwendtag $C$DW$50
     303              
     304 00001d               .sect   ".text"
     305                      .align 4
     306              
     307              $C$DW$58        .dwtag  DW_TAG_subprogram, DW_AT_name("MSC_HandleStateReset")
     308                      .dwattr $C$DW$58, DW_AT_low_pc(_MSC_HandleStateReset)
     309                      .dwattr $C$DW$58, DW_AT_high_pc(0x00)
     310                      .dwattr $C$DW$58, DW_AT_TI_symbol_name("_MSC_HandleStateReset")
     311                      .dwattr $C$DW$58, DW_AT_type(*$C$DW$T$89)
     312                      .dwattr $C$DW$58, DW_AT_TI_begin_file("F:/eZdsp-DBG-sim/tmp1/c55x-sim2/foo/c5535_bsl_revc/ezdsp5535_v
     313                      .dwattr $C$DW$58, DW_AT_TI_begin_line(0x8c)
     314                      .dwattr $C$DW$58, DW_AT_TI_begin_column(0x0c)
     315                      .dwattr $C$DW$58, DW_AT_TI_max_frame_size(0x06)
     316                      .dwpsn  file "F:/eZdsp-DBG-sim/tmp1/c55x-sim2/foo/c5535_bsl_revc/ezdsp5535_v1/c55xx_csl/inc/csl_mscAu
     317              
     318                      .dwfde $C$DW$CIE, _MSC_HandleStateReset
     319              $C$DW$59        .dwtag  DW_TAG_formal_parameter, DW_AT_name("pMscHandle")
     320                      .dwattr $C$DW$59, DW_AT_TI_symbol_name("_pMscHandle")
     321                      .dwattr $C$DW$59, DW_AT_type(*$C$DW$T$107)
     322                      .dwattr $C$DW$59, DW_AT_location[DW_OP_reg17]
     323              $C$DW$60        .dwtag  DW_TAG_formal_parameter, DW_AT_name("hUsbOutEp")
     324                      .dwattr $C$DW$60, DW_AT_TI_symbol_name("_hUsbOutEp")
     325                      .dwattr $C$DW$60, DW_AT_type(*$C$DW$T$27)
TMS320C55x Assembler PC v4.4.1 Tue Oct 02 02:33:20 2018

Tools Copyright (c) 1996-2012 Texas Instruments Incorporated
csl_msc.asm                                                          PAGE    7

     326                      .dwattr $C$DW$60, DW_AT_location[DW_OP_reg19]
     327              ;*******************************************************************************
     328              ;* FUNCTION NAME: MSC_HandleStateReset                                         *
     329              ;*                                                                             *
     330              ;*   Function Uses Regs : T0,T1,AR0,XAR0,AR1,XAR1,AR3,XAR3,SP,M40,SATA,SATD,   *
     331              ;*                        RDM,FRCT,SMUL                                        *
     332              ;*   Stack Frame        : Compact (No Frame Pointer, w/ debug)                 *
     333              ;*   Total Frame Size   : 6 words                                              *
     334              ;*                        (1 return address/alignment)                         *
     335              ;*                        (5 local values)                                     *
     336              ;*   Min System Stack   : 1 word                                               *
     337              ;*******************************************************************************
     338 000020       _MSC_HandleStateReset:
     339                      .dwcfi  cfa_offset, 1
     340                      .dwcfi  save_reg_to_mem, 91, -1
     341 000020 4EFB          AADD #-5, SP
     342                      .dwcfi  cfa_offset, 6
     343              $C$DW$61        .dwtag  DW_TAG_variable, DW_AT_name("pMscHandle")
     344                      .dwattr $C$DW$61, DW_AT_TI_symbol_name("_pMscHandle")
     345                      .dwattr $C$DW$61, DW_AT_type(*$C$DW$T$107)
     346                      .dwattr $C$DW$61, DW_AT_location[DW_OP_bregx 0x24 0]
     347              $C$DW$62        .dwtag  DW_TAG_variable, DW_AT_name("hUsbOutEp")
     348                      .dwattr $C$DW$62, DW_AT_TI_symbol_name("_hUsbOutEp")
     349                      .dwattr $C$DW$62, DW_AT_type(*$C$DW$T$27)
     350                      .dwattr $C$DW$62, DW_AT_location[DW_OP_bregx 0x24 2]
     351              $C$DW$63        .dwtag  DW_TAG_variable, DW_AT_name("status")
     352                      .dwattr $C$DW$63, DW_AT_TI_symbol_name("_status")
     353                      .dwattr $C$DW$63, DW_AT_type(*$C$DW$T$89)
     354                      .dwattr $C$DW$63, DW_AT_location[DW_OP_bregx 0x24 4]
     355 000022 EB04          MOV XAR1, dbl(*SP(#2))
         000024 95   
     356 000025 EB00          MOV XAR0, dbl(*SP(#0))
         000027 85   
     357                      .dwpsn  file "F:/eZdsp-DBG-sim/tmp1/c55x-sim2/foo/c5535_bsl_revc/ezdsp5535_v1/c55xx_csl/inc/csl_mscAu
     358 000028 ED04          MOV dbl(*SP(#2)), XAR0
         00002a 8F   
     359              $C$DW$64        .dwtag  DW_TAG_TI_branch
     360                      .dwattr $C$DW$64, DW_AT_low_pc(0x00)
     361                      .dwattr $C$DW$64, DW_AT_name("_USB_abortTransaction")
     362                      .dwattr $C$DW$64, DW_AT_TI_call
     363 00002b 6C00          CALL #_USB_abortTransaction ; |145| 
         00002d 0000!
     364                                                      ; call occurs [#_USB_abortTransaction] ; |145| 
     365 00002f C408          MOV T0, *SP(#4) ; |145| 
     366                      .dwpsn  file "F:/eZdsp-DBG-sim/tmp1/c55x-sim2/foo/c5535_bsl_revc/ezdsp5535_v1/c55xx_csl/inc/csl_mscAu
     367 000031 ED00          MOV dbl(*SP(#0)), XAR1
         000033 9F   
     368 000034 7600          MOV #31, T0 ; |146| 
         000036 1F48 
     369 000038 ED04          MOV dbl(*SP(#2)), XAR0
         00003a 8F   
     370 00003b B42F          AMAR *+AR1(#296) ; |146| 
         00003d 0128 
     371              $C$DW$65        .dwtag  DW_TAG_TI_branch
     372                      .dwattr $C$DW$65, DW_AT_low_pc(0x00)
TMS320C55x Assembler PC v4.4.1 Tue Oct 02 02:33:20 2018

Tools Copyright (c) 1996-2012 Texas Instruments Incorporated
csl_msc.asm                                                          PAGE    8

     373                      .dwattr $C$DW$65, DW_AT_name("_USB_postTransaction")
     374                      .dwattr $C$DW$65, DW_AT_TI_call
     375              
     376 00003f 6C00          CALL #_USB_postTransaction ; |146| 
         000041 0000!
     377 000043 3D05  ||      MOV #0, T1
     378              
     379                                                      ; call occurs [#_USB_postTransaction] ; |146| 
     380 000045 C408          MOV T0, *SP(#4) ; |146| 
     381                      .dwpsn  file "F:/eZdsp-DBG-sim/tmp1/c55x-sim2/foo/c5535_bsl_revc/ezdsp5535_v1/c55xx_csl/inc/csl_mscAu
     382 000047 ED00          MOV dbl(*SP(#0)), XAR3
         000049 BF   
     383 00004a E66D          MOV #1, *AR3(#355) ; |148| 
         00004c 0101 
         00004e 63   
     384                      .dwpsn  file "F:/eZdsp-DBG-sim/tmp1/c55x-sim2/foo/c5535_bsl_revc/ezdsp5535_v1/c55xx_csl/inc/csl_mscAu
     385 00004f A408          MOV *SP(#4), T0 ; |150| 
     386                      .dwpsn  file "F:/eZdsp-DBG-sim/tmp1/c55x-sim2/foo/c5535_bsl_revc/ezdsp5535_v1/c55xx_csl/inc/csl_mscAu
     387 000051 4E05          AADD #5, SP
     388                      .dwcfi  cfa_offset, 1
     389              $C$DW$66        .dwtag  DW_TAG_TI_branch
     390                      .dwattr $C$DW$66, DW_AT_low_pc(0x00)
     391                      .dwattr $C$DW$66, DW_AT_TI_return
     392 000053 4804          RET
     393                                                      ; return occurs
     394                      .dwattr $C$DW$58, DW_AT_TI_end_file("F:/eZdsp-DBG-sim/tmp1/c55x-sim2/foo/c5535_bsl_revc/ezdsp5535_v1/
     395                      .dwattr $C$DW$58, DW_AT_TI_end_line(0x97)
     396                      .dwattr $C$DW$58, DW_AT_TI_end_column(0x01)
     397                      .dwendentry
     398                      .dwendtag $C$DW$58
     399              
     400 000055               .sect   ".text"
     401                      .align 4
     402              
     403              $C$DW$67        .dwtag  DW_TAG_subprogram, DW_AT_name("MSC_HandleStartStopUnit")
     404                      .dwattr $C$DW$67, DW_AT_low_pc(_MSC_HandleStartStopUnit)
     405                      .dwattr $C$DW$67, DW_AT_high_pc(0x00)
     406                      .dwattr $C$DW$67, DW_AT_TI_symbol_name("_MSC_HandleStartStopUnit")
     407                      .dwattr $C$DW$67, DW_AT_type(*$C$DW$T$89)
     408                      .dwattr $C$DW$67, DW_AT_TI_begin_file("F:/eZdsp-DBG-sim/tmp1/c55x-sim2/foo/c5535_bsl_revc/ezdsp5535_v
     409                      .dwattr $C$DW$67, DW_AT_TI_begin_line(0xc7)
     410                      .dwattr $C$DW$67, DW_AT_TI_begin_column(0x0c)
     411                      .dwattr $C$DW$67, DW_AT_TI_max_frame_size(0x0a)
     412                      .dwpsn  file "F:/eZdsp-DBG-sim/tmp1/c55x-sim2/foo/c5535_bsl_revc/ezdsp5535_v1/c55xx_csl/inc/csl_mscAu
     413              
     414                      .dwfde $C$DW$CIE, _MSC_HandleStartStopUnit
     415              $C$DW$68        .dwtag  DW_TAG_formal_parameter, DW_AT_name("pMscHandle")
     416                      .dwattr $C$DW$68, DW_AT_TI_symbol_name("_pMscHandle")
     417                      .dwattr $C$DW$68, DW_AT_type(*$C$DW$T$107)
     418                      .dwattr $C$DW$68, DW_AT_location[DW_OP_reg17]
     419              $C$DW$69        .dwtag  DW_TAG_formal_parameter, DW_AT_name("hUsbInEp")
     420                      .dwattr $C$DW$69, DW_AT_TI_symbol_name("_hUsbInEp")
     421                      .dwattr $C$DW$69, DW_AT_type(*$C$DW$T$27)
     422                      .dwattr $C$DW$69, DW_AT_location[DW_OP_reg19]
     423              $C$DW$70        .dwtag  DW_TAG_formal_parameter, DW_AT_name("lunNum")
TMS320C55x Assembler PC v4.4.1 Tue Oct 02 02:33:20 2018

Tools Copyright (c) 1996-2012 Texas Instruments Incorporated
csl_msc.asm                                                          PAGE    9

     424                      .dwattr $C$DW$70, DW_AT_TI_symbol_name("_lunNum")
     425                      .dwattr $C$DW$70, DW_AT_type(*$C$DW$T$25)
     426                      .dwattr $C$DW$70, DW_AT_location[DW_OP_reg12]
     427              ;*******************************************************************************
     428              ;* FUNCTION NAME: MSC_HandleStartStopUnit                                      *
     429              ;*                                                                             *
     430              ;*   Function Uses Regs : AC0,AC0,AC1,AC1,T0,T1,AR0,XAR0,AR1,XAR1,AR2,XAR2,AR3,*
     431              ;*                        XAR3,SP,CARRY,TC1,M40,SATA,SATD,RDM,FRCT,SMUL        *
     432              ;*   Stack Frame        : Compact (No Frame Pointer, w/ debug)                 *
     433              ;*   Total Frame Size   : 10 words                                             *
     434              ;*                        (2 return address/alignment)                         *
     435              ;*                        (8 local values)                                     *
     436              ;*   Min System Stack   : 1 word                                               *
     437              ;*******************************************************************************
     438 000058       _MSC_HandleStartStopUnit:
     439                      .dwcfi  cfa_offset, 1
     440                      .dwcfi  save_reg_to_mem, 91, -1
     441 000058 4EF7          AADD #-9, SP
     442                      .dwcfi  cfa_offset, 10
     443              $C$DW$71        .dwtag  DW_TAG_variable, DW_AT_name("pMscHandle")
     444                      .dwattr $C$DW$71, DW_AT_TI_symbol_name("_pMscHandle")
     445                      .dwattr $C$DW$71, DW_AT_type(*$C$DW$T$107)
     446                      .dwattr $C$DW$71, DW_AT_location[DW_OP_bregx 0x24 0]
     447              $C$DW$72        .dwtag  DW_TAG_variable, DW_AT_name("hUsbInEp")
     448                      .dwattr $C$DW$72, DW_AT_TI_symbol_name("_hUsbInEp")
     449                      .dwattr $C$DW$72, DW_AT_type(*$C$DW$T$27)
     450                      .dwattr $C$DW$72, DW_AT_location[DW_OP_bregx 0x24 2]
     451              $C$DW$73        .dwtag  DW_TAG_variable, DW_AT_name("lunNum")
     452                      .dwattr $C$DW$73, DW_AT_TI_symbol_name("_lunNum")
     453                      .dwattr $C$DW$73, DW_AT_type(*$C$DW$T$25)
     454                      .dwattr $C$DW$73, DW_AT_location[DW_OP_bregx 0x24 4]
     455              $C$DW$74        .dwtag  DW_TAG_variable, DW_AT_name("mediaEjectStat")
     456                      .dwattr $C$DW$74, DW_AT_TI_symbol_name("_mediaEjectStat")
     457                      .dwattr $C$DW$74, DW_AT_type(*$C$DW$T$52)
     458                      .dwattr $C$DW$74, DW_AT_location[DW_OP_bregx 0x24 5]
     459              $C$DW$75        .dwtag  DW_TAG_variable, DW_AT_name("status")
     460                      .dwattr $C$DW$75, DW_AT_TI_symbol_name("_status")
     461                      .dwattr $C$DW$75, DW_AT_type(*$C$DW$T$89)
     462                      .dwattr $C$DW$75, DW_AT_location[DW_OP_bregx 0x24 6]
     463              $C$DW$76        .dwtag  DW_TAG_variable, DW_AT_name("loadEject")
     464                      .dwattr $C$DW$76, DW_AT_TI_symbol_name("_loadEject")
     465                      .dwattr $C$DW$76, DW_AT_type(*$C$DW$T$25)
     466                      .dwattr $C$DW$76, DW_AT_location[DW_OP_bregx 0x24 7]
     467 00005a C408          MOV T0, *SP(#4) ; |202| 
     468 00005c EB04          MOV XAR1, dbl(*SP(#2))
         00005e 95   
     469 00005f EB00          MOV XAR0, dbl(*SP(#0))
         000061 85   
     470                      .dwpsn  file "F:/eZdsp-DBG-sim/tmp1/c55x-sim2/foo/c5535_bsl_revc/ezdsp5535_v1/c55xx_csl/inc/csl_mscAu
     471 000062 ED00          MOV dbl(*SP(#0)), XAR3
         000064 BF   
     472 000065 ED6D          MOV dbl(*AR3(#16)), AC0 ; |207| 
         000067 0800 
         000069 10   
     473 00006a 0400          BCC $C$L1,AC0 == #0 ; |207| 
TMS320C55x Assembler PC v4.4.1 Tue Oct 02 02:33:20 2018

Tools Copyright (c) 1996-2012 Texas Instruments Incorporated
csl_msc.asm                                                          PAGE   10

         00006c 42   
     474                                                      ; branchcc occurs ; |207| 
     475                      .dwpsn  file "F:/eZdsp-DBG-sim/tmp1/c55x-sim2/foo/c5535_bsl_revc/ezdsp5535_v1/c55xx_csl/inc/csl_mscAu
     476 00006d E66D          MOV #2, *AR3(#355) ; |210| 
         00006f 0201 
         000071 63   
     477                      .dwpsn  file "F:/eZdsp-DBG-sim/tmp1/c55x-sim2/foo/c5535_bsl_revc/ezdsp5535_v1/c55xx_csl/inc/csl_mscAu
     478 000072 ED00          MOV dbl(*SP(#0)), XAR0
         000074 8F   
     479 000075 B40F          AMAR *+AR0(#334) ; |211| 
         000077 014E 
     480              $C$DW$77        .dwtag  DW_TAG_TI_branch
     481                      .dwattr $C$DW$77, DW_AT_low_pc(0x00)
     482                      .dwattr $C$DW$77, DW_AT_name("_USB_stallEndpt")
     483                      .dwattr $C$DW$77, DW_AT_TI_call
     484 000079 6C00          CALL #_USB_stallEndpt ; |211| 
         00007b 0000!
     485                                                      ; call occurs [#_USB_stallEndpt] ; |211| 
     486 00007d C40C          MOV T0, *SP(#6) ; |211| 
     487                      .dwpsn  file "F:/eZdsp-DBG-sim/tmp1/c55x-sim2/foo/c5535_bsl_revc/ezdsp5535_v1/c55xx_csl/inc/csl_mscAu
     488 00007f ED00          MOV dbl(*SP(#0)), XAR0
         000081 8F   
     489 000082 B40F          AMAR *+AR0(#314) ; |212| 
         000084 013A 
     490              $C$DW$78        .dwtag  DW_TAG_TI_branch
     491                      .dwattr $C$DW$78, DW_AT_low_pc(0x00)
     492                      .dwattr $C$DW$78, DW_AT_name("_USB_stallEndpt")
     493                      .dwattr $C$DW$78, DW_AT_TI_call
     494 000086 6C00          CALL #_USB_stallEndpt ; |212| 
         000088 0000!
     495                                                      ; call occurs [#_USB_stallEndpt] ; |212| 
     496 00008a C40C          MOV T0, *SP(#6) ; |212| 
     497                      .dwpsn  file "F:/eZdsp-DBG-sim/tmp1/c55x-sim2/foo/c5535_bsl_revc/ezdsp5535_v1/c55xx_csl/inc/csl_mscAu
     498 00008c ED00          MOV dbl(*SP(#0)), XAR0
         00008e 8F   
     499 00008f ED00          MOV dbl(*SP(#0)), XAR3
         000091 BF   
     500 000092 7600          MOV #32, T1 ; |216| 
         000094 2058 
     501 000096 B40F          AMAR *+AR0(#314) ; |216| 
         000098 013A 
     502 00009a ED6D          MOV dbl(*AR3(#14)), XAR1
         00009c 9F00 
         00009e 0E   
     503              $C$DW$79        .dwtag  DW_TAG_TI_branch
     504                      .dwattr $C$DW$79, DW_AT_low_pc(0x00)
     505                      .dwattr $C$DW$79, DW_AT_name("_USB_postTransaction")
     506                      .dwattr $C$DW$79, DW_AT_TI_call
     507              
     508 00009f 6C00          CALL #_USB_postTransaction ; |216| 
         0000a1 0000!
     509 0000a3 3D04  ||      MOV #0, T0
     510              
     511                                                      ; call occurs [#_USB_postTransaction] ; |216| 
     512 0000a5 DA0C          OR *SP(#6), T0, AR1 ; |216| 
TMS320C55x Assembler PC v4.4.1 Tue Oct 02 02:33:20 2018

Tools Copyright (c) 1996-2012 Texas Instruments Incorporated
csl_msc.asm                                                          PAGE   11

         0000a7 94   
     513 0000a8 C90C          MOV AR1, *SP(#6) ; |216| 
     514                      .dwpsn  file "F:/eZdsp-DBG-sim/tmp1/c55x-sim2/foo/c5535_bsl_revc/ezdsp5535_v1/c55xx_csl/inc/csl_mscAu
     515 0000aa 2294          MOV AR1, T0
     516 0000ac 0600          B $C$L6   ; |221| 
         0000ae E9   
     517                                                      ; branch occurs ; |221| 
     518 0000af       $C$L1:    
     519                      .dwpsn  file "F:/eZdsp-DBG-sim/tmp1/c55x-sim2/foo/c5535_bsl_revc/ezdsp5535_v1/c55xx_csl/inc/csl_mscAu
     520 0000af DF6D          MOV uns(high_byte(*AR3(#306))), AR1 ; |224| 
         0000b1 9101 
         0000b3 32   
     521 0000b4 C90E          MOV AR1, *SP(#7) ; |224| 
     522                      .dwpsn  file "F:/eZdsp-DBG-sim/tmp1/c55x-sim2/foo/c5535_bsl_revc/ezdsp5535_v1/c55xx_csl/inc/csl_mscAu
     523 0000b6 ED00          MOV dbl(*SP(#0)), XAR3
         0000b8 BF   
     524 0000b9 E66D          MOV #0, *AR3(#289) ; |225| 
         0000bb 0001 
         0000bd 21   
     525                      .dwpsn  file "F:/eZdsp-DBG-sim/tmp1/c55x-sim2/foo/c5535_bsl_revc/ezdsp5535_v1/c55xx_csl/inc/csl_mscAu
     526 0000be ED00          MOV dbl(*SP(#0)), XAR3
         0000c0 BF   
     527 0000c1 E66D          MOV #4, *AR3(#355) ; |227| 
         0000c3 0401 
         0000c5 63   
     528                      .dwpsn  file "F:/eZdsp-DBG-sim/tmp1/c55x-sim2/foo/c5535_bsl_revc/ezdsp5535_v1/c55xx_csl/inc/csl_mscAu
     529 0000c6 F00E          CMP *SP(#7) == #2, TC1 ; |229| 
         0000c8 0002 
     530 0000ca 6D74          BCC $C$L4,!TC1 ; |229| 
         0000cc 008E 
     531                                                      ; branchcc occurs ; |229| 
     532                      .dwpsn  file "F:/eZdsp-DBG-sim/tmp1/c55x-sim2/foo/c5535_bsl_revc/ezdsp5535_v1/c55xx_csl/inc/csl_mscAu
     533 0000ce ED00          MOV dbl(*SP(#0)), XAR3
         0000d0 BF   
     534 0000d1 DF08          MOV uns(*SP(#4)), AC1 ; |231| 
         0000d3 15   
     535 0000d4 1015          SFTS AC1, #6, AC0 ; |231| 
         0000d6 06   
     536 0000d7 1014          SUB AC1 << #1, AC0 ; |231| 
         0000d9 01   
     537 0000da 900A          MOV AC0, XAR2
     538 0000dc 14A1          AADD XAR2, XAR3 ; |231| 
         0000de B0   
     539 0000df DC6D          BTST #1, *AR3(#75), TC1 ; |231| 
         0000e1 1000 
         0000e3 4B   
     540 0000e4 0474          BCC $C$L2,!TC1 ; |231| 
         0000e6 1B   
     541                                                      ; branchcc occurs ; |231| 
     542                      .dwpsn  file "F:/eZdsp-DBG-sim/tmp1/c55x-sim2/foo/c5535_bsl_revc/ezdsp5535_v1/c55xx_csl/inc/csl_mscAu
     543 0000e7 ED00          MOV dbl(*SP(#0)), XAR0
         0000e9 8F   
     544 0000ea 7602          MOV #595, T1 ; |233| 
         0000ec 5358 
     545 0000ee B40F          AMAR *+AR0(#266) ; |233| 
TMS320C55x Assembler PC v4.4.1 Tue Oct 02 02:33:20 2018

Tools Copyright (c) 1996-2012 Texas Instruments Incorporated
csl_msc.asm                                                          PAGE   12

         0000f0 010A 
     546              $C$DW$80        .dwtag  DW_TAG_TI_branch
     547                      .dwattr $C$DW$80, DW_AT_low_pc(0x00)
     548                      .dwattr $C$DW$80, DW_AT_name("_MSC_SetSenseKeys")
     549                      .dwattr $C$DW$80, DW_AT_TI_call
     550              
     551 0000f2 08FF          CALL #_MSC_SetSenseKeys ; |233| 
         0000f4 09   
     552 0000f5 3D64  ||      MOV #6, T0
     553              
     554                                                      ; call occurs [#_MSC_SetSenseKeys] ; |233| 
     555                      .dwpsn  file "F:/eZdsp-DBG-sim/tmp1/c55x-sim2/foo/c5535_bsl_revc/ezdsp5535_v1/c55xx_csl/inc/csl_mscAu
     556 0000f7 ED00          MOV dbl(*SP(#0)), XAR3
         0000f9 BF   
     557 0000fa E66D          MOV #1, *AR3(#289) ; |236| 
         0000fc 0101 
         0000fe 21   
     558                      .dwpsn  file "F:/eZdsp-DBG-sim/tmp1/c55x-sim2/foo/c5535_bsl_revc/ezdsp5535_v1/c55xx_csl/inc/csl_mscAu
     559 0000ff 0600          B $C$L5   ; |237| 
         000101 82   
     560                                                      ; branch occurs ; |237| 
     561 000102       $C$L2:    
     562                      .dwpsn  file "F:/eZdsp-DBG-sim/tmp1/c55x-sim2/foo/c5535_bsl_revc/ezdsp5535_v1/c55xx_csl/inc/csl_mscAu
     563 000102 ED00          MOV dbl(*SP(#0)), XAR3
         000104 BF   
     564 000105 A408          MOV *SP(#4), T0 ; |240| 
     565 000107 ED6D          MOV dbl(*AR3(#8)), AC0 ; |240| 
         000109 0800 
         00010b 08   
     566              $C$DW$81        .dwtag  DW_TAG_TI_branch
     567                      .dwattr $C$DW$81, DW_AT_low_pc(0x00)
     568                      .dwattr $C$DW$81, DW_AT_TI_call
     569                      .dwattr $C$DW$81, DW_AT_TI_indirect
     570 00010c 9200          CALL AC0  ; |240| 
     571                                                      ; call occurs [AC0] ; |240| 
     572 00010e C40A          MOV T0, *SP(#5) ; |240| 
     573                      .dwpsn  file "F:/eZdsp-DBG-sim/tmp1/c55x-sim2/foo/c5535_bsl_revc/ezdsp5535_v1/c55xx_csl/inc/csl_mscAu
     574 000110 F00A          CMP *SP(#5) == #1, TC1 ; |241| 
         000112 0001 
     575 000114 0474          BCC $C$L3,!TC1 ; |241| 
         000116 2B   
     576                                                      ; branchcc occurs ; |241| 
     577                      .dwpsn  file "F:/eZdsp-DBG-sim/tmp1/c55x-sim2/foo/c5535_bsl_revc/ezdsp5535_v1/c55xx_csl/inc/csl_mscAu
     578 000117 ED00          MOV dbl(*SP(#0)), XAR3
         000119 BF   
     579 00011a DF08          MOV uns(*SP(#4)), AC1 ; |244| 
         00011c 15   
     580 00011d 1015          SFTS AC1, #6, AC0 ; |244| 
         00011f 06   
     581 000120 1014          SUB AC1 << #1, AC0 ; |244| 
         000122 01   
     582 000123 900A          MOV AC0, XAR2
     583 000125 14A1          AADD XAR2, XAR3 ; |244| 
         000127 B0   
     584 000128 1412          AADD #18, AR3 ; |244| 
TMS320C55x Assembler PC v4.4.1 Tue Oct 02 02:33:20 2018

Tools Copyright (c) 1996-2012 Texas Instruments Incorporated
csl_msc.asm                                                          PAGE   13

         00012a B4   
     585 00012b F46D          AND #0xfff6, *AR3(#57) ; |244| 
         00012d FFF6 
         00012f 0039 
     586                      .dwpsn  file "F:/eZdsp-DBG-sim/tmp1/c55x-sim2/foo/c5535_bsl_revc/ezdsp5535_v1/c55xx_csl/inc/csl_mscAu
     587 000131 ED00          MOV dbl(*SP(#0)), XAR0
         000133 8F   
     588 000134 3C04          MOV #0, T0
     589 000136 B40F          AMAR *+AR0(#266) ; |245| 
         000138 010A 
     590              $C$DW$82        .dwtag  DW_TAG_TI_branch
     591                      .dwattr $C$DW$82, DW_AT_low_pc(0x00)
     592                      .dwattr $C$DW$82, DW_AT_name("_MSC_SetSenseKeys")
     593                      .dwattr $C$DW$82, DW_AT_TI_call
     594              
     595 00013a 08FE          CALL #_MSC_SetSenseKeys ; |245| 
         00013c C1   
     596 00013d 3D05  ||      MOV #0, T1
     597              
     598                                                      ; call occurs [#_MSC_SetSenseKeys] ; |245| 
     599                      .dwpsn  file "F:/eZdsp-DBG-sim/tmp1/c55x-sim2/foo/c5535_bsl_revc/ezdsp5535_v1/c55xx_csl/inc/csl_mscAu
     600 00013f 0600          B $C$L5   ; |248| 
         000141 42   
     601                                                      ; branch occurs ; |248| 
     602 000142       $C$L3:    
     603                      .dwpsn  file "F:/eZdsp-DBG-sim/tmp1/c55x-sim2/foo/c5535_bsl_revc/ezdsp5535_v1/c55xx_csl/inc/csl_mscAu
     604 000142 ED00          MOV dbl(*SP(#0)), XAR3
         000144 BF   
     605 000145 E66D          MOV #1, *AR3(#289) ; |251| 
         000147 0101 
         000149 21   
     606                      .dwpsn  file "F:/eZdsp-DBG-sim/tmp1/c55x-sim2/foo/c5535_bsl_revc/ezdsp5535_v1/c55xx_csl/inc/csl_mscAu
     607 00014a ED00          MOV dbl(*SP(#0)), XAR0
         00014c 8F   
     608 00014d 7600          MOV #32, T1 ; |252| 
         00014f 2058 
     609 000151 B40F          AMAR *+AR0(#266) ; |252| 
         000153 010A 
     610              $C$DW$83        .dwtag  DW_TAG_TI_branch
     611                      .dwattr $C$DW$83, DW_AT_low_pc(0x00)
     612                      .dwattr $C$DW$83, DW_AT_name("_MSC_SetSenseKeys")
     613                      .dwattr $C$DW$83, DW_AT_TI_call
     614              
     615 000155 08FE          CALL #_MSC_SetSenseKeys ; |252| 
         000157 A6   
     616 000158 3D54  ||      MOV #5, T0
     617              
     618                                                      ; call occurs [#_MSC_SetSenseKeys] ; |252| 
     619                      .dwpsn  file "F:/eZdsp-DBG-sim/tmp1/c55x-sim2/foo/c5535_bsl_revc/ezdsp5535_v1/c55xx_csl/inc/csl_mscAu
     620 00015a 4A28          B $C$L5   ; |257| 
     621                                                      ; branch occurs ; |257| 
     622 00015c       $C$L4:    
     623                      .dwpsn  file "F:/eZdsp-DBG-sim/tmp1/c55x-sim2/foo/c5535_bsl_revc/ezdsp5535_v1/c55xx_csl/inc/csl_mscAu
     624 00015c ED00          MOV dbl(*SP(#0)), XAR0
         00015e 8F   
TMS320C55x Assembler PC v4.4.1 Tue Oct 02 02:33:20 2018

Tools Copyright (c) 1996-2012 Texas Instruments Incorporated
csl_msc.asm                                                          PAGE   14

     625 00015f 3C04          MOV #0, T0
     626 000161 B40F          AMAR *+AR0(#266) ; |260| 
         000163 010A 
     627              $C$DW$84        .dwtag  DW_TAG_TI_branch
     628                      .dwattr $C$DW$84, DW_AT_low_pc(0x00)
     629                      .dwattr $C$DW$84, DW_AT_name("_MSC_SetSenseKeys")
     630                      .dwattr $C$DW$84, DW_AT_TI_call
     631              
     632 000165 08FE          CALL #_MSC_SetSenseKeys ; |260| 
         000167 96   
     633 000168 3D05  ||      MOV #0, T1
     634              
     635                                                      ; call occurs [#_MSC_SetSenseKeys] ; |260| 
     636                      .dwpsn  file "F:/eZdsp-DBG-sim/tmp1/c55x-sim2/foo/c5535_bsl_revc/ezdsp5535_v1/c55xx_csl/inc/csl_mscAu
     637 00016a ED00          MOV dbl(*SP(#0)), XAR3
         00016c BF   
     638 00016d DF08          MOV uns(*SP(#4)), AC1 ; |264| 
         00016f 15   
     639 000170 1015          SFTS AC1, #6, AC0 ; |264| 
         000172 06   
     640 000173 1014          SUB AC1 << #1, AC0 ; |264| 
         000175 01   
     641 000176 900A          MOV AC0, XAR2
     642 000178 14A1          AADD XAR2, XAR3 ; |264| 
         00017a B0   
     643 00017b 1412          AADD #18, AR3 ; |264| 
         00017d B4   
     644 00017e F46D          AND #0xfff6, *AR3(#57) ; |264| 
         000180 FFF6 
         000182 0039 
     645 000184       $C$L5:    
     646                      .dwpsn  file "F:/eZdsp-DBG-sim/tmp1/c55x-sim2/foo/c5535_bsl_revc/ezdsp5535_v1/c55xx_csl/inc/csl_mscAu
     647 000184 ED00          MOV dbl(*SP(#0)), XAR1
         000186 9F   
     648 000187 ED04          MOV dbl(*SP(#2)), XAR0
         000189 8F   
     649 00018a 3CD4          MOV #13, T0
     650 00018c B42F          AMAR *+AR1(#282) ; |267| 
         00018e 011A 
     651              $C$DW$85        .dwtag  DW_TAG_TI_branch
     652                      .dwattr $C$DW$85, DW_AT_low_pc(0x00)
     653                      .dwattr $C$DW$85, DW_AT_name("_USB_postTransaction")
     654                      .dwattr $C$DW$85, DW_AT_TI_call
     655              
     656 000190 6C00          CALL #_USB_postTransaction ; |267| 
         000192 0000!
     657 000194 3D05  ||      MOV #0, T1
     658              
     659                                                      ; call occurs [#_USB_postTransaction] ; |267| 
     660 000196 C40C          MOV T0, *SP(#6) ; |267| 
     661                      .dwpsn  file "F:/eZdsp-DBG-sim/tmp1/c55x-sim2/foo/c5535_bsl_revc/ezdsp5535_v1/c55xx_csl/inc/csl_mscAu
     662 000198       $C$L6:    
     663                      .dwpsn  file "F:/eZdsp-DBG-sim/tmp1/c55x-sim2/foo/c5535_bsl_revc/ezdsp5535_v1/c55xx_csl/inc/csl_mscAu
     664 000198 4E09          AADD #9, SP
     665                      .dwcfi  cfa_offset, 1
TMS320C55x Assembler PC v4.4.1 Tue Oct 02 02:33:20 2018

Tools Copyright (c) 1996-2012 Texas Instruments Incorporated
csl_msc.asm                                                          PAGE   15

     666              $C$DW$86        .dwtag  DW_TAG_TI_branch
     667                      .dwattr $C$DW$86, DW_AT_low_pc(0x00)
     668                      .dwattr $C$DW$86, DW_AT_TI_return
     669 00019a 4804          RET
     670                                                      ; return occurs
     671                      .dwattr $C$DW$67, DW_AT_TI_end_file("F:/eZdsp-DBG-sim/tmp1/c55x-sim2/foo/c5535_bsl_revc/ezdsp5535_v1/
     672                      .dwattr $C$DW$67, DW_AT_TI_end_line(0x10e)
     673                      .dwattr $C$DW$67, DW_AT_TI_end_column(0x01)
     674                      .dwendentry
     675                      .dwendtag $C$DW$67
     676              
     677 00019c               .sect   ".text"
     678                      .align 4
     679              
     680              $C$DW$87        .dwtag  DW_TAG_subprogram, DW_AT_name("MSC_HandleStateSendCSW")
     681                      .dwattr $C$DW$87, DW_AT_low_pc(_MSC_HandleStateSendCSW)
     682                      .dwattr $C$DW$87, DW_AT_high_pc(0x00)
     683                      .dwattr $C$DW$87, DW_AT_TI_symbol_name("_MSC_HandleStateSendCSW")
     684                      .dwattr $C$DW$87, DW_AT_type(*$C$DW$T$89)
     685                      .dwattr $C$DW$87, DW_AT_TI_begin_file("F:/eZdsp-DBG-sim/tmp1/c55x-sim2/foo/c5535_bsl_revc/ezdsp5535_v
     686                      .dwattr $C$DW$87, DW_AT_TI_begin_line(0x13e)
     687                      .dwattr $C$DW$87, DW_AT_TI_begin_column(0x0c)
     688                      .dwattr $C$DW$87, DW_AT_TI_max_frame_size(0x08)
     689                      .dwpsn  file "F:/eZdsp-DBG-sim/tmp1/c55x-sim2/foo/c5535_bsl_revc/ezdsp5535_v1/c55xx_csl/inc/csl_mscAu
     690              
     691                      .dwfde $C$DW$CIE, _MSC_HandleStateSendCSW
     692              $C$DW$88        .dwtag  DW_TAG_formal_parameter, DW_AT_name("pMscHandle")
     693                      .dwattr $C$DW$88, DW_AT_TI_symbol_name("_pMscHandle")
     694                      .dwattr $C$DW$88, DW_AT_type(*$C$DW$T$107)
     695                      .dwattr $C$DW$88, DW_AT_location[DW_OP_reg17]
     696              $C$DW$89        .dwtag  DW_TAG_formal_parameter, DW_AT_name("hUsbOutEp")
     697                      .dwattr $C$DW$89, DW_AT_TI_symbol_name("_hUsbOutEp")
     698                      .dwattr $C$DW$89, DW_AT_type(*$C$DW$T$27)
     699                      .dwattr $C$DW$89, DW_AT_location[DW_OP_reg19]
     700              $C$DW$90        .dwtag  DW_TAG_formal_parameter, DW_AT_name("hUsbInEp")
     701                      .dwattr $C$DW$90, DW_AT_TI_symbol_name("_hUsbInEp")
     702                      .dwattr $C$DW$90, DW_AT_type(*$C$DW$T$27)
     703                      .dwattr $C$DW$90, DW_AT_location[DW_OP_reg21]
     704              ;*******************************************************************************
     705              ;* FUNCTION NAME: MSC_HandleStateSendCSW                                       *
     706              ;*                                                                             *
     707              ;*   Function Uses Regs : T0,T1,AR0,XAR0,AR1,XAR1,AR2,XAR2,AR3,XAR3,SP,M40,    *
     708              ;*                        SATA,SATD,RDM,FRCT,SMUL                              *
     709              ;*   Stack Frame        : Compact (No Frame Pointer, w/ debug)                 *
     710              ;*   Total Frame Size   : 8 words                                              *
     711              ;*                        (1 return address/alignment)                         *
     712              ;*                        (7 local values)                                     *
     713              ;*   Min System Stack   : 1 word                                               *
     714              ;*******************************************************************************
     715 00019c       _MSC_HandleStateSendCSW:
     716                      .dwcfi  cfa_offset, 1
     717                      .dwcfi  save_reg_to_mem, 91, -1
     718 00019c 4EF9          AADD #-7, SP
     719                      .dwcfi  cfa_offset, 8
     720              $C$DW$91        .dwtag  DW_TAG_variable, DW_AT_name("pMscHandle")
TMS320C55x Assembler PC v4.4.1 Tue Oct 02 02:33:20 2018

Tools Copyright (c) 1996-2012 Texas Instruments Incorporated
csl_msc.asm                                                          PAGE   16

     721                      .dwattr $C$DW$91, DW_AT_TI_symbol_name("_pMscHandle")
     722                      .dwattr $C$DW$91, DW_AT_type(*$C$DW$T$107)
     723                      .dwattr $C$DW$91, DW_AT_location[DW_OP_bregx 0x24 0]
     724              $C$DW$92        .dwtag  DW_TAG_variable, DW_AT_name("hUsbOutEp")
     725                      .dwattr $C$DW$92, DW_AT_TI_symbol_name("_hUsbOutEp")
     726                      .dwattr $C$DW$92, DW_AT_type(*$C$DW$T$27)
     727                      .dwattr $C$DW$92, DW_AT_location[DW_OP_bregx 0x24 2]
     728              $C$DW$93        .dwtag  DW_TAG_variable, DW_AT_name("hUsbInEp")
     729                      .dwattr $C$DW$93, DW_AT_TI_symbol_name("_hUsbInEp")
     730                      .dwattr $C$DW$93, DW_AT_type(*$C$DW$T$27)
     731                      .dwattr $C$DW$93, DW_AT_location[DW_OP_bregx 0x24 4]
     732              $C$DW$94        .dwtag  DW_TAG_variable, DW_AT_name("status")
     733                      .dwattr $C$DW$94, DW_AT_TI_symbol_name("_status")
     734                      .dwattr $C$DW$94, DW_AT_type(*$C$DW$T$89)
     735                      .dwattr $C$DW$94, DW_AT_location[DW_OP_bregx 0x24 6]
     736 00019e EB08          MOV XAR2, dbl(*SP(#4))
         0001a0 A5   
     737 0001a1 EB04          MOV XAR1, dbl(*SP(#2))
         0001a3 95   
     738 0001a4 EB00          MOV XAR0, dbl(*SP(#0))
         0001a6 85   
     739                      .dwpsn  file "F:/eZdsp-DBG-sim/tmp1/c55x-sim2/foo/c5535_bsl_revc/ezdsp5535_v1/c55xx_csl/inc/csl_mscAu
     740 0001a7 ED08          MOV dbl(*SP(#4)), XAR0
         0001a9 8F   
     741 0001aa EC0C          AMAR *SP(#6), XAR1
         0001ac 9E   
     742              $C$DW$95        .dwtag  DW_TAG_TI_branch
     743                      .dwattr $C$DW$95, DW_AT_low_pc(0x00)
     744                      .dwattr $C$DW$95, DW_AT_name("_USB_isTransactionDone")
     745                      .dwattr $C$DW$95, DW_AT_TI_call
     746 0001ad 6C00          CALL #_USB_isTransactionDone ; |324| 
         0001af 0000!
     747                                                      ; call occurs [#_USB_isTransactionDone] ; |324| 
     748 0001b1 0404          BCC $C$L7,T0 == #0 ; |324| 
         0001b3 29   
     749                                                      ; branchcc occurs ; |324| 
     750                      .dwpsn  file "F:/eZdsp-DBG-sim/tmp1/c55x-sim2/foo/c5535_bsl_revc/ezdsp5535_v1/c55xx_csl/inc/csl_mscAu
     751 0001b4 ED00          MOV dbl(*SP(#0)), XAR3
         0001b6 BF   
     752 0001b7 E66D          MOV #0, *AR3(#281) ; |326| 
         0001b9 0001 
         0001bb 19   
     753                      .dwpsn  file "F:/eZdsp-DBG-sim/tmp1/c55x-sim2/foo/c5535_bsl_revc/ezdsp5535_v1/c55xx_csl/inc/csl_mscAu
     754 0001bc ED00          MOV dbl(*SP(#0)), XAR3
         0001be BF   
     755 0001bf E66D          MOV #1, *AR3(#355) ; |327| 
         0001c1 0101 
         0001c3 63   
     756                      .dwpsn  file "F:/eZdsp-DBG-sim/tmp1/c55x-sim2/foo/c5535_bsl_revc/ezdsp5535_v1/c55xx_csl/inc/csl_mscAu
     757 0001c4 ED00          MOV dbl(*SP(#0)), XAR1
         0001c6 9F   
     758 0001c7 7600          MOV #31, T0 ; |328| 
         0001c9 1F48 
     759 0001cb ED04          MOV dbl(*SP(#2)), XAR0
         0001cd 8F   
TMS320C55x Assembler PC v4.4.1 Tue Oct 02 02:33:20 2018

Tools Copyright (c) 1996-2012 Texas Instruments Incorporated
csl_msc.asm                                                          PAGE   17

     760 0001ce B42F          AMAR *+AR1(#296) ; |328| 
         0001d0 0128 
     761              $C$DW$96        .dwtag  DW_TAG_TI_branch
     762                      .dwattr $C$DW$96, DW_AT_low_pc(0x00)
     763                      .dwattr $C$DW$96, DW_AT_name("_USB_postTransaction")
     764                      .dwattr $C$DW$96, DW_AT_TI_call
     765              
     766 0001d2 6C00          CALL #_USB_postTransaction ; |328| 
         0001d4 0000!
     767 0001d6 3D05  ||      MOV #0, T1
     768              
     769                                                      ; call occurs [#_USB_postTransaction] ; |328| 
     770 0001d8 DA0C          OR *SP(#6), T0, AR1 ; |328| 
         0001da 94   
     771 0001db C90C          MOV AR1, *SP(#6) ; |328| 
     772 0001dd       $C$L7:    
     773                      .dwpsn  file "F:/eZdsp-DBG-sim/tmp1/c55x-sim2/foo/c5535_bsl_revc/ezdsp5535_v1/c55xx_csl/inc/csl_mscAu
     774 0001dd A40C          MOV *SP(#6), T0 ; |332| 
     775                      .dwpsn  file "F:/eZdsp-DBG-sim/tmp1/c55x-sim2/foo/c5535_bsl_revc/ezdsp5535_v1/c55xx_csl/inc/csl_mscAu
     776 0001df 4E07          AADD #7, SP
     777                      .dwcfi  cfa_offset, 1
     778              $C$DW$97        .dwtag  DW_TAG_TI_branch
     779                      .dwattr $C$DW$97, DW_AT_low_pc(0x00)
     780                      .dwattr $C$DW$97, DW_AT_TI_return
     781 0001e1 4804          RET
     782                                                      ; return occurs
     783                      .dwattr $C$DW$87, DW_AT_TI_end_file("F:/eZdsp-DBG-sim/tmp1/c55x-sim2/foo/c5535_bsl_revc/ezdsp5535_v1/
     784                      .dwattr $C$DW$87, DW_AT_TI_end_line(0x14d)
     785                      .dwattr $C$DW$87, DW_AT_TI_end_column(0x01)
     786                      .dwendentry
     787                      .dwendtag $C$DW$87
     788              
     789 0001e3               .sect   ".text"
     790                      .align 4
     791              
     792              $C$DW$98        .dwtag  DW_TAG_subprogram, DW_AT_name("MSC_HandleStateSendData")
     793                      .dwattr $C$DW$98, DW_AT_low_pc(_MSC_HandleStateSendData)
     794                      .dwattr $C$DW$98, DW_AT_high_pc(0x00)
     795                      .dwattr $C$DW$98, DW_AT_TI_symbol_name("_MSC_HandleStateSendData")
     796                      .dwattr $C$DW$98, DW_AT_type(*$C$DW$T$89)
     797                      .dwattr $C$DW$98, DW_AT_TI_begin_file("F:/eZdsp-DBG-sim/tmp1/c55x-sim2/foo/c5535_bsl_revc/ezdsp5535_v
     798                      .dwattr $C$DW$98, DW_AT_TI_begin_line(0x17c)
     799                      .dwattr $C$DW$98, DW_AT_TI_begin_column(0x0c)
     800                      .dwattr $C$DW$98, DW_AT_TI_max_frame_size(0x06)
     801                      .dwpsn  file "F:/eZdsp-DBG-sim/tmp1/c55x-sim2/foo/c5535_bsl_revc/ezdsp5535_v1/c55xx_csl/inc/csl_mscAu
     802              
     803                      .dwfde $C$DW$CIE, _MSC_HandleStateSendData
     804              $C$DW$99        .dwtag  DW_TAG_formal_parameter, DW_AT_name("pMscHandle")
     805                      .dwattr $C$DW$99, DW_AT_TI_symbol_name("_pMscHandle")
     806                      .dwattr $C$DW$99, DW_AT_type(*$C$DW$T$107)
     807                      .dwattr $C$DW$99, DW_AT_location[DW_OP_reg17]
     808              $C$DW$100       .dwtag  DW_TAG_formal_parameter, DW_AT_name("hUsbInEp")
     809                      .dwattr $C$DW$100, DW_AT_TI_symbol_name("_hUsbInEp")
     810                      .dwattr $C$DW$100, DW_AT_type(*$C$DW$T$27)
     811                      .dwattr $C$DW$100, DW_AT_location[DW_OP_reg19]
TMS320C55x Assembler PC v4.4.1 Tue Oct 02 02:33:20 2018

Tools Copyright (c) 1996-2012 Texas Instruments Incorporated
csl_msc.asm                                                          PAGE   18

     812              ;*******************************************************************************
     813              ;* FUNCTION NAME: MSC_HandleStateSendData                                      *
     814              ;*                                                                             *
     815              ;*   Function Uses Regs : T0,T1,AR0,XAR0,AR1,XAR1,AR3,XAR3,SP,M40,SATA,SATD,   *
     816              ;*                        RDM,FRCT,SMUL                                        *
     817              ;*   Stack Frame        : Compact (No Frame Pointer, w/ debug)                 *
     818              ;*   Total Frame Size   : 6 words                                              *
     819              ;*                        (1 return address/alignment)                         *
     820              ;*                        (5 local values)                                     *
     821              ;*   Min System Stack   : 1 word                                               *
     822              ;*******************************************************************************
     823 0001e4       _MSC_HandleStateSendData:
     824                      .dwcfi  cfa_offset, 1
     825                      .dwcfi  save_reg_to_mem, 91, -1
     826 0001e4 4EFB          AADD #-5, SP
     827                      .dwcfi  cfa_offset, 6
     828              $C$DW$101       .dwtag  DW_TAG_variable, DW_AT_name("pMscHandle")
     829                      .dwattr $C$DW$101, DW_AT_TI_symbol_name("_pMscHandle")
     830                      .dwattr $C$DW$101, DW_AT_type(*$C$DW$T$107)
     831                      .dwattr $C$DW$101, DW_AT_location[DW_OP_bregx 0x24 0]
     832              $C$DW$102       .dwtag  DW_TAG_variable, DW_AT_name("hUsbInEp")
     833                      .dwattr $C$DW$102, DW_AT_TI_symbol_name("_hUsbInEp")
     834                      .dwattr $C$DW$102, DW_AT_type(*$C$DW$T$27)
     835                      .dwattr $C$DW$102, DW_AT_location[DW_OP_bregx 0x24 2]
     836              $C$DW$103       .dwtag  DW_TAG_variable, DW_AT_name("status")
     837                      .dwattr $C$DW$103, DW_AT_TI_symbol_name("_status")
     838                      .dwattr $C$DW$103, DW_AT_type(*$C$DW$T$89)
     839                      .dwattr $C$DW$103, DW_AT_location[DW_OP_bregx 0x24 4]
     840 0001e6 EB04          MOV XAR1, dbl(*SP(#2))
         0001e8 95   
     841 0001e9 EB00          MOV XAR0, dbl(*SP(#0))
         0001eb 85   
     842                      .dwpsn  file "F:/eZdsp-DBG-sim/tmp1/c55x-sim2/foo/c5535_bsl_revc/ezdsp5535_v1/c55xx_csl/inc/csl_mscAu
     843 0001ec ED04          MOV dbl(*SP(#2)), XAR0
         0001ee 8F   
     844 0001ef EC08          AMAR *SP(#4), XAR1
         0001f1 9E   
     845              $C$DW$104       .dwtag  DW_TAG_TI_branch
     846                      .dwattr $C$DW$104, DW_AT_low_pc(0x00)
     847                      .dwattr $C$DW$104, DW_AT_name("_USB_isTransactionDone")
     848                      .dwattr $C$DW$104, DW_AT_TI_call
     849 0001f2 6C00          CALL #_USB_isTransactionDone ; |385| 
         0001f4 0000!
     850                                                      ; call occurs [#_USB_isTransactionDone] ; |385| 
     851 0001f6 0404          BCC $C$L8,T0 == #0 ; |385| 
         0001f8 1F   
     852                                                      ; branchcc occurs ; |385| 
     853                      .dwpsn  file "F:/eZdsp-DBG-sim/tmp1/c55x-sim2/foo/c5535_bsl_revc/ezdsp5535_v1/c55xx_csl/inc/csl_mscAu
     854 0001f9 ED00          MOV dbl(*SP(#0)), XAR1
         0001fb 9F   
     855 0001fc ED04          MOV dbl(*SP(#2)), XAR0
         0001fe 8F   
     856 0001ff 3CD4          MOV #13, T0
     857 000201 B42F          AMAR *+AR1(#282) ; |387| 
         000203 011A 
TMS320C55x Assembler PC v4.4.1 Tue Oct 02 02:33:20 2018

Tools Copyright (c) 1996-2012 Texas Instruments Incorporated
csl_msc.asm                                                          PAGE   19

     858              $C$DW$105       .dwtag  DW_TAG_TI_branch
     859                      .dwattr $C$DW$105, DW_AT_low_pc(0x00)
     860                      .dwattr $C$DW$105, DW_AT_name("_USB_postTransaction")
     861                      .dwattr $C$DW$105, DW_AT_TI_call
     862              
     863 000205 6C00          CALL #_USB_postTransaction ; |387| 
         000207 0000!
     864 000209 3D05  ||      MOV #0, T1
     865              
     866                                                      ; call occurs [#_USB_postTransaction] ; |387| 
     867 00020b DA08          OR *SP(#4), T0, AR1 ; |387| 
         00020d 94   
     868 00020e C908          MOV AR1, *SP(#4) ; |387| 
     869                      .dwpsn  file "F:/eZdsp-DBG-sim/tmp1/c55x-sim2/foo/c5535_bsl_revc/ezdsp5535_v1/c55xx_csl/inc/csl_mscAu
     870 000210 ED00          MOV dbl(*SP(#0)), XAR3
         000212 BF   
     871 000213 E66D          MOV #4, *AR3(#355) ; |389| 
         000215 0401 
         000217 63   
     872 000218       $C$L8:    
     873                      .dwpsn  file "F:/eZdsp-DBG-sim/tmp1/c55x-sim2/foo/c5535_bsl_revc/ezdsp5535_v1/c55xx_csl/inc/csl_mscAu
     874 000218 A408          MOV *SP(#4), T0 ; |392| 
     875                      .dwpsn  file "F:/eZdsp-DBG-sim/tmp1/c55x-sim2/foo/c5535_bsl_revc/ezdsp5535_v1/c55xx_csl/inc/csl_mscAu
     876 00021a 4E05          AADD #5, SP
     877                      .dwcfi  cfa_offset, 1
     878              $C$DW$106       .dwtag  DW_TAG_TI_branch
     879                      .dwattr $C$DW$106, DW_AT_low_pc(0x00)
     880                      .dwattr $C$DW$106, DW_AT_TI_return
     881 00021c 4804          RET
     882                                                      ; return occurs
     883                      .dwattr $C$DW$98, DW_AT_TI_end_file("F:/eZdsp-DBG-sim/tmp1/c55x-sim2/foo/c5535_bsl_revc/ezdsp5535_v1/
     884                      .dwattr $C$DW$98, DW_AT_TI_end_line(0x189)
     885                      .dwattr $C$DW$98, DW_AT_TI_end_column(0x01)
     886                      .dwendentry
     887                      .dwendtag $C$DW$98
     888              
     889 00021e               .sect   ".text"
     890                      .align 4
     891              
     892              $C$DW$107       .dwtag  DW_TAG_subprogram, DW_AT_name("MSC_HandleStateSendStall")
     893                      .dwattr $C$DW$107, DW_AT_low_pc(_MSC_HandleStateSendStall)
     894                      .dwattr $C$DW$107, DW_AT_high_pc(0x00)
     895                      .dwattr $C$DW$107, DW_AT_TI_symbol_name("_MSC_HandleStateSendStall")
     896                      .dwattr $C$DW$107, DW_AT_type(*$C$DW$T$89)
     897                      .dwattr $C$DW$107, DW_AT_TI_begin_file("F:/eZdsp-DBG-sim/tmp1/c55x-sim2/foo/c5535_bsl_revc/ezdsp5535_
     898                      .dwattr $C$DW$107, DW_AT_TI_begin_line(0x1b8)
     899                      .dwattr $C$DW$107, DW_AT_TI_begin_column(0x0c)
     900                      .dwattr $C$DW$107, DW_AT_TI_max_frame_size(0x06)
     901                      .dwpsn  file "F:/eZdsp-DBG-sim/tmp1/c55x-sim2/foo/c5535_bsl_revc/ezdsp5535_v1/c55xx_csl/inc/csl_mscAu
     902              
     903                      .dwfde $C$DW$CIE, _MSC_HandleStateSendStall
     904              $C$DW$108       .dwtag  DW_TAG_formal_parameter, DW_AT_name("pMscHandle")
     905                      .dwattr $C$DW$108, DW_AT_TI_symbol_name("_pMscHandle")
     906                      .dwattr $C$DW$108, DW_AT_type(*$C$DW$T$107)
     907                      .dwattr $C$DW$108, DW_AT_location[DW_OP_reg17]
TMS320C55x Assembler PC v4.4.1 Tue Oct 02 02:33:20 2018

Tools Copyright (c) 1996-2012 Texas Instruments Incorporated
csl_msc.asm                                                          PAGE   20

     908              $C$DW$109       .dwtag  DW_TAG_formal_parameter, DW_AT_name("hUsbInEp")
     909                      .dwattr $C$DW$109, DW_AT_TI_symbol_name("_hUsbInEp")
     910                      .dwattr $C$DW$109, DW_AT_type(*$C$DW$T$27)
     911                      .dwattr $C$DW$109, DW_AT_location[DW_OP_reg19]
     912              ;*******************************************************************************
     913              ;* FUNCTION NAME: MSC_HandleStateSendStall                                     *
     914              ;*                                                                             *
     915              ;*   Function Uses Regs : T0,T1,AR0,XAR0,AR1,XAR1,AR3,XAR3,SP,M40,SATA,SATD,   *
     916              ;*                        RDM,FRCT,SMUL                                        *
     917              ;*   Stack Frame        : Compact (No Frame Pointer, w/ debug)                 *
     918              ;*   Total Frame Size   : 6 words                                              *
     919              ;*                        (1 return address/alignment)                         *
     920              ;*                        (5 local values)                                     *
     921              ;*   Min System Stack   : 1 word                                               *
     922              ;*******************************************************************************
     923 000220       _MSC_HandleStateSendStall:
     924                      .dwcfi  cfa_offset, 1
     925                      .dwcfi  save_reg_to_mem, 91, -1
     926 000220 4EFB          AADD #-5, SP
     927                      .dwcfi  cfa_offset, 6
     928              $C$DW$110       .dwtag  DW_TAG_variable, DW_AT_name("pMscHandle")
     929                      .dwattr $C$DW$110, DW_AT_TI_symbol_name("_pMscHandle")
     930                      .dwattr $C$DW$110, DW_AT_type(*$C$DW$T$107)
     931                      .dwattr $C$DW$110, DW_AT_location[DW_OP_bregx 0x24 0]
     932              $C$DW$111       .dwtag  DW_TAG_variable, DW_AT_name("hUsbInEp")
     933                      .dwattr $C$DW$111, DW_AT_TI_symbol_name("_hUsbInEp")
     934                      .dwattr $C$DW$111, DW_AT_type(*$C$DW$T$27)
     935                      .dwattr $C$DW$111, DW_AT_location[DW_OP_bregx 0x24 2]
     936              $C$DW$112       .dwtag  DW_TAG_variable, DW_AT_name("status")
     937                      .dwattr $C$DW$112, DW_AT_TI_symbol_name("_status")
     938                      .dwattr $C$DW$112, DW_AT_type(*$C$DW$T$89)
     939                      .dwattr $C$DW$112, DW_AT_location[DW_OP_bregx 0x24 4]
     940 000222 EB04          MOV XAR1, dbl(*SP(#2))
         000224 95   
     941 000225 EB00          MOV XAR0, dbl(*SP(#0))
         000227 85   
     942                      .dwpsn  file "F:/eZdsp-DBG-sim/tmp1/c55x-sim2/foo/c5535_bsl_revc/ezdsp5535_v1/c55xx_csl/inc/csl_mscAu
     943 000228 ED04          MOV dbl(*SP(#2)), XAR0
         00022a 8F   
     944 00022b EC08          AMAR *SP(#4), XAR1
         00022d 9E   
     945              $C$DW$113       .dwtag  DW_TAG_TI_branch
     946                      .dwattr $C$DW$113, DW_AT_low_pc(0x00)
     947                      .dwattr $C$DW$113, DW_AT_name("_USB_isTransactionDone")
     948                      .dwattr $C$DW$113, DW_AT_TI_call
     949 00022e 6C00          CALL #_USB_isTransactionDone ; |445| 
         000230 0000!
     950                                                      ; call occurs [#_USB_isTransactionDone] ; |445| 
     951 000232 0404          BCC $C$L9,T0 == #0 ; |445| 
         000234 1F   
     952                                                      ; branchcc occurs ; |445| 
     953                      .dwpsn  file "F:/eZdsp-DBG-sim/tmp1/c55x-sim2/foo/c5535_bsl_revc/ezdsp5535_v1/c55xx_csl/inc/csl_mscAu
     954 000235 ED00          MOV dbl(*SP(#0)), XAR1
         000237 9F   
     955 000238 ED04          MOV dbl(*SP(#2)), XAR0
TMS320C55x Assembler PC v4.4.1 Tue Oct 02 02:33:20 2018

Tools Copyright (c) 1996-2012 Texas Instruments Incorporated
csl_msc.asm                                                          PAGE   21

         00023a 8F   
     956 00023b 3CD4          MOV #13, T0
     957 00023d B42F          AMAR *+AR1(#282) ; |447| 
         00023f 011A 
     958              $C$DW$114       .dwtag  DW_TAG_TI_branch
     959                      .dwattr $C$DW$114, DW_AT_low_pc(0x00)
     960                      .dwattr $C$DW$114, DW_AT_name("_USB_postTransaction")
     961                      .dwattr $C$DW$114, DW_AT_TI_call
     962              
     963 000241 6C00          CALL #_USB_postTransaction ; |447| 
         000243 0000!
     964 000245 3D05  ||      MOV #0, T1
     965              
     966                                                      ; call occurs [#_USB_postTransaction] ; |447| 
     967 000247 DA08          OR *SP(#4), T0, AR1 ; |447| 
         000249 94   
     968 00024a C908          MOV AR1, *SP(#4) ; |447| 
     969                      .dwpsn  file "F:/eZdsp-DBG-sim/tmp1/c55x-sim2/foo/c5535_bsl_revc/ezdsp5535_v1/c55xx_csl/inc/csl_mscAu
     970 00024c ED00          MOV dbl(*SP(#0)), XAR3
         00024e BF   
     971 00024f E66D          MOV #4, *AR3(#355) ; |449| 
         000251 0401 
         000253 63   
     972 000254       $C$L9:    
     973                      .dwpsn  file "F:/eZdsp-DBG-sim/tmp1/c55x-sim2/foo/c5535_bsl_revc/ezdsp5535_v1/c55xx_csl/inc/csl_mscAu
     974 000254 A408          MOV *SP(#4), T0 ; |452| 
     975                      .dwpsn  file "F:/eZdsp-DBG-sim/tmp1/c55x-sim2/foo/c5535_bsl_revc/ezdsp5535_v1/c55xx_csl/inc/csl_mscAu
     976 000256 4E05          AADD #5, SP
     977                      .dwcfi  cfa_offset, 1
     978              $C$DW$115       .dwtag  DW_TAG_TI_branch
     979                      .dwattr $C$DW$115, DW_AT_low_pc(0x00)
     980                      .dwattr $C$DW$115, DW_AT_TI_return
     981 000258 4804          RET
     982                                                      ; return occurs
     983                      .dwattr $C$DW$107, DW_AT_TI_end_file("F:/eZdsp-DBG-sim/tmp1/c55x-sim2/foo/c5535_bsl_revc/ezdsp5535_v1
     984                      .dwattr $C$DW$107, DW_AT_TI_end_line(0x1c5)
     985                      .dwattr $C$DW$107, DW_AT_TI_end_column(0x01)
     986                      .dwendentry
     987                      .dwendtag $C$DW$107
     988              
     989 00025a               .sect   ".text"
     990                      .align 4
     991              
     992              $C$DW$116       .dwtag  DW_TAG_subprogram, DW_AT_name("MSC_HandleStateSendingShortPkt")
     993                      .dwattr $C$DW$116, DW_AT_low_pc(_MSC_HandleStateSendingShortPkt)
     994                      .dwattr $C$DW$116, DW_AT_high_pc(0x00)
     995                      .dwattr $C$DW$116, DW_AT_TI_symbol_name("_MSC_HandleStateSendingShortPkt")
     996                      .dwattr $C$DW$116, DW_AT_type(*$C$DW$T$89)
     997                      .dwattr $C$DW$116, DW_AT_TI_begin_file("F:/eZdsp-DBG-sim/tmp1/c55x-sim2/foo/c5535_bsl_revc/ezdsp5535_
     998                      .dwattr $C$DW$116, DW_AT_TI_begin_line(0x1f4)
     999                      .dwattr $C$DW$116, DW_AT_TI_begin_column(0x0c)
    1000                      .dwattr $C$DW$116, DW_AT_TI_max_frame_size(0x06)
    1001                      .dwpsn  file "F:/eZdsp-DBG-sim/tmp1/c55x-sim2/foo/c5535_bsl_revc/ezdsp5535_v1/c55xx_csl/inc/csl_mscAu
    1002              
    1003                      .dwfde $C$DW$CIE, _MSC_HandleStateSendingShortPkt
TMS320C55x Assembler PC v4.4.1 Tue Oct 02 02:33:20 2018

Tools Copyright (c) 1996-2012 Texas Instruments Incorporated
csl_msc.asm                                                          PAGE   22

    1004              $C$DW$117       .dwtag  DW_TAG_formal_parameter, DW_AT_name("pMscHandle")
    1005                      .dwattr $C$DW$117, DW_AT_TI_symbol_name("_pMscHandle")
    1006                      .dwattr $C$DW$117, DW_AT_type(*$C$DW$T$107)
    1007                      .dwattr $C$DW$117, DW_AT_location[DW_OP_reg17]
    1008              $C$DW$118       .dwtag  DW_TAG_formal_parameter, DW_AT_name("hUsbInEp")
    1009                      .dwattr $C$DW$118, DW_AT_TI_symbol_name("_hUsbInEp")
    1010                      .dwattr $C$DW$118, DW_AT_type(*$C$DW$T$27)
    1011                      .dwattr $C$DW$118, DW_AT_location[DW_OP_reg19]
    1012              ;*******************************************************************************
    1013              ;* FUNCTION NAME: MSC_HandleStateSendingShortPkt                               *
    1014              ;*                                                                             *
    1015              ;*   Function Uses Regs : T0,T1,AR0,XAR0,AR1,XAR1,AR3,XAR3,SP,M40,SATA,SATD,   *
    1016              ;*                        RDM,FRCT,SMUL                                        *
    1017              ;*   Stack Frame        : Compact (No Frame Pointer, w/ debug)                 *
    1018              ;*   Total Frame Size   : 6 words                                              *
    1019              ;*                        (1 return address/alignment)                         *
    1020              ;*                        (5 local values)                                     *
    1021              ;*   Min System Stack   : 1 word                                               *
    1022              ;*******************************************************************************
    1023 00025c       _MSC_HandleStateSendingShortPkt:
    1024                      .dwcfi  cfa_offset, 1
    1025                      .dwcfi  save_reg_to_mem, 91, -1
    1026 00025c 4EFB          AADD #-5, SP
    1027                      .dwcfi  cfa_offset, 6
    1028              $C$DW$119       .dwtag  DW_TAG_variable, DW_AT_name("pMscHandle")
    1029                      .dwattr $C$DW$119, DW_AT_TI_symbol_name("_pMscHandle")
    1030                      .dwattr $C$DW$119, DW_AT_type(*$C$DW$T$107)
    1031                      .dwattr $C$DW$119, DW_AT_location[DW_OP_bregx 0x24 0]
    1032              $C$DW$120       .dwtag  DW_TAG_variable, DW_AT_name("hUsbInEp")
    1033                      .dwattr $C$DW$120, DW_AT_TI_symbol_name("_hUsbInEp")
    1034                      .dwattr $C$DW$120, DW_AT_type(*$C$DW$T$27)
    1035                      .dwattr $C$DW$120, DW_AT_location[DW_OP_bregx 0x24 2]
    1036              $C$DW$121       .dwtag  DW_TAG_variable, DW_AT_name("status")
    1037                      .dwattr $C$DW$121, DW_AT_TI_symbol_name("_status")
    1038                      .dwattr $C$DW$121, DW_AT_type(*$C$DW$T$89)
    1039                      .dwattr $C$DW$121, DW_AT_location[DW_OP_bregx 0x24 4]
    1040 00025e EB04          MOV XAR1, dbl(*SP(#2))
         000260 95   
    1041 000261 EB00          MOV XAR0, dbl(*SP(#0))
         000263 85   
    1042                      .dwpsn  file "F:/eZdsp-DBG-sim/tmp1/c55x-sim2/foo/c5535_bsl_revc/ezdsp5535_v1/c55xx_csl/inc/csl_mscAu
    1043 000264 ED00          MOV dbl(*SP(#0)), XAR3
         000266 BF   
    1044 000267 E66D          MOV #2, *AR3(#355) ; |505| 
         000269 0201 
         00026b 63   
    1045                      .dwpsn  file "F:/eZdsp-DBG-sim/tmp1/c55x-sim2/foo/c5535_bsl_revc/ezdsp5535_v1/c55xx_csl/inc/csl_mscAu
    1046 00026c ED04          MOV dbl(*SP(#2)), XAR0
         00026e 8F   
    1047              $C$DW$122       .dwtag  DW_TAG_TI_branch
    1048                      .dwattr $C$DW$122, DW_AT_low_pc(0x00)
    1049                      .dwattr $C$DW$122, DW_AT_name("_USB_stallEndpt")
    1050                      .dwattr $C$DW$122, DW_AT_TI_call
    1051 00026f 6C00          CALL #_USB_stallEndpt ; |507| 
         000271 0000!
TMS320C55x Assembler PC v4.4.1 Tue Oct 02 02:33:20 2018

Tools Copyright (c) 1996-2012 Texas Instruments Incorporated
csl_msc.asm                                                          PAGE   23

    1052                                                      ; call occurs [#_USB_stallEndpt] ; |507| 
    1053 000273 C408          MOV T0, *SP(#4) ; |507| 
    1054                      .dwpsn  file "F:/eZdsp-DBG-sim/tmp1/c55x-sim2/foo/c5535_bsl_revc/ezdsp5535_v1/c55xx_csl/inc/csl_mscAu
    1055 000275 ED00          MOV dbl(*SP(#0)), XAR1
         000277 9F   
    1056 000278 7600          MOV #32, T1 ; |510| 
         00027a 2058 
    1057 00027c ED04          MOV dbl(*SP(#2)), XAR0
         00027e 8F   
    1058 00027f B42F          AMAR *+AR1(#282) ; |510| 
         000281 011A 
    1059              $C$DW$123       .dwtag  DW_TAG_TI_branch
    1060                      .dwattr $C$DW$123, DW_AT_low_pc(0x00)
    1061                      .dwattr $C$DW$123, DW_AT_name("_USB_postTransaction")
    1062                      .dwattr $C$DW$123, DW_AT_TI_call
    1063              
    1064 000283 6C00          CALL #_USB_postTransaction ; |510| 
         000285 0000!
    1065 000287 3D04  ||      MOV #0, T0
    1066              
    1067                                                      ; call occurs [#_USB_postTransaction] ; |510| 
    1068 000289 DA08          OR *SP(#4), T0, AR1 ; |510| 
         00028b 94   
    1069 00028c C908          MOV AR1, *SP(#4) ; |510| 
    1070                      .dwpsn  file "F:/eZdsp-DBG-sim/tmp1/c55x-sim2/foo/c5535_bsl_revc/ezdsp5535_v1/c55xx_csl/inc/csl_mscAu
    1071 00028e 2294          MOV AR1, T0
    1072                      .dwpsn  file "F:/eZdsp-DBG-sim/tmp1/c55x-sim2/foo/c5535_bsl_revc/ezdsp5535_v1/c55xx_csl/inc/csl_mscAu
    1073 000290 4E05          AADD #5, SP
    1074                      .dwcfi  cfa_offset, 1
    1075              $C$DW$124       .dwtag  DW_TAG_TI_branch
    1076                      .dwattr $C$DW$124, DW_AT_low_pc(0x00)
    1077                      .dwattr $C$DW$124, DW_AT_TI_return
    1078 000292 4804          RET
    1079                                                      ; return occurs
    1080                      .dwattr $C$DW$116, DW_AT_TI_end_file("F:/eZdsp-DBG-sim/tmp1/c55x-sim2/foo/c5535_bsl_revc/ezdsp5535_v1
    1081                      .dwattr $C$DW$116, DW_AT_TI_end_line(0x203)
    1082                      .dwattr $C$DW$116, DW_AT_TI_end_column(0x01)
    1083                      .dwendentry
    1084                      .dwendtag $C$DW$116
    1085              
    1086 000294               .sect   ".text"
    1087                      .align 4
    1088              
    1089              $C$DW$125       .dwtag  DW_TAG_subprogram, DW_AT_name("MSC_HandleModeSense6")
    1090                      .dwattr $C$DW$125, DW_AT_low_pc(_MSC_HandleModeSense6)
    1091                      .dwattr $C$DW$125, DW_AT_high_pc(0x00)
    1092                      .dwattr $C$DW$125, DW_AT_TI_symbol_name("_MSC_HandleModeSense6")
    1093                      .dwattr $C$DW$125, DW_AT_type(*$C$DW$T$89)
    1094                      .dwattr $C$DW$125, DW_AT_TI_begin_file("F:/eZdsp-DBG-sim/tmp1/c55x-sim2/foo/c5535_bsl_revc/ezdsp5535_
    1095                      .dwattr $C$DW$125, DW_AT_TI_begin_line(0x233)
    1096                      .dwattr $C$DW$125, DW_AT_TI_begin_column(0x0c)
    1097                      .dwattr $C$DW$125, DW_AT_TI_max_frame_size(0x0a)
    1098                      .dwpsn  file "F:/eZdsp-DBG-sim/tmp1/c55x-sim2/foo/c5535_bsl_revc/ezdsp5535_v1/c55xx_csl/inc/csl_mscAu
    1099              
    1100                      .dwfde $C$DW$CIE, _MSC_HandleModeSense6
TMS320C55x Assembler PC v4.4.1 Tue Oct 02 02:33:20 2018

Tools Copyright (c) 1996-2012 Texas Instruments Incorporated
csl_msc.asm                                                          PAGE   24

    1101              $C$DW$126       .dwtag  DW_TAG_formal_parameter, DW_AT_name("pMscHandle")
    1102                      .dwattr $C$DW$126, DW_AT_TI_symbol_name("_pMscHandle")
    1103                      .dwattr $C$DW$126, DW_AT_type(*$C$DW$T$107)
    1104                      .dwattr $C$DW$126, DW_AT_location[DW_OP_reg17]
    1105              $C$DW$127       .dwtag  DW_TAG_formal_parameter, DW_AT_name("hUsbInEp")
    1106                      .dwattr $C$DW$127, DW_AT_TI_symbol_name("_hUsbInEp")
    1107                      .dwattr $C$DW$127, DW_AT_type(*$C$DW$T$27)
    1108                      .dwattr $C$DW$127, DW_AT_location[DW_OP_reg19]
    1109              $C$DW$128       .dwtag  DW_TAG_formal_parameter, DW_AT_name("logicalUnit")
    1110                      .dwattr $C$DW$128, DW_AT_TI_symbol_name("_logicalUnit")
    1111                      .dwattr $C$DW$128, DW_AT_type(*$C$DW$T$25)
    1112                      .dwattr $C$DW$128, DW_AT_location[DW_OP_reg12]
    1113              ;*******************************************************************************
    1114              ;* FUNCTION NAME: MSC_HandleModeSense6                                         *
    1115              ;*                                                                             *
    1116              ;*   Function Uses Regs : AC0,AC0,AC1,AC1,T0,T1,AR0,XAR0,AR1,XAR1,AR2,AR3,XAR3,*
    1117              ;*                        SP,CARRY,TC1,M40,SATA,SATD,RDM,FRCT,SMUL             *
    1118              ;*   Stack Frame        : Compact (No Frame Pointer, w/ debug)                 *
    1119              ;*   Total Frame Size   : 10 words                                             *
    1120              ;*                        (2 return address/alignment)                         *
    1121              ;*                        (8 local values)                                     *
    1122              ;*   Min System Stack   : 1 word                                               *
    1123              ;*******************************************************************************
    1124 000294       _MSC_HandleModeSense6:
    1125                      .dwcfi  cfa_offset, 1
    1126                      .dwcfi  save_reg_to_mem, 91, -1
    1127 000294 4EF7          AADD #-9, SP
    1128                      .dwcfi  cfa_offset, 10
    1129              $C$DW$129       .dwtag  DW_TAG_variable, DW_AT_name("pMscHandle")
    1130                      .dwattr $C$DW$129, DW_AT_TI_symbol_name("_pMscHandle")
    1131                      .dwattr $C$DW$129, DW_AT_type(*$C$DW$T$107)
    1132                      .dwattr $C$DW$129, DW_AT_location[DW_OP_bregx 0x24 0]
    1133              $C$DW$130       .dwtag  DW_TAG_variable, DW_AT_name("hUsbInEp")
    1134                      .dwattr $C$DW$130, DW_AT_TI_symbol_name("_hUsbInEp")
    1135                      .dwattr $C$DW$130, DW_AT_type(*$C$DW$T$27)
    1136                      .dwattr $C$DW$130, DW_AT_location[DW_OP_bregx 0x24 2]
    1137              $C$DW$131       .dwtag  DW_TAG_variable, DW_AT_name("logicalUnit")
    1138                      .dwattr $C$DW$131, DW_AT_TI_symbol_name("_logicalUnit")
    1139                      .dwattr $C$DW$131, DW_AT_type(*$C$DW$T$25)
    1140                      .dwattr $C$DW$131, DW_AT_location[DW_OP_bregx 0x24 4]
    1141              $C$DW$132       .dwtag  DW_TAG_variable, DW_AT_name("status")
    1142                      .dwattr $C$DW$132, DW_AT_TI_symbol_name("_status")
    1143                      .dwattr $C$DW$132, DW_AT_type(*$C$DW$T$89)
    1144                      .dwattr $C$DW$132, DW_AT_location[DW_OP_bregx 0x24 5]
    1145              $C$DW$133       .dwtag  DW_TAG_variable, DW_AT_name("modeSenseLen")
    1146                      .dwattr $C$DW$133, DW_AT_TI_symbol_name("_modeSenseLen")
    1147                      .dwattr $C$DW$133, DW_AT_type(*$C$DW$T$25)
    1148                      .dwattr $C$DW$133, DW_AT_location[DW_OP_bregx 0x24 6]
    1149              $C$DW$134       .dwtag  DW_TAG_variable, DW_AT_name("smallerLen")
    1150                      .dwattr $C$DW$134, DW_AT_TI_symbol_name("_smallerLen")
    1151                      .dwattr $C$DW$134, DW_AT_type(*$C$DW$T$25)
    1152                      .dwattr $C$DW$134, DW_AT_location[DW_OP_bregx 0x24 7]
    1153 000296 C408          MOV T0, *SP(#4) ; |566| 
    1154 000298 EB04          MOV XAR1, dbl(*SP(#2))
         00029a 95   
TMS320C55x Assembler PC v4.4.1 Tue Oct 02 02:33:20 2018

Tools Copyright (c) 1996-2012 Texas Instruments Incorporated
csl_msc.asm                                                          PAGE   25

    1155 00029b EB00          MOV XAR0, dbl(*SP(#0))
         00029d 85   
    1156                      .dwpsn  file "F:/eZdsp-DBG-sim/tmp1/c55x-sim2/foo/c5535_bsl_revc/ezdsp5535_v1/c55xx_csl/inc/csl_mscAu
    1157 00029e ED00          MOV dbl(*SP(#0)), XAR3
         0002a0 BF   
    1158 0002a1 A96D          MOV *AR3(#303), AR1 ; |572| 
         0002a3 012F 
    1159              
    1160 0002a9 1980          AND #0x0080, AR1, AR1 ; |572| 
         0002ab 99   
    1161 0002a5 7600  ||      MOV #128, AR2 ; |572| 
         0002a7 80A8 
    1162              
    1163 0002ac 1290          CMPU AR1 == AR2, TC1 ; |572| 
         0002ae A4   
    1164 0002af 0464          BCC $C$L10,TC1 ; |572| 
         0002b1 4D   
    1165                                                      ; branchcc occurs ; |572| 
    1166 0002b2 ED6D          MOV dbl(*AR3(#16)), AC0 ; |572| 
         0002b4 0800 
         0002b6 10   
    1167 0002b7 0400          BCC $C$L10,AC0 == #0 ; |572| 
         0002b9 45   
    1168                                                      ; branchcc occurs ; |572| 
    1169                      .dwpsn  file "F:/eZdsp-DBG-sim/tmp1/c55x-sim2/foo/c5535_bsl_revc/ezdsp5535_v1/c55xx_csl/inc/csl_mscAu
    1170 0002ba E66D          MOV #2, *AR3(#289) ; |576| 
         0002bc 0201 
         0002be 21   
    1171                      .dwpsn  file "F:/eZdsp-DBG-sim/tmp1/c55x-sim2/foo/c5535_bsl_revc/ezdsp5535_v1/c55xx_csl/inc/csl_mscAu
    1172 0002bf ED00          MOV dbl(*SP(#0)), XAR3
         0002c1 BF   
    1173 0002c2 E66D          MOV #2, *AR3(#355) ; |579| 
         0002c4 0201 
         0002c6 63   
    1174                      .dwpsn  file "F:/eZdsp-DBG-sim/tmp1/c55x-sim2/foo/c5535_bsl_revc/ezdsp5535_v1/c55xx_csl/inc/csl_mscAu
    1175 0002c7 ED00          MOV dbl(*SP(#0)), XAR0
         0002c9 8F   
    1176 0002ca B40F          AMAR *+AR0(#314) ; |580| 
         0002cc 013A 
    1177              $C$DW$135       .dwtag  DW_TAG_TI_branch
    1178                      .dwattr $C$DW$135, DW_AT_low_pc(0x00)
    1179                      .dwattr $C$DW$135, DW_AT_name("_USB_stallEndpt")
    1180                      .dwattr $C$DW$135, DW_AT_TI_call
    1181 0002ce 6C00          CALL #_USB_stallEndpt ; |580| 
         0002d0 0000!
    1182                                                      ; call occurs [#_USB_stallEndpt] ; |580| 
    1183 0002d2 C40A          MOV T0, *SP(#5) ; |580| 
    1184                      .dwpsn  file "F:/eZdsp-DBG-sim/tmp1/c55x-sim2/foo/c5535_bsl_revc/ezdsp5535_v1/c55xx_csl/inc/csl_mscAu
    1185 0002d4 ED00          MOV dbl(*SP(#0)), XAR0
         0002d6 8F   
    1186 0002d7 B40F          AMAR *+AR0(#334) ; |581| 
         0002d9 014E 
    1187              $C$DW$136       .dwtag  DW_TAG_TI_branch
    1188                      .dwattr $C$DW$136, DW_AT_low_pc(0x00)
    1189                      .dwattr $C$DW$136, DW_AT_name("_USB_stallEndpt")
TMS320C55x Assembler PC v4.4.1 Tue Oct 02 02:33:20 2018

Tools Copyright (c) 1996-2012 Texas Instruments Incorporated
csl_msc.asm                                                          PAGE   26

    1190                      .dwattr $C$DW$136, DW_AT_TI_call
    1191 0002db 6C00          CALL #_USB_stallEndpt ; |581| 
         0002dd 0000!
    1192                                                      ; call occurs [#_USB_stallEndpt] ; |581| 
    1193 0002df C40A          MOV T0, *SP(#5) ; |581| 
    1194                      .dwpsn  file "F:/eZdsp-DBG-sim/tmp1/c55x-sim2/foo/c5535_bsl_revc/ezdsp5535_v1/c55xx_csl/inc/csl_mscAu
    1195 0002e1 ED00          MOV dbl(*SP(#0)), XAR0
         0002e3 8F   
    1196 0002e4 ED00          MOV dbl(*SP(#0)), XAR3
         0002e6 BF   
    1197 0002e7 7600          MOV #32, T1 ; |584| 
         0002e9 2058 
    1198 0002eb B40F          AMAR *+AR0(#314) ; |584| 
         0002ed 013A 
    1199 0002ef ED6D          MOV dbl(*AR3(#14)), XAR1
         0002f1 9F00 
         0002f3 0E   
    1200              $C$DW$137       .dwtag  DW_TAG_TI_branch
    1201                      .dwattr $C$DW$137, DW_AT_low_pc(0x00)
    1202                      .dwattr $C$DW$137, DW_AT_name("_USB_postTransaction")
    1203                      .dwattr $C$DW$137, DW_AT_TI_call
    1204              
    1205 0002f4 6C00          CALL #_USB_postTransaction ; |584| 
         0002f6 0000!
    1206 0002f8 3D04  ||      MOV #0, T0
    1207              
    1208                                                      ; call occurs [#_USB_postTransaction] ; |584| 
    1209 0002fa C40A          MOV T0, *SP(#5) ; |584| 
    1210                      .dwpsn  file "F:/eZdsp-DBG-sim/tmp1/c55x-sim2/foo/c5535_bsl_revc/ezdsp5535_v1/c55xx_csl/inc/csl_mscAu
    1211 0002fc 0600          B $C$L15  ; |588| 
         0002fe 89   
    1212                                                      ; branch occurs ; |588| 
    1213 0002ff       $C$L10:    
    1214                      .dwpsn  file "F:/eZdsp-DBG-sim/tmp1/c55x-sim2/foo/c5535_bsl_revc/ezdsp5535_v1/c55xx_csl/inc/csl_mscAu
    1215 0002ff ED6D          MOV dbl(*AR3(#16)), AC0 ; |591| 
         000301 0800 
         000303 10   
    1216 000304 0400          BCC $C$L13,AC0 == #0 ; |591| 
         000306 77   
    1217                                                      ; branchcc occurs ; |591| 
    1218                      .dwpsn  file "F:/eZdsp-DBG-sim/tmp1/c55x-sim2/foo/c5535_bsl_revc/ezdsp5535_v1/c55xx_csl/inc/csl_mscAu
    1219 000307 A96D          MOV *AR3(#356), AR1 ; |593| 
         000309 0164 
    1220 00030b C90C          MOV AR1, *SP(#6) ; |593| 
    1221                      .dwpsn  file "F:/eZdsp-DBG-sim/tmp1/c55x-sim2/foo/c5535_bsl_revc/ezdsp5535_v1/c55xx_csl/inc/csl_mscAu
    1222 00030d ED00          MOV dbl(*SP(#0)), XAR3
         00030f BF   
    1223 000310 DF0C          MOV uns(*SP(#6)), AC1 ; |596| 
         000312 15   
    1224 000313 ED6D          MOV dbl(*AR3(#16)), AC0 ; |596| 
         000315 0800 
         000317 10   
    1225 000318 1218          CMPU AC1 >= AC0, TC1 ; |596| 
         00031a 04   
    1226 00031b 6264          BCC $C$L11,TC1 ; |596| 
TMS320C55x Assembler PC v4.4.1 Tue Oct 02 02:33:20 2018

Tools Copyright (c) 1996-2012 Texas Instruments Incorporated
csl_msc.asm                                                          PAGE   27

    1227                                                      ; branchcc occurs ; |596| 
    1228                      .dwpsn  file "F:/eZdsp-DBG-sim/tmp1/c55x-sim2/foo/c5535_bsl_revc/ezdsp5535_v1/c55xx_csl/inc/csl_mscAu
    1229 00031d C90E          MOV AR1, *SP(#7) ; |598| 
    1230                      .dwpsn  file "F:/eZdsp-DBG-sim/tmp1/c55x-sim2/foo/c5535_bsl_revc/ezdsp5535_v1/c55xx_csl/inc/csl_mscAu
    1231 00031f 4A0B          B $C$L12  ; |599| 
    1232                                                      ; branch occurs ; |599| 
    1233 000321       $C$L11:    
    1234                      .dwpsn  file "F:/eZdsp-DBG-sim/tmp1/c55x-sim2/foo/c5535_bsl_revc/ezdsp5535_v1/c55xx_csl/inc/csl_mscAu
    1235 000321 ED6D          MOV dbl(*AR3(#16)), AC0 ; |602| 
         000323 0800 
         000325 10   
    1236 000326 7DFF          AND #0xffff, AC0, AC0 ; |602| 
         000328 FF00 
    1237 00032a C00E          MOV AC0, *SP(#7) ; |602| 
    1238 00032c       $C$L12:    
    1239                      .dwpsn  file "F:/eZdsp-DBG-sim/tmp1/c55x-sim2/foo/c5535_bsl_revc/ezdsp5535_v1/c55xx_csl/inc/csl_mscAu
    1240 00032c ED00          MOV dbl(*SP(#0)), XAR3
         00032e BF   
    1241 00032f DF0E          MOV uns(*SP(#7)), AC0 ; |607| 
         000331 05   
    1242 000332 ED6D          SUB AC0, dbl(*AR3(#16)), AC0 ; |607| 
         000334 0400 
         000336 10   
    1243 000337 EB6D          MOV AC0, dbl(*AR3(#16)) ; |607| 
         000339 0800 
         00033b 10   
    1244                      .dwpsn  file "F:/eZdsp-DBG-sim/tmp1/c55x-sim2/foo/c5535_bsl_revc/ezdsp5535_v1/c55xx_csl/inc/csl_mscAu
    1245 00033c ED00          MOV dbl(*SP(#0)), XAR3
         00033e BF   
    1246 00033f ED6D          MOV dbl(*AR3(#16)), AC0 ; |608| 
         000341 0800 
         000343 10   
    1247 000344 7DFF          AND #0xffff, AC0, AC0 ; |608| 
         000346 FF00 
    1248 000348 C06D          MOV AC0, *AR3(#287) ; |608| 
         00034a 011F 
    1249                      .dwpsn  file "F:/eZdsp-DBG-sim/tmp1/c55x-sim2/foo/c5535_bsl_revc/ezdsp5535_v1/c55xx_csl/inc/csl_mscAu
    1250 00034c ED00          MOV dbl(*SP(#0)), XAR3
         00034e BF   
    1251 00034f ED6D          MOV dbl(*AR3(#16)), AC0 ; |610| 
         000351 0800 
         000353 10   
    1252 000354 BC6D          MOV HI(AC0), *AR3(#288) ; |610| 
         000356 0120 
    1253                      .dwpsn  file "F:/eZdsp-DBG-sim/tmp1/c55x-sim2/foo/c5535_bsl_revc/ezdsp5535_v1/c55xx_csl/inc/csl_mscAu
    1254 000358 ED00          MOV dbl(*SP(#0)), XAR3
         00035a BF   
    1255 00035b E66D          MOV #0, *AR3(#289) ; |612| 
         00035d 0001 
         00035f 21   
    1256                      .dwpsn  file "F:/eZdsp-DBG-sim/tmp1/c55x-sim2/foo/c5535_bsl_revc/ezdsp5535_v1/c55xx_csl/inc/csl_mscAu
    1257 000360 ED00          MOV dbl(*SP(#0)), XAR1
         000362 9F   
    1258 000363 ED04          MOV dbl(*SP(#2)), XAR0
         000365 8F   
TMS320C55x Assembler PC v4.4.1 Tue Oct 02 02:33:20 2018

Tools Copyright (c) 1996-2012 Texas Instruments Incorporated
csl_msc.asm                                                          PAGE   28

    1259 000366 A40E          MOV *SP(#7), T0 ; |613| 
    1260 000368 B42F          AMAR *+AR1(#357) ; |613| 
         00036a 0165 
    1261              $C$DW$138       .dwtag  DW_TAG_TI_branch
    1262                      .dwattr $C$DW$138, DW_AT_low_pc(0x00)
    1263                      .dwattr $C$DW$138, DW_AT_name("_USB_postTransaction")
    1264                      .dwattr $C$DW$138, DW_AT_TI_call
    1265              
    1266 00036c 6C00          CALL #_USB_postTransaction ; |613| 
         00036e 0000!
    1267 000370 3D15  ||      MOV #1, T1
    1268              
    1269                                                      ; call occurs [#_USB_postTransaction] ; |613| 
    1270 000372 C40A          MOV T0, *SP(#5) ; |613| 
    1271                      .dwpsn  file "F:/eZdsp-DBG-sim/tmp1/c55x-sim2/foo/c5535_bsl_revc/ezdsp5535_v1/c55xx_csl/inc/csl_mscAu
    1272 000374 ED00          MOV dbl(*SP(#0)), XAR3
         000376 BF   
    1273 000377 E66D          MOV #3, *AR3(#355) ; |617| 
         000379 0301 
         00037b 63   
    1274                      .dwpsn  file "F:/eZdsp-DBG-sim/tmp1/c55x-sim2/foo/c5535_bsl_revc/ezdsp5535_v1/c55xx_csl/inc/csl_mscAu
    1275 00037c 4A08          B $C$L14  ; |618| 
    1276                                                      ; branch occurs ; |618| 
    1277 00037e       $C$L13:    
    1278                      .dwpsn  file "F:/eZdsp-DBG-sim/tmp1/c55x-sim2/foo/c5535_bsl_revc/ezdsp5535_v1/c55xx_csl/inc/csl_mscAu
    1279 00037e ED04          MOV dbl(*SP(#2)), XAR1
         000380 9F   
    1280              $C$DW$139       .dwtag  DW_TAG_TI_branch
    1281                      .dwattr $C$DW$139, DW_AT_low_pc(0x00)
    1282                      .dwattr $C$DW$139, DW_AT_name("_MSC_sendCswWithPhaseError")
    1283                      .dwattr $C$DW$139, DW_AT_TI_call
    1284 000381 0829          CALL #_MSC_sendCswWithPhaseError ; |621| 
         000383 34   
    1285                                                      ; call occurs [#_MSC_sendCswWithPhaseError] ; |621| 
    1286 000384 C40A          MOV T0, *SP(#5) ; |621| 
    1287 000386       $C$L14:    
    1288                      .dwpsn  file "F:/eZdsp-DBG-sim/tmp1/c55x-sim2/foo/c5535_bsl_revc/ezdsp5535_v1/c55xx_csl/inc/csl_mscAu
    1289 000386 A40A          MOV *SP(#5), T0 ; |624| 
    1290 000388       $C$L15:    
    1291                      .dwpsn  file "F:/eZdsp-DBG-sim/tmp1/c55x-sim2/foo/c5535_bsl_revc/ezdsp5535_v1/c55xx_csl/inc/csl_mscAu
    1292 000388 4E09          AADD #9, SP
    1293                      .dwcfi  cfa_offset, 1
    1294              $C$DW$140       .dwtag  DW_TAG_TI_branch
    1295                      .dwattr $C$DW$140, DW_AT_low_pc(0x00)
    1296                      .dwattr $C$DW$140, DW_AT_TI_return
    1297 00038a 4804          RET
    1298                                                      ; return occurs
    1299                      .dwattr $C$DW$125, DW_AT_TI_end_file("F:/eZdsp-DBG-sim/tmp1/c55x-sim2/foo/c5535_bsl_revc/ezdsp5535_v1
    1300                      .dwattr $C$DW$125, DW_AT_TI_end_line(0x271)
    1301                      .dwattr $C$DW$125, DW_AT_TI_end_column(0x01)
    1302                      .dwendentry
    1303                      .dwendtag $C$DW$125
    1304              
    1305 00038c               .sect   ".text"
    1306                      .align 4
TMS320C55x Assembler PC v4.4.1 Tue Oct 02 02:33:20 2018

Tools Copyright (c) 1996-2012 Texas Instruments Incorporated
csl_msc.asm                                                          PAGE   29

    1307              
    1308              $C$DW$141       .dwtag  DW_TAG_subprogram, DW_AT_name("MSC_HandleModeSense10")
    1309                      .dwattr $C$DW$141, DW_AT_low_pc(_MSC_HandleModeSense10)
    1310                      .dwattr $C$DW$141, DW_AT_high_pc(0x00)
    1311                      .dwattr $C$DW$141, DW_AT_TI_symbol_name("_MSC_HandleModeSense10")
    1312                      .dwattr $C$DW$141, DW_AT_type(*$C$DW$T$89)
    1313                      .dwattr $C$DW$141, DW_AT_TI_begin_file("F:/eZdsp-DBG-sim/tmp1/c55x-sim2/foo/c5535_bsl_revc/ezdsp5535_
    1314                      .dwattr $C$DW$141, DW_AT_TI_begin_line(0x2a1)
    1315                      .dwattr $C$DW$141, DW_AT_TI_begin_column(0x0c)
    1316                      .dwattr $C$DW$141, DW_AT_TI_max_frame_size(0x0a)
    1317                      .dwpsn  file "F:/eZdsp-DBG-sim/tmp1/c55x-sim2/foo/c5535_bsl_revc/ezdsp5535_v1/c55xx_csl/inc/csl_mscAu
    1318              
    1319                      .dwfde $C$DW$CIE, _MSC_HandleModeSense10
    1320              $C$DW$142       .dwtag  DW_TAG_formal_parameter, DW_AT_name("pMscHandle")
    1321                      .dwattr $C$DW$142, DW_AT_TI_symbol_name("_pMscHandle")
    1322                      .dwattr $C$DW$142, DW_AT_type(*$C$DW$T$107)
    1323                      .dwattr $C$DW$142, DW_AT_location[DW_OP_reg17]
    1324              $C$DW$143       .dwtag  DW_TAG_formal_parameter, DW_AT_name("hUsbInEp")
    1325                      .dwattr $C$DW$143, DW_AT_TI_symbol_name("_hUsbInEp")
    1326                      .dwattr $C$DW$143, DW_AT_type(*$C$DW$T$27)
    1327                      .dwattr $C$DW$143, DW_AT_location[DW_OP_reg19]
    1328              $C$DW$144       .dwtag  DW_TAG_formal_parameter, DW_AT_name("logicalUnit")
    1329                      .dwattr $C$DW$144, DW_AT_TI_symbol_name("_logicalUnit")
    1330                      .dwattr $C$DW$144, DW_AT_type(*$C$DW$T$25)
    1331                      .dwattr $C$DW$144, DW_AT_location[DW_OP_reg12]
    1332              ;*******************************************************************************
    1333              ;* FUNCTION NAME: MSC_HandleModeSense10                                        *
    1334              ;*                                                                             *
    1335              ;*   Function Uses Regs : AC0,AC0,AC1,AC1,T0,T1,AR0,XAR0,AR1,XAR1,AR2,AR3,XAR3,*
    1336              ;*                        SP,CARRY,TC1,M40,SATA,SATD,RDM,FRCT,SMUL             *
    1337              ;*   Stack Frame        : Compact (No Frame Pointer, w/ debug)                 *
    1338              ;*   Total Frame Size   : 10 words                                             *
    1339              ;*                        (2 return address/alignment)                         *
    1340              ;*                        (8 local values)                                     *
    1341              ;*   Min System Stack   : 1 word                                               *
    1342              ;*******************************************************************************
    1343 00038c       _MSC_HandleModeSense10:
    1344                      .dwcfi  cfa_offset, 1
    1345                      .dwcfi  save_reg_to_mem, 91, -1
    1346 00038c 4EF7          AADD #-9, SP
    1347                      .dwcfi  cfa_offset, 10
    1348              $C$DW$145       .dwtag  DW_TAG_variable, DW_AT_name("pMscHandle")
    1349                      .dwattr $C$DW$145, DW_AT_TI_symbol_name("_pMscHandle")
    1350                      .dwattr $C$DW$145, DW_AT_type(*$C$DW$T$107)
    1351                      .dwattr $C$DW$145, DW_AT_location[DW_OP_bregx 0x24 0]
    1352              $C$DW$146       .dwtag  DW_TAG_variable, DW_AT_name("hUsbInEp")
    1353                      .dwattr $C$DW$146, DW_AT_TI_symbol_name("_hUsbInEp")
    1354                      .dwattr $C$DW$146, DW_AT_type(*$C$DW$T$27)
    1355                      .dwattr $C$DW$146, DW_AT_location[DW_OP_bregx 0x24 2]
    1356              $C$DW$147       .dwtag  DW_TAG_variable, DW_AT_name("logicalUnit")
    1357                      .dwattr $C$DW$147, DW_AT_TI_symbol_name("_logicalUnit")
    1358                      .dwattr $C$DW$147, DW_AT_type(*$C$DW$T$25)
    1359                      .dwattr $C$DW$147, DW_AT_location[DW_OP_bregx 0x24 4]
    1360              $C$DW$148       .dwtag  DW_TAG_variable, DW_AT_name("status")
    1361                      .dwattr $C$DW$148, DW_AT_TI_symbol_name("_status")
TMS320C55x Assembler PC v4.4.1 Tue Oct 02 02:33:20 2018

Tools Copyright (c) 1996-2012 Texas Instruments Incorporated
csl_msc.asm                                                          PAGE   30

    1362                      .dwattr $C$DW$148, DW_AT_type(*$C$DW$T$89)
    1363                      .dwattr $C$DW$148, DW_AT_location[DW_OP_bregx 0x24 5]
    1364              $C$DW$149       .dwtag  DW_TAG_variable, DW_AT_name("modeSenseLen")
    1365                      .dwattr $C$DW$149, DW_AT_TI_symbol_name("_modeSenseLen")
    1366                      .dwattr $C$DW$149, DW_AT_type(*$C$DW$T$25)
    1367                      .dwattr $C$DW$149, DW_AT_location[DW_OP_bregx 0x24 6]
    1368              $C$DW$150       .dwtag  DW_TAG_variable, DW_AT_name("smallerLen")
    1369                      .dwattr $C$DW$150, DW_AT_TI_symbol_name("_smallerLen")
    1370                      .dwattr $C$DW$150, DW_AT_type(*$C$DW$T$25)
    1371                      .dwattr $C$DW$150, DW_AT_location[DW_OP_bregx 0x24 7]
    1372 00038e C408          MOV T0, *SP(#4) ; |676| 
    1373 000390 EB04          MOV XAR1, dbl(*SP(#2))
         000392 95   
    1374 000393 EB00          MOV XAR0, dbl(*SP(#0))
         000395 85   
    1375                      .dwpsn  file "F:/eZdsp-DBG-sim/tmp1/c55x-sim2/foo/c5535_bsl_revc/ezdsp5535_v1/c55xx_csl/inc/csl_mscAu
    1376 000396 ED00          MOV dbl(*SP(#0)), XAR3
         000398 BF   
    1377 000399 A96D          MOV *AR3(#303), AR1 ; |682| 
         00039b 012F 
    1378              
    1379 0003a1 1980          AND #0x0080, AR1, AR1 ; |682| 
         0003a3 99   
    1380 00039d 7600  ||      MOV #128, AR2 ; |682| 
         00039f 80A8 
    1381              
    1382 0003a4 1290          CMPU AR1 == AR2, TC1 ; |682| 
         0003a6 A4   
    1383 0003a7 0464          BCC $C$L16,TC1 ; |682| 
         0003a9 4D   
    1384                                                      ; branchcc occurs ; |682| 
    1385 0003aa ED6D          MOV dbl(*AR3(#16)), AC0 ; |682| 
         0003ac 0800 
         0003ae 10   
    1386 0003af 0400          BCC $C$L16,AC0 == #0 ; |682| 
         0003b1 45   
    1387                                                      ; branchcc occurs ; |682| 
    1388                      .dwpsn  file "F:/eZdsp-DBG-sim/tmp1/c55x-sim2/foo/c5535_bsl_revc/ezdsp5535_v1/c55xx_csl/inc/csl_mscAu
    1389 0003b2 E66D          MOV #2, *AR3(#289) ; |686| 
         0003b4 0201 
         0003b6 21   
    1390                      .dwpsn  file "F:/eZdsp-DBG-sim/tmp1/c55x-sim2/foo/c5535_bsl_revc/ezdsp5535_v1/c55xx_csl/inc/csl_mscAu
    1391 0003b7 ED00          MOV dbl(*SP(#0)), XAR3
         0003b9 BF   
    1392 0003ba E66D          MOV #2, *AR3(#355) ; |689| 
         0003bc 0201 
         0003be 63   
    1393                      .dwpsn  file "F:/eZdsp-DBG-sim/tmp1/c55x-sim2/foo/c5535_bsl_revc/ezdsp5535_v1/c55xx_csl/inc/csl_mscAu
    1394 0003bf ED00          MOV dbl(*SP(#0)), XAR0
         0003c1 8F   
    1395 0003c2 B40F          AMAR *+AR0(#314) ; |690| 
         0003c4 013A 
    1396              $C$DW$151       .dwtag  DW_TAG_TI_branch
    1397                      .dwattr $C$DW$151, DW_AT_low_pc(0x00)
    1398                      .dwattr $C$DW$151, DW_AT_name("_USB_stallEndpt")
TMS320C55x Assembler PC v4.4.1 Tue Oct 02 02:33:20 2018

Tools Copyright (c) 1996-2012 Texas Instruments Incorporated
csl_msc.asm                                                          PAGE   31

    1399                      .dwattr $C$DW$151, DW_AT_TI_call
    1400 0003c6 6C00          CALL #_USB_stallEndpt ; |690| 
         0003c8 0000!
    1401                                                      ; call occurs [#_USB_stallEndpt] ; |690| 
    1402 0003ca C40A          MOV T0, *SP(#5) ; |690| 
    1403                      .dwpsn  file "F:/eZdsp-DBG-sim/tmp1/c55x-sim2/foo/c5535_bsl_revc/ezdsp5535_v1/c55xx_csl/inc/csl_mscAu
    1404 0003cc ED00          MOV dbl(*SP(#0)), XAR0
         0003ce 8F   
    1405 0003cf B40F          AMAR *+AR0(#334) ; |691| 
         0003d1 014E 
    1406              $C$DW$152       .dwtag  DW_TAG_TI_branch
    1407                      .dwattr $C$DW$152, DW_AT_low_pc(0x00)
    1408                      .dwattr $C$DW$152, DW_AT_name("_USB_stallEndpt")
    1409                      .dwattr $C$DW$152, DW_AT_TI_call
    1410 0003d3 6C00          CALL #_USB_stallEndpt ; |691| 
         0003d5 0000!
    1411                                                      ; call occurs [#_USB_stallEndpt] ; |691| 
    1412 0003d7 C40A          MOV T0, *SP(#5) ; |691| 
    1413                      .dwpsn  file "F:/eZdsp-DBG-sim/tmp1/c55x-sim2/foo/c5535_bsl_revc/ezdsp5535_v1/c55xx_csl/inc/csl_mscAu
    1414 0003d9 ED00          MOV dbl(*SP(#0)), XAR0
         0003db 8F   
    1415 0003dc ED00          MOV dbl(*SP(#0)), XAR3
         0003de BF   
    1416 0003df 7600          MOV #32, T1 ; |694| 
         0003e1 2058 
    1417 0003e3 B40F          AMAR *+AR0(#314) ; |694| 
         0003e5 013A 
    1418 0003e7 ED6D          MOV dbl(*AR3(#14)), XAR1
         0003e9 9F00 
         0003eb 0E   
    1419              $C$DW$153       .dwtag  DW_TAG_TI_branch
    1420                      .dwattr $C$DW$153, DW_AT_low_pc(0x00)
    1421                      .dwattr $C$DW$153, DW_AT_name("_USB_postTransaction")
    1422                      .dwattr $C$DW$153, DW_AT_TI_call
    1423              
    1424 0003ec 6C00          CALL #_USB_postTransaction ; |694| 
         0003ee 0000!
    1425 0003f0 3D04  ||      MOV #0, T0
    1426              
    1427                                                      ; call occurs [#_USB_postTransaction] ; |694| 
    1428 0003f2 C40A          MOV T0, *SP(#5) ; |694| 
    1429                      .dwpsn  file "F:/eZdsp-DBG-sim/tmp1/c55x-sim2/foo/c5535_bsl_revc/ezdsp5535_v1/c55xx_csl/inc/csl_mscAu
    1430 0003f4 0600          B $C$L21  ; |698| 
         0003f6 89   
    1431                                                      ; branch occurs ; |698| 
    1432 0003f7       $C$L16:    
    1433                      .dwpsn  file "F:/eZdsp-DBG-sim/tmp1/c55x-sim2/foo/c5535_bsl_revc/ezdsp5535_v1/c55xx_csl/inc/csl_mscAu
    1434 0003f7 ED6D          MOV dbl(*AR3(#16)), AC0 ; |701| 
         0003f9 0800 
         0003fb 10   
    1435 0003fc 0400          BCC $C$L19,AC0 == #0 ; |701| 
         0003fe 77   
    1436                                                      ; branchcc occurs ; |701| 
    1437                      .dwpsn  file "F:/eZdsp-DBG-sim/tmp1/c55x-sim2/foo/c5535_bsl_revc/ezdsp5535_v1/c55xx_csl/inc/csl_mscAu
    1438 0003ff A96D          MOV *AR3(#356), AR1 ; |703| 
TMS320C55x Assembler PC v4.4.1 Tue Oct 02 02:33:20 2018

Tools Copyright (c) 1996-2012 Texas Instruments Incorporated
csl_msc.asm                                                          PAGE   32

         000401 0164 
    1439 000403 C90C          MOV AR1, *SP(#6) ; |703| 
    1440                      .dwpsn  file "F:/eZdsp-DBG-sim/tmp1/c55x-sim2/foo/c5535_bsl_revc/ezdsp5535_v1/c55xx_csl/inc/csl_mscAu
    1441 000405 ED00          MOV dbl(*SP(#0)), XAR3
         000407 BF   
    1442 000408 DF0C          MOV uns(*SP(#6)), AC1 ; |706| 
         00040a 15   
    1443 00040b ED6D          MOV dbl(*AR3(#16)), AC0 ; |706| 
         00040d 0800 
         00040f 10   
    1444 000410 1218          CMPU AC1 >= AC0, TC1 ; |706| 
         000412 04   
    1445 000413 6264          BCC $C$L17,TC1 ; |706| 
    1446                                                      ; branchcc occurs ; |706| 
    1447                      .dwpsn  file "F:/eZdsp-DBG-sim/tmp1/c55x-sim2/foo/c5535_bsl_revc/ezdsp5535_v1/c55xx_csl/inc/csl_mscAu
    1448 000415 C90E          MOV AR1, *SP(#7) ; |708| 
    1449                      .dwpsn  file "F:/eZdsp-DBG-sim/tmp1/c55x-sim2/foo/c5535_bsl_revc/ezdsp5535_v1/c55xx_csl/inc/csl_mscAu
    1450 000417 4A0B          B $C$L18  ; |709| 
    1451                                                      ; branch occurs ; |709| 
    1452 000419       $C$L17:    
    1453                      .dwpsn  file "F:/eZdsp-DBG-sim/tmp1/c55x-sim2/foo/c5535_bsl_revc/ezdsp5535_v1/c55xx_csl/inc/csl_mscAu
    1454 000419 ED6D          MOV dbl(*AR3(#16)), AC0 ; |712| 
         00041b 0800 
         00041d 10   
    1455 00041e 7DFF          AND #0xffff, AC0, AC0 ; |712| 
         000420 FF00 
    1456 000422 C00E          MOV AC0, *SP(#7) ; |712| 
    1457 000424       $C$L18:    
    1458                      .dwpsn  file "F:/eZdsp-DBG-sim/tmp1/c55x-sim2/foo/c5535_bsl_revc/ezdsp5535_v1/c55xx_csl/inc/csl_mscAu
    1459 000424 ED00          MOV dbl(*SP(#0)), XAR3
         000426 BF   
    1460 000427 DF0E          MOV uns(*SP(#7)), AC0 ; |717| 
         000429 05   
    1461 00042a ED6D          SUB AC0, dbl(*AR3(#16)), AC0 ; |717| 
         00042c 0400 
         00042e 10   
    1462 00042f EB6D          MOV AC0, dbl(*AR3(#16)) ; |717| 
         000431 0800 
         000433 10   
    1463                      .dwpsn  file "F:/eZdsp-DBG-sim/tmp1/c55x-sim2/foo/c5535_bsl_revc/ezdsp5535_v1/c55xx_csl/inc/csl_mscAu
    1464 000434 ED00          MOV dbl(*SP(#0)), XAR3
         000436 BF   
    1465 000437 ED6D          MOV dbl(*AR3(#16)), AC0 ; |718| 
         000439 0800 
         00043b 10   
    1466 00043c 7DFF          AND #0xffff, AC0, AC0 ; |718| 
         00043e FF00 
    1467 000440 C06D          MOV AC0, *AR3(#287) ; |718| 
         000442 011F 
    1468                      .dwpsn  file "F:/eZdsp-DBG-sim/tmp1/c55x-sim2/foo/c5535_bsl_revc/ezdsp5535_v1/c55xx_csl/inc/csl_mscAu
    1469 000444 ED00          MOV dbl(*SP(#0)), XAR3
         000446 BF   
    1470 000447 ED6D          MOV dbl(*AR3(#16)), AC0 ; |720| 
         000449 0800 
         00044b 10   
TMS320C55x Assembler PC v4.4.1 Tue Oct 02 02:33:20 2018

Tools Copyright (c) 1996-2012 Texas Instruments Incorporated
csl_msc.asm                                                          PAGE   33

    1471 00044c BC6D          MOV HI(AC0), *AR3(#288) ; |720| 
         00044e 0120 
    1472                      .dwpsn  file "F:/eZdsp-DBG-sim/tmp1/c55x-sim2/foo/c5535_bsl_revc/ezdsp5535_v1/c55xx_csl/inc/csl_mscAu
    1473 000450 ED00          MOV dbl(*SP(#0)), XAR3
         000452 BF   
    1474 000453 E66D          MOV #0, *AR3(#289) ; |722| 
         000455 0001 
         000457 21   
    1475                      .dwpsn  file "F:/eZdsp-DBG-sim/tmp1/c55x-sim2/foo/c5535_bsl_revc/ezdsp5535_v1/c55xx_csl/inc/csl_mscAu
    1476 000458 ED00          MOV dbl(*SP(#0)), XAR1
         00045a 9F   
    1477 00045b ED04          MOV dbl(*SP(#2)), XAR0
         00045d 8F   
    1478 00045e A40E          MOV *SP(#7), T0 ; |723| 
    1479 000460 B42F          AMAR *+AR1(#357) ; |723| 
         000462 0165 
    1480              $C$DW$154       .dwtag  DW_TAG_TI_branch
    1481                      .dwattr $C$DW$154, DW_AT_low_pc(0x00)
    1482                      .dwattr $C$DW$154, DW_AT_name("_USB_postTransaction")
    1483                      .dwattr $C$DW$154, DW_AT_TI_call
    1484              
    1485 000464 6C00          CALL #_USB_postTransaction ; |723| 
         000466 0000!
    1486 000468 3D15  ||      MOV #1, T1
    1487              
    1488                                                      ; call occurs [#_USB_postTransaction] ; |723| 
    1489 00046a C40A          MOV T0, *SP(#5) ; |723| 
    1490                      .dwpsn  file "F:/eZdsp-DBG-sim/tmp1/c55x-sim2/foo/c5535_bsl_revc/ezdsp5535_v1/c55xx_csl/inc/csl_mscAu
    1491 00046c ED00          MOV dbl(*SP(#0)), XAR3
         00046e BF   
    1492 00046f E66D          MOV #3, *AR3(#355) ; |727| 
         000471 0301 
         000473 63   
    1493                      .dwpsn  file "F:/eZdsp-DBG-sim/tmp1/c55x-sim2/foo/c5535_bsl_revc/ezdsp5535_v1/c55xx_csl/inc/csl_mscAu
    1494 000474 4A08          B $C$L20  ; |728| 
    1495                                                      ; branch occurs ; |728| 
    1496 000476       $C$L19:    
    1497                      .dwpsn  file "F:/eZdsp-DBG-sim/tmp1/c55x-sim2/foo/c5535_bsl_revc/ezdsp5535_v1/c55xx_csl/inc/csl_mscAu
    1498 000476 ED04          MOV dbl(*SP(#2)), XAR1
         000478 9F   
    1499              $C$DW$155       .dwtag  DW_TAG_TI_branch
    1500                      .dwattr $C$DW$155, DW_AT_low_pc(0x00)
    1501                      .dwattr $C$DW$155, DW_AT_name("_MSC_sendCswWithPhaseError")
    1502                      .dwattr $C$DW$155, DW_AT_TI_call
    1503 000479 0828          CALL #_MSC_sendCswWithPhaseError ; |731| 
         00047b 3C   
    1504                                                      ; call occurs [#_MSC_sendCswWithPhaseError] ; |731| 
    1505 00047c C40A          MOV T0, *SP(#5) ; |731| 
    1506 00047e       $C$L20:    
    1507                      .dwpsn  file "F:/eZdsp-DBG-sim/tmp1/c55x-sim2/foo/c5535_bsl_revc/ezdsp5535_v1/c55xx_csl/inc/csl_mscAu
    1508 00047e A40A          MOV *SP(#5), T0 ; |734| 
    1509 000480       $C$L21:    
    1510                      .dwpsn  file "F:/eZdsp-DBG-sim/tmp1/c55x-sim2/foo/c5535_bsl_revc/ezdsp5535_v1/c55xx_csl/inc/csl_mscAu
    1511 000480 4E09          AADD #9, SP
    1512                      .dwcfi  cfa_offset, 1
TMS320C55x Assembler PC v4.4.1 Tue Oct 02 02:33:20 2018

Tools Copyright (c) 1996-2012 Texas Instruments Incorporated
csl_msc.asm                                                          PAGE   34

    1513              $C$DW$156       .dwtag  DW_TAG_TI_branch
    1514                      .dwattr $C$DW$156, DW_AT_low_pc(0x00)
    1515                      .dwattr $C$DW$156, DW_AT_TI_return
    1516 000482 4804          RET
    1517                                                      ; return occurs
    1518                      .dwattr $C$DW$141, DW_AT_TI_end_file("F:/eZdsp-DBG-sim/tmp1/c55x-sim2/foo/c5535_bsl_revc/ezdsp5535_v1
    1519                      .dwattr $C$DW$141, DW_AT_TI_end_line(0x2df)
    1520                      .dwattr $C$DW$141, DW_AT_TI_end_column(0x01)
    1521                      .dwendentry
    1522                      .dwendtag $C$DW$141
    1523              
    1524 000484               .sect   ".text"
    1525                      .align 4
    1526              
    1527              $C$DW$157       .dwtag  DW_TAG_subprogram, DW_AT_name("MSC_HandleInquiry")
    1528                      .dwattr $C$DW$157, DW_AT_low_pc(_MSC_HandleInquiry)
    1529                      .dwattr $C$DW$157, DW_AT_high_pc(0x00)
    1530                      .dwattr $C$DW$157, DW_AT_TI_symbol_name("_MSC_HandleInquiry")
    1531                      .dwattr $C$DW$157, DW_AT_type(*$C$DW$T$89)
    1532                      .dwattr $C$DW$157, DW_AT_TI_begin_file("F:/eZdsp-DBG-sim/tmp1/c55x-sim2/foo/c5535_bsl_revc/ezdsp5535_
    1533                      .dwattr $C$DW$157, DW_AT_TI_begin_line(0x30f)
    1534                      .dwattr $C$DW$157, DW_AT_TI_begin_column(0x0c)
    1535                      .dwattr $C$DW$157, DW_AT_TI_max_frame_size(0x0a)
    1536                      .dwpsn  file "F:/eZdsp-DBG-sim/tmp1/c55x-sim2/foo/c5535_bsl_revc/ezdsp5535_v1/c55xx_csl/inc/csl_mscAu
    1537              
    1538                      .dwfde $C$DW$CIE, _MSC_HandleInquiry
    1539              $C$DW$158       .dwtag  DW_TAG_formal_parameter, DW_AT_name("pMscHandle")
    1540                      .dwattr $C$DW$158, DW_AT_TI_symbol_name("_pMscHandle")
    1541                      .dwattr $C$DW$158, DW_AT_type(*$C$DW$T$107)
    1542                      .dwattr $C$DW$158, DW_AT_location[DW_OP_reg17]
    1543              $C$DW$159       .dwtag  DW_TAG_formal_parameter, DW_AT_name("hUsbInEp")
    1544                      .dwattr $C$DW$159, DW_AT_TI_symbol_name("_hUsbInEp")
    1545                      .dwattr $C$DW$159, DW_AT_type(*$C$DW$T$27)
    1546                      .dwattr $C$DW$159, DW_AT_location[DW_OP_reg19]
    1547              $C$DW$160       .dwtag  DW_TAG_formal_parameter, DW_AT_name("logicalUnit")
    1548                      .dwattr $C$DW$160, DW_AT_TI_symbol_name("_logicalUnit")
    1549                      .dwattr $C$DW$160, DW_AT_type(*$C$DW$T$25)
    1550                      .dwattr $C$DW$160, DW_AT_location[DW_OP_reg12]
    1551              ;*******************************************************************************
    1552              ;* FUNCTION NAME: MSC_HandleInquiry                                            *
    1553              ;*                                                                             *
    1554              ;*   Function Uses Regs : AC0,AC0,AC1,AC1,T0,T1,AR0,XAR0,AR1,XAR1,AR2,XAR2,AR3,*
    1555              ;*                        XAR3,SP,CARRY,TC1,M40,SATA,SATD,RDM,FRCT,SMUL        *
    1556              ;*   Stack Frame        : Compact (No Frame Pointer, w/ debug)                 *
    1557              ;*   Total Frame Size   : 10 words                                             *
    1558              ;*                        (2 return address/alignment)                         *
    1559              ;*                        (8 local values)                                     *
    1560              ;*   Min System Stack   : 1 word                                               *
    1561              ;*******************************************************************************
    1562 000484       _MSC_HandleInquiry:
    1563                      .dwcfi  cfa_offset, 1
    1564                      .dwcfi  save_reg_to_mem, 91, -1
    1565 000484 4EF7          AADD #-9, SP
    1566                      .dwcfi  cfa_offset, 10
    1567              $C$DW$161       .dwtag  DW_TAG_variable, DW_AT_name("pMscHandle")
TMS320C55x Assembler PC v4.4.1 Tue Oct 02 02:33:20 2018

Tools Copyright (c) 1996-2012 Texas Instruments Incorporated
csl_msc.asm                                                          PAGE   35

    1568                      .dwattr $C$DW$161, DW_AT_TI_symbol_name("_pMscHandle")
    1569                      .dwattr $C$DW$161, DW_AT_type(*$C$DW$T$107)
    1570                      .dwattr $C$DW$161, DW_AT_location[DW_OP_bregx 0x24 0]
    1571              $C$DW$162       .dwtag  DW_TAG_variable, DW_AT_name("hUsbInEp")
    1572                      .dwattr $C$DW$162, DW_AT_TI_symbol_name("_hUsbInEp")
    1573                      .dwattr $C$DW$162, DW_AT_type(*$C$DW$T$27)
    1574                      .dwattr $C$DW$162, DW_AT_location[DW_OP_bregx 0x24 2]
    1575              $C$DW$163       .dwtag  DW_TAG_variable, DW_AT_name("logicalUnit")
    1576                      .dwattr $C$DW$163, DW_AT_TI_symbol_name("_logicalUnit")
    1577                      .dwattr $C$DW$163, DW_AT_type(*$C$DW$T$25)
    1578                      .dwattr $C$DW$163, DW_AT_location[DW_OP_bregx 0x24 4]
    1579              $C$DW$164       .dwtag  DW_TAG_variable, DW_AT_name("status")
    1580                      .dwattr $C$DW$164, DW_AT_TI_symbol_name("_status")
    1581                      .dwattr $C$DW$164, DW_AT_type(*$C$DW$T$89)
    1582                      .dwattr $C$DW$164, DW_AT_location[DW_OP_bregx 0x24 5]
    1583              $C$DW$165       .dwtag  DW_TAG_variable, DW_AT_name("cbwRespLen")
    1584                      .dwattr $C$DW$165, DW_AT_TI_symbol_name("_cbwRespLen")
    1585                      .dwattr $C$DW$165, DW_AT_type(*$C$DW$T$25)
    1586                      .dwattr $C$DW$165, DW_AT_location[DW_OP_bregx 0x24 6]
    1587              $C$DW$166       .dwtag  DW_TAG_variable, DW_AT_name("smallerLen")
    1588                      .dwattr $C$DW$166, DW_AT_TI_symbol_name("_smallerLen")
    1589                      .dwattr $C$DW$166, DW_AT_type(*$C$DW$T$25)
    1590                      .dwattr $C$DW$166, DW_AT_location[DW_OP_bregx 0x24 7]
    1591 000486 C408          MOV T0, *SP(#4) ; |786| 
    1592 000488 EB04          MOV XAR1, dbl(*SP(#2))
         00048a 95   
    1593 00048b EB00          MOV XAR0, dbl(*SP(#0))
         00048d 85   
    1594                      .dwpsn  file "F:/eZdsp-DBG-sim/tmp1/c55x-sim2/foo/c5535_bsl_revc/ezdsp5535_v1/c55xx_csl/inc/csl_mscAu
    1595 00048e ED00          MOV dbl(*SP(#0)), XAR3
         000490 BF   
    1596 000491 A96D          MOV *AR3(#303), AR1 ; |792| 
         000493 012F 
    1597              
    1598 000499 1980          AND #0x0080, AR1, AR1 ; |792| 
         00049b 99   
    1599 000495 7600  ||      MOV #128, AR2 ; |792| 
         000497 80A8 
    1600              
    1601 00049c 1290          CMPU AR1 == AR2, TC1 ; |792| 
         00049e A4   
    1602 00049f 0464          BCC $C$L22,TC1 ; |792| 
         0004a1 13   
    1603                                                      ; branchcc occurs ; |792| 
    1604 0004a2 ED6D          MOV dbl(*AR3(#16)), AC0 ; |792| 
         0004a4 0800 
         0004a6 10   
    1605 0004a7 6600          BCC $C$L22,AC0 == #0 ; |792| 
    1606                                                      ; branchcc occurs ; |792| 
    1607                      .dwpsn  file "F:/eZdsp-DBG-sim/tmp1/c55x-sim2/foo/c5535_bsl_revc/ezdsp5535_v1/c55xx_csl/inc/csl_mscAu
    1608 0004a9 7600          MOV #128, T0 ; |796| 
         0004ab 8048 
    1609              $C$DW$167       .dwtag  DW_TAG_TI_branch
    1610                      .dwattr $C$DW$167, DW_AT_low_pc(0x00)
    1611                      .dwattr $C$DW$167, DW_AT_name("_MSC_handleDataDirMisMatch")
TMS320C55x Assembler PC v4.4.1 Tue Oct 02 02:33:20 2018

Tools Copyright (c) 1996-2012 Texas Instruments Incorporated
csl_msc.asm                                                          PAGE   36

    1612                      .dwattr $C$DW$167, DW_AT_TI_call
    1613 0004ad 0828          CALL #_MSC_handleDataDirMisMatch ; |796| 
         0004af 70   
    1614                                                      ; call occurs [#_MSC_handleDataDirMisMatch] ; |796| 
    1615 0004b0 C40A          MOV T0, *SP(#5) ; |796| 
    1616                      .dwpsn  file "F:/eZdsp-DBG-sim/tmp1/c55x-sim2/foo/c5535_bsl_revc/ezdsp5535_v1/c55xx_csl/inc/csl_mscAu
    1617 0004b2 0600          B $C$L27  ; |798| 
         0004b4 AB   
    1618                                                      ; branch occurs ; |798| 
    1619 0004b5       $C$L22:    
    1620                      .dwpsn  file "F:/eZdsp-DBG-sim/tmp1/c55x-sim2/foo/c5535_bsl_revc/ezdsp5535_v1/c55xx_csl/inc/csl_mscAu
    1621 0004b5 ED6D          MOV dbl(*AR3(#16)), AC0 ; |801| 
         0004b7 0800 
         0004b9 10   
    1622 0004ba 6D00          BCC $C$L25,AC0 == #0 ; |801| 
         0004bc 009A 
    1623                                                      ; branchcc occurs ; |801| 
    1624                      .dwpsn  file "F:/eZdsp-DBG-sim/tmp1/c55x-sim2/foo/c5535_bsl_revc/ezdsp5535_v1/c55xx_csl/inc/csl_mscAu
    1625 0004be DF08          MOV uns(*SP(#4)), AC1 ; |803| 
         0004c0 15   
    1626 0004c1 1015          SFTS AC1, #6, AC0 ; |803| 
         0004c3 06   
    1627 0004c4 1014          SUB AC1 << #1, AC0 ; |803| 
         0004c6 01   
    1628 0004c7 900A          MOV AC0, XAR2
    1629 0004c9 14A1          AADD XAR2, XAR3 ; |803| 
         0004cb B0   
    1630 0004cc A96D          MOV *AR3(#18), AR1 ; |803| 
         0004ce 0012 
    1631 0004d0 C90C          MOV AR1, *SP(#6) ; |803| 
    1632                      .dwpsn  file "F:/eZdsp-DBG-sim/tmp1/c55x-sim2/foo/c5535_bsl_revc/ezdsp5535_v1/c55xx_csl/inc/csl_mscAu
    1633 0004d2 ED00          MOV dbl(*SP(#0)), XAR3
         0004d4 BF   
    1634 0004d5 DF0C          MOV uns(*SP(#6)), AC1 ; |805| 
         0004d7 15   
    1635 0004d8 ED6D          MOV dbl(*AR3(#16)), AC0 ; |805| 
         0004da 0800 
         0004dc 10   
    1636 0004dd 1218          CMPU AC1 >= AC0, TC1 ; |805| 
         0004df 04   
    1637 0004e0 6664          BCC $C$L23,TC1 ; |805| 
    1638                                                      ; branchcc occurs ; |805| 
    1639                      .dwpsn  file "F:/eZdsp-DBG-sim/tmp1/c55x-sim2/foo/c5535_bsl_revc/ezdsp5535_v1/c55xx_csl/inc/csl_mscAu
    1640 0004e2 C90E          MOV AR1, *SP(#7) ; |807| 
    1641                      .dwpsn  file "F:/eZdsp-DBG-sim/tmp1/c55x-sim2/foo/c5535_bsl_revc/ezdsp5535_v1/c55xx_csl/inc/csl_mscAu
    1642 0004e4 ED00          MOV dbl(*SP(#0)), XAR3
         0004e6 BF   
    1643 0004e7 E66D          MOV #7, *AR3(#355) ; |808| 
         0004e9 0701 
         0004eb 63   
    1644                      .dwpsn  file "F:/eZdsp-DBG-sim/tmp1/c55x-sim2/foo/c5535_bsl_revc/ezdsp5535_v1/c55xx_csl/inc/csl_mscAu
    1645 0004ec 4A13          B $C$L24  ; |809| 
    1646                                                      ; branch occurs ; |809| 
    1647 0004ee       $C$L23:    
    1648                      .dwpsn  file "F:/eZdsp-DBG-sim/tmp1/c55x-sim2/foo/c5535_bsl_revc/ezdsp5535_v1/c55xx_csl/inc/csl_mscAu
TMS320C55x Assembler PC v4.4.1 Tue Oct 02 02:33:20 2018

Tools Copyright (c) 1996-2012 Texas Instruments Incorporated
csl_msc.asm                                                          PAGE   37

    1649 0004ee ED6D          MOV dbl(*AR3(#16)), AC0 ; |812| 
         0004f0 0800 
         0004f2 10   
    1650 0004f3 7DFF          AND #0xffff, AC0, AC0 ; |812| 
         0004f5 FF00 
    1651 0004f7 C00E          MOV AC0, *SP(#7) ; |812| 
    1652                      .dwpsn  file "F:/eZdsp-DBG-sim/tmp1/c55x-sim2/foo/c5535_bsl_revc/ezdsp5535_v1/c55xx_csl/inc/csl_mscAu
    1653 0004f9 ED00          MOV dbl(*SP(#0)), XAR3
         0004fb BF   
    1654 0004fc E66D          MOV #3, *AR3(#355) ; |814| 
         0004fe 0301 
         000500 63   
    1655 000501       $C$L24:    
    1656                      .dwpsn  file "F:/eZdsp-DBG-sim/tmp1/c55x-sim2/foo/c5535_bsl_revc/ezdsp5535_v1/c55xx_csl/inc/csl_mscAu
    1657 000501 ED00          MOV dbl(*SP(#0)), XAR3
         000503 BF   
    1658 000504 DF0E          MOV uns(*SP(#7)), AC0 ; |818| 
         000506 05   
    1659 000507 ED6D          SUB AC0, dbl(*AR3(#16)), AC0 ; |818| 
         000509 0400 
         00050b 10   
    1660 00050c EB6D          MOV AC0, dbl(*AR3(#16)) ; |818| 
         00050e 0800 
         000510 10   
    1661                      .dwpsn  file "F:/eZdsp-DBG-sim/tmp1/c55x-sim2/foo/c5535_bsl_revc/ezdsp5535_v1/c55xx_csl/inc/csl_mscAu
    1662 000511 ED00          MOV dbl(*SP(#0)), XAR3
         000513 BF   
    1663 000514 ED6D          MOV dbl(*AR3(#16)), AC0 ; |819| 
         000516 0800 
         000518 10   
    1664 000519 7DFF          AND #0xffff, AC0, AC0 ; |819| 
         00051b FF00 
    1665 00051d C06D          MOV AC0, *AR3(#287) ; |819| 
         00051f 011F 
    1666                      .dwpsn  file "F:/eZdsp-DBG-sim/tmp1/c55x-sim2/foo/c5535_bsl_revc/ezdsp5535_v1/c55xx_csl/inc/csl_mscAu
    1667 000521 ED00          MOV dbl(*SP(#0)), XAR3
         000523 BF   
    1668 000524 ED6D          MOV dbl(*AR3(#16)), AC0 ; |821| 
         000526 0800 
         000528 10   
    1669 000529 BC6D          MOV HI(AC0), *AR3(#288) ; |821| 
         00052b 0120 
    1670                      .dwpsn  file "F:/eZdsp-DBG-sim/tmp1/c55x-sim2/foo/c5535_bsl_revc/ezdsp5535_v1/c55xx_csl/inc/csl_mscAu
    1671 00052d ED00          MOV dbl(*SP(#0)), XAR3
         00052f BF   
    1672 000530 E66D          MOV #0, *AR3(#289) ; |823| 
         000532 0001 
         000534 21   
    1673                      .dwpsn  file "F:/eZdsp-DBG-sim/tmp1/c55x-sim2/foo/c5535_bsl_revc/ezdsp5535_v1/c55xx_csl/inc/csl_mscAu
    1674 000535 DF08          MOV uns(*SP(#4)), AC1 ; |825| 
         000537 15   
    1675 000538 ED00          MOV dbl(*SP(#0)), XAR1
         00053a 9F   
    1676 00053b 1015          SFTS AC1, #6, AC0 ; |825| 
         00053d 06   
TMS320C55x Assembler PC v4.4.1 Tue Oct 02 02:33:20 2018

Tools Copyright (c) 1996-2012 Texas Instruments Incorporated
csl_msc.asm                                                          PAGE   38

    1677 00053e 1014          SUB AC1 << #1, AC0 ; |825| 
         000540 01   
    1678 000541 900B          MOV AC0, XAR3
    1679 000543 ED04          MOV dbl(*SP(#2)), XAR0
         000545 8F   
    1680 000546 14B1          AADD XAR3, XAR1 ; |825| 
         000548 90   
    1681              
    1682                      AADD #19, AR1 ; |825| 
    1683 000549 8A0E  ||      MOV *SP(#7), T0 ; |825| 
         00054b 941C 
         00054d 13   
    1684              
    1685              $C$DW$168       .dwtag  DW_TAG_TI_branch
    1686                      .dwattr $C$DW$168, DW_AT_low_pc(0x00)
    1687                      .dwattr $C$DW$168, DW_AT_name("_USB_postTransaction")
    1688                      .dwattr $C$DW$168, DW_AT_TI_call
    1689              
    1690 00054e 6C00          CALL #_USB_postTransaction ; |825| 
         000550 0000!
    1691 000552 3D15  ||      MOV #1, T1
    1692              
    1693                                                      ; call occurs [#_USB_postTransaction] ; |825| 
    1694 000554 C40A          MOV T0, *SP(#5) ; |825| 
    1695                      .dwpsn  file "F:/eZdsp-DBG-sim/tmp1/c55x-sim2/foo/c5535_bsl_revc/ezdsp5535_v1/c55xx_csl/inc/csl_mscAu
    1696 000556 4A08          B $C$L26  ; |828| 
    1697                                                      ; branch occurs ; |828| 
    1698 000558       $C$L25:    
    1699                      .dwpsn  file "F:/eZdsp-DBG-sim/tmp1/c55x-sim2/foo/c5535_bsl_revc/ezdsp5535_v1/c55xx_csl/inc/csl_mscAu
    1700 000558 ED04          MOV dbl(*SP(#2)), XAR1
         00055a 9F   
    1701              $C$DW$169       .dwtag  DW_TAG_TI_branch
    1702                      .dwattr $C$DW$169, DW_AT_low_pc(0x00)
    1703                      .dwattr $C$DW$169, DW_AT_name("_MSC_sendCswWithPhaseError")
    1704                      .dwattr $C$DW$169, DW_AT_TI_call
    1705 00055b 0827          CALL #_MSC_sendCswWithPhaseError ; |831| 
         00055d 5A   
    1706                                                      ; call occurs [#_MSC_sendCswWithPhaseError] ; |831| 
    1707 00055e C40A          MOV T0, *SP(#5) ; |831| 
    1708 000560       $C$L26:    
    1709                      .dwpsn  file "F:/eZdsp-DBG-sim/tmp1/c55x-sim2/foo/c5535_bsl_revc/ezdsp5535_v1/c55xx_csl/inc/csl_mscAu
    1710 000560       $C$L27:    
    1711                      .dwpsn  file "F:/eZdsp-DBG-sim/tmp1/c55x-sim2/foo/c5535_bsl_revc/ezdsp5535_v1/c55xx_csl/inc/csl_mscAu
    1712 000560 4E09          AADD #9, SP
    1713                      .dwcfi  cfa_offset, 1
    1714              $C$DW$170       .dwtag  DW_TAG_TI_branch
    1715                      .dwattr $C$DW$170, DW_AT_low_pc(0x00)
    1716                      .dwattr $C$DW$170, DW_AT_TI_return
    1717 000562 4804          RET
    1718                                                      ; return occurs
    1719                      .dwattr $C$DW$157, DW_AT_TI_end_file("F:/eZdsp-DBG-sim/tmp1/c55x-sim2/foo/c5535_bsl_revc/ezdsp5535_v1
    1720                      .dwattr $C$DW$157, DW_AT_TI_end_line(0x343)
    1721                      .dwattr $C$DW$157, DW_AT_TI_end_column(0x01)
    1722                      .dwendentry
    1723                      .dwendtag $C$DW$157
TMS320C55x Assembler PC v4.4.1 Tue Oct 02 02:33:20 2018

Tools Copyright (c) 1996-2012 Texas Instruments Incorporated
csl_msc.asm                                                          PAGE   39

    1724              
    1725 000564               .sect   ".text"
    1726                      .align 4
    1727              
    1728              $C$DW$171       .dwtag  DW_TAG_subprogram, DW_AT_name("MSC_HandleRequestSense")
    1729                      .dwattr $C$DW$171, DW_AT_low_pc(_MSC_HandleRequestSense)
    1730                      .dwattr $C$DW$171, DW_AT_high_pc(0x00)
    1731                      .dwattr $C$DW$171, DW_AT_TI_symbol_name("_MSC_HandleRequestSense")
    1732                      .dwattr $C$DW$171, DW_AT_type(*$C$DW$T$89)
    1733                      .dwattr $C$DW$171, DW_AT_TI_begin_file("F:/eZdsp-DBG-sim/tmp1/c55x-sim2/foo/c5535_bsl_revc/ezdsp5535_
    1734                      .dwattr $C$DW$171, DW_AT_TI_begin_line(0x372)
    1735                      .dwattr $C$DW$171, DW_AT_TI_begin_column(0x0c)
    1736                      .dwattr $C$DW$171, DW_AT_TI_max_frame_size(0x08)
    1737                      .dwpsn  file "F:/eZdsp-DBG-sim/tmp1/c55x-sim2/foo/c5535_bsl_revc/ezdsp5535_v1/c55xx_csl/inc/csl_mscAu
    1738              
    1739                      .dwfde $C$DW$CIE, _MSC_HandleRequestSense
    1740              $C$DW$172       .dwtag  DW_TAG_formal_parameter, DW_AT_name("pMscHandle")
    1741                      .dwattr $C$DW$172, DW_AT_TI_symbol_name("_pMscHandle")
    1742                      .dwattr $C$DW$172, DW_AT_type(*$C$DW$T$107)
    1743                      .dwattr $C$DW$172, DW_AT_location[DW_OP_reg17]
    1744              $C$DW$173       .dwtag  DW_TAG_formal_parameter, DW_AT_name("hUsbInEp")
    1745                      .dwattr $C$DW$173, DW_AT_TI_symbol_name("_hUsbInEp")
    1746                      .dwattr $C$DW$173, DW_AT_type(*$C$DW$T$27)
    1747                      .dwattr $C$DW$173, DW_AT_location[DW_OP_reg19]
    1748              ;*******************************************************************************
    1749              ;* FUNCTION NAME: MSC_HandleRequestSense                                       *
    1750              ;*                                                                             *
    1751              ;*   Function Uses Regs : AC0,AC0,AC1,AC1,T0,T1,AR0,XAR0,AR1,XAR1,AR2,AR3,XAR3,*
    1752              ;*                        SP,CARRY,TC1,M40,SATA,SATD,RDM,FRCT,SMUL             *
    1753              ;*   Stack Frame        : Compact (No Frame Pointer, w/ debug)                 *
    1754              ;*   Total Frame Size   : 8 words                                              *
    1755              ;*                        (1 return address/alignment)                         *
    1756              ;*                        (7 local values)                                     *
    1757              ;*   Min System Stack   : 1 word                                               *
    1758              ;*******************************************************************************
    1759 000564       _MSC_HandleRequestSense:
    1760                      .dwcfi  cfa_offset, 1
    1761                      .dwcfi  save_reg_to_mem, 91, -1
    1762 000564 4EF9          AADD #-7, SP
    1763                      .dwcfi  cfa_offset, 8
    1764              $C$DW$174       .dwtag  DW_TAG_variable, DW_AT_name("pMscHandle")
    1765                      .dwattr $C$DW$174, DW_AT_TI_symbol_name("_pMscHandle")
    1766                      .dwattr $C$DW$174, DW_AT_type(*$C$DW$T$107)
    1767                      .dwattr $C$DW$174, DW_AT_location[DW_OP_bregx 0x24 0]
    1768              $C$DW$175       .dwtag  DW_TAG_variable, DW_AT_name("hUsbInEp")
    1769                      .dwattr $C$DW$175, DW_AT_TI_symbol_name("_hUsbInEp")
    1770                      .dwattr $C$DW$175, DW_AT_type(*$C$DW$T$27)
    1771                      .dwattr $C$DW$175, DW_AT_location[DW_OP_bregx 0x24 2]
    1772              $C$DW$176       .dwtag  DW_TAG_variable, DW_AT_name("status")
    1773                      .dwattr $C$DW$176, DW_AT_TI_symbol_name("_status")
    1774                      .dwattr $C$DW$176, DW_AT_type(*$C$DW$T$89)
    1775                      .dwattr $C$DW$176, DW_AT_location[DW_OP_bregx 0x24 4]
    1776              $C$DW$177       .dwtag  DW_TAG_variable, DW_AT_name("cbwRespLen")
    1777                      .dwattr $C$DW$177, DW_AT_TI_symbol_name("_cbwRespLen")
    1778                      .dwattr $C$DW$177, DW_AT_type(*$C$DW$T$25)
TMS320C55x Assembler PC v4.4.1 Tue Oct 02 02:33:20 2018

Tools Copyright (c) 1996-2012 Texas Instruments Incorporated
csl_msc.asm                                                          PAGE   40

    1779                      .dwattr $C$DW$177, DW_AT_location[DW_OP_bregx 0x24 5]
    1780              $C$DW$178       .dwtag  DW_TAG_variable, DW_AT_name("smallerLen")
    1781                      .dwattr $C$DW$178, DW_AT_TI_symbol_name("_smallerLen")
    1782                      .dwattr $C$DW$178, DW_AT_type(*$C$DW$T$25)
    1783                      .dwattr $C$DW$178, DW_AT_location[DW_OP_bregx 0x24 6]
    1784 000566 EB04          MOV XAR1, dbl(*SP(#2))
         000568 95   
    1785 000569 EB00          MOV XAR0, dbl(*SP(#0))
         00056b 85   
    1786                      .dwpsn  file "F:/eZdsp-DBG-sim/tmp1/c55x-sim2/foo/c5535_bsl_revc/ezdsp5535_v1/c55xx_csl/inc/csl_mscAu
    1787 00056c ED00          MOV dbl(*SP(#0)), XAR3
         00056e BF   
    1788 00056f A96D          MOV *AR3(#303), AR1 ; |890| 
         000571 012F 
    1789              
    1790 000577 1980          AND #0x0080, AR1, AR1 ; |890| 
         000579 99   
    1791 000573 7600  ||      MOV #128, AR2 ; |890| 
         000575 80A8 
    1792              
    1793 00057a 1290          CMPU AR1 == AR2, TC1 ; |890| 
         00057c A4   
    1794 00057d 0464          BCC $C$L28,TC1 ; |890| 
         00057f 13   
    1795                                                      ; branchcc occurs ; |890| 
    1796 000580 ED6D          MOV dbl(*AR3(#16)), AC0 ; |890| 
         000582 0800 
         000584 10   
    1797 000585 6600          BCC $C$L28,AC0 == #0 ; |890| 
    1798                                                      ; branchcc occurs ; |890| 
    1799                      .dwpsn  file "F:/eZdsp-DBG-sim/tmp1/c55x-sim2/foo/c5535_bsl_revc/ezdsp5535_v1/c55xx_csl/inc/csl_mscAu
    1800 000587 7600          MOV #128, T0 ; |894| 
         000589 8048 
    1801              $C$DW$179       .dwtag  DW_TAG_TI_branch
    1802                      .dwattr $C$DW$179, DW_AT_low_pc(0x00)
    1803                      .dwattr $C$DW$179, DW_AT_name("_MSC_handleDataDirMisMatch")
    1804                      .dwattr $C$DW$179, DW_AT_TI_call
    1805 00058b 0827          CALL #_MSC_handleDataDirMisMatch ; |894| 
         00058d 92   
    1806                                                      ; call occurs [#_MSC_handleDataDirMisMatch] ; |894| 
    1807 00058e C408          MOV T0, *SP(#4) ; |894| 
    1808                      .dwpsn  file "F:/eZdsp-DBG-sim/tmp1/c55x-sim2/foo/c5535_bsl_revc/ezdsp5535_v1/c55xx_csl/inc/csl_mscAu
    1809 000590 0600          B $C$L33  ; |896| 
         000592 8D   
    1810                                                      ; branch occurs ; |896| 
    1811 000593       $C$L28:    
    1812                      .dwpsn  file "F:/eZdsp-DBG-sim/tmp1/c55x-sim2/foo/c5535_bsl_revc/ezdsp5535_v1/c55xx_csl/inc/csl_mscAu
    1813 000593 ED6D          MOV dbl(*AR3(#16)), AC0 ; |899| 
         000595 0800 
         000597 10   
    1814 000598 0400          BCC $C$L31,AC0 == #0 ; |899| 
         00059a 7D   
    1815                                                      ; branchcc occurs ; |899| 
    1816                      .dwpsn  file "F:/eZdsp-DBG-sim/tmp1/c55x-sim2/foo/c5535_bsl_revc/ezdsp5535_v1/c55xx_csl/inc/csl_mscAu
    1817 00059b A96D          MOV *AR3(#266), AR1 ; |901| 
TMS320C55x Assembler PC v4.4.1 Tue Oct 02 02:33:20 2018

Tools Copyright (c) 1996-2012 Texas Instruments Incorporated
csl_msc.asm                                                          PAGE   41

         00059d 010A 
    1818 00059f C90A          MOV AR1, *SP(#5) ; |901| 
    1819                      .dwpsn  file "F:/eZdsp-DBG-sim/tmp1/c55x-sim2/foo/c5535_bsl_revc/ezdsp5535_v1/c55xx_csl/inc/csl_mscAu
    1820 0005a1 ED00          MOV dbl(*SP(#0)), XAR3
         0005a3 BF   
    1821 0005a4 DF0A          MOV uns(*SP(#5)), AC1 ; |904| 
         0005a6 15   
    1822 0005a7 ED6D          MOV dbl(*AR3(#16)), AC0 ; |904| 
         0005a9 0800 
         0005ab 10   
    1823 0005ac 1218          CMPU AC1 >= AC0, TC1 ; |904| 
         0005ae 04   
    1824 0005af 65E4          BCC $C$L29,TC1 ; |904| 
    1825                                                      ; branchcc occurs ; |904| 
    1826                      .dwpsn  file "F:/eZdsp-DBG-sim/tmp1/c55x-sim2/foo/c5535_bsl_revc/ezdsp5535_v1/c55xx_csl/inc/csl_mscAu
    1827 0005b1 E66D          MOV #7, *AR3(#355) ; |906| 
         0005b3 0701 
         0005b5 63   
    1828                      .dwpsn  file "F:/eZdsp-DBG-sim/tmp1/c55x-sim2/foo/c5535_bsl_revc/ezdsp5535_v1/c55xx_csl/inc/csl_mscAu
    1829 0005b6 A90A          MOV *SP(#5), AR1 ; |907| 
    1830 0005b8 C90C          MOV AR1, *SP(#6) ; |907| 
    1831                      .dwpsn  file "F:/eZdsp-DBG-sim/tmp1/c55x-sim2/foo/c5535_bsl_revc/ezdsp5535_v1/c55xx_csl/inc/csl_mscAu
    1832 0005ba 4A13          B $C$L30  ; |908| 
    1833                                                      ; branch occurs ; |908| 
    1834 0005bc       $C$L29:    
    1835                      .dwpsn  file "F:/eZdsp-DBG-sim/tmp1/c55x-sim2/foo/c5535_bsl_revc/ezdsp5535_v1/c55xx_csl/inc/csl_mscAu
    1836 0005bc E66D          MOV #3, *AR3(#355) ; |911| 
         0005be 0301 
         0005c0 63   
    1837                      .dwpsn  file "F:/eZdsp-DBG-sim/tmp1/c55x-sim2/foo/c5535_bsl_revc/ezdsp5535_v1/c55xx_csl/inc/csl_mscAu
    1838 0005c1 ED00          MOV dbl(*SP(#0)), XAR3
         0005c3 BF   
    1839 0005c4 ED6D          MOV dbl(*AR3(#16)), AC0 ; |913| 
         0005c6 0800 
         0005c8 10   
    1840 0005c9 7DFF          AND #0xffff, AC0, AC0 ; |913| 
         0005cb FF00 
    1841 0005cd C00C          MOV AC0, *SP(#6) ; |913| 
    1842 0005cf       $C$L30:    
    1843                      .dwpsn  file "F:/eZdsp-DBG-sim/tmp1/c55x-sim2/foo/c5535_bsl_revc/ezdsp5535_v1/c55xx_csl/inc/csl_mscAu
    1844 0005cf ED00          MOV dbl(*SP(#0)), XAR3
         0005d1 BF   
    1845 0005d2 DF0C          MOV uns(*SP(#6)), AC0 ; |918| 
         0005d4 05   
    1846 0005d5 ED6D          SUB AC0, dbl(*AR3(#16)), AC0 ; |918| 
         0005d7 0400 
         0005d9 10   
    1847 0005da EB6D          MOV AC0, dbl(*AR3(#16)) ; |918| 
         0005dc 0800 
         0005de 10   
    1848                      .dwpsn  file "F:/eZdsp-DBG-sim/tmp1/c55x-sim2/foo/c5535_bsl_revc/ezdsp5535_v1/c55xx_csl/inc/csl_mscAu
    1849 0005df ED00          MOV dbl(*SP(#0)), XAR3
         0005e1 BF   
    1850 0005e2 ED6D          MOV dbl(*AR3(#16)), AC0 ; |919| 
         0005e4 0800 
TMS320C55x Assembler PC v4.4.1 Tue Oct 02 02:33:20 2018

Tools Copyright (c) 1996-2012 Texas Instruments Incorporated
csl_msc.asm                                                          PAGE   42

         0005e6 10   
    1851 0005e7 1810          AND #0x0010, AC0, AC0 ; |919| 
         0005e9 00   
    1852 0005ea C06D          MOV AC0, *AR3(#287) ; |919| 
         0005ec 011F 
    1853                      .dwpsn  file "F:/eZdsp-DBG-sim/tmp1/c55x-sim2/foo/c5535_bsl_revc/ezdsp5535_v1/c55xx_csl/inc/csl_mscAu
    1854 0005ee ED00          MOV dbl(*SP(#0)), XAR3
         0005f0 BF   
    1855 0005f1 ED6D          MOV dbl(*AR3(#16)), AC0 ; |921| 
         0005f3 0800 
         0005f5 10   
    1856 0005f6 BC6D          MOV HI(AC0), *AR3(#288) ; |921| 
         0005f8 0120 
    1857                      .dwpsn  file "F:/eZdsp-DBG-sim/tmp1/c55x-sim2/foo/c5535_bsl_revc/ezdsp5535_v1/c55xx_csl/inc/csl_mscAu
    1858 0005fa ED00          MOV dbl(*SP(#0)), XAR3
         0005fc BF   
    1859 0005fd E66D          MOV #0, *AR3(#289) ; |923| 
         0005ff 0001 
         000601 21   
    1860                      .dwpsn  file "F:/eZdsp-DBG-sim/tmp1/c55x-sim2/foo/c5535_bsl_revc/ezdsp5535_v1/c55xx_csl/inc/csl_mscAu
    1861 000602 ED00          MOV dbl(*SP(#0)), XAR1
         000604 9F   
    1862 000605 ED04          MOV dbl(*SP(#2)), XAR0
         000607 8F   
    1863 000608 A40C          MOV *SP(#6), T0 ; |924| 
    1864 00060a B42F          AMAR *+AR1(#267) ; |924| 
         00060c 010B 
    1865              $C$DW$180       .dwtag  DW_TAG_TI_branch
    1866                      .dwattr $C$DW$180, DW_AT_low_pc(0x00)
    1867                      .dwattr $C$DW$180, DW_AT_name("_USB_postTransaction")
    1868                      .dwattr $C$DW$180, DW_AT_TI_call
    1869              
    1870 00060e 6C00          CALL #_USB_postTransaction ; |924| 
         000610 0000!
    1871 000612 3D15  ||      MOV #1, T1
    1872              
    1873                                                      ; call occurs [#_USB_postTransaction] ; |924| 
    1874 000614 C408          MOV T0, *SP(#4) ; |924| 
    1875                      .dwpsn  file "F:/eZdsp-DBG-sim/tmp1/c55x-sim2/foo/c5535_bsl_revc/ezdsp5535_v1/c55xx_csl/inc/csl_mscAu
    1876 000616 4A08          B $C$L32  ; |927| 
    1877                                                      ; branch occurs ; |927| 
    1878 000618       $C$L31:    
    1879                      .dwpsn  file "F:/eZdsp-DBG-sim/tmp1/c55x-sim2/foo/c5535_bsl_revc/ezdsp5535_v1/c55xx_csl/inc/csl_mscAu
    1880 000618 ED04          MOV dbl(*SP(#2)), XAR1
         00061a 9F   
    1881              $C$DW$181       .dwtag  DW_TAG_TI_branch
    1882                      .dwattr $C$DW$181, DW_AT_low_pc(0x00)
    1883                      .dwattr $C$DW$181, DW_AT_name("_MSC_sendCswWithPhaseError")
    1884                      .dwattr $C$DW$181, DW_AT_TI_call
    1885 00061b 0826          CALL #_MSC_sendCswWithPhaseError ; |930| 
         00061d 9A   
    1886                                                      ; call occurs [#_MSC_sendCswWithPhaseError] ; |930| 
    1887 00061e C408          MOV T0, *SP(#4) ; |930| 
    1888 000620       $C$L32:    
    1889                      .dwpsn  file "F:/eZdsp-DBG-sim/tmp1/c55x-sim2/foo/c5535_bsl_revc/ezdsp5535_v1/c55xx_csl/inc/csl_mscAu
TMS320C55x Assembler PC v4.4.1 Tue Oct 02 02:33:20 2018

Tools Copyright (c) 1996-2012 Texas Instruments Incorporated
csl_msc.asm                                                          PAGE   43

    1890 000620       $C$L33:    
    1891                      .dwpsn  file "F:/eZdsp-DBG-sim/tmp1/c55x-sim2/foo/c5535_bsl_revc/ezdsp5535_v1/c55xx_csl/inc/csl_mscAu
    1892 000620 4E07          AADD #7, SP
    1893                      .dwcfi  cfa_offset, 1
    1894              $C$DW$182       .dwtag  DW_TAG_TI_branch
    1895                      .dwattr $C$DW$182, DW_AT_low_pc(0x00)
    1896                      .dwattr $C$DW$182, DW_AT_TI_return
    1897 000622 4804          RET
    1898                                                      ; return occurs
    1899                      .dwattr $C$DW$171, DW_AT_TI_end_file("F:/eZdsp-DBG-sim/tmp1/c55x-sim2/foo/c5535_bsl_revc/ezdsp5535_v1
    1900                      .dwattr $C$DW$171, DW_AT_TI_end_line(0x3a6)
    1901                      .dwattr $C$DW$171, DW_AT_TI_end_column(0x01)
    1902                      .dwendentry
    1903                      .dwendtag $C$DW$171
    1904              
    1905 000624               .sect   ".text"
    1906                      .align 4
    1907              
    1908              $C$DW$183       .dwtag  DW_TAG_subprogram, DW_AT_name("MSC_HandleVerify10")
    1909                      .dwattr $C$DW$183, DW_AT_low_pc(_MSC_HandleVerify10)
    1910                      .dwattr $C$DW$183, DW_AT_high_pc(0x00)
    1911                      .dwattr $C$DW$183, DW_AT_TI_symbol_name("_MSC_HandleVerify10")
    1912                      .dwattr $C$DW$183, DW_AT_type(*$C$DW$T$89)
    1913                      .dwattr $C$DW$183, DW_AT_TI_begin_file("F:/eZdsp-DBG-sim/tmp1/c55x-sim2/foo/c5535_bsl_revc/ezdsp5535_
    1914                      .dwattr $C$DW$183, DW_AT_TI_begin_line(0x3d6)
    1915                      .dwattr $C$DW$183, DW_AT_TI_begin_column(0x0c)
    1916                      .dwattr $C$DW$183, DW_AT_TI_max_frame_size(0x08)
    1917                      .dwpsn  file "F:/eZdsp-DBG-sim/tmp1/c55x-sim2/foo/c5535_bsl_revc/ezdsp5535_v1/c55xx_csl/inc/csl_mscAu
    1918              
    1919                      .dwfde $C$DW$CIE, _MSC_HandleVerify10
    1920              $C$DW$184       .dwtag  DW_TAG_formal_parameter, DW_AT_name("pMscHandle")
    1921                      .dwattr $C$DW$184, DW_AT_TI_symbol_name("_pMscHandle")
    1922                      .dwattr $C$DW$184, DW_AT_type(*$C$DW$T$107)
    1923                      .dwattr $C$DW$184, DW_AT_location[DW_OP_reg17]
    1924              $C$DW$185       .dwtag  DW_TAG_formal_parameter, DW_AT_name("hUsbInEp")
    1925                      .dwattr $C$DW$185, DW_AT_TI_symbol_name("_hUsbInEp")
    1926                      .dwattr $C$DW$185, DW_AT_type(*$C$DW$T$27)
    1927                      .dwattr $C$DW$185, DW_AT_location[DW_OP_reg19]
    1928              $C$DW$186       .dwtag  DW_TAG_formal_parameter, DW_AT_name("logicalUnit")
    1929                      .dwattr $C$DW$186, DW_AT_TI_symbol_name("_logicalUnit")
    1930                      .dwattr $C$DW$186, DW_AT_type(*$C$DW$T$25)
    1931                      .dwattr $C$DW$186, DW_AT_location[DW_OP_reg12]
    1932              ;*******************************************************************************
    1933              ;* FUNCTION NAME: MSC_HandleVerify10                                           *
    1934              ;*                                                                             *
    1935              ;*   Function Uses Regs : AC0,AC0,AC1,AC1,T0,T1,AR0,XAR0,AR1,XAR1,AR2,XAR2,AR3,*
    1936              ;*                        XAR3,SP,CARRY,M40,SATA,SATD,RDM,FRCT,SMUL            *
    1937              ;*   Stack Frame        : Compact (No Frame Pointer, w/ debug)                 *
    1938              ;*   Total Frame Size   : 8 words                                              *
    1939              ;*                        (1 return address/alignment)                         *
    1940              ;*                        (7 local values)                                     *
    1941              ;*   Min System Stack   : 1 word                                               *
    1942              ;*******************************************************************************
    1943 000624       _MSC_HandleVerify10:
    1944                      .dwcfi  cfa_offset, 1
TMS320C55x Assembler PC v4.4.1 Tue Oct 02 02:33:20 2018

Tools Copyright (c) 1996-2012 Texas Instruments Incorporated
csl_msc.asm                                                          PAGE   44

    1945                      .dwcfi  save_reg_to_mem, 91, -1
    1946 000624 4EF9          AADD #-7, SP
    1947                      .dwcfi  cfa_offset, 8
    1948              $C$DW$187       .dwtag  DW_TAG_variable, DW_AT_name("pMscHandle")
    1949                      .dwattr $C$DW$187, DW_AT_TI_symbol_name("_pMscHandle")
    1950                      .dwattr $C$DW$187, DW_AT_type(*$C$DW$T$107)
    1951                      .dwattr $C$DW$187, DW_AT_location[DW_OP_bregx 0x24 0]
    1952              $C$DW$188       .dwtag  DW_TAG_variable, DW_AT_name("hUsbInEp")
    1953                      .dwattr $C$DW$188, DW_AT_TI_symbol_name("_hUsbInEp")
    1954                      .dwattr $C$DW$188, DW_AT_type(*$C$DW$T$27)
    1955                      .dwattr $C$DW$188, DW_AT_location[DW_OP_bregx 0x24 2]
    1956              $C$DW$189       .dwtag  DW_TAG_variable, DW_AT_name("logicalUnit")
    1957                      .dwattr $C$DW$189, DW_AT_TI_symbol_name("_logicalUnit")
    1958                      .dwattr $C$DW$189, DW_AT_type(*$C$DW$T$25)
    1959                      .dwattr $C$DW$189, DW_AT_location[DW_OP_bregx 0x24 4]
    1960              $C$DW$190       .dwtag  DW_TAG_variable, DW_AT_name("status")
    1961                      .dwattr $C$DW$190, DW_AT_TI_symbol_name("_status")
    1962                      .dwattr $C$DW$190, DW_AT_type(*$C$DW$T$89)
    1963                      .dwattr $C$DW$190, DW_AT_location[DW_OP_bregx 0x24 5]
    1964              $C$DW$191       .dwtag  DW_TAG_variable, DW_AT_name("verifyLen")
    1965                      .dwattr $C$DW$191, DW_AT_TI_symbol_name("_verifyLen")
    1966                      .dwattr $C$DW$191, DW_AT_type(*$C$DW$T$25)
    1967                      .dwattr $C$DW$191, DW_AT_location[DW_OP_bregx 0x24 6]
    1968 000626 C408          MOV T0, *SP(#4) ; |985| 
    1969 000628 EB04          MOV XAR1, dbl(*SP(#2))
         00062a 95   
    1970 00062b EB00          MOV XAR0, dbl(*SP(#0))
         00062d 85   
    1971                      .dwpsn  file "F:/eZdsp-DBG-sim/tmp1/c55x-sim2/foo/c5535_bsl_revc/ezdsp5535_v1/c55xx_csl/inc/csl_mscAu
    1972 00062e ED00          MOV dbl(*SP(#0)), XAR3
         000630 BF   
    1973 000631 ED6D          MOV dbl(*AR3(#16)), AC0 ; |989| 
         000633 0800 
         000635 10   
    1974 000636 0400          BCC $C$L34,AC0 == #0 ; |989| 
         000638 42   
    1975                                                      ; branchcc occurs ; |989| 
    1976                      .dwpsn  file "F:/eZdsp-DBG-sim/tmp1/c55x-sim2/foo/c5535_bsl_revc/ezdsp5535_v1/c55xx_csl/inc/csl_mscAu
    1977 000639 E66D          MOV #2, *AR3(#355) ; |992| 
         00063b 0201 
         00063d 63   
    1978                      .dwpsn  file "F:/eZdsp-DBG-sim/tmp1/c55x-sim2/foo/c5535_bsl_revc/ezdsp5535_v1/c55xx_csl/inc/csl_mscAu
    1979 00063e ED00          MOV dbl(*SP(#0)), XAR0
         000640 8F   
    1980 000641 B40F          AMAR *+AR0(#334) ; |993| 
         000643 014E 
    1981              $C$DW$192       .dwtag  DW_TAG_TI_branch
    1982                      .dwattr $C$DW$192, DW_AT_low_pc(0x00)
    1983                      .dwattr $C$DW$192, DW_AT_name("_USB_stallEndpt")
    1984                      .dwattr $C$DW$192, DW_AT_TI_call
    1985 000645 6C00          CALL #_USB_stallEndpt ; |993| 
         000647 0000!
    1986                                                      ; call occurs [#_USB_stallEndpt] ; |993| 
    1987 000649 C40A          MOV T0, *SP(#5) ; |993| 
    1988                      .dwpsn  file "F:/eZdsp-DBG-sim/tmp1/c55x-sim2/foo/c5535_bsl_revc/ezdsp5535_v1/c55xx_csl/inc/csl_mscAu
TMS320C55x Assembler PC v4.4.1 Tue Oct 02 02:33:20 2018

Tools Copyright (c) 1996-2012 Texas Instruments Incorporated
csl_msc.asm                                                          PAGE   45

    1989 00064b ED00          MOV dbl(*SP(#0)), XAR0
         00064d 8F   
    1990 00064e B40F          AMAR *+AR0(#314) ; |994| 
         000650 013A 
    1991              $C$DW$193       .dwtag  DW_TAG_TI_branch
    1992                      .dwattr $C$DW$193, DW_AT_low_pc(0x00)
    1993                      .dwattr $C$DW$193, DW_AT_name("_USB_stallEndpt")
    1994                      .dwattr $C$DW$193, DW_AT_TI_call
    1995 000652 6C00          CALL #_USB_stallEndpt ; |994| 
         000654 0000!
    1996                                                      ; call occurs [#_USB_stallEndpt] ; |994| 
    1997 000656 C40A          MOV T0, *SP(#5) ; |994| 
    1998                      .dwpsn  file "F:/eZdsp-DBG-sim/tmp1/c55x-sim2/foo/c5535_bsl_revc/ezdsp5535_v1/c55xx_csl/inc/csl_mscAu
    1999 000658 ED00          MOV dbl(*SP(#0)), XAR0
         00065a 8F   
    2000 00065b ED00          MOV dbl(*SP(#0)), XAR3
         00065d BF   
    2001 00065e 7600          MOV #32, T1 ; |998| 
         000660 2058 
    2002 000662 B40F          AMAR *+AR0(#314) ; |998| 
         000664 013A 
    2003 000666 ED6D          MOV dbl(*AR3(#14)), XAR1
         000668 9F00 
         00066a 0E   
    2004              $C$DW$194       .dwtag  DW_TAG_TI_branch
    2005                      .dwattr $C$DW$194, DW_AT_low_pc(0x00)
    2006                      .dwattr $C$DW$194, DW_AT_name("_USB_postTransaction")
    2007                      .dwattr $C$DW$194, DW_AT_TI_call
    2008              
    2009 00066b 6C00          CALL #_USB_postTransaction ; |998| 
         00066d 0000!
    2010 00066f 3D04  ||      MOV #0, T0
    2011              
    2012                                                      ; call occurs [#_USB_postTransaction] ; |998| 
    2013 000671 DA0A          OR *SP(#5), T0, AR1 ; |998| 
         000673 94   
    2014 000674 C90A          MOV AR1, *SP(#5) ; |998| 
    2015                      .dwpsn  file "F:/eZdsp-DBG-sim/tmp1/c55x-sim2/foo/c5535_bsl_revc/ezdsp5535_v1/c55xx_csl/inc/csl_mscAu
    2016 000676 2294          MOV AR1, T0
    2017 000678 0600          B $C$L38  ; |1003| 
         00067a 6E   
    2018                                                      ; branch occurs ; |1003| 
    2019 00067b       $C$L34:    
    2020                      .dwpsn  file "F:/eZdsp-DBG-sim/tmp1/c55x-sim2/foo/c5535_bsl_revc/ezdsp5535_v1/c55xx_csl/inc/csl_mscAu
    2021 00067b A96D          MOV *AR3(#308), AR1 ; |1006| 
         00067d 0134 
    2022 00067f A16D          MOV *AR3(#308), AC1 ; |1006| 
         000681 0134 
    2023 000683 7DFF          AND #0xff00, AR1, AC0 ; |1006| 
         000685 0009 
    2024 000687 76FF          BFXTR #0xff00, AC0, AC0 ; |1006| 
         000689 0000 
    2025 00068b 1011          OR AC1 << #8, AC0 ; |1006| 
         00068d 08   
    2026 00068e C00C          MOV AC0, *SP(#6) ; |1006| 
TMS320C55x Assembler PC v4.4.1 Tue Oct 02 02:33:20 2018

Tools Copyright (c) 1996-2012 Texas Instruments Incorporated
csl_msc.asm                                                          PAGE   46

    2027                      .dwpsn  file "F:/eZdsp-DBG-sim/tmp1/c55x-sim2/foo/c5535_bsl_revc/ezdsp5535_v1/c55xx_csl/inc/csl_mscAu
    2028 000690 ED00          MOV dbl(*SP(#0)), XAR3
         000692 BF   
    2029 000693 DF08          MOV uns(*SP(#4)), AC1 ; |1010| 
         000695 15   
    2030 000696 1015          SFTS AC1, #6, AC0 ; |1010| 
         000698 06   
    2031 000699 1014          SUB AC1 << #1, AC0 ; |1010| 
         00069b 01   
    2032 00069c 900A          MOV AC0, XAR2
    2033 00069e 14A1          AADD XAR2, XAR3 ; |1010| 
         0006a0 B0   
    2034 0006a1 A96D          MOV *AR3(#78), AR1 ; |1010| 
         0006a3 004E 
    2035 0006a5 6209          BCC $C$L35,AR1 == #0 ; |1010| 
    2036                                                      ; branchcc occurs ; |1010| 
    2037 0006a7 A90C          MOV *SP(#6), AR1 ; |1010| 
    2038 0006a9 6519          BCC $C$L36,AR1 != #0 ; |1010| 
    2039                                                      ; branchcc occurs ; |1010| 
    2040 0006ab       $C$L35:    
    2041                      .dwpsn  file "F:/eZdsp-DBG-sim/tmp1/c55x-sim2/foo/c5535_bsl_revc/ezdsp5535_v1/c55xx_csl/inc/csl_mscAu
    2042 0006ab ED00          MOV dbl(*SP(#0)), XAR3
         0006ad BF   
    2043 0006ae E66D          MOV #0, *AR3(#289) ; |1013| 
         0006b0 0001 
         0006b2 21   
    2044                      .dwpsn  file "F:/eZdsp-DBG-sim/tmp1/c55x-sim2/foo/c5535_bsl_revc/ezdsp5535_v1/c55xx_csl/inc/csl_mscAu
    2045 0006b3 4A18          B $C$L37  ; |1014| 
    2046                                                      ; branch occurs ; |1014| 
    2047 0006b5       $C$L36:    
    2048                      .dwpsn  file "F:/eZdsp-DBG-sim/tmp1/c55x-sim2/foo/c5535_bsl_revc/ezdsp5535_v1/c55xx_csl/inc/csl_mscAu
    2049 0006b5 ED00          MOV dbl(*SP(#0)), XAR3
         0006b7 BF   
    2050 0006b8 E66D          MOV #1, *AR3(#289) ; |1017| 
         0006ba 0101 
         0006bc 21   
    2051                      .dwpsn  file "F:/eZdsp-DBG-sim/tmp1/c55x-sim2/foo/c5535_bsl_revc/ezdsp5535_v1/c55xx_csl/inc/csl_mscAu
    2052 0006bd ED00          MOV dbl(*SP(#0)), XAR0
         0006bf 8F   
    2053 0006c0 7600          MOV #29, T1 ; |1018| 
         0006c2 1D58 
    2054 0006c4 B40F          AMAR *+AR0(#266) ; |1018| 
         0006c6 010A 
    2055              $C$DW$195       .dwtag  DW_TAG_TI_branch
    2056                      .dwattr $C$DW$195, DW_AT_low_pc(0x00)
    2057                      .dwattr $C$DW$195, DW_AT_name("_MSC_SetSenseKeys")
    2058                      .dwattr $C$DW$195, DW_AT_TI_call
    2059              
    2060 0006c8 08F9          CALL #_MSC_SetSenseKeys ; |1018| 
         0006ca 33   
    2061 0006cb 3DE4  ||      MOV #14, T0
    2062              
    2063                                                      ; call occurs [#_MSC_SetSenseKeys] ; |1018| 
    2064 0006cd       $C$L37:    
    2065                      .dwpsn  file "F:/eZdsp-DBG-sim/tmp1/c55x-sim2/foo/c5535_bsl_revc/ezdsp5535_v1/c55xx_csl/inc/csl_mscAu
TMS320C55x Assembler PC v4.4.1 Tue Oct 02 02:33:20 2018

Tools Copyright (c) 1996-2012 Texas Instruments Incorporated
csl_msc.asm                                                          PAGE   47

    2066 0006cd ED00          MOV dbl(*SP(#0)), XAR3
         0006cf BF   
    2067 0006d0 E66D          MOV #4, *AR3(#355) ; |1023| 
         0006d2 0401 
         0006d4 63   
    2068                      .dwpsn  file "F:/eZdsp-DBG-sim/tmp1/c55x-sim2/foo/c5535_bsl_revc/ezdsp5535_v1/c55xx_csl/inc/csl_mscAu
    2069 0006d5 ED00          MOV dbl(*SP(#0)), XAR1
         0006d7 9F   
    2070 0006d8 3CD4          MOV #13, T0
    2071 0006da ED04          MOV dbl(*SP(#2)), XAR0
         0006dc 8F   
    2072 0006dd B42F          AMAR *+AR1(#282) ; |1024| 
         0006df 011A 
    2073              $C$DW$196       .dwtag  DW_TAG_TI_branch
    2074                      .dwattr $C$DW$196, DW_AT_low_pc(0x00)
    2075                      .dwattr $C$DW$196, DW_AT_name("_USB_postTransaction")
    2076                      .dwattr $C$DW$196, DW_AT_TI_call
    2077              
    2078 0006e1 6C00          CALL #_USB_postTransaction ; |1024| 
         0006e3 0000!
    2079 0006e5 3D15  ||      MOV #1, T1
    2080              
    2081                                                      ; call occurs [#_USB_postTransaction] ; |1024| 
    2082 0006e7 C40A          MOV T0, *SP(#5) ; |1024| 
    2083                      .dwpsn  file "F:/eZdsp-DBG-sim/tmp1/c55x-sim2/foo/c5535_bsl_revc/ezdsp5535_v1/c55xx_csl/inc/csl_mscAu
    2084 0006e9       $C$L38:    
    2085                      .dwpsn  file "F:/eZdsp-DBG-sim/tmp1/c55x-sim2/foo/c5535_bsl_revc/ezdsp5535_v1/c55xx_csl/inc/csl_mscAu
    2086 0006e9 4E07          AADD #7, SP
    2087                      .dwcfi  cfa_offset, 1
    2088              $C$DW$197       .dwtag  DW_TAG_TI_branch
    2089                      .dwattr $C$DW$197, DW_AT_low_pc(0x00)
    2090                      .dwattr $C$DW$197, DW_AT_TI_return
    2091 0006eb 4804          RET
    2092                                                      ; return occurs
    2093                      .dwattr $C$DW$183, DW_AT_TI_end_file("F:/eZdsp-DBG-sim/tmp1/c55x-sim2/foo/c5535_bsl_revc/ezdsp5535_v1
    2094                      .dwattr $C$DW$183, DW_AT_TI_end_line(0x404)
    2095                      .dwattr $C$DW$183, DW_AT_TI_end_column(0x01)
    2096                      .dwendentry
    2097                      .dwendtag $C$DW$183
    2098              
    2099 0006ed               .sect   ".text"
    2100                      .align 4
    2101              
    2102              $C$DW$198       .dwtag  DW_TAG_subprogram, DW_AT_name("MSC_reqUnknown")
    2103                      .dwattr $C$DW$198, DW_AT_low_pc(_MSC_reqUnknown)
    2104                      .dwattr $C$DW$198, DW_AT_high_pc(0x00)
    2105                      .dwattr $C$DW$198, DW_AT_TI_symbol_name("_MSC_reqUnknown")
    2106                      .dwattr $C$DW$198, DW_AT_type(*$C$DW$T$42)
    2107                      .dwattr $C$DW$198, DW_AT_TI_begin_file("F:/eZdsp-DBG-sim/tmp1/c55x-sim2/foo/c5535_bsl_revc/ezdsp5535_
    2108                      .dwattr $C$DW$198, DW_AT_TI_begin_line(0x43d)
    2109                      .dwattr $C$DW$198, DW_AT_TI_begin_column(0x13)
    2110                      .dwattr $C$DW$198, DW_AT_TI_max_frame_size(0x0c)
    2111                      .dwpsn  file "F:/eZdsp-DBG-sim/tmp1/c55x-sim2/foo/c5535_bsl_revc/ezdsp5535_v1/c55xx_csl/inc/csl_mscAu
    2112              
    2113                      .dwfde $C$DW$CIE, _MSC_reqUnknown
TMS320C55x Assembler PC v4.4.1 Tue Oct 02 02:33:20 2018

Tools Copyright (c) 1996-2012 Texas Instruments Incorporated
csl_msc.asm                                                          PAGE   48

    2114              $C$DW$199       .dwtag  DW_TAG_formal_parameter, DW_AT_name("devNum")
    2115                      .dwattr $C$DW$199, DW_AT_TI_symbol_name("_devNum")
    2116                      .dwattr $C$DW$199, DW_AT_type(*$C$DW$T$24)
    2117                      .dwattr $C$DW$199, DW_AT_location[DW_OP_reg12]
    2118              $C$DW$200       .dwtag  DW_TAG_formal_parameter, DW_AT_name("usbSetup")
    2119                      .dwattr $C$DW$200, DW_AT_TI_symbol_name("_usbSetup")
    2120                      .dwattr $C$DW$200, DW_AT_type(*$C$DW$T$43)
    2121                      .dwattr $C$DW$200, DW_AT_location[DW_OP_reg17]
    2122              $C$DW$201       .dwtag  DW_TAG_formal_parameter, DW_AT_name("hInEp")
    2123                      .dwattr $C$DW$201, DW_AT_TI_symbol_name("_hInEp")
    2124                      .dwattr $C$DW$201, DW_AT_type(*$C$DW$T$27)
    2125                      .dwattr $C$DW$201, DW_AT_location[DW_OP_reg19]
    2126              $C$DW$202       .dwtag  DW_TAG_formal_parameter, DW_AT_name("hOutEp")
    2127                      .dwattr $C$DW$202, DW_AT_TI_symbol_name("_hOutEp")
    2128                      .dwattr $C$DW$202, DW_AT_type(*$C$DW$T$27)
    2129                      .dwattr $C$DW$202, DW_AT_location[DW_OP_reg21]
    2130              $C$DW$203       .dwtag  DW_TAG_formal_parameter, DW_AT_name("pMsc")
    2131                      .dwattr $C$DW$203, DW_AT_TI_symbol_name("_pMsc")
    2132                      .dwattr $C$DW$203, DW_AT_type(*$C$DW$T$3)
    2133                      .dwattr $C$DW$203, DW_AT_location[DW_OP_reg23]
    2134              ;*******************************************************************************
    2135              ;* FUNCTION NAME: MSC_reqUnknown                                               *
    2136              ;*                                                                             *
    2137              ;*   Function Uses Regs : T0,AR0,XAR0,AR1,XAR1,AR2,XAR2,AR3,XAR3,SP,M40,SATA,  *
    2138              ;*                        SATD,RDM,FRCT,SMUL                                   *
    2139              ;*   Stack Frame        : Compact (No Frame Pointer, w/ debug)                 *
    2140              ;*   Total Frame Size   : 12 words                                             *
    2141              ;*                        (1 return address/alignment)                         *
    2142              ;*                        (11 local values)                                    *
    2143              ;*   Min System Stack   : 1 word                                               *
    2144              ;*******************************************************************************
    2145 0006f0       _MSC_reqUnknown:
    2146                      .dwcfi  cfa_offset, 1
    2147                      .dwcfi  save_reg_to_mem, 91, -1
    2148 0006f0 4EF5          AADD #-11, SP
    2149                      .dwcfi  cfa_offset, 12
    2150              $C$DW$204       .dwtag  DW_TAG_variable, DW_AT_name("devNum")
    2151                      .dwattr $C$DW$204, DW_AT_TI_symbol_name("_devNum")
    2152                      .dwattr $C$DW$204, DW_AT_type(*$C$DW$T$24)
    2153                      .dwattr $C$DW$204, DW_AT_location[DW_OP_bregx 0x24 0]
    2154              $C$DW$205       .dwtag  DW_TAG_variable, DW_AT_name("usbSetup")
    2155                      .dwattr $C$DW$205, DW_AT_TI_symbol_name("_usbSetup")
    2156                      .dwattr $C$DW$205, DW_AT_type(*$C$DW$T$43)
    2157                      .dwattr $C$DW$205, DW_AT_location[DW_OP_bregx 0x24 2]
    2158              $C$DW$206       .dwtag  DW_TAG_variable, DW_AT_name("hInEp")
    2159                      .dwattr $C$DW$206, DW_AT_TI_symbol_name("_hInEp")
    2160                      .dwattr $C$DW$206, DW_AT_type(*$C$DW$T$27)
    2161                      .dwattr $C$DW$206, DW_AT_location[DW_OP_bregx 0x24 4]
    2162              $C$DW$207       .dwtag  DW_TAG_variable, DW_AT_name("hOutEp")
    2163                      .dwattr $C$DW$207, DW_AT_TI_symbol_name("_hOutEp")
    2164                      .dwattr $C$DW$207, DW_AT_type(*$C$DW$T$27)
    2165                      .dwattr $C$DW$207, DW_AT_location[DW_OP_bregx 0x24 6]
    2166              $C$DW$208       .dwtag  DW_TAG_variable, DW_AT_name("pMsc")
    2167                      .dwattr $C$DW$208, DW_AT_TI_symbol_name("_pMsc")
    2168                      .dwattr $C$DW$208, DW_AT_type(*$C$DW$T$3)
TMS320C55x Assembler PC v4.4.1 Tue Oct 02 02:33:20 2018

Tools Copyright (c) 1996-2012 Texas Instruments Incorporated
csl_msc.asm                                                          PAGE   49

    2169                      .dwattr $C$DW$208, DW_AT_location[DW_OP_bregx 0x24 8]
    2170              $C$DW$209       .dwtag  DW_TAG_variable, DW_AT_name("retStat")
    2171                      .dwattr $C$DW$209, DW_AT_TI_symbol_name("_retStat")
    2172                      .dwattr $C$DW$209, DW_AT_type(*$C$DW$T$42)
    2173                      .dwattr $C$DW$209, DW_AT_location[DW_OP_bregx 0x24 10]
    2174 0006f2 EB10          MOV XAR3, dbl(*SP(#8))
         0006f4 B5   
    2175 0006f5 EB0C          MOV XAR2, dbl(*SP(#6))
         0006f7 A5   
    2176 0006f8 EB08          MOV XAR1, dbl(*SP(#4))
         0006fa 95   
    2177 0006fb EB04          MOV XAR0, dbl(*SP(#2))
         0006fd 85   
    2178 0006fe C400          MOV T0, *SP(#0) ; |1090| 
    2179                      .dwpsn  file "F:/eZdsp-DBG-sim/tmp1/c55x-sim2/foo/c5535_bsl_revc/ezdsp5535_v1/c55xx_csl/inc/csl_mscAu
    2180 000700 E614          MOV #1, *SP(#10) ; |1094| 
         000702 01   
    2181                      .dwpsn  file "F:/eZdsp-DBG-sim/tmp1/c55x-sim2/foo/c5535_bsl_revc/ezdsp5535_v1/c55xx_csl/inc/csl_mscAu
    2182 000703 A414          MOV *SP(#10), T0 ; |1096| 
    2183                      .dwpsn  file "F:/eZdsp-DBG-sim/tmp1/c55x-sim2/foo/c5535_bsl_revc/ezdsp5535_v1/c55xx_csl/inc/csl_mscAu
    2184 000705 4E0B          AADD #11, SP
    2185                      .dwcfi  cfa_offset, 1
    2186              $C$DW$210       .dwtag  DW_TAG_TI_branch
    2187                      .dwattr $C$DW$210, DW_AT_low_pc(0x00)
    2188                      .dwattr $C$DW$210, DW_AT_TI_return
    2189 000707 4804          RET
    2190                                                      ; return occurs
    2191                      .dwattr $C$DW$198, DW_AT_TI_end_file("F:/eZdsp-DBG-sim/tmp1/c55x-sim2/foo/c5535_bsl_revc/ezdsp5535_v1
    2192                      .dwattr $C$DW$198, DW_AT_TI_end_line(0x449)
    2193                      .dwattr $C$DW$198, DW_AT_TI_end_column(0x01)
    2194                      .dwendentry
    2195                      .dwendtag $C$DW$198
    2196              
    2197 000709               .sect   ".text"
    2198                      .align 4
    2199              
    2200              $C$DW$211       .dwtag  DW_TAG_subprogram, DW_AT_name("MSC_lookupReqHandler")
    2201                      .dwattr $C$DW$211, DW_AT_low_pc(_MSC_lookupReqHandler)
    2202                      .dwattr $C$DW$211, DW_AT_high_pc(0x00)
    2203                      .dwattr $C$DW$211, DW_AT_TI_symbol_name("_MSC_lookupReqHandler")
    2204                      .dwattr $C$DW$211, DW_AT_type(*$C$DW$T$93)
    2205                      .dwattr $C$DW$211, DW_AT_TI_begin_file("F:/eZdsp-DBG-sim/tmp1/c55x-sim2/foo/c5535_bsl_revc/ezdsp5535_
    2206                      .dwattr $C$DW$211, DW_AT_TI_begin_line(0x47e)
    2207                      .dwattr $C$DW$211, DW_AT_TI_begin_column(0x13)
    2208                      .dwattr $C$DW$211, DW_AT_TI_max_frame_size(0x06)
    2209                      .dwpsn  file "F:/eZdsp-DBG-sim/tmp1/c55x-sim2/foo/c5535_bsl_revc/ezdsp5535_v1/c55xx_csl/inc/csl_mscAu
    2210              
    2211                      .dwfde $C$DW$CIE, _MSC_lookupReqHandler
    2212              $C$DW$212       .dwtag  DW_TAG_formal_parameter, DW_AT_name("request")
    2213                      .dwattr $C$DW$212, DW_AT_TI_symbol_name("_request")
    2214                      .dwattr $C$DW$212, DW_AT_type(*$C$DW$T$25)
    2215                      .dwattr $C$DW$212, DW_AT_location[DW_OP_reg12]
    2216              $C$DW$213       .dwtag  DW_TAG_formal_parameter, DW_AT_name("pUSB_ReqTable")
    2217                      .dwattr $C$DW$213, DW_AT_TI_symbol_name("_pUSB_ReqTable")
    2218                      .dwattr $C$DW$213, DW_AT_type(*$C$DW$T$40)
TMS320C55x Assembler PC v4.4.1 Tue Oct 02 02:33:20 2018

Tools Copyright (c) 1996-2012 Texas Instruments Incorporated
csl_msc.asm                                                          PAGE   50

    2219                      .dwattr $C$DW$213, DW_AT_location[DW_OP_reg17]
    2220              ;*******************************************************************************
    2221              ;* FUNCTION NAME: MSC_lookupReqHandler                                         *
    2222              ;*                                                                             *
    2223              ;*   Function Uses Regs : AC0,AC0,T0,AR0,XAR0,AR1,AR2,XAR2,AR3,XAR3,SP,CARRY,  *
    2224              ;*                        TC1,M40,SATA,SATD,RDM,FRCT,SMUL                      *
    2225              ;*   Stack Frame        : Compact (No Frame Pointer, w/ debug)                 *
    2226              ;*   Total Frame Size   : 6 words                                              *
    2227              ;*                        (1 return address/alignment)                         *
    2228              ;*                        (5 local values)                                     *
    2229              ;*   Min System Stack   : 1 word                                               *
    2230              ;*******************************************************************************
    2231 00070c       _MSC_lookupReqHandler:
    2232                      .dwcfi  cfa_offset, 1
    2233                      .dwcfi  save_reg_to_mem, 91, -1
    2234 00070c 4EFB          AADD #-5, SP
    2235                      .dwcfi  cfa_offset, 6
    2236              $C$DW$214       .dwtag  DW_TAG_variable, DW_AT_name("request")
    2237                      .dwattr $C$DW$214, DW_AT_TI_symbol_name("_request")
    2238                      .dwattr $C$DW$214, DW_AT_type(*$C$DW$T$25)
    2239                      .dwattr $C$DW$214, DW_AT_location[DW_OP_bregx 0x24 0]
    2240              $C$DW$215       .dwtag  DW_TAG_variable, DW_AT_name("pUSB_ReqTable")
    2241                      .dwattr $C$DW$215, DW_AT_TI_symbol_name("_pUSB_ReqTable")
    2242                      .dwattr $C$DW$215, DW_AT_type(*$C$DW$T$40)
    2243                      .dwattr $C$DW$215, DW_AT_location[DW_OP_bregx 0x24 2]
    2244              $C$DW$216       .dwtag  DW_TAG_variable, DW_AT_name("index")
    2245                      .dwattr $C$DW$216, DW_AT_TI_symbol_name("_index")
    2246                      .dwattr $C$DW$216, DW_AT_type(*$C$DW$T$25)
    2247                      .dwattr $C$DW$216, DW_AT_location[DW_OP_bregx 0x24 4]
    2248 00070e EB04          MOV XAR0, dbl(*SP(#2))
         000710 85   
    2249 000711 C400          MOV T0, *SP(#0) ; |1152| 
    2250                      .dwpsn  file "F:/eZdsp-DBG-sim/tmp1/c55x-sim2/foo/c5535_bsl_revc/ezdsp5535_v1/c55xx_csl/inc/csl_mscAu
    2251 000713 E608          MOV #0, *SP(#4) ; |1156| 
         000715 00   
    2252                      .dwpsn  file "F:/eZdsp-DBG-sim/tmp1/c55x-sim2/foo/c5535_bsl_revc/ezdsp5535_v1/c55xx_csl/inc/csl_mscAu
    2253 000716 ED04          MOV dbl(*SP(#2)), XAR3
         000718 BF   
    2254 000719 DF08          MOV uns(*SP(#4)), AC0 ; |1156| 
         00071b 05   
    2255 00071c 1005          SFTS AC0, #2, AC0 ; |1156| 
         00071e 02   
    2256 00071f 900A          MOV AC0, XAR2
    2257 000721 14A1          AADD XAR2, XAR3 ; |1156| 
         000723 B0   
    2258 000724 ED75          MOV dbl(*AR3(short(#2))), AC0 ; |1156| 
         000726 08   
    2259 000727 0400          BCC $C$L41,AC0 == #0 ; |1156| 
         000729 43   
    2260                                                      ; branchcc occurs ; |1156| 
    2261 00072a       $C$L39:    
    2262 00072a       $C$DW$L$_MSC_lookupReqHandler$2$B:
    2263                      .dwpsn  file "F:/eZdsp-DBG-sim/tmp1/c55x-sim2/foo/c5535_bsl_revc/ezdsp5535_v1/c55xx_csl/inc/csl_mscAu
    2264 00072a ED04          MOV dbl(*SP(#2)), XAR3
         00072c BF   
TMS320C55x Assembler PC v4.4.1 Tue Oct 02 02:33:20 2018

Tools Copyright (c) 1996-2012 Texas Instruments Incorporated
csl_msc.asm                                                          PAGE   51

    2265 00072d DF08          MOV uns(*SP(#4)), AC0 ; |1159| 
         00072f 05   
    2266 000730 1005          SFTS AC0, #2, AC0 ; |1159| 
         000732 02   
    2267 000733 900A          MOV AC0, XAR2
    2268              
    2269                      AADD XAR2, XAR3 ; |1159| 
    2270 000735 8A00  ||      MOV *SP(#0), AR1 ; |1159| 
         000737 B918 
         000739 A1   
    2271              
    2272 00073a AA61          MOV *AR3, AR2 ; |1159| 
    2273 00073c 12AC          CMPU AR2 != AR1, TC1 ; |1159| 
         00073e 94   
    2274 00073f 0464          BCC $C$L40,TC1 ; |1159| 
         000741 13   
    2275                                                      ; branchcc occurs ; |1159| 
    2276 000742       $C$DW$L$_MSC_lookupReqHandler$2$E:
    2277                      .dwpsn  file "F:/eZdsp-DBG-sim/tmp1/c55x-sim2/foo/c5535_bsl_revc/ezdsp5535_v1/c55xx_csl/inc/csl_mscAu
    2278 000742 ED04          MOV dbl(*SP(#2)), XAR3
         000744 BF   
    2279 000745 DF08          MOV uns(*SP(#4)), AC0 ; |1161| 
         000747 05   
    2280 000748 1005          SFTS AC0, #2, AC0 ; |1161| 
         00074a 02   
    2281 00074b 900A          MOV AC0, XAR2
    2282 00074d 14A1          AADD XAR2, XAR3 ; |1161| 
         00074f B0   
    2283 000750 ED75          MOV dbl(*AR3(short(#2))), AC0 ; |1161| 
         000752 08   
    2284 000753 4A20          B $C$L42  ; |1161| 
    2285                                                      ; branch occurs ; |1161| 
    2286 000755       $C$L40:    
    2287 000755       $C$DW$L$_MSC_lookupReqHandler$4$B:
    2288                      .dwpsn  file "F:/eZdsp-DBG-sim/tmp1/c55x-sim2/foo/c5535_bsl_revc/ezdsp5535_v1/c55xx_csl/inc/csl_mscAu
    2289 000755 F708          ADD #1, *SP(#4) ; |1156| 
         000757 0001 
    2290                      .dwpsn  file "F:/eZdsp-DBG-sim/tmp1/c55x-sim2/foo/c5535_bsl_revc/ezdsp5535_v1/c55xx_csl/inc/csl_mscAu
    2291 000759 ED04          MOV dbl(*SP(#2)), XAR3
         00075b BF   
    2292 00075c DF08          MOV uns(*SP(#4)), AC0 ; |1156| 
         00075e 05   
    2293 00075f 1005          SFTS AC0, #2, AC0 ; |1156| 
         000761 02   
    2294 000762 900A          MOV AC0, XAR2
    2295 000764 14A1          AADD XAR2, XAR3 ; |1156| 
         000766 B0   
    2296 000767 ED75          MOV dbl(*AR3(short(#2))), AC0 ; |1156| 
         000769 08   
    2297 00076a 0410          BCC $C$L39,AC0 != #0 ; |1156| 
         00076c BD   
    2298                                                      ; branchcc occurs ; |1156| 
    2299 00076d       $C$DW$L$_MSC_lookupReqHandler$4$E:
    2300 00076d       $C$L41:    
    2301                      .dwpsn  file "F:/eZdsp-DBG-sim/tmp1/c55x-sim2/foo/c5535_bsl_revc/ezdsp5535_v1/c55xx_csl/inc/csl_mscAu
TMS320C55x Assembler PC v4.4.1 Tue Oct 02 02:33:20 2018

Tools Copyright (c) 1996-2012 Texas Instruments Incorporated
csl_msc.asm                                                          PAGE   52

    2302 00076d 7A00          MOV #(_MSC_reqUnknown >> 16) << #16, AC0 ; |1167| 
         00076f 000A%
    2303 000771 7E00          OR #(_MSC_reqUnknown & 0xffff), AC0, AC0 ; |1167| 
         000773 0000%
    2304 000775       $C$L42:    
    2305                      .dwpsn  file "F:/eZdsp-DBG-sim/tmp1/c55x-sim2/foo/c5535_bsl_revc/ezdsp5535_v1/c55xx_csl/inc/csl_mscAu
    2306 000775 4E05          AADD #5, SP
    2307                      .dwcfi  cfa_offset, 1
    2308              $C$DW$217       .dwtag  DW_TAG_TI_branch
    2309                      .dwattr $C$DW$217, DW_AT_low_pc(0x00)
    2310                      .dwattr $C$DW$217, DW_AT_TI_return
    2311 000777 4804          RET
    2312                                                      ; return occurs
    2313              
    2314              $C$DW$218       .dwtag  DW_TAG_TI_loop
    2315                      .dwattr $C$DW$218, DW_AT_name("F:\eZdsp-DBG-sim\tmp1\c55x-sim2\foo\Debug\csl_msc.asm:$C$L39:1:1538472
    2316                      .dwattr $C$DW$218, DW_AT_TI_begin_file("F:/eZdsp-DBG-sim/tmp1/c55x-sim2/foo/c5535_bsl_revc/ezdsp5535_
    2317                      .dwattr $C$DW$218, DW_AT_TI_begin_line(0x484)
    2318                      .dwattr $C$DW$218, DW_AT_TI_end_line(0x48b)
    2319              $C$DW$219       .dwtag  DW_TAG_TI_loop_range
    2320                      .dwattr $C$DW$219, DW_AT_low_pc($C$DW$L$_MSC_lookupReqHandler$2$B)
    2321                      .dwattr $C$DW$219, DW_AT_high_pc($C$DW$L$_MSC_lookupReqHandler$2$E)
    2322              $C$DW$220       .dwtag  DW_TAG_TI_loop_range
    2323                      .dwattr $C$DW$220, DW_AT_low_pc($C$DW$L$_MSC_lookupReqHandler$4$B)
    2324                      .dwattr $C$DW$220, DW_AT_high_pc($C$DW$L$_MSC_lookupReqHandler$4$E)
    2325                      .dwendtag $C$DW$218
    2326              
    2327                      .dwattr $C$DW$211, DW_AT_TI_end_file("F:/eZdsp-DBG-sim/tmp1/c55x-sim2/foo/c5535_bsl_revc/ezdsp5535_v1
    2328                      .dwattr $C$DW$211, DW_AT_TI_end_line(0x490)
    2329                      .dwattr $C$DW$211, DW_AT_TI_end_column(0x01)
    2330                      .dwendentry
    2331                      .dwendtag $C$DW$211
    2332              
    2333 000779               .sect   ".text"
    2334                      .align 4
    2335              
    2336              $C$DW$221       .dwtag  DW_TAG_subprogram, DW_AT_name("MSC_verifyCBW")
    2337                      .dwattr $C$DW$221, DW_AT_low_pc(_MSC_verifyCBW)
    2338                      .dwattr $C$DW$221, DW_AT_high_pc(0x00)
    2339                      .dwattr $C$DW$221, DW_AT_TI_symbol_name("_MSC_verifyCBW")
    2340                      .dwattr $C$DW$221, DW_AT_type(*$C$DW$T$89)
    2341                      .dwattr $C$DW$221, DW_AT_TI_begin_file("F:/eZdsp-DBG-sim/tmp1/c55x-sim2/foo/c5535_bsl_revc/ezdsp5535_
    2342                      .dwattr $C$DW$221, DW_AT_TI_begin_line(0x7ca)
    2343                      .dwattr $C$DW$221, DW_AT_TI_begin_column(0x0d)
    2344                      .dwattr $C$DW$221, DW_AT_TI_max_frame_size(0x0c)
    2345                      .dwpsn  file "F:/eZdsp-DBG-sim/tmp1/c55x-sim2/foo/c5535_bsl_revc/ezdsp5535_v1/c55xx_csl/inc/csl_mscAu
    2346              
    2347                      .dwfde $C$DW$CIE, _MSC_verifyCBW
    2348              $C$DW$222       .dwtag  DW_TAG_formal_parameter, DW_AT_name("pMscHandle")
    2349                      .dwattr $C$DW$222, DW_AT_TI_symbol_name("_pMscHandle")
    2350                      .dwattr $C$DW$222, DW_AT_type(*$C$DW$T$107)
    2351                      .dwattr $C$DW$222, DW_AT_location[DW_OP_reg17]
    2352              $C$DW$223       .dwtag  DW_TAG_formal_parameter, DW_AT_name("hUsbOutEp")
    2353                      .dwattr $C$DW$223, DW_AT_TI_symbol_name("_hUsbOutEp")
    2354                      .dwattr $C$DW$223, DW_AT_type(*$C$DW$T$27)
TMS320C55x Assembler PC v4.4.1 Tue Oct 02 02:33:20 2018

Tools Copyright (c) 1996-2012 Texas Instruments Incorporated
csl_msc.asm                                                          PAGE   53

    2355                      .dwattr $C$DW$223, DW_AT_location[DW_OP_reg19]
    2356              $C$DW$224       .dwtag  DW_TAG_formal_parameter, DW_AT_name("hUsbInEp")
    2357                      .dwattr $C$DW$224, DW_AT_TI_symbol_name("_hUsbInEp")
    2358                      .dwattr $C$DW$224, DW_AT_type(*$C$DW$T$27)
    2359                      .dwattr $C$DW$224, DW_AT_location[DW_OP_reg21]
    2360              ;*******************************************************************************
    2361              ;* FUNCTION NAME: MSC_verifyCBW                                                *
    2362              ;*                                                                             *
    2363              ;*   Function Uses Regs : AC0,AC0,AC1,AC1,T0,AR0,XAR0,AR1,XAR1,AR2,XAR2,AR3,   *
    2364              ;*                        XAR3,SP,TC1,M40,SATA,SATD,RDM,FRCT,SMUL              *
    2365              ;*   Stack Frame        : Compact (No Frame Pointer, w/ debug)                 *
    2366              ;*   Total Frame Size   : 12 words                                             *
    2367              ;*                        (1 return address/alignment)                         *
    2368              ;*                        (11 local values)                                    *
    2369              ;*   Min System Stack   : 1 word                                               *
    2370              ;*******************************************************************************
    2371 00077c       _MSC_verifyCBW:
    2372                      .dwcfi  cfa_offset, 1
    2373                      .dwcfi  save_reg_to_mem, 91, -1
    2374 00077c 4EF5          AADD #-11, SP
    2375                      .dwcfi  cfa_offset, 12
    2376              $C$DW$225       .dwtag  DW_TAG_variable, DW_AT_name("pMscHandle")
    2377                      .dwattr $C$DW$225, DW_AT_TI_symbol_name("_pMscHandle")
    2378                      .dwattr $C$DW$225, DW_AT_type(*$C$DW$T$107)
    2379                      .dwattr $C$DW$225, DW_AT_location[DW_OP_bregx 0x24 0]
    2380              $C$DW$226       .dwtag  DW_TAG_variable, DW_AT_name("hUsbOutEp")
    2381                      .dwattr $C$DW$226, DW_AT_TI_symbol_name("_hUsbOutEp")
    2382                      .dwattr $C$DW$226, DW_AT_type(*$C$DW$T$27)
    2383                      .dwattr $C$DW$226, DW_AT_location[DW_OP_bregx 0x24 2]
    2384              $C$DW$227       .dwtag  DW_TAG_variable, DW_AT_name("hUsbInEp")
    2385                      .dwattr $C$DW$227, DW_AT_TI_symbol_name("_hUsbInEp")
    2386                      .dwattr $C$DW$227, DW_AT_type(*$C$DW$T$27)
    2387                      .dwattr $C$DW$227, DW_AT_location[DW_OP_bregx 0x24 4]
    2388              $C$DW$228       .dwtag  DW_TAG_variable, DW_AT_name("cbwSignature")
    2389                      .dwattr $C$DW$228, DW_AT_TI_symbol_name("_cbwSignature")
    2390                      .dwattr $C$DW$228, DW_AT_type(*$C$DW$T$53)
    2391                      .dwattr $C$DW$228, DW_AT_location[DW_OP_bregx 0x24 6]
    2392              $C$DW$229       .dwtag  DW_TAG_variable, DW_AT_name("status")
    2393                      .dwattr $C$DW$229, DW_AT_TI_symbol_name("_status")
    2394                      .dwattr $C$DW$229, DW_AT_type(*$C$DW$T$89)
    2395                      .dwattr $C$DW$229, DW_AT_location[DW_OP_bregx 0x24 8]
    2396              $C$DW$230       .dwtag  DW_TAG_variable, DW_AT_name("cbwSize")
    2397                      .dwattr $C$DW$230, DW_AT_TI_symbol_name("_cbwSize")
    2398                      .dwattr $C$DW$230, DW_AT_type(*$C$DW$T$25)
    2399                      .dwattr $C$DW$230, DW_AT_location[DW_OP_bregx 0x24 9]
    2400              $C$DW$231       .dwtag  DW_TAG_variable, DW_AT_name("logicalUnit")
    2401                      .dwattr $C$DW$231, DW_AT_TI_symbol_name("_logicalUnit")
    2402                      .dwattr $C$DW$231, DW_AT_type(*$C$DW$T$25)
    2403                      .dwattr $C$DW$231, DW_AT_location[DW_OP_bregx 0x24 10]
    2404 00077e EB08          MOV XAR2, dbl(*SP(#4))
         000780 A5   
    2405 000781 EB04          MOV XAR1, dbl(*SP(#2))
         000783 95   
    2406 000784 EB00          MOV XAR0, dbl(*SP(#0))
         000786 85   
TMS320C55x Assembler PC v4.4.1 Tue Oct 02 02:33:20 2018

Tools Copyright (c) 1996-2012 Texas Instruments Incorporated
csl_msc.asm                                                          PAGE   54

    2407                      .dwpsn  file "F:/eZdsp-DBG-sim/tmp1/c55x-sim2/foo/c5535_bsl_revc/ezdsp5535_v1/c55xx_csl/inc/csl_mscAu
    2408 000787 3C00          MOV #0, AC0 ; |2003| 
    2409 000789 EB0C          MOV AC0, dbl(*SP(#6)) ; |2003| 
         00078b 08   
    2410                      .dwpsn  file "F:/eZdsp-DBG-sim/tmp1/c55x-sim2/foo/c5535_bsl_revc/ezdsp5535_v1/c55xx_csl/inc/csl_mscAu
    2411 00078c E610          MOV #0, *SP(#8) ; |2004| 
         00078e 00   
    2412                      .dwpsn  file "F:/eZdsp-DBG-sim/tmp1/c55x-sim2/foo/c5535_bsl_revc/ezdsp5535_v1/c55xx_csl/inc/csl_mscAu
    2413 00078f E612          MOV #0, *SP(#9) ; |2005| 
         000791 00   
    2414                      .dwpsn  file "F:/eZdsp-DBG-sim/tmp1/c55x-sim2/foo/c5535_bsl_revc/ezdsp5535_v1/c55xx_csl/inc/csl_mscAu
    2415 000792 E614          MOV #0, *SP(#10) ; |2006| 
         000794 00   
    2416                      .dwpsn  file "F:/eZdsp-DBG-sim/tmp1/c55x-sim2/foo/c5535_bsl_revc/ezdsp5535_v1/c55xx_csl/inc/csl_mscAu
    2417 000795 ED00          MOV dbl(*SP(#0)), XAR3
         000797 BF   
    2418 000798 90B0          MOV XAR3, AC0
    2419 00079a 0400          BCC $C$L45,AC0 == #0 ; |2008| 
         00079c 6A   
    2420                                                      ; branchcc occurs ; |2008| 
    2421 00079d ED04          MOV dbl(*SP(#2)), XAR3
         00079f BF   
    2422 0007a0 90B0          MOV XAR3, AC0
    2423 0007a2 0400          BCC $C$L45,AC0 == #0 ; |2008| 
         0007a4 62   
    2424                                                      ; branchcc occurs ; |2008| 
    2425 0007a5 ED08          MOV dbl(*SP(#4)), XAR3
         0007a7 BF   
    2426 0007a8 90B0          MOV XAR3, AC0
    2427 0007aa 0400          BCC $C$L45,AC0 == #0 ; |2008| 
         0007ac 5A   
    2428                                                      ; branchcc occurs ; |2008| 
    2429                      .dwpsn  file "F:/eZdsp-DBG-sim/tmp1/c55x-sim2/foo/c5535_bsl_revc/ezdsp5535_v1/c55xx_csl/inc/csl_mscAu
    2430 0007ad ED00          MOV dbl(*SP(#0)), XAR2
         0007af AF   
    2431 0007b0 ED00          MOV dbl(*SP(#0)), XAR3
         0007b2 BF   
    2432 0007b3 A94D          MOV *AR2(#298), AR1 ; |2010| 
         0007b5 012A 
    2433 0007b7 5290          MOV AR1, HI(AC0) ; |2010| 
    2434 0007b9 DA6D          OR *AR3(#297), AC0, AC0 ; |2010| 
         0007bb 0001 
         0007bd 29   
    2435 0007be EB0C          MOV AC0, dbl(*SP(#6)) ; |2010| 
         0007c0 08   
    2436                      .dwpsn  file "F:/eZdsp-DBG-sim/tmp1/c55x-sim2/foo/c5535_bsl_revc/ezdsp5535_v1/c55xx_csl/inc/csl_mscAu
    2437 0007c1 ED0C          MOV dbl(*SP(#6)), AC1 ; |2014| 
         0007c3 18   
    2438 0007c4 7A43          MOV #17218 << #16, AC0 ; |2014| 
         0007c6 420A 
    2439 0007c8 7E53          OR #0x5355, AC0, AC0 ; |2014| 
         0007ca 5500 
    2440 0007cc 1210          CMPU AC1 == AC0, TC1 ; |2014| 
         0007ce 04   
    2441 0007cf 62E4          BCC $C$L43,TC1 ; |2014| 
TMS320C55x Assembler PC v4.4.1 Tue Oct 02 02:33:20 2018

Tools Copyright (c) 1996-2012 Texas Instruments Incorporated
csl_msc.asm                                                          PAGE   55

    2442                                                      ; branchcc occurs ; |2014| 
    2443                      .dwpsn  file "F:/eZdsp-DBG-sim/tmp1/c55x-sim2/foo/c5535_bsl_revc/ezdsp5535_v1/c55xx_csl/inc/csl_mscAu
    2444 0007d1 E610          MOV #-1, *SP(#8) ; |2016| 
         0007d3 FF   
    2445                      .dwpsn  file "F:/eZdsp-DBG-sim/tmp1/c55x-sim2/foo/c5535_bsl_revc/ezdsp5535_v1/c55xx_csl/inc/csl_mscAu
    2446 0007d4 4A34          B $C$L46  ; |2017| 
    2447                                                      ; branch occurs ; |2017| 
    2448 0007d6       $C$L43:    
    2449                      .dwpsn  file "F:/eZdsp-DBG-sim/tmp1/c55x-sim2/foo/c5535_bsl_revc/ezdsp5535_v1/c55xx_csl/inc/csl_mscAu
    2450 0007d6 ED04          MOV dbl(*SP(#2)), XAR0
         0007d8 8F   
    2451              $C$DW$232       .dwtag  DW_TAG_TI_branch
    2452                      .dwattr $C$DW$232, DW_AT_low_pc(0x00)
    2453                      .dwattr $C$DW$232, DW_AT_name("_USB_getDataCountReadFromFifo")
    2454                      .dwattr $C$DW$232, DW_AT_TI_call
    2455 0007d9 6C00          CALL #_USB_getDataCountReadFromFifo ; |2020| 
         0007db 0000!
    2456                                                      ; call occurs [#_USB_getDataCountReadFromFifo] ; |2020| 
    2457 0007dd C412          MOV T0, *SP(#9) ; |2020| 
    2458                      .dwpsn  file "F:/eZdsp-DBG-sim/tmp1/c55x-sim2/foo/c5535_bsl_revc/ezdsp5535_v1/c55xx_csl/inc/csl_mscAu
    2459 0007df F012          CMP *SP(#9) == #31, TC1 ; |2021| 
         0007e1 001F 
    2460 0007e3 62E4          BCC $C$L44,TC1 ; |2021| 
    2461                                                      ; branchcc occurs ; |2021| 
    2462                      .dwpsn  file "F:/eZdsp-DBG-sim/tmp1/c55x-sim2/foo/c5535_bsl_revc/ezdsp5535_v1/c55xx_csl/inc/csl_mscAu
    2463 0007e5 E610          MOV #-1, *SP(#8) ; |2023| 
         0007e7 FF   
    2464                      .dwpsn  file "F:/eZdsp-DBG-sim/tmp1/c55x-sim2/foo/c5535_bsl_revc/ezdsp5535_v1/c55xx_csl/inc/csl_mscAu
    2465 0007e8 4A20          B $C$L46  ; |2024| 
    2466                                                      ; branch occurs ; |2024| 
    2467 0007ea       $C$L44:    
    2468                      .dwpsn  file "F:/eZdsp-DBG-sim/tmp1/c55x-sim2/foo/c5535_bsl_revc/ezdsp5535_v1/c55xx_csl/inc/csl_mscAu
    2469 0007ea ED00          MOV dbl(*SP(#0)), XAR3
         0007ec BF   
    2470 0007ed DF6D          MOV uns(high_byte(*AR3(#303))), AR1 ; |2028| 
         0007ef 9101 
         0007f1 2F   
    2471 0007f2 C914          MOV AR1, *SP(#10) ; |2028| 
    2472                      .dwpsn  file "F:/eZdsp-DBG-sim/tmp1/c55x-sim2/foo/c5535_bsl_revc/ezdsp5535_v1/c55xx_csl/inc/csl_mscAu
    2473 0007f4 ED00          MOV dbl(*SP(#0)), XAR3
         0007f6 BF   
    2474 0007f7 AA14          MOV *SP(#10), AR2 ; |2030| 
    2475 0007f9 A96D          MOV *AR3(#354), AR1 ; |2030| 
         0007fb 0162 
    2476 0007fd 1298          CMPU AR2 <= AR1, TC1 ; |2030| 
         0007ff A4   
    2477 000800 6464          BCC $C$L46,TC1 ; |2030| 
    2478                                                      ; branchcc occurs ; |2030| 
    2479                      .dwpsn  file "F:/eZdsp-DBG-sim/tmp1/c55x-sim2/foo/c5535_bsl_revc/ezdsp5535_v1/c55xx_csl/inc/csl_mscAu
    2480 000802 E610          MOV #-1, *SP(#8) ; |2032| 
         000804 FF   
    2481                      .dwpsn  file "F:/eZdsp-DBG-sim/tmp1/c55x-sim2/foo/c5535_bsl_revc/ezdsp5535_v1/c55xx_csl/inc/csl_mscAu
    2482 000805 4A03          B $C$L46  ; |2036| 
    2483                                                      ; branch occurs ; |2036| 
    2484 000807       $C$L45:    
TMS320C55x Assembler PC v4.4.1 Tue Oct 02 02:33:20 2018

Tools Copyright (c) 1996-2012 Texas Instruments Incorporated
csl_msc.asm                                                          PAGE   56

    2485                      .dwpsn  file "F:/eZdsp-DBG-sim/tmp1/c55x-sim2/foo/c5535_bsl_revc/ezdsp5535_v1/c55xx_csl/inc/csl_mscAu
    2486 000807 E610          MOV #-1, *SP(#8) ; |2039| 
         000809 FF   
    2487 00080a       $C$L46:    
    2488                      .dwpsn  file "F:/eZdsp-DBG-sim/tmp1/c55x-sim2/foo/c5535_bsl_revc/ezdsp5535_v1/c55xx_csl/inc/csl_mscAu
    2489 00080a A410          MOV *SP(#8), T0 ; |2042| 
    2490                      .dwpsn  file "F:/eZdsp-DBG-sim/tmp1/c55x-sim2/foo/c5535_bsl_revc/ezdsp5535_v1/c55xx_csl/inc/csl_mscAu
    2491 00080c 4E0B          AADD #11, SP
    2492                      .dwcfi  cfa_offset, 1
    2493              $C$DW$233       .dwtag  DW_TAG_TI_branch
    2494                      .dwattr $C$DW$233, DW_AT_low_pc(0x00)
    2495                      .dwattr $C$DW$233, DW_AT_TI_return
    2496 00080e 4804          RET
    2497                                                      ; return occurs
    2498                      .dwattr $C$DW$221, DW_AT_TI_end_file("F:/eZdsp-DBG-sim/tmp1/c55x-sim2/foo/c5535_bsl_revc/ezdsp5535_v1
    2499                      .dwattr $C$DW$221, DW_AT_TI_end_line(0x7fb)
    2500                      .dwattr $C$DW$221, DW_AT_TI_end_column(0x01)
    2501                      .dwendentry
    2502                      .dwendtag $C$DW$221
    2503              
    2504 000810               .sect   ".text"
    2505                      .align 4
    2506                      .global _MSC_Open
    2507              
    2508              $C$DW$234       .dwtag  DW_TAG_subprogram, DW_AT_name("MSC_Open")
    2509                      .dwattr $C$DW$234, DW_AT_low_pc(_MSC_Open)
    2510                      .dwattr $C$DW$234, DW_AT_high_pc(0x00)
    2511                      .dwattr $C$DW$234, DW_AT_TI_symbol_name("_MSC_Open")
    2512                      .dwattr $C$DW$234, DW_AT_external
    2513                      .dwattr $C$DW$234, DW_AT_type(*$C$DW$T$89)
    2514                      .dwattr $C$DW$234, DW_AT_TI_begin_file("../c5535_bsl_revc/ezdsp5535_v1/c55xx_csl/src/csl_msc.c")
    2515                      .dwattr $C$DW$234, DW_AT_TI_begin_line(0x4d)
    2516                      .dwattr $C$DW$234, DW_AT_TI_begin_column(0x0c)
    2517                      .dwattr $C$DW$234, DW_AT_TI_max_frame_size(0x04)
    2518                      .dwpsn  file "../c5535_bsl_revc/ezdsp5535_v1/c55xx_csl/src/csl_msc.c",line 78,column 1,is_stmt,addres
    2519              
    2520                      .dwfde $C$DW$CIE, _MSC_Open
    2521              $C$DW$235       .dwtag  DW_TAG_formal_parameter, DW_AT_name("pAppClassHandle")
    2522                      .dwattr $C$DW$235, DW_AT_TI_symbol_name("_pAppClassHandle")
    2523                      .dwattr $C$DW$235, DW_AT_type(*$C$DW$T$102)
    2524                      .dwattr $C$DW$235, DW_AT_location[DW_OP_reg17]
    2525              ;*******************************************************************************
    2526              ;* FUNCTION NAME: MSC_Open                                                     *
    2527              ;*                                                                             *
    2528              ;*   Function Uses Regs : AC0,AC0,T0,AR0,XAR0,AR3,XAR3,SP,M40,SATA,SATD,RDM,   *
    2529              ;*                        FRCT,SMUL                                            *
    2530              ;*   Stack Frame        : Compact (No Frame Pointer, w/ debug)                 *
    2531              ;*   Total Frame Size   : 4 words                                              *
    2532              ;*                        (1 return address/alignment)                         *
    2533              ;*                        (3 local values)                                     *
    2534              ;*   Min System Stack   : 1 word                                               *
    2535              ;*******************************************************************************
    2536 000810       _MSC_Open:
    2537                      .dwcfi  cfa_offset, 1
    2538                      .dwcfi  save_reg_to_mem, 91, -1
TMS320C55x Assembler PC v4.4.1 Tue Oct 02 02:33:20 2018

Tools Copyright (c) 1996-2012 Texas Instruments Incorporated
csl_msc.asm                                                          PAGE   57

    2539 000810 4EFD          AADD #-3, SP
    2540                      .dwcfi  cfa_offset, 4
    2541              $C$DW$236       .dwtag  DW_TAG_variable, DW_AT_name("pAppClassHandle")
    2542                      .dwattr $C$DW$236, DW_AT_TI_symbol_name("_pAppClassHandle")
    2543                      .dwattr $C$DW$236, DW_AT_type(*$C$DW$T$102)
    2544                      .dwattr $C$DW$236, DW_AT_location[DW_OP_bregx 0x24 0]
    2545              $C$DW$237       .dwtag  DW_TAG_variable, DW_AT_name("status")
    2546                      .dwattr $C$DW$237, DW_AT_TI_symbol_name("_status")
    2547                      .dwattr $C$DW$237, DW_AT_type(*$C$DW$T$89)
    2548                      .dwattr $C$DW$237, DW_AT_location[DW_OP_bregx 0x24 2]
    2549 000812 EB00          MOV XAR0, dbl(*SP(#0))
         000814 85   
    2550                      .dwpsn  file "../c5535_bsl_revc/ezdsp5535_v1/c55xx_csl/src/csl_msc.c",line 81,column 2,is_stmt
    2551 000815 E604          MOV #0, *SP(#2) ; |81| 
         000817 00   
    2552                      .dwpsn  file "../c5535_bsl_revc/ezdsp5535_v1/c55xx_csl/src/csl_msc.c",line 83,column 2,is_stmt
    2553 000818 ED00          MOV dbl(*SP(#0)), XAR3
         00081a BF   
    2554 00081b 90B0          MOV XAR3, AC0
    2555 00081d 6600          BCC $C$L47,AC0 == #0 ; |83| 
    2556                                                      ; branchcc occurs ; |83| 
    2557                      .dwpsn  file "../c5535_bsl_revc/ezdsp5535_v1/c55xx_csl/src/csl_msc.c",line 85,column 3,is_stmt
    2558 00081f ED00          MOV dbl(*SP(#0)), XAR0
         000821 8F   
    2559              $C$DW$238       .dwtag  DW_TAG_TI_branch
    2560                      .dwattr $C$DW$238, DW_AT_low_pc(0x00)
    2561                      .dwattr $C$DW$238, DW_AT_name("_MSC_Setup")
    2562                      .dwattr $C$DW$238, DW_AT_TI_call
    2563              
    2564 000822 0800          CALL #_MSC_Setup ; |85| 
         000824 3D   
    2565 000825 3D14  ||      MOV #1, T0
    2566              
    2567                                                      ; call occurs [#_MSC_Setup] ; |85| 
    2568 000827 C404          MOV T0, *SP(#2) ; |85| 
    2569                      .dwpsn  file "../c5535_bsl_revc/ezdsp5535_v1/c55xx_csl/src/csl_msc.c",line 86,column 2,is_stmt
    2570 000829 4A03          B $C$L48  ; |86| 
    2571                                                      ; branch occurs ; |86| 
    2572 00082b       $C$L47:    
    2573                      .dwpsn  file "../c5535_bsl_revc/ezdsp5535_v1/c55xx_csl/src/csl_msc.c",line 89,column 3,is_stmt
    2574 00082b E604          MOV #-5, *SP(#2) ; |89| 
         00082d FB   
    2575 00082e       $C$L48:    
    2576                      .dwpsn  file "../c5535_bsl_revc/ezdsp5535_v1/c55xx_csl/src/csl_msc.c",line 92,column 2,is_stmt
    2577 00082e A404          MOV *SP(#2), T0 ; |92| 
    2578                      .dwpsn  file "../c5535_bsl_revc/ezdsp5535_v1/c55xx_csl/src/csl_msc.c",line 93,column 1,is_stmt
    2579 000830 4E03          AADD #3, SP
    2580                      .dwcfi  cfa_offset, 1
    2581              $C$DW$239       .dwtag  DW_TAG_TI_branch
    2582                      .dwattr $C$DW$239, DW_AT_low_pc(0x00)
    2583                      .dwattr $C$DW$239, DW_AT_TI_return
    2584 000832 4804          RET
    2585                                                      ; return occurs
    2586                      .dwattr $C$DW$234, DW_AT_TI_end_file("../c5535_bsl_revc/ezdsp5535_v1/c55xx_csl/src/csl_msc.c")
    2587                      .dwattr $C$DW$234, DW_AT_TI_end_line(0x5d)
TMS320C55x Assembler PC v4.4.1 Tue Oct 02 02:33:20 2018

Tools Copyright (c) 1996-2012 Texas Instruments Incorporated
csl_msc.asm                                                          PAGE   58

    2588                      .dwattr $C$DW$234, DW_AT_TI_end_column(0x01)
    2589                      .dwendentry
    2590                      .dwendtag $C$DW$234
    2591              
    2592 000834               .sect   ".text"
    2593                      .align 4
    2594                      .global _MSC_OpenFullspeed
    2595              
    2596              $C$DW$240       .dwtag  DW_TAG_subprogram, DW_AT_name("MSC_OpenFullspeed")
    2597                      .dwattr $C$DW$240, DW_AT_low_pc(_MSC_OpenFullspeed)
    2598                      .dwattr $C$DW$240, DW_AT_high_pc(0x00)
    2599                      .dwattr $C$DW$240, DW_AT_TI_symbol_name("_MSC_OpenFullspeed")
    2600                      .dwattr $C$DW$240, DW_AT_external
    2601                      .dwattr $C$DW$240, DW_AT_type(*$C$DW$T$89)
    2602                      .dwattr $C$DW$240, DW_AT_TI_begin_file("../c5535_bsl_revc/ezdsp5535_v1/c55xx_csl/src/csl_msc.c")
    2603                      .dwattr $C$DW$240, DW_AT_TI_begin_line(0x8d)
    2604                      .dwattr $C$DW$240, DW_AT_TI_begin_column(0x0c)
    2605                      .dwattr $C$DW$240, DW_AT_TI_max_frame_size(0x04)
    2606                      .dwpsn  file "../c5535_bsl_revc/ezdsp5535_v1/c55xx_csl/src/csl_msc.c",line 142,column 1,is_stmt,addre
    2607              
    2608                      .dwfde $C$DW$CIE, _MSC_OpenFullspeed
    2609              $C$DW$241       .dwtag  DW_TAG_formal_parameter, DW_AT_name("pAppClassHandle")
    2610                      .dwattr $C$DW$241, DW_AT_TI_symbol_name("_pAppClassHandle")
    2611                      .dwattr $C$DW$241, DW_AT_type(*$C$DW$T$102)
    2612                      .dwattr $C$DW$241, DW_AT_location[DW_OP_reg17]
    2613              ;*******************************************************************************
    2614              ;* FUNCTION NAME: MSC_OpenFullspeed                                            *
    2615              ;*                                                                             *
    2616              ;*   Function Uses Regs : AC0,AC0,T0,AR0,XAR0,AR3,XAR3,SP,M40,SATA,SATD,RDM,   *
    2617              ;*                        FRCT,SMUL                                            *
    2618              ;*   Stack Frame        : Compact (No Frame Pointer, w/ debug)                 *
    2619              ;*   Total Frame Size   : 4 words                                              *
    2620              ;*                        (1 return address/alignment)                         *
    2621              ;*                        (3 local values)                                     *
    2622              ;*   Min System Stack   : 1 word                                               *
    2623              ;*******************************************************************************
    2624 000834       _MSC_OpenFullspeed:
    2625                      .dwcfi  cfa_offset, 1
    2626                      .dwcfi  save_reg_to_mem, 91, -1
    2627 000834 4EFD          AADD #-3, SP
    2628                      .dwcfi  cfa_offset, 4
    2629              $C$DW$242       .dwtag  DW_TAG_variable, DW_AT_name("pAppClassHandle")
    2630                      .dwattr $C$DW$242, DW_AT_TI_symbol_name("_pAppClassHandle")
    2631                      .dwattr $C$DW$242, DW_AT_type(*$C$DW$T$102)
    2632                      .dwattr $C$DW$242, DW_AT_location[DW_OP_bregx 0x24 0]
    2633              $C$DW$243       .dwtag  DW_TAG_variable, DW_AT_name("status")
    2634                      .dwattr $C$DW$243, DW_AT_TI_symbol_name("_status")
    2635                      .dwattr $C$DW$243, DW_AT_type(*$C$DW$T$89)
    2636                      .dwattr $C$DW$243, DW_AT_location[DW_OP_bregx 0x24 2]
    2637 000836 EB00          MOV XAR0, dbl(*SP(#0))
         000838 85   
    2638                      .dwpsn  file "../c5535_bsl_revc/ezdsp5535_v1/c55xx_csl/src/csl_msc.c",line 145,column 2,is_stmt
    2639 000839 E604          MOV #0, *SP(#2) ; |145| 
         00083b 00   
    2640                      .dwpsn  file "../c5535_bsl_revc/ezdsp5535_v1/c55xx_csl/src/csl_msc.c",line 147,column 2,is_stmt
TMS320C55x Assembler PC v4.4.1 Tue Oct 02 02:33:20 2018

Tools Copyright (c) 1996-2012 Texas Instruments Incorporated
csl_msc.asm                                                          PAGE   59

    2641 00083c ED00          MOV dbl(*SP(#0)), XAR3
         00083e BF   
    2642 00083f 90B0          MOV XAR3, AC0
    2643 000841 0400          BCC $C$L49,AC0 == #0 ; |147| 
         000843 14   
    2644                                                      ; branchcc occurs ; |147| 
    2645                      .dwpsn  file "../c5535_bsl_revc/ezdsp5535_v1/c55xx_csl/src/csl_msc.c",line 149,column 3,is_stmt
    2646 000844 ED00          MOV dbl(*SP(#0)), XAR0
         000846 8F   
    2647              $C$DW$244       .dwtag  DW_TAG_TI_branch
    2648                      .dwattr $C$DW$244, DW_AT_low_pc(0x00)
    2649                      .dwattr $C$DW$244, DW_AT_name("_MSC_Setup")
    2650                      .dwattr $C$DW$244, DW_AT_TI_call
    2651              
    2652 000847 0800          CALL #_MSC_Setup ; |149| 
         000849 18   
    2653 00084a 3D04  ||      MOV #0, T0
    2654              
    2655                                                      ; call occurs [#_MSC_Setup] ; |149| 
    2656 00084c C404          MOV T0, *SP(#2) ; |149| 
    2657                      .dwpsn  file "../c5535_bsl_revc/ezdsp5535_v1/c55xx_csl/src/csl_msc.c",line 150,column 3,is_stmt
    2658 00084e 7600          MOV #64, T0 ; |150| 
         000850 4048 
    2659              $C$DW$245       .dwtag  DW_TAG_TI_branch
    2660                      .dwattr $C$DW$245, DW_AT_low_pc(0x00)
    2661                      .dwattr $C$DW$245, DW_AT_name("_USB_setFullSpeedMode")
    2662                      .dwattr $C$DW$245, DW_AT_TI_call
    2663 000852 6C00          CALL #_USB_setFullSpeedMode ; |150| 
         000854 0000!
    2664                                                      ; call occurs [#_USB_setFullSpeedMode] ; |150| 
    2665                      .dwpsn  file "../c5535_bsl_revc/ezdsp5535_v1/c55xx_csl/src/csl_msc.c",line 151,column 2,is_stmt
    2666 000856 4A03          B $C$L50  ; |151| 
    2667                                                      ; branch occurs ; |151| 
    2668 000858       $C$L49:    
    2669                      .dwpsn  file "../c5535_bsl_revc/ezdsp5535_v1/c55xx_csl/src/csl_msc.c",line 154,column 3,is_stmt
    2670 000858 E604          MOV #-5, *SP(#2) ; |154| 
         00085a FB   
    2671 00085b       $C$L50:    
    2672                      .dwpsn  file "../c5535_bsl_revc/ezdsp5535_v1/c55xx_csl/src/csl_msc.c",line 157,column 2,is_stmt
    2673 00085b A404          MOV *SP(#2), T0 ; |157| 
    2674                      .dwpsn  file "../c5535_bsl_revc/ezdsp5535_v1/c55xx_csl/src/csl_msc.c",line 158,column 1,is_stmt
    2675 00085d 4E03          AADD #3, SP
    2676                      .dwcfi  cfa_offset, 1
    2677              $C$DW$246       .dwtag  DW_TAG_TI_branch
    2678                      .dwattr $C$DW$246, DW_AT_low_pc(0x00)
    2679                      .dwattr $C$DW$246, DW_AT_TI_return
    2680 00085f 4804          RET
    2681                                                      ; return occurs
    2682                      .dwattr $C$DW$240, DW_AT_TI_end_file("../c5535_bsl_revc/ezdsp5535_v1/c55xx_csl/src/csl_msc.c")
    2683                      .dwattr $C$DW$240, DW_AT_TI_end_line(0x9e)
    2684                      .dwattr $C$DW$240, DW_AT_TI_end_column(0x01)
    2685                      .dwendentry
    2686                      .dwendtag $C$DW$240
    2687              
    2688 000861               .sect   ".text"
TMS320C55x Assembler PC v4.4.1 Tue Oct 02 02:33:20 2018

Tools Copyright (c) 1996-2012 Texas Instruments Incorporated
csl_msc.asm                                                          PAGE   60

    2689                      .align 4
    2690              
    2691              $C$DW$247       .dwtag  DW_TAG_subprogram, DW_AT_name("MSC_Setup")
    2692                      .dwattr $C$DW$247, DW_AT_low_pc(_MSC_Setup)
    2693                      .dwattr $C$DW$247, DW_AT_high_pc(0x00)
    2694                      .dwattr $C$DW$247, DW_AT_TI_symbol_name("_MSC_Setup")
    2695                      .dwattr $C$DW$247, DW_AT_type(*$C$DW$T$89)
    2696                      .dwattr $C$DW$247, DW_AT_TI_begin_file("../c5535_bsl_revc/ezdsp5535_v1/c55xx_csl/src/csl_msc.c")
    2697                      .dwattr $C$DW$247, DW_AT_TI_begin_line(0xd0)
    2698                      .dwattr $C$DW$247, DW_AT_TI_begin_column(0x13)
    2699                      .dwattr $C$DW$247, DW_AT_TI_max_frame_size(0x0c)
    2700                      .dwpsn  file "../c5535_bsl_revc/ezdsp5535_v1/c55xx_csl/src/csl_msc.c",line 210,column 1,is_stmt,addre
    2701              
    2702                      .dwfde $C$DW$CIE, _MSC_Setup
    2703              $C$DW$248       .dwtag  DW_TAG_formal_parameter, DW_AT_name("pAppClassHandle")
    2704                      .dwattr $C$DW$248, DW_AT_TI_symbol_name("_pAppClassHandle")
    2705                      .dwattr $C$DW$248, DW_AT_type(*$C$DW$T$102)
    2706                      .dwattr $C$DW$248, DW_AT_location[DW_OP_reg17]
    2707              $C$DW$249       .dwtag  DW_TAG_formal_parameter, DW_AT_name("usbSpeedCfg")
    2708                      .dwattr $C$DW$249, DW_AT_TI_symbol_name("_usbSpeedCfg")
    2709                      .dwattr $C$DW$249, DW_AT_type(*$C$DW$T$46)
    2710                      .dwattr $C$DW$249, DW_AT_location[DW_OP_reg12]
    2711              ;*******************************************************************************
    2712              ;* FUNCTION NAME: MSC_Setup                                                    *
    2713              ;*                                                                             *
    2714              ;*   Function Uses Regs : AC0,AC0,AC1,AC1,AC2,AC2,T0,T1,AR0,XAR0,AR1,AR2,XAR2, *
    2715              ;*                        AR3,XAR3,SP,CARRY,TC1,M40,SATA,SATD,RDM,FRCT,SMUL    *
    2716              ;*   Stack Frame        : Compact (No Frame Pointer, w/ debug)                 *
    2717              ;*   Total Frame Size   : 12 words                                             *
    2718              ;*                        (1 return address/alignment)                         *
    2719              ;*                        (11 local values)                                    *
    2720              ;*   Min System Stack   : 1 word                                               *
    2721              ;*******************************************************************************
    2722 000864       _MSC_Setup:
    2723                      .dwcfi  cfa_offset, 1
    2724                      .dwcfi  save_reg_to_mem, 91, -1
    2725 000864 4EF5          AADD #-11, SP
    2726                      .dwcfi  cfa_offset, 12
    2727              $C$DW$250       .dwtag  DW_TAG_variable, DW_AT_name("pAppClassHandle")
    2728                      .dwattr $C$DW$250, DW_AT_TI_symbol_name("_pAppClassHandle")
    2729                      .dwattr $C$DW$250, DW_AT_type(*$C$DW$T$102)
    2730                      .dwattr $C$DW$250, DW_AT_location[DW_OP_bregx 0x24 0]
    2731              $C$DW$251       .dwtag  DW_TAG_variable, DW_AT_name("usbSpeedCfg")
    2732                      .dwattr $C$DW$251, DW_AT_TI_symbol_name("_usbSpeedCfg")
    2733                      .dwattr $C$DW$251, DW_AT_type(*$C$DW$T$46)
    2734                      .dwattr $C$DW$251, DW_AT_location[DW_OP_bregx 0x24 2]
    2735              $C$DW$252       .dwtag  DW_TAG_variable, DW_AT_name("pHandle")
    2736                      .dwattr $C$DW$252, DW_AT_TI_symbol_name("_pHandle")
    2737                      .dwattr $C$DW$252, DW_AT_type(*$C$DW$T$98)
    2738                      .dwattr $C$DW$252, DW_AT_location[DW_OP_bregx 0x24 4]
    2739              $C$DW$253       .dwtag  DW_TAG_variable, DW_AT_name("mediaStatus")
    2740                      .dwattr $C$DW$253, DW_AT_TI_symbol_name("_mediaStatus")
    2741                      .dwattr $C$DW$253, DW_AT_type(*$C$DW$T$52)
    2742                      .dwattr $C$DW$253, DW_AT_location[DW_OP_bregx 0x24 6]
    2743              $C$DW$254       .dwtag  DW_TAG_variable, DW_AT_name("status")
TMS320C55x Assembler PC v4.4.1 Tue Oct 02 02:33:20 2018

Tools Copyright (c) 1996-2012 Texas Instruments Incorporated
csl_msc.asm                                                          PAGE   61

    2744                      .dwattr $C$DW$254, DW_AT_TI_symbol_name("_status")
    2745                      .dwattr $C$DW$254, DW_AT_type(*$C$DW$T$89)
    2746                      .dwattr $C$DW$254, DW_AT_location[DW_OP_bregx 0x24 7]
    2747              $C$DW$255       .dwtag  DW_TAG_variable, DW_AT_name("initLun")
    2748                      .dwattr $C$DW$255, DW_AT_TI_symbol_name("_initLun")
    2749                      .dwattr $C$DW$255, DW_AT_type(*$C$DW$T$25)
    2750                      .dwattr $C$DW$255, DW_AT_location[DW_OP_bregx 0x24 8]
    2751              $C$DW$256       .dwtag  DW_TAG_variable, DW_AT_name("eventMask")
    2752                      .dwattr $C$DW$256, DW_AT_TI_symbol_name("_eventMask")
    2753                      .dwattr $C$DW$256, DW_AT_type(*$C$DW$T$25)
    2754                      .dwattr $C$DW$256, DW_AT_location[DW_OP_bregx 0x24 9]
    2755              $C$DW$257       .dwtag  DW_TAG_variable, DW_AT_name("maxPktSize")
    2756                      .dwattr $C$DW$257, DW_AT_TI_symbol_name("_maxPktSize")
    2757                      .dwattr $C$DW$257, DW_AT_type(*$C$DW$T$25)
    2758                      .dwattr $C$DW$257, DW_AT_location[DW_OP_bregx 0x24 10]
    2759 000866 C404          MOV T0, *SP(#2) ; |210| 
    2760 000868 EB00          MOV XAR0, dbl(*SP(#0))
         00086a 85   
    2761                      .dwpsn  file "../c5535_bsl_revc/ezdsp5535_v1/c55xx_csl/src/csl_msc.c",line 218,column 2,is_stmt
    2762 00086b E60E          MOV #0, *SP(#7) ; |218| 
         00086d 00   
    2763                      .dwpsn  file "../c5535_bsl_revc/ezdsp5535_v1/c55xx_csl/src/csl_msc.c",line 219,column 2,is_stmt
    2764 00086e ED00          MOV dbl(*SP(#0)), XAR3
         000870 BF   
    2765 000871 ED61          MOV dbl(*AR3), XAR3
         000873 BF   
    2766 000874 EB08          MOV XAR3, dbl(*SP(#4))
         000876 B5   
    2767                      .dwpsn  file "../c5535_bsl_revc/ezdsp5535_v1/c55xx_csl/src/csl_msc.c",line 221,column 2,is_stmt
    2768 000877 ED00          MOV dbl(*SP(#0)), XAR3
         000879 BF   
    2769 00087a 90B0          MOV XAR3, AC0
    2770 00087c 6D00          BCC $C$L60,AC0 == #0 ; |221| 
         00087e 030D 
    2771                                                      ; branchcc occurs ; |221| 
    2772                      .dwpsn  file "../c5535_bsl_revc/ezdsp5535_v1/c55xx_csl/src/csl_msc.c",line 224,column 3,is_stmt
    2773 000880 A979          MOV *AR3(short(#4)), AR1 ; |224| 
    2774 000882 6589          BCC $C$L51,AR1 == #0 ; |224| 
    2775                                                      ; branchcc occurs ; |224| 
    2776                      .dwpsn  file "../c5535_bsl_revc/ezdsp5535_v1/c55xx_csl/src/csl_msc.c",line 226,column 4,is_stmt
    2777 000884 A979          MOV *AR3(short(#4)), AR1 ; |226| 
    2778 000886 ED08          MOV dbl(*SP(#4)), XAR3
         000888 BF   
    2779 000889 4219          SUB #1, AR1 ; |226| 
    2780 00088b C96D          MOV AR1, *AR3(#536) ; |226| 
         00088d 0218 
    2781 00088f       $C$L51:    
    2782                      .dwpsn  file "../c5535_bsl_revc/ezdsp5535_v1/c55xx_csl/src/csl_msc.c",line 228,column 3,is_stmt
    2783 00088f ED08          MOV dbl(*SP(#4)), XAR3
         000891 BF   
    2784 000892 E66D          MOV #0, *AR3(#20) ; |228| 
         000894 0000 
         000896 14   
    2785                      .dwpsn  file "../c5535_bsl_revc/ezdsp5535_v1/c55xx_csl/src/csl_msc.c",line 231,column 3,is_stmt
    2786 000897 ED08          MOV dbl(*SP(#4)), XAR3
TMS320C55x Assembler PC v4.4.1 Tue Oct 02 02:33:20 2018

Tools Copyright (c) 1996-2012 Texas Instruments Incorporated
csl_msc.asm                                                          PAGE   62

         000899 BF   
    2787 00089a E66D          MOV #0, *AR3(#42) ; |231| 
         00089c 0000 
         00089e 2A   
    2788                      .dwpsn  file "../c5535_bsl_revc/ezdsp5535_v1/c55xx_csl/src/csl_msc.c",line 232,column 3,is_stmt
    2789 00089f ED08          MOV dbl(*SP(#4)), XAR3
         0008a1 BF   
    2790 0008a2 E66D          MOV #0, *AR3(#150) ; |232| 
         0008a4 0000 
         0008a6 96   
    2791                      .dwpsn  file "../c5535_bsl_revc/ezdsp5535_v1/c55xx_csl/src/csl_msc.c",line 235,column 3,is_stmt
    2792 0008a7 ED08          MOV dbl(*SP(#4)), XAR3
         0008a9 BF   
    2793 0008aa ED08          MOV dbl(*SP(#4)), XAR2
         0008ac AF   
    2794 0008ad 1416          AADD #22, AR3 ; |235| 
         0008af B4   
    2795 0008b0 EB4D          MOV XAR3, dbl(*AR2(#44))
         0008b2 B500 
         0008b4 2C   
    2796                      .dwpsn  file "../c5535_bsl_revc/ezdsp5535_v1/c55xx_csl/src/csl_msc.c",line 236,column 3,is_stmt
    2797 0008b5 ED08          MOV dbl(*SP(#4)), XAR2
         0008b7 AF   
    2798 0008b8 ED08          MOV dbl(*SP(#4)), XAR3
         0008ba BF   
    2799 0008bb EB4D          MOV XAR3, dbl(*AR2(#46))
         0008bd B500 
         0008bf 2E   
    2800                      .dwpsn  file "../c5535_bsl_revc/ezdsp5535_v1/c55xx_csl/src/csl_msc.c",line 237,column 3,is_stmt
    2801 0008c0 ED08          MOV dbl(*SP(#4)), XAR3
         0008c2 BF   
    2802 0008c3 ED08          MOV dbl(*SP(#4)), XAR2
         0008c5 AF   
    2803 0008c6 B46F          AMAR *+AR3(#516) ; |237| 
         0008c8 0204 
    2804 0008ca EB4D          MOV XAR3, dbl(*AR2(#48))
         0008cc B500 
         0008ce 30   
    2805                      .dwpsn  file "../c5535_bsl_revc/ezdsp5535_v1/c55xx_csl/src/csl_msc.c",line 238,column 3,is_stmt
    2806 0008cf ED08          MOV dbl(*SP(#4)), XAR3
         0008d1 BF   
    2807 0008d2 ED08          MOV dbl(*SP(#4)), XAR2
         0008d4 AF   
    2808 0008d5 B46F          AMAR *+AR3(#496) ; |238| 
         0008d7 01F0 
    2809 0008d9 EB4D          MOV XAR3, dbl(*AR2(#50))
         0008db B500 
         0008dd 32   
    2810                      .dwpsn  file "../c5535_bsl_revc/ezdsp5535_v1/c55xx_csl/src/csl_msc.c",line 239,column 3,is_stmt
    2811 0008de ED08          MOV dbl(*SP(#4)), XAR3
         0008e0 BF   
    2812 0008e1 3C00          MOV #0, AC0 ; |239| 
    2813 0008e3 EB6D          MOV AC0, dbl(*AR3(#52))
         0008e5 0800 
         0008e7 34   
TMS320C55x Assembler PC v4.4.1 Tue Oct 02 02:33:20 2018

Tools Copyright (c) 1996-2012 Texas Instruments Incorporated
csl_msc.asm                                                          PAGE   63

    2814                      .dwpsn  file "../c5535_bsl_revc/ezdsp5535_v1/c55xx_csl/src/csl_msc.c",line 242,column 3,is_stmt
    2815 0008e8 ED00          MOV dbl(*SP(#0)), XAR3
         0008ea BF   
    2816 0008eb ED08          MOV dbl(*SP(#4)), XAR2
         0008ed AF   
    2817 0008ee ED7D          MOV dbl(*AR3(short(#6))), XAR3
         0008f0 BF   
    2818 0008f1 B44F          AMAR *+AR2(#146) ; |242| 
         0008f3 0092 
    2819 0008f5 EB61          MOV XAR2, dbl(*AR3)
         0008f7 A5   
    2820                      .dwpsn  file "../c5535_bsl_revc/ezdsp5535_v1/c55xx_csl/src/csl_msc.c",line 245,column 3,is_stmt
    2821 0008f8 ED00          MOV dbl(*SP(#0)), XAR3
         0008fa BF   
    2822 0008fb ED08          MOV dbl(*SP(#4)), XAR2
         0008fd AF   
    2823 0008fe ED7D          MOV dbl(*AR3(short(#6))), XAR3
         000900 BF   
    2824 000901 EB4D          MOV XAR3, dbl(*AR2(#170))
         000903 B500 
         000905 AA   
    2825                      .dwpsn  file "../c5535_bsl_revc/ezdsp5535_v1/c55xx_csl/src/csl_msc.c",line 246,column 3,is_stmt
    2826 000906 ED00          MOV dbl(*SP(#0)), XAR3
         000908 BF   
    2827 000909 ED08          MOV dbl(*SP(#4)), XAR2
         00090b AF   
    2828 00090c ED6D          MOV dbl(*AR3(#10)), XAR3
         00090e BF00 
         000910 0A   
    2829 000911 EB4D          MOV XAR3, dbl(*AR2(#172))
         000913 B500 
         000915 AC   
    2830                      .dwpsn  file "../c5535_bsl_revc/ezdsp5535_v1/c55xx_csl/src/csl_msc.c",line 247,column 3,is_stmt
    2831 000916 ED08          MOV dbl(*SP(#4)), XAR3
         000918 BF   
    2832 000919 A904          MOV *SP(#2), AR1 ; |247| 
    2833 00091b C96D          MOV AR1, *AR3(#176) ; |247| 
         00091d 00B0 
    2834                      .dwpsn  file "../c5535_bsl_revc/ezdsp5535_v1/c55xx_csl/src/csl_msc.c",line 250,column 3,is_stmt
    2835 00091f ED08          MOV dbl(*SP(#4)), XAR0
         000921 8F   
    2836              $C$DW$258       .dwtag  DW_TAG_TI_branch
    2837                      .dwattr $C$DW$258, DW_AT_low_pc(0x00)
    2838                      .dwattr $C$DW$258, DW_AT_name("_MSC_initCtrlDesc")
    2839                      .dwattr $C$DW$258, DW_AT_TI_call
    2840 000922 0808          CALL #_MSC_initCtrlDesc ; |250| 
         000924 67   
    2841                                                      ; call occurs [#_MSC_initCtrlDesc] ; |250| 
    2842 000925 C40E          MOV T0, *SP(#7) ; |250| 
    2843                      .dwpsn  file "../c5535_bsl_revc/ezdsp5535_v1/c55xx_csl/src/csl_msc.c",line 251,column 3,is_stmt
    2844 000927 2249          MOV T0, AR1
    2845 000929 6D19          BCC $C$L62,AR1 != #0 ; |251| 
         00092b 0265 
    2846                                                      ; branchcc occurs ; |251| 
    2847                      .dwpsn  file "../c5535_bsl_revc/ezdsp5535_v1/c55xx_csl/src/csl_msc.c",line 253,column 4,is_stmt
TMS320C55x Assembler PC v4.4.1 Tue Oct 02 02:33:20 2018

Tools Copyright (c) 1996-2012 Texas Instruments Incorporated
csl_msc.asm                                                          PAGE   64

    2848                      .dwpsn  file "../c5535_bsl_revc/ezdsp5535_v1/c55xx_csl/src/csl_msc.c",line 257,column 3,is_stmt
    2849 00092d ED00          MOV dbl(*SP(#0)), XAR3
         00092f BF   
    2850 000930 A977          MOV *AR3(short(#3)), AR1 ; |257| 
    2851 000932 ED08          MOV dbl(*SP(#4)), XAR3
         000934 BF   
    2852 000935 C96D          MOV AR1, *AR3(#99) ; |257| 
         000937 0063 
    2853                      .dwpsn  file "../c5535_bsl_revc/ezdsp5535_v1/c55xx_csl/src/csl_msc.c",line 258,column 3,is_stmt
    2854 000939 ED00          MOV dbl(*SP(#0)), XAR3
         00093b BF   
    2855 00093c A975          MOV *AR3(short(#2)), AR1 ; |258| 
    2856 00093e ED08          MOV dbl(*SP(#4)), XAR3
         000940 BF   
    2857 000941 C96D          MOV AR1, *AR3(#100) ; |258| 
         000943 0064 
    2858                      .dwpsn  file "../c5535_bsl_revc/ezdsp5535_v1/c55xx_csl/src/csl_msc.c",line 261,column 3,is_stmt
    2859 000945 ED00          MOV dbl(*SP(#0)), XAR3
         000947 BF   
    2860 000948 ED08          MOV dbl(*SP(#4)), XAR2
         00094a AF   
    2861 00094b ED6D          MOV dbl(*AR3(#8)), XAR3
         00094d BF00 
         00094f 08   
    2862 000950 EB4D          MOV XAR3, dbl(*AR2(#196))
         000952 B500 
         000954 C4   
    2863                      .dwpsn  file "../c5535_bsl_revc/ezdsp5535_v1/c55xx_csl/src/csl_msc.c",line 262,column 3,is_stmt
    2864 000955 ED00          MOV dbl(*SP(#0)), XAR3
         000957 BF   
    2865 000958 7600          MOV #182, T0 ; |262| 
         00095a B648 
    2866 00095c ED08          MOV dbl(*SP(#4)), XAR2
         00095e AF   
    2867 00095f 1410          AADD #16, AR3 ; |262| 
         000961 B4   
    2868 000962 8061          MOV dbl(*AR3), dbl(*AR2(T0)) ; |262| 
         000964 70   
    2869                      .dwpsn  file "../c5535_bsl_revc/ezdsp5535_v1/c55xx_csl/src/csl_msc.c",line 263,column 3,is_stmt
    2870 000965 ED00          MOV dbl(*SP(#0)), XAR3
         000967 BF   
    2871 000968 7600          MOV #184, T0 ; |263| 
         00096a B848 
    2872 00096c ED08          MOV dbl(*SP(#4)), XAR2
         00096e AF   
    2873 00096f 1412          AADD #18, AR3 ; |263| 
         000971 B4   
    2874 000972 8061          MOV dbl(*AR3), dbl(*AR2(T0)) ; |263| 
         000974 70   
    2875                      .dwpsn  file "../c5535_bsl_revc/ezdsp5535_v1/c55xx_csl/src/csl_msc.c",line 264,column 3,is_stmt
    2876 000975 ED00          MOV dbl(*SP(#0)), XAR3
         000977 BF   
    2877 000978 7600          MOV #186, T0 ; |264| 
         00097a BA48 
    2878 00097c ED08          MOV dbl(*SP(#4)), XAR2
TMS320C55x Assembler PC v4.4.1 Tue Oct 02 02:33:20 2018

Tools Copyright (c) 1996-2012 Texas Instruments Incorporated
csl_msc.asm                                                          PAGE   65

         00097e AF   
    2879 00097f 1414          AADD #20, AR3 ; |264| 
         000981 B4   
    2880 000982 8061          MOV dbl(*AR3), dbl(*AR2(T0)) ; |264| 
         000984 70   
    2881                      .dwpsn  file "../c5535_bsl_revc/ezdsp5535_v1/c55xx_csl/src/csl_msc.c",line 266,column 3,is_stmt
    2882 000985 ED00          MOV dbl(*SP(#0)), XAR3
         000987 BF   
    2883 000988 7600          MOV #188, T0 ; |266| 
         00098a BC48 
    2884 00098c ED08          MOV dbl(*SP(#4)), XAR2
         00098e AF   
    2885 00098f 1416          AADD #22, AR3 ; |266| 
         000991 B4   
    2886 000992 8061          MOV dbl(*AR3), dbl(*AR2(T0)) ; |266| 
         000994 70   
    2887                      .dwpsn  file "../c5535_bsl_revc/ezdsp5535_v1/c55xx_csl/src/csl_msc.c",line 267,column 3,is_stmt
    2888 000995 ED00          MOV dbl(*SP(#0)), XAR3
         000997 BF   
    2889 000998 7600          MOV #190, T0 ; |267| 
         00099a BE48 
    2890 00099c ED08          MOV dbl(*SP(#4)), XAR2
         00099e AF   
    2891 00099f 1418          AADD #24, AR3 ; |267| 
         0009a1 B4   
    2892 0009a2 8061          MOV dbl(*AR3), dbl(*AR2(T0)) ; |267| 
         0009a4 70   
    2893                      .dwpsn  file "../c5535_bsl_revc/ezdsp5535_v1/c55xx_csl/src/csl_msc.c",line 268,column 3,is_stmt
    2894 0009a5 ED00          MOV dbl(*SP(#0)), XAR3
         0009a7 BF   
    2895 0009a8 7600          MOV #192, T0 ; |268| 
         0009aa C048 
    2896 0009ac ED08          MOV dbl(*SP(#4)), XAR2
         0009ae AF   
    2897 0009af 141A          AADD #26, AR3 ; |268| 
         0009b1 B4   
    2898 0009b2 8061          MOV dbl(*AR3), dbl(*AR2(T0)) ; |268| 
         0009b4 70   
    2899                      .dwpsn  file "../c5535_bsl_revc/ezdsp5535_v1/c55xx_csl/src/csl_msc.c",line 269,column 3,is_stmt
    2900 0009b5 ED00          MOV dbl(*SP(#0)), XAR3
         0009b7 BF   
    2901 0009b8 7600          MOV #194, T0 ; |269| 
         0009ba C248 
    2902 0009bc ED08          MOV dbl(*SP(#4)), XAR2
         0009be AF   
    2903 0009bf 141C          AADD #28, AR3 ; |269| 
         0009c1 B4   
    2904 0009c2 8061          MOV dbl(*AR3), dbl(*AR2(T0)) ; |269| 
         0009c4 70   
    2905                      .dwpsn  file "../c5535_bsl_revc/ezdsp5535_v1/c55xx_csl/src/csl_msc.c",line 272,column 3,is_stmt
    2906 0009c5 ED08          MOV dbl(*SP(#4)), XAR0
         0009c7 8F   
    2907 0009c8 B40F          AMAR *+AR0(#182) ; |272| 
         0009ca 00B6 
    2908              $C$DW$259       .dwtag  DW_TAG_TI_branch
TMS320C55x Assembler PC v4.4.1 Tue Oct 02 02:33:20 2018

Tools Copyright (c) 1996-2012 Texas Instruments Incorporated
csl_msc.asm                                                          PAGE   66

    2909                      .dwattr $C$DW$259, DW_AT_low_pc(0x00)
    2910                      .dwattr $C$DW$259, DW_AT_name("_MSC_initMscVal")
    2911                      .dwattr $C$DW$259, DW_AT_TI_call
    2912 0009cc 080B          CALL #_MSC_initMscVal ; |272| 
         0009ce 5D   
    2913                                                      ; call occurs [#_MSC_initMscVal] ; |272| 
    2914 0009cf C40E          MOV T0, *SP(#7) ; |272| 
    2915                      .dwpsn  file "../c5535_bsl_revc/ezdsp5535_v1/c55xx_csl/src/csl_msc.c",line 273,column 3,is_stmt
    2916 0009d1 2249          MOV T0, AR1
    2917 0009d3 6D19          BCC $C$L62,AR1 != #0 ; |273| 
         0009d5 01BB 
    2918                                                      ; branchcc occurs ; |273| 
    2919                      .dwpsn  file "../c5535_bsl_revc/ezdsp5535_v1/c55xx_csl/src/csl_msc.c",line 275,column 4,is_stmt
    2920                      .dwpsn  file "../c5535_bsl_revc/ezdsp5535_v1/c55xx_csl/src/csl_msc.c",line 279,column 3,is_stmt
    2921 0009d7 E612          MOV #61, *SP(#9) ; |279| 
         0009d9 3D   
    2922                      .dwpsn  file "../c5535_bsl_revc/ezdsp5535_v1/c55xx_csl/src/csl_msc.c",line 283,column 3,is_stmt
    2923 0009da F004          CMP *SP(#2) == #1, TC1 ; |283| 
         0009dc 0001 
    2924 0009de 6374          BCC $C$L52,!TC1 ; |283| 
    2925                                                      ; branchcc occurs ; |283| 
    2926                      .dwpsn  file "../c5535_bsl_revc/ezdsp5535_v1/c55xx_csl/src/csl_msc.c",line 285,column 4,is_stmt
    2927 0009e0 FB14          MOV #512, *SP(#10) ; |285| 
         0009e2 0200 
    2928                      .dwpsn  file "../c5535_bsl_revc/ezdsp5535_v1/c55xx_csl/src/csl_msc.c",line 286,column 3,is_stmt
    2929 0009e4 4A03          B $C$L53  ; |286| 
    2930                                                      ; branch occurs ; |286| 
    2931 0009e6       $C$L52:    
    2932                      .dwpsn  file "../c5535_bsl_revc/ezdsp5535_v1/c55xx_csl/src/csl_msc.c",line 289,column 4,is_stmt
    2933 0009e6 E614          MOV #64, *SP(#10) ; |289| 
         0009e8 40   
    2934 0009e9       $C$L53:    
    2935                      .dwpsn  file "../c5535_bsl_revc/ezdsp5535_v1/c55xx_csl/src/csl_msc.c",line 292,column 3,is_stmt
    2936 0009e9 ED08          MOV dbl(*SP(#4)), XAR3
         0009eb BF   
    2937 0009ec A46D          MOV *AR3(#20), T0 ; |292| 
         0009ee 0014 
    2938 0009f0 ED00          MOV dbl(*SP(#0)), XAR3
         0009f2 BF   
    2939 0009f3 ED08          MOV dbl(*SP(#4)), XAR0
         0009f5 8F   
    2940              
    2941 0009fa 3D05          MOV #0, T1
    2942 0009f6 7600  ||      MOV #64, AR2 ; |292| 
         0009f8 40A8 
    2943              
    2944 0009fc ED6D          MOV dbl(*AR3(#14)), AC0 ; |292| 
         0009fe 0800 
         000a00 0E   
    2945              
    2946 000a01 8A12          MOV *SP(#9), AR3 ; |292| 
         000a03 8B1C 
         000a05 16   
    2947              ||      AADD #22, AR0 ; |292| 
    2948              
TMS320C55x Assembler PC v4.4.1 Tue Oct 02 02:33:20 2018

Tools Copyright (c) 1996-2012 Texas Instruments Incorporated
csl_msc.asm                                                          PAGE   67

    2949              $C$DW$260       .dwtag  DW_TAG_TI_branch
    2950                      .dwattr $C$DW$260, DW_AT_low_pc(0x00)
    2951                      .dwattr $C$DW$260, DW_AT_name("_USB_initEndptObj")
    2952                      .dwattr $C$DW$260, DW_AT_TI_call
    2953              
    2954 000a06 6C00          CALL #_USB_initEndptObj ; |292| 
         000a08 0000!
    2955 000a0a 3D09  ||      MOV #0, AR1
    2956              
    2957                                                      ; call occurs [#_USB_initEndptObj] ; |292| 
    2958 000a0c C40E          MOV T0, *SP(#7) ; |292| 
    2959                      .dwpsn  file "../c5535_bsl_revc/ezdsp5535_v1/c55xx_csl/src/csl_msc.c",line 299,column 3,is_stmt
    2960 000a0e 2249          MOV T0, AR1
    2961 000a10 6D19          BCC $C$L62,AR1 != #0 ; |299| 
         000a12 017E 
    2962                                                      ; branchcc occurs ; |299| 
    2963                      .dwpsn  file "../c5535_bsl_revc/ezdsp5535_v1/c55xx_csl/src/csl_msc.c",line 301,column 4,is_stmt
    2964                      .dwpsn  file "../c5535_bsl_revc/ezdsp5535_v1/c55xx_csl/src/csl_msc.c",line 305,column 3,is_stmt
    2965 000a14 ED08          MOV dbl(*SP(#4)), XAR3
         000a16 BF   
    2966 000a17 A46D          MOV *AR3(#20), T0 ; |305| 
         000a19 0014 
    2967 000a1b ED00          MOV dbl(*SP(#0)), XAR3
         000a1d BF   
    2968 000a1e ED08          MOV dbl(*SP(#4)), XAR0
         000a20 8F   
    2969 000a21 7600          MOV #64, AR2 ; |305| 
         000a23 40A8 
    2970 000a25 ED6D          MOV dbl(*AR3(#14)), AC0 ; |305| 
         000a27 0800 
         000a29 0E   
    2971              
    2972 000a2a 7600          MOV #32, AR3 ; |305| 
         000a2c 20B8 
    2973 000a2e 3D85  ||      MOV #8, T1
    2974              
    2975              $C$DW$261       .dwtag  DW_TAG_TI_branch
    2976                      .dwattr $C$DW$261, DW_AT_low_pc(0x00)
    2977                      .dwattr $C$DW$261, DW_AT_name("_USB_initEndptObj")
    2978                      .dwattr $C$DW$261, DW_AT_TI_call
    2979              
    2980 000a30 6C00          CALL #_USB_initEndptObj ; |305| 
         000a32 0000!
    2981 000a34 3D09  ||      MOV #0, AR1
    2982              
    2983                                                      ; call occurs [#_USB_initEndptObj] ; |305| 
    2984 000a36 C40E          MOV T0, *SP(#7) ; |305| 
    2985                      .dwpsn  file "../c5535_bsl_revc/ezdsp5535_v1/c55xx_csl/src/csl_msc.c",line 312,column 3,is_stmt
    2986 000a38 2249          MOV T0, AR1
    2987 000a3a 6D19          BCC $C$L62,AR1 != #0 ; |312| 
         000a3c 0154 
    2988                                                      ; branchcc occurs ; |312| 
    2989                      .dwpsn  file "../c5535_bsl_revc/ezdsp5535_v1/c55xx_csl/src/csl_msc.c",line 314,column 4,is_stmt
    2990                      .dwpsn  file "../c5535_bsl_revc/ezdsp5535_v1/c55xx_csl/src/csl_msc.c",line 318,column 3,is_stmt
    2991 000a3e E612          MOV #33, *SP(#9) ; |318| 
TMS320C55x Assembler PC v4.4.1 Tue Oct 02 02:33:20 2018

Tools Copyright (c) 1996-2012 Texas Instruments Incorporated
csl_msc.asm                                                          PAGE   68

         000a40 21   
    2992                      .dwpsn  file "../c5535_bsl_revc/ezdsp5535_v1/c55xx_csl/src/csl_msc.c",line 319,column 3,is_stmt
    2993 000a41 ED08          MOV dbl(*SP(#4)), XAR3
         000a43 BF   
    2994 000a44 ED08          MOV dbl(*SP(#4)), XAR0
         000a46 8F   
    2995 000a47 A46D          MOV *AR3(#20), T0 ; |319| 
         000a49 0014 
    2996 000a4b ED00          MOV dbl(*SP(#0)), XAR3
         000a4d BF   
    2997 000a4e AA14          MOV *SP(#10), AR2 ; |319| 
    2998 000a50 B40F          AMAR *+AR0(#496) ; |319| 
         000a52 01F0 
    2999 000a54 ED6D          MOV dbl(*AR3(#12)), AC0 ; |319| 
         000a56 0800 
         000a58 0C   
    3000              
    3001 000a59 AB12          MOV *SP(#9), AR3 ; |319| 
    3002 000a5b 3D95  ||      MOV #9, T1
    3003              
    3004              $C$DW$262       .dwtag  DW_TAG_TI_branch
    3005                      .dwattr $C$DW$262, DW_AT_low_pc(0x00)
    3006                      .dwattr $C$DW$262, DW_AT_name("_USB_initEndptObj")
    3007                      .dwattr $C$DW$262, DW_AT_TI_call
    3008              
    3009 000a5d 6C00          CALL #_USB_initEndptObj ; |319| 
         000a5f 0000!
    3010 000a61 3D19  ||      MOV #1, AR1
    3011              
    3012                                                      ; call occurs [#_USB_initEndptObj] ; |319| 
    3013 000a63 C40E          MOV T0, *SP(#7) ; |319| 
    3014                      .dwpsn  file "../c5535_bsl_revc/ezdsp5535_v1/c55xx_csl/src/csl_msc.c",line 326,column 3,is_stmt
    3015 000a65 2249          MOV T0, AR1
    3016 000a67 6D19          BCC $C$L62,AR1 != #0 ; |326| 
         000a69 0127 
    3017                                                      ; branchcc occurs ; |326| 
    3018                      .dwpsn  file "../c5535_bsl_revc/ezdsp5535_v1/c55xx_csl/src/csl_msc.c",line 328,column 4,is_stmt
    3019                      .dwpsn  file "../c5535_bsl_revc/ezdsp5535_v1/c55xx_csl/src/csl_msc.c",line 332,column 3,is_stmt
    3020 000a6b ED08          MOV dbl(*SP(#4)), XAR3
         000a6d BF   
    3021 000a6e ED08          MOV dbl(*SP(#4)), XAR0
         000a70 8F   
    3022 000a71 A46D          MOV *AR3(#20), T0 ; |332| 
         000a73 0014 
    3023 000a75 ED00          MOV dbl(*SP(#0)), XAR3
         000a77 BF   
    3024 000a78 AA14          MOV *SP(#10), AR2 ; |332| 
    3025 000a7a B40F          AMAR *+AR0(#516) ; |332| 
         000a7c 0204 
    3026 000a7e ED6D          MOV dbl(*AR3(#12)), AC0 ; |332| 
         000a80 0800 
         000a82 0C   
    3027              
    3028 000a83 7600          MOV #32, AR3 ; |332| 
         000a85 20B8 
TMS320C55x Assembler PC v4.4.1 Tue Oct 02 02:33:20 2018

Tools Copyright (c) 1996-2012 Texas Instruments Incorporated
csl_msc.asm                                                          PAGE   69

    3029 000a87 3D25  ||      MOV #2, T1
    3030              
    3031              $C$DW$263       .dwtag  DW_TAG_TI_branch
    3032                      .dwattr $C$DW$263, DW_AT_low_pc(0x00)
    3033                      .dwattr $C$DW$263, DW_AT_name("_USB_initEndptObj")
    3034                      .dwattr $C$DW$263, DW_AT_TI_call
    3035              
    3036 000a89 6C00          CALL #_USB_initEndptObj ; |332| 
         000a8b 0000!
    3037 000a8d 3D19  ||      MOV #1, AR1
    3038              
    3039                                                      ; call occurs [#_USB_initEndptObj] ; |332| 
    3040 000a8f C40E          MOV T0, *SP(#7) ; |332| 
    3041                      .dwpsn  file "../c5535_bsl_revc/ezdsp5535_v1/c55xx_csl/src/csl_msc.c",line 339,column 3,is_stmt
    3042 000a91 2249          MOV T0, AR1
    3043 000a93 6D19          BCC $C$L62,AR1 != #0 ; |339| 
         000a95 00FB 
    3044                                                      ; branchcc occurs ; |339| 
    3045                      .dwpsn  file "../c5535_bsl_revc/ezdsp5535_v1/c55xx_csl/src/csl_msc.c",line 341,column 4,is_stmt
    3046                      .dwpsn  file "../c5535_bsl_revc/ezdsp5535_v1/c55xx_csl/src/csl_msc.c",line 345,column 3,is_stmt
    3047 000a97 ED08          MOV dbl(*SP(#4)), XAR0
         000a99 8F   
    3048              
    3049 000a9a 142C          AADD #44, AR0 ; |345| 
         000a9c 84   
    3050 000a9d 3D04  ||      MOV #0, T0
    3051              
    3052              $C$DW$264       .dwtag  DW_TAG_TI_branch
    3053                      .dwattr $C$DW$264, DW_AT_low_pc(0x00)
    3054                      .dwattr $C$DW$264, DW_AT_name("_USB_setParams")
    3055                      .dwattr $C$DW$264, DW_AT_TI_call
    3056              
    3057 000a9f 6C00          CALL #_USB_setParams ; |345| 
         000aa1 0000!
    3058 000aa3 3D05  ||      MOV #0, T1
    3059              
    3060                                                      ; call occurs [#_USB_setParams] ; |345| 
    3061 000aa5 C40E          MOV T0, *SP(#7) ; |345| 
    3062                      .dwpsn  file "../c5535_bsl_revc/ezdsp5535_v1/c55xx_csl/src/csl_msc.c",line 346,column 3,is_stmt
    3063 000aa7 2249          MOV T0, AR1
    3064 000aa9 6D19          BCC $C$L62,AR1 != #0 ; |346| 
         000aab 00E5 
    3065                                                      ; branchcc occurs ; |346| 
    3066                      .dwpsn  file "../c5535_bsl_revc/ezdsp5535_v1/c55xx_csl/src/csl_msc.c",line 348,column 4,is_stmt
    3067                      .dwpsn  file "../c5535_bsl_revc/ezdsp5535_v1/c55xx_csl/src/csl_msc.c",line 352,column 7,is_stmt
    3068 000aad E610          MOV #0, *SP(#8) ; |352| 
         000aaf 00   
    3069                      .dwpsn  file "../c5535_bsl_revc/ezdsp5535_v1/c55xx_csl/src/csl_msc.c",line 352,column 20,is_stmt
    3070 000ab0 ED08          MOV dbl(*SP(#4)), XAR3
         000ab2 BF   
    3071 000ab3 AA10          MOV *SP(#8), AR2 ; |352| 
    3072 000ab5 A96D          MOV *AR3(#536), AR1 ; |352| 
         000ab7 0218 
    3073 000ab9 1294          CMPU AR2 > AR1, TC1 ; |352| 
         000abb A4   
TMS320C55x Assembler PC v4.4.1 Tue Oct 02 02:33:20 2018

Tools Copyright (c) 1996-2012 Texas Instruments Incorporated
csl_msc.asm                                                          PAGE   70

    3074 000abc 6D64          BCC $C$L59,TC1 ; |352| 
         000abe 00BF 
    3075                                                      ; branchcc occurs ; |352| 
    3076 000ac0       $C$L54:    
    3077 000ac0       $C$DW$L$_MSC_Setup$15$B:
    3078                      .dwpsn  file "../c5535_bsl_revc/ezdsp5535_v1/c55xx_csl/src/csl_msc.c",line 354,column 7,is_stmt
    3079 000ac0 ED6D          MOV dbl(*AR3(#188)), AC0 ; |354| 
         000ac2 0800 
         000ac4 BC   
    3080              $C$DW$265       .dwtag  DW_TAG_TI_branch
    3081                      .dwattr $C$DW$265, DW_AT_low_pc(0x00)
    3082                      .dwattr $C$DW$265, DW_AT_TI_call
    3083                      .dwattr $C$DW$265, DW_AT_TI_indirect
    3084              
    3085 000ac5 9200          CALL AC0  ; |354| 
    3086 000ac7 23A4  ||      MOV AR2, T0 ; |354| 
    3087              
    3088                                                      ; call occurs [AC0] ; |354| 
    3089 000ac9 C40C          MOV T0, *SP(#6) ; |354| 
    3090                      .dwpsn  file "../c5535_bsl_revc/ezdsp5535_v1/c55xx_csl/src/csl_msc.c",line 356,column 7,is_stmt
    3091 000acb ED08          MOV dbl(*SP(#4)), XAR3
         000acd BF   
    3092 000ace A410          MOV *SP(#8), T0 ; |356| 
    3093 000ad0 ED6D          MOV dbl(*AR3(#194)), AC0 ; |356| 
         000ad2 0800 
         000ad4 C2   
    3094              $C$DW$266       .dwtag  DW_TAG_TI_branch
    3095                      .dwattr $C$DW$266, DW_AT_low_pc(0x00)
    3096                      .dwattr $C$DW$266, DW_AT_TI_call
    3097                      .dwattr $C$DW$266, DW_AT_TI_indirect
    3098 000ad5 9200          CALL AC0  ; |356| 
    3099                                                      ; call occurs [AC0] ; |356| 
    3100 000ad7 ED08          MOV dbl(*SP(#4)), XAR3
         000ad9 BF   
    3101 000ada DF10          MOV uns(*SP(#8)), AC1 ; |356| 
         000adc 15   
    3102              
    3103 000ae1 1115          SFTS AC1, #6, AC0 ; |356| 
         000ae3 06   
    3104 000add 7C00  ||      SUB #1, AC0, AC2 ; |356| 
         000adf 0120 
    3105              
    3106 000ae4 1014          SUB AC1 << #1, AC0 ; |356| 
         000ae6 01   
    3107 000ae7 900A          MOV AC0, XAR2
    3108 000ae9 14A1          AADD XAR2, XAR3 ; |356| 
         000aeb B0   
    3109 000aec EB6D          MOV AC2, dbl(*AR3(#250)) ; |356| 
         000aee 2800 
         000af0 FA   
    3110                      .dwpsn  file "../c5535_bsl_revc/ezdsp5535_v1/c55xx_csl/src/csl_msc.c",line 358,column 7,is_stmt
    3111 000af1 F00C          CMP *SP(#6) == #1, TC1 ; |358| 
         000af3 0001 
    3112 000af5 0474          BCC $C$L55,!TC1 ; |358| 
         000af7 19   
TMS320C55x Assembler PC v4.4.1 Tue Oct 02 02:33:20 2018

Tools Copyright (c) 1996-2012 Texas Instruments Incorporated
csl_msc.asm                                                          PAGE   71

    3113                                                      ; branchcc occurs ; |358| 
    3114 000af8       $C$DW$L$_MSC_Setup$15$E:
    3115 000af8       $C$DW$L$_MSC_Setup$16$B:
    3116                      .dwpsn  file "../c5535_bsl_revc/ezdsp5535_v1/c55xx_csl/src/csl_msc.c",line 360,column 5,is_stmt
    3117 000af8 ED08          MOV dbl(*SP(#4)), XAR3
         000afa BF   
    3118 000afb DF10          MOV uns(*SP(#8)), AC1 ; |360| 
         000afd 15   
    3119 000afe 1015          SFTS AC1, #6, AC0 ; |360| 
         000b00 06   
    3120 000b01 1014          SUB AC1 << #1, AC0 ; |360| 
         000b03 01   
    3121 000b04 900A          MOV AC0, XAR2
    3122 000b06 14A1          AADD XAR2, XAR3 ; |360| 
         000b08 B0   
    3123 000b09 E66D          MOV #1, *AR3(#257) ; |360| 
         000b0b 0101 
         000b0d 01   
    3124                      .dwpsn  file "../c5535_bsl_revc/ezdsp5535_v1/c55xx_csl/src/csl_msc.c",line 362,column 4,is_stmt
    3125 000b0e 0600          B $C$L58  ; |362| 
         000b10 5A   
    3126                                                      ; branch occurs ; |362| 
    3127 000b11       $C$DW$L$_MSC_Setup$16$E:
    3128 000b11       $C$L55:    
    3129 000b11       $C$DW$L$_MSC_Setup$17$B:
    3130                      .dwpsn  file "../c5535_bsl_revc/ezdsp5535_v1/c55xx_csl/src/csl_msc.c",line 363,column 12,is_stmt
    3131 000b11 F00C          CMP *SP(#6) == #4, TC1 ; |363| 
         000b13 0004 
    3132 000b15 0474          BCC $C$L56,!TC1 ; |363| 
         000b17 1B   
    3133                                                      ; branchcc occurs ; |363| 
    3134 000b18       $C$DW$L$_MSC_Setup$17$E:
    3135 000b18       $C$DW$L$_MSC_Setup$18$B:
    3136                      .dwpsn  file "../c5535_bsl_revc/ezdsp5535_v1/c55xx_csl/src/csl_msc.c",line 365,column 5,is_stmt
    3137 000b18 ED08          MOV dbl(*SP(#4)), XAR3
         000b1a BF   
    3138 000b1b DF10          MOV uns(*SP(#8)), AC1 ; |365| 
         000b1d 15   
    3139 000b1e 1015          SFTS AC1, #6, AC0 ; |365| 
         000b20 06   
    3140 000b21 1014          SUB AC1 << #1, AC0 ; |365| 
         000b23 01   
    3141 000b24 900A          MOV AC0, XAR2
    3142 000b26 14A1          AADD XAR2, XAR3 ; |365| 
         000b28 B0   
    3143 000b29 E66D          MOV #8, *AR3(#257) ; |365| 
         000b2b 0801 
         000b2d 01   
    3144                      .dwpsn  file "../c5535_bsl_revc/ezdsp5535_v1/c55xx_csl/src/csl_msc.c",line 366,column 5,is_stmt
    3145 000b2e E60E          MOV #-11, *SP(#7) ; |366| 
         000b30 F5   
    3146                      .dwpsn  file "../c5535_bsl_revc/ezdsp5535_v1/c55xx_csl/src/csl_msc.c",line 367,column 4,is_stmt
    3147 000b31 4A38          B $C$L58  ; |367| 
    3148                                                      ; branch occurs ; |367| 
    3149 000b33       $C$DW$L$_MSC_Setup$18$E:
TMS320C55x Assembler PC v4.4.1 Tue Oct 02 02:33:20 2018

Tools Copyright (c) 1996-2012 Texas Instruments Incorporated
csl_msc.asm                                                          PAGE   72

    3150 000b33       $C$L56:    
    3151 000b33       $C$DW$L$_MSC_Setup$19$B:
    3152                      .dwpsn  file "../c5535_bsl_revc/ezdsp5535_v1/c55xx_csl/src/csl_msc.c",line 368,column 12,is_stmt
    3153 000b33 F00C          CMP *SP(#6) == #2, TC1 ; |368| 
         000b35 0002 
    3154 000b37 0474          BCC $C$L57,!TC1 ; |368| 
         000b39 1B   
    3155                                                      ; branchcc occurs ; |368| 
    3156 000b3a       $C$DW$L$_MSC_Setup$19$E:
    3157 000b3a       $C$DW$L$_MSC_Setup$20$B:
    3158                      .dwpsn  file "../c5535_bsl_revc/ezdsp5535_v1/c55xx_csl/src/csl_msc.c",line 370,column 8,is_stmt
    3159 000b3a ED08          MOV dbl(*SP(#4)), XAR3
         000b3c BF   
    3160 000b3d DF10          MOV uns(*SP(#8)), AC1 ; |370| 
         000b3f 15   
    3161 000b40 1015          SFTS AC1, #6, AC0 ; |370| 
         000b42 06   
    3162 000b43 1014          SUB AC1 << #1, AC0 ; |370| 
         000b45 01   
    3163 000b46 900A          MOV AC0, XAR2
    3164 000b48 14A1          AADD XAR2, XAR3 ; |370| 
         000b4a B0   
    3165 000b4b E66D          MOV #0, *AR3(#257) ; |370| 
         000b4d 0001 
         000b4f 01   
    3166                      .dwpsn  file "../c5535_bsl_revc/ezdsp5535_v1/c55xx_csl/src/csl_msc.c",line 371,column 5,is_stmt
    3167 000b50 E60E          MOV #-12, *SP(#7) ; |371| 
         000b52 F4   
    3168                      .dwpsn  file "../c5535_bsl_revc/ezdsp5535_v1/c55xx_csl/src/csl_msc.c",line 372,column 4,is_stmt
    3169 000b53 4A16          B $C$L58  ; |372| 
    3170                                                      ; branch occurs ; |372| 
    3171 000b55       $C$DW$L$_MSC_Setup$20$E:
    3172 000b55       $C$L57:    
    3173 000b55       $C$DW$L$_MSC_Setup$21$B:
    3174                      .dwpsn  file "../c5535_bsl_revc/ezdsp5535_v1/c55xx_csl/src/csl_msc.c",line 377,column 8,is_stmt
    3175 000b55 ED08          MOV dbl(*SP(#4)), XAR3
         000b57 BF   
    3176 000b58 DF10          MOV uns(*SP(#8)), AC1 ; |377| 
         000b5a 15   
    3177 000b5b 1015          SFTS AC1, #6, AC0 ; |377| 
         000b5d 06   
    3178 000b5e 1014          SUB AC1 << #1, AC0 ; |377| 
         000b60 01   
    3179 000b61 900A          MOV AC0, XAR2
    3180 000b63 14A1          AADD XAR2, XAR3 ; |377| 
         000b65 B0   
    3181 000b66 E66D          MOV #0, *AR3(#257) ; |377| 
         000b68 0001 
         000b6a 01   
    3182 000b6b       $C$DW$L$_MSC_Setup$21$E:
    3183 000b6b       $C$L58:    
    3184 000b6b       $C$DW$L$_MSC_Setup$22$B:
    3185                      .dwpsn  file "../c5535_bsl_revc/ezdsp5535_v1/c55xx_csl/src/csl_msc.c",line 352,column 59,is_stmt
    3186 000b6b F710          ADD #1, *SP(#8) ; |352| 
         000b6d 0001 
TMS320C55x Assembler PC v4.4.1 Tue Oct 02 02:33:20 2018

Tools Copyright (c) 1996-2012 Texas Instruments Incorporated
csl_msc.asm                                                          PAGE   73

    3187                      .dwpsn  file "../c5535_bsl_revc/ezdsp5535_v1/c55xx_csl/src/csl_msc.c",line 352,column 20,is_stmt
    3188 000b6f ED08          MOV dbl(*SP(#4)), XAR3
         000b71 BF   
    3189 000b72 AA10          MOV *SP(#8), AR2 ; |352| 
    3190 000b74 A96D          MOV *AR3(#536), AR1 ; |352| 
         000b76 0218 
    3191 000b78 1298          CMPU AR2 <= AR1, TC1 ; |352| 
         000b7a A4   
    3192 000b7b 6D64          BCC $C$L54,TC1 ; |352| 
         000b7d FF41 
    3193                                                      ; branchcc occurs ; |352| 
    3194 000b7f       $C$DW$L$_MSC_Setup$22$E:
    3195 000b7f       $C$L59:    
    3196                      .dwpsn  file "../c5535_bsl_revc/ezdsp5535_v1/c55xx_csl/src/csl_msc.c",line 381,column 3,is_stmt
    3197 000b7f A90E          MOV *SP(#7), AR1 ; |381| 
    3198 000b81 6699          BCC $C$L61,AR1 != #0 ; |381| 
    3199                                                      ; branchcc occurs ; |381| 
    3200                      .dwpsn  file "../c5535_bsl_revc/ezdsp5535_v1/c55xx_csl/src/csl_msc.c",line 384,column 4,is_stmt
    3201 000b83 A46D          MOV *AR3(#20), T0 ; |384| 
         000b85 0014 
    3202              $C$DW$267       .dwtag  DW_TAG_TI_branch
    3203                      .dwattr $C$DW$267, DW_AT_low_pc(0x00)
    3204                      .dwattr $C$DW$267, DW_AT_name("_USB_connectDev")
    3205                      .dwattr $C$DW$267, DW_AT_TI_call
    3206 000b87 6C00          CALL #_USB_connectDev ; |384| 
         000b89 0000!
    3207                                                      ; call occurs [#_USB_connectDev] ; |384| 
    3208                      .dwpsn  file "../c5535_bsl_revc/ezdsp5535_v1/c55xx_csl/src/csl_msc.c",line 386,column 2,is_stmt
    3209 000b8b 4A03          B $C$L61  ; |386| 
    3210                                                      ; branch occurs ; |386| 
    3211 000b8d       $C$L60:    
    3212                      .dwpsn  file "../c5535_bsl_revc/ezdsp5535_v1/c55xx_csl/src/csl_msc.c",line 389,column 3,is_stmt
    3213 000b8d E60E          MOV #-5, *SP(#7) ; |389| 
         000b8f FB   
    3214 000b90       $C$L61:    
    3215                      .dwpsn  file "../c5535_bsl_revc/ezdsp5535_v1/c55xx_csl/src/csl_msc.c",line 392,column 2,is_stmt
    3216 000b90 A40E          MOV *SP(#7), T0 ; |392| 
    3217 000b92       $C$L62:    
    3218                      .dwpsn  file "../c5535_bsl_revc/ezdsp5535_v1/c55xx_csl/src/csl_msc.c",line 393,column 1,is_stmt
    3219 000b92 4E0B          AADD #11, SP
    3220                      .dwcfi  cfa_offset, 1
    3221              $C$DW$268       .dwtag  DW_TAG_TI_branch
    3222                      .dwattr $C$DW$268, DW_AT_low_pc(0x00)
    3223                      .dwattr $C$DW$268, DW_AT_TI_return
    3224 000b94 4804          RET
    3225                                                      ; return occurs
    3226              
    3227              $C$DW$269       .dwtag  DW_TAG_TI_loop
    3228                      .dwattr $C$DW$269, DW_AT_name("F:\eZdsp-DBG-sim\tmp1\c55x-sim2\foo\Debug\csl_msc.asm:$C$L54:1:1538472
    3229                      .dwattr $C$DW$269, DW_AT_TI_begin_file("../c5535_bsl_revc/ezdsp5535_v1/c55xx_csl/src/csl_msc.c")
    3230                      .dwattr $C$DW$269, DW_AT_TI_begin_line(0x160)
    3231                      .dwattr $C$DW$269, DW_AT_TI_end_line(0x17b)
    3232              $C$DW$270       .dwtag  DW_TAG_TI_loop_range
    3233                      .dwattr $C$DW$270, DW_AT_low_pc($C$DW$L$_MSC_Setup$15$B)
    3234                      .dwattr $C$DW$270, DW_AT_high_pc($C$DW$L$_MSC_Setup$15$E)
TMS320C55x Assembler PC v4.4.1 Tue Oct 02 02:33:20 2018

Tools Copyright (c) 1996-2012 Texas Instruments Incorporated
csl_msc.asm                                                          PAGE   74

    3235              $C$DW$271       .dwtag  DW_TAG_TI_loop_range
    3236                      .dwattr $C$DW$271, DW_AT_low_pc($C$DW$L$_MSC_Setup$19$B)
    3237                      .dwattr $C$DW$271, DW_AT_high_pc($C$DW$L$_MSC_Setup$19$E)
    3238              $C$DW$272       .dwtag  DW_TAG_TI_loop_range
    3239                      .dwattr $C$DW$272, DW_AT_low_pc($C$DW$L$_MSC_Setup$17$B)
    3240                      .dwattr $C$DW$272, DW_AT_high_pc($C$DW$L$_MSC_Setup$17$E)
    3241              $C$DW$273       .dwtag  DW_TAG_TI_loop_range
    3242                      .dwattr $C$DW$273, DW_AT_low_pc($C$DW$L$_MSC_Setup$16$B)
    3243                      .dwattr $C$DW$273, DW_AT_high_pc($C$DW$L$_MSC_Setup$16$E)
    3244              $C$DW$274       .dwtag  DW_TAG_TI_loop_range
    3245                      .dwattr $C$DW$274, DW_AT_low_pc($C$DW$L$_MSC_Setup$18$B)
    3246                      .dwattr $C$DW$274, DW_AT_high_pc($C$DW$L$_MSC_Setup$18$E)
    3247              $C$DW$275       .dwtag  DW_TAG_TI_loop_range
    3248                      .dwattr $C$DW$275, DW_AT_low_pc($C$DW$L$_MSC_Setup$20$B)
    3249                      .dwattr $C$DW$275, DW_AT_high_pc($C$DW$L$_MSC_Setup$20$E)
    3250              $C$DW$276       .dwtag  DW_TAG_TI_loop_range
    3251                      .dwattr $C$DW$276, DW_AT_low_pc($C$DW$L$_MSC_Setup$21$B)
    3252                      .dwattr $C$DW$276, DW_AT_high_pc($C$DW$L$_MSC_Setup$21$E)
    3253              $C$DW$277       .dwtag  DW_TAG_TI_loop_range
    3254                      .dwattr $C$DW$277, DW_AT_low_pc($C$DW$L$_MSC_Setup$22$B)
    3255                      .dwattr $C$DW$277, DW_AT_high_pc($C$DW$L$_MSC_Setup$22$E)
    3256                      .dwendtag $C$DW$269
    3257              
    3258                      .dwattr $C$DW$247, DW_AT_TI_end_file("../c5535_bsl_revc/ezdsp5535_v1/c55xx_csl/src/csl_msc.c")
    3259                      .dwattr $C$DW$247, DW_AT_TI_end_line(0x189)
    3260                      .dwattr $C$DW$247, DW_AT_TI_end_column(0x01)
    3261                      .dwendentry
    3262                      .dwendtag $C$DW$247
    3263              
    3264 000b96               .sect   ".text"
    3265                      .align 4
    3266                      .global _MSC_Close
    3267              
    3268              $C$DW$278       .dwtag  DW_TAG_subprogram, DW_AT_name("MSC_Close")
    3269                      .dwattr $C$DW$278, DW_AT_low_pc(_MSC_Close)
    3270                      .dwattr $C$DW$278, DW_AT_high_pc(0x00)
    3271                      .dwattr $C$DW$278, DW_AT_TI_symbol_name("_MSC_Close")
    3272                      .dwattr $C$DW$278, DW_AT_external
    3273                      .dwattr $C$DW$278, DW_AT_type(*$C$DW$T$89)
    3274                      .dwattr $C$DW$278, DW_AT_TI_begin_file("../c5535_bsl_revc/ezdsp5535_v1/c55xx_csl/src/csl_msc.c")
    3275                      .dwattr $C$DW$278, DW_AT_TI_begin_line(0x1b7)
    3276                      .dwattr $C$DW$278, DW_AT_TI_begin_column(0x0c)
    3277                      .dwattr $C$DW$278, DW_AT_TI_max_frame_size(0x08)
    3278                      .dwpsn  file "../c5535_bsl_revc/ezdsp5535_v1/c55xx_csl/src/csl_msc.c",line 440,column 1,is_stmt,addre
    3279              
    3280                      .dwfde $C$DW$CIE, _MSC_Close
    3281              $C$DW$279       .dwtag  DW_TAG_formal_parameter, DW_AT_name("pAppClassHandle")
    3282                      .dwattr $C$DW$279, DW_AT_TI_symbol_name("_pAppClassHandle")
    3283                      .dwattr $C$DW$279, DW_AT_type(*$C$DW$T$102)
    3284                      .dwattr $C$DW$279, DW_AT_location[DW_OP_reg17]
    3285              ;*******************************************************************************
    3286              ;* FUNCTION NAME: MSC_Close                                                    *
    3287              ;*                                                                             *
    3288              ;*   Function Uses Regs : AC0,AC0,T0,AR0,XAR0,AR3,XAR3,SP,M40,SATA,SATD,RDM,   *
    3289              ;*                        FRCT,SMUL                                            *
TMS320C55x Assembler PC v4.4.1 Tue Oct 02 02:33:20 2018

Tools Copyright (c) 1996-2012 Texas Instruments Incorporated
csl_msc.asm                                                          PAGE   75

    3290              ;*   Stack Frame        : Compact (No Frame Pointer, w/ debug)                 *
    3291              ;*   Total Frame Size   : 8 words                                              *
    3292              ;*                        (1 return address/alignment)                         *
    3293              ;*                        (7 local values)                                     *
    3294              ;*   Min System Stack   : 1 word                                               *
    3295              ;*******************************************************************************
    3296 000b98       _MSC_Close:
    3297                      .dwcfi  cfa_offset, 1
    3298                      .dwcfi  save_reg_to_mem, 91, -1
    3299 000b98 4EF9          AADD #-7, SP
    3300                      .dwcfi  cfa_offset, 8
    3301              $C$DW$280       .dwtag  DW_TAG_variable, DW_AT_name("pAppClassHandle")
    3302                      .dwattr $C$DW$280, DW_AT_TI_symbol_name("_pAppClassHandle")
    3303                      .dwattr $C$DW$280, DW_AT_type(*$C$DW$T$102)
    3304                      .dwattr $C$DW$280, DW_AT_location[DW_OP_bregx 0x24 0]
    3305              $C$DW$281       .dwtag  DW_TAG_variable, DW_AT_name("pMscClassHdl")
    3306                      .dwattr $C$DW$281, DW_AT_TI_symbol_name("_pMscClassHdl")
    3307                      .dwattr $C$DW$281, DW_AT_type(*$C$DW$T$98)
    3308                      .dwattr $C$DW$281, DW_AT_location[DW_OP_bregx 0x24 2]
    3309              $C$DW$282       .dwtag  DW_TAG_variable, DW_AT_name("pCtrlHandle")
    3310                      .dwattr $C$DW$282, DW_AT_TI_symbol_name("_pCtrlHandle")
    3311                      .dwattr $C$DW$282, DW_AT_type(*$C$DW$T$99)
    3312                      .dwattr $C$DW$282, DW_AT_location[DW_OP_bregx 0x24 4]
    3313              $C$DW$283       .dwtag  DW_TAG_variable, DW_AT_name("status")
    3314                      .dwattr $C$DW$283, DW_AT_TI_symbol_name("_status")
    3315                      .dwattr $C$DW$283, DW_AT_type(*$C$DW$T$89)
    3316                      .dwattr $C$DW$283, DW_AT_location[DW_OP_bregx 0x24 6]
    3317 000b9a EB00          MOV XAR0, dbl(*SP(#0))
         000b9c 85   
    3318                      .dwpsn  file "../c5535_bsl_revc/ezdsp5535_v1/c55xx_csl/src/csl_msc.c",line 445,column 2,is_stmt
    3319 000b9d ED00          MOV dbl(*SP(#0)), XAR3
         000b9f BF   
    3320 000ba0 ED61          MOV dbl(*AR3), XAR3
         000ba2 BF   
    3321 000ba3 EB04          MOV XAR3, dbl(*SP(#2))
         000ba5 B5   
    3322                      .dwpsn  file "../c5535_bsl_revc/ezdsp5535_v1/c55xx_csl/src/csl_msc.c",line 446,column 2,is_stmt
    3323 000ba6 EB08          MOV XAR3, dbl(*SP(#4))
         000ba8 B5   
    3324                      .dwpsn  file "../c5535_bsl_revc/ezdsp5535_v1/c55xx_csl/src/csl_msc.c",line 447,column 2,is_stmt
    3325 000ba9 E60C          MOV #0, *SP(#6) ; |447| 
         000bab 00   
    3326                      .dwpsn  file "../c5535_bsl_revc/ezdsp5535_v1/c55xx_csl/src/csl_msc.c",line 449,column 2,is_stmt
    3327 000bac ED00          MOV dbl(*SP(#0)), XAR3
         000bae BF   
    3328 000baf 90B0          MOV XAR3, AC0
    3329 000bb1 0400          BCC $C$L63,AC0 == #0 ; |449| 
         000bb3 17   
    3330                                                      ; branchcc occurs ; |449| 
    3331                      .dwpsn  file "../c5535_bsl_revc/ezdsp5535_v1/c55xx_csl/src/csl_msc.c",line 451,column 3,is_stmt
    3332 000bb4 ED08          MOV dbl(*SP(#4)), XAR3
         000bb6 BF   
    3333 000bb7 A46D          MOV *AR3(#20), T0 ; |451| 
         000bb9 0014 
    3334              $C$DW$284       .dwtag  DW_TAG_TI_branch
TMS320C55x Assembler PC v4.4.1 Tue Oct 02 02:33:20 2018

Tools Copyright (c) 1996-2012 Texas Instruments Incorporated
csl_msc.asm                                                          PAGE   76

    3335                      .dwattr $C$DW$284, DW_AT_low_pc(0x00)
    3336                      .dwattr $C$DW$284, DW_AT_name("_USB_disconnectDev")
    3337                      .dwattr $C$DW$284, DW_AT_TI_call
    3338 000bbb 6C00          CALL #_USB_disconnectDev ; |451| 
         000bbd 0000!
    3339                                                      ; call occurs [#_USB_disconnectDev] ; |451| 
    3340 000bbf C40C          MOV T0, *SP(#6) ; |451| 
    3341                      .dwpsn  file "../c5535_bsl_revc/ezdsp5535_v1/c55xx_csl/src/csl_msc.c",line 452,column 3,is_stmt
    3342 000bc1 ED00          MOV dbl(*SP(#0)), XAR3
         000bc3 BF   
    3343 000bc4 3C00          MOV #0, AC0 ; |452| 
    3344 000bc6 EB61          MOV AC0, dbl(*AR3)
         000bc8 08   
    3345                      .dwpsn  file "../c5535_bsl_revc/ezdsp5535_v1/c55xx_csl/src/csl_msc.c",line 453,column 2,is_stmt
    3346 000bc9 4A03          B $C$L64  ; |453| 
    3347                                                      ; branch occurs ; |453| 
    3348 000bcb       $C$L63:    
    3349                      .dwpsn  file "../c5535_bsl_revc/ezdsp5535_v1/c55xx_csl/src/csl_msc.c",line 456,column 3,is_stmt
    3350 000bcb E60C          MOV #-5, *SP(#6) ; |456| 
         000bcd FB   
    3351 000bce       $C$L64:    
    3352                      .dwpsn  file "../c5535_bsl_revc/ezdsp5535_v1/c55xx_csl/src/csl_msc.c",line 459,column 2,is_stmt
    3353 000bce A40C          MOV *SP(#6), T0 ; |459| 
    3354                      .dwpsn  file "../c5535_bsl_revc/ezdsp5535_v1/c55xx_csl/src/csl_msc.c",line 460,column 1,is_stmt
    3355 000bd0 4E07          AADD #7, SP
    3356                      .dwcfi  cfa_offset, 1
    3357              $C$DW$285       .dwtag  DW_TAG_TI_branch
    3358                      .dwattr $C$DW$285, DW_AT_low_pc(0x00)
    3359                      .dwattr $C$DW$285, DW_AT_TI_return
    3360 000bd2 4804          RET
    3361                                                      ; return occurs
    3362                      .dwattr $C$DW$278, DW_AT_TI_end_file("../c5535_bsl_revc/ezdsp5535_v1/c55xx_csl/src/csl_msc.c")
    3363                      .dwattr $C$DW$278, DW_AT_TI_end_line(0x1cc)
    3364                      .dwattr $C$DW$278, DW_AT_TI_end_column(0x01)
    3365                      .dwendentry
    3366                      .dwendtag $C$DW$278
    3367              
    3368 000bd4               .sect   ".text"
    3369                      .align 4
    3370                      .global _MSC_SetLunAttr
    3371              
    3372              $C$DW$286       .dwtag  DW_TAG_subprogram, DW_AT_name("MSC_SetLunAttr")
    3373                      .dwattr $C$DW$286, DW_AT_low_pc(_MSC_SetLunAttr)
    3374                      .dwattr $C$DW$286, DW_AT_high_pc(0x00)
    3375                      .dwattr $C$DW$286, DW_AT_TI_symbol_name("_MSC_SetLunAttr")
    3376                      .dwattr $C$DW$286, DW_AT_external
    3377                      .dwattr $C$DW$286, DW_AT_type(*$C$DW$T$89)
    3378                      .dwattr $C$DW$286, DW_AT_TI_begin_file("../c5535_bsl_revc/ezdsp5535_v1/c55xx_csl/src/csl_msc.c")
    3379                      .dwattr $C$DW$286, DW_AT_TI_begin_line(0x202)
    3380                      .dwattr $C$DW$286, DW_AT_TI_begin_column(0x0c)
    3381                      .dwattr $C$DW$286, DW_AT_TI_max_frame_size(0x0e)
    3382                      .dwpsn  file "../c5535_bsl_revc/ezdsp5535_v1/c55xx_csl/src/csl_msc.c",line 517,column 1,is_stmt,addre
    3383              
    3384                      .dwfde $C$DW$CIE, _MSC_SetLunAttr
    3385              $C$DW$287       .dwtag  DW_TAG_formal_parameter, DW_AT_name("pAppClassHandle")
TMS320C55x Assembler PC v4.4.1 Tue Oct 02 02:33:20 2018

Tools Copyright (c) 1996-2012 Texas Instruments Incorporated
csl_msc.asm                                                          PAGE   77

    3386                      .dwattr $C$DW$287, DW_AT_TI_symbol_name("_pAppClassHandle")
    3387                      .dwattr $C$DW$287, DW_AT_type(*$C$DW$T$102)
    3388                      .dwattr $C$DW$287, DW_AT_location[DW_OP_reg17]
    3389              $C$DW$288       .dwtag  DW_TAG_formal_parameter, DW_AT_name("lunHandle")
    3390                      .dwattr $C$DW$288, DW_AT_TI_symbol_name("_lunHandle")
    3391                      .dwattr $C$DW$288, DW_AT_type(*$C$DW$T$106)
    3392                      .dwattr $C$DW$288, DW_AT_location[DW_OP_reg19]
    3393              $C$DW$289       .dwtag  DW_TAG_formal_parameter, DW_AT_name("lunNum")
    3394                      .dwattr $C$DW$289, DW_AT_TI_symbol_name("_lunNum")
    3395                      .dwattr $C$DW$289, DW_AT_type(*$C$DW$T$25)
    3396                      .dwattr $C$DW$289, DW_AT_location[DW_OP_reg12]
    3397              ;*******************************************************************************
    3398              ;* FUNCTION NAME: MSC_SetLunAttr                                               *
    3399              ;*                                                                             *
    3400              ;*   Function Uses Regs : AC0,AC0,AC1,AC1,T0,AR0,XAR0,AR1,XAR1,AR2,XAR2,AR3,   *
    3401              ;*                        XAR3,AR4,XAR4,SP,CARRY,TC1,M40,SATA,SATD,RDM,FRCT,   *
    3402              ;*                        SMUL                                                 *
    3403              ;*   Stack Frame        : Compact (No Frame Pointer, w/ debug)                 *
    3404              ;*   Total Frame Size   : 14 words                                             *
    3405              ;*                        (1 return address/alignment)                         *
    3406              ;*                        (13 local values)                                    *
    3407              ;*   Min System Stack   : 1 word                                               *
    3408              ;*******************************************************************************
    3409 000bd4       _MSC_SetLunAttr:
    3410                      .dwcfi  cfa_offset, 1
    3411                      .dwcfi  save_reg_to_mem, 91, -1
    3412 000bd4 4EF3          AADD #-13, SP
    3413                      .dwcfi  cfa_offset, 14
    3414              $C$DW$290       .dwtag  DW_TAG_variable, DW_AT_name("pAppClassHandle")
    3415                      .dwattr $C$DW$290, DW_AT_TI_symbol_name("_pAppClassHandle")
    3416                      .dwattr $C$DW$290, DW_AT_type(*$C$DW$T$102)
    3417                      .dwattr $C$DW$290, DW_AT_location[DW_OP_bregx 0x24 0]
    3418              $C$DW$291       .dwtag  DW_TAG_variable, DW_AT_name("lunHandle")
    3419                      .dwattr $C$DW$291, DW_AT_TI_symbol_name("_lunHandle")
    3420                      .dwattr $C$DW$291, DW_AT_type(*$C$DW$T$106)
    3421                      .dwattr $C$DW$291, DW_AT_location[DW_OP_bregx 0x24 2]
    3422              $C$DW$292       .dwtag  DW_TAG_variable, DW_AT_name("lunNum")
    3423                      .dwattr $C$DW$292, DW_AT_TI_symbol_name("_lunNum")
    3424                      .dwattr $C$DW$292, DW_AT_type(*$C$DW$T$25)
    3425                      .dwattr $C$DW$292, DW_AT_location[DW_OP_bregx 0x24 4]
    3426              $C$DW$293       .dwtag  DW_TAG_variable, DW_AT_name("pHandle")
    3427                      .dwattr $C$DW$293, DW_AT_TI_symbol_name("_pHandle")
    3428                      .dwattr $C$DW$293, DW_AT_type(*$C$DW$T$98)
    3429                      .dwattr $C$DW$293, DW_AT_location[DW_OP_bregx 0x24 6]
    3430              $C$DW$294       .dwtag  DW_TAG_variable, DW_AT_name("pMscObj")
    3431                      .dwattr $C$DW$294, DW_AT_TI_symbol_name("_pMscObj")
    3432                      .dwattr $C$DW$294, DW_AT_type(*$C$DW$T$107)
    3433                      .dwattr $C$DW$294, DW_AT_location[DW_OP_bregx 0x24 8]
    3434              $C$DW$295       .dwtag  DW_TAG_variable, DW_AT_name("status")
    3435                      .dwattr $C$DW$295, DW_AT_TI_symbol_name("_status")
    3436                      .dwattr $C$DW$295, DW_AT_type(*$C$DW$T$89)
    3437                      .dwattr $C$DW$295, DW_AT_location[DW_OP_bregx 0x24 10]
    3438              $C$DW$296       .dwtag  DW_TAG_variable, DW_AT_name("copyCntdst")
    3439                      .dwattr $C$DW$296, DW_AT_TI_symbol_name("_copyCntdst")
    3440                      .dwattr $C$DW$296, DW_AT_type(*$C$DW$T$25)
TMS320C55x Assembler PC v4.4.1 Tue Oct 02 02:33:20 2018

Tools Copyright (c) 1996-2012 Texas Instruments Incorporated
csl_msc.asm                                                          PAGE   78

    3441                      .dwattr $C$DW$296, DW_AT_location[DW_OP_bregx 0x24 11]
    3442              $C$DW$297       .dwtag  DW_TAG_variable, DW_AT_name("copyCntsrc")
    3443                      .dwattr $C$DW$297, DW_AT_TI_symbol_name("_copyCntsrc")
    3444                      .dwattr $C$DW$297, DW_AT_type(*$C$DW$T$25)
    3445                      .dwattr $C$DW$297, DW_AT_location[DW_OP_bregx 0x24 12]
    3446 000bd6 C408          MOV T0, *SP(#4) ; |517| 
    3447 000bd8 EB04          MOV XAR1, dbl(*SP(#2))
         000bda 95   
    3448 000bdb EB00          MOV XAR0, dbl(*SP(#0))
         000bdd 85   
    3449                      .dwpsn  file "../c5535_bsl_revc/ezdsp5535_v1/c55xx_csl/src/csl_msc.c",line 524,column 2,is_stmt
    3450 000bde ED00          MOV dbl(*SP(#0)), XAR3
         000be0 BF   
    3451 000be1 ED61          MOV dbl(*AR3), XAR3
         000be3 BF   
    3452 000be4 EB0C          MOV XAR3, dbl(*SP(#6))
         000be6 B5   
    3453                      .dwpsn  file "../c5535_bsl_revc/ezdsp5535_v1/c55xx_csl/src/csl_msc.c",line 525,column 2,is_stmt
    3454 000be7 B46F          AMAR *+AR3(#182) ; |525| 
         000be9 00B6 
    3455 000beb EB10          MOV XAR3, dbl(*SP(#8))
         000bed B5   
    3456                      .dwpsn  file "../c5535_bsl_revc/ezdsp5535_v1/c55xx_csl/src/csl_msc.c",line 526,column 2,is_stmt
    3457 000bee E614          MOV #0, *SP(#10) ; |526| 
         000bf0 00   
    3458                      .dwpsn  file "../c5535_bsl_revc/ezdsp5535_v1/c55xx_csl/src/csl_msc.c",line 528,column 2,is_stmt
    3459 000bf1 ED00          MOV dbl(*SP(#0)), XAR3
         000bf3 BF   
    3460 000bf4 90B0          MOV XAR3, AC0
    3461 000bf6 6D00          BCC $C$L71,AC0 == #0 ; |528| 
         000bf8 022C 
    3462                                                      ; branchcc occurs ; |528| 
    3463 000bfa ED04          MOV dbl(*SP(#2)), XAR3
         000bfc BF   
    3464 000bfd 90B0          MOV XAR3, AC0
    3465 000bff 6D00          BCC $C$L71,AC0 == #0 ; |528| 
         000c01 0223 
    3466                                                      ; branchcc occurs ; |528| 
    3467                      .dwpsn  file "../c5535_bsl_revc/ezdsp5535_v1/c55xx_csl/src/csl_msc.c",line 531,column 3,is_stmt
    3468 000c03 ED10          MOV dbl(*SP(#8)), XAR3
         000c05 BF   
    3469 000c06 DF08          MOV uns(*SP(#4)), AC1 ; |531| 
         000c08 15   
    3470 000c09 1015          SFTS AC1, #6, AC0 ; |531| 
         000c0b 06   
    3471 000c0c 1014          SUB AC1 << #1, AC0 ; |531| 
         000c0e 01   
    3472 000c0f 900A          MOV AC0, XAR2
    3473 000c11 14A1          AADD XAR2, XAR3 ; |531| 
         000c13 B0   
    3474 000c14 ED04          MOV dbl(*SP(#2)), XAR2
         000c16 AF   
    3475 000c17 A959          MOV *AR2(short(#4)), AR1 ; |531| 
    3476 000c19 C96D          MOV AR1, *AR3(#74) ; |531| 
         000c1b 004A 
TMS320C55x Assembler PC v4.4.1 Tue Oct 02 02:33:20 2018

Tools Copyright (c) 1996-2012 Texas Instruments Incorporated
csl_msc.asm                                                          PAGE   79

    3477                      .dwpsn  file "../c5535_bsl_revc/ezdsp5535_v1/c55xx_csl/src/csl_msc.c",line 532,column 3,is_stmt
    3478 000c1d ED10          MOV dbl(*SP(#8)), XAR3
         000c1f BF   
    3479 000c20 DF08          MOV uns(*SP(#4)), AC1 ; |532| 
         000c22 15   
    3480 000c23 1015          SFTS AC1, #6, AC0 ; |532| 
         000c25 06   
    3481 000c26 1014          SUB AC1 << #1, AC0 ; |532| 
         000c28 01   
    3482 000c29 900A          MOV AC0, XAR2
    3483 000c2b 14A1          AADD XAR2, XAR3 ; |532| 
         000c2d B0   
    3484 000c2e ED04          MOV dbl(*SP(#2)), XAR2
         000c30 AF   
    3485 000c31 A94D          MOV *AR2(#30), AR1 ; |532| 
         000c33 001E 
    3486 000c35 C96D          MOV AR1, *AR3(#76) ; |532| 
         000c37 004C 
    3487                      .dwpsn  file "../c5535_bsl_revc/ezdsp5535_v1/c55xx_csl/src/csl_msc.c",line 534,column 3,is_stmt
    3488 000c39 ED10          MOV dbl(*SP(#8)), XAR3
         000c3b BF   
    3489 000c3c DF08          MOV uns(*SP(#4)), AC1 ; |534| 
         000c3e 15   
    3490 000c3f 1015          SFTS AC1, #6, AC0 ; |534| 
         000c41 06   
    3491 000c42 1014          SUB AC1 << #1, AC0 ; |534| 
         000c44 01   
    3492 000c45 900A          MOV AC0, XAR2
    3493 000c47 14A1          AADD XAR2, XAR3 ; |534| 
         000c49 B0   
    3494 000c4a ED04          MOV dbl(*SP(#2)), XAR2
         000c4c AF   
    3495 000c4d ED55          MOV dbl(*AR2(short(#2))), AC0 ; |534| 
         000c4f 08   
    3496 000c50 4210          SUB #1, AC0 ; |534| 
    3497 000c52 EB6D          MOV AC0, dbl(*AR3(#68)) ; |534| 
         000c54 0800 
         000c56 44   
    3498                      .dwpsn  file "../c5535_bsl_revc/ezdsp5535_v1/c55xx_csl/src/csl_msc.c",line 535,column 3,is_stmt
    3499 000c57 ED10          MOV dbl(*SP(#8)), XAR3
         000c59 BF   
    3500 000c5a DF08          MOV uns(*SP(#4)), AC1 ; |535| 
         000c5c 15   
    3501 000c5d 1015          SFTS AC1, #6, AC0 ; |535| 
         000c5f 06   
    3502 000c60 1014          SUB AC1 << #1, AC0 ; |535| 
         000c62 01   
    3503 000c63 900A          MOV AC0, XAR2
    3504 000c65 14A1          AADD XAR2, XAR3 ; |535| 
         000c67 B0   
    3505 000c68 E66D          MOV #0, *AR3(#75) ; |535| 
         000c6a 0000 
         000c6c 4B   
    3506                      .dwpsn  file "../c5535_bsl_revc/ezdsp5535_v1/c55xx_csl/src/csl_msc.c",line 536,column 3,is_stmt
    3507 000c6d ED10          MOV dbl(*SP(#8)), XAR3
TMS320C55x Assembler PC v4.4.1 Tue Oct 02 02:33:20 2018

Tools Copyright (c) 1996-2012 Texas Instruments Incorporated
csl_msc.asm                                                          PAGE   80

         000c6f BF   
    3508 000c70 DF08          MOV uns(*SP(#4)), AC1 ; |536| 
         000c72 15   
    3509 000c73 1015          SFTS AC1, #6, AC0 ; |536| 
         000c75 06   
    3510 000c76 1014          SUB AC1 << #1, AC0 ; |536| 
         000c78 01   
    3511 000c79 900A          MOV AC0, XAR2
    3512 000c7b 14A1          AADD XAR2, XAR3 ; |536| 
         000c7d B0   
    3513 000c7e ED04          MOV dbl(*SP(#2)), XAR2
         000c80 AF   
    3514 000c81 1448          AADD #72, AR3 ; |536| 
         000c83 B4   
    3515 000c84 8041          MOV dbl(*AR2), dbl(*AR3) ; |536| 
         000c86 80   
    3516                      .dwpsn  file "../c5535_bsl_revc/ezdsp5535_v1/c55xx_csl/src/csl_msc.c",line 539,column 3,is_stmt
    3517 000c87 ED10          MOV dbl(*SP(#8)), XAR3
         000c89 BF   
    3518 000c8a DF08          MOV uns(*SP(#4)), AC1 ; |539| 
         000c8c 15   
    3519 000c8d 1015          SFTS AC1, #6, AC0 ; |539| 
         000c8f 06   
    3520 000c90 1014          SUB AC1 << #1, AC0 ; |539| 
         000c92 01   
    3521 000c93 900A          MOV AC0, XAR2
    3522 000c95 14A1          AADD XAR2, XAR3 ; |539| 
         000c97 B0   
    3523 000c98 E66D          MOV #96, *AR3(#18) ; |539| 
         000c9a 6000 
         000c9c 12   
    3524                      .dwpsn  file "../c5535_bsl_revc/ezdsp5535_v1/c55xx_csl/src/csl_msc.c",line 540,column 3,is_stmt
    3525 000c9d ED10          MOV dbl(*SP(#8)), XAR3
         000c9f BF   
    3526 000ca0 DF08          MOV uns(*SP(#4)), AC1 ; |540| 
         000ca2 15   
    3527 000ca3 1015          SFTS AC1, #6, AC0 ; |540| 
         000ca5 06   
    3528 000ca6 1014          SUB AC1 << #1, AC0 ; |540| 
         000ca8 01   
    3529 000ca9 900A          MOV AC0, XAR2
    3530 000cab 14A1          AADD XAR2, XAR3 ; |540| 
         000cad B0   
    3531 000cae E66D          MOV #0, *AR3(#19) ; |540| 
         000cb0 0000 
         000cb2 13   
    3532                      .dwpsn  file "../c5535_bsl_revc/ezdsp5535_v1/c55xx_csl/src/csl_msc.c",line 541,column 3,is_stmt
    3533 000cb3 ED10          MOV dbl(*SP(#8)), XAR3
         000cb5 BF   
    3534 000cb6 DF08          MOV uns(*SP(#4)), AC1 ; |541| 
         000cb8 15   
    3535 000cb9 1015          SFTS AC1, #6, AC0 ; |541| 
         000cbb 06   
    3536 000cbc 1014          SUB AC1 << #1, AC0 ; |541| 
         000cbe 01   
TMS320C55x Assembler PC v4.4.1 Tue Oct 02 02:33:20 2018

Tools Copyright (c) 1996-2012 Texas Instruments Incorporated
csl_msc.asm                                                          PAGE   81

    3537 000cbf 900A          MOV AC0, XAR2
    3538 000cc1 14A1          AADD XAR2, XAR3 ; |541| 
         000cc3 B0   
    3539 000cc4 FB6D          MOV #512, *AR3(#21) ; |541| 
         000cc6 0200 
         000cc8 0015 
    3540                      .dwpsn  file "../c5535_bsl_revc/ezdsp5535_v1/c55xx_csl/src/csl_msc.c",line 542,column 3,is_stmt
    3541 000cca ED10          MOV dbl(*SP(#8)), XAR3
         000ccc BF   
    3542 000ccd DF08          MOV uns(*SP(#4)), AC1 ; |542| 
         000ccf 15   
    3543 000cd0 1015          SFTS AC1, #6, AC0 ; |542| 
         000cd2 06   
    3544 000cd3 1014          SUB AC1 << #1, AC0 ; |542| 
         000cd5 01   
    3545 000cd6 900A          MOV AC0, XAR2
    3546 000cd8 14A1          AADD XAR2, XAR3 ; |542| 
         000cda B0   
    3547 000cdb E66D          MOV #92, *AR3(#22) ; |542| 
         000cdd 5C00 
         000cdf 16   
    3548                      .dwpsn  file "../c5535_bsl_revc/ezdsp5535_v1/c55xx_csl/src/csl_msc.c",line 543,column 3,is_stmt
    3549 000ce0 ED10          MOV dbl(*SP(#8)), XAR3
         000ce2 BF   
    3550 000ce3 DF08          MOV uns(*SP(#4)), AC1 ; |543| 
         000ce5 15   
    3551 000ce6 1015          SFTS AC1, #6, AC0 ; |543| 
         000ce8 06   
    3552 000ce9 1014          SUB AC1 << #1, AC0 ; |543| 
         000ceb 01   
    3553 000cec 900A          MOV AC0, XAR2
    3554 000cee 14A1          AADD XAR2, XAR3 ; |543| 
         000cf0 B0   
    3555 000cf1 E66D          MOV #0, *AR3(#23) ; |543| 
         000cf3 0000 
         000cf5 17   
    3556                      .dwpsn  file "../c5535_bsl_revc/ezdsp5535_v1/c55xx_csl/src/csl_msc.c",line 546,column 3,is_stmt
    3557 000cf6 E618          MOV #0, *SP(#12) ; |546| 
         000cf8 00   
    3558                      .dwpsn  file "../c5535_bsl_revc/ezdsp5535_v1/c55xx_csl/src/csl_msc.c",line 547,column 7,is_stmt
    3559 000cf9 E616          MOV #6, *SP(#11) ; |547| 
         000cfb 06   
    3560                      .dwpsn  file "../c5535_bsl_revc/ezdsp5535_v1/c55xx_csl/src/csl_msc.c",line 548,column 7,is_stmt
    3561 000cfc 7600          MOV #30, AR2 ; |548| 
         000cfe 1EA8 
    3562 000d00 A916          MOV *SP(#11), AR1 ; |548| 
    3563 000d02 1298          CMPU AR1 >= AR2, TC1 ; |548| 
         000d04 A4   
    3564 000d05 0464          BCC $C$L66,TC1 ; |548| 
         000d07 3E   
    3565                                                      ; branchcc occurs ; |548| 
    3566 000d08       $C$L65:    
    3567 000d08       $C$DW$L$_MSC_SetLunAttr$4$B:
    3568                      .dwpsn  file "../c5535_bsl_revc/ezdsp5535_v1/c55xx_csl/src/csl_msc.c",line 550,column 4,is_stmt
    3569 000d08 ED10          MOV dbl(*SP(#8)), XAR3
TMS320C55x Assembler PC v4.4.1 Tue Oct 02 02:33:20 2018

Tools Copyright (c) 1996-2012 Texas Instruments Incorporated
csl_msc.asm                                                          PAGE   82

         000d0a BF   
    3570 000d0b DF08          MOV uns(*SP(#4)), AC1 ; |550| 
         000d0d 15   
    3571 000d0e 1015          SFTS AC1, #6, AC0 ; |550| 
         000d10 06   
    3572 000d11 1014          SUB AC1 << #1, AC0 ; |550| 
         000d13 01   
    3573 000d14 900A          MOV AC0, XAR2
    3574              
    3575                      AADD XAR2, XAR3 ; |550| 
    3576 000d16 8D16  ||      MOV uns(*SP(#11)), AC0 ; |550| 
         000d18 BF18 
         000d1a 05A1 
    3577              
    3578 000d1c 900A          MOV AC0, XAR2
    3579 000d1e DF18          MOV uns(*SP(#12)), AC0 ; |550| 
         000d20 05   
    3580 000d21 900C          MOV AC0, XAR4
    3581 000d23 14A1          AADD XAR2, XAR3 ; |550| 
         000d25 B0   
    3582 000d26 ED04          MOV dbl(*SP(#2)), XAR2
         000d28 AF   
    3583 000d29 14C1          AADD XAR4, XAR2 ; |550| 
         000d2b A0   
    3584 000d2c A95B          MOV *AR2(short(#5)), AR1 ; |550| 
    3585 000d2e C96D          MOV AR1, *AR3(#18) ; |550| 
         000d30 0012 
    3586                      .dwpsn  file "../c5535_bsl_revc/ezdsp5535_v1/c55xx_csl/src/csl_msc.c",line 548,column 41,is_stmt
    3587 000d32 F716          ADD #1, *SP(#11) ; |548| 
         000d34 0001 
    3588 000d36 F718          ADD #1, *SP(#12) ; |548| 
         000d38 0001 
    3589                      .dwpsn  file "../c5535_bsl_revc/ezdsp5535_v1/c55xx_csl/src/csl_msc.c",line 548,column 7,is_stmt
    3590 000d3a 7600          MOV #30, AR2 ; |548| 
         000d3c 1EA8 
    3591 000d3e A916          MOV *SP(#11), AR1 ; |548| 
    3592 000d40 1294          CMPU AR1 < AR2, TC1 ; |548| 
         000d42 A4   
    3593 000d43 0464          BCC $C$L65,TC1 ; |548| 
         000d45 C2   
    3594                                                      ; branchcc occurs ; |548| 
    3595 000d46       $C$DW$L$_MSC_SetLunAttr$4$E:
    3596 000d46       $C$L66:    
    3597                      .dwpsn  file "../c5535_bsl_revc/ezdsp5535_v1/c55xx_csl/src/csl_msc.c",line 555,column 3,is_stmt
    3598 000d46 ED10          MOV dbl(*SP(#8)), XAR3
         000d48 BF   
    3599 000d49 DF08          MOV uns(*SP(#4)), AC1 ; |555| 
         000d4b 15   
    3600 000d4c 1015          SFTS AC1, #6, AC0 ; |555| 
         000d4e 06   
    3601 000d4f 1014          SUB AC1 << #1, AC0 ; |555| 
         000d51 01   
    3602 000d52 900A          MOV AC0, XAR2
    3603 000d54 14A1          AADD XAR2, XAR3 ; |555| 
         000d56 B0   
TMS320C55x Assembler PC v4.4.1 Tue Oct 02 02:33:20 2018

Tools Copyright (c) 1996-2012 Texas Instruments Incorporated
csl_msc.asm                                                          PAGE   83

    3604 000d57 E66D          MOV #0, *AR3(#48) ; |555| 
         000d59 0000 
         000d5b 30   
    3605                      .dwpsn  file "../c5535_bsl_revc/ezdsp5535_v1/c55xx_csl/src/csl_msc.c",line 557,column 3,is_stmt
    3606 000d5c ED10          MOV dbl(*SP(#8)), XAR3
         000d5e BF   
    3607 000d5f DF08          MOV uns(*SP(#4)), AC1 ; |557| 
         000d61 15   
    3608 000d62 1015          SFTS AC1, #6, AC0 ; |557| 
         000d64 06   
    3609 000d65 1014          SUB AC1 << #1, AC0 ; |557| 
         000d67 01   
    3610 000d68 900A          MOV AC0, XAR2
    3611 000d6a 14A1          AADD XAR2, XAR3 ; |557| 
         000d6c B0   
    3612 000d6d FB6D          MOV #8194, *AR3(#49) ; |557| 
         000d6f 2002 
         000d71 0031 
    3613                      .dwpsn  file "../c5535_bsl_revc/ezdsp5535_v1/c55xx_csl/src/csl_msc.c",line 559,column 3,is_stmt
    3614 000d73 ED10          MOV dbl(*SP(#8)), XAR3
         000d75 BF   
    3615 000d76 DF08          MOV uns(*SP(#4)), AC1 ; |559| 
         000d78 15   
    3616 000d79 1015          SFTS AC1, #6, AC0 ; |559| 
         000d7b 06   
    3617 000d7c 1014          SUB AC1 << #1, AC0 ; |559| 
         000d7e 01   
    3618 000d7f 900A          MOV AC0, XAR2
    3619 000d81 14A1          AADD XAR2, XAR3 ; |559| 
         000d83 B0   
    3620 000d84 FB6D          MOV #14338, *AR3(#50) ; |559| 
         000d86 3802 
         000d88 0032 
    3621                      .dwpsn  file "../c5535_bsl_revc/ezdsp5535_v1/c55xx_csl/src/csl_msc.c",line 561,column 8,is_stmt
    3622 000d8a E616          MOV #33, *SP(#11) ; |561| 
         000d8c 21   
    3623                      .dwpsn  file "../c5535_bsl_revc/ezdsp5535_v1/c55xx_csl/src/csl_msc.c",line 562,column 8,is_stmt
    3624 000d8d 7600          MOV #50, AR2 ; |562| 
         000d8f 32A8 
    3625 000d91 A916          MOV *SP(#11), AR1 ; |562| 
    3626 000d93 1298          CMPU AR1 >= AR2, TC1 ; |562| 
         000d95 A4   
    3627 000d96 0464          BCC $C$L68,TC1 ; |562| 
         000d98 2E   
    3628                                                      ; branchcc occurs ; |562| 
    3629 000d99       $C$L67:    
    3630 000d99       $C$DW$L$_MSC_SetLunAttr$6$B:
    3631                      .dwpsn  file "../c5535_bsl_revc/ezdsp5535_v1/c55xx_csl/src/csl_msc.c",line 564,column 4,is_stmt
    3632 000d99 ED10          MOV dbl(*SP(#8)), XAR3
         000d9b BF   
    3633 000d9c DF08          MOV uns(*SP(#4)), AC1 ; |564| 
         000d9e 15   
    3634 000d9f 1015          SFTS AC1, #6, AC0 ; |564| 
         000da1 06   
    3635 000da2 1014          SUB AC1 << #1, AC0 ; |564| 
TMS320C55x Assembler PC v4.4.1 Tue Oct 02 02:33:20 2018

Tools Copyright (c) 1996-2012 Texas Instruments Incorporated
csl_msc.asm                                                          PAGE   84

         000da4 01   
    3636 000da5 900A          MOV AC0, XAR2
    3637              
    3638                      AADD XAR2, XAR3 ; |564| 
    3639 000da7 8D16  ||      MOV uns(*SP(#11)), AC0 ; |564| 
         000da9 BF18 
         000dab 05A1 
    3640              
    3641 000dad 900A          MOV AC0, XAR2
    3642 000daf 14A1          AADD XAR2, XAR3 ; |564| 
         000db1 B0   
    3643 000db2 E66D          MOV #0, *AR3(#18) ; |564| 
         000db4 0000 
         000db6 12   
    3644                      .dwpsn  file "../c5535_bsl_revc/ezdsp5535_v1/c55xx_csl/src/csl_msc.c",line 562,column 42,is_stmt
    3645 000db7 F716          ADD #1, *SP(#11) ; |562| 
         000db9 0001 
    3646                      .dwpsn  file "../c5535_bsl_revc/ezdsp5535_v1/c55xx_csl/src/csl_msc.c",line 562,column 8,is_stmt
    3647 000dbb 7600          MOV #50, AR2 ; |562| 
         000dbd 32A8 
    3648 000dbf A916          MOV *SP(#11), AR1 ; |562| 
    3649 000dc1 1294          CMPU AR1 < AR2, TC1 ; |562| 
         000dc3 A4   
    3650 000dc4 0464          BCC $C$L67,TC1 ; |562| 
         000dc6 D2   
    3651                                                      ; branchcc occurs ; |562| 
    3652 000dc7       $C$DW$L$_MSC_SetLunAttr$6$E:
    3653 000dc7       $C$L68:    
    3654                      .dwpsn  file "../c5535_bsl_revc/ezdsp5535_v1/c55xx_csl/src/csl_msc.c",line 569,column 3,is_stmt
    3655 000dc7 ED10          MOV dbl(*SP(#8)), XAR3
         000dc9 BF   
    3656 000dca DF08          MOV uns(*SP(#4)), AC1 ; |569| 
         000dcc 15   
    3657 000dcd 1015          SFTS AC1, #6, AC0 ; |569| 
         000dcf 06   
    3658 000dd0 1014          SUB AC1 << #1, AC0 ; |569| 
         000dd2 01   
    3659 000dd3 900A          MOV AC0, XAR2
    3660 000dd5 14A1          AADD XAR2, XAR3 ; |569| 
         000dd7 B0   
    3661 000dd8 A96D          MOV *AR3(#74), AR1 ; |569| 
         000dda 004A 
    3662 000ddc 0409          BCC $C$L69,AR1 == #0 ; |569| 
         000dde 19   
    3663                                                      ; branchcc occurs ; |569| 
    3664                      .dwpsn  file "../c5535_bsl_revc/ezdsp5535_v1/c55xx_csl/src/csl_msc.c",line 571,column 4,is_stmt
    3665 000ddf ED10          MOV dbl(*SP(#8)), XAR3
         000de1 BF   
    3666 000de2 DF08          MOV uns(*SP(#4)), AC1 ; |571| 
         000de4 15   
    3667 000de5 1015          SFTS AC1, #6, AC0 ; |571| 
         000de7 06   
    3668 000de8 1014          SUB AC1 << #1, AC0 ; |571| 
         000dea 01   
    3669 000deb 900A          MOV AC0, XAR2
TMS320C55x Assembler PC v4.4.1 Tue Oct 02 02:33:20 2018

Tools Copyright (c) 1996-2012 Texas Instruments Incorporated
csl_msc.asm                                                          PAGE   85

    3670 000ded 14A1          AADD XAR2, XAR3 ; |571| 
         000def B0   
    3671 000df0 FB6D          MOV #32768, *AR3(#20) ; |571| 
         000df2 8000 
         000df4 0014 
    3672                      .dwpsn  file "../c5535_bsl_revc/ezdsp5535_v1/c55xx_csl/src/csl_msc.c",line 572,column 3,is_stmt
    3673 000df6 4A16          B $C$L70  ; |572| 
    3674                                                      ; branch occurs ; |572| 
    3675 000df8       $C$L69:    
    3676                      .dwpsn  file "../c5535_bsl_revc/ezdsp5535_v1/c55xx_csl/src/csl_msc.c",line 575,column 4,is_stmt
    3677 000df8 ED10          MOV dbl(*SP(#8)), XAR3
         000dfa BF   
    3678 000dfb DF08          MOV uns(*SP(#4)), AC1 ; |575| 
         000dfd 15   
    3679 000dfe 1015          SFTS AC1, #6, AC0 ; |575| 
         000e00 06   
    3680 000e01 1014          SUB AC1 << #1, AC0 ; |575| 
         000e03 01   
    3681 000e04 900A          MOV AC0, XAR2
    3682 000e06 14A1          AADD XAR2, XAR3 ; |575| 
         000e08 B0   
    3683 000e09 E66D          MOV #0, *AR3(#20) ; |575| 
         000e0b 0000 
         000e0d 14   
    3684 000e0e       $C$L70:    
    3685                      .dwpsn  file "../c5535_bsl_revc/ezdsp5535_v1/c55xx_csl/src/csl_msc.c",line 577,column 3,is_stmt
    3686 000e0e ED10          MOV dbl(*SP(#8)), XAR3
         000e10 BF   
    3687 000e11 DF08          MOV uns(*SP(#4)), AC1 ; |577| 
         000e13 15   
    3688 000e14 1015          SFTS AC1, #6, AC0 ; |577| 
         000e16 06   
    3689 000e17 1014          SUB AC1 << #1, AC0 ; |577| 
         000e19 01   
    3690 000e1a 900A          MOV AC0, XAR2
    3691 000e1c 14A1          AADD XAR2, XAR3 ; |577| 
         000e1e B0   
    3692 000e1f E66D          MOV #0, *AR3(#78) ; |577| 
         000e21 0000 
         000e23 4E   
    3693                      .dwpsn  file "../c5535_bsl_revc/ezdsp5535_v1/c55xx_csl/src/csl_msc.c",line 578,column 2,is_stmt
    3694 000e24 4A03          B $C$L72  ; |578| 
    3695                                                      ; branch occurs ; |578| 
    3696 000e26       $C$L71:    
    3697                      .dwpsn  file "../c5535_bsl_revc/ezdsp5535_v1/c55xx_csl/src/csl_msc.c",line 581,column 3,is_stmt
    3698 000e26 E614          MOV #-5, *SP(#10) ; |581| 
         000e28 FB   
    3699 000e29       $C$L72:    
    3700                      .dwpsn  file "../c5535_bsl_revc/ezdsp5535_v1/c55xx_csl/src/csl_msc.c",line 584,column 2,is_stmt
    3701 000e29 A414          MOV *SP(#10), T0 ; |584| 
    3702                      .dwpsn  file "../c5535_bsl_revc/ezdsp5535_v1/c55xx_csl/src/csl_msc.c",line 585,column 1,is_stmt
    3703 000e2b 4E0D          AADD #13, SP
    3704                      .dwcfi  cfa_offset, 1
    3705              $C$DW$298       .dwtag  DW_TAG_TI_branch
    3706                      .dwattr $C$DW$298, DW_AT_low_pc(0x00)
TMS320C55x Assembler PC v4.4.1 Tue Oct 02 02:33:20 2018

Tools Copyright (c) 1996-2012 Texas Instruments Incorporated
csl_msc.asm                                                          PAGE   86

    3707                      .dwattr $C$DW$298, DW_AT_TI_return
    3708 000e2d 4804          RET
    3709                                                      ; return occurs
    3710              
    3711              $C$DW$299       .dwtag  DW_TAG_TI_loop
    3712                      .dwattr $C$DW$299, DW_AT_name("F:\eZdsp-DBG-sim\tmp1\c55x-sim2\foo\Debug\csl_msc.asm:$C$L67:1:1538472
    3713                      .dwattr $C$DW$299, DW_AT_TI_begin_file("../c5535_bsl_revc/ezdsp5535_v1/c55xx_csl/src/csl_msc.c")
    3714                      .dwattr $C$DW$299, DW_AT_TI_begin_line(0x231)
    3715                      .dwattr $C$DW$299, DW_AT_TI_end_line(0x236)
    3716              $C$DW$300       .dwtag  DW_TAG_TI_loop_range
    3717                      .dwattr $C$DW$300, DW_AT_low_pc($C$DW$L$_MSC_SetLunAttr$6$B)
    3718                      .dwattr $C$DW$300, DW_AT_high_pc($C$DW$L$_MSC_SetLunAttr$6$E)
    3719                      .dwendtag $C$DW$299
    3720              
    3721              
    3722              $C$DW$301       .dwtag  DW_TAG_TI_loop
    3723                      .dwattr $C$DW$301, DW_AT_name("F:\eZdsp-DBG-sim\tmp1\c55x-sim2\foo\Debug\csl_msc.asm:$C$L65:1:1538472
    3724                      .dwattr $C$DW$301, DW_AT_TI_begin_file("../c5535_bsl_revc/ezdsp5535_v1/c55xx_csl/src/csl_msc.c")
    3725                      .dwattr $C$DW$301, DW_AT_TI_begin_line(0x223)
    3726                      .dwattr $C$DW$301, DW_AT_TI_end_line(0x228)
    3727              $C$DW$302       .dwtag  DW_TAG_TI_loop_range
    3728                      .dwattr $C$DW$302, DW_AT_low_pc($C$DW$L$_MSC_SetLunAttr$4$B)
    3729                      .dwattr $C$DW$302, DW_AT_high_pc($C$DW$L$_MSC_SetLunAttr$4$E)
    3730                      .dwendtag $C$DW$301
    3731              
    3732                      .dwattr $C$DW$286, DW_AT_TI_end_file("../c5535_bsl_revc/ezdsp5535_v1/c55xx_csl/src/csl_msc.c")
    3733                      .dwattr $C$DW$286, DW_AT_TI_end_line(0x249)
    3734                      .dwattr $C$DW$286, DW_AT_TI_end_column(0x01)
    3735                      .dwendentry
    3736                      .dwendtag $C$DW$286
    3737              
    3738 000e2f               .sect   ".text"
    3739                      .align 4
    3740                      .global _MSC_Ctrl
    3741              
    3742              $C$DW$303       .dwtag  DW_TAG_subprogram, DW_AT_name("MSC_Ctrl")
    3743                      .dwattr $C$DW$303, DW_AT_low_pc(_MSC_Ctrl)
    3744                      .dwattr $C$DW$303, DW_AT_high_pc(0x00)
    3745                      .dwattr $C$DW$303, DW_AT_TI_symbol_name("_MSC_Ctrl")
    3746                      .dwattr $C$DW$303, DW_AT_external
    3747                      .dwattr $C$DW$303, DW_AT_type(*$C$DW$T$89)
    3748                      .dwattr $C$DW$303, DW_AT_TI_begin_file("../c5535_bsl_revc/ezdsp5535_v1/c55xx_csl/src/csl_msc.c")
    3749                      .dwattr $C$DW$303, DW_AT_TI_begin_line(0x27a)
    3750                      .dwattr $C$DW$303, DW_AT_TI_begin_column(0x0c)
    3751                      .dwattr $C$DW$303, DW_AT_TI_max_frame_size(0x10)
    3752                      .dwpsn  file "../c5535_bsl_revc/ezdsp5535_v1/c55xx_csl/src/csl_msc.c",line 635,column 1,is_stmt,addre
    3753              
    3754                      .dwfde $C$DW$CIE, _MSC_Ctrl
    3755              $C$DW$304       .dwtag  DW_TAG_formal_parameter, DW_AT_name("pMSC")
    3756                      .dwattr $C$DW$304, DW_AT_TI_symbol_name("_pMSC")
    3757                      .dwattr $C$DW$304, DW_AT_type(*$C$DW$T$3)
    3758                      .dwattr $C$DW$304, DW_AT_location[DW_OP_reg17]
    3759              ;*******************************************************************************
    3760              ;* FUNCTION NAME: MSC_Ctrl                                                     *
    3761              ;*                                                                             *
TMS320C55x Assembler PC v4.4.1 Tue Oct 02 02:33:20 2018

Tools Copyright (c) 1996-2012 Texas Instruments Incorporated
csl_msc.asm                                                          PAGE   87

    3762              ;*   Function Uses Regs : AC0,AC0,T0,T1,T2,AR0,XAR0,AR1,XAR1,AR2,XAR2,AR3,XAR3,*
    3763              ;*                        SP,CARRY,TC1,M40,SATA,SATD,RDM,FRCT,SMUL             *
    3764              ;*   Save On Entry Regs : T2                                                   *
    3765              ;*   Stack Frame        : Compact (No Frame Pointer, w/ debug)                 *
    3766              ;*   Total Frame Size   : 16 words                                             *
    3767              ;*                        (1 return address/alignment)                         *
    3768              ;*                        (14 local values)                                    *
    3769              ;*                        (1 register save area)                               *
    3770              ;*   Min System Stack   : 1 word                                               *
    3771              ;*******************************************************************************
    3772 000e30       _MSC_Ctrl:
    3773                      .dwcfi  cfa_offset, 1
    3774                      .dwcfi  save_reg_to_mem, 91, -1
    3775 000e30 5066          PSH T2
    3776                      .dwcfi  cfa_offset, 2
    3777                      .dwcfi  save_reg_to_mem, 14, -2
    3778 000e32 4EF2          AADD #-14, SP
    3779                      .dwcfi  cfa_offset, 16
    3780              $C$DW$305       .dwtag  DW_TAG_variable, DW_AT_name("pMSC")
    3781                      .dwattr $C$DW$305, DW_AT_TI_symbol_name("_pMSC")
    3782                      .dwattr $C$DW$305, DW_AT_type(*$C$DW$T$3)
    3783                      .dwattr $C$DW$305, DW_AT_location[DW_OP_bregx 0x24 0]
    3784              $C$DW$306       .dwtag  DW_TAG_variable, DW_AT_name("pMscClassHdl")
    3785                      .dwattr $C$DW$306, DW_AT_TI_symbol_name("_pMscClassHdl")
    3786                      .dwattr $C$DW$306, DW_AT_type(*$C$DW$T$98)
    3787                      .dwattr $C$DW$306, DW_AT_location[DW_OP_bregx 0x24 2]
    3788              $C$DW$307       .dwtag  DW_TAG_variable, DW_AT_name("pCtrlHandle")
    3789                      .dwattr $C$DW$307, DW_AT_TI_symbol_name("_pCtrlHandle")
    3790                      .dwattr $C$DW$307, DW_AT_type(*$C$DW$T$99)
    3791                      .dwattr $C$DW$307, DW_AT_location[DW_OP_bregx 0x24 4]
    3792              $C$DW$308       .dwtag  DW_TAG_variable, DW_AT_name("reqHandlerRet")
    3793                      .dwattr $C$DW$308, DW_AT_TI_symbol_name("_reqHandlerRet")
    3794                      .dwattr $C$DW$308, DW_AT_type(*$C$DW$T$42)
    3795                      .dwattr $C$DW$308, DW_AT_location[DW_OP_bregx 0x24 6]
    3796              $C$DW$309       .dwtag  DW_TAG_variable, DW_AT_name("usbCtrlEvents")
    3797                      .dwattr $C$DW$309, DW_AT_TI_symbol_name("_usbCtrlEvents")
    3798                      .dwattr $C$DW$309, DW_AT_type(*$C$DW$T$150)
    3799                      .dwattr $C$DW$309, DW_AT_location[DW_OP_bregx 0x24 7]
    3800              $C$DW$310       .dwtag  DW_TAG_variable, DW_AT_name("hCtrlEpIn")
    3801                      .dwattr $C$DW$310, DW_AT_TI_symbol_name("_hCtrlEpIn")
    3802                      .dwattr $C$DW$310, DW_AT_type(*$C$DW$T$27)
    3803                      .dwattr $C$DW$310, DW_AT_location[DW_OP_bregx 0x24 8]
    3804              $C$DW$311       .dwtag  DW_TAG_variable, DW_AT_name("hCtrlEpOut")
    3805                      .dwattr $C$DW$311, DW_AT_TI_symbol_name("_hCtrlEpOut")
    3806                      .dwattr $C$DW$311, DW_AT_type(*$C$DW$T$27)
    3807                      .dwattr $C$DW$311, DW_AT_location[DW_OP_bregx 0x24 10]
    3808              $C$DW$312       .dwtag  DW_TAG_variable, DW_AT_name("status")
    3809                      .dwattr $C$DW$312, DW_AT_TI_symbol_name("_status")
    3810                      .dwattr $C$DW$312, DW_AT_type(*$C$DW$T$89)
    3811                      .dwattr $C$DW$312, DW_AT_location[DW_OP_bregx 0x24 12]
    3812              $C$DW$313       .dwtag  DW_TAG_variable, DW_AT_name("request")
    3813                      .dwattr $C$DW$313, DW_AT_TI_symbol_name("_request")
    3814                      .dwattr $C$DW$313, DW_AT_type(*$C$DW$T$25)
    3815                      .dwattr $C$DW$313, DW_AT_location[DW_OP_bregx 0x24 13]
    3816 000e34 EB00          MOV XAR0, dbl(*SP(#0))
TMS320C55x Assembler PC v4.4.1 Tue Oct 02 02:33:20 2018

Tools Copyright (c) 1996-2012 Texas Instruments Incorporated
csl_msc.asm                                                          PAGE   88

         000e36 85   
    3817                      .dwpsn  file "../c5535_bsl_revc/ezdsp5535_v1/c55xx_csl/src/csl_msc.c",line 645,column 5,is_stmt
    3818 000e37 ED00          MOV dbl(*SP(#0)), XAR3
         000e39 BF   
    3819 000e3a 90B0          MOV XAR3, AC0
    3820 000e3c 6290          BCC $C$L73,AC0 != #0 ; |645| 
    3821                                                      ; branchcc occurs ; |645| 
    3822                      .dwpsn  file "../c5535_bsl_revc/ezdsp5535_v1/c55xx_csl/src/csl_msc.c",line 647,column 3,is_stmt
    3823 000e3e 3E54          MOV #-5, T0
    3824 000e40 0601          B $C$L86  ; |647| 
         000e42 DE   
    3825                                                      ; branch occurs ; |647| 
    3826 000e43       $C$L73:    
    3827                      .dwpsn  file "../c5535_bsl_revc/ezdsp5535_v1/c55xx_csl/src/csl_msc.c",line 650,column 5,is_stmt
    3828 000e43 EB04          MOV XAR3, dbl(*SP(#2))
         000e45 B5   
    3829                      .dwpsn  file "../c5535_bsl_revc/ezdsp5535_v1/c55xx_csl/src/csl_msc.c",line 651,column 5,is_stmt
    3830 000e46 EB08          MOV XAR3, dbl(*SP(#4))
         000e48 B5   
    3831                      .dwpsn  file "../c5535_bsl_revc/ezdsp5535_v1/c55xx_csl/src/csl_msc.c",line 652,column 5,is_stmt
    3832 000e49 EB10          MOV XAR3, dbl(*SP(#8))
         000e4b B5   
    3833                      .dwpsn  file "../c5535_bsl_revc/ezdsp5535_v1/c55xx_csl/src/csl_msc.c",line 653,column 5,is_stmt
    3834 000e4c ED08          MOV dbl(*SP(#4)), XAR3
         000e4e BF   
    3835              
    3836 000e4f 8E14          MOV XAR3, dbl(*SP(#10))
         000e51 BB14 
         000e53 B516 
    3837              ||      AADD #22, AR3 ; |653| 
    3838              
    3839                      .dwpsn  file "../c5535_bsl_revc/ezdsp5535_v1/c55xx_csl/src/csl_msc.c",line 654,column 5,is_stmt
    3840 000e55 E60C          MOV #0, *SP(#6) ; |654| 
         000e57 00   
    3841                      .dwpsn  file "../c5535_bsl_revc/ezdsp5535_v1/c55xx_csl/src/csl_msc.c",line 656,column 5,is_stmt
    3842 000e58 ED08          MOV dbl(*SP(#4)), XAR3
         000e5a BF   
    3843 000e5b 7A00          MOV #(_MSC_reqUnknown >> 16) << #16, AC0 ; |656| 
         000e5d 000A%
    3844 000e5f 7E00          OR #(_MSC_reqUnknown & 0xffff), AC0, AC0 ; |656| 
         000e61 0000%
    3845 000e63 EB6D          MOV AC0, dbl(*AR3(#174)) ; |656| 
         000e65 0800 
         000e67 AE   
    3846                      .dwpsn  file "../c5535_bsl_revc/ezdsp5535_v1/c55xx_csl/src/csl_msc.c",line 658,column 5,is_stmt
    3847 000e68 EC18          AMAR *SP(#12), XAR1
         000e6a 9E   
    3848 000e6b ED14          MOV dbl(*SP(#10)), XAR0
         000e6d 8F   
    3849              $C$DW$314       .dwtag  DW_TAG_TI_branch
    3850                      .dwattr $C$DW$314, DW_AT_low_pc(0x00)
    3851                      .dwattr $C$DW$314, DW_AT_name("_USB_getEvents")
    3852                      .dwattr $C$DW$314, DW_AT_TI_call
    3853 000e6e 6C00          CALL #_USB_getEvents ; |658| 
         000e70 0000!
TMS320C55x Assembler PC v4.4.1 Tue Oct 02 02:33:20 2018

Tools Copyright (c) 1996-2012 Texas Instruments Incorporated
csl_msc.asm                                                          PAGE   89

    3854                                                      ; call occurs [#_USB_getEvents] ; |658| 
    3855 000e72 EC18          AMAR *SP(#12), XAR1
         000e74 9E   
    3856 000e75 ED10          MOV dbl(*SP(#8)), XAR0
         000e77 8F   
    3857              $C$DW$315       .dwtag  DW_TAG_TI_branch
    3858                      .dwattr $C$DW$315, DW_AT_low_pc(0x00)
    3859                      .dwattr $C$DW$315, DW_AT_name("_USB_getEvents")
    3860                      .dwattr $C$DW$315, DW_AT_TI_call
    3861              
    3862 000e78 6C00          CALL #_USB_getEvents ; |658| 
         000e7a 0000!
    3863 000e7c 2346  ||      MOV T0, T2 ; |658| 
    3864              
    3865                                                      ; call occurs [#_USB_getEvents] ; |658| 
    3866 000e7e 2A64          OR T2, T0 ; |658| 
    3867 000e80 C40E          MOV T0, *SP(#7) ; |658| 
    3868                      .dwpsn  file "../c5535_bsl_revc/ezdsp5535_v1/c55xx_csl/src/csl_msc.c",line 663,column 2,is_stmt
    3869 000e82 DC0E          BTST #0, *SP(#7), TC1 ; |663| 
         000e84 00   
    3870 000e85 0474          BCC $C$L74,!TC1 ; |663| 
         000e87 38   
    3871                                                      ; branchcc occurs ; |663| 
    3872                      .dwpsn  file "../c5535_bsl_revc/ezdsp5535_v1/c55xx_csl/src/csl_msc.c",line 665,column 3,is_stmt
    3873 000e88 ED08          MOV dbl(*SP(#4)), XAR3
         000e8a BF   
    3874 000e8b E66D          MOV #0, *AR3(#42) ; |665| 
         000e8d 0000 
         000e8f 2A   
    3875                      .dwpsn  file "../c5535_bsl_revc/ezdsp5535_v1/c55xx_csl/src/csl_msc.c",line 667,column 3,is_stmt
    3876 000e90 ED08          MOV dbl(*SP(#4)), XAR3
         000e92 BF   
    3877 000e93 A46D          MOV *AR3(#20), T0 ; |667| 
         000e95 0014 
    3878              $C$DW$316       .dwtag  DW_TAG_TI_branch
    3879                      .dwattr $C$DW$316, DW_AT_low_pc(0x00)
    3880                      .dwattr $C$DW$316, DW_AT_name("_USB_abortAllTransaction")
    3881                      .dwattr $C$DW$316, DW_AT_TI_call
    3882 000e97 6C00          CALL #_USB_abortAllTransaction ; |667| 
         000e99 0000!
    3883                                                      ; call occurs [#_USB_abortAllTransaction] ; |667| 
    3884 000e9b DA18          OR *SP(#12), T0, AR1 ; |667| 
         000e9d 94   
    3885 000e9e C918          MOV AR1, *SP(#12) ; |667| 
    3886                      .dwpsn  file "../c5535_bsl_revc/ezdsp5535_v1/c55xx_csl/src/csl_msc.c",line 669,column 3,is_stmt
    3887 000ea0 ED08          MOV dbl(*SP(#4)), XAR0
         000ea2 8F   
    3888 000ea3 ED08          MOV dbl(*SP(#4)), XAR3
         000ea5 BF   
    3889 000ea6 142C          AADD #44, AR0 ; |669| 
         000ea8 84   
    3890 000ea9 A46D          MOV *AR3(#20), T0 ; |669| 
         000eab 0014 
    3891              $C$DW$317       .dwtag  DW_TAG_TI_branch
    3892                      .dwattr $C$DW$317, DW_AT_low_pc(0x00)
TMS320C55x Assembler PC v4.4.1 Tue Oct 02 02:33:20 2018

Tools Copyright (c) 1996-2012 Texas Instruments Incorporated
csl_msc.asm                                                          PAGE   90

    3893                      .dwattr $C$DW$317, DW_AT_name("_USB_setParams")
    3894                      .dwattr $C$DW$317, DW_AT_TI_call
    3895              
    3896 000ead 6C00          CALL #_USB_setParams ; |669| 
         000eaf 0000!
    3897 000eb1 3D05  ||      MOV #0, T1
    3898              
    3899                                                      ; call occurs [#_USB_setParams] ; |669| 
    3900 000eb3 DA18          OR *SP(#12), T0, AR1 ; |669| 
         000eb5 94   
    3901 000eb6 C918          MOV AR1, *SP(#12) ; |669| 
    3902                      .dwpsn  file "../c5535_bsl_revc/ezdsp5535_v1/c55xx_csl/src/csl_msc.c",line 672,column 3,is_stmt
    3903 000eb8 ED08          MOV dbl(*SP(#4)), XAR3
         000eba BF   
    3904 000ebb E66D          MOV #0, *AR3(#150) ; |672| 
         000ebd 0000 
         000ebf 96   
    3905 000ec0       $C$L74:    
    3906                      .dwpsn  file "../c5535_bsl_revc/ezdsp5535_v1/c55xx_csl/src/csl_msc.c",line 675,column 2,is_stmt
    3907 000ec0 DC0E          BTST #2, *SP(#7), TC1 ; |675| 
         000ec2 20   
    3908 000ec3 6474          BCC $C$L75,!TC1 ; |675| 
    3909                                                      ; branchcc occurs ; |675| 
    3910                      .dwpsn  file "../c5535_bsl_revc/ezdsp5535_v1/c55xx_csl/src/csl_msc.c",line 677,column 3,is_stmt
    3911 000ec5 ED08          MOV dbl(*SP(#4)), XAR3
         000ec7 BF   
    3912 000ec8 E66D          MOV #1, *AR3(#42) ; |677| 
         000eca 0100 
         000ecc 2A   
    3913 000ecd       $C$L75:    
    3914                      .dwpsn  file "../c5535_bsl_revc/ezdsp5535_v1/c55xx_csl/src/csl_msc.c",line 680,column 2,is_stmt
    3915 000ecd DC0E          BTST #3, *SP(#7), TC1 ; |680| 
         000ecf 30   
    3916 000ed0 6474          BCC $C$L76,!TC1 ; |680| 
    3917                                                      ; branchcc occurs ; |680| 
    3918                      .dwpsn  file "../c5535_bsl_revc/ezdsp5535_v1/c55xx_csl/src/csl_msc.c",line 682,column 3,is_stmt
    3919 000ed2 ED08          MOV dbl(*SP(#4)), XAR3
         000ed4 BF   
    3920 000ed5 E66D          MOV #0, *AR3(#42) ; |682| 
         000ed7 0000 
         000ed9 2A   
    3921 000eda       $C$L76:    
    3922                      .dwpsn  file "../c5535_bsl_revc/ezdsp5535_v1/c55xx_csl/src/csl_msc.c",line 687,column 3,is_stmt
    3923 000eda A90E          MOV *SP(#7), AR1 ; |687| 
    3924              
    3925 000ee0 1910          AND #0x0010, AR1, AR1 ; |687| 
         000ee2 99   
    3926 000edc 7600  ||      MOV #16, AR2 ; |687| 
         000ede 10A8 
    3927              
    3928 000ee3 129C          CMPU AR1 != AR2, TC1 ; |687| 
         000ee5 A4   
    3929 000ee6 6D64          BCC $C$L85,TC1 ; |687| 
         000ee8 0135 
    3930                                                      ; branchcc occurs ; |687| 
TMS320C55x Assembler PC v4.4.1 Tue Oct 02 02:33:20 2018

Tools Copyright (c) 1996-2012 Texas Instruments Incorporated
csl_msc.asm                                                          PAGE   91

    3931                      .dwpsn  file "../c5535_bsl_revc/ezdsp5535_v1/c55xx_csl/src/csl_msc.c",line 690,column 3,is_stmt
    3932 000eea ED08          MOV dbl(*SP(#4)), XAR3
         000eec BF   
    3933 000eed ED08          MOV dbl(*SP(#4)), XAR0
         000eef 8F   
    3934 000ef0 A46D          MOV *AR3(#20), T0 ; |690| 
         000ef2 0014 
    3935 000ef4 1436          AADD #54, AR0 ; |690| 
         000ef6 84   
    3936              $C$DW$318       .dwtag  DW_TAG_TI_branch
    3937                      .dwattr $C$DW$318, DW_AT_low_pc(0x00)
    3938                      .dwattr $C$DW$318, DW_AT_name("_USB_getSetupPacket")
    3939                      .dwattr $C$DW$318, DW_AT_TI_call
    3940              
    3941 000ef7 6C00          CALL #_USB_getSetupPacket ; |690| 
         000ef9 0000!
    3942 000efb 3D05  ||      MOV #0, T1
    3943              
    3944                                                      ; call occurs [#_USB_getSetupPacket] ; |690| 
    3945 000efd DA18          OR *SP(#12), T0, AR1 ; |690| 
         000eff 94   
    3946 000f00 C918          MOV AR1, *SP(#12) ; |690| 
    3947                      .dwpsn  file "../c5535_bsl_revc/ezdsp5535_v1/c55xx_csl/src/csl_msc.c",line 692,column 3,is_stmt
    3948 000f02 ED08          MOV dbl(*SP(#4)), XAR2
         000f04 AF   
    3949 000f05 ED08          MOV dbl(*SP(#4)), XAR3
         000f07 BF   
    3950 000f08 A04D          MOV *AR2(#55), AC0 ; |692| 
         000f0a 0037 
    3951 000f0c 1007          SFTL AC0, #8, AC0 ; |692| 
         000f0e 08   
    3952 000f0f 7DF0          AND #0xf000, AC0, AR1 ; |692| 
         000f11 0090 
    3953 000f13 DA6D          OR *AR3(#56), AR1, AR1 ; |692| 
         000f15 9900 
         000f17 38   
    3954 000f18 C91A          MOV AR1, *SP(#13) ; |692| 
    3955                      .dwpsn  file "../c5535_bsl_revc/ezdsp5535_v1/c55xx_csl/src/csl_msc.c",line 696,column 3,is_stmt
    3956 000f1a ED08          MOV dbl(*SP(#4)), XAR3
         000f1c BF   
    3957 000f1d ED6D          MOV dbl(*AR3(#172)), XAR0
         000f1f 8F00 
         000f21 AC   
    3958              $C$DW$319       .dwtag  DW_TAG_TI_branch
    3959                      .dwattr $C$DW$319, DW_AT_low_pc(0x00)
    3960                      .dwattr $C$DW$319, DW_AT_name("_MSC_lookupReqHandler")
    3961                      .dwattr $C$DW$319, DW_AT_TI_call
    3962              
    3963 000f22 08F7          CALL #_MSC_lookupReqHandler ; |696| 
         000f24 E5   
    3964 000f25 2394  ||      MOV AR1, T0
    3965              
    3966                                                      ; call occurs [#_MSC_lookupReqHandler] ; |696| 
    3967 000f27 ED08          MOV dbl(*SP(#4)), XAR3
         000f29 BF   
TMS320C55x Assembler PC v4.4.1 Tue Oct 02 02:33:20 2018

Tools Copyright (c) 1996-2012 Texas Instruments Incorporated
csl_msc.asm                                                          PAGE   92

    3968 000f2a EB6D          MOV AC0, dbl(*AR3(#174)) ; |696| 
         000f2c 0800 
         000f2e AE   
    3969                      .dwpsn  file "../c5535_bsl_revc/ezdsp5535_v1/c55xx_csl/src/csl_msc.c",line 699,column 6,is_stmt
    3970 000f2f A90C          MOV *SP(#6), AR1 ; |699| 
    3971 000f31 6D19          BCC $C$L82,AR1 != #0 ; |699| 
         000f33 00A7 
    3972                                                      ; branchcc occurs ; |699| 
    3973                      .dwpsn  file "../c5535_bsl_revc/ezdsp5535_v1/c55xx_csl/src/csl_msc.c",line 701,column 4,is_stmt
    3974 000f35 ED08          MOV dbl(*SP(#4)), XAR3
         000f37 BF   
    3975 000f38 ED08          MOV dbl(*SP(#4)), XAR0
         000f3a 8F   
    3976 000f3b ED10          MOV dbl(*SP(#8)), XAR1
         000f3d 9F   
    3977 000f3e ED14          MOV dbl(*SP(#10)), XAR2
         000f40 AF   
    3978 000f41 ED6D          MOV dbl(*AR3(#174)), AC0 ; |701| 
         000f43 0800 
         000f45 AE   
    3979 000f46 A46D          MOV *AR3(#20), T0 ; |701| 
         000f48 0014 
    3980 000f4a 1436          AADD #54, AR0 ; |701| 
         000f4c 84   
    3981 000f4d ED00          MOV dbl(*SP(#0)), XAR3
         000f4f BF   
    3982              $C$DW$320       .dwtag  DW_TAG_TI_branch
    3983                      .dwattr $C$DW$320, DW_AT_low_pc(0x00)
    3984                      .dwattr $C$DW$320, DW_AT_TI_call
    3985                      .dwattr $C$DW$320, DW_AT_TI_indirect
    3986 000f50 9200          CALL AC0  ; |701| 
    3987                                                      ; call occurs [AC0] ; |701| 
    3988 000f52 C40C          MOV T0, *SP(#6) ; |701| 
    3989                      .dwpsn  file "../c5535_bsl_revc/ezdsp5535_v1/c55xx_csl/src/csl_msc.c",line 705,column 3,is_stmt
    3990 000f54 0600          B $C$L82  ; |705| 
         000f56 85   
    3991                                                      ; branch occurs ; |705| 
    3992 000f57       $C$L77:    
    3993                      .dwpsn  file "../c5535_bsl_revc/ezdsp5535_v1/c55xx_csl/src/csl_msc.c",line 710,column 5,is_stmt
    3994 000f57 ED10          MOV dbl(*SP(#8)), XAR0
         000f59 8F   
    3995 000f5a EC31          AMOV #0, XAR1 ; |710| 
         000f5c 9E00 
         000f5e 0000 
    3996 000f60 3C04          MOV #0, T0
    3997              $C$DW$321       .dwtag  DW_TAG_TI_branch
    3998                      .dwattr $C$DW$321, DW_AT_low_pc(0x00)
    3999                      .dwattr $C$DW$321, DW_AT_name("_USB_postTransaction")
    4000                      .dwattr $C$DW$321, DW_AT_TI_call
    4001              
    4002 000f62 6C00          CALL #_USB_postTransaction ; |710| 
         000f64 0000!
    4003 000f66 3D05  ||      MOV #0, T1
    4004              
    4005                                                      ; call occurs [#_USB_postTransaction] ; |710| 
TMS320C55x Assembler PC v4.4.1 Tue Oct 02 02:33:20 2018

Tools Copyright (c) 1996-2012 Texas Instruments Incorporated
csl_msc.asm                                                          PAGE   93

    4006 000f68 DA18          OR *SP(#12), T0, AR1 ; |710| 
         000f6a 94   
    4007 000f6b C918          MOV AR1, *SP(#12) ; |710| 
    4008                      .dwpsn  file "../c5535_bsl_revc/ezdsp5535_v1/c55xx_csl/src/csl_msc.c",line 712,column 5,is_stmt
    4009 000f6d ED08          MOV dbl(*SP(#4)), XAR3
         000f6f BF   
    4010 000f70 7A00          MOV #(_MSC_reqUnknown >> 16) << #16, AC0 ; |712| 
         000f72 000A%
    4011 000f74 7E00          OR #(_MSC_reqUnknown & 0xffff), AC0, AC0 ; |712| 
         000f76 0000%
    4012 000f78 EB6D          MOV AC0, dbl(*AR3(#174)) ; |712| 
         000f7a 0800 
         000f7c AE   
    4013                      .dwpsn  file "../c5535_bsl_revc/ezdsp5535_v1/c55xx_csl/src/csl_msc.c",line 713,column 10,is_stmt
    4014 000f7d 0600          B $C$L84  ; |713| 
         000f7f 91   
    4015                                                      ; branch occurs ; |713| 
    4016 000f80       $C$L78:    
    4017                      .dwpsn  file "../c5535_bsl_revc/ezdsp5535_v1/c55xx_csl/src/csl_msc.c",line 722,column 5,is_stmt
    4018 000f80 ED14          MOV dbl(*SP(#10)), XAR0
         000f82 8F   
    4019 000f83 EC31          AMOV #0, XAR1 ; |722| 
         000f85 9E00 
         000f87 0000 
    4020 000f89 3C04          MOV #0, T0
    4021              $C$DW$322       .dwtag  DW_TAG_TI_branch
    4022                      .dwattr $C$DW$322, DW_AT_low_pc(0x00)
    4023                      .dwattr $C$DW$322, DW_AT_name("_USB_postTransaction")
    4024                      .dwattr $C$DW$322, DW_AT_TI_call
    4025              
    4026 000f8b 6C00          CALL #_USB_postTransaction ; |722| 
         000f8d 0000!
    4027 000f8f 3D05  ||      MOV #0, T1
    4028              
    4029                                                      ; call occurs [#_USB_postTransaction] ; |722| 
    4030 000f91 DA18          OR *SP(#12), T0, AR1 ; |722| 
         000f93 94   
    4031 000f94 C918          MOV AR1, *SP(#12) ; |722| 
    4032                      .dwpsn  file "../c5535_bsl_revc/ezdsp5535_v1/c55xx_csl/src/csl_msc.c",line 724,column 5,is_stmt
    4033 000f96 ED08          MOV dbl(*SP(#4)), XAR3
         000f98 BF   
    4034 000f99 7A00          MOV #(_MSC_reqUnknown >> 16) << #16, AC0 ; |724| 
         000f9b 000A%
    4035 000f9d 7E00          OR #(_MSC_reqUnknown & 0xffff), AC0, AC0 ; |724| 
         000f9f 0000%
    4036 000fa1 EB6D          MOV AC0, dbl(*AR3(#174)) ; |724| 
         000fa3 0800 
         000fa5 AE   
    4037                      .dwpsn  file "../c5535_bsl_revc/ezdsp5535_v1/c55xx_csl/src/csl_msc.c",line 725,column 10,is_stmt
    4038 000fa6 0600          B $C$L84  ; |725| 
         000fa8 68   
    4039                                                      ; branch occurs ; |725| 
    4040 000fa9       $C$L79:    
    4041                      .dwpsn  file "../c5535_bsl_revc/ezdsp5535_v1/c55xx_csl/src/csl_msc.c",line 734,column 5,is_stmt
    4042 000fa9 ED14          MOV dbl(*SP(#10)), XAR0
TMS320C55x Assembler PC v4.4.1 Tue Oct 02 02:33:20 2018

Tools Copyright (c) 1996-2012 Texas Instruments Incorporated
csl_msc.asm                                                          PAGE   94

         000fab 8F   
    4043              $C$DW$323       .dwtag  DW_TAG_TI_branch
    4044                      .dwattr $C$DW$323, DW_AT_low_pc(0x00)
    4045                      .dwattr $C$DW$323, DW_AT_name("_USB_stallEndpt")
    4046                      .dwattr $C$DW$323, DW_AT_TI_call
    4047 000fac 6C00          CALL #_USB_stallEndpt ; |734| 
         000fae 0000!
    4048                                                      ; call occurs [#_USB_stallEndpt] ; |734| 
    4049 000fb0 DA18          OR *SP(#12), T0, AR1 ; |734| 
         000fb2 94   
    4050 000fb3 C918          MOV AR1, *SP(#12) ; |734| 
    4051                      .dwpsn  file "../c5535_bsl_revc/ezdsp5535_v1/c55xx_csl/src/csl_msc.c",line 735,column 5,is_stmt
    4052 000fb5 ED10          MOV dbl(*SP(#8)), XAR0
         000fb7 8F   
    4053              $C$DW$324       .dwtag  DW_TAG_TI_branch
    4054                      .dwattr $C$DW$324, DW_AT_low_pc(0x00)
    4055                      .dwattr $C$DW$324, DW_AT_name("_USB_stallEndpt")
    4056                      .dwattr $C$DW$324, DW_AT_TI_call
    4057 000fb8 6C00          CALL #_USB_stallEndpt ; |735| 
         000fba 0000!
    4058                                                      ; call occurs [#_USB_stallEndpt] ; |735| 
    4059 000fbc DA18          OR *SP(#12), T0, AR1 ; |735| 
         000fbe 94   
    4060 000fbf C918          MOV AR1, *SP(#12) ; |735| 
    4061                      .dwpsn  file "../c5535_bsl_revc/ezdsp5535_v1/c55xx_csl/src/csl_msc.c",line 736,column 10,is_stmt
    4062 000fc1 0600          B $C$L84  ; |736| 
         000fc3 4D   
    4063                                                      ; branch occurs ; |736| 
    4064 000fc4       $C$L80:    
    4065                      .dwpsn  file "../c5535_bsl_revc/ezdsp5535_v1/c55xx_csl/src/csl_msc.c",line 739,column 5,is_stmt
    4066 000fc4 ED08          MOV dbl(*SP(#4)), XAR3
         000fc6 BF   
    4067 000fc7 7A00          MOV #(_MSC_reqUnknown >> 16) << #16, AC0 ; |739| 
         000fc9 000A%
    4068 000fcb 7E00          OR #(_MSC_reqUnknown & 0xffff), AC0, AC0 ; |739| 
         000fcd 0000%
    4069 000fcf EB6D          MOV AC0, dbl(*AR3(#174)) ; |739| 
         000fd1 0800 
         000fd3 AE   
    4070                      .dwpsn  file "../c5535_bsl_revc/ezdsp5535_v1/c55xx_csl/src/csl_msc.c",line 740,column 10,is_stmt
    4071 000fd4 4A3B          B $C$L84  ; |740| 
    4072                                                      ; branch occurs ; |740| 
    4073 000fd6       $C$L81:    
    4074                      .dwpsn  file "../c5535_bsl_revc/ezdsp5535_v1/c55xx_csl/src/csl_msc.c",line 743,column 5,is_stmt
    4075 000fd6 FB18          MOV #-578, *SP(#12) ; |743| 
         000fd8 FDBE 
    4076                      .dwpsn  file "../c5535_bsl_revc/ezdsp5535_v1/c55xx_csl/src/csl_msc.c",line 744,column 10,is_stmt
    4077 000fda 4A35          B $C$L84  ; |744| 
    4078                                                      ; branch occurs ; |744| 
    4079 000fdc       $C$L82:    
    4080                      .dwpsn  file "../c5535_bsl_revc/ezdsp5535_v1/c55xx_csl/src/csl_msc.c",line 705,column 3,is_stmt
    4081              
    4082 000fdc A90C          MOV *SP(#6), AR1 ; |705| 
    4083 000fde 3D3A  ||      MOV #3, AR2
    4084              
TMS320C55x Assembler PC v4.4.1 Tue Oct 02 02:33:20 2018

Tools Copyright (c) 1996-2012 Texas Instruments Incorporated
csl_msc.asm                                                          PAGE   95

    4085 000fe0 12A4          CMP AR1 > AR2, TC1 ; |705| 
         000fe2 90   
    4086 000fe3 0464          BCC $C$L83,TC1 ; |705| 
         000fe5 1C   
    4087                                                      ; branchcc occurs ; |705| 
    4088 000fe6 1290          CMP AR1 == AR2, TC1 ; |705| 
         000fe8 A0   
    4089 000fe9 0464          BCC $C$L78,TC1 ; |705| 
         000feb 94   
    4090                                                      ; branchcc occurs ; |705| 
    4091 000fec 0409          BCC $C$L80,AR1 == #0 ; |705| 
         000fee D5   
    4092                                                      ; branchcc occurs ; |705| 
    4093 000fef 3C1A          MOV #1, AR2
    4094 000ff1 1290          CMP AR1 == AR2, TC1 ; |705| 
         000ff3 A0   
    4095 000ff4 0464          BCC $C$L79,TC1 ; |705| 
         000ff6 B2   
    4096                                                      ; branchcc occurs ; |705| 
    4097 000ff7 3C2A          MOV #2, AR2
    4098 000ff9 1290          CMP AR1 == AR2, TC1 ; |705| 
         000ffb A0   
    4099 000ffc 6D64          BCC $C$L77,TC1 ; |705| 
         000ffe FF57 
    4100                                                      ; branchcc occurs ; |705| 
    4101 001000 4A54          B $C$L81  ; |705| 
    4102                                                      ; branch occurs ; |705| 
    4103 001002       $C$L83:    
    4104 001002 3C4A          MOV #4, AR2
    4105 001004 1290          CMP AR1 == AR2, TC1 ; |705| 
         001006 A0   
    4106 001007 6464          BCC $C$L84,TC1 ; |705| 
    4107                                                      ; branchcc occurs ; |705| 
    4108 001009 3C5A          MOV #5, AR2
    4109 00100b 1290          CMP AR1 == AR2, TC1 ; |705| 
         00100d A0   
    4110 00100e 0474          BCC $C$L81,!TC1 ; |705| 
         001010 C5   
    4111                                                      ; branchcc occurs ; |705| 
    4112 001011       $C$L84:    
    4113                      .dwpsn  file "../c5535_bsl_revc/ezdsp5535_v1/c55xx_csl/src/csl_msc.c",line 748,column 6,is_stmt
    4114 001011 ED08          MOV dbl(*SP(#4)), XAR3
         001013 BF   
    4115 001014 A96D          MOV *AR3(#54), AR1 ; |748| 
         001016 0036 
    4116 001018 6289          BCC $C$L85,AR1 == #0 ; |748| 
    4117                                                      ; branchcc occurs ; |748| 
    4118                      .dwpsn  file "../c5535_bsl_revc/ezdsp5535_v1/c55xx_csl/src/csl_msc.c",line 750,column 4,is_stmt
    4119 00101a E66D          MOV #0, *AR3(#54) ; |750| 
         00101c 0000 
         00101e 36   
    4120 00101f       $C$L85:    
    4121                      .dwpsn  file "../c5535_bsl_revc/ezdsp5535_v1/c55xx_csl/src/csl_msc.c",line 754,column 2,is_stmt
    4122 00101f A418          MOV *SP(#12), T0 ; |754| 
    4123 001021       $C$L86:    
TMS320C55x Assembler PC v4.4.1 Tue Oct 02 02:33:20 2018

Tools Copyright (c) 1996-2012 Texas Instruments Incorporated
csl_msc.asm                                                          PAGE   96

    4124                      .dwpsn  file "../c5535_bsl_revc/ezdsp5535_v1/c55xx_csl/src/csl_msc.c",line 755,column 1,is_stmt
    4125 001021 4E0E          AADD #14, SP
    4126                      .dwcfi  cfa_offset, 2
    4127 001023 5062          POP T2
    4128                      .dwcfi  restore_reg, 14
    4129                      .dwcfi  cfa_offset, 1
    4130              $C$DW$325       .dwtag  DW_TAG_TI_branch
    4131                      .dwattr $C$DW$325, DW_AT_low_pc(0x00)
    4132                      .dwattr $C$DW$325, DW_AT_TI_return
    4133 001025 4804          RET
    4134                                                      ; return occurs
    4135                      .dwattr $C$DW$303, DW_AT_TI_end_file("../c5535_bsl_revc/ezdsp5535_v1/c55xx_csl/src/csl_msc.c")
    4136                      .dwattr $C$DW$303, DW_AT_TI_end_line(0x2f3)
    4137                      .dwattr $C$DW$303, DW_AT_TI_end_column(0x01)
    4138                      .dwendentry
    4139                      .dwendtag $C$DW$303
    4140              
    4141 001027               .sect   ".text"
    4142                      .align 4
    4143                      .global _MSC_Bulk
    4144              
    4145              $C$DW$326       .dwtag  DW_TAG_subprogram, DW_AT_name("MSC_Bulk")
    4146                      .dwattr $C$DW$326, DW_AT_low_pc(_MSC_Bulk)
    4147                      .dwattr $C$DW$326, DW_AT_high_pc(0x00)
    4148                      .dwattr $C$DW$326, DW_AT_TI_symbol_name("_MSC_Bulk")
    4149                      .dwattr $C$DW$326, DW_AT_external
    4150                      .dwattr $C$DW$326, DW_AT_type(*$C$DW$T$89)
    4151                      .dwattr $C$DW$326, DW_AT_TI_begin_file("../c5535_bsl_revc/ezdsp5535_v1/c55xx_csl/src/csl_msc.c")
    4152                      .dwattr $C$DW$326, DW_AT_TI_begin_line(0x324)
    4153                      .dwattr $C$DW$326, DW_AT_TI_begin_column(0x0c)
    4154                      .dwattr $C$DW$326, DW_AT_TI_max_frame_size(0x0e)
    4155                      .dwpsn  file "../c5535_bsl_revc/ezdsp5535_v1/c55xx_csl/src/csl_msc.c",line 805,column 1,is_stmt,addre
    4156              
    4157                      .dwfde $C$DW$CIE, _MSC_Bulk
    4158              $C$DW$327       .dwtag  DW_TAG_formal_parameter, DW_AT_name("pMSC")
    4159                      .dwattr $C$DW$327, DW_AT_TI_symbol_name("_pMSC")
    4160                      .dwattr $C$DW$327, DW_AT_type(*$C$DW$T$3)
    4161                      .dwattr $C$DW$327, DW_AT_location[DW_OP_reg17]
    4162              ;*******************************************************************************
    4163              ;* FUNCTION NAME: MSC_Bulk                                                     *
    4164              ;*                                                                             *
    4165              ;*   Function Uses Regs : AC0,AC0,AC1,AC1,T0,T1,AR0,XAR0,AR1,XAR1,AR2,XAR2,AR3,*
    4166              ;*                        XAR3,SP,CARRY,TC1,M40,SATA,SATD,RDM,FRCT,SMUL        *
    4167              ;*   Stack Frame        : Compact (No Frame Pointer, w/ debug)                 *
    4168              ;*   Total Frame Size   : 14 words                                             *
    4169              ;*                        (2 return address/alignment)                         *
    4170              ;*                        (12 local values)                                    *
    4171              ;*   Min System Stack   : 1 word                                               *
    4172              ;*******************************************************************************
    4173 001028       _MSC_Bulk:
    4174                      .dwcfi  cfa_offset, 1
    4175                      .dwcfi  save_reg_to_mem, 91, -1
    4176 001028 4EF3          AADD #-13, SP
    4177                      .dwcfi  cfa_offset, 14
    4178              $C$DW$328       .dwtag  DW_TAG_variable, DW_AT_name("pMSC")
TMS320C55x Assembler PC v4.4.1 Tue Oct 02 02:33:20 2018

Tools Copyright (c) 1996-2012 Texas Instruments Incorporated
csl_msc.asm                                                          PAGE   97

    4179                      .dwattr $C$DW$328, DW_AT_TI_symbol_name("_pMSC")
    4180                      .dwattr $C$DW$328, DW_AT_type(*$C$DW$T$3)
    4181                      .dwattr $C$DW$328, DW_AT_location[DW_OP_bregx 0x24 0]
    4182              $C$DW$329       .dwtag  DW_TAG_variable, DW_AT_name("pMscClassHdl")
    4183                      .dwattr $C$DW$329, DW_AT_TI_symbol_name("_pMscClassHdl")
    4184                      .dwattr $C$DW$329, DW_AT_type(*$C$DW$T$98)
    4185                      .dwattr $C$DW$329, DW_AT_location[DW_OP_bregx 0x24 2]
    4186              $C$DW$330       .dwtag  DW_TAG_variable, DW_AT_name("pMscHandle")
    4187                      .dwattr $C$DW$330, DW_AT_TI_symbol_name("_pMscHandle")
    4188                      .dwattr $C$DW$330, DW_AT_type(*$C$DW$T$107)
    4189                      .dwattr $C$DW$330, DW_AT_location[DW_OP_bregx 0x24 4]
    4190              $C$DW$331       .dwtag  DW_TAG_variable, DW_AT_name("hUsbInEp")
    4191                      .dwattr $C$DW$331, DW_AT_TI_symbol_name("_hUsbInEp")
    4192                      .dwattr $C$DW$331, DW_AT_type(*$C$DW$T$27)
    4193                      .dwattr $C$DW$331, DW_AT_location[DW_OP_bregx 0x24 6]
    4194              $C$DW$332       .dwtag  DW_TAG_variable, DW_AT_name("hUsbOutEp")
    4195                      .dwattr $C$DW$332, DW_AT_TI_symbol_name("_hUsbOutEp")
    4196                      .dwattr $C$DW$332, DW_AT_type(*$C$DW$T$27)
    4197                      .dwattr $C$DW$332, DW_AT_location[DW_OP_bregx 0x24 8]
    4198              $C$DW$333       .dwtag  DW_TAG_variable, DW_AT_name("status")
    4199                      .dwattr $C$DW$333, DW_AT_TI_symbol_name("_status")
    4200                      .dwattr $C$DW$333, DW_AT_type(*$C$DW$T$89)
    4201                      .dwattr $C$DW$333, DW_AT_location[DW_OP_bregx 0x24 10]
    4202              $C$DW$334       .dwtag  DW_TAG_variable, DW_AT_name("logicalUnit")
    4203                      .dwattr $C$DW$334, DW_AT_TI_symbol_name("_logicalUnit")
    4204                      .dwattr $C$DW$334, DW_AT_type(*$C$DW$T$25)
    4205                      .dwattr $C$DW$334, DW_AT_location[DW_OP_bregx 0x24 11]
    4206 00102a EB00          MOV XAR0, dbl(*SP(#0))
         00102c 85   
    4207                      .dwpsn  file "../c5535_bsl_revc/ezdsp5535_v1/c55xx_csl/src/csl_msc.c",line 813,column 2,is_stmt
    4208 00102d E614          MOV #0, *SP(#10) ; |813| 
         00102f 00   
    4209                      .dwpsn  file "../c5535_bsl_revc/ezdsp5535_v1/c55xx_csl/src/csl_msc.c",line 815,column 2,is_stmt
    4210 001030 ED00          MOV dbl(*SP(#0)), XAR3
         001032 BF   
    4211 001033 90B0          MOV XAR3, AC0
    4212 001035 6D00          BCC $C$L98,AC0 == #0 ; |815| 
         001037 00E2 
    4213                                                      ; branchcc occurs ; |815| 
    4214                      .dwpsn  file "../c5535_bsl_revc/ezdsp5535_v1/c55xx_csl/src/csl_msc.c",line 817,column 3,is_stmt
    4215 001039 EB04          MOV XAR3, dbl(*SP(#2))
         00103b B5   
    4216                      .dwpsn  file "../c5535_bsl_revc/ezdsp5535_v1/c55xx_csl/src/csl_msc.c",line 818,column 3,is_stmt
    4217 00103c B46F          AMAR *+AR3(#182) ; |818| 
         00103e 00B6 
    4218 001040 EB08          MOV XAR3, dbl(*SP(#4))
         001042 B5   
    4219                      .dwpsn  file "../c5535_bsl_revc/ezdsp5535_v1/c55xx_csl/src/csl_msc.c",line 819,column 3,is_stmt
    4220 001043 B46F          AMAR *+AR3(#314) ; |819| 
         001045 013A 
    4221 001047 EB0C          MOV XAR3, dbl(*SP(#6))
         001049 B5   
    4222                      .dwpsn  file "../c5535_bsl_revc/ezdsp5535_v1/c55xx_csl/src/csl_msc.c",line 820,column 3,is_stmt
    4223 00104a ED08          MOV dbl(*SP(#4)), XAR3
         00104c BF   
TMS320C55x Assembler PC v4.4.1 Tue Oct 02 02:33:20 2018

Tools Copyright (c) 1996-2012 Texas Instruments Incorporated
csl_msc.asm                                                          PAGE   98

    4224 00104d B46F          AMAR *+AR3(#334) ; |820| 
         00104f 014E 
    4225 001051 EB10          MOV XAR3, dbl(*SP(#8))
         001053 B5   
    4226                      .dwpsn  file "../c5535_bsl_revc/ezdsp5535_v1/c55xx_csl/src/csl_msc.c",line 822,column 3,is_stmt
    4227 001054 EC14          AMAR *SP(#10), XAR1
         001056 9E   
    4228 001057 ED0C          MOV dbl(*SP(#6)), XAR0
         001059 8F   
    4229              $C$DW$335       .dwtag  DW_TAG_TI_branch
    4230                      .dwattr $C$DW$335, DW_AT_low_pc(0x00)
    4231                      .dwattr $C$DW$335, DW_AT_name("_USB_getEvents")
    4232                      .dwattr $C$DW$335, DW_AT_TI_call
    4233 00105a 6C00          CALL #_USB_getEvents ; |822| 
         00105c 0000!
    4234                                                      ; call occurs [#_USB_getEvents] ; |822| 
    4235 00105e EC00          BTST @#0, T0, TC1 ; |822| 
         001060 48   
    4236 001061 6474          BCC $C$L87,!TC1 ; |822| 
    4237                                                      ; branchcc occurs ; |822| 
    4238                      .dwpsn  file "../c5535_bsl_revc/ezdsp5535_v1/c55xx_csl/src/csl_msc.c",line 824,column 7,is_stmt
    4239 001063 ED08          MOV dbl(*SP(#4)), XAR3
         001065 BF   
    4240 001066 E66D          MOV #0, *AR3(#355) ; |824| 
         001068 0001 
         00106a 63   
    4241 00106b       $C$L87:    
    4242                      .dwpsn  file "../c5535_bsl_revc/ezdsp5535_v1/c55xx_csl/src/csl_msc.c",line 827,column 3,is_stmt
    4243 00106b ED08          MOV dbl(*SP(#4)), XAR3
         00106d BF   
    4244 00106e DF6D          MOV uns(high_byte(*AR3(#303))), AR1 ; |827| 
         001070 9101 
         001072 2F   
    4245 001073 C916          MOV AR1, *SP(#11) ; |827| 
    4246                      .dwpsn  file "../c5535_bsl_revc/ezdsp5535_v1/c55xx_csl/src/csl_msc.c",line 830,column 3,is_stmt
    4247 001075 0600          B $C$L97  ; |830| 
         001077 7B   
    4248                                                      ; branch occurs ; |830| 
    4249 001078       $C$L88:    
    4250                      .dwpsn  file "../c5535_bsl_revc/ezdsp5535_v1/c55xx_csl/src/csl_msc.c",line 833,column 5,is_stmt
    4251 001078 ED08          MOV dbl(*SP(#4)), XAR0
         00107a 8F   
    4252 00107b ED10          MOV dbl(*SP(#8)), XAR1
         00107d 9F   
    4253              $C$DW$336       .dwtag  DW_TAG_TI_branch
    4254                      .dwattr $C$DW$336, DW_AT_low_pc(0x00)
    4255                      .dwattr $C$DW$336, DW_AT_name("_MSC_HandleStateReset")
    4256                      .dwattr $C$DW$336, DW_AT_TI_call
    4257 00107e 08EF          CALL #_MSC_HandleStateReset ; |833| 
         001080 9F   
    4258                                                      ; call occurs [#_MSC_HandleStateReset] ; |833| 
    4259 001081 C414          MOV T0, *SP(#10) ; |833| 
    4260                      .dwpsn  file "../c5535_bsl_revc/ezdsp5535_v1/c55xx_csl/src/csl_msc.c",line 834,column 10,is_stmt
    4261 001083 0600          B $C$L99  ; |834| 
         001085 98   
TMS320C55x Assembler PC v4.4.1 Tue Oct 02 02:33:20 2018

Tools Copyright (c) 1996-2012 Texas Instruments Incorporated
csl_msc.asm                                                          PAGE   99

    4262                                                      ; branch occurs ; |834| 
    4263 001086       $C$L89:    
    4264                      .dwpsn  file "../c5535_bsl_revc/ezdsp5535_v1/c55xx_csl/src/csl_msc.c",line 837,column 5,is_stmt
    4265 001086 ED08          MOV dbl(*SP(#4)), XAR0
         001088 8F   
    4266 001089 ED10          MOV dbl(*SP(#8)), XAR1
         00108b 9F   
    4267 00108c ED0C          MOV dbl(*SP(#6)), XAR2
         00108e AF   
    4268              $C$DW$337       .dwtag  DW_TAG_TI_branch
    4269                      .dwattr $C$DW$337, DW_AT_low_pc(0x00)
    4270                      .dwattr $C$DW$337, DW_AT_name("_MSC_HandleStateWaitForCBW")
    4271                      .dwattr $C$DW$337, DW_AT_TI_call
    4272 00108f 0805          CALL #_MSC_HandleStateWaitForCBW ; |837| 
         001091 96   
    4273                                                      ; call occurs [#_MSC_HandleStateWaitForCBW] ; |837| 
    4274 001092 C414          MOV T0, *SP(#10) ; |837| 
    4275                      .dwpsn  file "../c5535_bsl_revc/ezdsp5535_v1/c55xx_csl/src/csl_msc.c",line 838,column 10,is_stmt
    4276 001094 0600          B $C$L99  ; |838| 
         001096 87   
    4277                                                      ; branch occurs ; |838| 
    4278 001097       $C$L90:    
    4279                      .dwpsn  file "../c5535_bsl_revc/ezdsp5535_v1/c55xx_csl/src/csl_msc.c",line 841,column 5,is_stmt
    4280 001097 ED08          MOV dbl(*SP(#4)), XAR0
         001099 8F   
    4281 00109a ED10          MOV dbl(*SP(#8)), XAR1
         00109c 9F   
    4282 00109d ED0C          MOV dbl(*SP(#6)), XAR2
         00109f AF   
    4283              $C$DW$338       .dwtag  DW_TAG_TI_branch
    4284                      .dwattr $C$DW$338, DW_AT_low_pc(0x00)
    4285                      .dwattr $C$DW$338, DW_AT_name("_MSC_HandleStateSendCSW")
    4286                      .dwattr $C$DW$338, DW_AT_TI_call
    4287 0010a0 08F0          CALL #_MSC_HandleStateSendCSW ; |841| 
         0010a2 F9   
    4288                                                      ; call occurs [#_MSC_HandleStateSendCSW] ; |841| 
    4289 0010a3 C414          MOV T0, *SP(#10) ; |841| 
    4290                      .dwpsn  file "../c5535_bsl_revc/ezdsp5535_v1/c55xx_csl/src/csl_msc.c",line 842,column 10,is_stmt
    4291 0010a5 0600          B $C$L99  ; |842| 
         0010a7 76   
    4292                                                      ; branch occurs ; |842| 
    4293 0010a8       $C$L91:    
    4294                      .dwpsn  file "../c5535_bsl_revc/ezdsp5535_v1/c55xx_csl/src/csl_msc.c",line 845,column 5,is_stmt
    4295 0010a8 ED08          MOV dbl(*SP(#4)), XAR0
         0010aa 8F   
    4296 0010ab ED0C          MOV dbl(*SP(#6)), XAR1
         0010ad 9F   
    4297              $C$DW$339       .dwtag  DW_TAG_TI_branch
    4298                      .dwattr $C$DW$339, DW_AT_low_pc(0x00)
    4299                      .dwattr $C$DW$339, DW_AT_name("_MSC_HandleStateSendData")
    4300                      .dwattr $C$DW$339, DW_AT_TI_call
    4301 0010ae 08F1          CALL #_MSC_HandleStateSendData ; |845| 
         0010b0 33   
    4302                                                      ; call occurs [#_MSC_HandleStateSendData] ; |845| 
    4303 0010b1 C414          MOV T0, *SP(#10) ; |845| 
TMS320C55x Assembler PC v4.4.1 Tue Oct 02 02:33:20 2018

Tools Copyright (c) 1996-2012 Texas Instruments Incorporated
csl_msc.asm                                                          PAGE  100

    4304                      .dwpsn  file "../c5535_bsl_revc/ezdsp5535_v1/c55xx_csl/src/csl_msc.c",line 846,column 10,is_stmt
    4305 0010b3 0600          B $C$L99  ; |846| 
         0010b5 68   
    4306                                                      ; branch occurs ; |846| 
    4307 0010b6       $C$L92:    
    4308                      .dwpsn  file "../c5535_bsl_revc/ezdsp5535_v1/c55xx_csl/src/csl_msc.c",line 849,column 5,is_stmt
    4309 0010b6 ED08          MOV dbl(*SP(#4)), XAR0
         0010b8 8F   
    4310 0010b9 ED0C          MOV dbl(*SP(#6)), XAR1
         0010bb 9F   
    4311              $C$DW$340       .dwtag  DW_TAG_TI_branch
    4312                      .dwattr $C$DW$340, DW_AT_low_pc(0x00)
    4313                      .dwattr $C$DW$340, DW_AT_name("_MSC_HandleStateSendStall")
    4314                      .dwattr $C$DW$340, DW_AT_TI_call
    4315 0010bc 08F1          CALL #_MSC_HandleStateSendStall ; |849| 
         0010be 61   
    4316                                                      ; call occurs [#_MSC_HandleStateSendStall] ; |849| 
    4317 0010bf C414          MOV T0, *SP(#10) ; |849| 
    4318                      .dwpsn  file "../c5535_bsl_revc/ezdsp5535_v1/c55xx_csl/src/csl_msc.c",line 850,column 10,is_stmt
    4319 0010c1 0600          B $C$L99  ; |850| 
         0010c3 5A   
    4320                                                      ; branch occurs ; |850| 
    4321 0010c4       $C$L93:    
    4322                      .dwpsn  file "../c5535_bsl_revc/ezdsp5535_v1/c55xx_csl/src/csl_msc.c",line 853,column 5,is_stmt
    4323 0010c4 ED08          MOV dbl(*SP(#4)), XAR0
         0010c6 8F   
    4324 0010c7 A416          MOV *SP(#11), T0 ; |853| 
    4325              $C$DW$341       .dwtag  DW_TAG_TI_branch
    4326                      .dwattr $C$DW$341, DW_AT_low_pc(0x00)
    4327                      .dwattr $C$DW$341, DW_AT_name("_MSC_ExecuteRead")
    4328                      .dwattr $C$DW$341, DW_AT_TI_call
    4329              
    4330 0010c9 0807          CALL #_MSC_ExecuteRead ; |853| 
         0010cb FE   
    4331 0010cc 3D05  ||      MOV #0, T1
    4332              
    4333                                                      ; call occurs [#_MSC_ExecuteRead] ; |853| 
    4334 0010ce C414          MOV T0, *SP(#10) ; |853| 
    4335                      .dwpsn  file "../c5535_bsl_revc/ezdsp5535_v1/c55xx_csl/src/csl_msc.c",line 854,column 10,is_stmt
    4336 0010d0 0600          B $C$L99  ; |854| 
         0010d2 4B   
    4337                                                      ; branch occurs ; |854| 
    4338 0010d3       $C$L94:    
    4339                      .dwpsn  file "../c5535_bsl_revc/ezdsp5535_v1/c55xx_csl/src/csl_msc.c",line 857,column 5,is_stmt
    4340 0010d3 ED08          MOV dbl(*SP(#4)), XAR0
         0010d5 8F   
    4341 0010d6 A416          MOV *SP(#11), T0 ; |857| 
    4342              $C$DW$342       .dwtag  DW_TAG_TI_branch
    4343                      .dwattr $C$DW$342, DW_AT_low_pc(0x00)
    4344                      .dwattr $C$DW$342, DW_AT_name("_MSC_ExecuteWrite")
    4345                      .dwattr $C$DW$342, DW_AT_TI_call
    4346              
    4347 0010d8 080C          CALL #_MSC_ExecuteWrite ; |857| 
         0010da 37   
    4348 0010db 3D05  ||      MOV #0, T1
TMS320C55x Assembler PC v4.4.1 Tue Oct 02 02:33:20 2018

Tools Copyright (c) 1996-2012 Texas Instruments Incorporated
csl_msc.asm                                                          PAGE  101

    4349              
    4350                                                      ; call occurs [#_MSC_ExecuteWrite] ; |857| 
    4351 0010dd C414          MOV T0, *SP(#10) ; |857| 
    4352                      .dwpsn  file "../c5535_bsl_revc/ezdsp5535_v1/c55xx_csl/src/csl_msc.c",line 858,column 10,is_stmt
    4353 0010df 4A3D          B $C$L99  ; |858| 
    4354                                                      ; branch occurs ; |858| 
    4355 0010e1       $C$L95:    
    4356                      .dwpsn  file "../c5535_bsl_revc/ezdsp5535_v1/c55xx_csl/src/csl_msc.c",line 861,column 5,is_stmt
    4357 0010e1 ED08          MOV dbl(*SP(#4)), XAR0
         0010e3 8F   
    4358 0010e4 ED0C          MOV dbl(*SP(#6)), XAR1
         0010e6 9F   
    4359              $C$DW$343       .dwtag  DW_TAG_TI_branch
    4360                      .dwattr $C$DW$343, DW_AT_low_pc(0x00)
    4361                      .dwattr $C$DW$343, DW_AT_name("_MSC_HandleStateSendingShortPkt")
    4362                      .dwattr $C$DW$343, DW_AT_TI_call
    4363 0010e7 08F1          CALL #_MSC_HandleStateSendingShortPkt ; |861| 
         0010e9 72   
    4364                                                      ; call occurs [#_MSC_HandleStateSendingShortPkt] ; |861| 
    4365 0010ea C414          MOV T0, *SP(#10) ; |861| 
    4366                      .dwpsn  file "../c5535_bsl_revc/ezdsp5535_v1/c55xx_csl/src/csl_msc.c",line 862,column 10,is_stmt
    4367 0010ec 4A30          B $C$L99  ; |862| 
    4368                                                      ; branch occurs ; |862| 
    4369 0010ee       $C$L96:    
    4370                      .dwpsn  file "../c5535_bsl_revc/ezdsp5535_v1/c55xx_csl/src/csl_msc.c",line 865,column 5,is_stmt
    4371 0010ee E614          MOV #-6, *SP(#10) ; |865| 
         0010f0 FA   
    4372                      .dwpsn  file "../c5535_bsl_revc/ezdsp5535_v1/c55xx_csl/src/csl_msc.c",line 866,column 13,is_stmt
    4373 0010f1 4A2B          B $C$L99  ; |866| 
    4374                                                      ; branch occurs ; |866| 
    4375 0010f3       $C$L97:    
    4376                      .dwpsn  file "../c5535_bsl_revc/ezdsp5535_v1/c55xx_csl/src/csl_msc.c",line 830,column 3,is_stmt
    4377 0010f3 ED08          MOV dbl(*SP(#4)), XAR3
         0010f5 BF   
    4378 0010f6 A06D          MOV *AR3(#355), AC0 ; |830| 
         0010f8 0163 
    4379              
    4380 0010fa 2209          MOV AC0, AR1 ; |830| 
    4381 0010fc 3D7A  ||      MOV #7, AR2
    4382              
    4383 0010fe 12A8          CMPU AR1 <= AR2, TC1 ; |830| 
         001100 94   
    4384 001101 0474          BCC $C$L96,!TC1 ; |830| 
         001103 EA   
    4385                                                      ; branchcc occurs ; |830| 
    4386 001104 5000          SFTL AC0, #1, AC0 ; |830| 
    4387 001106 7DFF          AND #0xffff, AC0, AC1 ; |830| 
         001108 FF10 
    4388 00110a 7A00          MOV #($C$SW1 >> 16) << #16, AC0 ; |830| 
         00110c 000A%
    4389 00110e 7E00          OR #($C$SW1 & 0xffff), AC0, AC0 ; |830| 
         001110 0000%
    4390 001112 2410          ADD AC1, AC0 ; |830| 
    4391 001114 900B          MOV AC0, XAR3
    4392 001116 ED61          MOV dbl(*AR3), AC0 ; |830| 
TMS320C55x Assembler PC v4.4.1 Tue Oct 02 02:33:20 2018

Tools Copyright (c) 1996-2012 Texas Instruments Incorporated
csl_msc.asm                                                          PAGE  102

         001118 08   
    4393 001119 9100          B AC0     ; |830| 
    4394                                                      ; branch occurs ; |830| 
    4395 000000               .sect   ".switch:_MSC_Bulk"
    4396                      .clink
    4397 000000 0000' $C$SW1: .long   $C$L88  ; 0
         000001 1078 
    4398 000002 0000'         .long   $C$L89  ; 1
         000003 1086 
    4399 000004 0000'         .long   $C$L92  ; 2
         000005 10B6 
    4400 000006 0000'         .long   $C$L91  ; 3
         000007 10A8 
    4401 000008 0000'         .long   $C$L90  ; 4
         000009 1097 
    4402 00000a 0000'         .long   $C$L93  ; 5
         00000b 10C4 
    4403 00000c 0000'         .long   $C$L94  ; 6
         00000d 10D3 
    4404 00000e 0000'         .long   $C$L95  ; 7
         00000f 10E1 
    4405 00111b               .sect   ".text"
    4406 00111b       $C$L98:    
    4407                      .dwpsn  file "../c5535_bsl_revc/ezdsp5535_v1/c55xx_csl/src/csl_msc.c",line 871,column 3,is_stmt
    4408 00111b E614          MOV #-5, *SP(#10) ; |871| 
         00111d FB   
    4409 00111e       $C$L99:    
    4410                      .dwpsn  file "../c5535_bsl_revc/ezdsp5535_v1/c55xx_csl/src/csl_msc.c",line 874,column 2,is_stmt
    4411 00111e A414          MOV *SP(#10), T0 ; |874| 
    4412                      .dwpsn  file "../c5535_bsl_revc/ezdsp5535_v1/c55xx_csl/src/csl_msc.c",line 875,column 1,is_stmt
    4413 001120 4E0D          AADD #13, SP
    4414                      .dwcfi  cfa_offset, 1
    4415              $C$DW$344       .dwtag  DW_TAG_TI_branch
    4416                      .dwattr $C$DW$344, DW_AT_low_pc(0x00)
    4417                      .dwattr $C$DW$344, DW_AT_TI_return
    4418 001122 4804          RET
    4419                                                      ; return occurs
    4420                      .dwattr $C$DW$326, DW_AT_TI_end_file("../c5535_bsl_revc/ezdsp5535_v1/c55xx_csl/src/csl_msc.c")
    4421                      .dwattr $C$DW$326, DW_AT_TI_end_line(0x36b)
    4422                      .dwattr $C$DW$326, DW_AT_TI_end_column(0x01)
    4423                      .dwendentry
    4424                      .dwendtag $C$DW$326
    4425              
    4426 001124               .sect   ".text"
    4427                      .align 4
    4428                      .global _MSC_GetLunLockedStatus
    4429              
    4430              $C$DW$345       .dwtag  DW_TAG_subprogram, DW_AT_name("MSC_GetLunLockedStatus")
    4431                      .dwattr $C$DW$345, DW_AT_low_pc(_MSC_GetLunLockedStatus)
    4432                      .dwattr $C$DW$345, DW_AT_high_pc(0x00)
    4433                      .dwattr $C$DW$345, DW_AT_TI_symbol_name("_MSC_GetLunLockedStatus")
    4434                      .dwattr $C$DW$345, DW_AT_external
    4435                      .dwattr $C$DW$345, DW_AT_type(*$C$DW$T$25)
    4436                      .dwattr $C$DW$345, DW_AT_TI_begin_file("../c5535_bsl_revc/ezdsp5535_v1/c55xx_csl/src/csl_msc.c")
    4437                      .dwattr $C$DW$345, DW_AT_TI_begin_line(0x39b)
TMS320C55x Assembler PC v4.4.1 Tue Oct 02 02:33:20 2018

Tools Copyright (c) 1996-2012 Texas Instruments Incorporated
csl_msc.asm                                                          PAGE  103

    4438                      .dwattr $C$DW$345, DW_AT_TI_begin_column(0x08)
    4439                      .dwattr $C$DW$345, DW_AT_TI_max_frame_size(0x0a)
    4440                      .dwpsn  file "../c5535_bsl_revc/ezdsp5535_v1/c55xx_csl/src/csl_msc.c",line 925,column 1,is_stmt,addre
    4441              
    4442                      .dwfde $C$DW$CIE, _MSC_GetLunLockedStatus
    4443              $C$DW$346       .dwtag  DW_TAG_formal_parameter, DW_AT_name("pMSC")
    4444                      .dwattr $C$DW$346, DW_AT_TI_symbol_name("_pMSC")
    4445                      .dwattr $C$DW$346, DW_AT_type(*$C$DW$T$3)
    4446                      .dwattr $C$DW$346, DW_AT_location[DW_OP_reg17]
    4447              $C$DW$347       .dwtag  DW_TAG_formal_parameter, DW_AT_name("lunNum")
    4448                      .dwattr $C$DW$347, DW_AT_TI_symbol_name("_lunNum")
    4449                      .dwattr $C$DW$347, DW_AT_type(*$C$DW$T$25)
    4450                      .dwattr $C$DW$347, DW_AT_location[DW_OP_reg12]
    4451              ;*******************************************************************************
    4452              ;* FUNCTION NAME: MSC_GetLunLockedStatus                                       *
    4453              ;*                                                                             *
    4454              ;*   Function Uses Regs : AC0,AC0,AC1,AC1,T0,AR0,XAR0,AR2,XAR2,AR3,XAR3,SP,    *
    4455              ;*                        CARRY,TC1,M40,SATA,SATD,RDM,FRCT,SMUL                *
    4456              ;*   Stack Frame        : Compact (No Frame Pointer, w/ debug)                 *
    4457              ;*   Total Frame Size   : 10 words                                             *
    4458              ;*                        (2 return address/alignment)                         *
    4459              ;*                        (8 local values)                                     *
    4460              ;*   Min System Stack   : 1 word                                               *
    4461              ;*******************************************************************************
    4462 001124       _MSC_GetLunLockedStatus:
    4463                      .dwcfi  cfa_offset, 1
    4464                      .dwcfi  save_reg_to_mem, 91, -1
    4465 001124 4EF7          AADD #-9, SP
    4466                      .dwcfi  cfa_offset, 10
    4467              $C$DW$348       .dwtag  DW_TAG_variable, DW_AT_name("pMSC")
    4468                      .dwattr $C$DW$348, DW_AT_TI_symbol_name("_pMSC")
    4469                      .dwattr $C$DW$348, DW_AT_type(*$C$DW$T$3)
    4470                      .dwattr $C$DW$348, DW_AT_location[DW_OP_bregx 0x24 0]
    4471              $C$DW$349       .dwtag  DW_TAG_variable, DW_AT_name("lunNum")
    4472                      .dwattr $C$DW$349, DW_AT_TI_symbol_name("_lunNum")
    4473                      .dwattr $C$DW$349, DW_AT_type(*$C$DW$T$25)
    4474                      .dwattr $C$DW$349, DW_AT_location[DW_OP_bregx 0x24 2]
    4475              $C$DW$350       .dwtag  DW_TAG_variable, DW_AT_name("pMscClassHdl")
    4476                      .dwattr $C$DW$350, DW_AT_TI_symbol_name("_pMscClassHdl")
    4477                      .dwattr $C$DW$350, DW_AT_type(*$C$DW$T$98)
    4478                      .dwattr $C$DW$350, DW_AT_location[DW_OP_bregx 0x24 4]
    4479              $C$DW$351       .dwtag  DW_TAG_variable, DW_AT_name("pMscHandle")
    4480                      .dwattr $C$DW$351, DW_AT_TI_symbol_name("_pMscHandle")
    4481                      .dwattr $C$DW$351, DW_AT_type(*$C$DW$T$107)
    4482                      .dwattr $C$DW$351, DW_AT_location[DW_OP_bregx 0x24 6]
    4483 001126 C404          MOV T0, *SP(#2) ; |925| 
    4484 001128 EB00          MOV XAR0, dbl(*SP(#0))
         00112a 85   
    4485                      .dwpsn  file "../c5535_bsl_revc/ezdsp5535_v1/c55xx_csl/src/csl_msc.c",line 929,column 4,is_stmt
    4486 00112b ED00          MOV dbl(*SP(#0)), XAR3
         00112d BF   
    4487 00112e EB08          MOV XAR3, dbl(*SP(#4))
         001130 B5   
    4488                      .dwpsn  file "../c5535_bsl_revc/ezdsp5535_v1/c55xx_csl/src/csl_msc.c",line 930,column 4,is_stmt
    4489 001131 B46F          AMAR *+AR3(#182) ; |930| 
TMS320C55x Assembler PC v4.4.1 Tue Oct 02 02:33:20 2018

Tools Copyright (c) 1996-2012 Texas Instruments Incorporated
csl_msc.asm                                                          PAGE  104

         001133 00B6 
    4490 001135 EB0C          MOV XAR3, dbl(*SP(#6))
         001137 B5   
    4491                      .dwpsn  file "../c5535_bsl_revc/ezdsp5535_v1/c55xx_csl/src/csl_msc.c",line 932,column 4,is_stmt
    4492 001138 DF04          MOV uns(*SP(#2)), AC1 ; |932| 
         00113a 15   
    4493 00113b 1015          SFTS AC1, #6, AC0 ; |932| 
         00113d 06   
    4494 00113e 1014          SUB AC1 << #1, AC0 ; |932| 
         001140 01   
    4495 001141 900A          MOV AC0, XAR2
    4496 001143 14A1          AADD XAR2, XAR3 ; |932| 
         001145 B0   
    4497 001146 DC6D          BTST #1, *AR3(#75), TC1 ; |932| 
         001148 1000 
         00114a 4B   
    4498 00114b 6274          BCC $C$L100,!TC1 ; |932| 
    4499                                                      ; branchcc occurs ; |932| 
    4500                      .dwpsn  file "../c5535_bsl_revc/ezdsp5535_v1/c55xx_csl/src/csl_msc.c",line 934,column 8,is_stmt
    4501 00114d 3C14          MOV #1, T0
    4502 00114f 4A02          B $C$L101 ; |934| 
    4503                                                      ; branch occurs ; |934| 
    4504 001151       $C$L100:    
    4505                      .dwpsn  file "../c5535_bsl_revc/ezdsp5535_v1/c55xx_csl/src/csl_msc.c",line 938,column 8,is_stmt
    4506 001151 3C04          MOV #0, T0
    4507 001153       $C$L101:    
    4508                      .dwpsn  file "../c5535_bsl_revc/ezdsp5535_v1/c55xx_csl/src/csl_msc.c",line 940,column 1,is_stmt
    4509 001153 4E09          AADD #9, SP
    4510                      .dwcfi  cfa_offset, 1
    4511              $C$DW$352       .dwtag  DW_TAG_TI_branch
    4512                      .dwattr $C$DW$352, DW_AT_low_pc(0x00)
    4513                      .dwattr $C$DW$352, DW_AT_TI_return
    4514 001155 4804          RET
    4515                                                      ; return occurs
    4516                      .dwattr $C$DW$345, DW_AT_TI_end_file("../c5535_bsl_revc/ezdsp5535_v1/c55xx_csl/src/csl_msc.c")
    4517                      .dwattr $C$DW$345, DW_AT_TI_end_line(0x3ac)
    4518                      .dwattr $C$DW$345, DW_AT_TI_end_column(0x01)
    4519                      .dwendentry
    4520                      .dwendtag $C$DW$345
    4521              
    4522 001157               .sect   ".text"
    4523                      .align 4
    4524                      .global _MSC_GetactivityFlagStatus
    4525              
    4526              $C$DW$353       .dwtag  DW_TAG_subprogram, DW_AT_name("MSC_GetactivityFlagStatus")
    4527                      .dwattr $C$DW$353, DW_AT_low_pc(_MSC_GetactivityFlagStatus)
    4528                      .dwattr $C$DW$353, DW_AT_high_pc(0x00)
    4529                      .dwattr $C$DW$353, DW_AT_TI_symbol_name("_MSC_GetactivityFlagStatus")
    4530                      .dwattr $C$DW$353, DW_AT_external
    4531                      .dwattr $C$DW$353, DW_AT_type(*$C$DW$T$25)
    4532                      .dwattr $C$DW$353, DW_AT_TI_begin_file("../c5535_bsl_revc/ezdsp5535_v1/c55xx_csl/src/csl_msc.c")
    4533                      .dwattr $C$DW$353, DW_AT_TI_begin_line(0x3db)
    4534                      .dwattr $C$DW$353, DW_AT_TI_begin_column(0x08)
    4535                      .dwattr $C$DW$353, DW_AT_TI_max_frame_size(0x08)
    4536                      .dwpsn  file "../c5535_bsl_revc/ezdsp5535_v1/c55xx_csl/src/csl_msc.c",line 988,column 1,is_stmt,addre
TMS320C55x Assembler PC v4.4.1 Tue Oct 02 02:33:20 2018

Tools Copyright (c) 1996-2012 Texas Instruments Incorporated
csl_msc.asm                                                          PAGE  105

    4537              
    4538                      .dwfde $C$DW$CIE, _MSC_GetactivityFlagStatus
    4539              $C$DW$354       .dwtag  DW_TAG_formal_parameter, DW_AT_name("pMSC")
    4540                      .dwattr $C$DW$354, DW_AT_TI_symbol_name("_pMSC")
    4541                      .dwattr $C$DW$354, DW_AT_type(*$C$DW$T$3)
    4542                      .dwattr $C$DW$354, DW_AT_location[DW_OP_reg17]
    4543              ;*******************************************************************************
    4544              ;* FUNCTION NAME: MSC_GetactivityFlagStatus                                    *
    4545              ;*                                                                             *
    4546              ;*   Function Uses Regs : T0,AR0,XAR0,AR3,XAR3,SP,M40,SATA,SATD,RDM,FRCT,SMUL  *
    4547              ;*   Stack Frame        : Compact (No Frame Pointer, w/ debug)                 *
    4548              ;*   Total Frame Size   : 8 words                                              *
    4549              ;*                        (2 return address/alignment)                         *
    4550              ;*                        (6 local values)                                     *
    4551              ;*   Min System Stack   : 1 word                                               *
    4552              ;*******************************************************************************
    4553 001158       _MSC_GetactivityFlagStatus:
    4554                      .dwcfi  cfa_offset, 1
    4555                      .dwcfi  save_reg_to_mem, 91, -1
    4556 001158 4EF9          AADD #-7, SP
    4557                      .dwcfi  cfa_offset, 8
    4558              $C$DW$355       .dwtag  DW_TAG_variable, DW_AT_name("pMSC")
    4559                      .dwattr $C$DW$355, DW_AT_TI_symbol_name("_pMSC")
    4560                      .dwattr $C$DW$355, DW_AT_type(*$C$DW$T$3)
    4561                      .dwattr $C$DW$355, DW_AT_location[DW_OP_bregx 0x24 0]
    4562              $C$DW$356       .dwtag  DW_TAG_variable, DW_AT_name("pMscClassHdl")
    4563                      .dwattr $C$DW$356, DW_AT_TI_symbol_name("_pMscClassHdl")
    4564                      .dwattr $C$DW$356, DW_AT_type(*$C$DW$T$98)
    4565                      .dwattr $C$DW$356, DW_AT_location[DW_OP_bregx 0x24 2]
    4566              $C$DW$357       .dwtag  DW_TAG_variable, DW_AT_name("pMscHandle")
    4567                      .dwattr $C$DW$357, DW_AT_TI_symbol_name("_pMscHandle")
    4568                      .dwattr $C$DW$357, DW_AT_type(*$C$DW$T$107)
    4569                      .dwattr $C$DW$357, DW_AT_location[DW_OP_bregx 0x24 4]
    4570 00115a EB00          MOV XAR0, dbl(*SP(#0))
         00115c 85   
    4571                      .dwpsn  file "../c5535_bsl_revc/ezdsp5535_v1/c55xx_csl/src/csl_msc.c",line 992,column 4,is_stmt
    4572 00115d ED00          MOV dbl(*SP(#0)), XAR3
         00115f BF   
    4573 001160 EB04          MOV XAR3, dbl(*SP(#2))
         001162 B5   
    4574                      .dwpsn  file "../c5535_bsl_revc/ezdsp5535_v1/c55xx_csl/src/csl_msc.c",line 993,column 4,is_stmt
    4575 001163 B46F          AMAR *+AR3(#182) ; |993| 
         001165 00B6 
    4576 001167 EB08          MOV XAR3, dbl(*SP(#4))
         001169 B5   
    4577                      .dwpsn  file "../c5535_bsl_revc/ezdsp5535_v1/c55xx_csl/src/csl_msc.c",line 995,column 4,is_stmt
    4578 00116a A46D          MOV *AR3(#281), T0 ; |995| 
         00116c 0119 
    4579                      .dwpsn  file "../c5535_bsl_revc/ezdsp5535_v1/c55xx_csl/src/csl_msc.c",line 996,column 1,is_stmt
    4580 00116e 4E07          AADD #7, SP
    4581                      .dwcfi  cfa_offset, 1
    4582              $C$DW$358       .dwtag  DW_TAG_TI_branch
    4583                      .dwattr $C$DW$358, DW_AT_low_pc(0x00)
    4584                      .dwattr $C$DW$358, DW_AT_TI_return
    4585 001170 4804          RET
TMS320C55x Assembler PC v4.4.1 Tue Oct 02 02:33:20 2018

Tools Copyright (c) 1996-2012 Texas Instruments Incorporated
csl_msc.asm                                                          PAGE  106

    4586                                                      ; return occurs
    4587                      .dwattr $C$DW$353, DW_AT_TI_end_file("../c5535_bsl_revc/ezdsp5535_v1/c55xx_csl/src/csl_msc.c")
    4588                      .dwattr $C$DW$353, DW_AT_TI_end_line(0x3e4)
    4589                      .dwattr $C$DW$353, DW_AT_TI_end_column(0x01)
    4590                      .dwendentry
    4591                      .dwendtag $C$DW$353
    4592              
    4593 001172               .sect   ".text"
    4594                      .align 4
    4595                      .global _MSC_GetsuspendFlagStatus
    4596              
    4597              $C$DW$359       .dwtag  DW_TAG_subprogram, DW_AT_name("MSC_GetsuspendFlagStatus")
    4598                      .dwattr $C$DW$359, DW_AT_low_pc(_MSC_GetsuspendFlagStatus)
    4599                      .dwattr $C$DW$359, DW_AT_high_pc(0x00)
    4600                      .dwattr $C$DW$359, DW_AT_TI_symbol_name("_MSC_GetsuspendFlagStatus")
    4601                      .dwattr $C$DW$359, DW_AT_external
    4602                      .dwattr $C$DW$359, DW_AT_type(*$C$DW$T$25)
    4603                      .dwattr $C$DW$359, DW_AT_TI_begin_file("../c5535_bsl_revc/ezdsp5535_v1/c55xx_csl/src/csl_msc.c")
    4604                      .dwattr $C$DW$359, DW_AT_TI_begin_line(0x413)
    4605                      .dwattr $C$DW$359, DW_AT_TI_begin_column(0x08)
    4606                      .dwattr $C$DW$359, DW_AT_TI_max_frame_size(0x08)
    4607                      .dwpsn  file "../c5535_bsl_revc/ezdsp5535_v1/c55xx_csl/src/csl_msc.c",line 1044,column 1,is_stmt,addr
    4608              
    4609                      .dwfde $C$DW$CIE, _MSC_GetsuspendFlagStatus
    4610              $C$DW$360       .dwtag  DW_TAG_formal_parameter, DW_AT_name("pMSC")
    4611                      .dwattr $C$DW$360, DW_AT_TI_symbol_name("_pMSC")
    4612                      .dwattr $C$DW$360, DW_AT_type(*$C$DW$T$3)
    4613                      .dwattr $C$DW$360, DW_AT_location[DW_OP_reg17]
    4614              ;*******************************************************************************
    4615              ;* FUNCTION NAME: MSC_GetsuspendFlagStatus                                     *
    4616              ;*                                                                             *
    4617              ;*   Function Uses Regs : T0,AR0,XAR0,AR3,XAR3,SP,M40,SATA,SATD,RDM,FRCT,SMUL  *
    4618              ;*   Stack Frame        : Compact (No Frame Pointer, w/ debug)                 *
    4619              ;*   Total Frame Size   : 8 words                                              *
    4620              ;*                        (2 return address/alignment)                         *
    4621              ;*                        (6 local values)                                     *
    4622              ;*   Min System Stack   : 1 word                                               *
    4623              ;*******************************************************************************
    4624 001174       _MSC_GetsuspendFlagStatus:
    4625                      .dwcfi  cfa_offset, 1
    4626                      .dwcfi  save_reg_to_mem, 91, -1
    4627 001174 4EF9          AADD #-7, SP
    4628                      .dwcfi  cfa_offset, 8
    4629              $C$DW$361       .dwtag  DW_TAG_variable, DW_AT_name("pMSC")
    4630                      .dwattr $C$DW$361, DW_AT_TI_symbol_name("_pMSC")
    4631                      .dwattr $C$DW$361, DW_AT_type(*$C$DW$T$3)
    4632                      .dwattr $C$DW$361, DW_AT_location[DW_OP_bregx 0x24 0]
    4633              $C$DW$362       .dwtag  DW_TAG_variable, DW_AT_name("pMscClassHdl")
    4634                      .dwattr $C$DW$362, DW_AT_TI_symbol_name("_pMscClassHdl")
    4635                      .dwattr $C$DW$362, DW_AT_type(*$C$DW$T$98)
    4636                      .dwattr $C$DW$362, DW_AT_location[DW_OP_bregx 0x24 2]
    4637              $C$DW$363       .dwtag  DW_TAG_variable, DW_AT_name("pCtrlHandle")
    4638                      .dwattr $C$DW$363, DW_AT_TI_symbol_name("_pCtrlHandle")
    4639                      .dwattr $C$DW$363, DW_AT_type(*$C$DW$T$99)
    4640                      .dwattr $C$DW$363, DW_AT_location[DW_OP_bregx 0x24 4]
TMS320C55x Assembler PC v4.4.1 Tue Oct 02 02:33:20 2018

Tools Copyright (c) 1996-2012 Texas Instruments Incorporated
csl_msc.asm                                                          PAGE  107

    4641 001176 EB00          MOV XAR0, dbl(*SP(#0))
         001178 85   
    4642                      .dwpsn  file "../c5535_bsl_revc/ezdsp5535_v1/c55xx_csl/src/csl_msc.c",line 1048,column 4,is_stmt
    4643 001179 ED00          MOV dbl(*SP(#0)), XAR3
         00117b BF   
    4644 00117c EB04          MOV XAR3, dbl(*SP(#2))
         00117e B5   
    4645                      .dwpsn  file "../c5535_bsl_revc/ezdsp5535_v1/c55xx_csl/src/csl_msc.c",line 1049,column 4,is_stmt
    4646 00117f EB08          MOV XAR3, dbl(*SP(#4))
         001181 B5   
    4647                      .dwpsn  file "../c5535_bsl_revc/ezdsp5535_v1/c55xx_csl/src/csl_msc.c",line 1051,column 4,is_stmt
    4648 001182 A46D          MOV *AR3(#42), T0 ; |1051| 
         001184 002A 
    4649                      .dwpsn  file "../c5535_bsl_revc/ezdsp5535_v1/c55xx_csl/src/csl_msc.c",line 1052,column 1,is_stmt
    4650 001186 4E07          AADD #7, SP
    4651                      .dwcfi  cfa_offset, 1
    4652              $C$DW$364       .dwtag  DW_TAG_TI_branch
    4653                      .dwattr $C$DW$364, DW_AT_low_pc(0x00)
    4654                      .dwattr $C$DW$364, DW_AT_TI_return
    4655 001188 4804          RET
    4656                                                      ; return occurs
    4657                      .dwattr $C$DW$359, DW_AT_TI_end_file("../c5535_bsl_revc/ezdsp5535_v1/c55xx_csl/src/csl_msc.c")
    4658                      .dwattr $C$DW$359, DW_AT_TI_end_line(0x41c)
    4659                      .dwattr $C$DW$359, DW_AT_TI_end_column(0x01)
    4660                      .dwendentry
    4661                      .dwendtag $C$DW$359
    4662              
    4663 00118a               .sect   ".text"
    4664                      .align 4
    4665              
    4666              $C$DW$365       .dwtag  DW_TAG_subprogram, DW_AT_name("MSC_initCtrlDesc")
    4667                      .dwattr $C$DW$365, DW_AT_low_pc(_MSC_initCtrlDesc)
    4668                      .dwattr $C$DW$365, DW_AT_high_pc(0x00)
    4669                      .dwattr $C$DW$365, DW_AT_TI_symbol_name("_MSC_initCtrlDesc")
    4670                      .dwattr $C$DW$365, DW_AT_type(*$C$DW$T$89)
    4671                      .dwattr $C$DW$365, DW_AT_TI_begin_file("../c5535_bsl_revc/ezdsp5535_v1/c55xx_csl/src/csl_msc.c")
    4672                      .dwattr $C$DW$365, DW_AT_TI_begin_line(0x440)
    4673                      .dwattr $C$DW$365, DW_AT_TI_begin_column(0x13)
    4674                      .dwattr $C$DW$365, DW_AT_TI_max_frame_size(0x04)
    4675                      .dwpsn  file "../c5535_bsl_revc/ezdsp5535_v1/c55xx_csl/src/csl_msc.c",line 1089,column 1,is_stmt,addr
    4676              
    4677                      .dwfde $C$DW$CIE, _MSC_initCtrlDesc
    4678              $C$DW$366       .dwtag  DW_TAG_formal_parameter, DW_AT_name("pCtrlHandle")
    4679                      .dwattr $C$DW$366, DW_AT_TI_symbol_name("_pCtrlHandle")
    4680                      .dwattr $C$DW$366, DW_AT_type(*$C$DW$T$99)
    4681                      .dwattr $C$DW$366, DW_AT_location[DW_OP_reg17]
    4682              ;*******************************************************************************
    4683              ;* FUNCTION NAME: MSC_initCtrlDesc                                             *
    4684              ;*                                                                             *
    4685              ;*   Function Uses Regs : AC0,AC0,T0,AR0,XAR0,AR1,AR2,XAR2,AR3,XAR3,SP,TC1,M40,*
    4686              ;*                        SATA,SATD,RDM,FRCT,SMUL                              *
    4687              ;*   Stack Frame        : Compact (No Frame Pointer, w/ debug)                 *
    4688              ;*   Total Frame Size   : 4 words                                              *
    4689              ;*                        (1 return address/alignment)                         *
    4690              ;*                        (3 local values)                                     *
TMS320C55x Assembler PC v4.4.1 Tue Oct 02 02:33:20 2018

Tools Copyright (c) 1996-2012 Texas Instruments Incorporated
csl_msc.asm                                                          PAGE  108

    4691              ;*   Min System Stack   : 1 word                                               *
    4692              ;*******************************************************************************
    4693 00118c       _MSC_initCtrlDesc:
    4694                      .dwcfi  cfa_offset, 1
    4695                      .dwcfi  save_reg_to_mem, 91, -1
    4696 00118c 4EFD          AADD #-3, SP
    4697                      .dwcfi  cfa_offset, 4
    4698              $C$DW$367       .dwtag  DW_TAG_variable, DW_AT_name("pCtrlHandle")
    4699                      .dwattr $C$DW$367, DW_AT_TI_symbol_name("_pCtrlHandle")
    4700                      .dwattr $C$DW$367, DW_AT_type(*$C$DW$T$99)
    4701                      .dwattr $C$DW$367, DW_AT_location[DW_OP_bregx 0x24 0]
    4702              $C$DW$368       .dwtag  DW_TAG_variable, DW_AT_name("status")
    4703                      .dwattr $C$DW$368, DW_AT_TI_symbol_name("_status")
    4704                      .dwattr $C$DW$368, DW_AT_type(*$C$DW$T$89)
    4705                      .dwattr $C$DW$368, DW_AT_location[DW_OP_bregx 0x24 2]
    4706 00118e EB00          MOV XAR0, dbl(*SP(#0))
         001190 85   
    4707                      .dwpsn  file "../c5535_bsl_revc/ezdsp5535_v1/c55xx_csl/src/csl_msc.c",line 1092,column 2,is_stmt
    4708 001191 E604          MOV #0, *SP(#2) ; |1092| 
         001193 00   
    4709                      .dwpsn  file "../c5535_bsl_revc/ezdsp5535_v1/c55xx_csl/src/csl_msc.c",line 1094,column 2,is_stmt
    4710 001194 ED00          MOV dbl(*SP(#0)), XAR3
         001196 BF   
    4711 001197 90B0          MOV XAR3, AC0
    4712 001199 6D00          BCC $C$L104,AC0 == #0 ; |1094| 
         00119b 0384 
    4713                                                      ; branchcc occurs ; |1094| 
    4714                      .dwpsn  file "../c5535_bsl_revc/ezdsp5535_v1/c55xx_csl/src/csl_msc.c",line 1102,column 3,is_stmt
    4715 00119d E66D          MOV #0, *AR3(#94) ; |1102| 
         00119f 0000 
         0011a1 5E   
    4716                      .dwpsn  file "../c5535_bsl_revc/ezdsp5535_v1/c55xx_csl/src/csl_msc.c",line 1104,column 3,is_stmt
    4717 0011a2 ED00          MOV dbl(*SP(#0)), XAR3
         0011a4 BF   
    4718 0011a5 FB6D          MOV #274, *AR3(#95) ; |1104| 
         0011a7 0112 
         0011a9 005F 
    4719                      .dwpsn  file "../c5535_bsl_revc/ezdsp5535_v1/c55xx_csl/src/csl_msc.c",line 1108,column 3,is_stmt
    4720 0011ab ED00          MOV dbl(*SP(#0)), XAR3
         0011ad BF   
    4721 0011ae FB6D          MOV #512, *AR3(#96) ; |1108| 
         0011b0 0200 
         0011b2 0060 
    4722                      .dwpsn  file "../c5535_bsl_revc/ezdsp5535_v1/c55xx_csl/src/csl_msc.c",line 1110,column 3,is_stmt
    4723 0011b4 ED00          MOV dbl(*SP(#0)), XAR3
         0011b6 BF   
    4724 0011b7 E66D          MOV #0, *AR3(#97) ; |1110| 
         0011b9 0000 
         0011bb 61   
    4725                      .dwpsn  file "../c5535_bsl_revc/ezdsp5535_v1/c55xx_csl/src/csl_msc.c",line 1112,column 3,is_stmt
    4726 0011bc ED00          MOV dbl(*SP(#0)), XAR3
         0011be BF   
    4727 0011bf FB6D          MOV #16384, *AR3(#98) ; |1112| 
         0011c1 4000 
         0011c3 0062 
TMS320C55x Assembler PC v4.4.1 Tue Oct 02 02:33:20 2018

Tools Copyright (c) 1996-2012 Texas Instruments Incorporated
csl_msc.asm                                                          PAGE  109

    4728                      .dwpsn  file "../c5535_bsl_revc/ezdsp5535_v1/c55xx_csl/src/csl_msc.c",line 1114,column 3,is_stmt
    4729 0011c5 ED00          MOV dbl(*SP(#0)), XAR3
         0011c7 BF   
    4730 0011c8 FB6D          MOV #1105, *AR3(#99) ; |1114| 
         0011ca 0451 
         0011cc 0063 
    4731                      .dwpsn  file "../c5535_bsl_revc/ezdsp5535_v1/c55xx_csl/src/csl_msc.c",line 1116,column 3,is_stmt
    4732 0011ce ED00          MOV dbl(*SP(#0)), XAR3
         0011d0 BF   
    4733 0011d1 FB6D          MOV #36880, *AR3(#100) ; |1116| 
         0011d3 9010 
         0011d5 0064 
    4734                      .dwpsn  file "../c5535_bsl_revc/ezdsp5535_v1/c55xx_csl/src/csl_msc.c",line 1118,column 3,is_stmt
    4735 0011d7 ED00          MOV dbl(*SP(#0)), XAR3
         0011d9 BF   
    4736 0011da E66D          MOV #1, *AR3(#101) ; |1118| 
         0011dc 0100 
         0011de 65   
    4737                      .dwpsn  file "../c5535_bsl_revc/ezdsp5535_v1/c55xx_csl/src/csl_msc.c",line 1120,column 3,is_stmt
    4738 0011df ED00          MOV dbl(*SP(#0)), XAR3
         0011e1 BF   
    4739 0011e2 FB6D          MOV #513, *AR3(#102) ; |1120| 
         0011e4 0201 
         0011e6 0066 
    4740                      .dwpsn  file "../c5535_bsl_revc/ezdsp5535_v1/c55xx_csl/src/csl_msc.c",line 1122,column 3,is_stmt
    4741 0011e8 ED00          MOV dbl(*SP(#0)), XAR3
         0011ea BF   
    4742 0011eb FB6D          MOV #259, *AR3(#103) ; |1122| 
         0011ed 0103 
         0011ef 0067 
    4743                      .dwpsn  file "../c5535_bsl_revc/ezdsp5535_v1/c55xx_csl/src/csl_msc.c",line 1125,column 3,is_stmt
    4744 0011f1 ED00          MOV dbl(*SP(#0)), XAR3
         0011f3 BF   
    4745 0011f4 E66D          MOV #0, *AR3(#104) ; |1125| 
         0011f6 0000 
         0011f8 68   
    4746                      .dwpsn  file "../c5535_bsl_revc/ezdsp5535_v1/c55xx_csl/src/csl_msc.c",line 1127,column 3,is_stmt
    4747 0011f9 ED00          MOV dbl(*SP(#0)), XAR3
         0011fb BF   
    4748 0011fc FB6D          MOV #1546, *AR3(#105) ; |1127| 
         0011fe 060A 
         001200 0069 
    4749                      .dwpsn  file "../c5535_bsl_revc/ezdsp5535_v1/c55xx_csl/src/csl_msc.c",line 1131,column 3,is_stmt
    4750 001202 ED00          MOV dbl(*SP(#0)), XAR3
         001204 BF   
    4751 001205 FB6D          MOV #512, *AR3(#106) ; |1131| 
         001207 0200 
         001209 006A 
    4752                      .dwpsn  file "../c5535_bsl_revc/ezdsp5535_v1/c55xx_csl/src/csl_msc.c",line 1133,column 3,is_stmt
    4753 00120b ED00          MOV dbl(*SP(#0)), XAR3
         00120d BF   
    4754 00120e E66D          MOV #0, *AR3(#107) ; |1133| 
         001210 0000 
         001212 6B   
    4755                      .dwpsn  file "../c5535_bsl_revc/ezdsp5535_v1/c55xx_csl/src/csl_msc.c",line 1135,column 3,is_stmt
TMS320C55x Assembler PC v4.4.1 Tue Oct 02 02:33:20 2018

Tools Copyright (c) 1996-2012 Texas Instruments Incorporated
csl_msc.asm                                                          PAGE  110

    4756 001213 ED00          MOV dbl(*SP(#0)), XAR3
         001215 BF   
    4757 001216 FB6D          MOV #16384, *AR3(#108) ; |1135| 
         001218 4000 
         00121a 006C 
    4758                      .dwpsn  file "../c5535_bsl_revc/ezdsp5535_v1/c55xx_csl/src/csl_msc.c",line 1137,column 3,is_stmt
    4759 00121c ED00          MOV dbl(*SP(#0)), XAR3
         00121e BF   
    4760 00121f E66D          MOV #1, *AR3(#109) ; |1137| 
         001221 0100 
         001223 6D   
    4761                      .dwpsn  file "../c5535_bsl_revc/ezdsp5535_v1/c55xx_csl/src/csl_msc.c",line 1140,column 3,is_stmt
    4762 001224 ED00          MOV dbl(*SP(#0)), XAR3
         001226 BF   
    4763 001227 E66D          MOV #0, *AR3(#110) ; |1140| 
         001229 0000 
         00122b 6E   
    4764                      .dwpsn  file "../c5535_bsl_revc/ezdsp5535_v1/c55xx_csl/src/csl_msc.c",line 1142,column 3,is_stmt
    4765 00122c ED00          MOV dbl(*SP(#0)), XAR3
         00122e BF   
    4766 00122f FB6D          MOV #521, *AR3(#111) ; |1142| 
         001231 0209 
         001233 006F 
    4767                      .dwpsn  file "../c5535_bsl_revc/ezdsp5535_v1/c55xx_csl/src/csl_msc.c",line 1146,column 3,is_stmt
    4768 001235 ED00          MOV dbl(*SP(#0)), XAR3
         001237 BF   
    4769 001238 E66D          MOV #32, *AR3(#112) ; |1146| 
         00123a 2000 
         00123c 70   
    4770                      .dwpsn  file "../c5535_bsl_revc/ezdsp5535_v1/c55xx_csl/src/csl_msc.c",line 1148,column 3,is_stmt
    4771 00123d ED00          MOV dbl(*SP(#0)), XAR3
         00123f BF   
    4772 001240 FB6D          MOV #257, *AR3(#113) ; |1148| 
         001242 0101 
         001244 0071 
    4773                      .dwpsn  file "../c5535_bsl_revc/ezdsp5535_v1/c55xx_csl/src/csl_msc.c",line 1150,column 3,is_stmt
    4774 001246 ED00          MOV dbl(*SP(#0)), XAR3
         001248 BF   
    4775 001249 FB6D          MOV #49156, *AR3(#114) ; |1150| 
         00124b C004 
         00124d 0072 
    4776                      .dwpsn  file "../c5535_bsl_revc/ezdsp5535_v1/c55xx_csl/src/csl_msc.c",line 1152,column 3,is_stmt
    4777              $C$DW$369       .dwtag  DW_TAG_TI_branch
    4778                      .dwattr $C$DW$369, DW_AT_low_pc(0x00)
    4779                      .dwattr $C$DW$369, DW_AT_name("_USB_getMaxPower")
    4780                      .dwattr $C$DW$369, DW_AT_TI_call
    4781              
    4782 00124f 6C00          CALL #_USB_getMaxPower ; |1152| 
         001251 0000!
    4783 001253 3D04  ||      MOV #0, T0
    4784              
    4785                                                      ; call occurs [#_USB_getMaxPower] ; |1152| 
    4786 001255 ED00          MOV dbl(*SP(#0)), XAR3
         001257 BF   
    4787 001258 C46D          MOV T0, *AR3(#115) ; |1152| 
TMS320C55x Assembler PC v4.4.1 Tue Oct 02 02:33:20 2018

Tools Copyright (c) 1996-2012 Texas Instruments Incorporated
csl_msc.asm                                                          PAGE  111

         00125a 0073 
    4788                      .dwpsn  file "../c5535_bsl_revc/ezdsp5535_v1/c55xx_csl/src/csl_msc.c",line 1155,column 3,is_stmt
    4789 00125c ED00          MOV dbl(*SP(#0)), XAR3
         00125e BF   
    4790 00125f E66D          MOV #0, *AR3(#116) ; |1155| 
         001261 0000 
         001263 74   
    4791                      .dwpsn  file "../c5535_bsl_revc/ezdsp5535_v1/c55xx_csl/src/csl_msc.c",line 1157,column 3,is_stmt
    4792 001264 ED00          MOV dbl(*SP(#0)), XAR3
         001266 BF   
    4793 001267 FB6D          MOV #1033, *AR3(#117) ; |1157| 
         001269 0409 
         00126b 0075 
    4794                      .dwpsn  file "../c5535_bsl_revc/ezdsp5535_v1/c55xx_csl/src/csl_msc.c",line 1161,column 3,is_stmt
    4795 00126d ED00          MOV dbl(*SP(#0)), XAR3
         00126f BF   
    4796 001270 E66D          MOV #0, *AR3(#118) ; |1161| 
         001272 0000 
         001274 76   
    4797                      .dwpsn  file "../c5535_bsl_revc/ezdsp5535_v1/c55xx_csl/src/csl_msc.c",line 1163,column 3,is_stmt
    4798 001275 ED00          MOV dbl(*SP(#0)), XAR3
         001277 BF   
    4799 001278 FB6D          MOV #2050, *AR3(#119) ; |1163| 
         00127a 0802 
         00127c 0077 
    4800                      .dwpsn  file "../c5535_bsl_revc/ezdsp5535_v1/c55xx_csl/src/csl_msc.c",line 1165,column 3,is_stmt
    4801 00127e ED00          MOV dbl(*SP(#0)), XAR3
         001280 BF   
    4802 001281 FB6D          MOV #20486, *AR3(#120) ; |1165| 
         001283 5006 
         001285 0078 
    4803                      .dwpsn  file "../c5535_bsl_revc/ezdsp5535_v1/c55xx_csl/src/csl_msc.c",line 1167,column 3,is_stmt
    4804 001287 ED00          MOV dbl(*SP(#0)), XAR3
         001289 BF   
    4805 00128a E66D          MOV #5, *AR3(#121) ; |1167| 
         00128c 0500 
         00128e 79   
    4806                      .dwpsn  file "../c5535_bsl_revc/ezdsp5535_v1/c55xx_csl/src/csl_msc.c",line 1170,column 3,is_stmt
    4807 00128f ED00          MOV dbl(*SP(#0)), XAR3
         001291 BF   
    4808 001292 E66D          MOV #0, *AR3(#122) ; |1170| 
         001294 0000 
         001296 7A   
    4809                      .dwpsn  file "../c5535_bsl_revc/ezdsp5535_v1/c55xx_csl/src/csl_msc.c",line 1173,column 3,is_stmt
    4810 001297 ED00          MOV dbl(*SP(#0)), XAR3
         001299 BF   
    4811 00129a FB6D          MOV #1287, *AR3(#123) ; |1173| 
         00129c 0507 
         00129e 007B 
    4812                      .dwpsn  file "../c5535_bsl_revc/ezdsp5535_v1/c55xx_csl/src/csl_msc.c",line 1177,column 3,is_stmt
    4813 0012a0 ED00          MOV dbl(*SP(#0)), XAR3
         0012a2 BF   
    4814 0012a3 FB6D          MOV #514, *AR3(#124) ; |1177| 
         0012a5 0202 
         0012a7 007C 
TMS320C55x Assembler PC v4.4.1 Tue Oct 02 02:33:20 2018

Tools Copyright (c) 1996-2012 Texas Instruments Incorporated
csl_msc.asm                                                          PAGE  112

    4815                      .dwpsn  file "../c5535_bsl_revc/ezdsp5535_v1/c55xx_csl/src/csl_msc.c",line 1180,column 3,is_stmt
    4816 0012a9 ED00          MOV dbl(*SP(#0)), XAR3
         0012ab BF   
    4817 0012ac E66D          MOV #64, *AR3(#125) ; |1180| 
         0012ae 4000 
         0012b0 7D   
    4818                      .dwpsn  file "../c5535_bsl_revc/ezdsp5535_v1/c55xx_csl/src/csl_msc.c",line 1183,column 3,is_stmt
    4819 0012b1 ED00          MOV dbl(*SP(#0)), XAR3
         0012b3 BF   
    4820 0012b4 E66D          MOV #0, *AR3(#126) ; |1183| 
         0012b6 0000 
         0012b8 7E   
    4821                      .dwpsn  file "../c5535_bsl_revc/ezdsp5535_v1/c55xx_csl/src/csl_msc.c",line 1187,column 3,is_stmt
    4822 0012b9 ED00          MOV dbl(*SP(#0)), XAR3
         0012bb BF   
    4823 0012bc E66D          MOV #0, *AR3(#134) ; |1187| 
         0012be 0000 
         0012c0 86   
    4824                      .dwpsn  file "../c5535_bsl_revc/ezdsp5535_v1/c55xx_csl/src/csl_msc.c",line 1190,column 3,is_stmt
    4825 0012c1 ED00          MOV dbl(*SP(#0)), XAR3
         0012c3 BF   
    4826 0012c4 FB6D          MOV #1287, *AR3(#135) ; |1190| 
         0012c6 0507 
         0012c8 0087 
    4827                      .dwpsn  file "../c5535_bsl_revc/ezdsp5535_v1/c55xx_csl/src/csl_msc.c",line 1194,column 3,is_stmt
    4828 0012ca ED00          MOV dbl(*SP(#0)), XAR3
         0012cc BF   
    4829 0012cd FB6D          MOV #642, *AR3(#136) ; |1194| 
         0012cf 0282 
         0012d1 0088 
    4830                      .dwpsn  file "../c5535_bsl_revc/ezdsp5535_v1/c55xx_csl/src/csl_msc.c",line 1197,column 3,is_stmt
    4831 0012d3 ED00          MOV dbl(*SP(#0)), XAR3
         0012d5 BF   
    4832 0012d6 E66D          MOV #64, *AR3(#137) ; |1197| 
         0012d8 4000 
         0012da 89   
    4833                      .dwpsn  file "../c5535_bsl_revc/ezdsp5535_v1/c55xx_csl/src/csl_msc.c",line 1200,column 3,is_stmt
    4834 0012db ED00          MOV dbl(*SP(#0)), XAR3
         0012dd BF   
    4835 0012de E66D          MOV #0, *AR3(#138) ; |1200| 
         0012e0 0000 
         0012e2 8A   
    4836                      .dwpsn  file "../c5535_bsl_revc/ezdsp5535_v1/c55xx_csl/src/csl_msc.c",line 1214,column 3,is_stmt
    4837 0012e3 ED00          MOV dbl(*SP(#0)), XAR3
         0012e5 BF   
    4838 0012e6 E66D          MOV #0, *AR3(#60) ; |1214| 
         0012e8 0000 
         0012ea 3C   
    4839                      .dwpsn  file "../c5535_bsl_revc/ezdsp5535_v1/c55xx_csl/src/csl_msc.c",line 1218,column 3,is_stmt
    4840 0012eb ED00          MOV dbl(*SP(#0)), XAR3
         0012ed BF   
    4841 0012ee FB6D          MOV #521, *AR3(#61) ; |1218| 
         0012f0 0209 
         0012f2 003D 
    4842                      .dwpsn  file "../c5535_bsl_revc/ezdsp5535_v1/c55xx_csl/src/csl_msc.c",line 1222,column 3,is_stmt
TMS320C55x Assembler PC v4.4.1 Tue Oct 02 02:33:20 2018

Tools Copyright (c) 1996-2012 Texas Instruments Incorporated
csl_msc.asm                                                          PAGE  113

    4843 0012f4 ED00          MOV dbl(*SP(#0)), XAR3
         0012f6 BF   
    4844 0012f7 E66D          MOV #32, *AR3(#62) ; |1222| 
         0012f9 2000 
         0012fb 3E   
    4845                      .dwpsn  file "../c5535_bsl_revc/ezdsp5535_v1/c55xx_csl/src/csl_msc.c",line 1224,column 3,is_stmt
    4846 0012fc ED00          MOV dbl(*SP(#0)), XAR3
         0012fe BF   
    4847 0012ff FB6D          MOV #257, *AR3(#63) ; |1224| 
         001301 0101 
         001303 003F 
    4848                      .dwpsn  file "../c5535_bsl_revc/ezdsp5535_v1/c55xx_csl/src/csl_msc.c",line 1226,column 3,is_stmt
    4849 001305 ED00          MOV dbl(*SP(#0)), XAR3
         001307 BF   
    4850 001308 FB6D          MOV #49156, *AR3(#64) ; |1226| 
         00130a C004 
         00130c 0040 
    4851                      .dwpsn  file "../c5535_bsl_revc/ezdsp5535_v1/c55xx_csl/src/csl_msc.c",line 1228,column 3,is_stmt
    4852              $C$DW$370       .dwtag  DW_TAG_TI_branch
    4853                      .dwattr $C$DW$370, DW_AT_low_pc(0x00)
    4854                      .dwattr $C$DW$370, DW_AT_name("_USB_getMaxPower")
    4855                      .dwattr $C$DW$370, DW_AT_TI_call
    4856              
    4857 00130e 6C00          CALL #_USB_getMaxPower ; |1228| 
         001310 0000!
    4858 001312 3D04  ||      MOV #0, T0
    4859              
    4860                                                      ; call occurs [#_USB_getMaxPower] ; |1228| 
    4861 001314 ED00          MOV dbl(*SP(#0)), XAR3
         001316 BF   
    4862 001317 18FF          AND #0x00ff, T0, AR1 ; |1228| 
         001319 94   
    4863 00131a 7E09          OR #0x0900, AR1, AR1 ; |1228| 
         00131c 0099 
    4864 00131e C96D          MOV AR1, *AR3(#65) ; |1228| 
         001320 0041 
    4865                      .dwpsn  file "../c5535_bsl_revc/ezdsp5535_v1/c55xx_csl/src/csl_msc.c",line 1233,column 3,is_stmt
    4866 001322 ED00          MOV dbl(*SP(#0)), XAR3
         001324 BF   
    4867 001325 E66D          MOV #4, *AR3(#66) ; |1233| 
         001327 0400 
         001329 42   
    4868                      .dwpsn  file "../c5535_bsl_revc/ezdsp5535_v1/c55xx_csl/src/csl_msc.c",line 1235,column 3,is_stmt
    4869 00132a ED00          MOV dbl(*SP(#0)), XAR3
         00132c BF   
    4870 00132d FB6D          MOV #512, *AR3(#67) ; |1235| 
         00132f 0200 
         001331 0043 
    4871                      .dwpsn  file "../c5535_bsl_revc/ezdsp5535_v1/c55xx_csl/src/csl_msc.c",line 1237,column 3,is_stmt
    4872 001333 ED00          MOV dbl(*SP(#0)), XAR3
         001335 BF   
    4873 001336 FB6D          MOV #1544, *AR3(#68) ; |1237| 
         001338 0608 
         00133a 0044 
    4874                      .dwpsn  file "../c5535_bsl_revc/ezdsp5535_v1/c55xx_csl/src/csl_msc.c",line 1238,column 3,is_stmt
TMS320C55x Assembler PC v4.4.1 Tue Oct 02 02:33:20 2018

Tools Copyright (c) 1996-2012 Texas Instruments Incorporated
csl_msc.asm                                                          PAGE  114

    4875 00133c ED00          MOV dbl(*SP(#0)), XAR3
         00133e BF   
    4876 00133f FB6D          MOV #1360, *AR3(#69) ; |1238| 
         001341 0550 
         001343 0045 
    4877                      .dwpsn  file "../c5535_bsl_revc/ezdsp5535_v1/c55xx_csl/src/csl_msc.c",line 1244,column 3,is_stmt
    4878 001345 ED00          MOV dbl(*SP(#0)), XAR3
         001347 BF   
    4879 001348 FB6D          MOV #1287, *AR3(#70) ; |1244| 
         00134a 0507 
         00134c 0046 
    4880                      .dwpsn  file "../c5535_bsl_revc/ezdsp5535_v1/c55xx_csl/src/csl_msc.c",line 1246,column 3,is_stmt
    4881 00134e ED00          MOV dbl(*SP(#0)), XAR3
         001350 BF   
    4882 001351 FB6D          MOV #514, *AR3(#71) ; |1246| 
         001353 0202 
         001355 0047 
    4883                      .dwpsn  file "../c5535_bsl_revc/ezdsp5535_v1/c55xx_csl/src/csl_msc.c",line 1248,column 3,is_stmt
    4884 001357 ED00          MOV dbl(*SP(#0)), XAR3
         001359 BF   
    4885 00135a FB6D          MOV #512, *AR3(#72) ; |1248| 
         00135c 0200 
         00135e 0048 
    4886                      .dwpsn  file "../c5535_bsl_revc/ezdsp5535_v1/c55xx_csl/src/csl_msc.c",line 1250,column 3,is_stmt
    4887 001360 ED00          MOV dbl(*SP(#0)), XAR3
         001362 BF   
    4888 001363 FB6D          MOV #1792, *AR3(#73) ; |1250| 
         001365 0700 
         001367 0049 
    4889                      .dwpsn  file "../c5535_bsl_revc/ezdsp5535_v1/c55xx_csl/src/csl_msc.c",line 1252,column 3,is_stmt
    4890 001369 ED00          MOV dbl(*SP(#0)), XAR3
         00136b BF   
    4891 00136c FB6D          MOV #33029, *AR3(#74) ; |1252| 
         00136e 8105 
         001370 004A 
    4892                      .dwpsn  file "../c5535_bsl_revc/ezdsp5535_v1/c55xx_csl/src/csl_msc.c",line 1254,column 3,is_stmt
    4893 001372 ED00          MOV dbl(*SP(#0)), XAR3
         001374 BF   
    4894 001375 E66D          MOV #2, *AR3(#75) ; |1254| 
         001377 0200 
         001379 4B   
    4895                      .dwpsn  file "../c5535_bsl_revc/ezdsp5535_v1/c55xx_csl/src/csl_msc.c",line 1256,column 3,is_stmt
    4896 00137a ED00          MOV dbl(*SP(#0)), XAR3
         00137c BF   
    4897 00137d E66D          MOV #2, *AR3(#76) ; |1256| 
         00137f 0200 
         001381 4C   
    4898                      .dwpsn  file "../c5535_bsl_revc/ezdsp5535_v1/c55xx_csl/src/csl_msc.c",line 1269,column 3,is_stmt
    4899 001382 ED00          MOV dbl(*SP(#0)), XAR3
         001384 BF   
    4900 001385 E66D          MOV #0, *AR3(#77) ; |1269| 
         001387 0000 
         001389 4D   
    4901                      .dwpsn  file "../c5535_bsl_revc/ezdsp5535_v1/c55xx_csl/src/csl_msc.c",line 1273,column 3,is_stmt
    4902 00138a ED00          MOV dbl(*SP(#0)), XAR3
TMS320C55x Assembler PC v4.4.1 Tue Oct 02 02:33:20 2018

Tools Copyright (c) 1996-2012 Texas Instruments Incorporated
csl_msc.asm                                                          PAGE  115

         00138c BF   
    4903 00138d FB6D          MOV #521, *AR3(#78) ; |1273| 
         00138f 0209 
         001391 004E 
    4904                      .dwpsn  file "../c5535_bsl_revc/ezdsp5535_v1/c55xx_csl/src/csl_msc.c",line 1277,column 3,is_stmt
    4905 001393 ED00          MOV dbl(*SP(#0)), XAR3
         001395 BF   
    4906 001396 E66D          MOV #32, *AR3(#79) ; |1277| 
         001398 2000 
         00139a 4F   
    4907                      .dwpsn  file "../c5535_bsl_revc/ezdsp5535_v1/c55xx_csl/src/csl_msc.c",line 1279,column 3,is_stmt
    4908 00139b ED00          MOV dbl(*SP(#0)), XAR3
         00139d BF   
    4909 00139e FB6D          MOV #257, *AR3(#80) ; |1279| 
         0013a0 0101 
         0013a2 0050 
    4910                      .dwpsn  file "../c5535_bsl_revc/ezdsp5535_v1/c55xx_csl/src/csl_msc.c",line 1281,column 3,is_stmt
    4911 0013a4 ED00          MOV dbl(*SP(#0)), XAR3
         0013a6 BF   
    4912 0013a7 FB6D          MOV #49156, *AR3(#81) ; |1281| 
         0013a9 C004 
         0013ab 0051 
    4913                      .dwpsn  file "../c5535_bsl_revc/ezdsp5535_v1/c55xx_csl/src/csl_msc.c",line 1283,column 3,is_stmt
    4914              $C$DW$371       .dwtag  DW_TAG_TI_branch
    4915                      .dwattr $C$DW$371, DW_AT_low_pc(0x00)
    4916                      .dwattr $C$DW$371, DW_AT_name("_USB_getMaxPower")
    4917                      .dwattr $C$DW$371, DW_AT_TI_call
    4918              
    4919 0013ad 6C00          CALL #_USB_getMaxPower ; |1283| 
         0013af 0000!
    4920 0013b1 3D04  ||      MOV #0, T0
    4921              
    4922                                                      ; call occurs [#_USB_getMaxPower] ; |1283| 
    4923 0013b3 ED00          MOV dbl(*SP(#0)), XAR3
         0013b5 BF   
    4924 0013b6 18FF          AND #0x00ff, T0, AR1 ; |1283| 
         0013b8 94   
    4925 0013b9 7E09          OR #0x0900, AR1, AR1 ; |1283| 
         0013bb 0099 
    4926 0013bd C96D          MOV AR1, *AR3(#82) ; |1283| 
         0013bf 0052 
    4927                      .dwpsn  file "../c5535_bsl_revc/ezdsp5535_v1/c55xx_csl/src/csl_msc.c",line 1288,column 3,is_stmt
    4928 0013c1 ED00          MOV dbl(*SP(#0)), XAR3
         0013c3 BF   
    4929 0013c4 E66D          MOV #4, *AR3(#83) ; |1288| 
         0013c6 0400 
         0013c8 53   
    4930                      .dwpsn  file "../c5535_bsl_revc/ezdsp5535_v1/c55xx_csl/src/csl_msc.c",line 1290,column 3,is_stmt
    4931 0013c9 ED00          MOV dbl(*SP(#0)), XAR3
         0013cb BF   
    4932 0013cc FB6D          MOV #512, *AR3(#84) ; |1290| 
         0013ce 0200 
         0013d0 0054 
    4933                      .dwpsn  file "../c5535_bsl_revc/ezdsp5535_v1/c55xx_csl/src/csl_msc.c",line 1292,column 3,is_stmt
    4934 0013d2 ED00          MOV dbl(*SP(#0)), XAR3
TMS320C55x Assembler PC v4.4.1 Tue Oct 02 02:33:20 2018

Tools Copyright (c) 1996-2012 Texas Instruments Incorporated
csl_msc.asm                                                          PAGE  116

         0013d4 BF   
    4935 0013d5 FB6D          MOV #1544, *AR3(#85) ; |1292| 
         0013d7 0608 
         0013d9 0055 
    4936                      .dwpsn  file "../c5535_bsl_revc/ezdsp5535_v1/c55xx_csl/src/csl_msc.c",line 1294,column 3,is_stmt
    4937 0013db ED00          MOV dbl(*SP(#0)), XAR3
         0013dd BF   
    4938 0013de FB6D          MOV #1360, *AR3(#86) ; |1294| 
         0013e0 0550 
         0013e2 0056 
    4939                      .dwpsn  file "../c5535_bsl_revc/ezdsp5535_v1/c55xx_csl/src/csl_msc.c",line 1299,column 3,is_stmt
    4940 0013e4 ED00          MOV dbl(*SP(#0)), XAR3
         0013e6 BF   
    4941 0013e7 FB6D          MOV #1287, *AR3(#87) ; |1299| 
         0013e9 0507 
         0013eb 0057 
    4942                      .dwpsn  file "../c5535_bsl_revc/ezdsp5535_v1/c55xx_csl/src/csl_msc.c",line 1301,column 3,is_stmt
    4943 0013ed ED00          MOV dbl(*SP(#0)), XAR3
         0013ef BF   
    4944 0013f0 FB6D          MOV #514, *AR3(#88) ; |1301| 
         0013f2 0202 
         0013f4 0058 
    4945                      .dwpsn  file "../c5535_bsl_revc/ezdsp5535_v1/c55xx_csl/src/csl_msc.c",line 1303,column 3,is_stmt
    4946 0013f6 ED00          MOV dbl(*SP(#0)), XAR3
         0013f8 BF   
    4947 0013f9 E66D          MOV #64, *AR3(#89) ; |1303| 
         0013fb 4000 
         0013fd 59   
    4948                      .dwpsn  file "../c5535_bsl_revc/ezdsp5535_v1/c55xx_csl/src/csl_msc.c",line 1305,column 3,is_stmt
    4949 0013fe ED00          MOV dbl(*SP(#0)), XAR3
         001400 BF   
    4950 001401 FB6D          MOV #1792, *AR3(#90) ; |1305| 
         001403 0700 
         001405 005A 
    4951                      .dwpsn  file "../c5535_bsl_revc/ezdsp5535_v1/c55xx_csl/src/csl_msc.c",line 1309,column 3,is_stmt
    4952 001407 ED00          MOV dbl(*SP(#0)), XAR3
         001409 BF   
    4953 00140a FB6D          MOV #33029, *AR3(#91) ; |1309| 
         00140c 8105 
         00140e 005B 
    4954                      .dwpsn  file "../c5535_bsl_revc/ezdsp5535_v1/c55xx_csl/src/csl_msc.c",line 1311,column 3,is_stmt
    4955 001410 ED00          MOV dbl(*SP(#0)), XAR3
         001412 BF   
    4956 001413 FB6D          MOV #16386, *AR3(#92) ; |1311| 
         001415 4002 
         001417 005C 
    4957                      .dwpsn  file "../c5535_bsl_revc/ezdsp5535_v1/c55xx_csl/src/csl_msc.c",line 1313,column 3,is_stmt
    4958 001419 ED00          MOV dbl(*SP(#0)), XAR3
         00141b BF   
    4959 00141c E66D          MOV #0, *AR3(#93) ; |1313| 
         00141e 0000 
         001420 5D   
    4960                      .dwpsn  file "../c5535_bsl_revc/ezdsp5535_v1/c55xx_csl/src/csl_msc.c",line 1318,column 3,is_stmt
    4961 001421 ED00          MOV dbl(*SP(#0)), XAR3
         001423 BF   
TMS320C55x Assembler PC v4.4.1 Tue Oct 02 02:33:20 2018

Tools Copyright (c) 1996-2012 Texas Instruments Incorporated
csl_msc.asm                                                          PAGE  117

    4962 001424 E66D          MOV #7, *AR3(#152) ; |1318| 
         001426 0700 
         001428 98   
    4963                      .dwpsn  file "../c5535_bsl_revc/ezdsp5535_v1/c55xx_csl/src/csl_msc.c",line 1320,column 3,is_stmt
    4964 001429 ED00          MOV dbl(*SP(#0)), XAR3
         00142b BF   
    4965 00142c ED00          MOV dbl(*SP(#0)), XAR2
         00142e AF   
    4966 00142f B46F          AMAR *+AR3(#134) ; |1320| 
         001431 0086 
    4967 001433 EB4D          MOV XAR3, dbl(*AR2(#154))
         001435 B500 
         001437 9A   
    4968                      .dwpsn  file "../c5535_bsl_revc/ezdsp5535_v1/c55xx_csl/src/csl_msc.c",line 1323,column 3,is_stmt
    4969 001438 ED00          MOV dbl(*SP(#0)), XAR3
         00143a BF   
    4970 00143b 3C00          MOV #0, AC0 ; |1323| 
    4971 00143d EB6D          MOV AC0, dbl(*AR3(#156))
         00143f 0800 
         001441 9C   
    4972                      .dwpsn  file "../c5535_bsl_revc/ezdsp5535_v1/c55xx_csl/src/csl_msc.c",line 1327,column 3,is_stmt
    4973 001442 ED00          MOV dbl(*SP(#0)), XAR3
         001444 BF   
    4974 001445 E66D          MOV #7, *AR3(#140) ; |1327| 
         001447 0700 
         001449 8C   
    4975                      .dwpsn  file "../c5535_bsl_revc/ezdsp5535_v1/c55xx_csl/src/csl_msc.c",line 1329,column 3,is_stmt
    4976 00144a ED00          MOV dbl(*SP(#0)), XAR3
         00144c BF   
    4977 00144d ED00          MOV dbl(*SP(#0)), XAR2
         00144f AF   
    4978 001450 147A          AADD #122, AR3 ; |1329| 
         001452 B4   
    4979 001453 EB4D          MOV XAR3, dbl(*AR2(#142))
         001455 B500 
         001457 8E   
    4980                      .dwpsn  file "../c5535_bsl_revc/ezdsp5535_v1/c55xx_csl/src/csl_msc.c",line 1332,column 3,is_stmt
    4981 001458 ED00          MOV dbl(*SP(#0)), XAR3
         00145a BF   
    4982 00145b ED00          MOV dbl(*SP(#0)), XAR2
         00145d AF   
    4983 00145e B46F          AMAR *+AR3(#152) ; |1332| 
         001460 0098 
    4984 001462 EB4D          MOV XAR3, dbl(*AR2(#144))
         001464 B500 
         001466 90   
    4985                      .dwpsn  file "../c5535_bsl_revc/ezdsp5535_v1/c55xx_csl/src/csl_msc.c",line 1337,column 3,is_stmt
    4986 001467 ED00          MOV dbl(*SP(#0)), XAR3
         001469 BF   
    4987 00146a E66D          MOV #9, *AR3(#128) ; |1337| 
         00146c 0900 
         00146e 80   
    4988                      .dwpsn  file "../c5535_bsl_revc/ezdsp5535_v1/c55xx_csl/src/csl_msc.c",line 1340,column 3,is_stmt
    4989 00146f ED00          MOV dbl(*SP(#0)), XAR3
         001471 BF   
TMS320C55x Assembler PC v4.4.1 Tue Oct 02 02:33:20 2018

Tools Copyright (c) 1996-2012 Texas Instruments Incorporated
csl_msc.asm                                                          PAGE  118

    4990 001472 ED00          MOV dbl(*SP(#0)), XAR2
         001474 AF   
    4991 001475 1474          AADD #116, AR3 ; |1340| 
         001477 B4   
    4992 001478 EB4D          MOV XAR3, dbl(*AR2(#130))
         00147a B500 
         00147c 82   
    4993                      .dwpsn  file "../c5535_bsl_revc/ezdsp5535_v1/c55xx_csl/src/csl_msc.c",line 1343,column 3,is_stmt
    4994 00147d ED00          MOV dbl(*SP(#0)), XAR3
         00147f BF   
    4995 001480 ED00          MOV dbl(*SP(#0)), XAR2
         001482 AF   
    4996 001483 B46F          AMAR *+AR3(#140) ; |1343| 
         001485 008C 
    4997 001487 EB4D          MOV XAR3, dbl(*AR2(#132))
         001489 B500 
         00148b 84   
    4998                      .dwpsn  file "../c5535_bsl_revc/ezdsp5535_v1/c55xx_csl/src/csl_msc.c",line 1349,column 3,is_stmt
    4999 00148c ED00          MOV dbl(*SP(#0)), XAR3
         00148e BF   
    5000 00148f E66D          MOV #9, *AR3(#164) ; |1349| 
         001491 0900 
         001493 A4   
    5001                      .dwpsn  file "../c5535_bsl_revc/ezdsp5535_v1/c55xx_csl/src/csl_msc.c",line 1351,column 3,is_stmt
    5002 001494 ED00          MOV dbl(*SP(#0)), XAR3
         001496 BF   
    5003 001497 ED00          MOV dbl(*SP(#0)), XAR2
         001499 AF   
    5004 00149a 146E          AADD #110, AR3 ; |1351| 
         00149c B4   
    5005 00149d EB4D          MOV XAR3, dbl(*AR2(#166))
         00149f B500 
         0014a1 A6   
    5006                      .dwpsn  file "../c5535_bsl_revc/ezdsp5535_v1/c55xx_csl/src/csl_msc.c",line 1354,column 3,is_stmt
    5007 0014a2 ED00          MOV dbl(*SP(#0)), XAR3
         0014a4 BF   
    5008 0014a5 ED00          MOV dbl(*SP(#0)), XAR2
         0014a7 AF   
    5009 0014a8 B46F          AMAR *+AR3(#128) ; |1354| 
         0014aa 0080 
    5010 0014ac EB4D          MOV XAR3, dbl(*AR2(#168))
         0014ae B500 
         0014b0 A8   
    5011                      .dwpsn  file "../c5535_bsl_revc/ezdsp5535_v1/c55xx_csl/src/csl_msc.c",line 1360,column 3,is_stmt
    5012 0014b1 ED00          MOV dbl(*SP(#0)), XAR3
         0014b3 BF   
    5013 0014b4 E66D          MOV #0, *AR3(#146) ; |1360| 
         0014b6 0000 
         0014b8 92   
    5014                      .dwpsn  file "../c5535_bsl_revc/ezdsp5535_v1/c55xx_csl/src/csl_msc.c",line 1362,column 3,is_stmt
    5015 0014b9 ED00          MOV dbl(*SP(#0)), XAR3
         0014bb BF   
    5016 0014bc FB6D          MOV #772, *AR3(#147) ; |1362| 
         0014be 0304 
         0014c0 0093 
TMS320C55x Assembler PC v4.4.1 Tue Oct 02 02:33:20 2018

Tools Copyright (c) 1996-2012 Texas Instruments Incorporated
csl_msc.asm                                                          PAGE  119

    5017                      .dwpsn  file "../c5535_bsl_revc/ezdsp5535_v1/c55xx_csl/src/csl_msc.c",line 1366,column 3,is_stmt
    5018 0014c2 ED00          MOV dbl(*SP(#0)), XAR3
         0014c4 BF   
    5019 0014c5 FB6D          MOV #1033, *AR3(#148) ; |1366| 
         0014c7 0409 
         0014c9 0094 
    5020                      .dwpsn  file "../c5535_bsl_revc/ezdsp5535_v1/c55xx_csl/src/csl_msc.c",line 1367,column 3,is_stmt
    5021 0014cb ED00          MOV dbl(*SP(#0)), XAR3
         0014cd BF   
    5022 0014ce E66D          MOV #0, *AR3(#149) ; |1367| 
         0014d0 0000 
         0014d2 95   
    5023                      .dwpsn  file "../c5535_bsl_revc/ezdsp5535_v1/c55xx_csl/src/csl_msc.c",line 1376,column 3,is_stmt
    5024 0014d3 ED00          MOV dbl(*SP(#0)), XAR3
         0014d5 BF   
    5025 0014d6 F06D          CMP *AR3(#176) == #1, TC1 ; |1376| 
         0014d8 0001 
         0014da 00B0 
    5026 0014dc 0474          BCC $C$L102,!TC1 ; |1376| 
         0014de 1B   
    5027                                                      ; branchcc occurs ; |1376| 
    5028                      .dwpsn  file "../c5535_bsl_revc/ezdsp5535_v1/c55xx_csl/src/csl_msc.c",line 1379,column 4,is_stmt
    5029 0014df ED00          MOV dbl(*SP(#0)), XAR2
         0014e1 AF   
    5030 0014e2 143C          AADD #60, AR3 ; |1379| 
         0014e4 B4   
    5031 0014e5 EB4D          MOV XAR3, dbl(*AR2(#178))
         0014e7 B500 
         0014e9 B2   
    5032                      .dwpsn  file "../c5535_bsl_revc/ezdsp5535_v1/c55xx_csl/src/csl_msc.c",line 1380,column 4,is_stmt
    5033 0014ea ED00          MOV dbl(*SP(#0)), XAR3
         0014ec BF   
    5034 0014ed ED00          MOV dbl(*SP(#0)), XAR2
         0014ef AF   
    5035 0014f0 144D          AADD #77, AR3 ; |1380| 
         0014f2 B4   
    5036 0014f3 EB4D          MOV XAR3, dbl(*AR2(#180))
         0014f5 B500 
         0014f7 B4   
    5037                      .dwpsn  file "../c5535_bsl_revc/ezdsp5535_v1/c55xx_csl/src/csl_msc.c",line 1381,column 3,is_stmt
    5038 0014f8 4A19          B $C$L103 ; |1381| 
    5039                                                      ; branch occurs ; |1381| 
    5040 0014fa       $C$L102:    
    5041                      .dwpsn  file "../c5535_bsl_revc/ezdsp5535_v1/c55xx_csl/src/csl_msc.c",line 1385,column 4,is_stmt
    5042 0014fa ED00          MOV dbl(*SP(#0)), XAR2
         0014fc AF   
    5043 0014fd 144D          AADD #77, AR3 ; |1385| 
         0014ff B4   
    5044 001500 EB4D          MOV XAR3, dbl(*AR2(#178))
         001502 B500 
         001504 B2   
    5045                      .dwpsn  file "../c5535_bsl_revc/ezdsp5535_v1/c55xx_csl/src/csl_msc.c",line 1386,column 4,is_stmt
    5046 001505 ED00          MOV dbl(*SP(#0)), XAR3
         001507 BF   
    5047 001508 ED00          MOV dbl(*SP(#0)), XAR2
TMS320C55x Assembler PC v4.4.1 Tue Oct 02 02:33:20 2018

Tools Copyright (c) 1996-2012 Texas Instruments Incorporated
csl_msc.asm                                                          PAGE  120

         00150a AF   
    5048 00150b 143C          AADD #60, AR3 ; |1386| 
         00150d B4   
    5049 00150e EB4D          MOV XAR3, dbl(*AR2(#180))
         001510 B500 
         001512 B4   
    5050 001513       $C$L103:    
    5051                      .dwpsn  file "../c5535_bsl_revc/ezdsp5535_v1/c55xx_csl/src/csl_msc.c",line 1390,column 3,is_stmt
    5052 001513 ED00          MOV dbl(*SP(#0)), XAR3
         001515 BF   
    5053 001516 ED6D          MOV dbl(*AR3(#180)), XAR3
         001518 BF00 
         00151a B4   
    5054 00151b FB73          MOV #1801, *AR3(short(#1)) ; |1390| 
         00151d 0709 
    5055                      .dwpsn  file "../c5535_bsl_revc/ezdsp5535_v1/c55xx_csl/src/csl_msc.c",line 1393,column 2,is_stmt
    5056 00151f 4A03          B $C$L105 ; |1393| 
    5057                                                      ; branch occurs ; |1393| 
    5058 001521       $C$L104:    
    5059                      .dwpsn  file "../c5535_bsl_revc/ezdsp5535_v1/c55xx_csl/src/csl_msc.c",line 1396,column 3,is_stmt
    5060 001521 E604          MOV #-5, *SP(#2) ; |1396| 
         001523 FB   
    5061 001524       $C$L105:    
    5062                      .dwpsn  file "../c5535_bsl_revc/ezdsp5535_v1/c55xx_csl/src/csl_msc.c",line 1399,column 2,is_stmt
    5063 001524 A404          MOV *SP(#2), T0 ; |1399| 
    5064                      .dwpsn  file "../c5535_bsl_revc/ezdsp5535_v1/c55xx_csl/src/csl_msc.c",line 1400,column 1,is_stmt
    5065 001526 4E03          AADD #3, SP
    5066                      .dwcfi  cfa_offset, 1
    5067              $C$DW$372       .dwtag  DW_TAG_TI_branch
    5068                      .dwattr $C$DW$372, DW_AT_low_pc(0x00)
    5069                      .dwattr $C$DW$372, DW_AT_TI_return
    5070 001528 4804          RET
    5071                                                      ; return occurs
    5072                      .dwattr $C$DW$365, DW_AT_TI_end_file("../c5535_bsl_revc/ezdsp5535_v1/c55xx_csl/src/csl_msc.c")
    5073                      .dwattr $C$DW$365, DW_AT_TI_end_line(0x578)
    5074                      .dwattr $C$DW$365, DW_AT_TI_end_column(0x01)
    5075                      .dwendentry
    5076                      .dwendtag $C$DW$365
    5077              
    5078 00152a               .sect   ".text"
    5079                      .align 4
    5080              
    5081              $C$DW$373       .dwtag  DW_TAG_subprogram, DW_AT_name("MSC_initMscVal")
    5082                      .dwattr $C$DW$373, DW_AT_low_pc(_MSC_initMscVal)
    5083                      .dwattr $C$DW$373, DW_AT_high_pc(0x00)
    5084                      .dwattr $C$DW$373, DW_AT_TI_symbol_name("_MSC_initMscVal")
    5085                      .dwattr $C$DW$373, DW_AT_type(*$C$DW$T$89)
    5086                      .dwattr $C$DW$373, DW_AT_TI_begin_file("../c5535_bsl_revc/ezdsp5535_v1/c55xx_csl/src/csl_msc.c")
    5087                      .dwattr $C$DW$373, DW_AT_TI_begin_line(0x59c)
    5088                      .dwattr $C$DW$373, DW_AT_TI_begin_column(0x13)
    5089                      .dwattr $C$DW$373, DW_AT_TI_max_frame_size(0x06)
    5090                      .dwpsn  file "../c5535_bsl_revc/ezdsp5535_v1/c55xx_csl/src/csl_msc.c",line 1437,column 1,is_stmt,addr
    5091              
    5092                      .dwfde $C$DW$CIE, _MSC_initMscVal
    5093              $C$DW$374       .dwtag  DW_TAG_formal_parameter, DW_AT_name("pMscHandle")
TMS320C55x Assembler PC v4.4.1 Tue Oct 02 02:33:20 2018

Tools Copyright (c) 1996-2012 Texas Instruments Incorporated
csl_msc.asm                                                          PAGE  121

    5094                      .dwattr $C$DW$374, DW_AT_TI_symbol_name("_pMscHandle")
    5095                      .dwattr $C$DW$374, DW_AT_type(*$C$DW$T$107)
    5096                      .dwattr $C$DW$374, DW_AT_location[DW_OP_reg17]
    5097              ;*******************************************************************************
    5098              ;* FUNCTION NAME: MSC_initMscVal                                               *
    5099              ;*                                                                             *
    5100              ;*   Function Uses Regs : AC0,AC0,T0,AR0,XAR0,AR1,AR2,XAR2,AR3,XAR3,SP,CARRY,  *
    5101              ;*                        TC1,M40,SATA,SATD,RDM,FRCT,SMUL                      *
    5102              ;*   Stack Frame        : Compact (No Frame Pointer, w/ debug)                 *
    5103              ;*   Total Frame Size   : 6 words                                              *
    5104              ;*                        (2 return address/alignment)                         *
    5105              ;*                        (4 local values)                                     *
    5106              ;*   Min System Stack   : 1 word                                               *
    5107              ;*******************************************************************************
    5108 00152c       _MSC_initMscVal:
    5109                      .dwcfi  cfa_offset, 1
    5110                      .dwcfi  save_reg_to_mem, 91, -1
    5111 00152c 4EFB          AADD #-5, SP
    5112                      .dwcfi  cfa_offset, 6
    5113              $C$DW$375       .dwtag  DW_TAG_variable, DW_AT_name("pMscHandle")
    5114                      .dwattr $C$DW$375, DW_AT_TI_symbol_name("_pMscHandle")
    5115                      .dwattr $C$DW$375, DW_AT_type(*$C$DW$T$107)
    5116                      .dwattr $C$DW$375, DW_AT_location[DW_OP_bregx 0x24 0]
    5117              $C$DW$376       .dwtag  DW_TAG_variable, DW_AT_name("copyCnt")
    5118                      .dwattr $C$DW$376, DW_AT_TI_symbol_name("_copyCnt")
    5119                      .dwattr $C$DW$376, DW_AT_type(*$C$DW$T$25)
    5120                      .dwattr $C$DW$376, DW_AT_location[DW_OP_bregx 0x24 2]
    5121              $C$DW$377       .dwtag  DW_TAG_variable, DW_AT_name("status")
    5122                      .dwattr $C$DW$377, DW_AT_TI_symbol_name("_status")
    5123                      .dwattr $C$DW$377, DW_AT_type(*$C$DW$T$89)
    5124                      .dwattr $C$DW$377, DW_AT_location[DW_OP_bregx 0x24 3]
    5125 00152e EB00          MOV XAR0, dbl(*SP(#0))
         001530 85   
    5126                      .dwpsn  file "../c5535_bsl_revc/ezdsp5535_v1/c55xx_csl/src/csl_msc.c",line 1441,column 2,is_stmt
    5127 001531 E606          MOV #0, *SP(#3) ; |1441| 
         001533 00   
    5128                      .dwpsn  file "../c5535_bsl_revc/ezdsp5535_v1/c55xx_csl/src/csl_msc.c",line 1443,column 2,is_stmt
    5129 001534 ED00          MOV dbl(*SP(#0)), XAR3
         001536 BF   
    5130 001537 90B0          MOV XAR3, AC0
    5131 001539 6D00          BCC $C$L110,AC0 == #0 ; |1443| 
         00153b 00E0 
    5132                                                      ; branchcc occurs ; |1443| 
    5133                      .dwpsn  file "../c5535_bsl_revc/ezdsp5535_v1/c55xx_csl/src/csl_msc.c",line 1445,column 3,is_stmt
    5134 00153d E66D          MOV #0, *AR3(#355) ; |1445| 
         00153f 0001 
         001541 63   
    5135                      .dwpsn  file "../c5535_bsl_revc/ezdsp5535_v1/c55xx_csl/src/csl_msc.c",line 1446,column 3,is_stmt
    5136 001542 ED00          MOV dbl(*SP(#0)), XAR3
         001544 BF   
    5137 001545 E66D          MOV #0, *AR3(#281) ; |1446| 
         001547 0001 
         001549 19   
    5138                      .dwpsn  file "../c5535_bsl_revc/ezdsp5535_v1/c55xx_csl/src/csl_msc.c",line 1450,column 3,is_stmt
    5139 00154a ED00          MOV dbl(*SP(#0)), XAR3
TMS320C55x Assembler PC v4.4.1 Tue Oct 02 02:33:20 2018

Tools Copyright (c) 1996-2012 Texas Instruments Incorporated
csl_msc.asm                                                          PAGE  122

         00154c BF   
    5140 00154d E66D          MOV #26, *AR3(#266) ; |1450| 
         00154f 1A01 
         001551 0A   
    5141                      .dwpsn  file "../c5535_bsl_revc/ezdsp5535_v1/c55xx_csl/src/csl_msc.c",line 1452,column 3,is_stmt
    5142 001552 ED00          MOV dbl(*SP(#0)), XAR3
         001554 BF   
    5143 001555 E66D          MOV #0, *AR3(#267) ; |1452| 
         001557 0001 
         001559 0B   
    5144                      .dwpsn  file "../c5535_bsl_revc/ezdsp5535_v1/c55xx_csl/src/csl_msc.c",line 1454,column 3,is_stmt
    5145 00155a ED00          MOV dbl(*SP(#0)), XAR3
         00155c BF   
    5146 00155d E66D          MOV #112, *AR3(#268) ; |1454| 
         00155f 7001 
         001561 0C   
    5147                      .dwpsn  file "../c5535_bsl_revc/ezdsp5535_v1/c55xx_csl/src/csl_msc.c",line 1456,column 3,is_stmt
    5148 001562 ED00          MOV dbl(*SP(#0)), XAR3
         001564 BF   
    5149 001565 E66D          MOV #0, *AR3(#269) ; |1456| 
         001567 0001 
         001569 0D   
    5150                      .dwpsn  file "../c5535_bsl_revc/ezdsp5535_v1/c55xx_csl/src/csl_msc.c",line 1458,column 3,is_stmt
    5151 00156a ED00          MOV dbl(*SP(#0)), XAR3
         00156c BF   
    5152 00156d E66D          MOV #0, *AR3(#270) ; |1458| 
         00156f 0001 
         001571 0E   
    5153                      .dwpsn  file "../c5535_bsl_revc/ezdsp5535_v1/c55xx_csl/src/csl_msc.c",line 1460,column 3,is_stmt
    5154 001572 ED00          MOV dbl(*SP(#0)), XAR3
         001574 BF   
    5155 001575 FB6D          MOV #2816, *AR3(#271) ; |1460| 
         001577 0B00 
         001579 010F 
    5156                      .dwpsn  file "../c5535_bsl_revc/ezdsp5535_v1/c55xx_csl/src/csl_msc.c",line 1462,column 3,is_stmt
    5157 00157b ED00          MOV dbl(*SP(#0)), XAR3
         00157d BF   
    5158 00157e E66D          MOV #8, *AR3(#290) ; |1462| 
         001580 0801 
         001582 22   
    5159                      .dwpsn  file "../c5535_bsl_revc/ezdsp5535_v1/c55xx_csl/src/csl_msc.c",line 1464,column 7,is_stmt
    5160 001583 E604          MOV #6, *SP(#2) ; |1464| 
         001585 06   
    5161                      .dwpsn  file "../c5535_bsl_revc/ezdsp5535_v1/c55xx_csl/src/csl_msc.c",line 1464,column 20,is_stmt
    5162              
    5163 001586 A904          MOV *SP(#2), AR1 ; |1464| 
    5164 001588 3DFA  ||      MOV #15, AR2
    5165              
    5166 00158a 1298          CMPU AR1 >= AR2, TC1 ; |1464| 
         00158c A4   
    5167 00158d 0464          BCC $C$L107,TC1 ; |1464| 
         00158f 1E   
    5168                                                      ; branchcc occurs ; |1464| 
    5169 001590       $C$L106:    
    5170 001590       $C$DW$L$_MSC_initMscVal$3$B:
TMS320C55x Assembler PC v4.4.1 Tue Oct 02 02:33:20 2018

Tools Copyright (c) 1996-2012 Texas Instruments Incorporated
csl_msc.asm                                                          PAGE  123

    5171                      .dwpsn  file "../c5535_bsl_revc/ezdsp5535_v1/c55xx_csl/src/csl_msc.c",line 1466,column 4,is_stmt
    5172 001590 ED00          MOV dbl(*SP(#0)), XAR3
         001592 BF   
    5173 001593 DF04          MOV uns(*SP(#2)), AC0 ; |1466| 
         001595 05   
    5174 001596 900A          MOV AC0, XAR2
    5175 001598 14A1          AADD XAR2, XAR3 ; |1466| 
         00159a B0   
    5176 00159b E66D          MOV #0, *AR3(#266) ; |1466| 
         00159d 0001 
         00159f 0A   
    5177                      .dwpsn  file "../c5535_bsl_revc/ezdsp5535_v1/c55xx_csl/src/csl_msc.c",line 1464,column 34,is_stmt
    5178 0015a0 F704          ADD #1, *SP(#2) ; |1464| 
         0015a2 0001 
    5179                      .dwpsn  file "../c5535_bsl_revc/ezdsp5535_v1/c55xx_csl/src/csl_msc.c",line 1464,column 20,is_stmt
    5180              
    5181 0015a4 A904          MOV *SP(#2), AR1 ; |1464| 
    5182 0015a6 3DFA  ||      MOV #15, AR2
    5183              
    5184 0015a8 1294          CMPU AR1 < AR2, TC1 ; |1464| 
         0015aa A4   
    5185 0015ab 0464          BCC $C$L106,TC1 ; |1464| 
         0015ad E2   
    5186                                                      ; branchcc occurs ; |1464| 
    5187 0015ae       $C$DW$L$_MSC_initMscVal$3$E:
    5188 0015ae       $C$L107:    
    5189                      .dwpsn  file "../c5535_bsl_revc/ezdsp5535_v1/c55xx_csl/src/csl_msc.c",line 1471,column 3,is_stmt
    5190 0015ae ED00          MOV dbl(*SP(#0)), XAR3
         0015b0 BF   
    5191 0015b1 E66D          MOV #0, *AR3(#282) ; |1471| 
         0015b3 0001 
         0015b5 1A   
    5192                      .dwpsn  file "../c5535_bsl_revc/ezdsp5535_v1/c55xx_csl/src/csl_msc.c",line 1472,column 3,is_stmt
    5193 0015b6 ED00          MOV dbl(*SP(#0)), XAR3
         0015b8 BF   
    5194 0015b9 FB6D          MOV #21333, *AR3(#283) ; |1472| 
         0015bb 5355 
         0015bd 011B 
    5195                      .dwpsn  file "../c5535_bsl_revc/ezdsp5535_v1/c55xx_csl/src/csl_msc.c",line 1473,column 3,is_stmt
    5196 0015bf ED00          MOV dbl(*SP(#0)), XAR3
         0015c1 BF   
    5197 0015c2 FB6D          MOV #21314, *AR3(#284) ; |1473| 
         0015c4 5342 
         0015c6 011C 
    5198                      .dwpsn  file "../c5535_bsl_revc/ezdsp5535_v1/c55xx_csl/src/csl_msc.c",line 1474,column 8,is_stmt
    5199 0015c8 E604          MOV #3, *SP(#2) ; |1474| 
         0015ca 03   
    5200                      .dwpsn  file "../c5535_bsl_revc/ezdsp5535_v1/c55xx_csl/src/csl_msc.c",line 1474,column 21,is_stmt
    5201              
    5202 0015cb A904          MOV *SP(#2), AR1 ; |1474| 
    5203 0015cd 3D8A  ||      MOV #8, AR2
    5204              
    5205 0015cf 1298          CMPU AR1 >= AR2, TC1 ; |1474| 
         0015d1 A4   
    5206 0015d2 0464          BCC $C$L109,TC1 ; |1474| 
TMS320C55x Assembler PC v4.4.1 Tue Oct 02 02:33:20 2018

Tools Copyright (c) 1996-2012 Texas Instruments Incorporated
csl_msc.asm                                                          PAGE  124

         0015d4 1E   
    5207                                                      ; branchcc occurs ; |1474| 
    5208 0015d5       $C$L108:    
    5209 0015d5       $C$DW$L$_MSC_initMscVal$5$B:
    5210                      .dwpsn  file "../c5535_bsl_revc/ezdsp5535_v1/c55xx_csl/src/csl_msc.c",line 1476,column 4,is_stmt
    5211 0015d5 ED00          MOV dbl(*SP(#0)), XAR3
         0015d7 BF   
    5212 0015d8 DF04          MOV uns(*SP(#2)), AC0 ; |1476| 
         0015da 05   
    5213 0015db 900A          MOV AC0, XAR2
    5214 0015dd 14A1          AADD XAR2, XAR3 ; |1476| 
         0015df B0   
    5215 0015e0 E66D          MOV #0, *AR3(#282) ; |1476| 
         0015e2 0001 
         0015e4 1A   
    5216                      .dwpsn  file "../c5535_bsl_revc/ezdsp5535_v1/c55xx_csl/src/csl_msc.c",line 1474,column 34,is_stmt
    5217 0015e5 F704          ADD #1, *SP(#2) ; |1474| 
         0015e7 0001 
    5218                      .dwpsn  file "../c5535_bsl_revc/ezdsp5535_v1/c55xx_csl/src/csl_msc.c",line 1474,column 21,is_stmt
    5219              
    5220 0015e9 A904          MOV *SP(#2), AR1 ; |1474| 
    5221 0015eb 3D8A  ||      MOV #8, AR2
    5222              
    5223 0015ed 1294          CMPU AR1 < AR2, TC1 ; |1474| 
         0015ef A4   
    5224 0015f0 0464          BCC $C$L108,TC1 ; |1474| 
         0015f2 E2   
    5225                                                      ; branchcc occurs ; |1474| 
    5226 0015f3       $C$DW$L$_MSC_initMscVal$5$E:
    5227 0015f3       $C$L109:    
    5228                      .dwpsn  file "../c5535_bsl_revc/ezdsp5535_v1/c55xx_csl/src/csl_msc.c",line 1479,column 3,is_stmt
    5229 0015f3 ED00          MOV dbl(*SP(#0)), XAR3
         0015f5 BF   
    5230 0015f6 E66D          MOV #8, *AR3(#356) ; |1479| 
         0015f8 0801 
         0015fa 64   
    5231                      .dwpsn  file "../c5535_bsl_revc/ezdsp5535_v1/c55xx_csl/src/csl_msc.c",line 1480,column 3,is_stmt
    5232 0015fb ED00          MOV dbl(*SP(#0)), XAR3
         0015fd BF   
    5233 0015fe E66D          MOV #0, *AR3(#357) ; |1480| 
         001600 0001 
         001602 65   
    5234                      .dwpsn  file "../c5535_bsl_revc/ezdsp5535_v1/c55xx_csl/src/csl_msc.c",line 1481,column 3,is_stmt
    5235 001603 ED00          MOV dbl(*SP(#0)), XAR3
         001605 BF   
    5236 001606 E66D          MOV #3, *AR3(#358) ; |1481| 
         001608 0301 
         00160a 66   
    5237                      .dwpsn  file "../c5535_bsl_revc/ezdsp5535_v1/c55xx_csl/src/csl_msc.c",line 1482,column 3,is_stmt
    5238 00160b ED00          MOV dbl(*SP(#0)), XAR3
         00160d BF   
    5239 00160e E66D          MOV #0, *AR3(#359) ; |1482| 
         001610 0001 
         001612 67   
    5240                      .dwpsn  file "../c5535_bsl_revc/ezdsp5535_v1/c55xx_csl/src/csl_msc.c",line 1483,column 3,is_stmt
TMS320C55x Assembler PC v4.4.1 Tue Oct 02 02:33:20 2018

Tools Copyright (c) 1996-2012 Texas Instruments Incorporated
csl_msc.asm                                                          PAGE  125

    5241 001613 ED00          MOV dbl(*SP(#0)), XAR3
         001615 BF   
    5242 001616 E66D          MOV #0, *AR3(#360) ; |1483| 
         001618 0001 
         00161a 68   
    5243                      .dwpsn  file "../c5535_bsl_revc/ezdsp5535_v1/c55xx_csl/src/csl_msc.c",line 1484,column 2,is_stmt
    5244 00161b 4A03          B $C$L111 ; |1484| 
    5245                                                      ; branch occurs ; |1484| 
    5246 00161d       $C$L110:    
    5247                      .dwpsn  file "../c5535_bsl_revc/ezdsp5535_v1/c55xx_csl/src/csl_msc.c",line 1487,column 3,is_stmt
    5248 00161d E606          MOV #-5, *SP(#3) ; |1487| 
         00161f FB   
    5249 001620       $C$L111:    
    5250                      .dwpsn  file "../c5535_bsl_revc/ezdsp5535_v1/c55xx_csl/src/csl_msc.c",line 1490,column 2,is_stmt
    5251 001620 A406          MOV *SP(#3), T0 ; |1490| 
    5252                      .dwpsn  file "../c5535_bsl_revc/ezdsp5535_v1/c55xx_csl/src/csl_msc.c",line 1491,column 1,is_stmt
    5253 001622 4E05          AADD #5, SP
    5254                      .dwcfi  cfa_offset, 1
    5255              $C$DW$378       .dwtag  DW_TAG_TI_branch
    5256                      .dwattr $C$DW$378, DW_AT_low_pc(0x00)
    5257                      .dwattr $C$DW$378, DW_AT_TI_return
    5258 001624 4804          RET
    5259                                                      ; return occurs
    5260              
    5261              $C$DW$379       .dwtag  DW_TAG_TI_loop
    5262                      .dwattr $C$DW$379, DW_AT_name("F:\eZdsp-DBG-sim\tmp1\c55x-sim2\foo\Debug\csl_msc.asm:$C$L108:1:153847
    5263                      .dwattr $C$DW$379, DW_AT_TI_begin_file("../c5535_bsl_revc/ezdsp5535_v1/c55xx_csl/src/csl_msc.c")
    5264                      .dwattr $C$DW$379, DW_AT_TI_begin_line(0x5c2)
    5265                      .dwattr $C$DW$379, DW_AT_TI_end_line(0x5c5)
    5266              $C$DW$380       .dwtag  DW_TAG_TI_loop_range
    5267                      .dwattr $C$DW$380, DW_AT_low_pc($C$DW$L$_MSC_initMscVal$5$B)
    5268                      .dwattr $C$DW$380, DW_AT_high_pc($C$DW$L$_MSC_initMscVal$5$E)
    5269                      .dwendtag $C$DW$379
    5270              
    5271              
    5272              $C$DW$381       .dwtag  DW_TAG_TI_loop
    5273                      .dwattr $C$DW$381, DW_AT_name("F:\eZdsp-DBG-sim\tmp1\c55x-sim2\foo\Debug\csl_msc.asm:$C$L106:1:153847
    5274                      .dwattr $C$DW$381, DW_AT_TI_begin_file("../c5535_bsl_revc/ezdsp5535_v1/c55xx_csl/src/csl_msc.c")
    5275                      .dwattr $C$DW$381, DW_AT_TI_begin_line(0x5b8)
    5276                      .dwattr $C$DW$381, DW_AT_TI_end_line(0x5bb)
    5277              $C$DW$382       .dwtag  DW_TAG_TI_loop_range
    5278                      .dwattr $C$DW$382, DW_AT_low_pc($C$DW$L$_MSC_initMscVal$3$B)
    5279                      .dwattr $C$DW$382, DW_AT_high_pc($C$DW$L$_MSC_initMscVal$3$E)
    5280                      .dwendtag $C$DW$381
    5281              
    5282                      .dwattr $C$DW$373, DW_AT_TI_end_file("../c5535_bsl_revc/ezdsp5535_v1/c55xx_csl/src/csl_msc.c")
    5283                      .dwattr $C$DW$373, DW_AT_TI_end_line(0x5d3)
    5284                      .dwattr $C$DW$373, DW_AT_TI_end_column(0x01)
    5285                      .dwendentry
    5286                      .dwendtag $C$DW$373
    5287              
    5288 001626               .sect   ".text"
    5289                      .align 4
    5290                      .global _MSC_HandleStateWaitForCBW
    5291              
TMS320C55x Assembler PC v4.4.1 Tue Oct 02 02:33:20 2018

Tools Copyright (c) 1996-2012 Texas Instruments Incorporated
csl_msc.asm                                                          PAGE  126

    5292              $C$DW$383       .dwtag  DW_TAG_subprogram, DW_AT_name("MSC_HandleStateWaitForCBW")
    5293                      .dwattr $C$DW$383, DW_AT_low_pc(_MSC_HandleStateWaitForCBW)
    5294                      .dwattr $C$DW$383, DW_AT_high_pc(0x00)
    5295                      .dwattr $C$DW$383, DW_AT_TI_symbol_name("_MSC_HandleStateWaitForCBW")
    5296                      .dwattr $C$DW$383, DW_AT_external
    5297                      .dwattr $C$DW$383, DW_AT_type(*$C$DW$T$89)
    5298                      .dwattr $C$DW$383, DW_AT_TI_begin_file("../c5535_bsl_revc/ezdsp5535_v1/c55xx_csl/src/csl_msc.c")
    5299                      .dwattr $C$DW$383, DW_AT_TI_begin_line(0x605)
    5300                      .dwattr $C$DW$383, DW_AT_TI_begin_column(0x0c)
    5301                      .dwattr $C$DW$383, DW_AT_TI_max_frame_size(0x0a)
    5302                      .dwpsn  file "../c5535_bsl_revc/ezdsp5535_v1/c55xx_csl/src/csl_msc.c",line 1544,column 1,is_stmt,addr
    5303              
    5304                      .dwfde $C$DW$CIE, _MSC_HandleStateWaitForCBW
    5305              $C$DW$384       .dwtag  DW_TAG_formal_parameter, DW_AT_name("pMscHandle")
    5306                      .dwattr $C$DW$384, DW_AT_TI_symbol_name("_pMscHandle")
    5307                      .dwattr $C$DW$384, DW_AT_type(*$C$DW$T$107)
    5308                      .dwattr $C$DW$384, DW_AT_location[DW_OP_reg17]
    5309              $C$DW$385       .dwtag  DW_TAG_formal_parameter, DW_AT_name("hUsbOutEp")
    5310                      .dwattr $C$DW$385, DW_AT_TI_symbol_name("_hUsbOutEp")
    5311                      .dwattr $C$DW$385, DW_AT_type(*$C$DW$T$27)
    5312                      .dwattr $C$DW$385, DW_AT_location[DW_OP_reg19]
    5313              $C$DW$386       .dwtag  DW_TAG_formal_parameter, DW_AT_name("hUsbInEp")
    5314                      .dwattr $C$DW$386, DW_AT_TI_symbol_name("_hUsbInEp")
    5315                      .dwattr $C$DW$386, DW_AT_type(*$C$DW$T$27)
    5316                      .dwattr $C$DW$386, DW_AT_location[DW_OP_reg21]
    5317              ;*******************************************************************************
    5318              ;* FUNCTION NAME: MSC_HandleStateWaitForCBW                                    *
    5319              ;*                                                                             *
    5320              ;*   Function Uses Regs : AC0,AC0,T0,T1,AR0,XAR0,AR1,XAR1,AR2,XAR2,AR3,XAR3,SP,*
    5321              ;*                        CARRY,TC1,M40,SATA,SATD,RDM,FRCT,SMUL                *
    5322              ;*   Stack Frame        : Compact (No Frame Pointer, w/ debug)                 *
    5323              ;*   Total Frame Size   : 10 words                                             *
    5324              ;*                        (1 return address/alignment)                         *
    5325              ;*                        (9 local values)                                     *
    5326              ;*   Min System Stack   : 1 word                                               *
    5327              ;*******************************************************************************
    5328 001628       _MSC_HandleStateWaitForCBW:
    5329                      .dwcfi  cfa_offset, 1
    5330                      .dwcfi  save_reg_to_mem, 91, -1
    5331 001628 4EF7          AADD #-9, SP
    5332                      .dwcfi  cfa_offset, 10
    5333              $C$DW$387       .dwtag  DW_TAG_variable, DW_AT_name("pMscHandle")
    5334                      .dwattr $C$DW$387, DW_AT_TI_symbol_name("_pMscHandle")
    5335                      .dwattr $C$DW$387, DW_AT_type(*$C$DW$T$107)
    5336                      .dwattr $C$DW$387, DW_AT_location[DW_OP_bregx 0x24 0]
    5337              $C$DW$388       .dwtag  DW_TAG_variable, DW_AT_name("hUsbOutEp")
    5338                      .dwattr $C$DW$388, DW_AT_TI_symbol_name("_hUsbOutEp")
    5339                      .dwattr $C$DW$388, DW_AT_type(*$C$DW$T$27)
    5340                      .dwattr $C$DW$388, DW_AT_location[DW_OP_bregx 0x24 2]
    5341              $C$DW$389       .dwtag  DW_TAG_variable, DW_AT_name("hUsbInEp")
    5342                      .dwattr $C$DW$389, DW_AT_TI_symbol_name("_hUsbInEp")
    5343                      .dwattr $C$DW$389, DW_AT_type(*$C$DW$T$27)
    5344                      .dwattr $C$DW$389, DW_AT_location[DW_OP_bregx 0x24 4]
    5345              $C$DW$390       .dwtag  DW_TAG_variable, DW_AT_name("status")
    5346                      .dwattr $C$DW$390, DW_AT_TI_symbol_name("_status")
TMS320C55x Assembler PC v4.4.1 Tue Oct 02 02:33:20 2018

Tools Copyright (c) 1996-2012 Texas Instruments Incorporated
csl_msc.asm                                                          PAGE  127

    5347                      .dwattr $C$DW$390, DW_AT_type(*$C$DW$T$89)
    5348                      .dwattr $C$DW$390, DW_AT_location[DW_OP_bregx 0x24 6]
    5349              $C$DW$391       .dwtag  DW_TAG_variable, DW_AT_name("logicalUnit")
    5350                      .dwattr $C$DW$391, DW_AT_TI_symbol_name("_logicalUnit")
    5351                      .dwattr $C$DW$391, DW_AT_type(*$C$DW$T$25)
    5352                      .dwattr $C$DW$391, DW_AT_location[DW_OP_bregx 0x24 7]
    5353              $C$DW$392       .dwtag  DW_TAG_variable, DW_AT_name("scsiCommand")
    5354                      .dwattr $C$DW$392, DW_AT_TI_symbol_name("_scsiCommand")
    5355                      .dwattr $C$DW$392, DW_AT_type(*$C$DW$T$25)
    5356                      .dwattr $C$DW$392, DW_AT_location[DW_OP_bregx 0x24 8]
    5357 00162a EB08          MOV XAR2, dbl(*SP(#4))
         00162c A5   
    5358 00162d EB04          MOV XAR1, dbl(*SP(#2))
         00162f 95   
    5359 001630 EB00          MOV XAR0, dbl(*SP(#0))
         001632 85   
    5360                      .dwpsn  file "../c5535_bsl_revc/ezdsp5535_v1/c55xx_csl/src/csl_msc.c",line 1550,column 2,is_stmt
    5361 001633 ED04          MOV dbl(*SP(#2)), XAR0
         001635 8F   
    5362 001636 EC0C          AMAR *SP(#6), XAR1
         001638 9E   
    5363              $C$DW$393       .dwtag  DW_TAG_TI_branch
    5364                      .dwattr $C$DW$393, DW_AT_low_pc(0x00)
    5365                      .dwattr $C$DW$393, DW_AT_name("_USB_isTransactionDone")
    5366                      .dwattr $C$DW$393, DW_AT_TI_call
    5367 001639 6C00          CALL #_USB_isTransactionDone ; |1550| 
         00163b 0000!
    5368                                                      ; call occurs [#_USB_isTransactionDone] ; |1550| 
    5369 00163d 6D04          BCC $C$L131,T0 == #0 ; |1550| 
         00163f 0285 
    5370                                                      ; branchcc occurs ; |1550| 
    5371                      .dwpsn  file "../c5535_bsl_revc/ezdsp5535_v1/c55xx_csl/src/csl_msc.c",line 1552,column 3,is_stmt
    5372 001641 ED00          MOV dbl(*SP(#0)), XAR0
         001643 8F   
    5373 001644 ED04          MOV dbl(*SP(#2)), XAR1
         001646 9F   
    5374 001647 ED08          MOV dbl(*SP(#4)), XAR2
         001649 AF   
    5375              $C$DW$394       .dwtag  DW_TAG_TI_branch
    5376                      .dwattr $C$DW$394, DW_AT_low_pc(0x00)
    5377                      .dwattr $C$DW$394, DW_AT_name("_MSC_verifyCBW")
    5378                      .dwattr $C$DW$394, DW_AT_TI_call
    5379 00164a 08F1          CALL #_MSC_verifyCBW ; |1552| 
         00164c 2F   
    5380                                                      ; call occurs [#_MSC_verifyCBW] ; |1552| 
    5381 00164d C40C          MOV T0, *SP(#6) ; |1552| 
    5382                      .dwpsn  file "../c5535_bsl_revc/ezdsp5535_v1/c55xx_csl/src/csl_msc.c",line 1553,column 3,is_stmt
    5383 00164f 2249          MOV T0, AR1
    5384 001651 0409          BCC $C$L112,AR1 == #0 ; |1553| 
         001653 25   
    5385                                                      ; branchcc occurs ; |1553| 
    5386                      .dwpsn  file "../c5535_bsl_revc/ezdsp5535_v1/c55xx_csl/src/csl_msc.c",line 1555,column 4,is_stmt
    5387 001654 ED08          MOV dbl(*SP(#4)), XAR0
         001656 8F   
    5388              $C$DW$395       .dwtag  DW_TAG_TI_branch
TMS320C55x Assembler PC v4.4.1 Tue Oct 02 02:33:20 2018

Tools Copyright (c) 1996-2012 Texas Instruments Incorporated
csl_msc.asm                                                          PAGE  128

    5389                      .dwattr $C$DW$395, DW_AT_low_pc(0x00)
    5390                      .dwattr $C$DW$395, DW_AT_name("_USB_stallEndpt")
    5391                      .dwattr $C$DW$395, DW_AT_TI_call
    5392 001657 6C00          CALL #_USB_stallEndpt ; |1555| 
         001659 0000!
    5393                                                      ; call occurs [#_USB_stallEndpt] ; |1555| 
    5394 00165b C40C          MOV T0, *SP(#6) ; |1555| 
    5395                      .dwpsn  file "../c5535_bsl_revc/ezdsp5535_v1/c55xx_csl/src/csl_msc.c",line 1558,column 4,is_stmt
    5396 00165d ED00          MOV dbl(*SP(#0)), XAR1
         00165f 9F   
    5397 001660 7600          MOV #32, T1 ; |1558| 
         001662 2058 
    5398 001664 ED08          MOV dbl(*SP(#4)), XAR0
         001666 8F   
    5399 001667 B42F          AMAR *+AR1(#282) ; |1558| 
         001669 011A 
    5400              $C$DW$396       .dwtag  DW_TAG_TI_branch
    5401                      .dwattr $C$DW$396, DW_AT_low_pc(0x00)
    5402                      .dwattr $C$DW$396, DW_AT_name("_USB_postTransaction")
    5403                      .dwattr $C$DW$396, DW_AT_TI_call
    5404              
    5405 00166b 6C00          CALL #_USB_postTransaction ; |1558| 
         00166d 0000!
    5406 00166f 3D04  ||      MOV #0, T0
    5407              
    5408                                                      ; call occurs [#_USB_postTransaction] ; |1558| 
    5409 001671 DA0C          OR *SP(#6), T0, AR1 ; |1558| 
         001673 94   
    5410 001674 C90C          MOV AR1, *SP(#6) ; |1558| 
    5411                      .dwpsn  file "../c5535_bsl_revc/ezdsp5535_v1/c55xx_csl/src/csl_msc.c",line 1561,column 3,is_stmt
    5412 001676 0602          B $C$L131 ; |1561| 
         001678 4D   
    5413                                                      ; branch occurs ; |1561| 
    5414 001679       $C$L112:    
    5415                      .dwpsn  file "../c5535_bsl_revc/ezdsp5535_v1/c55xx_csl/src/csl_msc.c",line 1564,column 4,is_stmt
    5416 001679 ED00          MOV dbl(*SP(#0)), XAR3
         00167b BF   
    5417 00167c E66D          MOV #1, *AR3(#281) ; |1564| 
         00167e 0101 
         001680 19   
    5418                      .dwpsn  file "../c5535_bsl_revc/ezdsp5535_v1/c55xx_csl/src/csl_msc.c",line 1566,column 4,is_stmt
    5419 001681 ED00          MOV dbl(*SP(#0)), XAR3
         001683 BF   
    5420 001684 A96D          MOV *AR3(#299), AR1 ; |1566| 
         001686 012B 
    5421 001688 C96D          MOV AR1, *AR3(#285) ; |1566| 
         00168a 011D 
    5422                      .dwpsn  file "../c5535_bsl_revc/ezdsp5535_v1/c55xx_csl/src/csl_msc.c",line 1567,column 4,is_stmt
    5423 00168c ED00          MOV dbl(*SP(#0)), XAR3
         00168e BF   
    5424 00168f A96D          MOV *AR3(#300), AR1 ; |1567| 
         001691 012C 
    5425 001693 C96D          MOV AR1, *AR3(#286) ; |1567| 
         001695 011E 
    5426                      .dwpsn  file "../c5535_bsl_revc/ezdsp5535_v1/c55xx_csl/src/csl_msc.c",line 1568,column 4,is_stmt
TMS320C55x Assembler PC v4.4.1 Tue Oct 02 02:33:20 2018

Tools Copyright (c) 1996-2012 Texas Instruments Incorporated
csl_msc.asm                                                          PAGE  129

    5427 001697 ED00          MOV dbl(*SP(#0)), XAR3
         001699 BF   
    5428 00169a E66D          MOV #1, *AR3(#289) ; |1568| 
         00169c 0101 
         00169e 21   
    5429                      .dwpsn  file "../c5535_bsl_revc/ezdsp5535_v1/c55xx_csl/src/csl_msc.c",line 1570,column 4,is_stmt
    5430 00169f ED00          MOV dbl(*SP(#0)), XAR2
         0016a1 AF   
    5431 0016a2 ED00          MOV dbl(*SP(#0)), XAR3
         0016a4 BF   
    5432 0016a5 A94D          MOV *AR2(#302), AR1 ; |1570| 
         0016a7 012E 
    5433 0016a9 5290          MOV AR1, HI(AC0) ; |1570| 
    5434 0016ab DF6D          ADD uns(*AR3(#301)), AC0, AC0 ; |1570| 
         0016ad 0D01 
         0016af 2D   
    5435 0016b0 EB6D          MOV AC0, dbl(*AR3(#16)) ; |1570| 
         0016b2 0800 
         0016b4 10   
    5436                      .dwpsn  file "../c5535_bsl_revc/ezdsp5535_v1/c55xx_csl/src/csl_msc.c",line 1574,column 4,is_stmt
    5437 0016b5 ED00          MOV dbl(*SP(#0)), XAR3
         0016b7 BF   
    5438 0016b8 ED6D          MOV dbl(*AR3(#16)), AC0 ; |1574| 
         0016ba 0800 
         0016bc 10   
    5439 0016bd 7DFF          AND #0xffff, AC0, AC0 ; |1574| 
         0016bf FF00 
    5440 0016c1 C06D          MOV AC0, *AR3(#287) ; |1574| 
         0016c3 011F 
    5441                      .dwpsn  file "../c5535_bsl_revc/ezdsp5535_v1/c55xx_csl/src/csl_msc.c",line 1576,column 4,is_stmt
    5442 0016c5 ED00          MOV dbl(*SP(#0)), XAR3
         0016c7 BF   
    5443 0016c8 ED6D          MOV dbl(*AR3(#16)), AC0 ; |1576| 
         0016ca 0800 
         0016cc 10   
    5444 0016cd BC6D          MOV HI(AC0), *AR3(#288) ; |1576| 
         0016cf 0120 
    5445                      .dwpsn  file "../c5535_bsl_revc/ezdsp5535_v1/c55xx_csl/src/csl_msc.c",line 1580,column 4,is_stmt
    5446 0016d1 ED00          MOV dbl(*SP(#0)), XAR3
         0016d3 BF   
    5447 0016d4 DF6D          MOV uns(high_byte(*AR3(#303))), AR1 ; |1580| 
         0016d6 9101 
         0016d8 2F   
    5448 0016d9 C90E          MOV AR1, *SP(#7) ; |1580| 
    5449                      .dwpsn  file "../c5535_bsl_revc/ezdsp5535_v1/c55xx_csl/src/csl_msc.c",line 1582,column 4,is_stmt
    5450 0016db ED00          MOV dbl(*SP(#0)), XAR3
         0016dd BF   
    5451 0016de DF6D          MOV uns(high_byte(*AR3(#304))), AR1 ; |1582| 
         0016e0 9101 
         0016e2 30   
    5452 0016e3 C910          MOV AR1, *SP(#8) ; |1582| 
    5453                      .dwpsn  file "../c5535_bsl_revc/ezdsp5535_v1/c55xx_csl/src/csl_msc.c",line 1584,column 4,is_stmt
    5454 0016e5 0601          B $C$L127 ; |1584| 
         0016e7 50   
    5455                                                      ; branch occurs ; |1584| 
TMS320C55x Assembler PC v4.4.1 Tue Oct 02 02:33:20 2018

Tools Copyright (c) 1996-2012 Texas Instruments Incorporated
csl_msc.asm                                                          PAGE  130

    5456 0016e8       $C$L113:    
    5457                      .dwpsn  file "../c5535_bsl_revc/ezdsp5535_v1/c55xx_csl/src/csl_msc.c",line 1587,column 6,is_stmt
    5458 0016e8 ED00          MOV dbl(*SP(#0)), XAR0
         0016ea 8F   
    5459 0016eb ED08          MOV dbl(*SP(#4)), XAR1
         0016ed 9F   
    5460 0016ee A40E          MOV *SP(#7), T0 ; |1587| 
    5461              $C$DW$397       .dwtag  DW_TAG_TI_branch
    5462                      .dwattr $C$DW$397, DW_AT_low_pc(0x00)
    5463                      .dwattr $C$DW$397, DW_AT_name("_MSC_HandleInquiry")
    5464                      .dwattr $C$DW$397, DW_AT_TI_call
    5465 0016f0 08ED          CALL #_MSC_HandleInquiry ; |1587| 
         0016f2 91   
    5466                                                      ; call occurs [#_MSC_HandleInquiry] ; |1587| 
    5467 0016f3 C40C          MOV T0, *SP(#6) ; |1587| 
    5468                      .dwpsn  file "../c5535_bsl_revc/ezdsp5535_v1/c55xx_csl/src/csl_msc.c",line 1588,column 11,is_stmt
    5469 0016f5 0601          B $C$L131 ; |1588| 
         0016f7 CE   
    5470                                                      ; branch occurs ; |1588| 
    5471 0016f8       $C$L114:    
    5472                      .dwpsn  file "../c5535_bsl_revc/ezdsp5535_v1/c55xx_csl/src/csl_msc.c",line 1591,column 6,is_stmt
    5473 0016f8 ED00          MOV dbl(*SP(#0)), XAR0
         0016fa 8F   
    5474 0016fb ED08          MOV dbl(*SP(#4)), XAR1
         0016fd 9F   
    5475              $C$DW$398       .dwtag  DW_TAG_TI_branch
    5476                      .dwattr $C$DW$398, DW_AT_low_pc(0x00)
    5477                      .dwattr $C$DW$398, DW_AT_name("_MSC_HandleRequestSense")
    5478                      .dwattr $C$DW$398, DW_AT_TI_call
    5479 0016fe 08EE          CALL #_MSC_HandleRequestSense ; |1591| 
         001700 63   
    5480                                                      ; call occurs [#_MSC_HandleRequestSense] ; |1591| 
    5481 001701 C40C          MOV T0, *SP(#6) ; |1591| 
    5482                      .dwpsn  file "../c5535_bsl_revc/ezdsp5535_v1/c55xx_csl/src/csl_msc.c",line 1592,column 11,is_stmt
    5483 001703 0601          B $C$L131 ; |1592| 
         001705 C0   
    5484                                                      ; branch occurs ; |1592| 
    5485 001706       $C$L115:    
    5486                      .dwpsn  file "../c5535_bsl_revc/ezdsp5535_v1/c55xx_csl/src/csl_msc.c",line 1595,column 6,is_stmt
    5487 001706 ED00          MOV dbl(*SP(#0)), XAR0
         001708 8F   
    5488 001709 ED08          MOV dbl(*SP(#4)), XAR1
         00170b 9F   
    5489 00170c A40E          MOV *SP(#7), T0 ; |1595| 
    5490              $C$DW$399       .dwtag  DW_TAG_TI_branch
    5491                      .dwattr $C$DW$399, DW_AT_low_pc(0x00)
    5492                      .dwattr $C$DW$399, DW_AT_name("_MSC_HandleTestUnitReady")
    5493                      .dwattr $C$DW$399, DW_AT_TI_call
    5494 00170e 080C          CALL #_MSC_HandleTestUnitReady ; |1595| 
         001710 53   
    5495                                                      ; call occurs [#_MSC_HandleTestUnitReady] ; |1595| 
    5496 001711 C40C          MOV T0, *SP(#6) ; |1595| 
    5497                      .dwpsn  file "../c5535_bsl_revc/ezdsp5535_v1/c55xx_csl/src/csl_msc.c",line 1597,column 11,is_stmt
    5498 001713 0601          B $C$L131 ; |1597| 
         001715 B0   
TMS320C55x Assembler PC v4.4.1 Tue Oct 02 02:33:20 2018

Tools Copyright (c) 1996-2012 Texas Instruments Incorporated
csl_msc.asm                                                          PAGE  131

    5499                                                      ; branch occurs ; |1597| 
    5500 001716       $C$L116:    
    5501                      .dwpsn  file "../c5535_bsl_revc/ezdsp5535_v1/c55xx_csl/src/csl_msc.c",line 1600,column 6,is_stmt
    5502 001716 ED00          MOV dbl(*SP(#0)), XAR0
         001718 8F   
    5503 001719 ED08          MOV dbl(*SP(#4)), XAR1
         00171b 9F   
    5504 00171c A40E          MOV *SP(#7), T0 ; |1600| 
    5505              $C$DW$400       .dwtag  DW_TAG_TI_branch
    5506                      .dwattr $C$DW$400, DW_AT_low_pc(0x00)
    5507                      .dwattr $C$DW$400, DW_AT_name("_MSC_HandlePreventAllowMediaRemoval")
    5508                      .dwattr $C$DW$400, DW_AT_TI_call
    5509 00171e 080E          CALL #_MSC_HandlePreventAllowMediaRemoval ; |1600| 
         001720 9B   
    5510                                                      ; call occurs [#_MSC_HandlePreventAllowMediaRemoval] ; |1600| 
    5511 001721 C40C          MOV T0, *SP(#6) ; |1600| 
    5512                      .dwpsn  file "../c5535_bsl_revc/ezdsp5535_v1/c55xx_csl/src/csl_msc.c",line 1603,column 11,is_stmt
    5513 001723 0601          B $C$L131 ; |1603| 
         001725 A0   
    5514                                                      ; branch occurs ; |1603| 
    5515 001726       $C$L117:    
    5516                      .dwpsn  file "../c5535_bsl_revc/ezdsp5535_v1/c55xx_csl/src/csl_msc.c",line 1606,column 6,is_stmt
    5517 001726 ED00          MOV dbl(*SP(#0)), XAR0
         001728 8F   
    5518 001729 ED08          MOV dbl(*SP(#4)), XAR1
         00172b 9F   
    5519 00172c A40E          MOV *SP(#7), T0 ; |1606| 
    5520              $C$DW$401       .dwtag  DW_TAG_TI_branch
    5521                      .dwattr $C$DW$401, DW_AT_low_pc(0x00)
    5522                      .dwattr $C$DW$401, DW_AT_name("_MSC_HandleReadCapacity")
    5523                      .dwattr $C$DW$401, DW_AT_TI_call
    5524 00172e 0810          CALL #_MSC_HandleReadCapacity ; |1606| 
         001730 43   
    5525                                                      ; call occurs [#_MSC_HandleReadCapacity] ; |1606| 
    5526 001731 C40C          MOV T0, *SP(#6) ; |1606| 
    5527                      .dwpsn  file "../c5535_bsl_revc/ezdsp5535_v1/c55xx_csl/src/csl_msc.c",line 1608,column 11,is_stmt
    5528 001733 0601          B $C$L131 ; |1608| 
         001735 90   
    5529                                                      ; branch occurs ; |1608| 
    5530 001736       $C$L118:    
    5531                      .dwpsn  file "../c5535_bsl_revc/ezdsp5535_v1/c55xx_csl/src/csl_msc.c",line 1611,column 9,is_stmt
    5532 001736 ED00          MOV dbl(*SP(#0)), XAR0
         001738 8F   
    5533 001739 A40E          MOV *SP(#7), T0 ; |1611| 
    5534              $C$DW$402       .dwtag  DW_TAG_TI_branch
    5535                      .dwattr $C$DW$402, DW_AT_low_pc(0x00)
    5536                      .dwattr $C$DW$402, DW_AT_name("_MSC_ExecuteRead")
    5537                      .dwattr $C$DW$402, DW_AT_TI_call
    5538              
    5539 00173b 0801          CALL #_MSC_ExecuteRead ; |1611| 
         00173d 8C   
    5540 00173e 3D15  ||      MOV #1, T1
    5541              
    5542                                                      ; call occurs [#_MSC_ExecuteRead] ; |1611| 
    5543 001740 C40C          MOV T0, *SP(#6) ; |1611| 
TMS320C55x Assembler PC v4.4.1 Tue Oct 02 02:33:20 2018

Tools Copyright (c) 1996-2012 Texas Instruments Incorporated
csl_msc.asm                                                          PAGE  132

    5544                      .dwpsn  file "../c5535_bsl_revc/ezdsp5535_v1/c55xx_csl/src/csl_msc.c",line 1612,column 11,is_stmt
    5545 001742 0601          B $C$L131 ; |1612| 
         001744 81   
    5546                                                      ; branch occurs ; |1612| 
    5547 001745       $C$L119:    
    5548                      .dwpsn  file "../c5535_bsl_revc/ezdsp5535_v1/c55xx_csl/src/csl_msc.c",line 1615,column 9,is_stmt
    5549 001745 ED00          MOV dbl(*SP(#0)), XAR0
         001747 8F   
    5550 001748 A40E          MOV *SP(#7), T0 ; |1615| 
    5551              $C$DW$403       .dwtag  DW_TAG_TI_branch
    5552                      .dwattr $C$DW$403, DW_AT_low_pc(0x00)
    5553                      .dwattr $C$DW$403, DW_AT_name("_MSC_ExecuteWrite")
    5554                      .dwattr $C$DW$403, DW_AT_TI_call
    5555              
    5556 00174a 0805          CALL #_MSC_ExecuteWrite ; |1615| 
         00174c C5   
    5557 00174d 3D15  ||      MOV #1, T1
    5558              
    5559                                                      ; call occurs [#_MSC_ExecuteWrite] ; |1615| 
    5560 00174f C40C          MOV T0, *SP(#6) ; |1615| 
    5561                      .dwpsn  file "../c5535_bsl_revc/ezdsp5535_v1/c55xx_csl/src/csl_msc.c",line 1616,column 14,is_stmt
    5562 001751 0601          B $C$L131 ; |1616| 
         001753 72   
    5563                                                      ; branch occurs ; |1616| 
    5564 001754       $C$L120:    
    5565                      .dwpsn  file "../c5535_bsl_revc/ezdsp5535_v1/c55xx_csl/src/csl_msc.c",line 1619,column 9,is_stmt
    5566 001754 ED00          MOV dbl(*SP(#0)), XAR0
         001756 8F   
    5567 001757 ED08          MOV dbl(*SP(#4)), XAR1
         001759 9F   
    5568 00175a A40E          MOV *SP(#7), T0 ; |1619| 
    5569              $C$DW$404       .dwtag  DW_TAG_TI_branch
    5570                      .dwattr $C$DW$404, DW_AT_low_pc(0x00)
    5571                      .dwattr $C$DW$404, DW_AT_name("_MSC_HandleVerify10")
    5572                      .dwattr $C$DW$404, DW_AT_TI_call
    5573 00175c 08EE          CALL #_MSC_HandleVerify10 ; |1619| 
         00175e C5   
    5574                                                      ; call occurs [#_MSC_HandleVerify10] ; |1619| 
    5575 00175f C40C          MOV T0, *SP(#6) ; |1619| 
    5576                      .dwpsn  file "../c5535_bsl_revc/ezdsp5535_v1/c55xx_csl/src/csl_msc.c",line 1620,column 14,is_stmt
    5577 001761 0601          B $C$L131 ; |1620| 
         001763 62   
    5578                                                      ; branch occurs ; |1620| 
    5579 001764       $C$L121:    
    5580                      .dwpsn  file "../c5535_bsl_revc/ezdsp5535_v1/c55xx_csl/src/csl_msc.c",line 1623,column 9,is_stmt
    5581 001764 ED00          MOV dbl(*SP(#0)), XAR0
         001766 8F   
    5582 001767 ED08          MOV dbl(*SP(#4)), XAR1
         001769 9F   
    5583 00176a A40E          MOV *SP(#7), T0 ; |1623| 
    5584              $C$DW$405       .dwtag  DW_TAG_TI_branch
    5585                      .dwattr $C$DW$405, DW_AT_low_pc(0x00)
    5586                      .dwattr $C$DW$405, DW_AT_name("_MSC_HandleStartStopUnit")
    5587                      .dwattr $C$DW$405, DW_AT_TI_call
    5588 00176c 08E8          CALL #_MSC_HandleStartStopUnit ; |1623| 
TMS320C55x Assembler PC v4.4.1 Tue Oct 02 02:33:20 2018

Tools Copyright (c) 1996-2012 Texas Instruments Incorporated
csl_msc.asm                                                          PAGE  133

         00176e E9   
    5589                                                      ; call occurs [#_MSC_HandleStartStopUnit] ; |1623| 
    5590 00176f C40C          MOV T0, *SP(#6) ; |1623| 
    5591                      .dwpsn  file "../c5535_bsl_revc/ezdsp5535_v1/c55xx_csl/src/csl_msc.c",line 1625,column 14,is_stmt
    5592 001771 0601          B $C$L131 ; |1625| 
         001773 52   
    5593                                                      ; branch occurs ; |1625| 
    5594 001774       $C$L122:    
    5595                      .dwpsn  file "../c5535_bsl_revc/ezdsp5535_v1/c55xx_csl/src/csl_msc.c",line 1628,column 9,is_stmt
    5596 001774 ED00          MOV dbl(*SP(#0)), XAR0
         001776 8F   
    5597 001777 ED08          MOV dbl(*SP(#4)), XAR1
         001779 9F   
    5598 00177a A40E          MOV *SP(#7), T0 ; |1628| 
    5599              $C$DW$406       .dwtag  DW_TAG_TI_branch
    5600                      .dwattr $C$DW$406, DW_AT_low_pc(0x00)
    5601                      .dwattr $C$DW$406, DW_AT_name("_MSC_HandleModeSense6")
    5602                      .dwattr $C$DW$406, DW_AT_TI_call
    5603 00177c 08EB          CALL #_MSC_HandleModeSense6 ; |1628| 
         00177e 15   
    5604                                                      ; call occurs [#_MSC_HandleModeSense6] ; |1628| 
    5605 00177f C40C          MOV T0, *SP(#6) ; |1628| 
    5606                      .dwpsn  file "../c5535_bsl_revc/ezdsp5535_v1/c55xx_csl/src/csl_msc.c",line 1630,column 14,is_stmt
    5607 001781 0601          B $C$L131 ; |1630| 
         001783 42   
    5608                                                      ; branch occurs ; |1630| 
    5609 001784       $C$L123:    
    5610                      .dwpsn  file "../c5535_bsl_revc/ezdsp5535_v1/c55xx_csl/src/csl_msc.c",line 1633,column 9,is_stmt
    5611 001784 ED00          MOV dbl(*SP(#0)), XAR0
         001786 8F   
    5612 001787 ED08          MOV dbl(*SP(#4)), XAR1
         001789 9F   
    5613 00178a A40E          MOV *SP(#7), T0 ; |1633| 
    5614              $C$DW$407       .dwtag  DW_TAG_TI_branch
    5615                      .dwattr $C$DW$407, DW_AT_low_pc(0x00)
    5616                      .dwattr $C$DW$407, DW_AT_name("_MSC_HandleModeSense10")
    5617                      .dwattr $C$DW$407, DW_AT_TI_call
    5618 00178c 08EB          CALL #_MSC_HandleModeSense10 ; |1633| 
         00178e FD   
    5619                                                      ; call occurs [#_MSC_HandleModeSense10] ; |1633| 
    5620 00178f C40C          MOV T0, *SP(#6) ; |1633| 
    5621                      .dwpsn  file "../c5535_bsl_revc/ezdsp5535_v1/c55xx_csl/src/csl_msc.c",line 1635,column 11,is_stmt
    5622 001791 0601          B $C$L131 ; |1635| 
         001793 32   
    5623                                                      ; branch occurs ; |1635| 
    5624 001794       $C$L124:    
    5625                      .dwpsn  file "../c5535_bsl_revc/ezdsp5535_v1/c55xx_csl/src/csl_msc.c",line 1637,column 6,is_stmt
    5626 001794 ED00          MOV dbl(*SP(#0)), XAR0
         001796 8F   
    5627 001797 7600          MOV #32, T1 ; |1637| 
         001799 2058 
    5628 00179b B40F          AMAR *+AR0(#266) ; |1637| 
         00179d 010A 
    5629              $C$DW$408       .dwtag  DW_TAG_TI_branch
    5630                      .dwattr $C$DW$408, DW_AT_low_pc(0x00)
TMS320C55x Assembler PC v4.4.1 Tue Oct 02 02:33:20 2018

Tools Copyright (c) 1996-2012 Texas Instruments Incorporated
csl_msc.asm                                                          PAGE  134

    5631                      .dwattr $C$DW$408, DW_AT_name("_MSC_SetSenseKeys")
    5632                      .dwattr $C$DW$408, DW_AT_TI_call
    5633              
    5634 00179f 08E8          CALL #_MSC_SetSenseKeys ; |1637| 
         0017a1 5C   
    5635 0017a2 3D54  ||      MOV #5, T0
    5636              
    5637                                                      ; call occurs [#_MSC_SetSenseKeys] ; |1637| 
    5638                      .dwpsn  file "../c5535_bsl_revc/ezdsp5535_v1/c55xx_csl/src/csl_msc.c",line 1641,column 6,is_stmt
    5639 0017a4 ED00          MOV dbl(*SP(#0)), XAR3
         0017a6 BF   
    5640 0017a7 DC6D          BTST #7, *AR3(#303), TC1 ; |1641| 
         0017a9 7001 
         0017ab 2F   
    5641 0017ac 0474          BCC $C$L125,!TC1 ; |1641| 
         0017ae 24   
    5642                                                      ; branchcc occurs ; |1641| 
    5643                      .dwpsn  file "../c5535_bsl_revc/ezdsp5535_v1/c55xx_csl/src/csl_msc.c",line 1643,column 7,is_stmt
    5644 0017af E66D          MOV #1, *AR3(#289) ; |1643| 
         0017b1 0101 
         0017b3 21   
    5645                      .dwpsn  file "../c5535_bsl_revc/ezdsp5535_v1/c55xx_csl/src/csl_msc.c",line 1644,column 7,is_stmt
    5646 0017b4 ED00          MOV dbl(*SP(#0)), XAR1
         0017b6 9F   
    5647 0017b7 3C04          MOV #0, T0
    5648 0017b9 ED08          MOV dbl(*SP(#4)), XAR0
         0017bb 8F   
    5649 0017bc B42F          AMAR *+AR1(#282) ; |1644| 
         0017be 011A 
    5650              $C$DW$409       .dwtag  DW_TAG_TI_branch
    5651                      .dwattr $C$DW$409, DW_AT_low_pc(0x00)
    5652                      .dwattr $C$DW$409, DW_AT_name("_USB_postTransaction")
    5653                      .dwattr $C$DW$409, DW_AT_TI_call
    5654              
    5655 0017c0 6C00          CALL #_USB_postTransaction ; |1644| 
         0017c2 0000!
    5656 0017c4 3D15  ||      MOV #1, T1
    5657              
    5658                                                      ; call occurs [#_USB_postTransaction] ; |1644| 
    5659 0017c6 C40C          MOV T0, *SP(#6) ; |1644| 
    5660                      .dwpsn  file "../c5535_bsl_revc/ezdsp5535_v1/c55xx_csl/src/csl_msc.c",line 1647,column 7,is_stmt
    5661 0017c8 ED00          MOV dbl(*SP(#0)), XAR3
         0017ca BF   
    5662 0017cb E66D          MOV #7, *AR3(#355) ; |1647| 
         0017cd 0701 
         0017cf 63   
    5663                      .dwpsn  file "../c5535_bsl_revc/ezdsp5535_v1/c55xx_csl/src/csl_msc.c",line 1648,column 6,is_stmt
    5664 0017d0 0600          B $C$L131 ; |1648| 
         0017d2 F3   
    5665                                                      ; branch occurs ; |1648| 
    5666 0017d3       $C$L125:    
    5667                      .dwpsn  file "../c5535_bsl_revc/ezdsp5535_v1/c55xx_csl/src/csl_msc.c",line 1651,column 7,is_stmt
    5668 0017d3 ED6D          MOV dbl(*AR3(#16)), AC0 ; |1651| 
         0017d5 0800 
         0017d7 10   
TMS320C55x Assembler PC v4.4.1 Tue Oct 02 02:33:20 2018

Tools Copyright (c) 1996-2012 Texas Instruments Incorporated
csl_msc.asm                                                          PAGE  135

    5669 0017d8 0410          BCC $C$L126,AC0 != #0 ; |1651| 
         0017da 24   
    5670                                                      ; branchcc occurs ; |1651| 
    5671                      .dwpsn  file "../c5535_bsl_revc/ezdsp5535_v1/c55xx_csl/src/csl_msc.c",line 1653,column 10,is_stmt
    5672 0017db E66D          MOV #1, *AR3(#289) ; |1653| 
         0017dd 0101 
         0017df 21   
    5673                      .dwpsn  file "../c5535_bsl_revc/ezdsp5535_v1/c55xx_csl/src/csl_msc.c",line 1654,column 8,is_stmt
    5674 0017e0 ED00          MOV dbl(*SP(#0)), XAR3
         0017e2 BF   
    5675 0017e3 E66D          MOV #4, *AR3(#355) ; |1654| 
         0017e5 0401 
         0017e7 63   
    5676                      .dwpsn  file "../c5535_bsl_revc/ezdsp5535_v1/c55xx_csl/src/csl_msc.c",line 1657,column 8,is_stmt
    5677 0017e8 ED00          MOV dbl(*SP(#0)), XAR1
         0017ea 9F   
    5678 0017eb 3CD4          MOV #13, T0
    5679 0017ed ED08          MOV dbl(*SP(#4)), XAR0
         0017ef 8F   
    5680 0017f0 B42F          AMAR *+AR1(#282) ; |1657| 
         0017f2 011A 
    5681              $C$DW$410       .dwtag  DW_TAG_TI_branch
    5682                      .dwattr $C$DW$410, DW_AT_low_pc(0x00)
    5683                      .dwattr $C$DW$410, DW_AT_name("_USB_postTransaction")
    5684                      .dwattr $C$DW$410, DW_AT_TI_call
    5685              
    5686 0017f4 6C00          CALL #_USB_postTransaction ; |1657| 
         0017f6 0000!
    5687 0017f8 3D05  ||      MOV #0, T1
    5688              
    5689                                                      ; call occurs [#_USB_postTransaction] ; |1657| 
    5690 0017fa C40C          MOV T0, *SP(#6) ; |1657| 
    5691                      .dwpsn  file "../c5535_bsl_revc/ezdsp5535_v1/c55xx_csl/src/csl_msc.c",line 1661,column 7,is_stmt
    5692 0017fc 0600          B $C$L131 ; |1661| 
         0017fe C7   
    5693                                                      ; branch occurs ; |1661| 
    5694 0017ff       $C$L126:    
    5695                      .dwpsn  file "../c5535_bsl_revc/ezdsp5535_v1/c55xx_csl/src/csl_msc.c",line 1665,column 8,is_stmt
    5696 0017ff ED08          MOV dbl(*SP(#4)), XAR0
         001801 8F   
    5697              $C$DW$411       .dwtag  DW_TAG_TI_branch
    5698                      .dwattr $C$DW$411, DW_AT_low_pc(0x00)
    5699                      .dwattr $C$DW$411, DW_AT_name("_USB_stallEndpt")
    5700                      .dwattr $C$DW$411, DW_AT_TI_call
    5701 001802 6C00          CALL #_USB_stallEndpt ; |1665| 
         001804 0000!
    5702                                                      ; call occurs [#_USB_stallEndpt] ; |1665| 
    5703 001806 C40C          MOV T0, *SP(#6) ; |1665| 
    5704                      .dwpsn  file "../c5535_bsl_revc/ezdsp5535_v1/c55xx_csl/src/csl_msc.c",line 1666,column 8,is_stmt
    5705 001808 ED04          MOV dbl(*SP(#2)), XAR0
         00180a 8F   
    5706              $C$DW$412       .dwtag  DW_TAG_TI_branch
    5707                      .dwattr $C$DW$412, DW_AT_low_pc(0x00)
    5708                      .dwattr $C$DW$412, DW_AT_name("_USB_stallEndpt")
    5709                      .dwattr $C$DW$412, DW_AT_TI_call
TMS320C55x Assembler PC v4.4.1 Tue Oct 02 02:33:20 2018

Tools Copyright (c) 1996-2012 Texas Instruments Incorporated
csl_msc.asm                                                          PAGE  136

    5710 00180b 6C00          CALL #_USB_stallEndpt ; |1666| 
         00180d 0000!
    5711                                                      ; call occurs [#_USB_stallEndpt] ; |1666| 
    5712 00180f DA0C          OR *SP(#6), T0, AR1 ; |1666| 
         001811 94   
    5713 001812 C90C          MOV AR1, *SP(#6) ; |1666| 
    5714                      .dwpsn  file "../c5535_bsl_revc/ezdsp5535_v1/c55xx_csl/src/csl_msc.c",line 1668,column 8,is_stmt
    5715 001814 ED00          MOV dbl(*SP(#0)), XAR3
         001816 BF   
    5716 001817 E66D          MOV #2, *AR3(#355) ; |1668| 
         001819 0201 
         00181b 63   
    5717                      .dwpsn  file "../c5535_bsl_revc/ezdsp5535_v1/c55xx_csl/src/csl_msc.c",line 1671,column 8,is_stmt
    5718 00181c ED00          MOV dbl(*SP(#0)), XAR1
         00181e 9F   
    5719 00181f 7600          MOV #32, T1 ; |1671| 
         001821 2058 
    5720 001823 ED08          MOV dbl(*SP(#4)), XAR0
         001825 8F   
    5721 001826 B42F          AMAR *+AR1(#282) ; |1671| 
         001828 011A 
    5722              $C$DW$413       .dwtag  DW_TAG_TI_branch
    5723                      .dwattr $C$DW$413, DW_AT_low_pc(0x00)
    5724                      .dwattr $C$DW$413, DW_AT_name("_USB_postTransaction")
    5725                      .dwattr $C$DW$413, DW_AT_TI_call
    5726              
    5727 00182a 6C00          CALL #_USB_postTransaction ; |1671| 
         00182c 0000!
    5728 00182e 3D04  ||      MOV #0, T0
    5729              
    5730                                                      ; call occurs [#_USB_postTransaction] ; |1671| 
    5731 001830 DA0C          OR *SP(#6), T0, AR1 ; |1671| 
         001832 94   
    5732 001833 C90C          MOV AR1, *SP(#6) ; |1671| 
    5733                      .dwpsn  file "../c5535_bsl_revc/ezdsp5535_v1/c55xx_csl/src/csl_msc.c",line 1676,column 11,is_stmt
    5734 001835 0600          B $C$L131 ; |1676| 
         001837 8E   
    5735                                                      ; branch occurs ; |1676| 
    5736 001838       $C$L127:    
    5737                      .dwpsn  file "../c5535_bsl_revc/ezdsp5535_v1/c55xx_csl/src/csl_msc.c",line 1584,column 4,is_stmt
    5738 001838 7600          MOV #30, AR2 ; |1584| 
         00183a 1EA8 
    5739 00183c 12A4          CMP AR1 > AR2, TC1 ; |1584| 
         00183e 90   
    5740 00183f 0464          BCC $C$L129,TC1 ; |1584| 
         001841 41   
    5741                                                      ; branchcc occurs ; |1584| 
    5742 001842 1290          CMP AR1 == AR2, TC1 ; |1584| 
         001844 A0   
    5743 001845 6D64          BCC $C$L116,TC1 ; |1584| 
         001847 FECD 
    5744                                                      ; branchcc occurs ; |1584| 
    5745 001849 7600          MOV #18, AR2 ; |1584| 
         00184b 12A8 
    5746 00184d 12A4          CMP AR1 > AR2, TC1 ; |1584| 
TMS320C55x Assembler PC v4.4.1 Tue Oct 02 02:33:20 2018

Tools Copyright (c) 1996-2012 Texas Instruments Incorporated
csl_msc.asm                                                          PAGE  137

         00184f 90   
    5747 001850 0464          BCC $C$L128,TC1 ; |1584| 
         001852 17   
    5748                                                      ; branchcc occurs ; |1584| 
    5749 001853 1290          CMP AR1 == AR2, TC1 ; |1584| 
         001855 A0   
    5750 001856 6D64          BCC $C$L113,TC1 ; |1584| 
         001858 FE8E 
    5751                                                      ; branchcc occurs ; |1584| 
    5752 00185a 6D09          BCC $C$L115,AR1 == #0 ; |1584| 
         00185c FEA8 
    5753                                                      ; branchcc occurs ; |1584| 
    5754 00185e 3C3A          MOV #3, AR2
    5755 001860 1290          CMPU AR1 == AR2, TC1 ; |1584| 
         001862 A4   
    5756 001863 6D64          BCC $C$L114,TC1 ; |1584| 
         001865 FE91 
    5757                                                      ; branchcc occurs ; |1584| 
    5758 001867 06FF          B $C$L124 ; |1584| 
         001869 2A   
    5759                                                      ; branch occurs ; |1584| 
    5760 00186a       $C$L128:    
    5761 00186a 7600          MOV #26, AR2 ; |1584| 
         00186c 1AA8 
    5762 00186e 1290          CMPU AR1 == AR2, TC1 ; |1584| 
         001870 A4   
    5763 001871 6D64          BCC $C$L122,TC1 ; |1584| 
         001873 FEFF 
    5764                                                      ; branchcc occurs ; |1584| 
    5765 001875 7600          MOV #27, AR2 ; |1584| 
         001877 1BA8 
    5766 001879 1290          CMPU AR1 == AR2, TC1 ; |1584| 
         00187b A4   
    5767 00187c 6D64          BCC $C$L121,TC1 ; |1584| 
         00187e FEE4 
    5768                                                      ; branchcc occurs ; |1584| 
    5769 001880 06FF          B $C$L124 ; |1584| 
         001882 11   
    5770                                                      ; branch occurs ; |1584| 
    5771 001883       $C$L129:    
    5772 001883 7600          MOV #42, AR2 ; |1584| 
         001885 2AA8 
    5773 001887 12A4          CMP AR1 > AR2, TC1 ; |1584| 
         001889 90   
    5774 00188a 0464          BCC $C$L130,TC1 ; |1584| 
         00188c 20   
    5775                                                      ; branchcc occurs ; |1584| 
    5776 00188d 1290          CMP AR1 == AR2, TC1 ; |1584| 
         00188f A0   
    5777 001890 6D64          BCC $C$L119,TC1 ; |1584| 
         001892 FEB1 
    5778                                                      ; branchcc occurs ; |1584| 
    5779 001894 7600          MOV #37, AR2 ; |1584| 
         001896 25A8 
    5780 001898 1290          CMPU AR1 == AR2, TC1 ; |1584| 
TMS320C55x Assembler PC v4.4.1 Tue Oct 02 02:33:20 2018

Tools Copyright (c) 1996-2012 Texas Instruments Incorporated
csl_msc.asm                                                          PAGE  138

         00189a A4   
    5781 00189b 6D64          BCC $C$L117,TC1 ; |1584| 
         00189d FE87 
    5782                                                      ; branchcc occurs ; |1584| 
    5783 00189f 7600          MOV #40, AR2 ; |1584| 
         0018a1 28A8 
    5784 0018a3 1290          CMPU AR1 == AR2, TC1 ; |1584| 
         0018a5 A4   
    5785 0018a6 6D64          BCC $C$L118,TC1 ; |1584| 
         0018a8 FE8C 
    5786                                                      ; branchcc occurs ; |1584| 
    5787 0018aa 06FE          B $C$L124 ; |1584| 
         0018ac E7   
    5788                                                      ; branch occurs ; |1584| 
    5789 0018ad       $C$L130:    
    5790 0018ad 7600          MOV #47, AR2 ; |1584| 
         0018af 2FA8 
    5791 0018b1 1290          CMPU AR1 == AR2, TC1 ; |1584| 
         0018b3 A4   
    5792 0018b4 6D64          BCC $C$L120,TC1 ; |1584| 
         0018b6 FE9C 
    5793                                                      ; branchcc occurs ; |1584| 
    5794 0018b8 7600          MOV #90, AR2 ; |1584| 
         0018ba 5AA8 
    5795 0018bc 1290          CMPU AR1 == AR2, TC1 ; |1584| 
         0018be A4   
    5796 0018bf 6D64          BCC $C$L123,TC1 ; |1584| 
         0018c1 FEC1 
    5797                                                      ; branchcc occurs ; |1584| 
    5798 0018c3 06FE          B $C$L124 ; |1584| 
         0018c5 CE   
    5799                                                      ; branch occurs ; |1584| 
    5800 0018c6       $C$L131:    
    5801                      .dwpsn  file "../c5535_bsl_revc/ezdsp5535_v1/c55xx_csl/src/csl_msc.c",line 1681,column 2,is_stmt
    5802 0018c6 A40C          MOV *SP(#6), T0 ; |1681| 
    5803                      .dwpsn  file "../c5535_bsl_revc/ezdsp5535_v1/c55xx_csl/src/csl_msc.c",line 1682,column 1,is_stmt
    5804 0018c8 4E09          AADD #9, SP
    5805                      .dwcfi  cfa_offset, 1
    5806              $C$DW$414       .dwtag  DW_TAG_TI_branch
    5807                      .dwattr $C$DW$414, DW_AT_low_pc(0x00)
    5808                      .dwattr $C$DW$414, DW_AT_TI_return
    5809 0018ca 4804          RET
    5810                                                      ; return occurs
    5811                      .dwattr $C$DW$383, DW_AT_TI_end_file("../c5535_bsl_revc/ezdsp5535_v1/c55xx_csl/src/csl_msc.c")
    5812                      .dwattr $C$DW$383, DW_AT_TI_end_line(0x692)
    5813                      .dwattr $C$DW$383, DW_AT_TI_end_column(0x01)
    5814                      .dwendentry
    5815                      .dwendtag $C$DW$383
    5816              
    5817 0018cc               .sect   ".text"
    5818                      .align 4
    5819                      .global _MSC_ExecuteRead
    5820              
    5821              $C$DW$415       .dwtag  DW_TAG_subprogram, DW_AT_name("MSC_ExecuteRead")
    5822                      .dwattr $C$DW$415, DW_AT_low_pc(_MSC_ExecuteRead)
TMS320C55x Assembler PC v4.4.1 Tue Oct 02 02:33:20 2018

Tools Copyright (c) 1996-2012 Texas Instruments Incorporated
csl_msc.asm                                                          PAGE  139

    5823                      .dwattr $C$DW$415, DW_AT_high_pc(0x00)
    5824                      .dwattr $C$DW$415, DW_AT_TI_symbol_name("_MSC_ExecuteRead")
    5825                      .dwattr $C$DW$415, DW_AT_external
    5826                      .dwattr $C$DW$415, DW_AT_type(*$C$DW$T$89)
    5827                      .dwattr $C$DW$415, DW_AT_TI_begin_file("../c5535_bsl_revc/ezdsp5535_v1/c55xx_csl/src/csl_msc.c")
    5828                      .dwattr $C$DW$415, DW_AT_TI_begin_line(0x6c8)
    5829                      .dwattr $C$DW$415, DW_AT_TI_begin_column(0x0c)
    5830                      .dwattr $C$DW$415, DW_AT_TI_max_frame_size(0x0c)
    5831                      .dwpsn  file "../c5535_bsl_revc/ezdsp5535_v1/c55xx_csl/src/csl_msc.c",line 1739,column 1,is_stmt,addr
    5832              
    5833                      .dwfde $C$DW$CIE, _MSC_ExecuteRead
    5834              $C$DW$416       .dwtag  DW_TAG_formal_parameter, DW_AT_name("pMscHandle")
    5835                      .dwattr $C$DW$416, DW_AT_TI_symbol_name("_pMscHandle")
    5836                      .dwattr $C$DW$416, DW_AT_type(*$C$DW$T$107)
    5837                      .dwattr $C$DW$416, DW_AT_location[DW_OP_reg17]
    5838              $C$DW$417       .dwtag  DW_TAG_formal_parameter, DW_AT_name("lunNum")
    5839                      .dwattr $C$DW$417, DW_AT_TI_symbol_name("_lunNum")
    5840                      .dwattr $C$DW$417, DW_AT_type(*$C$DW$T$25)
    5841                      .dwattr $C$DW$417, DW_AT_location[DW_OP_reg12]
    5842              $C$DW$418       .dwtag  DW_TAG_formal_parameter, DW_AT_name("first")
    5843                      .dwattr $C$DW$418, DW_AT_TI_symbol_name("_first")
    5844                      .dwattr $C$DW$418, DW_AT_type(*$C$DW$T$25)
    5845                      .dwattr $C$DW$418, DW_AT_location[DW_OP_reg13]
    5846              ;*******************************************************************************
    5847              ;* FUNCTION NAME: MSC_ExecuteRead                                              *
    5848              ;*                                                                             *
    5849              ;*   Function Uses Regs : AC0,AC0,AC1,AC1,AC2,AC2,AC3,AC3,T0,T1,AR0,XAR0,AR1,  *
    5850              ;*                        XAR1,AR2,XAR2,AR3,XAR3,SP,CARRY,TC1,M40,SATA,SATD,   *
    5851              ;*                        RDM,FRCT,SMUL                                        *
    5852              ;*   Stack Frame        : Compact (No Frame Pointer, w/ debug)                 *
    5853              ;*   Total Frame Size   : 12 words                                             *
    5854              ;*                        (2 return address/alignment)                         *
    5855              ;*                        (10 local values)                                    *
    5856              ;*   Min System Stack   : 1 word                                               *
    5857              ;*******************************************************************************
    5858 0018cc       _MSC_ExecuteRead:
    5859                      .dwcfi  cfa_offset, 1
    5860                      .dwcfi  save_reg_to_mem, 91, -1
    5861 0018cc 4EF5          AADD #-11, SP
    5862                      .dwcfi  cfa_offset, 12
    5863              $C$DW$419       .dwtag  DW_TAG_variable, DW_AT_name("pMscHandle")
    5864                      .dwattr $C$DW$419, DW_AT_TI_symbol_name("_pMscHandle")
    5865                      .dwattr $C$DW$419, DW_AT_type(*$C$DW$T$107)
    5866                      .dwattr $C$DW$419, DW_AT_location[DW_OP_bregx 0x24 0]
    5867              $C$DW$420       .dwtag  DW_TAG_variable, DW_AT_name("lunNum")
    5868                      .dwattr $C$DW$420, DW_AT_TI_symbol_name("_lunNum")
    5869                      .dwattr $C$DW$420, DW_AT_type(*$C$DW$T$25)
    5870                      .dwattr $C$DW$420, DW_AT_location[DW_OP_bregx 0x24 2]
    5871              $C$DW$421       .dwtag  DW_TAG_variable, DW_AT_name("first")
    5872                      .dwattr $C$DW$421, DW_AT_TI_symbol_name("_first")
    5873                      .dwattr $C$DW$421, DW_AT_type(*$C$DW$T$25)
    5874                      .dwattr $C$DW$421, DW_AT_location[DW_OP_bregx 0x24 3]
    5875              $C$DW$422       .dwtag  DW_TAG_variable, DW_AT_name("mediaLba")
    5876                      .dwattr $C$DW$422, DW_AT_TI_symbol_name("_mediaLba")
    5877                      .dwattr $C$DW$422, DW_AT_type(*$C$DW$T$53)
TMS320C55x Assembler PC v4.4.1 Tue Oct 02 02:33:20 2018

Tools Copyright (c) 1996-2012 Texas Instruments Incorporated
csl_msc.asm                                                          PAGE  140

    5878                      .dwattr $C$DW$422, DW_AT_location[DW_OP_bregx 0x24 4]
    5879              $C$DW$423       .dwtag  DW_TAG_variable, DW_AT_name("mediaLbaCount")
    5880                      .dwattr $C$DW$423, DW_AT_TI_symbol_name("_mediaLbaCount")
    5881                      .dwattr $C$DW$423, DW_AT_type(*$C$DW$T$25)
    5882                      .dwattr $C$DW$423, DW_AT_location[DW_OP_bregx 0x24 6]
    5883              $C$DW$424       .dwtag  DW_TAG_variable, DW_AT_name("tempData")
    5884                      .dwattr $C$DW$424, DW_AT_TI_symbol_name("_tempData")
    5885                      .dwattr $C$DW$424, DW_AT_type(*$C$DW$T$25)
    5886                      .dwattr $C$DW$424, DW_AT_location[DW_OP_bregx 0x24 7]
    5887              $C$DW$425       .dwtag  DW_TAG_variable, DW_AT_name("mediaStat")
    5888                      .dwattr $C$DW$425, DW_AT_TI_symbol_name("_mediaStat")
    5889                      .dwattr $C$DW$425, DW_AT_type(*$C$DW$T$52)
    5890                      .dwattr $C$DW$425, DW_AT_location[DW_OP_bregx 0x24 8]
    5891              $C$DW$426       .dwtag  DW_TAG_variable, DW_AT_name("status")
    5892                      .dwattr $C$DW$426, DW_AT_TI_symbol_name("_status")
    5893                      .dwattr $C$DW$426, DW_AT_type(*$C$DW$T$89)
    5894                      .dwattr $C$DW$426, DW_AT_location[DW_OP_bregx 0x24 9]
    5895 0018ce C506          MOV T1, *SP(#3) ; |1739| 
    5896 0018d0 C404          MOV T0, *SP(#2) ; |1739| 
    5897 0018d2 EB00          MOV XAR0, dbl(*SP(#0))
         0018d4 85   
    5898                      .dwpsn  file "../c5535_bsl_revc/ezdsp5535_v1/c55xx_csl/src/csl_msc.c",line 1746,column 2,is_stmt
    5899 0018d5 E612          MOV #0, *SP(#9) ; |1746| 
         0018d7 00   
    5900                      .dwpsn  file "../c5535_bsl_revc/ezdsp5535_v1/c55xx_csl/src/csl_msc.c",line 1749,column 2,is_stmt
    5901 0018d8 ED00          MOV dbl(*SP(#0)), XAR3
         0018da BF   
    5902 0018db A96D          MOV *AR3(#303), AR1 ; |1749| 
         0018dd 012F 
    5903              
    5904 0018e3 1980          AND #0x0080, AR1, AR1 ; |1749| 
         0018e5 99   
    5905 0018df 7600  ||      MOV #128, AR2 ; |1749| 
         0018e1 80A8 
    5906              
    5907 0018e6 1290          CMPU AR1 == AR2, TC1 ; |1749| 
         0018e8 A4   
    5908 0018e9 0464          BCC $C$L132,TC1 ; |1749| 
         0018eb 16   
    5909                                                      ; branchcc occurs ; |1749| 
    5910 0018ec ED6D          MOV dbl(*AR3(#16)), AC0 ; |1749| 
         0018ee 0800 
         0018f0 10   
    5911 0018f1 6780          BCC $C$L132,AC0 == #0 ; |1749| 
    5912                                                      ; branchcc occurs ; |1749| 
    5913                      .dwpsn  file "../c5535_bsl_revc/ezdsp5535_v1/c55xx_csl/src/csl_msc.c",line 1753,column 3,is_stmt
    5914 0018f3 ED00          MOV dbl(*SP(#0)), XAR0
         0018f5 8F   
    5915 0018f6 7600          MOV #128, T0 ; |1753| 
         0018f8 8048 
    5916              $C$DW$427       .dwtag  DW_TAG_TI_branch
    5917                      .dwattr $C$DW$427, DW_AT_low_pc(0x00)
    5918                      .dwattr $C$DW$427, DW_AT_name("_MSC_handleDataDirMisMatch")
    5919                      .dwattr $C$DW$427, DW_AT_TI_call
    5920 0018fa 0814          CALL #_MSC_handleDataDirMisMatch ; |1753| 
TMS320C55x Assembler PC v4.4.1 Tue Oct 02 02:33:20 2018

Tools Copyright (c) 1996-2012 Texas Instruments Incorporated
csl_msc.asm                                                          PAGE  141

         0018fc 23   
    5921                                                      ; call occurs [#_MSC_handleDataDirMisMatch] ; |1753| 
    5922 0018fd C412          MOV T0, *SP(#9) ; |1753| 
    5923                      .dwpsn  file "../c5535_bsl_revc/ezdsp5535_v1/c55xx_csl/src/csl_msc.c",line 1755,column 3,is_stmt
    5924 0018ff 0604          B $C$L148 ; |1755| 
         001901 0E   
    5925                                                      ; branch occurs ; |1755| 
    5926 001902       $C$L132:    
    5927                      .dwpsn  file "../c5535_bsl_revc/ezdsp5535_v1/c55xx_csl/src/csl_msc.c",line 1758,column 2,is_stmt
    5928 001902 A906          MOV *SP(#3), AR1 ; |1758| 
    5929 001904 6D09          BCC $C$L134,AR1 == #0 ; |1758| 
         001906 010E 
    5930                                                      ; branchcc occurs ; |1758| 
    5931                      .dwpsn  file "../c5535_bsl_revc/ezdsp5535_v1/c55xx_csl/src/csl_msc.c",line 1764,column 3,is_stmt
    5932 001908 ED6D          MOV dbl(*AR3(#16)), AC0 ; |1764| 
         00190a 0800 
         00190c 10   
    5933 00190d 6D00          BCC $C$L133,AC0 == #0 ; |1764| 
         00190f 00F3 
    5934                                                      ; branchcc occurs ; |1764| 
    5935                      .dwpsn  file "../c5535_bsl_revc/ezdsp5535_v1/c55xx_csl/src/csl_msc.c",line 1766,column 4,is_stmt
    5936 001911 DF6D          MOV uns(high_byte(*AR3(#305))), AR1 ; |1766| 
         001913 9101 
         001915 31   
    5937 001916 7DFF          AND #0xffff, AR1, AC0 ; |1766| 
         001918 FF09 
    5938 00191a 1005          SFTS AC0, #24, AC0 ; |1766| 
         00191c 18   
    5939 00191d EB08          MOV AC0, dbl(*SP(#4)) ; |1766| 
         00191f 08   
    5940                      .dwpsn  file "../c5535_bsl_revc/ezdsp5535_v1/c55xx_csl/src/csl_msc.c",line 1768,column 4,is_stmt
    5941 001920 ED00          MOV dbl(*SP(#0)), XAR3
         001922 BF   
    5942 001923 DF6D          MOV uns(low_byte(*AR3(#306))), AR1 ; |1768| 
         001925 9301 
         001927 32   
    5943              
    5944 00192b 5390          MOV AR1, HI(AC0) ; |1768| 
    5945 001928 ED08  ||      MOV dbl(*SP(#4)), AC1 ; |1768| 
         00192a 18   
    5946              
    5947 00192d 2A10          OR AC1, AC0 ; |1768| 
    5948 00192f EB08          MOV AC0, dbl(*SP(#4)) ; |1768| 
         001931 08   
    5949                      .dwpsn  file "../c5535_bsl_revc/ezdsp5535_v1/c55xx_csl/src/csl_msc.c",line 1770,column 4,is_stmt
    5950 001932 ED00          MOV dbl(*SP(#0)), XAR3
         001934 BF   
    5951 001935 ED08          MOV dbl(*SP(#4)), AC0 ; |1770| 
         001937 08   
    5952 001938 DF6D          MOV uns(high_byte(*AR3(#306))), AR1 ; |1770| 
         00193a 9101 
         00193c 32   
    5953 00193d 7DFF          AND #0xffff, AR1, AC1 ; |1770| 
         00193f FF19 
    5954 001941 1011          OR AC1 << #8, AC0 ; |1770| 
TMS320C55x Assembler PC v4.4.1 Tue Oct 02 02:33:20 2018

Tools Copyright (c) 1996-2012 Texas Instruments Incorporated
csl_msc.asm                                                          PAGE  142

         001943 08   
    5955 001944 EB08          MOV AC0, dbl(*SP(#4)) ; |1770| 
         001946 08   
    5956                      .dwpsn  file "../c5535_bsl_revc/ezdsp5535_v1/c55xx_csl/src/csl_msc.c",line 1772,column 4,is_stmt
    5957 001947 ED00          MOV dbl(*SP(#0)), XAR3
         001949 BF   
    5958 00194a A96D          MOV *AR3(#307), AR1 ; |1772| 
         00194c 0133 
    5959              
    5960 001951 19FF          AND #0x00ff, AR1, AC0 ; |1772| 
         001953 09   
    5961 00194e ED08  ||      MOV dbl(*SP(#4)), AC1 ; |1772| 
         001950 18   
    5962              
    5963 001954 2A10          OR AC1, AC0 ; |1772| 
    5964 001956 EB08          MOV AC0, dbl(*SP(#4)) ; |1772| 
         001958 08   
    5965                      .dwpsn  file "../c5535_bsl_revc/ezdsp5535_v1/c55xx_csl/src/csl_msc.c",line 1774,column 4,is_stmt
    5966 001959 ED00          MOV dbl(*SP(#0)), XAR3
         00195b BF   
    5967 00195c DF6D          MOV uns(high_byte(*AR3(#308))), AC0 ; |1774| 
         00195e 0101 
         001960 34   
    5968 001961 A16D          MOV *AR3(#308), AC1 ; |1774| 
         001963 0134 
    5969 001965 1011          OR AC1 << #8, AC0 ; |1774| 
         001967 08   
    5970 001968 C00C          MOV AC0, *SP(#6) ; |1774| 
    5971                      .dwpsn  file "../c5535_bsl_revc/ezdsp5535_v1/c55xx_csl/src/csl_msc.c",line 1777,column 4,is_stmt
    5972 00196a ED00          MOV dbl(*SP(#0)), XAR3
         00196c BF   
    5973 00196d DF04          MOV uns(*SP(#2)), AC1 ; |1777| 
         00196f 15   
    5974 001970 1015          SFTS AC1, #6, AC0 ; |1777| 
         001972 06   
    5975 001973 1014          SUB AC1 << #1, AC0 ; |1777| 
         001975 01   
    5976 001976 900A          MOV AC0, XAR2
    5977              
    5978                      AADD XAR2, XAR3 ; |1777| 
    5979 001978 8E08  ||      MOV dbl(*SP(#4)), AC0 ; |1777| 
         00197a BD18 
         00197c 08A1 
    5980              
    5981 00197e EB6D          MOV AC0, dbl(*AR3(#70)) ; |1777| 
         001980 0800 
         001982 46   
    5982                      .dwpsn  file "../c5535_bsl_revc/ezdsp5535_v1/c55xx_csl/src/csl_msc.c",line 1778,column 4,is_stmt
    5983 001983 ED00          MOV dbl(*SP(#0)), XAR3
         001985 BF   
    5984 001986 DF04          MOV uns(*SP(#2)), AC1 ; |1778| 
         001988 15   
    5985 001989 1015          SFTS AC1, #6, AC0 ; |1778| 
         00198b 06   
    5986 00198c 1014          SUB AC1 << #1, AC0 ; |1778| 
TMS320C55x Assembler PC v4.4.1 Tue Oct 02 02:33:20 2018

Tools Copyright (c) 1996-2012 Texas Instruments Incorporated
csl_msc.asm                                                          PAGE  143

         00198e 01   
    5987 00198f 900A          MOV AC0, XAR2
    5988              
    5989                      AADD XAR2, XAR3 ; |1778| 
    5990 001991 8A0C  ||      MOV *SP(#6), AR1 ; |1778| 
         001993 B918 
         001995 A1   
    5991              
    5992 001996 C96D          MOV AR1, *AR3(#77) ; |1778| 
         001998 004D 
    5993                      .dwpsn  file "../c5535_bsl_revc/ezdsp5535_v1/c55xx_csl/src/csl_msc.c",line 1779,column 4,is_stmt
    5994 00199a ED00          MOV dbl(*SP(#0)), XAR0
         00199c 8F   
    5995 00199d 3C04          MOV #0, T0
    5996 00199f B40F          AMAR *+AR0(#266) ; |1779| 
         0019a1 010A 
    5997              $C$DW$428       .dwtag  DW_TAG_TI_branch
    5998                      .dwattr $C$DW$428, DW_AT_low_pc(0x00)
    5999                      .dwattr $C$DW$428, DW_AT_name("_MSC_SetSenseKeys")
    6000                      .dwattr $C$DW$428, DW_AT_TI_call
    6001              
    6002 0019a3 08E6          CALL #_MSC_SetSenseKeys ; |1779| 
         0019a5 58   
    6003 0019a6 3D05  ||      MOV #0, T1
    6004              
    6005                                                      ; call occurs [#_MSC_SetSenseKeys] ; |1779| 
    6006                      .dwpsn  file "../c5535_bsl_revc/ezdsp5535_v1/c55xx_csl/src/csl_msc.c",line 1783,column 4,is_stmt
    6007 0019a8 A90C          MOV *SP(#6), AR1 ; |1783| 
    6008 0019aa 0419          BCC $C$L134,AR1 != #0 ; |1783| 
         0019ac 69   
    6009                                                      ; branchcc occurs ; |1783| 
    6010                      .dwpsn  file "../c5535_bsl_revc/ezdsp5535_v1/c55xx_csl/src/csl_msc.c",line 1785,column 5,is_stmt
    6011 0019ad ED00          MOV dbl(*SP(#0)), XAR3
         0019af BF   
    6012 0019b0 ED6D          MOV dbl(*AR3(#16)), AC0 ; |1785| 
         0019b2 0800 
         0019b4 10   
    6013 0019b5 7DFF          AND #0xffff, AC0, AC0 ; |1785| 
         0019b7 FF00 
    6014 0019b9 C06D          MOV AC0, *AR3(#287) ; |1785| 
         0019bb 011F 
    6015                      .dwpsn  file "../c5535_bsl_revc/ezdsp5535_v1/c55xx_csl/src/csl_msc.c",line 1787,column 5,is_stmt
    6016 0019bd ED00          MOV dbl(*SP(#0)), XAR3
         0019bf BF   
    6017 0019c0 ED6D          MOV dbl(*AR3(#16)), AC0 ; |1787| 
         0019c2 0800 
         0019c4 10   
    6018 0019c5 BC6D          MOV HI(AC0), *AR3(#288) ; |1787| 
         0019c7 0120 
    6019                      .dwpsn  file "../c5535_bsl_revc/ezdsp5535_v1/c55xx_csl/src/csl_msc.c",line 1790,column 5,is_stmt
    6020 0019c9 ED00          MOV dbl(*SP(#0)), XAR3
         0019cb BF   
    6021 0019cc E66D          MOV #0, *AR3(#289) ; |1790| 
         0019ce 0001 
         0019d0 21   
TMS320C55x Assembler PC v4.4.1 Tue Oct 02 02:33:20 2018

Tools Copyright (c) 1996-2012 Texas Instruments Incorporated
csl_msc.asm                                                          PAGE  144

    6022                      .dwpsn  file "../c5535_bsl_revc/ezdsp5535_v1/c55xx_csl/src/csl_msc.c",line 1793,column 5,is_stmt
    6023 0019d1 ED00          MOV dbl(*SP(#0)), XAR3
         0019d3 BF   
    6024 0019d4 E66D          MOV #2, *AR3(#355) ; |1793| 
         0019d6 0201 
         0019d8 63   
    6025                      .dwpsn  file "../c5535_bsl_revc/ezdsp5535_v1/c55xx_csl/src/csl_msc.c",line 1794,column 5,is_stmt
    6026 0019d9 ED00          MOV dbl(*SP(#0)), XAR0
         0019db 8F   
    6027 0019dc B40F          AMAR *+AR0(#314) ; |1794| 
         0019de 013A 
    6028              $C$DW$429       .dwtag  DW_TAG_TI_branch
    6029                      .dwattr $C$DW$429, DW_AT_low_pc(0x00)
    6030                      .dwattr $C$DW$429, DW_AT_name("_USB_stallEndpt")
    6031                      .dwattr $C$DW$429, DW_AT_TI_call
    6032 0019e0 6C00          CALL #_USB_stallEndpt ; |1794| 
         0019e2 0000!
    6033                                                      ; call occurs [#_USB_stallEndpt] ; |1794| 
    6034 0019e4 C412          MOV T0, *SP(#9) ; |1794| 
    6035                      .dwpsn  file "../c5535_bsl_revc/ezdsp5535_v1/c55xx_csl/src/csl_msc.c",line 1797,column 5,is_stmt
    6036 0019e6 ED00          MOV dbl(*SP(#0)), XAR0
         0019e8 8F   
    6037 0019e9 ED00          MOV dbl(*SP(#0)), XAR3
         0019eb BF   
    6038 0019ec 7600          MOV #32, T1 ; |1797| 
         0019ee 2058 
    6039 0019f0 B40F          AMAR *+AR0(#314) ; |1797| 
         0019f2 013A 
    6040 0019f4 ED6D          MOV dbl(*AR3(#14)), XAR1
         0019f6 9F00 
         0019f8 0E   
    6041              $C$DW$430       .dwtag  DW_TAG_TI_branch
    6042                      .dwattr $C$DW$430, DW_AT_low_pc(0x00)
    6043                      .dwattr $C$DW$430, DW_AT_name("_USB_postTransaction")
    6044                      .dwattr $C$DW$430, DW_AT_TI_call
    6045              
    6046 0019f9 6C00          CALL #_USB_postTransaction ; |1797| 
         0019fb 0000!
    6047 0019fd 3D04  ||      MOV #0, T0
    6048              
    6049                                                      ; call occurs [#_USB_postTransaction] ; |1797| 
    6050 0019ff C412          MOV T0, *SP(#9) ; |1797| 
    6051                      .dwpsn  file "../c5535_bsl_revc/ezdsp5535_v1/c55xx_csl/src/csl_msc.c",line 1802,column 5,is_stmt
    6052 001a01 0603          B $C$L148 ; |1802| 
         001a03 0C   
    6053                                                      ; branch occurs ; |1802| 
    6054 001a04       $C$L133:    
    6055                      .dwpsn  file "../c5535_bsl_revc/ezdsp5535_v1/c55xx_csl/src/csl_msc.c",line 1807,column 4,is_stmt
    6056 001a04 ED00          MOV dbl(*SP(#0)), XAR1
         001a06 9F   
    6057 001a07 ED00          MOV dbl(*SP(#0)), XAR0
         001a09 8F   
    6058 001a0a B42F          AMAR *+AR1(#314) ; |1807| 
         001a0c 013A 
    6059              $C$DW$431       .dwtag  DW_TAG_TI_branch
TMS320C55x Assembler PC v4.4.1 Tue Oct 02 02:33:20 2018

Tools Copyright (c) 1996-2012 Texas Instruments Incorporated
csl_msc.asm                                                          PAGE  145

    6060                      .dwattr $C$DW$431, DW_AT_low_pc(0x00)
    6061                      .dwattr $C$DW$431, DW_AT_name("_MSC_sendCswWithPhaseError")
    6062                      .dwattr $C$DW$431, DW_AT_TI_call
    6063 001a0e 0812          CALL #_MSC_sendCswWithPhaseError ; |1807| 
         001a10 A7   
    6064                                                      ; call occurs [#_MSC_sendCswWithPhaseError] ; |1807| 
    6065 001a11 C412          MOV T0, *SP(#9) ; |1807| 
    6066                      .dwpsn  file "../c5535_bsl_revc/ezdsp5535_v1/c55xx_csl/src/csl_msc.c",line 1810,column 4,is_stmt
    6067 001a13 0602          B $C$L148 ; |1810| 
         001a15 FA   
    6068                                                      ; branch occurs ; |1810| 
    6069 001a16       $C$L134:    
    6070                      .dwpsn  file "../c5535_bsl_revc/ezdsp5535_v1/c55xx_csl/src/csl_msc.c",line 1814,column 2,is_stmt
    6071 001a16 ED00          MOV dbl(*SP(#0)), XAR0
         001a18 8F   
    6072 001a19 EC12          AMAR *SP(#9), XAR1
         001a1b 9E   
    6073 001a1c B40F          AMAR *+AR0(#314) ; |1814| 
         001a1e 013A 
    6074              $C$DW$432       .dwtag  DW_TAG_TI_branch
    6075                      .dwattr $C$DW$432, DW_AT_low_pc(0x00)
    6076                      .dwattr $C$DW$432, DW_AT_name("_USB_isTransactionDone")
    6077                      .dwattr $C$DW$432, DW_AT_TI_call
    6078 001a20 6C00          CALL #_USB_isTransactionDone ; |1814| 
         001a22 0000!
    6079                                                      ; call occurs [#_USB_isTransactionDone] ; |1814| 
    6080 001a24 6D04          BCC $C$L147,T0 == #0 ; |1814| 
         001a26 02E6 
    6081                                                      ; branchcc occurs ; |1814| 
    6082                      .dwpsn  file "../c5535_bsl_revc/ezdsp5535_v1/c55xx_csl/src/csl_msc.c",line 1818,column 3,is_stmt
    6083 001a28 ED00          MOV dbl(*SP(#0)), XAR3
         001a2a BF   
    6084 001a2b DF04          MOV uns(*SP(#2)), AC1 ; |1818| 
         001a2d 15   
    6085 001a2e 1015          SFTS AC1, #6, AC0 ; |1818| 
         001a30 06   
    6086 001a31 1014          SUB AC1 << #1, AC0 ; |1818| 
         001a33 01   
    6087 001a34 900A          MOV AC0, XAR2
    6088 001a36 14A1          AADD XAR2, XAR3 ; |1818| 
         001a38 B0   
    6089 001a39 A96D          MOV *AR3(#77), AR1 ; |1818| 
         001a3b 004D 
    6090 001a3d 0409          BCC $C$L135,AR1 == #0 ; |1818| 
         001a3f 1D   
    6091                                                      ; branchcc occurs ; |1818| 
    6092 001a40 ED00          MOV dbl(*SP(#0)), XAR3
         001a42 BF   
    6093 001a43 ED6D          MOV dbl(*AR3(#16)), AC0 ; |1818| 
         001a45 0800 
         001a47 10   
    6094 001a48 0410          BCC $C$L135,AC0 != #0 ; |1818| 
         001a4a 12   
    6095                                                      ; branchcc occurs ; |1818| 
    6096                      .dwpsn  file "../c5535_bsl_revc/ezdsp5535_v1/c55xx_csl/src/csl_msc.c",line 1821,column 4,is_stmt
TMS320C55x Assembler PC v4.4.1 Tue Oct 02 02:33:20 2018

Tools Copyright (c) 1996-2012 Texas Instruments Incorporated
csl_msc.asm                                                          PAGE  146

    6097 001a4b ED00          MOV dbl(*SP(#0)), XAR1
         001a4d 9F   
    6098 001a4e ED00          MOV dbl(*SP(#0)), XAR0
         001a50 8F   
    6099 001a51 B42F          AMAR *+AR1(#314) ; |1821| 
         001a53 013A 
    6100              $C$DW$433       .dwtag  DW_TAG_TI_branch
    6101                      .dwattr $C$DW$433, DW_AT_low_pc(0x00)
    6102                      .dwattr $C$DW$433, DW_AT_name("_MSC_sendCswWithPhaseError")
    6103                      .dwattr $C$DW$433, DW_AT_TI_call
    6104 001a55 0812          CALL #_MSC_sendCswWithPhaseError ; |1821| 
         001a57 60   
    6105                                                      ; call occurs [#_MSC_sendCswWithPhaseError] ; |1821| 
    6106 001a58 C412          MOV T0, *SP(#9) ; |1821| 
    6107                      .dwpsn  file "../c5535_bsl_revc/ezdsp5535_v1/c55xx_csl/src/csl_msc.c",line 1823,column 4,is_stmt
    6108 001a5a 0602          B $C$L148 ; |1823| 
         001a5c B3   
    6109                                                      ; branch occurs ; |1823| 
    6110 001a5d       $C$L135:    
    6111                      .dwpsn  file "../c5535_bsl_revc/ezdsp5535_v1/c55xx_csl/src/csl_msc.c",line 1827,column 3,is_stmt
    6112 001a5d E610          MOV #2, *SP(#8) ; |1827| 
         001a5f 02   
    6113                      .dwpsn  file "../c5535_bsl_revc/ezdsp5535_v1/c55xx_csl/src/csl_msc.c",line 1830,column 3,is_stmt
    6114 001a60 ED00          MOV dbl(*SP(#0)), XAR3
         001a62 BF   
    6115 001a63 DF04          MOV uns(*SP(#2)), AC1 ; |1830| 
         001a65 15   
    6116 001a66 1015          SFTS AC1, #6, AC0 ; |1830| 
         001a68 06   
    6117 001a69 1014          SUB AC1 << #1, AC0 ; |1830| 
         001a6b 01   
    6118 001a6c 900A          MOV AC0, XAR2
    6119 001a6e 14A1          AADD XAR2, XAR3 ; |1830| 
         001a70 B0   
    6120 001a71 DC6D          BTST #0, *AR3(#75), TC1 ; |1830| 
         001a73 0000 
         001a75 4B   
    6121 001a76 0464          BCC $C$L136,TC1 ; |1830| 
         001a78 19   
    6122                                                      ; branchcc occurs ; |1830| 
    6123 001a79 ED00          MOV dbl(*SP(#0)), XAR3
         001a7b BF   
    6124 001a7c DF04          MOV uns(*SP(#2)), AC1 ; |1830| 
         001a7e 15   
    6125 001a7f 1015          SFTS AC1, #6, AC0 ; |1830| 
         001a81 06   
    6126 001a82 1014          SUB AC1 << #1, AC0 ; |1830| 
         001a84 01   
    6127 001a85 900A          MOV AC0, XAR2
    6128 001a87 14A1          AADD XAR2, XAR3 ; |1830| 
         001a89 B0   
    6129 001a8a DC6D          BTST #3, *AR3(#75), TC1 ; |1830| 
         001a8c 3000 
         001a8e 4B   
    6130 001a8f 0474          BCC $C$L137,!TC1 ; |1830| 
TMS320C55x Assembler PC v4.4.1 Tue Oct 02 02:33:20 2018

Tools Copyright (c) 1996-2012 Texas Instruments Incorporated
csl_msc.asm                                                          PAGE  147

         001a91 39   
    6131                                                      ; branchcc occurs ; |1830| 
    6132 001a92       $C$L136:    
    6133                      .dwpsn  file "../c5535_bsl_revc/ezdsp5535_v1/c55xx_csl/src/csl_msc.c",line 1833,column 4,is_stmt
    6134 001a92 DF04          MOV uns(*SP(#2)), AC1 ; |1833| 
         001a94 15   
    6135 001a95 ED00          MOV dbl(*SP(#0)), XAR3
         001a97 BF   
    6136 001a98 1015          SFTS AC1, #6, AC0 ; |1833| 
         001a9a 06   
    6137 001a9b 1014          SUB AC1 << #1, AC0 ; |1833| 
         001a9d 01   
    6138 001a9e 900A          MOV AC0, XAR2
    6139 001aa0 DF04          MOV uns(*SP(#2)), AC3 ; |1833| 
         001aa2 35   
    6140 001aa3 ED6D          MOV dbl(*AR3(#14)), XAR0
         001aa5 8F00 
         001aa7 0E   
    6141              
    6142 001aab 1175          SFTS AC3, #6, AC1 ; |1833| 
         001aad 06   
    6143 001aa8 ED61  ||      MOV dbl(*AR3), AC2 ; |1833| 
         001aaa 28   
    6144              
    6145 001aae 14A1          AADD XAR2, XAR3 ; |1833| 
         001ab0 B0   
    6146 001ab1 1174  ||      SUB AC3 << #1, AC1 ; |1833| 
         001ab3 01   
    6147              
    6148 001ab4 901A          MOV AC1, XAR2
    6149 001ab6 ED6D          MOV dbl(*AR3(#70)), AC0 ; |1833| 
         001ab8 0800 
         001aba 46   
    6150 001abb ED00          MOV dbl(*SP(#0)), XAR3
         001abd BF   
    6151              
    6152                      AADD XAR2, XAR3 ; |1833| 
    6153 001abe 8A04  ||      MOV *SP(#2), T0 ; |1833| 
         001ac0 B418 
         001ac2 A1   
    6154              
    6155 001ac3 A56D          MOV *AR3(#77), T1 ; |1833| 
         001ac5 004D 
    6156              $C$DW$434       .dwtag  DW_TAG_TI_branch
    6157                      .dwattr $C$DW$434, DW_AT_low_pc(0x00)
    6158                      .dwattr $C$DW$434, DW_AT_TI_call
    6159                      .dwattr $C$DW$434, DW_AT_TI_indirect
    6160 001ac7 9202          CALL AC2  ; |1833| 
    6161                                                      ; call occurs [AC0] ; |1833| 
    6162 001ac9 C410          MOV T0, *SP(#8) ; |1833| 
    6163 001acb       $C$L137:    
    6164                      .dwpsn  file "../c5535_bsl_revc/ezdsp5535_v1/c55xx_csl/src/csl_msc.c",line 1839,column 4,is_stmt
    6165 001acb F010          CMP *SP(#8) == #1, TC1 ; |1839| 
         001acd 0001 
    6166 001acf 6D74          BCC $C$L143,!TC1 ; |1839| 
TMS320C55x Assembler PC v4.4.1 Tue Oct 02 02:33:20 2018

Tools Copyright (c) 1996-2012 Texas Instruments Incorporated
csl_msc.asm                                                          PAGE  148

         001ad1 0162 
    6167                                                      ; branchcc occurs ; |1839| 
    6168                      .dwpsn  file "../c5535_bsl_revc/ezdsp5535_v1/c55xx_csl/src/csl_msc.c",line 1841,column 4,is_stmt
    6169 001ad3 ED00          MOV dbl(*SP(#0)), XAR3
         001ad5 BF   
    6170 001ad6 DF04          MOV uns(*SP(#2)), AC1 ; |1841| 
         001ad8 15   
    6171 001ad9 1015          SFTS AC1, #6, AC0 ; |1841| 
         001adb 06   
    6172 001adc 1014          SUB AC1 << #1, AC0 ; |1841| 
         001ade 01   
    6173 001adf 900A          MOV AC0, XAR2
    6174 001ae1 14A1          AADD XAR2, XAR3 ; |1841| 
         001ae3 B0   
    6175 001ae4 ED6D          MOV dbl(*AR3(#72)), AC1 ; |1841| 
         001ae6 1800 
         001ae8 48   
    6176 001ae9 ED00          MOV dbl(*SP(#0)), XAR3
         001aeb BF   
    6177 001aec ED6D          MOV dbl(*AR3(#16)), AC0 ; |1841| 
         001aee 0800 
         001af0 10   
    6178 001af1 1218          CMPU AC1 >= AC0, TC1 ; |1841| 
         001af3 04   
    6179 001af4 0464          BCC $C$L138,TC1 ; |1841| 
         001af6 16   
    6180                                                      ; branchcc occurs ; |1841| 
    6181                      .dwpsn  file "../c5535_bsl_revc/ezdsp5535_v1/c55xx_csl/src/csl_msc.c",line 1843,column 5,is_stmt
    6182 001af7 DF04          MOV uns(*SP(#2)), AC1 ; |1843| 
         001af9 15   
    6183 001afa 1015          SFTS AC1, #6, AC0 ; |1843| 
         001afc 06   
    6184 001afd 1014          SUB AC1 << #1, AC0 ; |1843| 
         001aff 01   
    6185 001b00 900A          MOV AC0, XAR2
    6186 001b02 14A1          AADD XAR2, XAR3 ; |1843| 
         001b04 B0   
    6187 001b05 A96D          MOV *AR3(#73), AR1 ; |1843| 
         001b07 0049 
    6188 001b09 C90E          MOV AR1, *SP(#7) ; |1843| 
    6189                      .dwpsn  file "../c5535_bsl_revc/ezdsp5535_v1/c55xx_csl/src/csl_msc.c",line 1844,column 4,is_stmt
    6190 001b0b 4A0B          B $C$L139 ; |1844| 
    6191                                                      ; branch occurs ; |1844| 
    6192 001b0d       $C$L138:    
    6193                      .dwpsn  file "../c5535_bsl_revc/ezdsp5535_v1/c55xx_csl/src/csl_msc.c",line 1847,column 5,is_stmt
    6194 001b0d ED6D          MOV dbl(*AR3(#16)), AC0 ; |1847| 
         001b0f 0800 
         001b11 10   
    6195 001b12 7DFF          AND #0xffff, AC0, AC0 ; |1847| 
         001b14 FF00 
    6196 001b16 C00E          MOV AC0, *SP(#7) ; |1847| 
    6197 001b18       $C$L139:    
    6198                      .dwpsn  file "../c5535_bsl_revc/ezdsp5535_v1/c55xx_csl/src/csl_msc.c",line 1851,column 4,is_stmt
    6199 001b18 ED00          MOV dbl(*SP(#0)), XAR3
         001b1a BF   
TMS320C55x Assembler PC v4.4.1 Tue Oct 02 02:33:20 2018

Tools Copyright (c) 1996-2012 Texas Instruments Incorporated
csl_msc.asm                                                          PAGE  149

    6200 001b1b DF0E          MOV uns(*SP(#7)), AC0 ; |1851| 
         001b1d 05   
    6201 001b1e ED6D          SUB AC0, dbl(*AR3(#16)), AC0 ; |1851| 
         001b20 0400 
         001b22 10   
    6202 001b23 EB6D          MOV AC0, dbl(*AR3(#16)) ; |1851| 
         001b25 0800 
         001b27 10   
    6203                      .dwpsn  file "../c5535_bsl_revc/ezdsp5535_v1/c55xx_csl/src/csl_msc.c",line 1852,column 4,is_stmt
    6204 001b28 ED00          MOV dbl(*SP(#0)), XAR3
         001b2a BF   
    6205 001b2b ED6D          MOV dbl(*AR3(#16)), AC0 ; |1852| 
         001b2d 0800 
         001b2f 10   
    6206 001b30 7DFF          AND #0xffff, AC0, AC0 ; |1852| 
         001b32 FF00 
    6207 001b34 C06D          MOV AC0, *AR3(#287) ; |1852| 
         001b36 011F 
    6208                      .dwpsn  file "../c5535_bsl_revc/ezdsp5535_v1/c55xx_csl/src/csl_msc.c",line 1854,column 4,is_stmt
    6209 001b38 ED00          MOV dbl(*SP(#0)), XAR3
         001b3a BF   
    6210 001b3b ED6D          MOV dbl(*AR3(#16)), AC0 ; |1854| 
         001b3d 0800 
         001b3f 10   
    6211 001b40 BC6D          MOV HI(AC0), *AR3(#288) ; |1854| 
         001b42 0120 
    6212                      .dwpsn  file "../c5535_bsl_revc/ezdsp5535_v1/c55xx_csl/src/csl_msc.c",line 1858,column 4,is_stmt
    6213 001b44 ED00          MOV dbl(*SP(#0)), XAR3
         001b46 BF   
    6214 001b47 E66D          MOV #5, *AR3(#355) ; |1858| 
         001b49 0501 
         001b4b 63   
    6215                      .dwpsn  file "../c5535_bsl_revc/ezdsp5535_v1/c55xx_csl/src/csl_msc.c",line 1859,column 4,is_stmt
    6216 001b4c ED00          MOV dbl(*SP(#0)), XAR3
         001b4e BF   
    6217 001b4f DF04          MOV uns(*SP(#2)), AC1 ; |1859| 
         001b51 15   
    6218 001b52 1015          SFTS AC1, #6, AC0 ; |1859| 
         001b54 06   
    6219 001b55 1014          SUB AC1 << #1, AC0 ; |1859| 
         001b57 01   
    6220 001b58 900A          MOV AC0, XAR2
    6221 001b5a 14A1          AADD XAR2, XAR3 ; |1859| 
         001b5c B0   
    6222 001b5d 1412          AADD #18, AR3 ; |1859| 
         001b5f B4   
    6223 001b60 ED6D          MOV dbl(*AR3(#52)), AC0 ; |1859| 
         001b62 0800 
         001b64 34   
    6224 001b65 4010          ADD #1, AC0 ; |1859| 
    6225 001b67 EB6D          MOV AC0, dbl(*AR3(#52)) ; |1859| 
         001b69 0800 
         001b6b 34   
    6226                      .dwpsn  file "../c5535_bsl_revc/ezdsp5535_v1/c55xx_csl/src/csl_msc.c",line 1861,column 4,is_stmt
    6227 001b6c ED00          MOV dbl(*SP(#0)), XAR3
TMS320C55x Assembler PC v4.4.1 Tue Oct 02 02:33:20 2018

Tools Copyright (c) 1996-2012 Texas Instruments Incorporated
csl_msc.asm                                                          PAGE  150

         001b6e BF   
    6228 001b6f DF04          MOV uns(*SP(#2)), AC1 ; |1861| 
         001b71 15   
    6229 001b72 1015          SFTS AC1, #6, AC0 ; |1861| 
         001b74 06   
    6230 001b75 1014          SUB AC1 << #1, AC0 ; |1861| 
         001b77 01   
    6231 001b78 900A          MOV AC0, XAR2
    6232 001b7a 14A1          AADD XAR2, XAR3 ; |1861| 
         001b7c B0   
    6233 001b7d A96D          MOV *AR3(#77), AR1 ; |1861| 
         001b7f 004D 
    6234 001b81 0409          BCC $C$L140,AR1 == #0 ; |1861| 
         001b83 1A   
    6235                                                      ; branchcc occurs ; |1861| 
    6236                      .dwpsn  file "../c5535_bsl_revc/ezdsp5535_v1/c55xx_csl/src/csl_msc.c",line 1863,column 5,is_stmt
    6237 001b84 ED00          MOV dbl(*SP(#0)), XAR3
         001b86 BF   
    6238 001b87 DF04          MOV uns(*SP(#2)), AC1 ; |1863| 
         001b89 15   
    6239 001b8a 1015          SFTS AC1, #6, AC0 ; |1863| 
         001b8c 06   
    6240 001b8d 1014          SUB AC1 << #1, AC0 ; |1863| 
         001b8f 01   
    6241 001b90 900A          MOV AC0, XAR2
    6242 001b92 14A1          AADD XAR2, XAR3 ; |1863| 
         001b94 B0   
    6243 001b95 1412          AADD #18, AR3 ; |1863| 
         001b97 B4   
    6244 001b98 F76D          SUB #1, *AR3(#59) ; |1863| 
         001b9a FFFF 
         001b9c 003B 
    6245 001b9e       $C$L140:    
    6246                      .dwpsn  file "../c5535_bsl_revc/ezdsp5535_v1/c55xx_csl/src/csl_msc.c",line 1866,column 4,is_stmt
    6247 001b9e ED00          MOV dbl(*SP(#0)), XAR3
         001ba0 BF   
    6248 001ba1 DF04          MOV uns(*SP(#2)), AC1 ; |1866| 
         001ba3 15   
    6249 001ba4 1015          SFTS AC1, #6, AC0 ; |1866| 
         001ba6 06   
    6250 001ba7 1014          SUB AC1 << #1, AC0 ; |1866| 
         001ba9 01   
    6251 001baa 900A          MOV AC0, XAR2
    6252 001bac 14A1          AADD XAR2, XAR3 ; |1866| 
         001bae B0   
    6253 001baf A96D          MOV *AR3(#77), AR1 ; |1866| 
         001bb1 004D 
    6254 001bb3 0419          BCC $C$L142,AR1 != #0 ; |1866| 
         001bb5 50   
    6255                                                      ; branchcc occurs ; |1866| 
    6256                      .dwpsn  file "../c5535_bsl_revc/ezdsp5535_v1/c55xx_csl/src/csl_msc.c",line 1870,column 5,is_stmt
    6257 001bb6 ED00          MOV dbl(*SP(#0)), XAR3
         001bb8 BF   
    6258 001bb9 ED6D          MOV dbl(*AR3(#16)), AC0 ; |1870| 
         001bbb 0800 
TMS320C55x Assembler PC v4.4.1 Tue Oct 02 02:33:20 2018

Tools Copyright (c) 1996-2012 Texas Instruments Incorporated
csl_msc.asm                                                          PAGE  151

         001bbd 10   
    6259 001bbe 0400          BCC $C$L141,AC0 == #0 ; |1870| 
         001bc0 38   
    6260                                                      ; branchcc occurs ; |1870| 
    6261                      .dwpsn  file "../c5535_bsl_revc/ezdsp5535_v1/c55xx_csl/src/csl_msc.c",line 1872,column 6,is_stmt
    6262 001bc1 E66D          MOV #0, *AR3(#289) ; |1872| 
         001bc3 0001 
         001bc5 21   
    6263                      .dwpsn  file "../c5535_bsl_revc/ezdsp5535_v1/c55xx_csl/src/csl_msc.c",line 1875,column 6,is_stmt
    6264 001bc6 ED00          MOV dbl(*SP(#0)), XAR3
         001bc8 BF   
    6265 001bc9 E66D          MOV #2, *AR3(#355) ; |1875| 
         001bcb 0201 
         001bcd 63   
    6266                      .dwpsn  file "../c5535_bsl_revc/ezdsp5535_v1/c55xx_csl/src/csl_msc.c",line 1876,column 6,is_stmt
    6267 001bce ED00          MOV dbl(*SP(#0)), XAR0
         001bd0 8F   
    6268 001bd1 B40F          AMAR *+AR0(#314) ; |1876| 
         001bd3 013A 
    6269              $C$DW$435       .dwtag  DW_TAG_TI_branch
    6270                      .dwattr $C$DW$435, DW_AT_low_pc(0x00)
    6271                      .dwattr $C$DW$435, DW_AT_name("_USB_stallEndpt")
    6272                      .dwattr $C$DW$435, DW_AT_TI_call
    6273 001bd5 6C00          CALL #_USB_stallEndpt ; |1876| 
         001bd7 0000!
    6274                                                      ; call occurs [#_USB_stallEndpt] ; |1876| 
    6275 001bd9 C412          MOV T0, *SP(#9) ; |1876| 
    6276                      .dwpsn  file "../c5535_bsl_revc/ezdsp5535_v1/c55xx_csl/src/csl_msc.c",line 1879,column 6,is_stmt
    6277 001bdb ED00          MOV dbl(*SP(#0)), XAR0
         001bdd 8F   
    6278 001bde ED00          MOV dbl(*SP(#0)), XAR3
         001be0 BF   
    6279 001be1 7600          MOV #32, T1 ; |1879| 
         001be3 2058 
    6280 001be5 B40F          AMAR *+AR0(#314) ; |1879| 
         001be7 013A 
    6281 001be9 ED6D          MOV dbl(*AR3(#14)), XAR1
         001beb 9F00 
         001bed 0E   
    6282              $C$DW$436       .dwtag  DW_TAG_TI_branch
    6283                      .dwattr $C$DW$436, DW_AT_low_pc(0x00)
    6284                      .dwattr $C$DW$436, DW_AT_name("_USB_postTransaction")
    6285                      .dwattr $C$DW$436, DW_AT_TI_call
    6286              
    6287 001bee 6C00          CALL #_USB_postTransaction ; |1879| 
         001bf0 0000!
    6288 001bf2 3D04  ||      MOV #0, T0
    6289              
    6290                                                      ; call occurs [#_USB_postTransaction] ; |1879| 
    6291 001bf4 C412          MOV T0, *SP(#9) ; |1879| 
    6292                      .dwpsn  file "../c5535_bsl_revc/ezdsp5535_v1/c55xx_csl/src/csl_msc.c",line 1883,column 6,is_stmt
    6293 001bf6 0601          B $C$L148 ; |1883| 
         001bf8 17   
    6294                                                      ; branch occurs ; |1883| 
    6295 001bf9       $C$L141:    
TMS320C55x Assembler PC v4.4.1 Tue Oct 02 02:33:20 2018

Tools Copyright (c) 1996-2012 Texas Instruments Incorporated
csl_msc.asm                                                          PAGE  152

    6296                      .dwpsn  file "../c5535_bsl_revc/ezdsp5535_v1/c55xx_csl/src/csl_msc.c",line 1888,column 6,is_stmt
    6297 001bf9 E66D          MOV #0, *AR3(#289) ; |1888| 
         001bfb 0001 
         001bfd 21   
    6298                      .dwpsn  file "../c5535_bsl_revc/ezdsp5535_v1/c55xx_csl/src/csl_msc.c",line 1889,column 6,is_stmt
    6299 001bfe ED00          MOV dbl(*SP(#0)), XAR3
         001c00 BF   
    6300 001c01 E66D          MOV #3, *AR3(#355) ; |1889| 
         001c03 0301 
         001c05 63   
    6301 001c06       $C$L142:    
    6302                      .dwpsn  file "../c5535_bsl_revc/ezdsp5535_v1/c55xx_csl/src/csl_msc.c",line 1894,column 4,is_stmt
    6303 001c06 DF04          MOV uns(*SP(#2)), AC1 ; |1894| 
         001c08 15   
    6304 001c09 ED00          MOV dbl(*SP(#0)), XAR3
         001c0b BF   
    6305 001c0c 1015          SFTS AC1, #6, AC0 ; |1894| 
         001c0e 06   
    6306 001c0f 1014          SUB AC1 << #1, AC0 ; |1894| 
         001c11 01   
    6307 001c12 900A          MOV AC0, XAR2
    6308 001c14 ED00          MOV dbl(*SP(#0)), XAR0
         001c16 8F   
    6309 001c17 14A1          AADD XAR2, XAR3 ; |1894| 
         001c19 B0   
    6310 001c1a A46D          MOV *AR3(#73), T0 ; |1894| 
         001c1c 0049 
    6311 001c1e ED00          MOV dbl(*SP(#0)), XAR3
         001c20 BF   
    6312 001c21 B40F          AMAR *+AR0(#314) ; |1894| 
         001c23 013A 
    6313 001c25 ED6D          MOV dbl(*AR3(#14)), XAR1
         001c27 9F00 
         001c29 0E   
    6314              $C$DW$437       .dwtag  DW_TAG_TI_branch
    6315                      .dwattr $C$DW$437, DW_AT_low_pc(0x00)
    6316                      .dwattr $C$DW$437, DW_AT_name("_USB_postTransaction")
    6317                      .dwattr $C$DW$437, DW_AT_TI_call
    6318              
    6319 001c2a 6C00          CALL #_USB_postTransaction ; |1894| 
         001c2c 0000!
    6320 001c2e 3D15  ||      MOV #1, T1
    6321              
    6322                                                      ; call occurs [#_USB_postTransaction] ; |1894| 
    6323 001c30 C412          MOV T0, *SP(#9) ; |1894| 
    6324                      .dwpsn  file "../c5535_bsl_revc/ezdsp5535_v1/c55xx_csl/src/csl_msc.c",line 1898,column 3,is_stmt
    6325 001c32 0600          B $C$L147 ; |1898| 
         001c34 D9   
    6326                                                      ; branch occurs ; |1898| 
    6327 001c35       $C$L143:    
    6328                      .dwpsn  file "../c5535_bsl_revc/ezdsp5535_v1/c55xx_csl/src/csl_msc.c",line 1902,column 4,is_stmt
    6329 001c35 ED00          MOV dbl(*SP(#0)), XAR3
         001c37 BF   
    6330 001c38 ED6D          MOV dbl(*AR3(#16)), AC0 ; |1902| 
         001c3a 0800 
TMS320C55x Assembler PC v4.4.1 Tue Oct 02 02:33:20 2018

Tools Copyright (c) 1996-2012 Texas Instruments Incorporated
csl_msc.asm                                                          PAGE  153

         001c3c 10   
    6331 001c3d 7DFF          AND #0xffff, AC0, AC0 ; |1902| 
         001c3f FF00 
    6332 001c41 C06D          MOV AC0, *AR3(#287) ; |1902| 
         001c43 011F 
    6333                      .dwpsn  file "../c5535_bsl_revc/ezdsp5535_v1/c55xx_csl/src/csl_msc.c",line 1904,column 4,is_stmt
    6334 001c45 ED00          MOV dbl(*SP(#0)), XAR3
         001c47 BF   
    6335 001c48 ED6D          MOV dbl(*AR3(#16)), AC0 ; |1904| 
         001c4a 0800 
         001c4c 10   
    6336 001c4d BC6D          MOV HI(AC0), *AR3(#288) ; |1904| 
         001c4f 0120 
    6337                      .dwpsn  file "../c5535_bsl_revc/ezdsp5535_v1/c55xx_csl/src/csl_msc.c",line 1906,column 4,is_stmt
    6338 001c51 ED00          MOV dbl(*SP(#0)), XAR3
         001c53 BF   
    6339 001c54 E66D          MOV #1, *AR3(#289) ; |1906| 
         001c56 0101 
         001c58 21   
    6340                      .dwpsn  file "../c5535_bsl_revc/ezdsp5535_v1/c55xx_csl/src/csl_msc.c",line 1908,column 4,is_stmt
    6341 001c59 ED00          MOV dbl(*SP(#0)), XAR3
         001c5b BF   
    6342 001c5c E66D          MOV #3, *AR3(#355) ; |1908| 
         001c5e 0301 
         001c60 63   
    6343                      .dwpsn  file "../c5535_bsl_revc/ezdsp5535_v1/c55xx_csl/src/csl_msc.c",line 1910,column 4,is_stmt
    6344 001c61 A910          MOV *SP(#8), AR1 ; |1910| 
    6345 001c63 0419          BCC $C$L144,AR1 != #0 ; |1910| 
         001c65 13   
    6346                                                      ; branchcc occurs ; |1910| 
    6347                      .dwpsn  file "../c5535_bsl_revc/ezdsp5535_v1/c55xx_csl/src/csl_msc.c",line 1912,column 5,is_stmt
    6348 001c66 ED00          MOV dbl(*SP(#0)), XAR0
         001c68 8F   
    6349 001c69 7600          MOV #33, T1 ; |1912| 
         001c6b 2158 
    6350 001c6d B40F          AMAR *+AR0(#266) ; |1912| 
         001c6f 010A 
    6351              $C$DW$438       .dwtag  DW_TAG_TI_branch
    6352                      .dwattr $C$DW$438, DW_AT_low_pc(0x00)
    6353                      .dwattr $C$DW$438, DW_AT_name("_MSC_SetSenseKeys")
    6354                      .dwattr $C$DW$438, DW_AT_TI_call
    6355              
    6356 001c71 08E3          CALL #_MSC_SetSenseKeys ; |1912| 
         001c73 8A   
    6357 001c74 3D54  ||      MOV #5, T0
    6358              
    6359                                                      ; call occurs [#_MSC_SetSenseKeys] ; |1912| 
    6360                      .dwpsn  file "../c5535_bsl_revc/ezdsp5535_v1/c55xx_csl/src/csl_msc.c",line 1915,column 4,is_stmt
    6361 001c76 0600          B $C$L146 ; |1915| 
         001c78 7D   
    6362                                                      ; branch occurs ; |1915| 
    6363 001c79       $C$L144:    
    6364                      .dwpsn  file "../c5535_bsl_revc/ezdsp5535_v1/c55xx_csl/src/csl_msc.c",line 1916,column 9,is_stmt
    6365 001c79 F010          CMP *SP(#8) == #2, TC1 ; |1916| 
         001c7b 0002 
TMS320C55x Assembler PC v4.4.1 Tue Oct 02 02:33:20 2018

Tools Copyright (c) 1996-2012 Texas Instruments Incorporated
csl_msc.asm                                                          PAGE  154

    6366 001c7d 0474          BCC $C$L145,!TC1 ; |1916| 
         001c7f 2D   
    6367                                                      ; branchcc occurs ; |1916| 
    6368                      .dwpsn  file "../c5535_bsl_revc/ezdsp5535_v1/c55xx_csl/src/csl_msc.c",line 1918,column 5,is_stmt
    6369 001c80 ED00          MOV dbl(*SP(#0)), XAR0
         001c82 8F   
    6370 001c83 7600          MOV #58, T1 ; |1918| 
         001c85 3A58 
    6371 001c87 B40F          AMAR *+AR0(#266) ; |1918| 
         001c89 010A 
    6372              $C$DW$439       .dwtag  DW_TAG_TI_branch
    6373                      .dwattr $C$DW$439, DW_AT_low_pc(0x00)
    6374                      .dwattr $C$DW$439, DW_AT_name("_MSC_SetSenseKeys")
    6375                      .dwattr $C$DW$439, DW_AT_TI_call
    6376              
    6377 001c8b 08E3          CALL #_MSC_SetSenseKeys ; |1918| 
         001c8d 70   
    6378 001c8e 3D24  ||      MOV #2, T0
    6379              
    6380                                                      ; call occurs [#_MSC_SetSenseKeys] ; |1918| 
    6381                      .dwpsn  file "../c5535_bsl_revc/ezdsp5535_v1/c55xx_csl/src/csl_msc.c",line 1922,column 5,is_stmt
    6382 001c90 ED00          MOV dbl(*SP(#0)), XAR3
         001c92 BF   
    6383 001c93 DF04          MOV uns(*SP(#2)), AC1 ; |1922| 
         001c95 15   
    6384 001c96 1015          SFTS AC1, #6, AC0 ; |1922| 
         001c98 06   
    6385 001c99 1014          SUB AC1 << #1, AC0 ; |1922| 
         001c9b 01   
    6386 001c9c 900A          MOV AC0, XAR2
    6387 001c9e 14A1          AADD XAR2, XAR3 ; |1922| 
         001ca0 B0   
    6388 001ca1 1412          AADD #18, AR3 ; |1922| 
         001ca3 B4   
    6389 001ca4 F46D          AND #0xfff6, *AR3(#57) ; |1922| 
         001ca6 FFF6 
         001ca8 0039 
    6390                      .dwpsn  file "../c5535_bsl_revc/ezdsp5535_v1/c55xx_csl/src/csl_msc.c",line 1923,column 4,is_stmt
    6391 001caa 0600          B $C$L146 ; |1923| 
         001cac 49   
    6392                                                      ; branch occurs ; |1923| 
    6393 001cad       $C$L145:    
    6394                      .dwpsn  file "../c5535_bsl_revc/ezdsp5535_v1/c55xx_csl/src/csl_msc.c",line 1926,column 5,is_stmt
    6395 001cad F010          CMP *SP(#8) == #4, TC1 ; |1926| 
         001caf 0004 
    6396 001cb1 0474          BCC $C$L146,!TC1 ; |1926| 
         001cb3 42   
    6397                                                      ; branchcc occurs ; |1926| 
    6398                      .dwpsn  file "../c5535_bsl_revc/ezdsp5535_v1/c55xx_csl/src/csl_msc.c",line 1928,column 6,is_stmt
    6399 001cb4 ED00          MOV dbl(*SP(#0)), XAR0
         001cb6 8F   
    6400 001cb7 3C24          MOV #2, T0
    6401 001cb9 B40F          AMAR *+AR0(#266) ; |1928| 
         001cbb 010A 
    6402              $C$DW$440       .dwtag  DW_TAG_TI_branch
TMS320C55x Assembler PC v4.4.1 Tue Oct 02 02:33:20 2018

Tools Copyright (c) 1996-2012 Texas Instruments Incorporated
csl_msc.asm                                                          PAGE  155

    6403                      .dwattr $C$DW$440, DW_AT_low_pc(0x00)
    6404                      .dwattr $C$DW$440, DW_AT_name("_MSC_SetSenseKeys")
    6405                      .dwattr $C$DW$440, DW_AT_TI_call
    6406              
    6407 001cbd 08E3          CALL #_MSC_SetSenseKeys ; |1928| 
         001cbf 3E   
    6408 001cc0 3D45  ||      MOV #4, T1
    6409              
    6410                                                      ; call occurs [#_MSC_SetSenseKeys] ; |1928| 
    6411                      .dwpsn  file "../c5535_bsl_revc/ezdsp5535_v1/c55xx_csl/src/csl_msc.c",line 1931,column 6,is_stmt
    6412 001cc2 ED00          MOV dbl(*SP(#0)), XAR3
         001cc4 BF   
    6413 001cc5 DF04          MOV uns(*SP(#2)), AC1 ; |1931| 
         001cc7 15   
    6414 001cc8 1015          SFTS AC1, #6, AC0 ; |1931| 
         001cca 06   
    6415 001ccb 1014          SUB AC1 << #1, AC0 ; |1931| 
         001ccd 01   
    6416 001cce 900A          MOV AC0, XAR2
    6417 001cd0 14A1          AADD XAR2, XAR3 ; |1931| 
         001cd2 B0   
    6418 001cd3 1412          AADD #18, AR3 ; |1931| 
         001cd5 B4   
    6419 001cd6 F46D          AND #0xfffe, *AR3(#57) ; |1931| 
         001cd8 FFFE 
         001cda 0039 
    6420                      .dwpsn  file "../c5535_bsl_revc/ezdsp5535_v1/c55xx_csl/src/csl_msc.c",line 1933,column 6,is_stmt
    6421 001cdc ED00          MOV dbl(*SP(#0)), XAR3
         001cde BF   
    6422 001cdf DF04          MOV uns(*SP(#2)), AC1 ; |1933| 
         001ce1 15   
    6423 001ce2 1015          SFTS AC1, #6, AC0 ; |1933| 
         001ce4 06   
    6424 001ce5 1014          SUB AC1 << #1, AC0 ; |1933| 
         001ce7 01   
    6425 001ce8 900A          MOV AC0, XAR2
    6426 001cea 14A1          AADD XAR2, XAR3 ; |1933| 
         001cec B0   
    6427 001ced 1412          AADD #18, AR3 ; |1933| 
         001cef B4   
    6428 001cf0 F56D          OR #0x0008, *AR3(#57) ; |1933| 
         001cf2 0008 
         001cf4 0039 
    6429 001cf6       $C$L146:    
    6430                      .dwpsn  file "../c5535_bsl_revc/ezdsp5535_v1/c55xx_csl/src/csl_msc.c",line 1938,column 4,is_stmt
    6431 001cf6 ED00          MOV dbl(*SP(#0)), XAR1
         001cf8 9F   
    6432 001cf9 ED00          MOV dbl(*SP(#0)), XAR0
         001cfb 8F   
    6433 001cfc 3C04          MOV #0, T0
    6434 001cfe B42F          AMAR *+AR1(#282) ; |1938| 
         001d00 011A 
    6435 001d02 B40F          AMAR *+AR0(#314) ; |1938| 
         001d04 013A 
    6436              $C$DW$441       .dwtag  DW_TAG_TI_branch
TMS320C55x Assembler PC v4.4.1 Tue Oct 02 02:33:20 2018

Tools Copyright (c) 1996-2012 Texas Instruments Incorporated
csl_msc.asm                                                          PAGE  156

    6437                      .dwattr $C$DW$441, DW_AT_low_pc(0x00)
    6438                      .dwattr $C$DW$441, DW_AT_name("_USB_postTransaction")
    6439                      .dwattr $C$DW$441, DW_AT_TI_call
    6440              
    6441 001d06 6C00          CALL #_USB_postTransaction ; |1938| 
         001d08 0000!
    6442 001d0a 3D15  ||      MOV #1, T1
    6443              
    6444                                                      ; call occurs [#_USB_postTransaction] ; |1938| 
    6445 001d0c C412          MOV T0, *SP(#9) ; |1938| 
    6446 001d0e       $C$L147:    
    6447                      .dwpsn  file "../c5535_bsl_revc/ezdsp5535_v1/c55xx_csl/src/csl_msc.c",line 1944,column 2,is_stmt
    6448 001d0e A412          MOV *SP(#9), T0 ; |1944| 
    6449 001d10       $C$L148:    
    6450                      .dwpsn  file "../c5535_bsl_revc/ezdsp5535_v1/c55xx_csl/src/csl_msc.c",line 1945,column 1,is_stmt
    6451 001d10 4E0B          AADD #11, SP
    6452                      .dwcfi  cfa_offset, 1
    6453              $C$DW$442       .dwtag  DW_TAG_TI_branch
    6454                      .dwattr $C$DW$442, DW_AT_low_pc(0x00)
    6455                      .dwattr $C$DW$442, DW_AT_TI_return
    6456 001d12 4804          RET
    6457                                                      ; return occurs
    6458                      .dwattr $C$DW$415, DW_AT_TI_end_file("../c5535_bsl_revc/ezdsp5535_v1/c55xx_csl/src/csl_msc.c")
    6459                      .dwattr $C$DW$415, DW_AT_TI_end_line(0x799)
    6460                      .dwattr $C$DW$415, DW_AT_TI_end_column(0x01)
    6461                      .dwendentry
    6462                      .dwendtag $C$DW$415
    6463              
    6464 001d14               .sect   ".text"
    6465                      .align 4
    6466                      .global _MSC_ExecuteWrite
    6467              
    6468              $C$DW$443       .dwtag  DW_TAG_subprogram, DW_AT_name("MSC_ExecuteWrite")
    6469                      .dwattr $C$DW$443, DW_AT_low_pc(_MSC_ExecuteWrite)
    6470                      .dwattr $C$DW$443, DW_AT_high_pc(0x00)
    6471                      .dwattr $C$DW$443, DW_AT_TI_symbol_name("_MSC_ExecuteWrite")
    6472                      .dwattr $C$DW$443, DW_AT_external
    6473                      .dwattr $C$DW$443, DW_AT_type(*$C$DW$T$89)
    6474                      .dwattr $C$DW$443, DW_AT_TI_begin_file("../c5535_bsl_revc/ezdsp5535_v1/c55xx_csl/src/csl_msc.c")
    6475                      .dwattr $C$DW$443, DW_AT_TI_begin_line(0x7cf)
    6476                      .dwattr $C$DW$443, DW_AT_TI_begin_column(0x0c)
    6477                      .dwattr $C$DW$443, DW_AT_TI_max_frame_size(0x0c)
    6478                      .dwpsn  file "../c5535_bsl_revc/ezdsp5535_v1/c55xx_csl/src/csl_msc.c",line 2002,column 1,is_stmt,addr
    6479              
    6480                      .dwfde $C$DW$CIE, _MSC_ExecuteWrite
    6481              $C$DW$444       .dwtag  DW_TAG_formal_parameter, DW_AT_name("pMscHandle")
    6482                      .dwattr $C$DW$444, DW_AT_TI_symbol_name("_pMscHandle")
    6483                      .dwattr $C$DW$444, DW_AT_type(*$C$DW$T$107)
    6484                      .dwattr $C$DW$444, DW_AT_location[DW_OP_reg17]
    6485              $C$DW$445       .dwtag  DW_TAG_formal_parameter, DW_AT_name("lunNum")
    6486                      .dwattr $C$DW$445, DW_AT_TI_symbol_name("_lunNum")
    6487                      .dwattr $C$DW$445, DW_AT_type(*$C$DW$T$25)
    6488                      .dwattr $C$DW$445, DW_AT_location[DW_OP_reg12]
    6489              $C$DW$446       .dwtag  DW_TAG_formal_parameter, DW_AT_name("first")
    6490                      .dwattr $C$DW$446, DW_AT_TI_symbol_name("_first")
TMS320C55x Assembler PC v4.4.1 Tue Oct 02 02:33:20 2018

Tools Copyright (c) 1996-2012 Texas Instruments Incorporated
csl_msc.asm                                                          PAGE  157

    6491                      .dwattr $C$DW$446, DW_AT_type(*$C$DW$T$25)
    6492                      .dwattr $C$DW$446, DW_AT_location[DW_OP_reg13]
    6493              ;*******************************************************************************
    6494              ;* FUNCTION NAME: MSC_ExecuteWrite                                             *
    6495              ;*                                                                             *
    6496              ;*   Function Uses Regs : AC0,AC0,AC1,AC1,AC2,AC2,AC3,AC3,T0,T1,AR0,XAR0,AR1,  *
    6497              ;*                        XAR1,AR2,XAR2,AR3,XAR3,SP,CARRY,TC1,M40,SATA,SATD,   *
    6498              ;*                        RDM,FRCT,SMUL                                        *
    6499              ;*   Stack Frame        : Compact (No Frame Pointer, w/ debug)                 *
    6500              ;*   Total Frame Size   : 12 words                                             *
    6501              ;*                        (2 return address/alignment)                         *
    6502              ;*                        (10 local values)                                    *
    6503              ;*   Min System Stack   : 1 word                                               *
    6504              ;*******************************************************************************
    6505 001d14       _MSC_ExecuteWrite:
    6506                      .dwcfi  cfa_offset, 1
    6507                      .dwcfi  save_reg_to_mem, 91, -1
    6508 001d14 4EF5          AADD #-11, SP
    6509                      .dwcfi  cfa_offset, 12
    6510              $C$DW$447       .dwtag  DW_TAG_variable, DW_AT_name("pMscHandle")
    6511                      .dwattr $C$DW$447, DW_AT_TI_symbol_name("_pMscHandle")
    6512                      .dwattr $C$DW$447, DW_AT_type(*$C$DW$T$107)
    6513                      .dwattr $C$DW$447, DW_AT_location[DW_OP_bregx 0x24 0]
    6514              $C$DW$448       .dwtag  DW_TAG_variable, DW_AT_name("lunNum")
    6515                      .dwattr $C$DW$448, DW_AT_TI_symbol_name("_lunNum")
    6516                      .dwattr $C$DW$448, DW_AT_type(*$C$DW$T$25)
    6517                      .dwattr $C$DW$448, DW_AT_location[DW_OP_bregx 0x24 2]
    6518              $C$DW$449       .dwtag  DW_TAG_variable, DW_AT_name("first")
    6519                      .dwattr $C$DW$449, DW_AT_TI_symbol_name("_first")
    6520                      .dwattr $C$DW$449, DW_AT_type(*$C$DW$T$25)
    6521                      .dwattr $C$DW$449, DW_AT_location[DW_OP_bregx 0x24 3]
    6522              $C$DW$450       .dwtag  DW_TAG_variable, DW_AT_name("mediaLba")
    6523                      .dwattr $C$DW$450, DW_AT_TI_symbol_name("_mediaLba")
    6524                      .dwattr $C$DW$450, DW_AT_type(*$C$DW$T$53)
    6525                      .dwattr $C$DW$450, DW_AT_location[DW_OP_bregx 0x24 4]
    6526              $C$DW$451       .dwtag  DW_TAG_variable, DW_AT_name("mediaLbaCount")
    6527                      .dwattr $C$DW$451, DW_AT_TI_symbol_name("_mediaLbaCount")
    6528                      .dwattr $C$DW$451, DW_AT_type(*$C$DW$T$25)
    6529                      .dwattr $C$DW$451, DW_AT_location[DW_OP_bregx 0x24 6]
    6530              $C$DW$452       .dwtag  DW_TAG_variable, DW_AT_name("tempData")
    6531                      .dwattr $C$DW$452, DW_AT_TI_symbol_name("_tempData")
    6532                      .dwattr $C$DW$452, DW_AT_type(*$C$DW$T$25)
    6533                      .dwattr $C$DW$452, DW_AT_location[DW_OP_bregx 0x24 7]
    6534              $C$DW$453       .dwtag  DW_TAG_variable, DW_AT_name("status")
    6535                      .dwattr $C$DW$453, DW_AT_TI_symbol_name("_status")
    6536                      .dwattr $C$DW$453, DW_AT_type(*$C$DW$T$89)
    6537                      .dwattr $C$DW$453, DW_AT_location[DW_OP_bregx 0x24 8]
    6538              $C$DW$454       .dwtag  DW_TAG_variable, DW_AT_name("mediaStat")
    6539                      .dwattr $C$DW$454, DW_AT_TI_symbol_name("_mediaStat")
    6540                      .dwattr $C$DW$454, DW_AT_type(*$C$DW$T$52)
    6541                      .dwattr $C$DW$454, DW_AT_location[DW_OP_bregx 0x24 9]
    6542 001d16 C506          MOV T1, *SP(#3) ; |2002| 
    6543 001d18 C404          MOV T0, *SP(#2) ; |2002| 
    6544 001d1a EB00          MOV XAR0, dbl(*SP(#0))
         001d1c 85   
TMS320C55x Assembler PC v4.4.1 Tue Oct 02 02:33:20 2018

Tools Copyright (c) 1996-2012 Texas Instruments Incorporated
csl_msc.asm                                                          PAGE  158

    6545                      .dwpsn  file "../c5535_bsl_revc/ezdsp5535_v1/c55xx_csl/src/csl_msc.c",line 2009,column 2,is_stmt
    6546 001d1d E610          MOV #0, *SP(#8) ; |2009| 
         001d1f 00   
    6547                      .dwpsn  file "../c5535_bsl_revc/ezdsp5535_v1/c55xx_csl/src/csl_msc.c",line 2012,column 2,is_stmt
    6548 001d20 ED00          MOV dbl(*SP(#0)), XAR3
         001d22 BF   
    6549 001d23 DC6D          BTST #7, *AR3(#303), TC1 ; |2012| 
         001d25 7001 
         001d27 2F   
    6550 001d28 0474          BCC $C$L149,!TC1 ; |2012| 
         001d2a 14   
    6551                                                      ; branchcc occurs ; |2012| 
    6552 001d2b ED6D          MOV dbl(*AR3(#16)), AC0 ; |2012| 
         001d2d 0800 
         001d2f 10   
    6553 001d30 6680          BCC $C$L149,AC0 == #0 ; |2012| 
    6554                                                      ; branchcc occurs ; |2012| 
    6555                      .dwpsn  file "../c5535_bsl_revc/ezdsp5535_v1/c55xx_csl/src/csl_msc.c",line 2016,column 3,is_stmt
    6556 001d32 ED00          MOV dbl(*SP(#0)), XAR0
         001d34 8F   
    6557              $C$DW$455       .dwtag  DW_TAG_TI_branch
    6558                      .dwattr $C$DW$455, DW_AT_low_pc(0x00)
    6559                      .dwattr $C$DW$455, DW_AT_name("_MSC_handleDataDirMisMatch")
    6560                      .dwattr $C$DW$455, DW_AT_TI_call
    6561              
    6562 001d35 080F          CALL #_MSC_handleDataDirMisMatch ; |2016| 
         001d37 E6   
    6563 001d38 3D04  ||      MOV #0, T0
    6564              
    6565                                                      ; call occurs [#_MSC_handleDataDirMisMatch] ; |2016| 
    6566 001d3a C410          MOV T0, *SP(#8) ; |2016| 
    6567                      .dwpsn  file "../c5535_bsl_revc/ezdsp5535_v1/c55xx_csl/src/csl_msc.c",line 2018,column 3,is_stmt
    6568 001d3c 0606          B $C$L171 ; |2018| 
         001d3e 1F   
    6569                                                      ; branch occurs ; |2018| 
    6570 001d3f       $C$L149:    
    6571                      .dwpsn  file "../c5535_bsl_revc/ezdsp5535_v1/c55xx_csl/src/csl_msc.c",line 2021,column 2,is_stmt
    6572 001d3f A906          MOV *SP(#3), AR1 ; |2021| 
    6573 001d41 6D09          BCC $C$L151,AR1 == #0 ; |2021| 
         001d43 00F4 
    6574                                                      ; branchcc occurs ; |2021| 
    6575                      .dwpsn  file "../c5535_bsl_revc/ezdsp5535_v1/c55xx_csl/src/csl_msc.c",line 2027,column 3,is_stmt
    6576 001d45 ED6D          MOV dbl(*AR3(#16)), AC0 ; |2027| 
         001d47 0800 
         001d49 10   
    6577 001d4a 6D00          BCC $C$L150,AC0 == #0 ; |2027| 
         001d4c 00D9 
    6578                                                      ; branchcc occurs ; |2027| 
    6579                      .dwpsn  file "../c5535_bsl_revc/ezdsp5535_v1/c55xx_csl/src/csl_msc.c",line 2029,column 4,is_stmt
    6580 001d4e DF6D          MOV uns(high_byte(*AR3(#305))), AR1 ; |2029| 
         001d50 9101 
         001d52 31   
    6581 001d53 7DFF          AND #0xffff, AR1, AC0 ; |2029| 
         001d55 FF09 
    6582 001d57 1005          SFTS AC0, #24, AC0 ; |2029| 
TMS320C55x Assembler PC v4.4.1 Tue Oct 02 02:33:20 2018

Tools Copyright (c) 1996-2012 Texas Instruments Incorporated
csl_msc.asm                                                          PAGE  159

         001d59 18   
    6583 001d5a EB08          MOV AC0, dbl(*SP(#4)) ; |2029| 
         001d5c 08   
    6584                      .dwpsn  file "../c5535_bsl_revc/ezdsp5535_v1/c55xx_csl/src/csl_msc.c",line 2031,column 4,is_stmt
    6585 001d5d ED00          MOV dbl(*SP(#0)), XAR3
         001d5f BF   
    6586 001d60 DF6D          MOV uns(low_byte(*AR3(#306))), AR1 ; |2031| 
         001d62 9301 
         001d64 32   
    6587              
    6588 001d68 5390          MOV AR1, HI(AC0) ; |2031| 
    6589 001d65 ED08  ||      MOV dbl(*SP(#4)), AC1 ; |2031| 
         001d67 18   
    6590              
    6591 001d6a 2A10          OR AC1, AC0 ; |2031| 
    6592 001d6c EB08          MOV AC0, dbl(*SP(#4)) ; |2031| 
         001d6e 08   
    6593                      .dwpsn  file "../c5535_bsl_revc/ezdsp5535_v1/c55xx_csl/src/csl_msc.c",line 2033,column 4,is_stmt
    6594 001d6f ED00          MOV dbl(*SP(#0)), XAR3
         001d71 BF   
    6595 001d72 ED08          MOV dbl(*SP(#4)), AC0 ; |2033| 
         001d74 08   
    6596 001d75 DF6D          MOV uns(high_byte(*AR3(#306))), AR1 ; |2033| 
         001d77 9101 
         001d79 32   
    6597 001d7a 7DFF          AND #0xffff, AR1, AC1 ; |2033| 
         001d7c FF19 
    6598 001d7e 1011          OR AC1 << #8, AC0 ; |2033| 
         001d80 08   
    6599 001d81 EB08          MOV AC0, dbl(*SP(#4)) ; |2033| 
         001d83 08   
    6600                      .dwpsn  file "../c5535_bsl_revc/ezdsp5535_v1/c55xx_csl/src/csl_msc.c",line 2035,column 4,is_stmt
    6601 001d84 ED00          MOV dbl(*SP(#0)), XAR3
         001d86 BF   
    6602 001d87 A96D          MOV *AR3(#307), AR1 ; |2035| 
         001d89 0133 
    6603              
    6604 001d8e 19FF          AND #0x00ff, AR1, AC0 ; |2035| 
         001d90 09   
    6605 001d8b ED08  ||      MOV dbl(*SP(#4)), AC1 ; |2035| 
         001d8d 18   
    6606              
    6607 001d91 2A10          OR AC1, AC0 ; |2035| 
    6608 001d93 EB08          MOV AC0, dbl(*SP(#4)) ; |2035| 
         001d95 08   
    6609                      .dwpsn  file "../c5535_bsl_revc/ezdsp5535_v1/c55xx_csl/src/csl_msc.c",line 2037,column 4,is_stmt
    6610 001d96 ED00          MOV dbl(*SP(#0)), XAR3
         001d98 BF   
    6611 001d99 DF6D          MOV uns(high_byte(*AR3(#308))), AC0 ; |2037| 
         001d9b 0101 
         001d9d 34   
    6612 001d9e A16D          MOV *AR3(#308), AC1 ; |2037| 
         001da0 0134 
    6613 001da2 1011          OR AC1 << #8, AC0 ; |2037| 
         001da4 08   
TMS320C55x Assembler PC v4.4.1 Tue Oct 02 02:33:20 2018

Tools Copyright (c) 1996-2012 Texas Instruments Incorporated
csl_msc.asm                                                          PAGE  160

    6614 001da5 C00C          MOV AC0, *SP(#6) ; |2037| 
    6615                      .dwpsn  file "../c5535_bsl_revc/ezdsp5535_v1/c55xx_csl/src/csl_msc.c",line 2039,column 4,is_stmt
    6616 001da7 ED00          MOV dbl(*SP(#0)), XAR3
         001da9 BF   
    6617 001daa DF04          MOV uns(*SP(#2)), AC1 ; |2039| 
         001dac 15   
    6618 001dad 1015          SFTS AC1, #6, AC0 ; |2039| 
         001daf 06   
    6619 001db0 1014          SUB AC1 << #1, AC0 ; |2039| 
         001db2 01   
    6620 001db3 900A          MOV AC0, XAR2
    6621              
    6622                      AADD XAR2, XAR3 ; |2039| 
    6623 001db5 8E08  ||      MOV dbl(*SP(#4)), AC0 ; |2039| 
         001db7 BD18 
         001db9 08A1 
    6624              
    6625 001dbb EB6D          MOV AC0, dbl(*AR3(#70)) ; |2039| 
         001dbd 0800 
         001dbf 46   
    6626                      .dwpsn  file "../c5535_bsl_revc/ezdsp5535_v1/c55xx_csl/src/csl_msc.c",line 2040,column 4,is_stmt
    6627 001dc0 ED00          MOV dbl(*SP(#0)), XAR3
         001dc2 BF   
    6628 001dc3 DF04          MOV uns(*SP(#2)), AC1 ; |2040| 
         001dc5 15   
    6629 001dc6 1015          SFTS AC1, #6, AC0 ; |2040| 
         001dc8 06   
    6630 001dc9 1014          SUB AC1 << #1, AC0 ; |2040| 
         001dcb 01   
    6631 001dcc 900A          MOV AC0, XAR2
    6632              
    6633                      AADD XAR2, XAR3 ; |2040| 
    6634 001dce 8A0C  ||      MOV *SP(#6), AR1 ; |2040| 
         001dd0 B918 
         001dd2 A1   
    6635              
    6636 001dd3 C96D          MOV AR1, *AR3(#77) ; |2040| 
         001dd5 004D 
    6637                      .dwpsn  file "../c5535_bsl_revc/ezdsp5535_v1/c55xx_csl/src/csl_msc.c",line 2041,column 4,is_stmt
    6638 001dd7 ED00          MOV dbl(*SP(#0)), XAR3
         001dd9 BF   
    6639 001dda E66D          MOV #6, *AR3(#355) ; |2041| 
         001ddc 0601 
         001dde 63   
    6640                      .dwpsn  file "../c5535_bsl_revc/ezdsp5535_v1/c55xx_csl/src/csl_msc.c",line 2042,column 4,is_stmt
    6641 001ddf ED00          MOV dbl(*SP(#0)), XAR3
         001de1 BF   
    6642 001de2 DF04          MOV uns(*SP(#2)), AC1 ; |2042| 
         001de4 15   
    6643 001de5 1015          SFTS AC1, #6, AC0 ; |2042| 
         001de7 06   
    6644 001de8 1014          SUB AC1 << #1, AC0 ; |2042| 
         001dea 01   
    6645 001deb 900A          MOV AC0, XAR2
    6646 001ded 14A1          AADD XAR2, XAR3 ; |2042| 
TMS320C55x Assembler PC v4.4.1 Tue Oct 02 02:33:20 2018

Tools Copyright (c) 1996-2012 Texas Instruments Incorporated
csl_msc.asm                                                          PAGE  161

         001def B0   
    6647 001df0 E66D          MOV #0, *AR3(#78) ; |2042| 
         001df2 0000 
         001df4 4E   
    6648                      .dwpsn  file "../c5535_bsl_revc/ezdsp5535_v1/c55xx_csl/src/csl_msc.c",line 2043,column 4,is_stmt
    6649 001df5 ED00          MOV dbl(*SP(#0)), XAR3
         001df7 BF   
    6650 001df8 E66D          MOV #1, *AR3(#361) ; |2043| 
         001dfa 0101 
         001dfc 69   
    6651                      .dwpsn  file "../c5535_bsl_revc/ezdsp5535_v1/c55xx_csl/src/csl_msc.c",line 2044,column 4,is_stmt
    6652 001dfd ED00          MOV dbl(*SP(#0)), XAR3
         001dff BF   
    6653 001e00 DF04          MOV uns(*SP(#2)), AC1 ; |2044| 
         001e02 15   
    6654 001e03 1015          SFTS AC1, #6, AC0 ; |2044| 
         001e05 06   
    6655 001e06 1014          SUB AC1 << #1, AC0 ; |2044| 
         001e08 01   
    6656 001e09 900A          MOV AC0, XAR2
    6657 001e0b 14A1          AADD XAR2, XAR3 ; |2044| 
         001e0d B0   
    6658 001e0e 1412          AADD #18, AR3 ; |2044| 
         001e10 B4   
    6659 001e11 F46D          AND #0xfffb, *AR3(#57) ; |2044| 
         001e13 FFFB 
         001e15 0039 
    6660                      .dwpsn  file "../c5535_bsl_revc/ezdsp5535_v1/c55xx_csl/src/csl_msc.c",line 2046,column 4,is_stmt
    6661 001e17 ED00          MOV dbl(*SP(#0)), XAR0
         001e19 8F   
    6662 001e1a 3C04          MOV #0, T0
    6663 001e1c B40F          AMAR *+AR0(#266) ; |2046| 
         001e1e 010A 
    6664              $C$DW$456       .dwtag  DW_TAG_TI_branch
    6665                      .dwattr $C$DW$456, DW_AT_low_pc(0x00)
    6666                      .dwattr $C$DW$456, DW_AT_name("_MSC_SetSenseKeys")
    6667                      .dwattr $C$DW$456, DW_AT_TI_call
    6668              
    6669 001e20 08E1          CALL #_MSC_SetSenseKeys ; |2046| 
         001e22 DB   
    6670 001e23 3D05  ||      MOV #0, T1
    6671              
    6672                                                      ; call occurs [#_MSC_SetSenseKeys] ; |2046| 
    6673                      .dwpsn  file "../c5535_bsl_revc/ezdsp5535_v1/c55xx_csl/src/csl_msc.c",line 2049,column 3,is_stmt
    6674 001e25 4A12          B $C$L151 ; |2049| 
    6675                                                      ; branch occurs ; |2049| 
    6676 001e27       $C$L150:    
    6677                      .dwpsn  file "../c5535_bsl_revc/ezdsp5535_v1/c55xx_csl/src/csl_msc.c",line 2052,column 4,is_stmt
    6678 001e27 ED00          MOV dbl(*SP(#0)), XAR1
         001e29 9F   
    6679 001e2a ED00          MOV dbl(*SP(#0)), XAR0
         001e2c 8F   
    6680 001e2d B42F          AMAR *+AR1(#314) ; |2052| 
         001e2f 013A 
    6681              $C$DW$457       .dwtag  DW_TAG_TI_branch
TMS320C55x Assembler PC v4.4.1 Tue Oct 02 02:33:20 2018

Tools Copyright (c) 1996-2012 Texas Instruments Incorporated
csl_msc.asm                                                          PAGE  162

    6682                      .dwattr $C$DW$457, DW_AT_low_pc(0x00)
    6683                      .dwattr $C$DW$457, DW_AT_name("_MSC_sendCswWithPhaseError")
    6684                      .dwattr $C$DW$457, DW_AT_TI_call
    6685 001e31 080E          CALL #_MSC_sendCswWithPhaseError ; |2052| 
         001e33 84   
    6686                                                      ; call occurs [#_MSC_sendCswWithPhaseError] ; |2052| 
    6687 001e34 C410          MOV T0, *SP(#8) ; |2052| 
    6688                      .dwpsn  file "../c5535_bsl_revc/ezdsp5535_v1/c55xx_csl/src/csl_msc.c",line 2054,column 4,is_stmt
    6689 001e36 0605          B $C$L171 ; |2054| 
         001e38 25   
    6690                                                      ; branch occurs ; |2054| 
    6691 001e39       $C$L151:    
    6692                      .dwpsn  file "../c5535_bsl_revc/ezdsp5535_v1/c55xx_csl/src/csl_msc.c",line 2058,column 2,is_stmt
    6693 001e39 ED00          MOV dbl(*SP(#0)), XAR0
         001e3b 8F   
    6694 001e3c EC10          AMAR *SP(#8), XAR1
         001e3e 9E   
    6695 001e3f B40F          AMAR *+AR0(#334) ; |2058| 
         001e41 014E 
    6696              $C$DW$458       .dwtag  DW_TAG_TI_branch
    6697                      .dwattr $C$DW$458, DW_AT_low_pc(0x00)
    6698                      .dwattr $C$DW$458, DW_AT_name("_USB_isTransactionDone")
    6699                      .dwattr $C$DW$458, DW_AT_TI_call
    6700 001e43 6C00          CALL #_USB_isTransactionDone ; |2058| 
         001e45 0000!
    6701                                                      ; call occurs [#_USB_isTransactionDone] ; |2058| 
    6702 001e47 6D04          BCC $C$L170,T0 == #0 ; |2058| 
         001e49 0511 
    6703                                                      ; branchcc occurs ; |2058| 
    6704                      .dwpsn  file "../c5535_bsl_revc/ezdsp5535_v1/c55xx_csl/src/csl_msc.c",line 2060,column 3,is_stmt
    6705 001e4b ED00          MOV dbl(*SP(#0)), XAR3
         001e4d BF   
    6706 001e4e F06D          CMP *AR3(#361) == #1, TC1 ; |2060| 
         001e50 0001 
         001e52 0169 
    6707 001e54 6D74          BCC $C$L161,!TC1 ; |2060| 
         001e56 0371 
    6708                                                      ; branchcc occurs ; |2060| 
    6709                      .dwpsn  file "../c5535_bsl_revc/ezdsp5535_v1/c55xx_csl/src/csl_msc.c",line 2062,column 4,is_stmt
    6710 001e58 DF04          MOV uns(*SP(#2)), AC1 ; |2062| 
         001e5a 15   
    6711 001e5b 1015          SFTS AC1, #6, AC0 ; |2062| 
         001e5d 06   
    6712 001e5e 1014          SUB AC1 << #1, AC0 ; |2062| 
         001e60 01   
    6713 001e61 900A          MOV AC0, XAR2
    6714 001e63 14A1          AADD XAR2, XAR3 ; |2062| 
         001e65 B0   
    6715 001e66 DC6D          BTST #2, *AR3(#75), TC1 ; |2062| 
         001e68 2000 
         001e6a 4B   
    6716 001e6b 6D74          BCC $C$L161,!TC1 ; |2062| 
         001e6d 035A 
    6717                                                      ; branchcc occurs ; |2062| 
    6718                      .dwpsn  file "../c5535_bsl_revc/ezdsp5535_v1/c55xx_csl/src/csl_msc.c",line 2064,column 5,is_stmt
TMS320C55x Assembler PC v4.4.1 Tue Oct 02 02:33:20 2018

Tools Copyright (c) 1996-2012 Texas Instruments Incorporated
csl_msc.asm                                                          PAGE  163

    6719 001e6f ED00          MOV dbl(*SP(#0)), XAR3
         001e71 BF   
    6720 001e72 DF04          MOV uns(*SP(#2)), AC1 ; |2064| 
         001e74 15   
    6721 001e75 1015          SFTS AC1, #6, AC0 ; |2064| 
         001e77 06   
    6722 001e78 1014          SUB AC1 << #1, AC0 ; |2064| 
         001e7a 01   
    6723 001e7b 900A          MOV AC0, XAR2
    6724 001e7d 14A1          AADD XAR2, XAR3 ; |2064| 
         001e7f B0   
    6725 001e80 1412          AADD #18, AR3 ; |2064| 
         001e82 B4   
    6726 001e83 F46D          AND #0xfffb, *AR3(#57) ; |2064| 
         001e85 FFFB 
         001e87 0039 
    6727                      .dwpsn  file "../c5535_bsl_revc/ezdsp5535_v1/c55xx_csl/src/csl_msc.c",line 2066,column 5,is_stmt
    6728 001e89 ED00          MOV dbl(*SP(#0)), XAR3
         001e8b BF   
    6729 001e8c DF04          MOV uns(*SP(#2)), AC1 ; |2066| 
         001e8e 15   
    6730 001e8f 1015          SFTS AC1, #6, AC0 ; |2066| 
         001e91 06   
    6731 001e92 1014          SUB AC1 << #1, AC0 ; |2066| 
         001e94 01   
    6732 001e95 900A          MOV AC0, XAR2
    6733 001e97 14A1          AADD XAR2, XAR3 ; |2066| 
         001e99 B0   
    6734 001e9a A96D          MOV *AR3(#78), AR1 ; |2066| 
         001e9c 004E 
    6735 001e9e 6D19          BCC $C$L161,AR1 != #0 ; |2066| 
         001ea0 0327 
    6736                                                      ; branchcc occurs ; |2066| 
    6737                      .dwpsn  file "../c5535_bsl_revc/ezdsp5535_v1/c55xx_csl/src/csl_msc.c",line 2068,column 6,is_stmt
    6738 001ea2 ED00          MOV dbl(*SP(#0)), XAR3
         001ea4 BF   
    6739 001ea5 DF04          MOV uns(*SP(#2)), AC1 ; |2068| 
         001ea7 15   
    6740 001ea8 1015          SFTS AC1, #6, AC0 ; |2068| 
         001eaa 06   
    6741 001eab 1014          SUB AC1 << #1, AC0 ; |2068| 
         001ead 01   
    6742 001eae 900A          MOV AC0, XAR2
    6743 001eb0 14A1          AADD XAR2, XAR3 ; |2068| 
         001eb2 B0   
    6744 001eb3 DC6D          BTST #0, *AR3(#76), TC1 ; |2068| 
         001eb5 0000 
         001eb7 4C   
    6745 001eb8 0464          BCC $C$L152,TC1 ; |2068| 
         001eba 4A   
    6746                                                      ; branchcc occurs ; |2068| 
    6747                      .dwpsn  file "../c5535_bsl_revc/ezdsp5535_v1/c55xx_csl/src/csl_msc.c",line 2071,column 7,is_stmt
    6748 001ebb ED00          MOV dbl(*SP(#0)), XAR0
         001ebd 8F   
    6749 001ebe 7600          MOV #32, T1 ; |2071| 
TMS320C55x Assembler PC v4.4.1 Tue Oct 02 02:33:20 2018

Tools Copyright (c) 1996-2012 Texas Instruments Incorporated
csl_msc.asm                                                          PAGE  164

         001ec0 2058 
    6750 001ec2 B40F          AMAR *+AR0(#266) ; |2071| 
         001ec4 010A 
    6751              $C$DW$459       .dwtag  DW_TAG_TI_branch
    6752                      .dwattr $C$DW$459, DW_AT_low_pc(0x00)
    6753                      .dwattr $C$DW$459, DW_AT_name("_MSC_SetSenseKeys")
    6754                      .dwattr $C$DW$459, DW_AT_TI_call
    6755              
    6756 001ec6 08E1          CALL #_MSC_SetSenseKeys ; |2071| 
         001ec8 35   
    6757 001ec9 3D54  ||      MOV #5, T0
    6758              
    6759                                                      ; call occurs [#_MSC_SetSenseKeys] ; |2071| 
    6760                      .dwpsn  file "../c5535_bsl_revc/ezdsp5535_v1/c55xx_csl/src/csl_msc.c",line 2074,column 7,is_stmt
    6761 001ecb ED00          MOV dbl(*SP(#0)), XAR3
         001ecd BF   
    6762 001ece DF04          MOV uns(*SP(#2)), AC1 ; |2074| 
         001ed0 15   
    6763 001ed1 1015          SFTS AC1, #6, AC0 ; |2074| 
         001ed3 06   
    6764 001ed4 1014          SUB AC1 << #1, AC0 ; |2074| 
         001ed6 01   
    6765 001ed7 900A          MOV AC0, XAR2
    6766 001ed9 14A1          AADD XAR2, XAR3 ; |2074| 
         001edb B0   
    6767 001edc E66D          MOV #1, *AR3(#78) ; |2074| 
         001ede 0100 
         001ee0 4E   
    6768                      .dwpsn  file "../c5535_bsl_revc/ezdsp5535_v1/c55xx_csl/src/csl_msc.c",line 2075,column 7,is_stmt
    6769 001ee1 ED00          MOV dbl(*SP(#0)), XAR3
         001ee3 BF   
    6770 001ee4 ED6D          MOV dbl(*AR3(#16)), AC0 ; |2075| 
         001ee6 0800 
         001ee8 10   
    6771 001ee9 7DFF          AND #0xffff, AC0, AC0 ; |2075| 
         001eeb FF00 
    6772 001eed C06D          MOV AC0, *AR3(#287) ; |2075| 
         001eef 011F 
    6773                      .dwpsn  file "../c5535_bsl_revc/ezdsp5535_v1/c55xx_csl/src/csl_msc.c",line 2078,column 7,is_stmt
    6774 001ef1 ED00          MOV dbl(*SP(#0)), XAR3
         001ef3 BF   
    6775 001ef4 ED6D          MOV dbl(*AR3(#16)), AC0 ; |2078| 
         001ef6 0800 
         001ef8 10   
    6776 001ef9 BC6D          MOV HI(AC0), *AR3(#288) ; |2078| 
         001efb 0120 
    6777                      .dwpsn  file "../c5535_bsl_revc/ezdsp5535_v1/c55xx_csl/src/csl_msc.c",line 2081,column 7,is_stmt
    6778 001efd ED00          MOV dbl(*SP(#0)), XAR3
         001eff BF   
    6779 001f00 E66D          MOV #1, *AR3(#289) ; |2081| 
         001f02 0101 
         001f04 21   
    6780 001f05       $C$L152:    
    6781                      .dwpsn  file "../c5535_bsl_revc/ezdsp5535_v1/c55xx_csl/src/csl_msc.c",line 2084,column 6,is_stmt
    6782 001f05 ED00          MOV dbl(*SP(#0)), XAR3
TMS320C55x Assembler PC v4.4.1 Tue Oct 02 02:33:20 2018

Tools Copyright (c) 1996-2012 Texas Instruments Incorporated
csl_msc.asm                                                          PAGE  165

         001f07 BF   
    6783 001f08 DF04          MOV uns(*SP(#2)), AC1 ; |2084| 
         001f0a 15   
    6784 001f0b 1015          SFTS AC1, #6, AC0 ; |2084| 
         001f0d 06   
    6785 001f0e 1014          SUB AC1 << #1, AC0 ; |2084| 
         001f10 01   
    6786 001f11 900A          MOV AC0, XAR2
    6787 001f13 14A1          AADD XAR2, XAR3 ; |2084| 
         001f15 B0   
    6788 001f16 A96D          MOV *AR3(#78), AR1 ; |2084| 
         001f18 004E 
    6789 001f1a 6D19          BCC $C$L161,AR1 != #0 ; |2084| 
         001f1c 02AB 
    6790                                                      ; branchcc occurs ; |2084| 
    6791                      .dwpsn  file "../c5535_bsl_revc/ezdsp5535_v1/c55xx_csl/src/csl_msc.c",line 2087,column 7,is_stmt
    6792 001f1e E612          MOV #2, *SP(#9) ; |2087| 
         001f20 02   
    6793                      .dwpsn  file "../c5535_bsl_revc/ezdsp5535_v1/c55xx_csl/src/csl_msc.c",line 2089,column 7,is_stmt
    6794 001f21 ED00          MOV dbl(*SP(#0)), XAR3
         001f23 BF   
    6795 001f24 DF04          MOV uns(*SP(#2)), AC1 ; |2089| 
         001f26 15   
    6796 001f27 1015          SFTS AC1, #6, AC0 ; |2089| 
         001f29 06   
    6797 001f2a 1014          SUB AC1 << #1, AC0 ; |2089| 
         001f2c 01   
    6798 001f2d 900A          MOV AC0, XAR2
    6799 001f2f 14A1          AADD XAR2, XAR3 ; |2089| 
         001f31 B0   
    6800 001f32 DC6D          BTST #0, *AR3(#75), TC1 ; |2089| 
         001f34 0000 
         001f36 4B   
    6801 001f37 0464          BCC $C$L153,TC1 ; |2089| 
         001f39 1A   
    6802                                                      ; branchcc occurs ; |2089| 
    6803 001f3a ED00          MOV dbl(*SP(#0)), XAR3
         001f3c BF   
    6804 001f3d DF04          MOV uns(*SP(#2)), AC1 ; |2089| 
         001f3f 15   
    6805 001f40 1015          SFTS AC1, #6, AC0 ; |2089| 
         001f42 06   
    6806 001f43 1014          SUB AC1 << #1, AC0 ; |2089| 
         001f45 01   
    6807 001f46 900A          MOV AC0, XAR2
    6808 001f48 14A1          AADD XAR2, XAR3 ; |2089| 
         001f4a B0   
    6809 001f4b DC6D          BTST #3, *AR3(#75), TC1 ; |2089| 
         001f4d 3000 
         001f4f 4B   
    6810 001f50 6D74          BCC $C$L159,!TC1 ; |2089| 
         001f52 0243 
    6811                                                      ; branchcc occurs ; |2089| 
    6812 001f54       $C$L153:    
    6813                      .dwpsn  file "../c5535_bsl_revc/ezdsp5535_v1/c55xx_csl/src/csl_msc.c",line 2092,column 8,is_stmt
TMS320C55x Assembler PC v4.4.1 Tue Oct 02 02:33:20 2018

Tools Copyright (c) 1996-2012 Texas Instruments Incorporated
csl_msc.asm                                                          PAGE  166

    6814 001f54 DF04          MOV uns(*SP(#2)), AC1 ; |2092| 
         001f56 15   
    6815 001f57 ED00          MOV dbl(*SP(#0)), XAR3
         001f59 BF   
    6816 001f5a 1015          SFTS AC1, #6, AC0 ; |2092| 
         001f5c 06   
    6817 001f5d 1014          SUB AC1 << #1, AC0 ; |2092| 
         001f5f 01   
    6818 001f60 900A          MOV AC0, XAR2
    6819 001f62 DF04          MOV uns(*SP(#2)), AC3 ; |2092| 
         001f64 35   
    6820 001f65 ED6D          MOV dbl(*AR3(#14)), XAR0
         001f67 8F00 
         001f69 0E   
    6821              
    6822 001f6d 1175          SFTS AC3, #6, AC1 ; |2092| 
         001f6f 06   
    6823 001f6a ED75  ||      MOV dbl(*AR3(short(#2))), AC2 ; |2092| 
         001f6c 28   
    6824              
    6825 001f70 14A1          AADD XAR2, XAR3 ; |2092| 
         001f72 B0   
    6826 001f73 1174  ||      SUB AC3 << #1, AC1 ; |2092| 
         001f75 01   
    6827              
    6828 001f76 901A          MOV AC1, XAR2
    6829 001f78 ED6D          MOV dbl(*AR3(#70)), AC0 ; |2092| 
         001f7a 0800 
         001f7c 46   
    6830 001f7d ED00          MOV dbl(*SP(#0)), XAR3
         001f7f BF   
    6831              
    6832                      AADD XAR2, XAR3 ; |2092| 
    6833 001f80 8A04  ||      MOV *SP(#2), T0 ; |2092| 
         001f82 B418 
         001f84 A1   
    6834              
    6835 001f85 A56D          MOV *AR3(#77), T1 ; |2092| 
         001f87 004D 
    6836              $C$DW$460       .dwtag  DW_TAG_TI_branch
    6837                      .dwattr $C$DW$460, DW_AT_low_pc(0x00)
    6838                      .dwattr $C$DW$460, DW_AT_TI_call
    6839                      .dwattr $C$DW$460, DW_AT_TI_indirect
    6840 001f89 9202          CALL AC2  ; |2092| 
    6841                                                      ; call occurs [AC0] ; |2092| 
    6842 001f8b C412          MOV T0, *SP(#9) ; |2092| 
    6843                      .dwpsn  file "../c5535_bsl_revc/ezdsp5535_v1/c55xx_csl/src/csl_msc.c",line 2098,column 7,is_stmt
    6844 001f8d 0602          B $C$L159 ; |2098| 
         001f8f 07   
    6845                                                      ; branch occurs ; |2098| 
    6846 001f90       $C$L154:    
    6847                      .dwpsn  file "../c5535_bsl_revc/ezdsp5535_v1/c55xx_csl/src/csl_msc.c",line 2101,column 11,is_stmt
    6848 001f90 ED00          MOV dbl(*SP(#0)), XAR0
         001f92 8F   
    6849 001f93 7600          MOV #33, T1 ; |2101| 
TMS320C55x Assembler PC v4.4.1 Tue Oct 02 02:33:20 2018

Tools Copyright (c) 1996-2012 Texas Instruments Incorporated
csl_msc.asm                                                          PAGE  167

         001f95 2158 
    6850 001f97 B40F          AMAR *+AR0(#266) ; |2101| 
         001f99 010A 
    6851              $C$DW$461       .dwtag  DW_TAG_TI_branch
    6852                      .dwattr $C$DW$461, DW_AT_low_pc(0x00)
    6853                      .dwattr $C$DW$461, DW_AT_name("_MSC_SetSenseKeys")
    6854                      .dwattr $C$DW$461, DW_AT_TI_call
    6855              
    6856 001f9b 08E0          CALL #_MSC_SetSenseKeys ; |2101| 
         001f9d 60   
    6857 001f9e 3D54  ||      MOV #5, T0
    6858              
    6859                                                      ; call occurs [#_MSC_SetSenseKeys] ; |2101| 
    6860                      .dwpsn  file "../c5535_bsl_revc/ezdsp5535_v1/c55xx_csl/src/csl_msc.c",line 2104,column 11,is_stmt
    6861 001fa0 ED00          MOV dbl(*SP(#0)), XAR3
         001fa2 BF   
    6862 001fa3 ED6D          MOV dbl(*AR3(#16)), AC0 ; |2104| 
         001fa5 0800 
         001fa7 10   
    6863 001fa8 7DFF          AND #0xffff, AC0, AC0 ; |2104| 
         001faa FF00 
    6864 001fac C06D          MOV AC0, *AR3(#287) ; |2104| 
         001fae 011F 
    6865                      .dwpsn  file "../c5535_bsl_revc/ezdsp5535_v1/c55xx_csl/src/csl_msc.c",line 2107,column 11,is_stmt
    6866 001fb0 ED00          MOV dbl(*SP(#0)), XAR3
         001fb2 BF   
    6867 001fb3 ED6D          MOV dbl(*AR3(#16)), AC0 ; |2107| 
         001fb5 0800 
         001fb7 10   
    6868 001fb8 BC6D          MOV HI(AC0), *AR3(#288) ; |2107| 
         001fba 0120 
    6869                      .dwpsn  file "../c5535_bsl_revc/ezdsp5535_v1/c55xx_csl/src/csl_msc.c",line 2110,column 11,is_stmt
    6870 001fbc ED00          MOV dbl(*SP(#0)), XAR3
         001fbe BF   
    6871 001fbf E66D          MOV #1, *AR3(#289) ; |2110| 
         001fc1 0101 
         001fc3 21   
    6872                      .dwpsn  file "../c5535_bsl_revc/ezdsp5535_v1/c55xx_csl/src/csl_msc.c",line 2112,column 11,is_stmt
    6873 001fc4 ED00          MOV dbl(*SP(#0)), XAR3
         001fc6 BF   
    6874 001fc7 DF04          MOV uns(*SP(#2)), AC1 ; |2112| 
         001fc9 15   
    6875 001fca 1015          SFTS AC1, #6, AC0 ; |2112| 
         001fcc 06   
    6876 001fcd 1014          SUB AC1 << #1, AC0 ; |2112| 
         001fcf 01   
    6877 001fd0 900A          MOV AC0, XAR2
    6878 001fd2 14A1          AADD XAR2, XAR3 ; |2112| 
         001fd4 B0   
    6879 001fd5 E66D          MOV #1, *AR3(#78) ; |2112| 
         001fd7 0100 
         001fd9 4E   
    6880                      .dwpsn  file "../c5535_bsl_revc/ezdsp5535_v1/c55xx_csl/src/csl_msc.c",line 2114,column 16,is_stmt
    6881 001fda 0601          B $C$L161 ; |2114| 
         001fdc EC   
TMS320C55x Assembler PC v4.4.1 Tue Oct 02 02:33:20 2018

Tools Copyright (c) 1996-2012 Texas Instruments Incorporated
csl_msc.asm                                                          PAGE  168

    6882                                                      ; branch occurs ; |2114| 
    6883 001fdd       $C$L155:    
    6884                      .dwpsn  file "../c5535_bsl_revc/ezdsp5535_v1/c55xx_csl/src/csl_msc.c",line 2117,column 11,is_stmt
    6885 001fdd ED00          MOV dbl(*SP(#0)), XAR3
         001fdf BF   
    6886 001fe0 7602          MOV #512, AC0 ; |2117| 
         001fe2 0008 
    6887 001fe4 ED6D          SUB AC0, dbl(*AR3(#16)), AC0 ; |2117| 
         001fe6 0400 
         001fe8 10   
    6888 001fe9 EB6D          MOV AC0, dbl(*AR3(#16)) ; |2117| 
         001feb 0800 
         001fed 10   
    6889                      .dwpsn  file "../c5535_bsl_revc/ezdsp5535_v1/c55xx_csl/src/csl_msc.c",line 2118,column 11,is_stmt
    6890 001fee ED00          MOV dbl(*SP(#0)), XAR3
         001ff0 BF   
    6891 001ff1 ED6D          MOV dbl(*AR3(#16)), AC0 ; |2118| 
         001ff3 0800 
         001ff5 10   
    6892 001ff6 7DFF          AND #0xffff, AC0, AC0 ; |2118| 
         001ff8 FF00 
    6893 001ffa C06D          MOV AC0, *AR3(#287) ; |2118| 
         001ffc 011F 
    6894                      .dwpsn  file "../c5535_bsl_revc/ezdsp5535_v1/c55xx_csl/src/csl_msc.c",line 2121,column 11,is_stmt
    6895 001ffe ED00          MOV dbl(*SP(#0)), XAR3
         002000 BF   
    6896 002001 ED6D          MOV dbl(*AR3(#16)), AC0 ; |2121| 
         002003 0800 
         002005 10   
    6897 002006 BC6D          MOV HI(AC0), *AR3(#288) ; |2121| 
         002008 0120 
    6898                      .dwpsn  file "../c5535_bsl_revc/ezdsp5535_v1/c55xx_csl/src/csl_msc.c",line 2124,column 11,is_stmt
    6899 00200a ED00          MOV dbl(*SP(#0)), XAR3
         00200c BF   
    6900 00200d E66D          MOV #0, *AR3(#289) ; |2124| 
         00200f 0001 
         002011 21   
    6901                      .dwpsn  file "../c5535_bsl_revc/ezdsp5535_v1/c55xx_csl/src/csl_msc.c",line 2126,column 11,is_stmt
    6902 002012 ED00          MOV dbl(*SP(#0)), XAR3
         002014 BF   
    6903 002015 DF04          MOV uns(*SP(#2)), AC1 ; |2126| 
         002017 15   
    6904 002018 1015          SFTS AC1, #6, AC0 ; |2126| 
         00201a 06   
    6905 00201b 1014          SUB AC1 << #1, AC0 ; |2126| 
         00201d 01   
    6906 00201e 900A          MOV AC0, XAR2
    6907 002020 14A1          AADD XAR2, XAR3 ; |2126| 
         002022 B0   
    6908 002023 E66D          MOV #0, *AR3(#78) ; |2126| 
         002025 0000 
         002027 4E   
    6909                      .dwpsn  file "../c5535_bsl_revc/ezdsp5535_v1/c55xx_csl/src/csl_msc.c",line 2128,column 11,is_stmt
    6910 002028 ED00          MOV dbl(*SP(#0)), XAR3
         00202a BF   
TMS320C55x Assembler PC v4.4.1 Tue Oct 02 02:33:20 2018

Tools Copyright (c) 1996-2012 Texas Instruments Incorporated
csl_msc.asm                                                          PAGE  169

    6911 00202b DF04          MOV uns(*SP(#2)), AC1 ; |2128| 
         00202d 15   
    6912 00202e 1015          SFTS AC1, #6, AC0 ; |2128| 
         002030 06   
    6913 002031 1014          SUB AC1 << #1, AC0 ; |2128| 
         002033 01   
    6914 002034 900A          MOV AC0, XAR2
    6915 002036 14A1          AADD XAR2, XAR3 ; |2128| 
         002038 B0   
    6916 002039 1412          AADD #18, AR3 ; |2128| 
         00203b B4   
    6917 00203c ED6D          MOV dbl(*AR3(#52)), AC0 ; |2128| 
         00203e 0800 
         002040 34   
    6918 002041 4010          ADD #1, AC0 ; |2128| 
    6919 002043 EB6D          MOV AC0, dbl(*AR3(#52)) ; |2128| 
         002045 0800 
         002047 34   
    6920                      .dwpsn  file "../c5535_bsl_revc/ezdsp5535_v1/c55xx_csl/src/csl_msc.c",line 2130,column 16,is_stmt
    6921 002048 0601          B $C$L161 ; |2130| 
         00204a 7E   
    6922                                                      ; branch occurs ; |2130| 
    6923 00204b       $C$L156:    
    6924                      .dwpsn  file "../c5535_bsl_revc/ezdsp5535_v1/c55xx_csl/src/csl_msc.c",line 2133,column 11,is_stmt
    6925 00204b ED00          MOV dbl(*SP(#0)), XAR0
         00204d 8F   
    6926 00204e 7600          MOV #58, T1 ; |2133| 
         002050 3A58 
    6927 002052 B40F          AMAR *+AR0(#266) ; |2133| 
         002054 010A 
    6928              $C$DW$462       .dwtag  DW_TAG_TI_branch
    6929                      .dwattr $C$DW$462, DW_AT_low_pc(0x00)
    6930                      .dwattr $C$DW$462, DW_AT_name("_MSC_SetSenseKeys")
    6931                      .dwattr $C$DW$462, DW_AT_TI_call
    6932              
    6933 002056 08DF          CALL #_MSC_SetSenseKeys ; |2133| 
         002058 A5   
    6934 002059 3D24  ||      MOV #2, T0
    6935              
    6936                                                      ; call occurs [#_MSC_SetSenseKeys] ; |2133| 
    6937                      .dwpsn  file "../c5535_bsl_revc/ezdsp5535_v1/c55xx_csl/src/csl_msc.c",line 2136,column 11,is_stmt
    6938 00205b ED00          MOV dbl(*SP(#0)), XAR3
         00205d BF   
    6939 00205e ED6D          MOV dbl(*AR3(#16)), AC0 ; |2136| 
         002060 0800 
         002062 10   
    6940 002063 7DFF          AND #0xffff, AC0, AC0 ; |2136| 
         002065 FF00 
    6941 002067 C06D          MOV AC0, *AR3(#287) ; |2136| 
         002069 011F 
    6942                      .dwpsn  file "../c5535_bsl_revc/ezdsp5535_v1/c55xx_csl/src/csl_msc.c",line 2139,column 11,is_stmt
    6943 00206b ED00          MOV dbl(*SP(#0)), XAR3
         00206d BF   
    6944 00206e ED6D          MOV dbl(*AR3(#16)), AC0 ; |2139| 
         002070 0800 
TMS320C55x Assembler PC v4.4.1 Tue Oct 02 02:33:20 2018

Tools Copyright (c) 1996-2012 Texas Instruments Incorporated
csl_msc.asm                                                          PAGE  170

         002072 10   
    6945 002073 BC6D          MOV HI(AC0), *AR3(#288) ; |2139| 
         002075 0120 
    6946                      .dwpsn  file "../c5535_bsl_revc/ezdsp5535_v1/c55xx_csl/src/csl_msc.c",line 2142,column 11,is_stmt
    6947 002077 ED00          MOV dbl(*SP(#0)), XAR3
         002079 BF   
    6948 00207a E66D          MOV #1, *AR3(#289) ; |2142| 
         00207c 0101 
         00207e 21   
    6949                      .dwpsn  file "../c5535_bsl_revc/ezdsp5535_v1/c55xx_csl/src/csl_msc.c",line 2144,column 11,is_stmt
    6950 00207f ED00          MOV dbl(*SP(#0)), XAR3
         002081 BF   
    6951 002082 DF04          MOV uns(*SP(#2)), AC1 ; |2144| 
         002084 15   
    6952 002085 1015          SFTS AC1, #6, AC0 ; |2144| 
         002087 06   
    6953 002088 1014          SUB AC1 << #1, AC0 ; |2144| 
         00208a 01   
    6954 00208b 900A          MOV AC0, XAR2
    6955 00208d 14A1          AADD XAR2, XAR3 ; |2144| 
         00208f B0   
    6956 002090 E66D          MOV #1, *AR3(#78) ; |2144| 
         002092 0100 
         002094 4E   
    6957                      .dwpsn  file "../c5535_bsl_revc/ezdsp5535_v1/c55xx_csl/src/csl_msc.c",line 2147,column 11,is_stmt
    6958 002095 ED00          MOV dbl(*SP(#0)), XAR3
         002097 BF   
    6959 002098 DF04          MOV uns(*SP(#2)), AC1 ; |2147| 
         00209a 15   
    6960 00209b 1015          SFTS AC1, #6, AC0 ; |2147| 
         00209d 06   
    6961 00209e 1014          SUB AC1 << #1, AC0 ; |2147| 
         0020a0 01   
    6962 0020a1 900A          MOV AC0, XAR2
    6963 0020a3 14A1          AADD XAR2, XAR3 ; |2147| 
         0020a5 B0   
    6964 0020a6 1412          AADD #18, AR3 ; |2147| 
         0020a8 B4   
    6965 0020a9 F46D          AND #0xfff6, *AR3(#57) ; |2147| 
         0020ab FFF6 
         0020ad 0039 
    6966                      .dwpsn  file "../c5535_bsl_revc/ezdsp5535_v1/c55xx_csl/src/csl_msc.c",line 2150,column 16,is_stmt
    6967 0020af 0601          B $C$L161 ; |2150| 
         0020b1 17   
    6968                                                      ; branch occurs ; |2150| 
    6969 0020b2       $C$L157:    
    6970                      .dwpsn  file "../c5535_bsl_revc/ezdsp5535_v1/c55xx_csl/src/csl_msc.c",line 2153,column 11,is_stmt
    6971 0020b2 ED00          MOV dbl(*SP(#0)), XAR0
         0020b4 8F   
    6972 0020b5 7600          MOV #39, T1 ; |2153| 
         0020b7 2758 
    6973 0020b9 B40F          AMAR *+AR0(#266) ; |2153| 
         0020bb 010A 
    6974              $C$DW$463       .dwtag  DW_TAG_TI_branch
    6975                      .dwattr $C$DW$463, DW_AT_low_pc(0x00)
TMS320C55x Assembler PC v4.4.1 Tue Oct 02 02:33:20 2018

Tools Copyright (c) 1996-2012 Texas Instruments Incorporated
csl_msc.asm                                                          PAGE  171

    6976                      .dwattr $C$DW$463, DW_AT_name("_MSC_SetSenseKeys")
    6977                      .dwattr $C$DW$463, DW_AT_TI_call
    6978              
    6979 0020bd 08DF          CALL #_MSC_SetSenseKeys ; |2153| 
         0020bf 3E   
    6980 0020c0 3D74  ||      MOV #7, T0
    6981              
    6982                                                      ; call occurs [#_MSC_SetSenseKeys] ; |2153| 
    6983                      .dwpsn  file "../c5535_bsl_revc/ezdsp5535_v1/c55xx_csl/src/csl_msc.c",line 2156,column 11,is_stmt
    6984 0020c2 ED00          MOV dbl(*SP(#0)), XAR3
         0020c4 BF   
    6985 0020c5 ED6D          MOV dbl(*AR3(#16)), AC0 ; |2156| 
         0020c7 0800 
         0020c9 10   
    6986 0020ca 7DFF          AND #0xffff, AC0, AC0 ; |2156| 
         0020cc FF00 
    6987 0020ce C06D          MOV AC0, *AR3(#287) ; |2156| 
         0020d0 011F 
    6988                      .dwpsn  file "../c5535_bsl_revc/ezdsp5535_v1/c55xx_csl/src/csl_msc.c",line 2159,column 11,is_stmt
    6989 0020d2 ED00          MOV dbl(*SP(#0)), XAR3
         0020d4 BF   
    6990 0020d5 ED6D          MOV dbl(*AR3(#16)), AC0 ; |2159| 
         0020d7 0800 
         0020d9 10   
    6991 0020da BC6D          MOV HI(AC0), *AR3(#288) ; |2159| 
         0020dc 0120 
    6992                      .dwpsn  file "../c5535_bsl_revc/ezdsp5535_v1/c55xx_csl/src/csl_msc.c",line 2162,column 11,is_stmt
    6993 0020de ED00          MOV dbl(*SP(#0)), XAR3
         0020e0 BF   
    6994 0020e1 E66D          MOV #1, *AR3(#289) ; |2162| 
         0020e3 0101 
         0020e5 21   
    6995                      .dwpsn  file "../c5535_bsl_revc/ezdsp5535_v1/c55xx_csl/src/csl_msc.c",line 2164,column 11,is_stmt
    6996 0020e6 ED00          MOV dbl(*SP(#0)), XAR3
         0020e8 BF   
    6997 0020e9 DF04          MOV uns(*SP(#2)), AC1 ; |2164| 
         0020eb 15   
    6998 0020ec 1015          SFTS AC1, #6, AC0 ; |2164| 
         0020ee 06   
    6999 0020ef 1014          SUB AC1 << #1, AC0 ; |2164| 
         0020f1 01   
    7000 0020f2 900A          MOV AC0, XAR2
    7001 0020f4 14A1          AADD XAR2, XAR3 ; |2164| 
         0020f6 B0   
    7002 0020f7 E66D          MOV #1, *AR3(#78) ; |2164| 
         0020f9 0100 
         0020fb 4E   
    7003                      .dwpsn  file "../c5535_bsl_revc/ezdsp5535_v1/c55xx_csl/src/csl_msc.c",line 2167,column 11,is_stmt
    7004 0020fc ED00          MOV dbl(*SP(#0)), XAR3
         0020fe BF   
    7005 0020ff DF04          MOV uns(*SP(#2)), AC1 ; |2167| 
         002101 15   
    7006 002102 1015          SFTS AC1, #6, AC0 ; |2167| 
         002104 06   
    7007 002105 1014          SUB AC1 << #1, AC0 ; |2167| 
TMS320C55x Assembler PC v4.4.1 Tue Oct 02 02:33:20 2018

Tools Copyright (c) 1996-2012 Texas Instruments Incorporated
csl_msc.asm                                                          PAGE  172

         002107 01   
    7008 002108 900A          MOV AC0, XAR2
    7009 00210a 14A1          AADD XAR2, XAR3 ; |2167| 
         00210c B0   
    7010 00210d 1412          AADD #18, AR3 ; |2167| 
         00210f B4   
    7011 002110 F46D          AND #0xfff6, *AR3(#57) ; |2167| 
         002112 FFF6 
         002114 0039 
    7012                      .dwpsn  file "../c5535_bsl_revc/ezdsp5535_v1/c55xx_csl/src/csl_msc.c",line 2170,column 16,is_stmt
    7013 002116 0600          B $C$L161 ; |2170| 
         002118 B0   
    7014                                                      ; branch occurs ; |2170| 
    7015 002119       $C$L158:    
    7016                      .dwpsn  file "../c5535_bsl_revc/ezdsp5535_v1/c55xx_csl/src/csl_msc.c",line 2174,column 11,is_stmt
    7017 002119 ED00          MOV dbl(*SP(#0)), XAR0
         00211b 8F   
    7018 00211c 3C24          MOV #2, T0
    7019 00211e B40F          AMAR *+AR0(#266) ; |2174| 
         002120 010A 
    7020              $C$DW$464       .dwtag  DW_TAG_TI_branch
    7021                      .dwattr $C$DW$464, DW_AT_low_pc(0x00)
    7022                      .dwattr $C$DW$464, DW_AT_name("_MSC_SetSenseKeys")
    7023                      .dwattr $C$DW$464, DW_AT_TI_call
    7024              
    7025 002122 08DE          CALL #_MSC_SetSenseKeys ; |2174| 
         002124 D9   
    7026 002125 3D45  ||      MOV #4, T1
    7027              
    7028                                                      ; call occurs [#_MSC_SetSenseKeys] ; |2174| 
    7029                      .dwpsn  file "../c5535_bsl_revc/ezdsp5535_v1/c55xx_csl/src/csl_msc.c",line 2177,column 11,is_stmt
    7030 002127 ED00          MOV dbl(*SP(#0)), XAR3
         002129 BF   
    7031 00212a ED6D          MOV dbl(*AR3(#16)), AC0 ; |2177| 
         00212c 0800 
         00212e 10   
    7032 00212f 7DFF          AND #0xffff, AC0, AC0 ; |2177| 
         002131 FF00 
    7033 002133 C06D          MOV AC0, *AR3(#287) ; |2177| 
         002135 011F 
    7034                      .dwpsn  file "../c5535_bsl_revc/ezdsp5535_v1/c55xx_csl/src/csl_msc.c",line 2180,column 11,is_stmt
    7035 002137 ED00          MOV dbl(*SP(#0)), XAR3
         002139 BF   
    7036 00213a ED6D          MOV dbl(*AR3(#16)), AC0 ; |2180| 
         00213c 0800 
         00213e 10   
    7037 00213f BC6D          MOV HI(AC0), *AR3(#288) ; |2180| 
         002141 0120 
    7038                      .dwpsn  file "../c5535_bsl_revc/ezdsp5535_v1/c55xx_csl/src/csl_msc.c",line 2183,column 11,is_stmt
    7039 002143 ED00          MOV dbl(*SP(#0)), XAR3
         002145 BF   
    7040 002146 E66D          MOV #1, *AR3(#289) ; |2183| 
         002148 0101 
         00214a 21   
    7041                      .dwpsn  file "../c5535_bsl_revc/ezdsp5535_v1/c55xx_csl/src/csl_msc.c",line 2185,column 11,is_stmt
TMS320C55x Assembler PC v4.4.1 Tue Oct 02 02:33:20 2018

Tools Copyright (c) 1996-2012 Texas Instruments Incorporated
csl_msc.asm                                                          PAGE  173

    7042 00214b ED00          MOV dbl(*SP(#0)), XAR3
         00214d BF   
    7043 00214e DF04          MOV uns(*SP(#2)), AC1 ; |2185| 
         002150 15   
    7044 002151 1015          SFTS AC1, #6, AC0 ; |2185| 
         002153 06   
    7045 002154 1014          SUB AC1 << #1, AC0 ; |2185| 
         002156 01   
    7046 002157 900A          MOV AC0, XAR2
    7047 002159 14A1          AADD XAR2, XAR3 ; |2185| 
         00215b B0   
    7048 00215c E66D          MOV #1, *AR3(#78) ; |2185| 
         00215e 0100 
         002160 4E   
    7049                      .dwpsn  file "../c5535_bsl_revc/ezdsp5535_v1/c55xx_csl/src/csl_msc.c",line 2187,column 11,is_stmt
    7050 002161 ED00          MOV dbl(*SP(#0)), XAR3
         002163 BF   
    7051 002164 DF04          MOV uns(*SP(#2)), AC1 ; |2187| 
         002166 15   
    7052 002167 1015          SFTS AC1, #6, AC0 ; |2187| 
         002169 06   
    7053 00216a 1014          SUB AC1 << #1, AC0 ; |2187| 
         00216c 01   
    7054 00216d 900A          MOV AC0, XAR2
    7055 00216f 14A1          AADD XAR2, XAR3 ; |2187| 
         002171 B0   
    7056 002172 1412          AADD #18, AR3 ; |2187| 
         002174 B4   
    7057 002175 F46D          AND #0xfffe, *AR3(#57) ; |2187| 
         002177 FFFE 
         002179 0039 
    7058                      .dwpsn  file "../c5535_bsl_revc/ezdsp5535_v1/c55xx_csl/src/csl_msc.c",line 2189,column 11,is_stmt
    7059 00217b ED00          MOV dbl(*SP(#0)), XAR3
         00217d BF   
    7060 00217e DF04          MOV uns(*SP(#2)), AC1 ; |2189| 
         002180 15   
    7061 002181 1015          SFTS AC1, #6, AC0 ; |2189| 
         002183 06   
    7062 002184 1014          SUB AC1 << #1, AC0 ; |2189| 
         002186 01   
    7063 002187 900A          MOV AC0, XAR2
    7064 002189 14A1          AADD XAR2, XAR3 ; |2189| 
         00218b B0   
    7065 00218c 1412          AADD #18, AR3 ; |2189| 
         00218e B4   
    7066 00218f F56D          OR #0x0008, *AR3(#57) ; |2189| 
         002191 0008 
         002193 0039 
    7067                      .dwpsn  file "../c5535_bsl_revc/ezdsp5535_v1/c55xx_csl/src/csl_msc.c",line 2192,column 16,is_stmt
    7068 002195 4A32          B $C$L161 ; |2192| 
    7069                                                      ; branch occurs ; |2192| 
    7070 002197       $C$L159:    
    7071                      .dwpsn  file "../c5535_bsl_revc/ezdsp5535_v1/c55xx_csl/src/csl_msc.c",line 2098,column 7,is_stmt
    7072              
    7073 002197 A912          MOV *SP(#9), AR1 ; |2098| 
TMS320C55x Assembler PC v4.4.1 Tue Oct 02 02:33:20 2018

Tools Copyright (c) 1996-2012 Texas Instruments Incorporated
csl_msc.asm                                                          PAGE  174

    7074 002199 3D2A  ||      MOV #2, AR2
    7075              
    7076 00219b 12A4          CMP AR1 > AR2, TC1 ; |2098| 
         00219d 90   
    7077 00219e 0464          BCC $C$L160,TC1 ; |2098| 
         0021a0 16   
    7078                                                      ; branchcc occurs ; |2098| 
    7079 0021a1 1290          CMP AR1 == AR2, TC1 ; |2098| 
         0021a3 A0   
    7080 0021a4 6D64          BCC $C$L156,TC1 ; |2098| 
         0021a6 FEA3 
    7081                                                      ; branchcc occurs ; |2098| 
    7082 0021a8 6D09          BCC $C$L154,AR1 == #0 ; |2098| 
         0021aa FDE4 
    7083                                                      ; branchcc occurs ; |2098| 
    7084 0021ac 3C1A          MOV #1, AR2
    7085 0021ae 1290          CMP AR1 == AR2, TC1 ; |2098| 
         0021b0 A0   
    7086 0021b1 6D64          BCC $C$L155,TC1 ; |2098| 
         0021b3 FE28 
    7087                                                      ; branchcc occurs ; |2098| 
    7088 0021b5 4A12          B $C$L161 ; |2098| 
    7089                                                      ; branch occurs ; |2098| 
    7090 0021b7       $C$L160:    
    7091 0021b7 3C3A          MOV #3, AR2
    7092 0021b9 1290          CMP AR1 == AR2, TC1 ; |2098| 
         0021bb A0   
    7093 0021bc 6D64          BCC $C$L157,TC1 ; |2098| 
         0021be FEF2 
    7094                                                      ; branchcc occurs ; |2098| 
    7095 0021c0 3C4A          MOV #4, AR2
    7096 0021c2 1290          CMP AR1 == AR2, TC1 ; |2098| 
         0021c4 A0   
    7097 0021c5 6D64          BCC $C$L158,TC1 ; |2098| 
         0021c7 FF50 
    7098                                                      ; branchcc occurs ; |2098| 
    7099 0021c9       $C$L161:    
    7100                      .dwpsn  file "../c5535_bsl_revc/ezdsp5535_v1/c55xx_csl/src/csl_msc.c",line 2201,column 6,is_stmt
    7101 0021c9 ED00          MOV dbl(*SP(#0)), XAR3
         0021cb BF   
    7102 0021cc DF04          MOV uns(*SP(#2)), AC1 ; |2201| 
         0021ce 15   
    7103 0021cf 1015          SFTS AC1, #6, AC0 ; |2201| 
         0021d1 06   
    7104 0021d2 1014          SUB AC1 << #1, AC0 ; |2201| 
         0021d4 01   
    7105 0021d5 900A          MOV AC0, XAR2
    7106 0021d7 14A1          AADD XAR2, XAR3 ; |2201| 
         0021d9 B0   
    7107 0021da A96D          MOV *AR3(#77), AR1 ; |2201| 
         0021dc 004D 
    7108 0021de 6D09          BCC $C$L165,AR1 == #0 ; |2201| 
         0021e0 00AF 
    7109                                                      ; branchcc occurs ; |2201| 
    7110                      .dwpsn  file "../c5535_bsl_revc/ezdsp5535_v1/c55xx_csl/src/csl_msc.c",line 2205,column 4,is_stmt
TMS320C55x Assembler PC v4.4.1 Tue Oct 02 02:33:20 2018

Tools Copyright (c) 1996-2012 Texas Instruments Incorporated
csl_msc.asm                                                          PAGE  175

    7111 0021e2 ED00          MOV dbl(*SP(#0)), XAR3
         0021e4 BF   
    7112 0021e5 ED6D          MOV dbl(*AR3(#16)), AC0 ; |2205| 
         0021e7 0800 
         0021e9 10   
    7113 0021ea 0410          BCC $C$L162,AC0 != #0 ; |2205| 
         0021ec 12   
    7114                                                      ; branchcc occurs ; |2205| 
    7115                      .dwpsn  file "../c5535_bsl_revc/ezdsp5535_v1/c55xx_csl/src/csl_msc.c",line 2207,column 5,is_stmt
    7116 0021ed ED00          MOV dbl(*SP(#0)), XAR1
         0021ef 9F   
    7117 0021f0 ED00          MOV dbl(*SP(#0)), XAR0
         0021f2 8F   
    7118 0021f3 B42F          AMAR *+AR1(#314) ; |2207| 
         0021f5 013A 
    7119              $C$DW$465       .dwtag  DW_TAG_TI_branch
    7120                      .dwattr $C$DW$465, DW_AT_low_pc(0x00)
    7121                      .dwattr $C$DW$465, DW_AT_name("_MSC_sendCswWithPhaseError")
    7122                      .dwattr $C$DW$465, DW_AT_TI_call
    7123 0021f7 080A          CALL #_MSC_sendCswWithPhaseError ; |2207| 
         0021f9 BE   
    7124                                                      ; call occurs [#_MSC_sendCswWithPhaseError] ; |2207| 
    7125 0021fa C410          MOV T0, *SP(#8) ; |2207| 
    7126                      .dwpsn  file "../c5535_bsl_revc/ezdsp5535_v1/c55xx_csl/src/csl_msc.c",line 2209,column 4,is_stmt
    7127 0021fc 0601          B $C$L170 ; |2209| 
         0021fe 5D   
    7128                                                      ; branch occurs ; |2209| 
    7129 0021ff       $C$L162:    
    7130                      .dwpsn  file "../c5535_bsl_revc/ezdsp5535_v1/c55xx_csl/src/csl_msc.c",line 2212,column 5,is_stmt
    7131 0021ff DF04          MOV uns(*SP(#2)), AC1 ; |2212| 
         002201 15   
    7132 002202 1015          SFTS AC1, #6, AC0 ; |2212| 
         002204 06   
    7133 002205 1014          SUB AC1 << #1, AC0 ; |2212| 
         002207 01   
    7134 002208 900A          MOV AC0, XAR2
    7135 00220a 14A1          AADD XAR2, XAR3 ; |2212| 
         00220c B0   
    7136 00220d 1412          AADD #18, AR3 ; |2212| 
         00220f B4   
    7137 002210 F56D          OR #0x0004, *AR3(#57) ; |2212| 
         002212 0004 
         002214 0039 
    7138                      .dwpsn  file "../c5535_bsl_revc/ezdsp5535_v1/c55xx_csl/src/csl_msc.c",line 2213,column 5,is_stmt
    7139 002216 ED00          MOV dbl(*SP(#0)), XAR3
         002218 BF   
    7140 002219 DF04          MOV uns(*SP(#2)), AC1 ; |2213| 
         00221b 15   
    7141 00221c 1015          SFTS AC1, #6, AC0 ; |2213| 
         00221e 06   
    7142 00221f 1014          SUB AC1 << #1, AC0 ; |2213| 
         002221 01   
    7143 002222 900A          MOV AC0, XAR2
    7144 002224 14A1          AADD XAR2, XAR3 ; |2213| 
         002226 B0   
TMS320C55x Assembler PC v4.4.1 Tue Oct 02 02:33:20 2018

Tools Copyright (c) 1996-2012 Texas Instruments Incorporated
csl_msc.asm                                                          PAGE  176

    7145 002227 1412          AADD #18, AR3 ; |2213| 
         002229 B4   
    7146 00222a F76D          SUB #1, *AR3(#59) ; |2213| 
         00222c FFFF 
         00222e 003B 
    7147                      .dwpsn  file "../c5535_bsl_revc/ezdsp5535_v1/c55xx_csl/src/csl_msc.c",line 2214,column 5,is_stmt
    7148 002230 ED00          MOV dbl(*SP(#0)), XAR3
         002232 BF   
    7149 002233 DF04          MOV uns(*SP(#2)), AC1 ; |2214| 
         002235 15   
    7150 002236 1015          SFTS AC1, #6, AC0 ; |2214| 
         002238 06   
    7151 002239 1014          SUB AC1 << #1, AC0 ; |2214| 
         00223b 01   
    7152 00223c 900A          MOV AC0, XAR2
    7153 00223e 14A1          AADD XAR2, XAR3 ; |2214| 
         002240 B0   
    7154 002241 ED6D          MOV dbl(*AR3(#72)), AC1 ; |2214| 
         002243 1800 
         002245 48   
    7155 002246 ED00          MOV dbl(*SP(#0)), XAR3
         002248 BF   
    7156 002249 ED6D          MOV dbl(*AR3(#16)), AC0 ; |2214| 
         00224b 0800 
         00224d 10   
    7157 00224e 1218          CMPU AC1 >= AC0, TC1 ; |2214| 
         002250 04   
    7158 002251 0464          BCC $C$L163,TC1 ; |2214| 
         002253 16   
    7159                                                      ; branchcc occurs ; |2214| 
    7160                      .dwpsn  file "../c5535_bsl_revc/ezdsp5535_v1/c55xx_csl/src/csl_msc.c",line 2217,column 6,is_stmt
    7161 002254 DF04          MOV uns(*SP(#2)), AC1 ; |2217| 
         002256 15   
    7162 002257 1015          SFTS AC1, #6, AC0 ; |2217| 
         002259 06   
    7163 00225a 1014          SUB AC1 << #1, AC0 ; |2217| 
         00225c 01   
    7164 00225d 900A          MOV AC0, XAR2
    7165 00225f 14A1          AADD XAR2, XAR3 ; |2217| 
         002261 B0   
    7166 002262 A96D          MOV *AR3(#73), AR1 ; |2217| 
         002264 0049 
    7167 002266 C90E          MOV AR1, *SP(#7) ; |2217| 
    7168                      .dwpsn  file "../c5535_bsl_revc/ezdsp5535_v1/c55xx_csl/src/csl_msc.c",line 2218,column 5,is_stmt
    7169 002268 4A0B          B $C$L164 ; |2218| 
    7170                                                      ; branch occurs ; |2218| 
    7171 00226a       $C$L163:    
    7172                      .dwpsn  file "../c5535_bsl_revc/ezdsp5535_v1/c55xx_csl/src/csl_msc.c",line 2221,column 6,is_stmt
    7173 00226a ED6D          MOV dbl(*AR3(#16)), AC0 ; |2221| 
         00226c 0800 
         00226e 10   
    7174 00226f 7DFF          AND #0xffff, AC0, AC0 ; |2221| 
         002271 FF00 
    7175 002273 C00E          MOV AC0, *SP(#7) ; |2221| 
    7176 002275       $C$L164:    
TMS320C55x Assembler PC v4.4.1 Tue Oct 02 02:33:20 2018

Tools Copyright (c) 1996-2012 Texas Instruments Incorporated
csl_msc.asm                                                          PAGE  177

    7177                      .dwpsn  file "../c5535_bsl_revc/ezdsp5535_v1/c55xx_csl/src/csl_msc.c",line 2225,column 5,is_stmt
    7178 002275 ED00          MOV dbl(*SP(#0)), XAR3
         002277 BF   
    7179 002278 ED00          MOV dbl(*SP(#0)), XAR0
         00227a 8F   
    7180 00227b A40E          MOV *SP(#7), T0 ; |2225| 
    7181 00227d ED6D          MOV dbl(*AR3(#14)), XAR1
         00227f 9F00 
         002281 0E   
    7182 002282 B40F          AMAR *+AR0(#334) ; |2225| 
         002284 014E 
    7183              $C$DW$466       .dwtag  DW_TAG_TI_branch
    7184                      .dwattr $C$DW$466, DW_AT_low_pc(0x00)
    7185                      .dwattr $C$DW$466, DW_AT_name("_USB_postTransaction")
    7186                      .dwattr $C$DW$466, DW_AT_TI_call
    7187              
    7188 002286 6C00          CALL #_USB_postTransaction ; |2225| 
         002288 0000!
    7189 00228a 3D15  ||      MOV #1, T1
    7190              
    7191                                                      ; call occurs [#_USB_postTransaction] ; |2225| 
    7192 00228c C410          MOV T0, *SP(#8) ; |2225| 
    7193                      .dwpsn  file "../c5535_bsl_revc/ezdsp5535_v1/c55xx_csl/src/csl_msc.c",line 2229,column 6,is_stmt
    7194 00228e 0600          B $C$L170 ; |2229| 
         002290 CB   
    7195                                                      ; branch occurs ; |2229| 
    7196 002291       $C$L165:    
    7197                      .dwpsn  file "../c5535_bsl_revc/ezdsp5535_v1/c55xx_csl/src/csl_msc.c",line 2237,column 4,is_stmt
    7198 002291 ED00          MOV dbl(*SP(#0)), XAR3
         002293 BF   
    7199 002294 ED6D          MOV dbl(*AR3(#16)), AC0 ; |2237| 
         002296 0800 
         002298 10   
    7200 002299 6D00          BCC $C$L169,AC0 == #0 ; |2237| 
         00229b 00A2 
    7201                                                      ; branchcc occurs ; |2237| 
    7202                      .dwpsn  file "../c5535_bsl_revc/ezdsp5535_v1/c55xx_csl/src/csl_msc.c",line 2241,column 5,is_stmt
    7203 00229d F06D          CMP *AR3(#361) == #1, TC1 ; |2241| 
         00229f 0001 
         0022a1 0169 
    7204 0022a3 0474          BCC $C$L166,!TC1 ; |2241| 
         0022a5 29   
    7205                                                      ; branchcc occurs ; |2241| 
    7206                      .dwpsn  file "../c5535_bsl_revc/ezdsp5535_v1/c55xx_csl/src/csl_msc.c",line 2243,column 6,is_stmt
    7207 0022a6 E66D          MOV #0, *AR3(#361) ; |2243| 
         0022a8 0001 
         0022aa 69   
    7208                      .dwpsn  file "../c5535_bsl_revc/ezdsp5535_v1/c55xx_csl/src/csl_msc.c",line 2244,column 8,is_stmt
    7209 0022ab ED00          MOV dbl(*SP(#0)), XAR3
         0022ad BF   
    7210 0022ae ED6D          MOV dbl(*AR3(#16)), AC0 ; |2244| 
         0022b0 0800 
         0022b2 10   
    7211 0022b3 7DFF          AND #0xffff, AC0, AC0 ; |2244| 
         0022b5 FF00 
TMS320C55x Assembler PC v4.4.1 Tue Oct 02 02:33:20 2018

Tools Copyright (c) 1996-2012 Texas Instruments Incorporated
csl_msc.asm                                                          PAGE  178

    7212 0022b7 C06D          MOV AC0, *AR3(#287) ; |2244| 
         0022b9 011F 
    7213                      .dwpsn  file "../c5535_bsl_revc/ezdsp5535_v1/c55xx_csl/src/csl_msc.c",line 2247,column 8,is_stmt
    7214 0022bb ED00          MOV dbl(*SP(#0)), XAR3
         0022bd BF   
    7215 0022be ED6D          MOV dbl(*AR3(#16)), AC0 ; |2247| 
         0022c0 0800 
         0022c2 10   
    7216 0022c3 BC6D          MOV HI(AC0), *AR3(#288) ; |2247| 
         0022c5 0120 
    7217                      .dwpsn  file "../c5535_bsl_revc/ezdsp5535_v1/c55xx_csl/src/csl_msc.c",line 2250,column 8,is_stmt
    7218 0022c7 ED00          MOV dbl(*SP(#0)), XAR3
         0022c9 BF   
    7219 0022ca E66D          MOV #0, *AR3(#289) ; |2250| 
         0022cc 0001 
         0022ce 21   
    7220 0022cf       $C$L166:    
    7221                      .dwpsn  file "../c5535_bsl_revc/ezdsp5535_v1/c55xx_csl/src/csl_msc.c",line 2254,column 5,is_stmt
    7222 0022cf ED00          MOV dbl(*SP(#0)), XAR3
         0022d1 BF   
    7223 0022d2 DF04          MOV uns(*SP(#2)), AC1 ; |2254| 
         0022d4 15   
    7224 0022d5 1015          SFTS AC1, #6, AC0 ; |2254| 
         0022d7 06   
    7225 0022d8 1014          SUB AC1 << #1, AC0 ; |2254| 
         0022da 01   
    7226 0022db 900A          MOV AC0, XAR2
    7227 0022dd 14A1          AADD XAR2, XAR3 ; |2254| 
         0022df B0   
    7228 0022e0 ED6D          MOV dbl(*AR3(#72)), AC1 ; |2254| 
         0022e2 1800 
         0022e4 48   
    7229 0022e5 ED00          MOV dbl(*SP(#0)), XAR3
         0022e7 BF   
    7230 0022e8 ED6D          MOV dbl(*AR3(#16)), AC0 ; |2254| 
         0022ea 0800 
         0022ec 10   
    7231 0022ed 1218          CMPU AC1 >= AC0, TC1 ; |2254| 
         0022ef 04   
    7232 0022f0 0464          BCC $C$L167,TC1 ; |2254| 
         0022f2 16   
    7233                                                      ; branchcc occurs ; |2254| 
    7234                      .dwpsn  file "../c5535_bsl_revc/ezdsp5535_v1/c55xx_csl/src/csl_msc.c",line 2257,column 6,is_stmt
    7235 0022f3 DF04          MOV uns(*SP(#2)), AC1 ; |2257| 
         0022f5 15   
    7236 0022f6 1015          SFTS AC1, #6, AC0 ; |2257| 
         0022f8 06   
    7237 0022f9 1014          SUB AC1 << #1, AC0 ; |2257| 
         0022fb 01   
    7238 0022fc 900A          MOV AC0, XAR2
    7239 0022fe 14A1          AADD XAR2, XAR3 ; |2257| 
         002300 B0   
    7240 002301 A96D          MOV *AR3(#73), AR1 ; |2257| 
         002303 0049 
    7241 002305 C90E          MOV AR1, *SP(#7) ; |2257| 
TMS320C55x Assembler PC v4.4.1 Tue Oct 02 02:33:20 2018

Tools Copyright (c) 1996-2012 Texas Instruments Incorporated
csl_msc.asm                                                          PAGE  179

    7242                      .dwpsn  file "../c5535_bsl_revc/ezdsp5535_v1/c55xx_csl/src/csl_msc.c",line 2258,column 5,is_stmt
    7243 002307 4A0B          B $C$L168 ; |2258| 
    7244                                                      ; branch occurs ; |2258| 
    7245 002309       $C$L167:    
    7246                      .dwpsn  file "../c5535_bsl_revc/ezdsp5535_v1/c55xx_csl/src/csl_msc.c",line 2261,column 6,is_stmt
    7247 002309 ED6D          MOV dbl(*AR3(#16)), AC0 ; |2261| 
         00230b 0800 
         00230d 10   
    7248 00230e 7DFF          AND #0xffff, AC0, AC0 ; |2261| 
         002310 FF00 
    7249 002312 C00E          MOV AC0, *SP(#7) ; |2261| 
    7250 002314       $C$L168:    
    7251                      .dwpsn  file "../c5535_bsl_revc/ezdsp5535_v1/c55xx_csl/src/csl_msc.c",line 2265,column 5,is_stmt
    7252 002314 ED00          MOV dbl(*SP(#0)), XAR3
         002316 BF   
    7253 002317 DF0E          MOV uns(*SP(#7)), AC0 ; |2265| 
         002319 05   
    7254 00231a ED6D          SUB AC0, dbl(*AR3(#16)), AC0 ; |2265| 
         00231c 0400 
         00231e 10   
    7255 00231f EB6D          MOV AC0, dbl(*AR3(#16)) ; |2265| 
         002321 0800 
         002323 10   
    7256                      .dwpsn  file "../c5535_bsl_revc/ezdsp5535_v1/c55xx_csl/src/csl_msc.c",line 2267,column 5,is_stmt
    7257 002324 ED00          MOV dbl(*SP(#0)), XAR0
         002326 8F   
    7258 002327 ED00          MOV dbl(*SP(#0)), XAR3
         002329 BF   
    7259 00232a A40E          MOV *SP(#7), T0 ; |2267| 
    7260 00232c B40F          AMAR *+AR0(#334) ; |2267| 
         00232e 014E 
    7261 002330 ED6D          MOV dbl(*AR3(#14)), XAR1
         002332 9F00 
         002334 0E   
    7262              $C$DW$467       .dwtag  DW_TAG_TI_branch
    7263                      .dwattr $C$DW$467, DW_AT_low_pc(0x00)
    7264                      .dwattr $C$DW$467, DW_AT_name("_USB_postTransaction")
    7265                      .dwattr $C$DW$467, DW_AT_TI_call
    7266              
    7267 002335 6C00          CALL #_USB_postTransaction ; |2267| 
         002337 0000!
    7268 002339 3D15  ||      MOV #1, T1
    7269              
    7270                                                      ; call occurs [#_USB_postTransaction] ; |2267| 
    7271 00233b C410          MOV T0, *SP(#8) ; |2267| 
    7272                      .dwpsn  file "../c5535_bsl_revc/ezdsp5535_v1/c55xx_csl/src/csl_msc.c",line 2270,column 4,is_stmt
    7273 00233d 4A1D          B $C$L170 ; |2270| 
    7274                                                      ; branch occurs ; |2270| 
    7275 00233f       $C$L169:    
    7276                      .dwpsn  file "../c5535_bsl_revc/ezdsp5535_v1/c55xx_csl/src/csl_msc.c",line 2273,column 5,is_stmt
    7277 00233f E66D          MOV #4, *AR3(#355) ; |2273| 
         002341 0401 
         002343 63   
    7278                      .dwpsn  file "../c5535_bsl_revc/ezdsp5535_v1/c55xx_csl/src/csl_msc.c",line 2274,column 5,is_stmt
    7279 002344 ED00          MOV dbl(*SP(#0)), XAR1
TMS320C55x Assembler PC v4.4.1 Tue Oct 02 02:33:20 2018

Tools Copyright (c) 1996-2012 Texas Instruments Incorporated
csl_msc.asm                                                          PAGE  180

         002346 9F   
    7280 002347 ED00          MOV dbl(*SP(#0)), XAR0
         002349 8F   
    7281 00234a 3CD4          MOV #13, T0
    7282 00234c B42F          AMAR *+AR1(#282) ; |2274| 
         00234e 011A 
    7283 002350 B40F          AMAR *+AR0(#314) ; |2274| 
         002352 013A 
    7284              $C$DW$468       .dwtag  DW_TAG_TI_branch
    7285                      .dwattr $C$DW$468, DW_AT_low_pc(0x00)
    7286                      .dwattr $C$DW$468, DW_AT_name("_USB_postTransaction")
    7287                      .dwattr $C$DW$468, DW_AT_TI_call
    7288              
    7289 002354 6C00          CALL #_USB_postTransaction ; |2274| 
         002356 0000!
    7290 002358 3D05  ||      MOV #0, T1
    7291              
    7292                                                      ; call occurs [#_USB_postTransaction] ; |2274| 
    7293 00235a C410          MOV T0, *SP(#8) ; |2274| 
    7294 00235c       $C$L170:    
    7295                      .dwpsn  file "../c5535_bsl_revc/ezdsp5535_v1/c55xx_csl/src/csl_msc.c",line 2282,column 2,is_stmt
    7296 00235c A410          MOV *SP(#8), T0 ; |2282| 
    7297 00235e       $C$L171:    
    7298                      .dwpsn  file "../c5535_bsl_revc/ezdsp5535_v1/c55xx_csl/src/csl_msc.c",line 2283,column 1,is_stmt
    7299 00235e 4E0B          AADD #11, SP
    7300                      .dwcfi  cfa_offset, 1
    7301              $C$DW$469       .dwtag  DW_TAG_TI_branch
    7302                      .dwattr $C$DW$469, DW_AT_low_pc(0x00)
    7303                      .dwattr $C$DW$469, DW_AT_TI_return
    7304 002360 4804          RET
    7305                                                      ; return occurs
    7306                      .dwattr $C$DW$443, DW_AT_TI_end_file("../c5535_bsl_revc/ezdsp5535_v1/c55xx_csl/src/csl_msc.c")
    7307                      .dwattr $C$DW$443, DW_AT_TI_end_line(0x8eb)
    7308                      .dwattr $C$DW$443, DW_AT_TI_end_column(0x01)
    7309                      .dwendentry
    7310                      .dwendtag $C$DW$443
    7311              
    7312 002362               .sect   ".text"
    7313                      .align 4
    7314                      .global _MSC_HandleTestUnitReady
    7315              
    7316              $C$DW$470       .dwtag  DW_TAG_subprogram, DW_AT_name("MSC_HandleTestUnitReady")
    7317                      .dwattr $C$DW$470, DW_AT_low_pc(_MSC_HandleTestUnitReady)
    7318                      .dwattr $C$DW$470, DW_AT_high_pc(0x00)
    7319                      .dwattr $C$DW$470, DW_AT_TI_symbol_name("_MSC_HandleTestUnitReady")
    7320                      .dwattr $C$DW$470, DW_AT_external
    7321                      .dwattr $C$DW$470, DW_AT_type(*$C$DW$T$89)
    7322                      .dwattr $C$DW$470, DW_AT_TI_begin_file("../c5535_bsl_revc/ezdsp5535_v1/c55xx_csl/src/csl_msc.c")
    7323                      .dwattr $C$DW$470, DW_AT_TI_begin_line(0x91a)
    7324                      .dwattr $C$DW$470, DW_AT_TI_begin_column(0x0c)
    7325                      .dwattr $C$DW$470, DW_AT_TI_max_frame_size(0x0a)
    7326                      .dwpsn  file "../c5535_bsl_revc/ezdsp5535_v1/c55xx_csl/src/csl_msc.c",line 2333,column 1,is_stmt,addr
    7327              
    7328                      .dwfde $C$DW$CIE, _MSC_HandleTestUnitReady
    7329              $C$DW$471       .dwtag  DW_TAG_formal_parameter, DW_AT_name("pMscHandle")
TMS320C55x Assembler PC v4.4.1 Tue Oct 02 02:33:20 2018

Tools Copyright (c) 1996-2012 Texas Instruments Incorporated
csl_msc.asm                                                          PAGE  181

    7330                      .dwattr $C$DW$471, DW_AT_TI_symbol_name("_pMscHandle")
    7331                      .dwattr $C$DW$471, DW_AT_type(*$C$DW$T$107)
    7332                      .dwattr $C$DW$471, DW_AT_location[DW_OP_reg17]
    7333              $C$DW$472       .dwtag  DW_TAG_formal_parameter, DW_AT_name("hUsbInEp")
    7334                      .dwattr $C$DW$472, DW_AT_TI_symbol_name("_hUsbInEp")
    7335                      .dwattr $C$DW$472, DW_AT_type(*$C$DW$T$27)
    7336                      .dwattr $C$DW$472, DW_AT_location[DW_OP_reg19]
    7337              $C$DW$473       .dwtag  DW_TAG_formal_parameter, DW_AT_name("logicalUnit")
    7338                      .dwattr $C$DW$473, DW_AT_TI_symbol_name("_logicalUnit")
    7339                      .dwattr $C$DW$473, DW_AT_type(*$C$DW$T$25)
    7340                      .dwattr $C$DW$473, DW_AT_location[DW_OP_reg12]
    7341              ;*******************************************************************************
    7342              ;* FUNCTION NAME: MSC_HandleTestUnitReady                                      *
    7343              ;*                                                                             *
    7344              ;*   Function Uses Regs : AC0,AC0,AC1,AC1,AC2,AC2,T0,T1,AR0,XAR0,AR1,XAR1,AR2, *
    7345              ;*                        XAR2,AR3,XAR3,SP,CARRY,TC1,M40,SATA,SATD,RDM,FRCT,   *
    7346              ;*                        SMUL                                                 *
    7347              ;*   Stack Frame        : Compact (No Frame Pointer, w/ debug)                 *
    7348              ;*   Total Frame Size   : 10 words                                             *
    7349              ;*                        (2 return address/alignment)                         *
    7350              ;*                        (8 local values)                                     *
    7351              ;*   Min System Stack   : 1 word                                               *
    7352              ;*******************************************************************************
    7353 002364       _MSC_HandleTestUnitReady:
    7354                      .dwcfi  cfa_offset, 1
    7355                      .dwcfi  save_reg_to_mem, 91, -1
    7356 002364 4EF7          AADD #-9, SP
    7357                      .dwcfi  cfa_offset, 10
    7358              $C$DW$474       .dwtag  DW_TAG_variable, DW_AT_name("pMscHandle")
    7359                      .dwattr $C$DW$474, DW_AT_TI_symbol_name("_pMscHandle")
    7360                      .dwattr $C$DW$474, DW_AT_type(*$C$DW$T$107)
    7361                      .dwattr $C$DW$474, DW_AT_location[DW_OP_bregx 0x24 0]
    7362              $C$DW$475       .dwtag  DW_TAG_variable, DW_AT_name("hUsbInEp")
    7363                      .dwattr $C$DW$475, DW_AT_TI_symbol_name("_hUsbInEp")
    7364                      .dwattr $C$DW$475, DW_AT_type(*$C$DW$T$27)
    7365                      .dwattr $C$DW$475, DW_AT_location[DW_OP_bregx 0x24 2]
    7366              $C$DW$476       .dwtag  DW_TAG_variable, DW_AT_name("logicalUnit")
    7367                      .dwattr $C$DW$476, DW_AT_TI_symbol_name("_logicalUnit")
    7368                      .dwattr $C$DW$476, DW_AT_type(*$C$DW$T$25)
    7369                      .dwattr $C$DW$476, DW_AT_location[DW_OP_bregx 0x24 4]
    7370              $C$DW$477       .dwtag  DW_TAG_variable, DW_AT_name("status")
    7371                      .dwattr $C$DW$477, DW_AT_TI_symbol_name("_status")
    7372                      .dwattr $C$DW$477, DW_AT_type(*$C$DW$T$89)
    7373                      .dwattr $C$DW$477, DW_AT_location[DW_OP_bregx 0x24 5]
    7374              $C$DW$478       .dwtag  DW_TAG_variable, DW_AT_name("mediaPresentStat")
    7375                      .dwattr $C$DW$478, DW_AT_TI_symbol_name("_mediaPresentStat")
    7376                      .dwattr $C$DW$478, DW_AT_type(*$C$DW$T$52)
    7377                      .dwattr $C$DW$478, DW_AT_location[DW_OP_bregx 0x24 6]
    7378              $C$DW$479       .dwtag  DW_TAG_variable, DW_AT_name("mediaInitStat")
    7379                      .dwattr $C$DW$479, DW_AT_TI_symbol_name("_mediaInitStat")
    7380                      .dwattr $C$DW$479, DW_AT_type(*$C$DW$T$52)
    7381                      .dwattr $C$DW$479, DW_AT_location[DW_OP_bregx 0x24 7]
    7382 002366 C408          MOV T0, *SP(#4) ; |2333| 
    7383 002368 EB04          MOV XAR1, dbl(*SP(#2))
         00236a 95   
TMS320C55x Assembler PC v4.4.1 Tue Oct 02 02:33:20 2018

Tools Copyright (c) 1996-2012 Texas Instruments Incorporated
csl_msc.asm                                                          PAGE  182

    7384 00236b EB00          MOV XAR0, dbl(*SP(#0))
         00236d 85   
    7385                      .dwpsn  file "../c5535_bsl_revc/ezdsp5535_v1/c55xx_csl/src/csl_msc.c",line 2338,column 2,is_stmt
    7386 00236e ED00          MOV dbl(*SP(#0)), XAR3
         002370 BF   
    7387 002371 ED6D          MOV dbl(*AR3(#16)), AC0 ; |2338| 
         002373 0800 
         002375 10   
    7388 002376 0400          BCC $C$L172,AC0 == #0 ; |2338| 
         002378 42   
    7389                                                      ; branchcc occurs ; |2338| 
    7390                      .dwpsn  file "../c5535_bsl_revc/ezdsp5535_v1/c55xx_csl/src/csl_msc.c",line 2341,column 3,is_stmt
    7391 002379 E66D          MOV #2, *AR3(#355) ; |2341| 
         00237b 0201 
         00237d 63   
    7392                      .dwpsn  file "../c5535_bsl_revc/ezdsp5535_v1/c55xx_csl/src/csl_msc.c",line 2342,column 3,is_stmt
    7393 00237e ED00          MOV dbl(*SP(#0)), XAR0
         002380 8F   
    7394 002381 B40F          AMAR *+AR0(#334) ; |2342| 
         002383 014E 
    7395              $C$DW$480       .dwtag  DW_TAG_TI_branch
    7396                      .dwattr $C$DW$480, DW_AT_low_pc(0x00)
    7397                      .dwattr $C$DW$480, DW_AT_name("_USB_stallEndpt")
    7398                      .dwattr $C$DW$480, DW_AT_TI_call
    7399 002385 6C00          CALL #_USB_stallEndpt ; |2342| 
         002387 0000!
    7400                                                      ; call occurs [#_USB_stallEndpt] ; |2342| 
    7401 002389 C40A          MOV T0, *SP(#5) ; |2342| 
    7402                      .dwpsn  file "../c5535_bsl_revc/ezdsp5535_v1/c55xx_csl/src/csl_msc.c",line 2343,column 3,is_stmt
    7403 00238b ED00          MOV dbl(*SP(#0)), XAR0
         00238d 8F   
    7404 00238e B40F          AMAR *+AR0(#314) ; |2343| 
         002390 013A 
    7405              $C$DW$481       .dwtag  DW_TAG_TI_branch
    7406                      .dwattr $C$DW$481, DW_AT_low_pc(0x00)
    7407                      .dwattr $C$DW$481, DW_AT_name("_USB_stallEndpt")
    7408                      .dwattr $C$DW$481, DW_AT_TI_call
    7409 002392 6C00          CALL #_USB_stallEndpt ; |2343| 
         002394 0000!
    7410                                                      ; call occurs [#_USB_stallEndpt] ; |2343| 
    7411 002396 C40A          MOV T0, *SP(#5) ; |2343| 
    7412                      .dwpsn  file "../c5535_bsl_revc/ezdsp5535_v1/c55xx_csl/src/csl_msc.c",line 2347,column 3,is_stmt
    7413 002398 ED00          MOV dbl(*SP(#0)), XAR0
         00239a 8F   
    7414 00239b ED00          MOV dbl(*SP(#0)), XAR3
         00239d BF   
    7415 00239e 7600          MOV #32, T1 ; |2347| 
         0023a0 2058 
    7416 0023a2 B40F          AMAR *+AR0(#314) ; |2347| 
         0023a4 013A 
    7417 0023a6 ED6D          MOV dbl(*AR3(#14)), XAR1
         0023a8 9F00 
         0023aa 0E   
    7418              $C$DW$482       .dwtag  DW_TAG_TI_branch
    7419                      .dwattr $C$DW$482, DW_AT_low_pc(0x00)
TMS320C55x Assembler PC v4.4.1 Tue Oct 02 02:33:20 2018

Tools Copyright (c) 1996-2012 Texas Instruments Incorporated
csl_msc.asm                                                          PAGE  183

    7420                      .dwattr $C$DW$482, DW_AT_name("_USB_postTransaction")
    7421                      .dwattr $C$DW$482, DW_AT_TI_call
    7422              
    7423 0023ab 6C00          CALL #_USB_postTransaction ; |2347| 
         0023ad 0000!
    7424 0023af 3D04  ||      MOV #0, T0
    7425              
    7426                                                      ; call occurs [#_USB_postTransaction] ; |2347| 
    7427 0023b1 DA0A          OR *SP(#5), T0, AR1 ; |2347| 
         0023b3 94   
    7428 0023b4 C90A          MOV AR1, *SP(#5) ; |2347| 
    7429                      .dwpsn  file "../c5535_bsl_revc/ezdsp5535_v1/c55xx_csl/src/csl_msc.c",line 2352,column 3,is_stmt
    7430 0023b6 2294          MOV AR1, T0
    7431 0023b8 0601          B $C$L179 ; |2352| 
         0023ba FA   
    7432                                                      ; branch occurs ; |2352| 
    7433 0023bb       $C$L172:    
    7434                      .dwpsn  file "../c5535_bsl_revc/ezdsp5535_v1/c55xx_csl/src/csl_msc.c",line 2356,column 2,is_stmt
    7435 0023bb ED79          MOV dbl(*AR3(short(#4))), AC0 ; |2356| 
         0023bd 08   
    7436 0023be A408          MOV *SP(#4), T0 ; |2356| 
    7437              $C$DW$483       .dwtag  DW_TAG_TI_branch
    7438                      .dwattr $C$DW$483, DW_AT_low_pc(0x00)
    7439                      .dwattr $C$DW$483, DW_AT_TI_call
    7440                      .dwattr $C$DW$483, DW_AT_TI_indirect
    7441 0023c0 9200          CALL AC0  ; |2356| 
    7442                                                      ; call occurs [AC0] ; |2356| 
    7443 0023c2 C40C          MOV T0, *SP(#6) ; |2356| 
    7444                      .dwpsn  file "../c5535_bsl_revc/ezdsp5535_v1/c55xx_csl/src/csl_msc.c",line 2358,column 2,is_stmt
    7445 0023c4 ED00          MOV dbl(*SP(#0)), XAR3
         0023c6 BF   
    7446 0023c7 E66D          MOV #1, *AR3(#289) ; |2358| 
         0023c9 0101 
         0023cb 21   
    7447                      .dwpsn  file "../c5535_bsl_revc/ezdsp5535_v1/c55xx_csl/src/csl_msc.c",line 2360,column 2,is_stmt
    7448 0023cc F00C          CMP *SP(#6) == #1, TC1 ; |2360| 
         0023ce 0001 
    7449 0023d0 6D74          BCC $C$L176,!TC1 ; |2360| 
         0023d2 013E 
    7450                                                      ; branchcc occurs ; |2360| 
    7451                      .dwpsn  file "../c5535_bsl_revc/ezdsp5535_v1/c55xx_csl/src/csl_msc.c",line 2363,column 3,is_stmt
    7452 0023d4 ED00          MOV dbl(*SP(#0)), XAR3
         0023d6 BF   
    7453 0023d7 DF08          MOV uns(*SP(#4)), AC1 ; |2363| 
         0023d9 15   
    7454 0023da 1015          SFTS AC1, #6, AC0 ; |2363| 
         0023dc 06   
    7455 0023dd 1014          SUB AC1 << #1, AC0 ; |2363| 
         0023df 01   
    7456 0023e0 900A          MOV AC0, XAR2
    7457 0023e2 14A1          AADD XAR2, XAR3 ; |2363| 
         0023e4 B0   
    7458 0023e5 DC6D          BTST #0, *AR3(#75), TC1 ; |2363| 
         0023e7 0000 
         0023e9 4B   
TMS320C55x Assembler PC v4.4.1 Tue Oct 02 02:33:20 2018

Tools Copyright (c) 1996-2012 Texas Instruments Incorporated
csl_msc.asm                                                          PAGE  184

    7459 0023ea 6D64          BCC $C$L175,TC1 ; |2363| 
         0023ec 010B 
    7460                                                      ; branchcc occurs ; |2363| 
    7461                      .dwpsn  file "../c5535_bsl_revc/ezdsp5535_v1/c55xx_csl/src/csl_msc.c",line 2366,column 4,is_stmt
    7462 0023ee ED00          MOV dbl(*SP(#0)), XAR3
         0023f0 BF   
    7463 0023f1 A408          MOV *SP(#4), T0 ; |2366| 
    7464 0023f3 ED7D          MOV dbl(*AR3(short(#6))), AC0 ; |2366| 
         0023f5 08   
    7465              $C$DW$484       .dwtag  DW_TAG_TI_branch
    7466                      .dwattr $C$DW$484, DW_AT_low_pc(0x00)
    7467                      .dwattr $C$DW$484, DW_AT_TI_call
    7468                      .dwattr $C$DW$484, DW_AT_TI_indirect
    7469 0023f6 9200          CALL AC0  ; |2366| 
    7470                                                      ; call occurs [AC0] ; |2366| 
    7471 0023f8 C40E          MOV T0, *SP(#7) ; |2366| 
    7472                      .dwpsn  file "../c5535_bsl_revc/ezdsp5535_v1/c55xx_csl/src/csl_msc.c",line 2369,column 4,is_stmt
    7473 0023fa ED00          MOV dbl(*SP(#0)), XAR3
         0023fc BF   
    7474 0023fd A408          MOV *SP(#4), T0 ; |2369| 
    7475 0023ff ED6D          MOV dbl(*AR3(#12)), AC0 ; |2369| 
         002401 0800 
         002403 0C   
    7476              $C$DW$485       .dwtag  DW_TAG_TI_branch
    7477                      .dwattr $C$DW$485, DW_AT_low_pc(0x00)
    7478                      .dwattr $C$DW$485, DW_AT_TI_call
    7479                      .dwattr $C$DW$485, DW_AT_TI_indirect
    7480 002404 9200          CALL AC0  ; |2369| 
    7481                                                      ; call occurs [AC0] ; |2369| 
    7482 002406 ED00          MOV dbl(*SP(#0)), XAR3
         002408 BF   
    7483 002409 DF08          MOV uns(*SP(#4)), AC1 ; |2369| 
         00240b 15   
    7484              
    7485 002410 1115          SFTS AC1, #6, AC0 ; |2369| 
         002412 06   
    7486 00240c 7C00  ||      SUB #1, AC0, AC2 ; |2369| 
         00240e 0120 
    7487              
    7488 002413 1014          SUB AC1 << #1, AC0 ; |2369| 
         002415 01   
    7489 002416 900A          MOV AC0, XAR2
    7490 002418 14A1          AADD XAR2, XAR3 ; |2369| 
         00241a B0   
    7491 00241b EB6D          MOV AC2, dbl(*AR3(#68)) ; |2369| 
         00241d 2800 
         00241f 44   
    7492                      .dwpsn  file "../c5535_bsl_revc/ezdsp5535_v1/c55xx_csl/src/csl_msc.c",line 2372,column 4,is_stmt
    7493 002420 F00E          CMP *SP(#7) == #1, TC1 ; |2372| 
         002422 0001 
    7494 002424 0474          BCC $C$L173,!TC1 ; |2372| 
         002426 47   
    7495                                                      ; branchcc occurs ; |2372| 
    7496                      .dwpsn  file "../c5535_bsl_revc/ezdsp5535_v1/c55xx_csl/src/csl_msc.c",line 2374,column 6,is_stmt
    7497 002427 ED00          MOV dbl(*SP(#0)), XAR0
TMS320C55x Assembler PC v4.4.1 Tue Oct 02 02:33:20 2018

Tools Copyright (c) 1996-2012 Texas Instruments Incorporated
csl_msc.asm                                                          PAGE  185

         002429 8F   
    7498 00242a 7600          MOV #40, T1 ; |2374| 
         00242c 2858 
    7499 00242e B40F          AMAR *+AR0(#266) ; |2374| 
         002430 010A 
    7500              $C$DW$486       .dwtag  DW_TAG_TI_branch
    7501                      .dwattr $C$DW$486, DW_AT_low_pc(0x00)
    7502                      .dwattr $C$DW$486, DW_AT_name("_MSC_SetSenseKeys")
    7503                      .dwattr $C$DW$486, DW_AT_TI_call
    7504              
    7505 002432 08DB          CALL #_MSC_SetSenseKeys ; |2374| 
         002434 C9   
    7506 002435 3D64  ||      MOV #6, T0
    7507              
    7508                                                      ; call occurs [#_MSC_SetSenseKeys] ; |2374| 
    7509                      .dwpsn  file "../c5535_bsl_revc/ezdsp5535_v1/c55xx_csl/src/csl_msc.c",line 2377,column 6,is_stmt
    7510 002437 ED00          MOV dbl(*SP(#0)), XAR3
         002439 BF   
    7511 00243a DF08          MOV uns(*SP(#4)), AC1 ; |2377| 
         00243c 15   
    7512 00243d 1015          SFTS AC1, #6, AC0 ; |2377| 
         00243f 06   
    7513 002440 1014          SUB AC1 << #1, AC0 ; |2377| 
         002442 01   
    7514 002443 900A          MOV AC0, XAR2
    7515 002445 14A1          AADD XAR2, XAR3 ; |2377| 
         002447 B0   
    7516 002448 1412          AADD #18, AR3 ; |2377| 
         00244a B4   
    7517 00244b F56D          OR #0x0001, *AR3(#57) ; |2377| 
         00244d 0001 
         00244f 0039 
    7518                      .dwpsn  file "../c5535_bsl_revc/ezdsp5535_v1/c55xx_csl/src/csl_msc.c",line 2378,column 6,is_stmt
    7519 002451 ED00          MOV dbl(*SP(#0)), XAR3
         002453 BF   
    7520 002454 DF08          MOV uns(*SP(#4)), AC1 ; |2378| 
         002456 15   
    7521 002457 1015          SFTS AC1, #6, AC0 ; |2378| 
         002459 06   
    7522 00245a 1014          SUB AC1 << #1, AC0 ; |2378| 
         00245c 01   
    7523 00245d 900A          MOV AC0, XAR2
    7524 00245f 14A1          AADD XAR2, XAR3 ; |2378| 
         002461 B0   
    7525 002462 1412          AADD #18, AR3 ; |2378| 
         002464 B4   
    7526 002465 F46D          AND #0xfff7, *AR3(#57) ; |2378| 
         002467 FFF7 
         002469 0039 
    7527                      .dwpsn  file "../c5535_bsl_revc/ezdsp5535_v1/c55xx_csl/src/csl_msc.c",line 2379,column 4,is_stmt
    7528 00246b 0601          B $C$L178 ; |2379| 
         00246d 29   
    7529                                                      ; branch occurs ; |2379| 
    7530 00246e       $C$L173:    
    7531                      .dwpsn  file "../c5535_bsl_revc/ezdsp5535_v1/c55xx_csl/src/csl_msc.c",line 2380,column 9,is_stmt
TMS320C55x Assembler PC v4.4.1 Tue Oct 02 02:33:20 2018

Tools Copyright (c) 1996-2012 Texas Instruments Incorporated
csl_msc.asm                                                          PAGE  186

    7532 00246e F00E          CMP *SP(#7) == #2, TC1 ; |2380| 
         002470 0002 
    7533 002472 0474          BCC $C$L174,!TC1 ; |2380| 
         002474 2D   
    7534                                                      ; branchcc occurs ; |2380| 
    7535                      .dwpsn  file "../c5535_bsl_revc/ezdsp5535_v1/c55xx_csl/src/csl_msc.c",line 2382,column 6,is_stmt
    7536 002475 ED00          MOV dbl(*SP(#0)), XAR0
         002477 8F   
    7537 002478 7600          MOV #58, T1 ; |2382| 
         00247a 3A58 
    7538 00247c B40F          AMAR *+AR0(#266) ; |2382| 
         00247e 010A 
    7539              $C$DW$487       .dwtag  DW_TAG_TI_branch
    7540                      .dwattr $C$DW$487, DW_AT_low_pc(0x00)
    7541                      .dwattr $C$DW$487, DW_AT_name("_MSC_SetSenseKeys")
    7542                      .dwattr $C$DW$487, DW_AT_TI_call
    7543              
    7544 002480 08DB          CALL #_MSC_SetSenseKeys ; |2382| 
         002482 7B   
    7545 002483 3D24  ||      MOV #2, T0
    7546              
    7547                                                      ; call occurs [#_MSC_SetSenseKeys] ; |2382| 
    7548                      .dwpsn  file "../c5535_bsl_revc/ezdsp5535_v1/c55xx_csl/src/csl_msc.c",line 2386,column 6,is_stmt
    7549 002485 ED00          MOV dbl(*SP(#0)), XAR3
         002487 BF   
    7550 002488 DF08          MOV uns(*SP(#4)), AC1 ; |2386| 
         00248a 15   
    7551 00248b 1015          SFTS AC1, #6, AC0 ; |2386| 
         00248d 06   
    7552 00248e 1014          SUB AC1 << #1, AC0 ; |2386| 
         002490 01   
    7553 002491 900A          MOV AC0, XAR2
    7554 002493 14A1          AADD XAR2, XAR3 ; |2386| 
         002495 B0   
    7555 002496 1412          AADD #18, AR3 ; |2386| 
         002498 B4   
    7556 002499 F46D          AND #0xfff6, *AR3(#57) ; |2386| 
         00249b FFF6 
         00249d 0039 
    7557                      .dwpsn  file "../c5535_bsl_revc/ezdsp5535_v1/c55xx_csl/src/csl_msc.c",line 2388,column 4,is_stmt
    7558 00249f 0600          B $C$L178 ; |2388| 
         0024a1 F5   
    7559                                                      ; branch occurs ; |2388| 
    7560 0024a2       $C$L174:    
    7561                      .dwpsn  file "../c5535_bsl_revc/ezdsp5535_v1/c55xx_csl/src/csl_msc.c",line 2391,column 5,is_stmt
    7562 0024a2 F00E          CMP *SP(#7) == #4, TC1 ; |2391| 
         0024a4 0004 
    7563 0024a6 6D74          BCC $C$L178,!TC1 ; |2391| 
         0024a8 00ED 
    7564                                                      ; branchcc occurs ; |2391| 
    7565                      .dwpsn  file "../c5535_bsl_revc/ezdsp5535_v1/c55xx_csl/src/csl_msc.c",line 2393,column 6,is_stmt
    7566 0024aa ED00          MOV dbl(*SP(#0)), XAR3
         0024ac BF   
    7567 0024ad E66D          MOV #0, *AR3(#289) ; |2393| 
         0024af 0001 
TMS320C55x Assembler PC v4.4.1 Tue Oct 02 02:33:20 2018

Tools Copyright (c) 1996-2012 Texas Instruments Incorporated
csl_msc.asm                                                          PAGE  187

         0024b1 21   
    7568                      .dwpsn  file "../c5535_bsl_revc/ezdsp5535_v1/c55xx_csl/src/csl_msc.c",line 2395,column 6,is_stmt
    7569 0024b2 ED00          MOV dbl(*SP(#0)), XAR0
         0024b4 8F   
    7570 0024b5 7600          MOV #40, T1 ; |2395| 
         0024b7 2858 
    7571 0024b9 B40F          AMAR *+AR0(#266) ; |2395| 
         0024bb 010A 
    7572              $C$DW$488       .dwtag  DW_TAG_TI_branch
    7573                      .dwattr $C$DW$488, DW_AT_low_pc(0x00)
    7574                      .dwattr $C$DW$488, DW_AT_name("_MSC_SetSenseKeys")
    7575                      .dwattr $C$DW$488, DW_AT_TI_call
    7576              
    7577 0024bd 08DB          CALL #_MSC_SetSenseKeys ; |2395| 
         0024bf 3E   
    7578 0024c0 3D64  ||      MOV #6, T0
    7579              
    7580                                                      ; call occurs [#_MSC_SetSenseKeys] ; |2395| 
    7581                      .dwpsn  file "../c5535_bsl_revc/ezdsp5535_v1/c55xx_csl/src/csl_msc.c",line 2398,column 6,is_stmt
    7582 0024c2 ED00          MOV dbl(*SP(#0)), XAR3
         0024c4 BF   
    7583 0024c5 DF08          MOV uns(*SP(#4)), AC1 ; |2398| 
         0024c7 15   
    7584 0024c8 1015          SFTS AC1, #6, AC0 ; |2398| 
         0024ca 06   
    7585 0024cb 1014          SUB AC1 << #1, AC0 ; |2398| 
         0024cd 01   
    7586 0024ce 900A          MOV AC0, XAR2
    7587 0024d0 14A1          AADD XAR2, XAR3 ; |2398| 
         0024d2 B0   
    7588 0024d3 1412          AADD #18, AR3 ; |2398| 
         0024d5 B4   
    7589 0024d6 F46D          AND #0xfffe, *AR3(#57) ; |2398| 
         0024d8 FFFE 
         0024da 0039 
    7590                      .dwpsn  file "../c5535_bsl_revc/ezdsp5535_v1/c55xx_csl/src/csl_msc.c",line 2401,column 6,is_stmt
    7591 0024dc ED00          MOV dbl(*SP(#0)), XAR3
         0024de BF   
    7592 0024df DF08          MOV uns(*SP(#4)), AC1 ; |2401| 
         0024e1 15   
    7593 0024e2 1015          SFTS AC1, #6, AC0 ; |2401| 
         0024e4 06   
    7594 0024e5 1014          SUB AC1 << #1, AC0 ; |2401| 
         0024e7 01   
    7595 0024e8 900A          MOV AC0, XAR2
    7596 0024ea 14A1          AADD XAR2, XAR3 ; |2401| 
         0024ec B0   
    7597 0024ed 1412          AADD #18, AR3 ; |2401| 
         0024ef B4   
    7598 0024f0 F56D          OR #0x0008, *AR3(#57) ; |2401| 
         0024f2 0008 
         0024f4 0039 
    7599                      .dwpsn  file "../c5535_bsl_revc/ezdsp5535_v1/c55xx_csl/src/csl_msc.c",line 2405,column 3,is_stmt
    7600 0024f6 0600          B $C$L178 ; |2405| 
         0024f8 9E   
TMS320C55x Assembler PC v4.4.1 Tue Oct 02 02:33:20 2018

Tools Copyright (c) 1996-2012 Texas Instruments Incorporated
csl_msc.asm                                                          PAGE  188

    7601                                                      ; branch occurs ; |2405| 
    7602 0024f9       $C$L175:    
    7603                      .dwpsn  file "../c5535_bsl_revc/ezdsp5535_v1/c55xx_csl/src/csl_msc.c",line 2408,column 4,is_stmt
    7604 0024f9 ED00          MOV dbl(*SP(#0)), XAR0
         0024fb 8F   
    7605 0024fc 3C04          MOV #0, T0
    7606 0024fe B40F          AMAR *+AR0(#266) ; |2408| 
         002500 010A 
    7607              $C$DW$489       .dwtag  DW_TAG_TI_branch
    7608                      .dwattr $C$DW$489, DW_AT_low_pc(0x00)
    7609                      .dwattr $C$DW$489, DW_AT_name("_MSC_SetSenseKeys")
    7610                      .dwattr $C$DW$489, DW_AT_TI_call
    7611              
    7612 002502 08DA          CALL #_MSC_SetSenseKeys ; |2408| 
         002504 F9   
    7613 002505 3D05  ||      MOV #0, T1
    7614              
    7615                                                      ; call occurs [#_MSC_SetSenseKeys] ; |2408| 
    7616                      .dwpsn  file "../c5535_bsl_revc/ezdsp5535_v1/c55xx_csl/src/csl_msc.c",line 2411,column 4,is_stmt
    7617 002507 ED00          MOV dbl(*SP(#0)), XAR3
         002509 BF   
    7618 00250a E66D          MOV #0, *AR3(#289) ; |2411| 
         00250c 0001 
         00250e 21   
    7619                      .dwpsn  file "../c5535_bsl_revc/ezdsp5535_v1/c55xx_csl/src/csl_msc.c",line 2413,column 2,is_stmt
    7620 00250f 0600          B $C$L178 ; |2413| 
         002511 85   
    7621                                                      ; branch occurs ; |2413| 
    7622 002512       $C$L176:    
    7623                      .dwpsn  file "../c5535_bsl_revc/ezdsp5535_v1/c55xx_csl/src/csl_msc.c",line 2414,column 7,is_stmt
    7624 002512 F00C          CMP *SP(#6) == #2, TC1 ; |2414| 
         002514 0002 
    7625 002516 0474          BCC $C$L177,!TC1 ; |2414| 
         002518 2D   
    7626                                                      ; branchcc occurs ; |2414| 
    7627                      .dwpsn  file "../c5535_bsl_revc/ezdsp5535_v1/c55xx_csl/src/csl_msc.c",line 2416,column 4,is_stmt
    7628 002519 ED00          MOV dbl(*SP(#0)), XAR0
         00251b 8F   
    7629 00251c 7600          MOV #58, T1 ; |2416| 
         00251e 3A58 
    7630 002520 B40F          AMAR *+AR0(#266) ; |2416| 
         002522 010A 
    7631              $C$DW$490       .dwtag  DW_TAG_TI_branch
    7632                      .dwattr $C$DW$490, DW_AT_low_pc(0x00)
    7633                      .dwattr $C$DW$490, DW_AT_name("_MSC_SetSenseKeys")
    7634                      .dwattr $C$DW$490, DW_AT_TI_call
    7635              
    7636 002524 08DA          CALL #_MSC_SetSenseKeys ; |2416| 
         002526 D7   
    7637 002527 3D24  ||      MOV #2, T0
    7638              
    7639                                                      ; call occurs [#_MSC_SetSenseKeys] ; |2416| 
    7640                      .dwpsn  file "../c5535_bsl_revc/ezdsp5535_v1/c55xx_csl/src/csl_msc.c",line 2420,column 4,is_stmt
    7641 002529 ED00          MOV dbl(*SP(#0)), XAR3
         00252b BF   
TMS320C55x Assembler PC v4.4.1 Tue Oct 02 02:33:20 2018

Tools Copyright (c) 1996-2012 Texas Instruments Incorporated
csl_msc.asm                                                          PAGE  189

    7642 00252c DF08          MOV uns(*SP(#4)), AC1 ; |2420| 
         00252e 15   
    7643 00252f 1015          SFTS AC1, #6, AC0 ; |2420| 
         002531 06   
    7644 002532 1014          SUB AC1 << #1, AC0 ; |2420| 
         002534 01   
    7645 002535 900A          MOV AC0, XAR2
    7646 002537 14A1          AADD XAR2, XAR3 ; |2420| 
         002539 B0   
    7647 00253a 1412          AADD #18, AR3 ; |2420| 
         00253c B4   
    7648 00253d F46D          AND #0xfff6, *AR3(#57) ; |2420| 
         00253f FFF6 
         002541 0039 
    7649                      .dwpsn  file "../c5535_bsl_revc/ezdsp5535_v1/c55xx_csl/src/csl_msc.c",line 2422,column 2,is_stmt
    7650 002543 0600          B $C$L178 ; |2422| 
         002545 51   
    7651                                                      ; branch occurs ; |2422| 
    7652 002546       $C$L177:    
    7653                      .dwpsn  file "../c5535_bsl_revc/ezdsp5535_v1/c55xx_csl/src/csl_msc.c",line 2425,column 3,is_stmt
    7654 002546 F00C          CMP *SP(#6) == #4, TC1 ; |2425| 
         002548 0004 
    7655 00254a 0474          BCC $C$L178,!TC1 ; |2425| 
         00254c 4A   
    7656                                                      ; branchcc occurs ; |2425| 
    7657                      .dwpsn  file "../c5535_bsl_revc/ezdsp5535_v1/c55xx_csl/src/csl_msc.c",line 2427,column 4,is_stmt
    7658 00254d ED00          MOV dbl(*SP(#0)), XAR3
         00254f BF   
    7659 002550 E66D          MOV #0, *AR3(#289) ; |2427| 
         002552 0001 
         002554 21   
    7660                      .dwpsn  file "../c5535_bsl_revc/ezdsp5535_v1/c55xx_csl/src/csl_msc.c",line 2428,column 4,is_stmt
    7661 002555 ED00          MOV dbl(*SP(#0)), XAR0
         002557 8F   
    7662 002558 3C04          MOV #0, T0
    7663 00255a B40F          AMAR *+AR0(#266) ; |2428| 
         00255c 010A 
    7664              $C$DW$491       .dwtag  DW_TAG_TI_branch
    7665                      .dwattr $C$DW$491, DW_AT_low_pc(0x00)
    7666                      .dwattr $C$DW$491, DW_AT_name("_MSC_SetSenseKeys")
    7667                      .dwattr $C$DW$491, DW_AT_TI_call
    7668              
    7669 00255e 08DA          CALL #_MSC_SetSenseKeys ; |2428| 
         002560 9D   
    7670 002561 3D05  ||      MOV #0, T1
    7671              
    7672                                                      ; call occurs [#_MSC_SetSenseKeys] ; |2428| 
    7673                      .dwpsn  file "../c5535_bsl_revc/ezdsp5535_v1/c55xx_csl/src/csl_msc.c",line 2432,column 4,is_stmt
    7674 002563 ED00          MOV dbl(*SP(#0)), XAR3
         002565 BF   
    7675 002566 DF08          MOV uns(*SP(#4)), AC1 ; |2432| 
         002568 15   
    7676 002569 1015          SFTS AC1, #6, AC0 ; |2432| 
         00256b 06   
    7677 00256c 1014          SUB AC1 << #1, AC0 ; |2432| 
TMS320C55x Assembler PC v4.4.1 Tue Oct 02 02:33:20 2018

Tools Copyright (c) 1996-2012 Texas Instruments Incorporated
csl_msc.asm                                                          PAGE  190

         00256e 01   
    7678 00256f 900A          MOV AC0, XAR2
    7679 002571 14A1          AADD XAR2, XAR3 ; |2432| 
         002573 B0   
    7680 002574 1412          AADD #18, AR3 ; |2432| 
         002576 B4   
    7681 002577 F56D          OR #0x0008, *AR3(#57) ; |2432| 
         002579 0008 
         00257b 0039 
    7682                      .dwpsn  file "../c5535_bsl_revc/ezdsp5535_v1/c55xx_csl/src/csl_msc.c",line 2433,column 4,is_stmt
    7683 00257d ED00          MOV dbl(*SP(#0)), XAR3
         00257f BF   
    7684 002580 DF08          MOV uns(*SP(#4)), AC1 ; |2433| 
         002582 15   
    7685 002583 1015          SFTS AC1, #6, AC0 ; |2433| 
         002585 06   
    7686 002586 1014          SUB AC1 << #1, AC0 ; |2433| 
         002588 01   
    7687 002589 900A          MOV AC0, XAR2
    7688 00258b 14A1          AADD XAR2, XAR3 ; |2433| 
         00258d B0   
    7689 00258e 1412          AADD #18, AR3 ; |2433| 
         002590 B4   
    7690 002591 F46D          AND #0xfffe, *AR3(#57) ; |2433| 
         002593 FFFE 
         002595 0039 
    7691 002597       $C$L178:    
    7692                      .dwpsn  file "../c5535_bsl_revc/ezdsp5535_v1/c55xx_csl/src/csl_msc.c",line 2437,column 2,is_stmt
    7693 002597 ED00          MOV dbl(*SP(#0)), XAR1
         002599 9F   
    7694 00259a ED04          MOV dbl(*SP(#2)), XAR0
         00259c 8F   
    7695 00259d 3CD4          MOV #13, T0
    7696 00259f B42F          AMAR *+AR1(#282) ; |2437| 
         0025a1 011A 
    7697              $C$DW$492       .dwtag  DW_TAG_TI_branch
    7698                      .dwattr $C$DW$492, DW_AT_low_pc(0x00)
    7699                      .dwattr $C$DW$492, DW_AT_name("_USB_postTransaction")
    7700                      .dwattr $C$DW$492, DW_AT_TI_call
    7701              
    7702 0025a3 6C00          CALL #_USB_postTransaction ; |2437| 
         0025a5 0000!
    7703 0025a7 3D15  ||      MOV #1, T1
    7704              
    7705                                                      ; call occurs [#_USB_postTransaction] ; |2437| 
    7706 0025a9 C40A          MOV T0, *SP(#5) ; |2437| 
    7707                      .dwpsn  file "../c5535_bsl_revc/ezdsp5535_v1/c55xx_csl/src/csl_msc.c",line 2439,column 2,is_stmt
    7708 0025ab ED00          MOV dbl(*SP(#0)), XAR3
         0025ad BF   
    7709 0025ae E66D          MOV #4, *AR3(#355) ; |2439| 
         0025b0 0401 
         0025b2 63   
    7710                      .dwpsn  file "../c5535_bsl_revc/ezdsp5535_v1/c55xx_csl/src/csl_msc.c",line 2441,column 2,is_stmt
    7711 0025b3 A40A          MOV *SP(#5), T0 ; |2441| 
    7712 0025b5       $C$L179:    
TMS320C55x Assembler PC v4.4.1 Tue Oct 02 02:33:20 2018

Tools Copyright (c) 1996-2012 Texas Instruments Incorporated
csl_msc.asm                                                          PAGE  191

    7713                      .dwpsn  file "../c5535_bsl_revc/ezdsp5535_v1/c55xx_csl/src/csl_msc.c",line 2442,column 1,is_stmt
    7714 0025b5 4E09          AADD #9, SP
    7715                      .dwcfi  cfa_offset, 1
    7716              $C$DW$493       .dwtag  DW_TAG_TI_branch
    7717                      .dwattr $C$DW$493, DW_AT_low_pc(0x00)
    7718                      .dwattr $C$DW$493, DW_AT_TI_return
    7719 0025b7 4804          RET
    7720                                                      ; return occurs
    7721                      .dwattr $C$DW$470, DW_AT_TI_end_file("../c5535_bsl_revc/ezdsp5535_v1/c55xx_csl/src/csl_msc.c")
    7722                      .dwattr $C$DW$470, DW_AT_TI_end_line(0x98a)
    7723                      .dwattr $C$DW$470, DW_AT_TI_end_column(0x01)
    7724                      .dwendentry
    7725                      .dwendtag $C$DW$470
    7726              
    7727 0025b9               .sect   ".text"
    7728                      .align 4
    7729                      .global _MSC_HandlePreventAllowMediaRemoval
    7730              
    7731              $C$DW$494       .dwtag  DW_TAG_subprogram, DW_AT_name("MSC_HandlePreventAllowMediaRemoval")
    7732                      .dwattr $C$DW$494, DW_AT_low_pc(_MSC_HandlePreventAllowMediaRemoval)
    7733                      .dwattr $C$DW$494, DW_AT_high_pc(0x00)
    7734                      .dwattr $C$DW$494, DW_AT_TI_symbol_name("_MSC_HandlePreventAllowMediaRemoval")
    7735                      .dwattr $C$DW$494, DW_AT_external
    7736                      .dwattr $C$DW$494, DW_AT_type(*$C$DW$T$89)
    7737                      .dwattr $C$DW$494, DW_AT_TI_begin_file("../c5535_bsl_revc/ezdsp5535_v1/c55xx_csl/src/csl_msc.c")
    7738                      .dwattr $C$DW$494, DW_AT_TI_begin_line(0x9b9)
    7739                      .dwattr $C$DW$494, DW_AT_TI_begin_column(0x0c)
    7740                      .dwattr $C$DW$494, DW_AT_TI_max_frame_size(0x0a)
    7741                      .dwpsn  file "../c5535_bsl_revc/ezdsp5535_v1/c55xx_csl/src/csl_msc.c",line 2492,column 1,is_stmt,addr
    7742              
    7743                      .dwfde $C$DW$CIE, _MSC_HandlePreventAllowMediaRemoval
    7744              $C$DW$495       .dwtag  DW_TAG_formal_parameter, DW_AT_name("pMscHandle")
    7745                      .dwattr $C$DW$495, DW_AT_TI_symbol_name("_pMscHandle")
    7746                      .dwattr $C$DW$495, DW_AT_type(*$C$DW$T$107)
    7747                      .dwattr $C$DW$495, DW_AT_location[DW_OP_reg17]
    7748              $C$DW$496       .dwtag  DW_TAG_formal_parameter, DW_AT_name("hUsbInEp")
    7749                      .dwattr $C$DW$496, DW_AT_TI_symbol_name("_hUsbInEp")
    7750                      .dwattr $C$DW$496, DW_AT_type(*$C$DW$T$27)
    7751                      .dwattr $C$DW$496, DW_AT_location[DW_OP_reg19]
    7752              $C$DW$497       .dwtag  DW_TAG_formal_parameter, DW_AT_name("logicalUnit")
    7753                      .dwattr $C$DW$497, DW_AT_TI_symbol_name("_logicalUnit")
    7754                      .dwattr $C$DW$497, DW_AT_type(*$C$DW$T$25)
    7755                      .dwattr $C$DW$497, DW_AT_location[DW_OP_reg12]
    7756              ;*******************************************************************************
    7757              ;* FUNCTION NAME: MSC_HandlePreventAllowMediaRemoval                           *
    7758              ;*                                                                             *
    7759              ;*   Function Uses Regs : AC0,AC0,AC1,AC1,T0,T1,AR0,XAR0,AR1,XAR1,AR2,XAR2,AR3,*
    7760              ;*                        XAR3,SP,CARRY,TC1,M40,SATA,SATD,RDM,FRCT,SMUL        *
    7761              ;*   Stack Frame        : Compact (No Frame Pointer, w/ debug)                 *
    7762              ;*   Total Frame Size   : 10 words                                             *
    7763              ;*                        (1 return address/alignment)                         *
    7764              ;*                        (9 local values)                                     *
    7765              ;*   Min System Stack   : 1 word                                               *
    7766              ;*******************************************************************************
    7767 0025bc       _MSC_HandlePreventAllowMediaRemoval:
TMS320C55x Assembler PC v4.4.1 Tue Oct 02 02:33:20 2018

Tools Copyright (c) 1996-2012 Texas Instruments Incorporated
csl_msc.asm                                                          PAGE  192

    7768                      .dwcfi  cfa_offset, 1
    7769                      .dwcfi  save_reg_to_mem, 91, -1
    7770 0025bc 4EF7          AADD #-9, SP
    7771                      .dwcfi  cfa_offset, 10
    7772              $C$DW$498       .dwtag  DW_TAG_variable, DW_AT_name("pMscHandle")
    7773                      .dwattr $C$DW$498, DW_AT_TI_symbol_name("_pMscHandle")
    7774                      .dwattr $C$DW$498, DW_AT_type(*$C$DW$T$107)
    7775                      .dwattr $C$DW$498, DW_AT_location[DW_OP_bregx 0x24 0]
    7776              $C$DW$499       .dwtag  DW_TAG_variable, DW_AT_name("hUsbInEp")
    7777                      .dwattr $C$DW$499, DW_AT_TI_symbol_name("_hUsbInEp")
    7778                      .dwattr $C$DW$499, DW_AT_type(*$C$DW$T$27)
    7779                      .dwattr $C$DW$499, DW_AT_location[DW_OP_bregx 0x24 2]
    7780              $C$DW$500       .dwtag  DW_TAG_variable, DW_AT_name("logicalUnit")
    7781                      .dwattr $C$DW$500, DW_AT_TI_symbol_name("_logicalUnit")
    7782                      .dwattr $C$DW$500, DW_AT_type(*$C$DW$T$25)
    7783                      .dwattr $C$DW$500, DW_AT_location[DW_OP_bregx 0x24 4]
    7784              $C$DW$501       .dwtag  DW_TAG_variable, DW_AT_name("mediaPresentStat")
    7785                      .dwattr $C$DW$501, DW_AT_TI_symbol_name("_mediaPresentStat")
    7786                      .dwattr $C$DW$501, DW_AT_type(*$C$DW$T$52)
    7787                      .dwattr $C$DW$501, DW_AT_location[DW_OP_bregx 0x24 5]
    7788              $C$DW$502       .dwtag  DW_TAG_variable, DW_AT_name("mediaLockStat")
    7789                      .dwattr $C$DW$502, DW_AT_TI_symbol_name("_mediaLockStat")
    7790                      .dwattr $C$DW$502, DW_AT_type(*$C$DW$T$52)
    7791                      .dwattr $C$DW$502, DW_AT_location[DW_OP_bregx 0x24 6]
    7792              $C$DW$503       .dwtag  DW_TAG_variable, DW_AT_name("status")
    7793                      .dwattr $C$DW$503, DW_AT_TI_symbol_name("_status")
    7794                      .dwattr $C$DW$503, DW_AT_type(*$C$DW$T$89)
    7795                      .dwattr $C$DW$503, DW_AT_location[DW_OP_bregx 0x24 7]
    7796              $C$DW$504       .dwtag  DW_TAG_variable, DW_AT_name("preventAllowStat")
    7797                      .dwattr $C$DW$504, DW_AT_TI_symbol_name("_preventAllowStat")
    7798                      .dwattr $C$DW$504, DW_AT_type(*$C$DW$T$25)
    7799                      .dwattr $C$DW$504, DW_AT_location[DW_OP_bregx 0x24 8]
    7800 0025be C408          MOV T0, *SP(#4) ; |2492| 
    7801 0025c0 EB04          MOV XAR1, dbl(*SP(#2))
         0025c2 95   
    7802 0025c3 EB00          MOV XAR0, dbl(*SP(#0))
         0025c5 85   
    7803                      .dwpsn  file "../c5535_bsl_revc/ezdsp5535_v1/c55xx_csl/src/csl_msc.c",line 2498,column 2,is_stmt
    7804 0025c6 ED00          MOV dbl(*SP(#0)), XAR3
         0025c8 BF   
    7805 0025c9 ED6D          MOV dbl(*AR3(#16)), AC0 ; |2498| 
         0025cb 0800 
         0025cd 10   
    7806 0025ce 0400          BCC $C$L180,AC0 == #0 ; |2498| 
         0025d0 42   
    7807                                                      ; branchcc occurs ; |2498| 
    7808                      .dwpsn  file "../c5535_bsl_revc/ezdsp5535_v1/c55xx_csl/src/csl_msc.c",line 2501,column 3,is_stmt
    7809 0025d1 E66D          MOV #2, *AR3(#355) ; |2501| 
         0025d3 0201 
         0025d5 63   
    7810                      .dwpsn  file "../c5535_bsl_revc/ezdsp5535_v1/c55xx_csl/src/csl_msc.c",line 2502,column 3,is_stmt
    7811 0025d6 ED00          MOV dbl(*SP(#0)), XAR0
         0025d8 8F   
    7812 0025d9 B40F          AMAR *+AR0(#334) ; |2502| 
         0025db 014E 
TMS320C55x Assembler PC v4.4.1 Tue Oct 02 02:33:20 2018

Tools Copyright (c) 1996-2012 Texas Instruments Incorporated
csl_msc.asm                                                          PAGE  193

    7813              $C$DW$505       .dwtag  DW_TAG_TI_branch
    7814                      .dwattr $C$DW$505, DW_AT_low_pc(0x00)
    7815                      .dwattr $C$DW$505, DW_AT_name("_USB_stallEndpt")
    7816                      .dwattr $C$DW$505, DW_AT_TI_call
    7817 0025dd 6C00          CALL #_USB_stallEndpt ; |2502| 
         0025df 0000!
    7818                                                      ; call occurs [#_USB_stallEndpt] ; |2502| 
    7819 0025e1 C40E          MOV T0, *SP(#7) ; |2502| 
    7820                      .dwpsn  file "../c5535_bsl_revc/ezdsp5535_v1/c55xx_csl/src/csl_msc.c",line 2503,column 3,is_stmt
    7821 0025e3 ED00          MOV dbl(*SP(#0)), XAR0
         0025e5 8F   
    7822 0025e6 B40F          AMAR *+AR0(#314) ; |2503| 
         0025e8 013A 
    7823              $C$DW$506       .dwtag  DW_TAG_TI_branch
    7824                      .dwattr $C$DW$506, DW_AT_low_pc(0x00)
    7825                      .dwattr $C$DW$506, DW_AT_name("_USB_stallEndpt")
    7826                      .dwattr $C$DW$506, DW_AT_TI_call
    7827 0025ea 6C00          CALL #_USB_stallEndpt ; |2503| 
         0025ec 0000!
    7828                                                      ; call occurs [#_USB_stallEndpt] ; |2503| 
    7829 0025ee C40E          MOV T0, *SP(#7) ; |2503| 
    7830                      .dwpsn  file "../c5535_bsl_revc/ezdsp5535_v1/c55xx_csl/src/csl_msc.c",line 2507,column 3,is_stmt
    7831 0025f0 ED00          MOV dbl(*SP(#0)), XAR0
         0025f2 8F   
    7832 0025f3 ED00          MOV dbl(*SP(#0)), XAR3
         0025f5 BF   
    7833 0025f6 7600          MOV #32, T1 ; |2507| 
         0025f8 2058 
    7834 0025fa B40F          AMAR *+AR0(#314) ; |2507| 
         0025fc 013A 
    7835 0025fe ED6D          MOV dbl(*AR3(#14)), XAR1
         002600 9F00 
         002602 0E   
    7836              $C$DW$507       .dwtag  DW_TAG_TI_branch
    7837                      .dwattr $C$DW$507, DW_AT_low_pc(0x00)
    7838                      .dwattr $C$DW$507, DW_AT_name("_USB_postTransaction")
    7839                      .dwattr $C$DW$507, DW_AT_TI_call
    7840              
    7841 002603 6C00          CALL #_USB_postTransaction ; |2507| 
         002605 0000!
    7842 002607 3D04  ||      MOV #0, T0
    7843              
    7844                                                      ; call occurs [#_USB_postTransaction] ; |2507| 
    7845 002609 DA0E          OR *SP(#7), T0, AR1 ; |2507| 
         00260b 94   
    7846 00260c C90E          MOV AR1, *SP(#7) ; |2507| 
    7847                      .dwpsn  file "../c5535_bsl_revc/ezdsp5535_v1/c55xx_csl/src/csl_msc.c",line 2512,column 3,is_stmt
    7848 00260e 2294          MOV AR1, T0
    7849 002610 0601          B $C$L188 ; |2512| 
         002612 5C   
    7850                                                      ; branch occurs ; |2512| 
    7851 002613       $C$L180:    
    7852                      .dwpsn  file "../c5535_bsl_revc/ezdsp5535_v1/c55xx_csl/src/csl_msc.c",line 2516,column 5,is_stmt
    7853 002613 E66D          MOV #0, *AR3(#289) ; |2516| 
         002615 0001 
TMS320C55x Assembler PC v4.4.1 Tue Oct 02 02:33:20 2018

Tools Copyright (c) 1996-2012 Texas Instruments Incorporated
csl_msc.asm                                                          PAGE  194

         002617 21   
    7854                      .dwpsn  file "../c5535_bsl_revc/ezdsp5535_v1/c55xx_csl/src/csl_msc.c",line 2518,column 5,is_stmt
    7855 002618 ED00          MOV dbl(*SP(#0)), XAR0
         00261a 8F   
    7856 00261b 3C04          MOV #0, T0
    7857 00261d B40F          AMAR *+AR0(#266) ; |2518| 
         00261f 010A 
    7858              $C$DW$508       .dwtag  DW_TAG_TI_branch
    7859                      .dwattr $C$DW$508, DW_AT_low_pc(0x00)
    7860                      .dwattr $C$DW$508, DW_AT_name("_MSC_SetSenseKeys")
    7861                      .dwattr $C$DW$508, DW_AT_TI_call
    7862              
    7863 002621 08D9          CALL #_MSC_SetSenseKeys ; |2518| 
         002623 DA   
    7864 002624 3D05  ||      MOV #0, T1
    7865              
    7866                                                      ; call occurs [#_MSC_SetSenseKeys] ; |2518| 
    7867                      .dwpsn  file "../c5535_bsl_revc/ezdsp5535_v1/c55xx_csl/src/csl_msc.c",line 2523,column 5,is_stmt
    7868 002626 ED00          MOV dbl(*SP(#0)), XAR3
         002628 BF   
    7869 002629 DF6D          MOV uns(high_byte(*AR3(#306))), AR1 ; |2523| 
         00262b 9101 
         00262d 32   
    7870 00262e C910          MOV AR1, *SP(#8) ; |2523| 
    7871                      .dwpsn  file "../c5535_bsl_revc/ezdsp5535_v1/c55xx_csl/src/csl_msc.c",line 2526,column 5,is_stmt
    7872 002630 ED00          MOV dbl(*SP(#0)), XAR3
         002632 BF   
    7873 002633 DF08          MOV uns(*SP(#4)), AC1 ; |2526| 
         002635 15   
    7874 002636 1015          SFTS AC1, #6, AC0 ; |2526| 
         002638 06   
    7875 002639 1014          SUB AC1 << #1, AC0 ; |2526| 
         00263b 01   
    7876 00263c 900A          MOV AC0, XAR2
    7877 00263e 14A1          AADD XAR2, XAR3 ; |2526| 
         002640 B0   
    7878 002641 A96D          MOV *AR3(#74), AR1 ; |2526| 
         002643 004A 
    7879 002645 0419          BCC $C$L181,AR1 != #0 ; |2526| 
         002647 1B   
    7880                                                      ; branchcc occurs ; |2526| 
    7881                      .dwpsn  file "../c5535_bsl_revc/ezdsp5535_v1/c55xx_csl/src/csl_msc.c",line 2528,column 9,is_stmt
    7882 002648 ED00          MOV dbl(*SP(#0)), XAR0
         00264a 8F   
    7883 00264b 7600          MOV #32, T1 ; |2528| 
         00264d 2058 
    7884 00264f B40F          AMAR *+AR0(#266) ; |2528| 
         002651 010A 
    7885              $C$DW$509       .dwtag  DW_TAG_TI_branch
    7886                      .dwattr $C$DW$509, DW_AT_low_pc(0x00)
    7887                      .dwattr $C$DW$509, DW_AT_name("_MSC_SetSenseKeys")
    7888                      .dwattr $C$DW$509, DW_AT_TI_call
    7889              
    7890 002653 08D9          CALL #_MSC_SetSenseKeys ; |2528| 
         002655 A8   
TMS320C55x Assembler PC v4.4.1 Tue Oct 02 02:33:20 2018

Tools Copyright (c) 1996-2012 Texas Instruments Incorporated
csl_msc.asm                                                          PAGE  195

    7891 002656 3D54  ||      MOV #5, T0
    7892              
    7893                                                      ; call occurs [#_MSC_SetSenseKeys] ; |2528| 
    7894                      .dwpsn  file "../c5535_bsl_revc/ezdsp5535_v1/c55xx_csl/src/csl_msc.c",line 2531,column 9,is_stmt
    7895 002658 ED00          MOV dbl(*SP(#0)), XAR3
         00265a BF   
    7896 00265b E66D          MOV #1, *AR3(#289) ; |2531| 
         00265d 0101 
         00265f 21   
    7897                      .dwpsn  file "../c5535_bsl_revc/ezdsp5535_v1/c55xx_csl/src/csl_msc.c",line 2532,column 5,is_stmt
    7898 002660 0600          B $C$L187 ; |2532| 
         002662 EE   
    7899                                                      ; branch occurs ; |2532| 
    7900 002663       $C$L181:    
    7901                      .dwpsn  file "../c5535_bsl_revc/ezdsp5535_v1/c55xx_csl/src/csl_msc.c",line 2536,column 9,is_stmt
    7902 002663 F010          CMP *SP(#8) == #1, TC1 ; |2536| 
         002665 0001 
    7903 002667 6D74          BCC $C$L185,!TC1 ; |2536| 
         002669 009D 
    7904                                                      ; branchcc occurs ; |2536| 
    7905                      .dwpsn  file "../c5535_bsl_revc/ezdsp5535_v1/c55xx_csl/src/csl_msc.c",line 2539,column 13,is_stmt
    7906 00266b ED00          MOV dbl(*SP(#0)), XAR3
         00266d BF   
    7907 00266e A408          MOV *SP(#4), T0 ; |2539| 
    7908 002670 ED79          MOV dbl(*AR3(short(#4))), AC0 ; |2539| 
         002672 08   
    7909              $C$DW$510       .dwtag  DW_TAG_TI_branch
    7910                      .dwattr $C$DW$510, DW_AT_low_pc(0x00)
    7911                      .dwattr $C$DW$510, DW_AT_TI_call
    7912                      .dwattr $C$DW$510, DW_AT_TI_indirect
    7913 002673 9200          CALL AC0  ; |2539| 
    7914                                                      ; call occurs [AC0] ; |2539| 
    7915 002675 C40A          MOV T0, *SP(#5) ; |2539| 
    7916                      .dwpsn  file "../c5535_bsl_revc/ezdsp5535_v1/c55xx_csl/src/csl_msc.c",line 2541,column 13,is_stmt
    7917 002677 F00A          CMP *SP(#5) == #1, TC1 ; |2541| 
         002679 0001 
    7918 00267b 63E4          BCC $C$L182,TC1 ; |2541| 
    7919                                                      ; branchcc occurs ; |2541| 
    7920 00267d F00A          CMP *SP(#5) == #4, TC1 ; |2541| 
         00267f 0004 
    7921 002681 0474          BCC $C$L184,!TC1 ; |2541| 
         002683 4F   
    7922                                                      ; branchcc occurs ; |2541| 
    7923 002684       $C$L182:    
    7924                      .dwpsn  file "../c5535_bsl_revc/ezdsp5535_v1/c55xx_csl/src/csl_msc.c",line 2544,column 17,is_stmt
    7925 002684 ED00          MOV dbl(*SP(#0)), XAR3
         002686 BF   
    7926 002687 A408          MOV *SP(#4), T0 ; |2544| 
    7927 002689 ED6D          MOV dbl(*AR3(#10)), AC0 ; |2544| 
         00268b 0800 
         00268d 0A   
    7928              $C$DW$511       .dwtag  DW_TAG_TI_branch
    7929                      .dwattr $C$DW$511, DW_AT_low_pc(0x00)
    7930                      .dwattr $C$DW$511, DW_AT_TI_call
    7931                      .dwattr $C$DW$511, DW_AT_TI_indirect
TMS320C55x Assembler PC v4.4.1 Tue Oct 02 02:33:20 2018

Tools Copyright (c) 1996-2012 Texas Instruments Incorporated
csl_msc.asm                                                          PAGE  196

    7932              
    7933 00268e 9200          CALL AC0  ; |2544| 
    7934 002690 3D15  ||      MOV #1, T1
    7935              
    7936                                                      ; call occurs [AC0] ; |2544| 
    7937 002692 C40C          MOV T0, *SP(#6) ; |2544| 
    7938                      .dwpsn  file "../c5535_bsl_revc/ezdsp5535_v1/c55xx_csl/src/csl_msc.c",line 2546,column 17,is_stmt
    7939 002694 F00C          CMP *SP(#6) == #1, TC1 ; |2546| 
         002696 0001 
    7940 002698 0474          BCC $C$L183,!TC1 ; |2546| 
         00269a 1D   
    7941                                                      ; branchcc occurs ; |2546| 
    7942                      .dwpsn  file "../c5535_bsl_revc/ezdsp5535_v1/c55xx_csl/src/csl_msc.c",line 2548,column 21,is_stmt
    7943 00269b ED00          MOV dbl(*SP(#0)), XAR3
         00269d BF   
    7944 00269e DF08          MOV uns(*SP(#4)), AC1 ; |2548| 
         0026a0 15   
    7945 0026a1 1015          SFTS AC1, #6, AC0 ; |2548| 
         0026a3 06   
    7946 0026a4 1014          SUB AC1 << #1, AC0 ; |2548| 
         0026a6 01   
    7947 0026a7 900A          MOV AC0, XAR2
    7948 0026a9 14A1          AADD XAR2, XAR3 ; |2548| 
         0026ab B0   
    7949 0026ac 1412          AADD #18, AR3 ; |2548| 
         0026ae B4   
    7950 0026af F56D          OR #0x0002, *AR3(#57) ; |2548| 
         0026b1 0002 
         0026b3 0039 
    7951                      .dwpsn  file "../c5535_bsl_revc/ezdsp5535_v1/c55xx_csl/src/csl_msc.c",line 2550,column 17,is_stmt
    7952 0026b5 0600          B $C$L187 ; |2550| 
         0026b7 99   
    7953                                                      ; branch occurs ; |2550| 
    7954 0026b8       $C$L183:    
    7955                      .dwpsn  file "../c5535_bsl_revc/ezdsp5535_v1/c55xx_csl/src/csl_msc.c",line 2553,column 18,is_stmt
    7956 0026b8 ED00          MOV dbl(*SP(#0)), XAR0
         0026ba 8F   
    7957 0026bb 7600          MOV #32, T1 ; |2553| 
         0026bd 2058 
    7958 0026bf B40F          AMAR *+AR0(#266) ; |2553| 
         0026c1 010A 
    7959              $C$DW$512       .dwtag  DW_TAG_TI_branch
    7960                      .dwattr $C$DW$512, DW_AT_low_pc(0x00)
    7961                      .dwattr $C$DW$512, DW_AT_name("_MSC_SetSenseKeys")
    7962                      .dwattr $C$DW$512, DW_AT_TI_call
    7963              
    7964 0026c3 08D9          CALL #_MSC_SetSenseKeys ; |2553| 
         0026c5 38   
    7965 0026c6 3D54  ||      MOV #5, T0
    7966              
    7967                                                      ; call occurs [#_MSC_SetSenseKeys] ; |2553| 
    7968                      .dwpsn  file "../c5535_bsl_revc/ezdsp5535_v1/c55xx_csl/src/csl_msc.c",line 2556,column 18,is_stmt
    7969 0026c8 ED00          MOV dbl(*SP(#0)), XAR3
         0026ca BF   
    7970 0026cb E66D          MOV #1, *AR3(#289) ; |2556| 
TMS320C55x Assembler PC v4.4.1 Tue Oct 02 02:33:20 2018

Tools Copyright (c) 1996-2012 Texas Instruments Incorporated
csl_msc.asm                                                          PAGE  197

         0026cd 0101 
         0026cf 21   
    7971                      .dwpsn  file "../c5535_bsl_revc/ezdsp5535_v1/c55xx_csl/src/csl_msc.c",line 2558,column 13,is_stmt
    7972 0026d0 0600          B $C$L187 ; |2558| 
         0026d2 7E   
    7973                                                      ; branch occurs ; |2558| 
    7974 0026d3       $C$L184:    
    7975                      .dwpsn  file "../c5535_bsl_revc/ezdsp5535_v1/c55xx_csl/src/csl_msc.c",line 2561,column 17,is_stmt
    7976 0026d3 ED00          MOV dbl(*SP(#0)), XAR0
         0026d5 8F   
    7977 0026d6 7600          MOV #58, T1 ; |2561| 
         0026d8 3A58 
    7978 0026da B40F          AMAR *+AR0(#266) ; |2561| 
         0026dc 010A 
    7979              $C$DW$513       .dwtag  DW_TAG_TI_branch
    7980                      .dwattr $C$DW$513, DW_AT_low_pc(0x00)
    7981                      .dwattr $C$DW$513, DW_AT_name("_MSC_SetSenseKeys")
    7982                      .dwattr $C$DW$513, DW_AT_TI_call
    7983              
    7984 0026de 08D9          CALL #_MSC_SetSenseKeys ; |2561| 
         0026e0 1D   
    7985 0026e1 3D24  ||      MOV #2, T0
    7986              
    7987                                                      ; call occurs [#_MSC_SetSenseKeys] ; |2561| 
    7988                      .dwpsn  file "../c5535_bsl_revc/ezdsp5535_v1/c55xx_csl/src/csl_msc.c",line 2565,column 17,is_stmt
    7989 0026e3 ED00          MOV dbl(*SP(#0)), XAR3
         0026e5 BF   
    7990 0026e6 DF08          MOV uns(*SP(#4)), AC1 ; |2565| 
         0026e8 15   
    7991 0026e9 1015          SFTS AC1, #6, AC0 ; |2565| 
         0026eb 06   
    7992 0026ec 1014          SUB AC1 << #1, AC0 ; |2565| 
         0026ee 01   
    7993 0026ef 900A          MOV AC0, XAR2
    7994 0026f1 14A1          AADD XAR2, XAR3 ; |2565| 
         0026f3 B0   
    7995 0026f4 1412          AADD #18, AR3 ; |2565| 
         0026f6 B4   
    7996 0026f7 F46D          AND #0xfff6, *AR3(#57) ; |2565| 
         0026f9 FFF6 
         0026fb 0039 
    7997                      .dwpsn  file "../c5535_bsl_revc/ezdsp5535_v1/c55xx_csl/src/csl_msc.c",line 2567,column 17,is_stmt
    7998 0026fd ED00          MOV dbl(*SP(#0)), XAR3
         0026ff BF   
    7999 002700 E66D          MOV #1, *AR3(#289) ; |2567| 
         002702 0101 
         002704 21   
    8000                      .dwpsn  file "../c5535_bsl_revc/ezdsp5535_v1/c55xx_csl/src/csl_msc.c",line 2569,column 9,is_stmt
    8001 002705 0600          B $C$L187 ; |2569| 
         002707 49   
    8002                                                      ; branch occurs ; |2569| 
    8003 002708       $C$L185:    
    8004                      .dwpsn  file "../c5535_bsl_revc/ezdsp5535_v1/c55xx_csl/src/csl_msc.c",line 2573,column 4,is_stmt
    8005 002708 ED00          MOV dbl(*SP(#0)), XAR3
         00270a BF   
TMS320C55x Assembler PC v4.4.1 Tue Oct 02 02:33:20 2018

Tools Copyright (c) 1996-2012 Texas Instruments Incorporated
csl_msc.asm                                                          PAGE  198

    8006 00270b A408          MOV *SP(#4), T0 ; |2573| 
    8007 00270d ED6D          MOV dbl(*AR3(#10)), AC0 ; |2573| 
         00270f 0800 
         002711 0A   
    8008              $C$DW$514       .dwtag  DW_TAG_TI_branch
    8009                      .dwattr $C$DW$514, DW_AT_low_pc(0x00)
    8010                      .dwattr $C$DW$514, DW_AT_TI_call
    8011                      .dwattr $C$DW$514, DW_AT_TI_indirect
    8012 002712 9200          CALL AC0  ; |2573| 
    8013                                                      ; call occurs [AC0] ; |2573| 
    8014 002714 C40C          MOV T0, *SP(#6) ; |2573| 
    8015                      .dwpsn  file "../c5535_bsl_revc/ezdsp5535_v1/c55xx_csl/src/csl_msc.c",line 2574,column 4,is_stmt
    8016 002716 F00C          CMP *SP(#6) == #1, TC1 ; |2574| 
         002718 0001 
    8017 00271a 0474          BCC $C$L186,!TC1 ; |2574| 
         00271c 1C   
    8018                                                      ; branchcc occurs ; |2574| 
    8019                      .dwpsn  file "../c5535_bsl_revc/ezdsp5535_v1/c55xx_csl/src/csl_msc.c",line 2576,column 5,is_stmt
    8020 00271d ED00          MOV dbl(*SP(#0)), XAR3
         00271f BF   
    8021 002720 DF08          MOV uns(*SP(#4)), AC1 ; |2576| 
         002722 15   
    8022 002723 1015          SFTS AC1, #6, AC0 ; |2576| 
         002725 06   
    8023 002726 1014          SUB AC1 << #1, AC0 ; |2576| 
         002728 01   
    8024 002729 900A          MOV AC0, XAR2
    8025 00272b 14A1          AADD XAR2, XAR3 ; |2576| 
         00272d B0   
    8026 00272e 1412          AADD #18, AR3 ; |2576| 
         002730 B4   
    8027 002731 F46D          AND #0xfffd, *AR3(#57) ; |2576| 
         002733 FFFD 
         002735 0039 
    8028                      .dwpsn  file "../c5535_bsl_revc/ezdsp5535_v1/c55xx_csl/src/csl_msc.c",line 2578,column 4,is_stmt
    8029 002737 4A18          B $C$L187 ; |2578| 
    8030                                                      ; branch occurs ; |2578| 
    8031 002739       $C$L186:    
    8032                      .dwpsn  file "../c5535_bsl_revc/ezdsp5535_v1/c55xx_csl/src/csl_msc.c",line 2581,column 5,is_stmt
    8033 002739 ED00          MOV dbl(*SP(#0)), XAR0
         00273b 8F   
    8034 00273c 7600          MOV #32, T1 ; |2581| 
         00273e 2058 
    8035 002740 B40F          AMAR *+AR0(#266) ; |2581| 
         002742 010A 
    8036              $C$DW$515       .dwtag  DW_TAG_TI_branch
    8037                      .dwattr $C$DW$515, DW_AT_low_pc(0x00)
    8038                      .dwattr $C$DW$515, DW_AT_name("_MSC_SetSenseKeys")
    8039                      .dwattr $C$DW$515, DW_AT_TI_call
    8040              
    8041 002744 08D8          CALL #_MSC_SetSenseKeys ; |2581| 
         002746 B7   
    8042 002747 3D54  ||      MOV #5, T0
    8043              
    8044                                                      ; call occurs [#_MSC_SetSenseKeys] ; |2581| 
TMS320C55x Assembler PC v4.4.1 Tue Oct 02 02:33:20 2018

Tools Copyright (c) 1996-2012 Texas Instruments Incorporated
csl_msc.asm                                                          PAGE  199

    8045                      .dwpsn  file "../c5535_bsl_revc/ezdsp5535_v1/c55xx_csl/src/csl_msc.c",line 2584,column 5,is_stmt
    8046 002749 ED00          MOV dbl(*SP(#0)), XAR3
         00274b BF   
    8047 00274c E66D          MOV #1, *AR3(#289) ; |2584| 
         00274e 0101 
         002750 21   
    8048 002751       $C$L187:    
    8049                      .dwpsn  file "../c5535_bsl_revc/ezdsp5535_v1/c55xx_csl/src/csl_msc.c",line 2589,column 5,is_stmt
    8050 002751 ED00          MOV dbl(*SP(#0)), XAR1
         002753 9F   
    8051 002754 ED04          MOV dbl(*SP(#2)), XAR0
         002756 8F   
    8052 002757 3CD4          MOV #13, T0
    8053 002759 B42F          AMAR *+AR1(#282) ; |2589| 
         00275b 011A 
    8054              $C$DW$516       .dwtag  DW_TAG_TI_branch
    8055                      .dwattr $C$DW$516, DW_AT_low_pc(0x00)
    8056                      .dwattr $C$DW$516, DW_AT_name("_USB_postTransaction")
    8057                      .dwattr $C$DW$516, DW_AT_TI_call
    8058              
    8059 00275d 6C00          CALL #_USB_postTransaction ; |2589| 
         00275f 0000!
    8060 002761 3D05  ||      MOV #0, T1
    8061              
    8062                                                      ; call occurs [#_USB_postTransaction] ; |2589| 
    8063 002763 C40E          MOV T0, *SP(#7) ; |2589| 
    8064                      .dwpsn  file "../c5535_bsl_revc/ezdsp5535_v1/c55xx_csl/src/csl_msc.c",line 2591,column 5,is_stmt
    8065 002765 ED00          MOV dbl(*SP(#0)), XAR3
         002767 BF   
    8066 002768 E66D          MOV #4, *AR3(#355) ; |2591| 
         00276a 0401 
         00276c 63   
    8067                      .dwpsn  file "../c5535_bsl_revc/ezdsp5535_v1/c55xx_csl/src/csl_msc.c",line 2593,column 5,is_stmt
    8068 00276d A40E          MOV *SP(#7), T0 ; |2593| 
    8069 00276f       $C$L188:    
    8070                      .dwpsn  file "../c5535_bsl_revc/ezdsp5535_v1/c55xx_csl/src/csl_msc.c",line 2594,column 1,is_stmt
    8071 00276f 4E09          AADD #9, SP
    8072                      .dwcfi  cfa_offset, 1
    8073              $C$DW$517       .dwtag  DW_TAG_TI_branch
    8074                      .dwattr $C$DW$517, DW_AT_low_pc(0x00)
    8075                      .dwattr $C$DW$517, DW_AT_TI_return
    8076 002771 4804          RET
    8077                                                      ; return occurs
    8078                      .dwattr $C$DW$494, DW_AT_TI_end_file("../c5535_bsl_revc/ezdsp5535_v1/c55xx_csl/src/csl_msc.c")
    8079                      .dwattr $C$DW$494, DW_AT_TI_end_line(0xa22)
    8080                      .dwattr $C$DW$494, DW_AT_TI_end_column(0x01)
    8081                      .dwendentry
    8082                      .dwendtag $C$DW$494
    8083              
    8084 002773               .sect   ".text"
    8085                      .align 4
    8086                      .global _MSC_HandleReadCapacity
    8087              
    8088              $C$DW$518       .dwtag  DW_TAG_subprogram, DW_AT_name("MSC_HandleReadCapacity")
    8089                      .dwattr $C$DW$518, DW_AT_low_pc(_MSC_HandleReadCapacity)
TMS320C55x Assembler PC v4.4.1 Tue Oct 02 02:33:20 2018

Tools Copyright (c) 1996-2012 Texas Instruments Incorporated
csl_msc.asm                                                          PAGE  200

    8090                      .dwattr $C$DW$518, DW_AT_high_pc(0x00)
    8091                      .dwattr $C$DW$518, DW_AT_TI_symbol_name("_MSC_HandleReadCapacity")
    8092                      .dwattr $C$DW$518, DW_AT_external
    8093                      .dwattr $C$DW$518, DW_AT_type(*$C$DW$T$89)
    8094                      .dwattr $C$DW$518, DW_AT_TI_begin_file("../c5535_bsl_revc/ezdsp5535_v1/c55xx_csl/src/csl_msc.c")
    8095                      .dwattr $C$DW$518, DW_AT_TI_begin_line(0xa51)
    8096                      .dwattr $C$DW$518, DW_AT_TI_begin_column(0x0c)
    8097                      .dwattr $C$DW$518, DW_AT_TI_max_frame_size(0x0c)
    8098                      .dwpsn  file "../c5535_bsl_revc/ezdsp5535_v1/c55xx_csl/src/csl_msc.c",line 2644,column 1,is_stmt,addr
    8099              
    8100                      .dwfde $C$DW$CIE, _MSC_HandleReadCapacity
    8101              $C$DW$519       .dwtag  DW_TAG_formal_parameter, DW_AT_name("pMscHandle")
    8102                      .dwattr $C$DW$519, DW_AT_TI_symbol_name("_pMscHandle")
    8103                      .dwattr $C$DW$519, DW_AT_type(*$C$DW$T$107)
    8104                      .dwattr $C$DW$519, DW_AT_location[DW_OP_reg17]
    8105              $C$DW$520       .dwtag  DW_TAG_formal_parameter, DW_AT_name("hUsbInEp")
    8106                      .dwattr $C$DW$520, DW_AT_TI_symbol_name("_hUsbInEp")
    8107                      .dwattr $C$DW$520, DW_AT_type(*$C$DW$T$27)
    8108                      .dwattr $C$DW$520, DW_AT_location[DW_OP_reg19]
    8109              $C$DW$521       .dwtag  DW_TAG_formal_parameter, DW_AT_name("logicalUnit")
    8110                      .dwattr $C$DW$521, DW_AT_TI_symbol_name("_logicalUnit")
    8111                      .dwattr $C$DW$521, DW_AT_type(*$C$DW$T$25)
    8112                      .dwattr $C$DW$521, DW_AT_location[DW_OP_reg12]
    8113              ;*******************************************************************************
    8114              ;* FUNCTION NAME: MSC_HandleReadCapacity                                       *
    8115              ;*                                                                             *
    8116              ;*   Function Uses Regs : AC0,AC0,AC1,AC1,T0,T1,AR0,XAR0,AR1,XAR1,AR2,XAR2,AR3,*
    8117              ;*                        XAR3,SP,CARRY,TC1,M40,SATA,SATD,RDM,FRCT,SMUL        *
    8118              ;*   Stack Frame        : Compact (No Frame Pointer, w/ debug)                 *
    8119              ;*   Total Frame Size   : 12 words                                             *
    8120              ;*                        (2 return address/alignment)                         *
    8121              ;*                        (10 local values)                                    *
    8122              ;*   Min System Stack   : 1 word                                               *
    8123              ;*******************************************************************************
    8124 002774       _MSC_HandleReadCapacity:
    8125                      .dwcfi  cfa_offset, 1
    8126                      .dwcfi  save_reg_to_mem, 91, -1
    8127 002774 4EF5          AADD #-11, SP
    8128                      .dwcfi  cfa_offset, 12
    8129              $C$DW$522       .dwtag  DW_TAG_variable, DW_AT_name("pMscHandle")
    8130                      .dwattr $C$DW$522, DW_AT_TI_symbol_name("_pMscHandle")
    8131                      .dwattr $C$DW$522, DW_AT_type(*$C$DW$T$107)
    8132                      .dwattr $C$DW$522, DW_AT_location[DW_OP_bregx 0x24 0]
    8133              $C$DW$523       .dwtag  DW_TAG_variable, DW_AT_name("hUsbInEp")
    8134                      .dwattr $C$DW$523, DW_AT_TI_symbol_name("_hUsbInEp")
    8135                      .dwattr $C$DW$523, DW_AT_type(*$C$DW$T$27)
    8136                      .dwattr $C$DW$523, DW_AT_location[DW_OP_bregx 0x24 2]
    8137              $C$DW$524       .dwtag  DW_TAG_variable, DW_AT_name("logicalUnit")
    8138                      .dwattr $C$DW$524, DW_AT_TI_symbol_name("_logicalUnit")
    8139                      .dwattr $C$DW$524, DW_AT_type(*$C$DW$T$25)
    8140                      .dwattr $C$DW$524, DW_AT_location[DW_OP_bregx 0x24 4]
    8141              $C$DW$525       .dwtag  DW_TAG_variable, DW_AT_name("status")
    8142                      .dwattr $C$DW$525, DW_AT_TI_symbol_name("_status")
    8143                      .dwattr $C$DW$525, DW_AT_type(*$C$DW$T$89)
    8144                      .dwattr $C$DW$525, DW_AT_location[DW_OP_bregx 0x24 5]
TMS320C55x Assembler PC v4.4.1 Tue Oct 02 02:33:20 2018

Tools Copyright (c) 1996-2012 Texas Instruments Incorporated
csl_msc.asm                                                          PAGE  201

    8145              $C$DW$526       .dwtag  DW_TAG_variable, DW_AT_name("capacityHi")
    8146                      .dwattr $C$DW$526, DW_AT_TI_symbol_name("_capacityHi")
    8147                      .dwattr $C$DW$526, DW_AT_type(*$C$DW$T$25)
    8148                      .dwattr $C$DW$526, DW_AT_location[DW_OP_bregx 0x24 6]
    8149              $C$DW$527       .dwtag  DW_TAG_variable, DW_AT_name("capacityLo")
    8150                      .dwattr $C$DW$527, DW_AT_TI_symbol_name("_capacityLo")
    8151                      .dwattr $C$DW$527, DW_AT_type(*$C$DW$T$25)
    8152                      .dwattr $C$DW$527, DW_AT_location[DW_OP_bregx 0x24 7]
    8153              $C$DW$528       .dwtag  DW_TAG_variable, DW_AT_name("smallerLen")
    8154                      .dwattr $C$DW$528, DW_AT_TI_symbol_name("_smallerLen")
    8155                      .dwattr $C$DW$528, DW_AT_type(*$C$DW$T$25)
    8156                      .dwattr $C$DW$528, DW_AT_location[DW_OP_bregx 0x24 8]
    8157              $C$DW$529       .dwtag  DW_TAG_variable, DW_AT_name("mediaPresentStat")
    8158                      .dwattr $C$DW$529, DW_AT_TI_symbol_name("_mediaPresentStat")
    8159                      .dwattr $C$DW$529, DW_AT_type(*$C$DW$T$52)
    8160                      .dwattr $C$DW$529, DW_AT_location[DW_OP_bregx 0x24 9]
    8161 002776 C408          MOV T0, *SP(#4) ; |2644| 
    8162 002778 EB04          MOV XAR1, dbl(*SP(#2))
         00277a 95   
    8163 00277b EB00          MOV XAR0, dbl(*SP(#0))
         00277d 85   
    8164                      .dwpsn  file "../c5535_bsl_revc/ezdsp5535_v1/c55xx_csl/src/csl_msc.c",line 2652,column 2,is_stmt
    8165 00277e ED00          MOV dbl(*SP(#0)), XAR3
         002780 BF   
    8166 002781 A96D          MOV *AR3(#303), AR1 ; |2652| 
         002783 012F 
    8167              
    8168 002789 1980          AND #0x0080, AR1, AR1 ; |2652| 
         00278b 99   
    8169 002785 7600  ||      MOV #128, AR2 ; |2652| 
         002787 80A8 
    8170              
    8171 00278c 1290          CMPU AR1 == AR2, TC1 ; |2652| 
         00278e A4   
    8172 00278f 0464          BCC $C$L189,TC1 ; |2652| 
         002791 13   
    8173                                                      ; branchcc occurs ; |2652| 
    8174 002792 ED6D          MOV dbl(*AR3(#16)), AC0 ; |2652| 
         002794 0800 
         002796 10   
    8175 002797 6600          BCC $C$L189,AC0 == #0 ; |2652| 
    8176                                                      ; branchcc occurs ; |2652| 
    8177                      .dwpsn  file "../c5535_bsl_revc/ezdsp5535_v1/c55xx_csl/src/csl_msc.c",line 2656,column 3,is_stmt
    8178 002799 7600          MOV #128, T0 ; |2656| 
         00279b 8048 
    8179              $C$DW$530       .dwtag  DW_TAG_TI_branch
    8180                      .dwattr $C$DW$530, DW_AT_low_pc(0x00)
    8181                      .dwattr $C$DW$530, DW_AT_name("_MSC_handleDataDirMisMatch")
    8182                      .dwattr $C$DW$530, DW_AT_TI_call
    8183 00279d 0805          CALL #_MSC_handleDataDirMisMatch ; |2656| 
         00279f 80   
    8184                                                      ; call occurs [#_MSC_handleDataDirMisMatch] ; |2656| 
    8185 0027a0 C40A          MOV T0, *SP(#5) ; |2656| 
    8186                      .dwpsn  file "../c5535_bsl_revc/ezdsp5535_v1/c55xx_csl/src/csl_msc.c",line 2658,column 3,is_stmt
    8187 0027a2 0602          B $C$L199 ; |2658| 
TMS320C55x Assembler PC v4.4.1 Tue Oct 02 02:33:20 2018

Tools Copyright (c) 1996-2012 Texas Instruments Incorporated
csl_msc.asm                                                          PAGE  202

         0027a4 48   
    8188                                                      ; branch occurs ; |2658| 
    8189 0027a5       $C$L189:    
    8190                      .dwpsn  file "../c5535_bsl_revc/ezdsp5535_v1/c55xx_csl/src/csl_msc.c",line 2661,column 2,is_stmt
    8191 0027a5 ED6D          MOV dbl(*AR3(#16)), AC0 ; |2661| 
         0027a7 0800 
         0027a9 10   
    8192 0027aa 6D00          BCC $C$L197,AC0 == #0 ; |2661| 
         0027ac 0235 
    8193                                                      ; branchcc occurs ; |2661| 
    8194                      .dwpsn  file "../c5535_bsl_revc/ezdsp5535_v1/c55xx_csl/src/csl_msc.c",line 2663,column 6,is_stmt
    8195 0027ae DF08          MOV uns(*SP(#4)), AC1 ; |2663| 
         0027b0 15   
    8196 0027b1 1015          SFTS AC1, #6, AC0 ; |2663| 
         0027b3 06   
    8197 0027b4 1014          SUB AC1 << #1, AC0 ; |2663| 
         0027b6 01   
    8198 0027b7 900A          MOV AC0, XAR2
    8199 0027b9 14A1          AADD XAR2, XAR3 ; |2663| 
         0027bb B0   
    8200 0027bc ED6D          MOV dbl(*AR3(#68)), AC0 ; |2663| 
         0027be 0800 
         0027c0 44   
    8201 0027c1 1007          SFTL AC0, #-16, AC0 ; |2663| 
         0027c3 30   
    8202 0027c4 7DFF          AND #0xffff, AC0, AC0 ; |2663| 
         0027c6 FF00 
    8203 0027c8 C00C          MOV AC0, *SP(#6) ; |2663| 
    8204                      .dwpsn  file "../c5535_bsl_revc/ezdsp5535_v1/c55xx_csl/src/csl_msc.c",line 2665,column 6,is_stmt
    8205 0027ca ED00          MOV dbl(*SP(#0)), XAR3
         0027cc BF   
    8206 0027cd DF08          MOV uns(*SP(#4)), AC1 ; |2665| 
         0027cf 15   
    8207 0027d0 1015          SFTS AC1, #6, AC0 ; |2665| 
         0027d2 06   
    8208 0027d3 1014          SUB AC1 << #1, AC0 ; |2665| 
         0027d5 01   
    8209 0027d6 900A          MOV AC0, XAR2
    8210 0027d8 14A1          AADD XAR2, XAR3 ; |2665| 
         0027da B0   
    8211 0027db ED6D          MOV dbl(*AR3(#68)), AC0 ; |2665| 
         0027dd 0800 
         0027df 44   
    8212 0027e0 7DFF          AND #0xffff, AC0, AC0 ; |2665| 
         0027e2 FF00 
    8213 0027e4 C00E          MOV AC0, *SP(#7) ; |2665| 
    8214                      .dwpsn  file "../c5535_bsl_revc/ezdsp5535_v1/c55xx_csl/src/csl_msc.c",line 2667,column 6,is_stmt
    8215 0027e6 ED00          MOV dbl(*SP(#0)), XAR3
         0027e8 BF   
    8216 0027e9 DF0C          MOV uns(high_byte(*SP(#6))), AC0 ; |2667| 
         0027eb 01   
    8217 0027ec A10C          MOV *SP(#6), AC1 ; |2667| 
    8218 0027ee 1011          OR AC1 << #8, AC0 ; |2667| 
         0027f0 08   
    8219 0027f1 C06D          MOV AC0, *AR3(#292) ; |2667| 
TMS320C55x Assembler PC v4.4.1 Tue Oct 02 02:33:20 2018

Tools Copyright (c) 1996-2012 Texas Instruments Incorporated
csl_msc.asm                                                          PAGE  203

         0027f3 0124 
    8220                      .dwpsn  file "../c5535_bsl_revc/ezdsp5535_v1/c55xx_csl/src/csl_msc.c",line 2669,column 6,is_stmt
    8221 0027f5 ED00          MOV dbl(*SP(#0)), XAR3
         0027f7 BF   
    8222 0027f8 DF0E          MOV uns(high_byte(*SP(#7))), AC0 ; |2669| 
         0027fa 01   
    8223 0027fb A10E          MOV *SP(#7), AC1 ; |2669| 
    8224 0027fd 1011          OR AC1 << #8, AC0 ; |2669| 
         0027ff 08   
    8225 002800 C06D          MOV AC0, *AR3(#293) ; |2669| 
         002802 0125 
    8226                      .dwpsn  file "../c5535_bsl_revc/ezdsp5535_v1/c55xx_csl/src/csl_msc.c",line 2673,column 6,is_stmt
    8227 002804 ED00          MOV dbl(*SP(#0)), XAR3
         002806 BF   
    8228 002807 DF08          MOV uns(*SP(#4)), AC1 ; |2673| 
         002809 15   
    8229 00280a 1015          SFTS AC1, #6, AC0 ; |2673| 
         00280c 06   
    8230 00280d 1014          SUB AC1 << #1, AC0 ; |2673| 
         00280f 01   
    8231 002810 900A          MOV AC0, XAR2
    8232 002812 14A1          AADD XAR2, XAR3 ; |2673| 
         002814 B0   
    8233 002815 ED6D          MOV dbl(*AR3(#72)), AC0 ; |2673| 
         002817 0800 
         002819 48   
    8234 00281a 1007          SFTL AC0, #-16, AC0 ; |2673| 
         00281c 30   
    8235 00281d 7DFF          AND #0xffff, AC0, AC0 ; |2673| 
         00281f FF00 
    8236 002821 C00C          MOV AC0, *SP(#6) ; |2673| 
    8237                      .dwpsn  file "../c5535_bsl_revc/ezdsp5535_v1/c55xx_csl/src/csl_msc.c",line 2675,column 6,is_stmt
    8238 002823 ED00          MOV dbl(*SP(#0)), XAR3
         002825 BF   
    8239 002826 DF08          MOV uns(*SP(#4)), AC1 ; |2675| 
         002828 15   
    8240 002829 1015          SFTS AC1, #6, AC0 ; |2675| 
         00282b 06   
    8241 00282c 1014          SUB AC1 << #1, AC0 ; |2675| 
         00282e 01   
    8242 00282f 900A          MOV AC0, XAR2
    8243 002831 14A1          AADD XAR2, XAR3 ; |2675| 
         002833 B0   
    8244 002834 ED6D          MOV dbl(*AR3(#72)), AC0 ; |2675| 
         002836 0800 
         002838 48   
    8245 002839 7DFF          AND #0xffff, AC0, AC0 ; |2675| 
         00283b FF00 
    8246 00283d C00E          MOV AC0, *SP(#7) ; |2675| 
    8247                      .dwpsn  file "../c5535_bsl_revc/ezdsp5535_v1/c55xx_csl/src/csl_msc.c",line 2677,column 6,is_stmt
    8248 00283f ED00          MOV dbl(*SP(#0)), XAR3
         002841 BF   
    8249 002842 DF0C          MOV uns(high_byte(*SP(#6))), AC0 ; |2677| 
         002844 01   
    8250 002845 A10C          MOV *SP(#6), AC1 ; |2677| 
TMS320C55x Assembler PC v4.4.1 Tue Oct 02 02:33:20 2018

Tools Copyright (c) 1996-2012 Texas Instruments Incorporated
csl_msc.asm                                                          PAGE  204

    8251 002847 1011          OR AC1 << #8, AC0 ; |2677| 
         002849 08   
    8252 00284a C06D          MOV AC0, *AR3(#294) ; |2677| 
         00284c 0126 
    8253                      .dwpsn  file "../c5535_bsl_revc/ezdsp5535_v1/c55xx_csl/src/csl_msc.c",line 2679,column 6,is_stmt
    8254 00284e ED00          MOV dbl(*SP(#0)), XAR3
         002850 BF   
    8255 002851 DF0E          MOV uns(high_byte(*SP(#7))), AC0 ; |2679| 
         002853 01   
    8256 002854 A10E          MOV *SP(#7), AC1 ; |2679| 
    8257 002856 1011          OR AC1 << #8, AC0 ; |2679| 
         002858 08   
    8258 002859 C06D          MOV AC0, *AR3(#295) ; |2679| 
         00285b 0127 
    8259                      .dwpsn  file "../c5535_bsl_revc/ezdsp5535_v1/c55xx_csl/src/csl_msc.c",line 2683,column 6,is_stmt
    8260 00285d ED00          MOV dbl(*SP(#0)), XAR3
         00285f BF   
    8261 002860 ED6D          MOV dbl(*AR3(#16)), AC0 ; |2683| 
         002862 0800 
         002864 10   
    8262 002865 DF6D          MOV uns(*AR3(#290)), AC1 ; |2683| 
         002867 1501 
         002869 22   
    8263 00286a 1218          CMPU AC1 >= AC0, TC1 ; |2683| 
         00286c 04   
    8264 00286d 6464          BCC $C$L190,TC1 ; |2683| 
    8265                                                      ; branchcc occurs ; |2683| 
    8266                      .dwpsn  file "../c5535_bsl_revc/ezdsp5535_v1/c55xx_csl/src/csl_msc.c",line 2685,column 7,is_stmt
    8267 00286f A96D          MOV *AR3(#290), AR1 ; |2685| 
         002871 0122 
    8268 002873 C910          MOV AR1, *SP(#8) ; |2685| 
    8269                      .dwpsn  file "../c5535_bsl_revc/ezdsp5535_v1/c55xx_csl/src/csl_msc.c",line 2686,column 3,is_stmt
    8270 002875 4A0B          B $C$L191 ; |2686| 
    8271                                                      ; branch occurs ; |2686| 
    8272 002877       $C$L190:    
    8273                      .dwpsn  file "../c5535_bsl_revc/ezdsp5535_v1/c55xx_csl/src/csl_msc.c",line 2689,column 7,is_stmt
    8274 002877 ED6D          MOV dbl(*AR3(#16)), AC0 ; |2689| 
         002879 0800 
         00287b 10   
    8275 00287c 7DFF          AND #0xffff, AC0, AC0 ; |2689| 
         00287e FF00 
    8276 002880 C010          MOV AC0, *SP(#8) ; |2689| 
    8277 002882       $C$L191:    
    8278                      .dwpsn  file "../c5535_bsl_revc/ezdsp5535_v1/c55xx_csl/src/csl_msc.c",line 2694,column 6,is_stmt
    8279 002882 ED00          MOV dbl(*SP(#0)), XAR3
         002884 BF   
    8280 002885 DF10          MOV uns(*SP(#8)), AC0 ; |2694| 
         002887 05   
    8281 002888 ED6D          SUB AC0, dbl(*AR3(#16)), AC0 ; |2694| 
         00288a 0400 
         00288c 10   
    8282 00288d EB6D          MOV AC0, dbl(*AR3(#16)) ; |2694| 
         00288f 0800 
         002891 10   
    8283                      .dwpsn  file "../c5535_bsl_revc/ezdsp5535_v1/c55xx_csl/src/csl_msc.c",line 2695,column 6,is_stmt
TMS320C55x Assembler PC v4.4.1 Tue Oct 02 02:33:20 2018

Tools Copyright (c) 1996-2012 Texas Instruments Incorporated
csl_msc.asm                                                          PAGE  205

    8284 002892 ED00          MOV dbl(*SP(#0)), XAR3
         002894 BF   
    8285 002895 ED6D          MOV dbl(*AR3(#16)), AC0 ; |2695| 
         002897 0800 
         002899 10   
    8286 00289a 7DFF          AND #0xffff, AC0, AC0 ; |2695| 
         00289c FF00 
    8287 00289e C06D          MOV AC0, *AR3(#287) ; |2695| 
         0028a0 011F 
    8288                      .dwpsn  file "../c5535_bsl_revc/ezdsp5535_v1/c55xx_csl/src/csl_msc.c",line 2697,column 6,is_stmt
    8289 0028a2 ED00          MOV dbl(*SP(#0)), XAR3
         0028a4 BF   
    8290 0028a5 ED6D          MOV dbl(*AR3(#16)), AC0 ; |2697| 
         0028a7 0800 
         0028a9 10   
    8291 0028aa BC6D          MOV HI(AC0), *AR3(#288) ; |2697| 
         0028ac 0120 
    8292                      .dwpsn  file "../c5535_bsl_revc/ezdsp5535_v1/c55xx_csl/src/csl_msc.c",line 2701,column 6,is_stmt
    8293 0028ae ED00          MOV dbl(*SP(#0)), XAR3
         0028b0 BF   
    8294 0028b1 E66D          MOV #1, *AR3(#289) ; |2701| 
         0028b3 0101 
         0028b5 21   
    8295                      .dwpsn  file "../c5535_bsl_revc/ezdsp5535_v1/c55xx_csl/src/csl_msc.c",line 2703,column 3,is_stmt
    8296 0028b6 ED00          MOV dbl(*SP(#0)), XAR3
         0028b8 BF   
    8297 0028b9 DF08          MOV uns(*SP(#4)), AC1 ; |2703| 
         0028bb 15   
    8298 0028bc 1015          SFTS AC1, #6, AC0 ; |2703| 
         0028be 06   
    8299 0028bf 1014          SUB AC1 << #1, AC0 ; |2703| 
         0028c1 01   
    8300 0028c2 900A          MOV AC0, XAR2
    8301 0028c4 14A1          AADD XAR2, XAR3 ; |2703| 
         0028c6 B0   
    8302 0028c7 DC6D          BTST #0, *AR3(#75), TC1 ; |2703| 
         0028c9 0000 
         0028cb 4B   
    8303 0028cc 6D74          BCC $C$L194,!TC1 ; |2703| 
         0028ce 00B4 
    8304                                                      ; branchcc occurs ; |2703| 
    8305                      .dwpsn  file "../c5535_bsl_revc/ezdsp5535_v1/c55xx_csl/src/csl_msc.c",line 2705,column 4,is_stmt
    8306 0028d0 ED00          MOV dbl(*SP(#0)), XAR3
         0028d2 BF   
    8307 0028d3 A408          MOV *SP(#4), T0 ; |2705| 
    8308 0028d5 ED79          MOV dbl(*AR3(short(#4))), AC0 ; |2705| 
         0028d7 08   
    8309              $C$DW$531       .dwtag  DW_TAG_TI_branch
    8310                      .dwattr $C$DW$531, DW_AT_low_pc(0x00)
    8311                      .dwattr $C$DW$531, DW_AT_TI_call
    8312                      .dwattr $C$DW$531, DW_AT_TI_indirect
    8313 0028d8 9200          CALL AC0  ; |2705| 
    8314                                                      ; call occurs [AC0] ; |2705| 
    8315 0028da C412          MOV T0, *SP(#9) ; |2705| 
    8316                      .dwpsn  file "../c5535_bsl_revc/ezdsp5535_v1/c55xx_csl/src/csl_msc.c",line 2706,column 4,is_stmt
TMS320C55x Assembler PC v4.4.1 Tue Oct 02 02:33:20 2018

Tools Copyright (c) 1996-2012 Texas Instruments Incorporated
csl_msc.asm                                                          PAGE  206

    8317 0028dc F012          CMP *SP(#9) == #1, TC1 ; |2706| 
         0028de 0001 
    8318 0028e0 0474          BCC $C$L192,!TC1 ; |2706| 
         0028e2 19   
    8319                                                      ; branchcc occurs ; |2706| 
    8320                      .dwpsn  file "../c5535_bsl_revc/ezdsp5535_v1/c55xx_csl/src/csl_msc.c",line 2708,column 5,is_stmt
    8321 0028e3 ED00          MOV dbl(*SP(#0)), XAR3
         0028e5 BF   
    8322 0028e6 E66D          MOV #0, *AR3(#289) ; |2708| 
         0028e8 0001 
         0028ea 21   
    8323                      .dwpsn  file "../c5535_bsl_revc/ezdsp5535_v1/c55xx_csl/src/csl_msc.c",line 2709,column 5,is_stmt
    8324 0028eb ED00          MOV dbl(*SP(#0)), XAR0
         0028ed 8F   
    8325 0028ee 3C04          MOV #0, T0
    8326 0028f0 B40F          AMAR *+AR0(#266) ; |2709| 
         0028f2 010A 
    8327              $C$DW$532       .dwtag  DW_TAG_TI_branch
    8328                      .dwattr $C$DW$532, DW_AT_low_pc(0x00)
    8329                      .dwattr $C$DW$532, DW_AT_name("_MSC_SetSenseKeys")
    8330                      .dwattr $C$DW$532, DW_AT_TI_call
    8331              
    8332 0028f4 08D7          CALL #_MSC_SetSenseKeys ; |2709| 
         0028f6 07   
    8333 0028f7 3D05  ||      MOV #0, T1
    8334              
    8335                                                      ; call occurs [#_MSC_SetSenseKeys] ; |2709| 
    8336                      .dwpsn  file "../c5535_bsl_revc/ezdsp5535_v1/c55xx_csl/src/csl_msc.c",line 2712,column 4,is_stmt
    8337 0028f9 0600          B $C$L196 ; |2712| 
         0028fb C9   
    8338                                                      ; branch occurs ; |2712| 
    8339 0028fc       $C$L192:    
    8340                      .dwpsn  file "../c5535_bsl_revc/ezdsp5535_v1/c55xx_csl/src/csl_msc.c",line 2713,column 9,is_stmt
    8341 0028fc F012          CMP *SP(#9) == #4, TC1 ; |2713| 
         0028fe 0004 
    8342 002900 0474          BCC $C$L193,!TC1 ; |2713| 
         002902 4D   
    8343                                                      ; branchcc occurs ; |2713| 
    8344                      .dwpsn  file "../c5535_bsl_revc/ezdsp5535_v1/c55xx_csl/src/csl_msc.c",line 2715,column 5,is_stmt
    8345 002903 ED00          MOV dbl(*SP(#0)), XAR3
         002905 BF   
    8346 002906 E66D          MOV #0, *AR3(#289) ; |2715| 
         002908 0001 
         00290a 21   
    8347                      .dwpsn  file "../c5535_bsl_revc/ezdsp5535_v1/c55xx_csl/src/csl_msc.c",line 2716,column 5,is_stmt
    8348 00290b ED00          MOV dbl(*SP(#0)), XAR0
         00290d 8F   
    8349 00290e 3C04          MOV #0, T0
    8350 002910 B40F          AMAR *+AR0(#266) ; |2716| 
         002912 010A 
    8351              $C$DW$533       .dwtag  DW_TAG_TI_branch
    8352                      .dwattr $C$DW$533, DW_AT_low_pc(0x00)
    8353                      .dwattr $C$DW$533, DW_AT_name("_MSC_SetSenseKeys")
    8354                      .dwattr $C$DW$533, DW_AT_TI_call
    8355              
TMS320C55x Assembler PC v4.4.1 Tue Oct 02 02:33:20 2018

Tools Copyright (c) 1996-2012 Texas Instruments Incorporated
csl_msc.asm                                                          PAGE  207

    8356 002914 08D6          CALL #_MSC_SetSenseKeys ; |2716| 
         002916 E7   
    8357 002917 3D05  ||      MOV #0, T1
    8358              
    8359                                                      ; call occurs [#_MSC_SetSenseKeys] ; |2716| 
    8360                      .dwpsn  file "../c5535_bsl_revc/ezdsp5535_v1/c55xx_csl/src/csl_msc.c",line 2719,column 5,is_stmt
    8361 002919 ED00          MOV dbl(*SP(#0)), XAR3
         00291b BF   
    8362 00291c DF08          MOV uns(*SP(#4)), AC1 ; |2719| 
         00291e 15   
    8363 00291f 1015          SFTS AC1, #6, AC0 ; |2719| 
         002921 06   
    8364 002922 1014          SUB AC1 << #1, AC0 ; |2719| 
         002924 01   
    8365 002925 900A          MOV AC0, XAR2
    8366 002927 14A1          AADD XAR2, XAR3 ; |2719| 
         002929 B0   
    8367 00292a 1412          AADD #18, AR3 ; |2719| 
         00292c B4   
    8368 00292d F46D          AND #0xfffe, *AR3(#57) ; |2719| 
         00292f FFFE 
         002931 0039 
    8369                      .dwpsn  file "../c5535_bsl_revc/ezdsp5535_v1/c55xx_csl/src/csl_msc.c",line 2720,column 5,is_stmt
    8370 002933 ED00          MOV dbl(*SP(#0)), XAR3
         002935 BF   
    8371 002936 DF08          MOV uns(*SP(#4)), AC1 ; |2720| 
         002938 15   
    8372 002939 1015          SFTS AC1, #6, AC0 ; |2720| 
         00293b 06   
    8373 00293c 1014          SUB AC1 << #1, AC0 ; |2720| 
         00293e 01   
    8374 00293f 900A          MOV AC0, XAR2
    8375 002941 14A1          AADD XAR2, XAR3 ; |2720| 
         002943 B0   
    8376 002944 1412          AADD #18, AR3 ; |2720| 
         002946 B4   
    8377 002947 F56D          OR #0x0008, *AR3(#57) ; |2720| 
         002949 0008 
         00294b 0039 
    8378                      .dwpsn  file "../c5535_bsl_revc/ezdsp5535_v1/c55xx_csl/src/csl_msc.c",line 2721,column 4,is_stmt
    8379 00294d 0600          B $C$L196 ; |2721| 
         00294f 75   
    8380                                                      ; branch occurs ; |2721| 
    8381 002950       $C$L193:    
    8382                      .dwpsn  file "../c5535_bsl_revc/ezdsp5535_v1/c55xx_csl/src/csl_msc.c",line 2722,column 9,is_stmt
    8383 002950 F012          CMP *SP(#9) == #2, TC1 ; |2722| 
         002952 0002 
    8384 002954 0474          BCC $C$L196,!TC1 ; |2722| 
         002956 6E   
    8385                                                      ; branchcc occurs ; |2722| 
    8386                      .dwpsn  file "../c5535_bsl_revc/ezdsp5535_v1/c55xx_csl/src/csl_msc.c",line 2724,column 5,is_stmt
    8387 002957 ED00          MOV dbl(*SP(#0)), XAR0
         002959 8F   
    8388 00295a 7600          MOV #58, T1 ; |2724| 
         00295c 3A58 
TMS320C55x Assembler PC v4.4.1 Tue Oct 02 02:33:20 2018

Tools Copyright (c) 1996-2012 Texas Instruments Incorporated
csl_msc.asm                                                          PAGE  208

    8389 00295e B40F          AMAR *+AR0(#266) ; |2724| 
         002960 010A 
    8390              $C$DW$534       .dwtag  DW_TAG_TI_branch
    8391                      .dwattr $C$DW$534, DW_AT_low_pc(0x00)
    8392                      .dwattr $C$DW$534, DW_AT_name("_MSC_SetSenseKeys")
    8393                      .dwattr $C$DW$534, DW_AT_TI_call
    8394              
    8395 002962 08D6          CALL #_MSC_SetSenseKeys ; |2724| 
         002964 99   
    8396 002965 3D24  ||      MOV #2, T0
    8397              
    8398                                                      ; call occurs [#_MSC_SetSenseKeys] ; |2724| 
    8399                      .dwpsn  file "../c5535_bsl_revc/ezdsp5535_v1/c55xx_csl/src/csl_msc.c",line 2728,column 5,is_stmt
    8400 002967 ED00          MOV dbl(*SP(#0)), XAR3
         002969 BF   
    8401 00296a DF08          MOV uns(*SP(#4)), AC1 ; |2728| 
         00296c 15   
    8402 00296d 1015          SFTS AC1, #6, AC0 ; |2728| 
         00296f 06   
    8403 002970 1014          SUB AC1 << #1, AC0 ; |2728| 
         002972 01   
    8404 002973 900A          MOV AC0, XAR2
    8405 002975 14A1          AADD XAR2, XAR3 ; |2728| 
         002977 B0   
    8406 002978 1412          AADD #18, AR3 ; |2728| 
         00297a B4   
    8407 00297b F46D          AND #0xfff6, *AR3(#57) ; |2728| 
         00297d FFF6 
         00297f 0039 
    8408                      .dwpsn  file "../c5535_bsl_revc/ezdsp5535_v1/c55xx_csl/src/csl_msc.c",line 2731,column 3,is_stmt
    8409 002981 0600          B $C$L196 ; |2731| 
         002983 41   
    8410                                                      ; branch occurs ; |2731| 
    8411 002984       $C$L194:    
    8412                      .dwpsn  file "../c5535_bsl_revc/ezdsp5535_v1/c55xx_csl/src/csl_msc.c",line 2732,column 8,is_stmt
    8413 002984 ED00          MOV dbl(*SP(#0)), XAR3
         002986 BF   
    8414 002987 DF08          MOV uns(*SP(#4)), AC1 ; |2732| 
         002989 15   
    8415 00298a 1015          SFTS AC1, #6, AC0 ; |2732| 
         00298c 06   
    8416 00298d 1014          SUB AC1 << #1, AC0 ; |2732| 
         00298f 01   
    8417 002990 900A          MOV AC0, XAR2
    8418 002992 14A1          AADD XAR2, XAR3 ; |2732| 
         002994 B0   
    8419 002995 DC6D          BTST #3, *AR3(#75), TC1 ; |2732| 
         002997 3000 
         002999 4B   
    8420 00299a 0474          BCC $C$L195,!TC1 ; |2732| 
         00299c 18   
    8421                                                      ; branchcc occurs ; |2732| 
    8422                      .dwpsn  file "../c5535_bsl_revc/ezdsp5535_v1/c55xx_csl/src/csl_msc.c",line 2734,column 4,is_stmt
    8423 00299d ED00          MOV dbl(*SP(#0)), XAR3
         00299f BF   
TMS320C55x Assembler PC v4.4.1 Tue Oct 02 02:33:20 2018

Tools Copyright (c) 1996-2012 Texas Instruments Incorporated
csl_msc.asm                                                          PAGE  209

    8424 0029a0 E66D          MOV #0, *AR3(#289) ; |2734| 
         0029a2 0001 
         0029a4 21   
    8425                      .dwpsn  file "../c5535_bsl_revc/ezdsp5535_v1/c55xx_csl/src/csl_msc.c",line 2735,column 4,is_stmt
    8426 0029a5 ED00          MOV dbl(*SP(#0)), XAR0
         0029a7 8F   
    8427 0029a8 3C04          MOV #0, T0
    8428 0029aa B40F          AMAR *+AR0(#266) ; |2735| 
         0029ac 010A 
    8429              $C$DW$535       .dwtag  DW_TAG_TI_branch
    8430                      .dwattr $C$DW$535, DW_AT_low_pc(0x00)
    8431                      .dwattr $C$DW$535, DW_AT_name("_MSC_SetSenseKeys")
    8432                      .dwattr $C$DW$535, DW_AT_TI_call
    8433              
    8434 0029ae 08D6          CALL #_MSC_SetSenseKeys ; |2735| 
         0029b0 4D   
    8435 0029b1 3D05  ||      MOV #0, T1
    8436              
    8437                                                      ; call occurs [#_MSC_SetSenseKeys] ; |2735| 
    8438                      .dwpsn  file "../c5535_bsl_revc/ezdsp5535_v1/c55xx_csl/src/csl_msc.c",line 2738,column 3,is_stmt
    8439 0029b3 4A10          B $C$L196 ; |2738| 
    8440                                                      ; branch occurs ; |2738| 
    8441 0029b5       $C$L195:    
    8442                      .dwpsn  file "../c5535_bsl_revc/ezdsp5535_v1/c55xx_csl/src/csl_msc.c",line 2741,column 4,is_stmt
    8443 0029b5 ED00          MOV dbl(*SP(#0)), XAR0
         0029b7 8F   
    8444 0029b8 7600          MOV #58, T1 ; |2741| 
         0029ba 3A58 
    8445 0029bc B40F          AMAR *+AR0(#266) ; |2741| 
         0029be 010A 
    8446              $C$DW$536       .dwtag  DW_TAG_TI_branch
    8447                      .dwattr $C$DW$536, DW_AT_low_pc(0x00)
    8448                      .dwattr $C$DW$536, DW_AT_name("_MSC_SetSenseKeys")
    8449                      .dwattr $C$DW$536, DW_AT_TI_call
    8450              
    8451 0029c0 08D6          CALL #_MSC_SetSenseKeys ; |2741| 
         0029c2 3B   
    8452 0029c3 3D24  ||      MOV #2, T0
    8453              
    8454                                                      ; call occurs [#_MSC_SetSenseKeys] ; |2741| 
    8455 0029c5       $C$L196:    
    8456                      .dwpsn  file "../c5535_bsl_revc/ezdsp5535_v1/c55xx_csl/src/csl_msc.c",line 2746,column 3,is_stmt
    8457 0029c5 ED00          MOV dbl(*SP(#0)), XAR1
         0029c7 9F   
    8458 0029c8 ED04          MOV dbl(*SP(#2)), XAR0
         0029ca 8F   
    8459 0029cb A410          MOV *SP(#8), T0 ; |2746| 
    8460 0029cd B42F          AMAR *+AR1(#291) ; |2746| 
         0029cf 0123 
    8461              $C$DW$537       .dwtag  DW_TAG_TI_branch
    8462                      .dwattr $C$DW$537, DW_AT_low_pc(0x00)
    8463                      .dwattr $C$DW$537, DW_AT_name("_USB_postTransaction")
    8464                      .dwattr $C$DW$537, DW_AT_TI_call
    8465              
    8466 0029d1 6C00          CALL #_USB_postTransaction ; |2746| 
TMS320C55x Assembler PC v4.4.1 Tue Oct 02 02:33:20 2018

Tools Copyright (c) 1996-2012 Texas Instruments Incorporated
csl_msc.asm                                                          PAGE  210

         0029d3 0000!
    8467 0029d5 3D15  ||      MOV #1, T1
    8468              
    8469                                                      ; call occurs [#_USB_postTransaction] ; |2746| 
    8470 0029d7 C40A          MOV T0, *SP(#5) ; |2746| 
    8471                      .dwpsn  file "../c5535_bsl_revc/ezdsp5535_v1/c55xx_csl/src/csl_msc.c",line 2749,column 3,is_stmt
    8472 0029d9 ED00          MOV dbl(*SP(#0)), XAR3
         0029db BF   
    8473 0029dc E66D          MOV #3, *AR3(#355) ; |2749| 
         0029de 0301 
         0029e0 63   
    8474                      .dwpsn  file "../c5535_bsl_revc/ezdsp5535_v1/c55xx_csl/src/csl_msc.c",line 2750,column 2,is_stmt
    8475 0029e1 4A08          B $C$L198 ; |2750| 
    8476                                                      ; branch occurs ; |2750| 
    8477 0029e3       $C$L197:    
    8478                      .dwpsn  file "../c5535_bsl_revc/ezdsp5535_v1/c55xx_csl/src/csl_msc.c",line 2753,column 3,is_stmt
    8479 0029e3 ED04          MOV dbl(*SP(#2)), XAR1
         0029e5 9F   
    8480              $C$DW$538       .dwtag  DW_TAG_TI_branch
    8481                      .dwattr $C$DW$538, DW_AT_low_pc(0x00)
    8482                      .dwattr $C$DW$538, DW_AT_name("_MSC_sendCswWithPhaseError")
    8483                      .dwattr $C$DW$538, DW_AT_TI_call
    8484 0029e6 0802          CALL #_MSC_sendCswWithPhaseError ; |2753| 
         0029e8 CF   
    8485                                                      ; call occurs [#_MSC_sendCswWithPhaseError] ; |2753| 
    8486 0029e9 C40A          MOV T0, *SP(#5) ; |2753| 
    8487 0029eb       $C$L198:    
    8488                      .dwpsn  file "../c5535_bsl_revc/ezdsp5535_v1/c55xx_csl/src/csl_msc.c",line 2756,column 2,is_stmt
    8489 0029eb A40A          MOV *SP(#5), T0 ; |2756| 
    8490 0029ed       $C$L199:    
    8491                      .dwpsn  file "../c5535_bsl_revc/ezdsp5535_v1/c55xx_csl/src/csl_msc.c",line 2757,column 1,is_stmt
    8492 0029ed 4E0B          AADD #11, SP
    8493                      .dwcfi  cfa_offset, 1
    8494              $C$DW$539       .dwtag  DW_TAG_TI_branch
    8495                      .dwattr $C$DW$539, DW_AT_low_pc(0x00)
    8496                      .dwattr $C$DW$539, DW_AT_TI_return
    8497 0029ef 4804          RET
    8498                                                      ; return occurs
    8499                      .dwattr $C$DW$518, DW_AT_TI_end_file("../c5535_bsl_revc/ezdsp5535_v1/c55xx_csl/src/csl_msc.c")
    8500                      .dwattr $C$DW$518, DW_AT_TI_end_line(0xac5)
    8501                      .dwattr $C$DW$518, DW_AT_TI_end_column(0x01)
    8502                      .dwendentry
    8503                      .dwendtag $C$DW$518
    8504              
    8505 0029f1               .sect   ".text"
    8506                      .align 4
    8507                      .global _MSC_reqGetDescriptor
    8508              
    8509              $C$DW$540       .dwtag  DW_TAG_subprogram, DW_AT_name("MSC_reqGetDescriptor")
    8510                      .dwattr $C$DW$540, DW_AT_low_pc(_MSC_reqGetDescriptor)
    8511                      .dwattr $C$DW$540, DW_AT_high_pc(0x00)
    8512                      .dwattr $C$DW$540, DW_AT_TI_symbol_name("_MSC_reqGetDescriptor")
    8513                      .dwattr $C$DW$540, DW_AT_external
    8514                      .dwattr $C$DW$540, DW_AT_type(*$C$DW$T$42)
    8515                      .dwattr $C$DW$540, DW_AT_TI_begin_file("../c5535_bsl_revc/ezdsp5535_v1/c55xx_csl/src/csl_msc.c")
TMS320C55x Assembler PC v4.4.1 Tue Oct 02 02:33:20 2018

Tools Copyright (c) 1996-2012 Texas Instruments Incorporated
csl_msc.asm                                                          PAGE  211

    8516                      .dwattr $C$DW$540, DW_AT_TI_begin_line(0xafa)
    8517                      .dwattr $C$DW$540, DW_AT_TI_begin_column(0x13)
    8518                      .dwattr $C$DW$540, DW_AT_TI_max_frame_size(0x58)
    8519                      .dwpsn  file "../c5535_bsl_revc/ezdsp5535_v1/c55xx_csl/src/csl_msc.c",line 2815,column 1,is_stmt,addr
    8520              
    8521                      .dwfde $C$DW$CIE, _MSC_reqGetDescriptor
    8522              $C$DW$541       .dwtag  DW_TAG_formal_parameter, DW_AT_name("devNum")
    8523                      .dwattr $C$DW$541, DW_AT_TI_symbol_name("_devNum")
    8524                      .dwattr $C$DW$541, DW_AT_type(*$C$DW$T$24)
    8525                      .dwattr $C$DW$541, DW_AT_location[DW_OP_reg12]
    8526              $C$DW$542       .dwtag  DW_TAG_formal_parameter, DW_AT_name("usbSetup")
    8527                      .dwattr $C$DW$542, DW_AT_TI_symbol_name("_usbSetup")
    8528                      .dwattr $C$DW$542, DW_AT_type(*$C$DW$T$43)
    8529                      .dwattr $C$DW$542, DW_AT_location[DW_OP_reg17]
    8530              $C$DW$543       .dwtag  DW_TAG_formal_parameter, DW_AT_name("hInEp")
    8531                      .dwattr $C$DW$543, DW_AT_TI_symbol_name("_hInEp")
    8532                      .dwattr $C$DW$543, DW_AT_type(*$C$DW$T$27)
    8533                      .dwattr $C$DW$543, DW_AT_location[DW_OP_reg19]
    8534              $C$DW$544       .dwtag  DW_TAG_formal_parameter, DW_AT_name("hOutEp")
    8535                      .dwattr $C$DW$544, DW_AT_TI_symbol_name("_hOutEp")
    8536                      .dwattr $C$DW$544, DW_AT_type(*$C$DW$T$27)
    8537                      .dwattr $C$DW$544, DW_AT_location[DW_OP_reg21]
    8538              $C$DW$545       .dwtag  DW_TAG_formal_parameter, DW_AT_name("pMsc")
    8539                      .dwattr $C$DW$545, DW_AT_TI_symbol_name("_pMsc")
    8540                      .dwattr $C$DW$545, DW_AT_type(*$C$DW$T$3)
    8541                      .dwattr $C$DW$545, DW_AT_location[DW_OP_reg23]
    8542              ;*******************************************************************************
    8543              ;* FUNCTION NAME: MSC_reqGetDescriptor                                         *
    8544              ;*                                                                             *
    8545              ;*   Function Uses Regs : AC0,AC0,AC1,T0,T1,AR0,XAR0,AR1,XAR1,AR2,XAR2,AR3,    *
    8546              ;*                        XAR3,SP,CSR,RPTC,CARRY,TC1,M40,SATA,SATD,RDM,FRCT,   *
    8547              ;*                        SMUL                                                 *
    8548              ;*   Stack Frame        : Compact (No Frame Pointer, w/ debug)                 *
    8549              ;*   Total Frame Size   : 88 words                                             *
    8550              ;*                        (1 return address/alignment)                         *
    8551              ;*                        (87 local values)                                    *
    8552              ;*   Min System Stack   : 1 word                                               *
    8553              ;*******************************************************************************
    8554 0029f4       _MSC_reqGetDescriptor:
    8555                      .dwcfi  cfa_offset, 1
    8556                      .dwcfi  save_reg_to_mem, 91, -1
    8557 0029f4 4EA9          AADD #-87, SP
    8558                      .dwcfi  cfa_offset, 88
    8559              $C$DW$546       .dwtag  DW_TAG_variable, DW_AT_name("devNum")
    8560                      .dwattr $C$DW$546, DW_AT_TI_symbol_name("_devNum")
    8561                      .dwattr $C$DW$546, DW_AT_type(*$C$DW$T$24)
    8562                      .dwattr $C$DW$546, DW_AT_location[DW_OP_bregx 0x24 0]
    8563              $C$DW$547       .dwtag  DW_TAG_variable, DW_AT_name("usbSetup")
    8564                      .dwattr $C$DW$547, DW_AT_TI_symbol_name("_usbSetup")
    8565                      .dwattr $C$DW$547, DW_AT_type(*$C$DW$T$43)
    8566                      .dwattr $C$DW$547, DW_AT_location[DW_OP_bregx 0x24 2]
    8567              $C$DW$548       .dwtag  DW_TAG_variable, DW_AT_name("hInEp")
    8568                      .dwattr $C$DW$548, DW_AT_TI_symbol_name("_hInEp")
    8569                      .dwattr $C$DW$548, DW_AT_type(*$C$DW$T$27)
    8570                      .dwattr $C$DW$548, DW_AT_location[DW_OP_bregx 0x24 4]
TMS320C55x Assembler PC v4.4.1 Tue Oct 02 02:33:20 2018

Tools Copyright (c) 1996-2012 Texas Instruments Incorporated
csl_msc.asm                                                          PAGE  212

    8571              $C$DW$549       .dwtag  DW_TAG_variable, DW_AT_name("hOutEp")
    8572                      .dwattr $C$DW$549, DW_AT_TI_symbol_name("_hOutEp")
    8573                      .dwattr $C$DW$549, DW_AT_type(*$C$DW$T$27)
    8574                      .dwattr $C$DW$549, DW_AT_location[DW_OP_bregx 0x24 6]
    8575              $C$DW$550       .dwtag  DW_TAG_variable, DW_AT_name("pMsc")
    8576                      .dwattr $C$DW$550, DW_AT_TI_symbol_name("_pMsc")
    8577                      .dwattr $C$DW$550, DW_AT_type(*$C$DW$T$3)
    8578                      .dwattr $C$DW$550, DW_AT_location[DW_OP_bregx 0x24 8]
    8579              $C$DW$551       .dwtag  DW_TAG_variable, DW_AT_name("tempLen")
    8580                      .dwattr $C$DW$551, DW_AT_TI_symbol_name("_tempLen")
    8581                      .dwattr $C$DW$551, DW_AT_type(*$C$DW$T$25)
    8582                      .dwattr $C$DW$551, DW_AT_location[DW_OP_bregx 0x24 10]
    8583              $C$DW$552       .dwtag  DW_TAG_variable, DW_AT_name("strLen")
    8584                      .dwattr $C$DW$552, DW_AT_TI_symbol_name("_strLen")
    8585                      .dwattr $C$DW$552, DW_AT_type(*$C$DW$T$25)
    8586                      .dwattr $C$DW$552, DW_AT_location[DW_OP_bregx 0x24 11]
    8587              $C$DW$553       .dwtag  DW_TAG_variable, DW_AT_name("inOutFlag")
    8588                      .dwattr $C$DW$553, DW_AT_TI_symbol_name("_inOutFlag")
    8589                      .dwattr $C$DW$553, DW_AT_type(*$C$DW$T$25)
    8590                      .dwattr $C$DW$553, DW_AT_location[DW_OP_bregx 0x24 12]
    8591              $C$DW$554       .dwtag  DW_TAG_variable, DW_AT_name("count")
    8592                      .dwattr $C$DW$554, DW_AT_TI_symbol_name("_count")
    8593                      .dwattr $C$DW$554, DW_AT_type(*$C$DW$T$25)
    8594                      .dwattr $C$DW$554, DW_AT_location[DW_OP_bregx 0x24 13]
    8595              $C$DW$555       .dwtag  DW_TAG_variable, DW_AT_name("temp1")
    8596                      .dwattr $C$DW$555, DW_AT_TI_symbol_name("_temp1")
    8597                      .dwattr $C$DW$555, DW_AT_type(*$C$DW$T$25)
    8598                      .dwattr $C$DW$555, DW_AT_location[DW_OP_bregx 0x24 14]
    8599              $C$DW$556       .dwtag  DW_TAG_variable, DW_AT_name("temp2")
    8600                      .dwattr $C$DW$556, DW_AT_TI_symbol_name("_temp2")
    8601                      .dwattr $C$DW$556, DW_AT_type(*$C$DW$T$25)
    8602                      .dwattr $C$DW$556, DW_AT_location[DW_OP_bregx 0x24 15]
    8603              $C$DW$557       .dwtag  DW_TAG_variable, DW_AT_name("unicodeString")
    8604                      .dwattr $C$DW$557, DW_AT_TI_symbol_name("_unicodeString")
    8605                      .dwattr $C$DW$557, DW_AT_type(*$C$DW$T$168)
    8606                      .dwattr $C$DW$557, DW_AT_location[DW_OP_bregx 0x24 16]
    8607              $C$DW$558       .dwtag  DW_TAG_variable, DW_AT_name("pMSCClassHdl")
    8608                      .dwattr $C$DW$558, DW_AT_TI_symbol_name("_pMSCClassHdl")
    8609                      .dwattr $C$DW$558, DW_AT_type(*$C$DW$T$98)
    8610                      .dwattr $C$DW$558, DW_AT_location[DW_OP_bregx 0x24 82]
    8611              $C$DW$559       .dwtag  DW_TAG_variable, DW_AT_name("pCtrlHandle")
    8612                      .dwattr $C$DW$559, DW_AT_TI_symbol_name("_pCtrlHandle")
    8613                      .dwattr $C$DW$559, DW_AT_type(*$C$DW$T$99)
    8614                      .dwattr $C$DW$559, DW_AT_location[DW_OP_bregx 0x24 84]
    8615              $C$DW$560       .dwtag  DW_TAG_variable, DW_AT_name("descrLen")
    8616                      .dwattr $C$DW$560, DW_AT_TI_symbol_name("_descrLen")
    8617                      .dwattr $C$DW$560, DW_AT_type(*$C$DW$T$25)
    8618                      .dwattr $C$DW$560, DW_AT_location[DW_OP_bregx 0x24 86]
    8619 0029f6 EB10          MOV XAR3, dbl(*SP(#8))
         0029f8 B5   
    8620 0029f9 EB0C          MOV XAR2, dbl(*SP(#6))
         0029fb A5   
    8621 0029fc EB08          MOV XAR1, dbl(*SP(#4))
         0029fe 95   
    8622 0029ff EB04          MOV XAR0, dbl(*SP(#2))
TMS320C55x Assembler PC v4.4.1 Tue Oct 02 02:33:20 2018

Tools Copyright (c) 1996-2012 Texas Instruments Incorporated
csl_msc.asm                                                          PAGE  213

         002a01 85   
    8623 002a02 C400          MOV T0, *SP(#0) ; |2815| 
    8624                      .dwpsn  file "../c5535_bsl_revc/ezdsp5535_v1/c55xx_csl/src/csl_msc.c",line 2827,column 2,is_stmt
    8625 002a04 ED10          MOV dbl(*SP(#8)), XAR3
         002a06 BF   
    8626 002a07 EBA4          MOV XAR3, dbl(*SP(#82))
         002a09 B5   
    8627                      .dwpsn  file "../c5535_bsl_revc/ezdsp5535_v1/c55xx_csl/src/csl_msc.c",line 2828,column 2,is_stmt
    8628 002a0a EBA8          MOV XAR3, dbl(*SP(#84))
         002a0c B5   
    8629                      .dwpsn  file "../c5535_bsl_revc/ezdsp5535_v1/c55xx_csl/src/csl_msc.c",line 2829,column 2,is_stmt
    8630 002a0d E61A          MOV #0, *SP(#13) ; |2829| 
         002a0f 00   
    8631                      .dwpsn  file "../c5535_bsl_revc/ezdsp5535_v1/c55xx_csl/src/csl_msc.c",line 2831,column 5,is_stmt
    8632 002a10 0601          B $C$L225 ; |2831| 
         002a12 F4   
    8633                                                      ; branch occurs ; |2831| 
    8634 002a13       $C$L200:    
    8635                      .dwpsn  file "../c5535_bsl_revc/ezdsp5535_v1/c55xx_csl/src/csl_msc.c",line 2834,column 10,is_stmt
    8636 002a13 EDA8          MOV dbl(*SP(#84)), XAR3
         002a15 BF   
    8637 002a16 DF6D          MOV uns(low_byte(*AR3(#95))), AR1 ; |2834| 
         002a18 9300 
         002a1a 5F   
    8638 002a1b C914          MOV AR1, *SP(#10) ; |2834| 
    8639                      .dwpsn  file "../c5535_bsl_revc/ezdsp5535_v1/c55xx_csl/src/csl_msc.c",line 2836,column 13,is_stmt
    8640 002a1d ED04          MOV dbl(*SP(#2)), XAR3
         002a1f BF   
    8641 002a20 AA14          MOV *SP(#10), AR2 ; |2836| 
    8642 002a22 A97B          MOV *AR3(short(#5)), AR1 ; |2836| 
    8643 002a24 12A8          CMPU AR2 >= AR1, TC1 ; |2836| 
         002a26 94   
    8644 002a27 6264          BCC $C$L201,TC1 ; |2836| 
    8645                                                      ; branchcc occurs ; |2836| 
    8646 002a29 22A9          MOV AR2, AR1
    8647 002a2b 4A02          B $C$L202 ; |2836| 
    8648                                                      ; branch occurs ; |2836| 
    8649 002a2d       $C$L201:    
    8650 002a2d A97B          MOV *AR3(short(#5)), AR1 ; |2836| 
    8651 002a2f       $C$L202:    
    8652 002a2f C914          MOV AR1, *SP(#10) ; |2836| 
    8653                      .dwpsn  file "../c5535_bsl_revc/ezdsp5535_v1/c55xx_csl/src/csl_msc.c",line 2838,column 13,is_stmt
    8654 002a31 EDA8          MOV dbl(*SP(#84)), XAR1
         002a33 9F   
    8655 002a34 ED08          MOV dbl(*SP(#4)), XAR0
         002a36 8F   
    8656              
    8657                      AADD #94, AR1 ; |2838| 
    8658 002a37 8A14  ||      MOV *SP(#10), T0 ; |2838| 
         002a39 941C 
         002a3b 5E   
    8659              
    8660              $C$DW$561       .dwtag  DW_TAG_TI_branch
    8661                      .dwattr $C$DW$561, DW_AT_low_pc(0x00)
    8662                      .dwattr $C$DW$561, DW_AT_name("_USB_postTransaction")
TMS320C55x Assembler PC v4.4.1 Tue Oct 02 02:33:20 2018

Tools Copyright (c) 1996-2012 Texas Instruments Incorporated
csl_msc.asm                                                          PAGE  214

    8663                      .dwattr $C$DW$561, DW_AT_TI_call
    8664              
    8665 002a3c 6C00          CALL #_USB_postTransaction ; |2838| 
         002a3e 0000!
    8666 002a40 3D05  ||      MOV #0, T1
    8667              
    8668                                                      ; call occurs [#_USB_postTransaction] ; |2838| 
    8669                      .dwpsn  file "../c5535_bsl_revc/ezdsp5535_v1/c55xx_csl/src/csl_msc.c",line 2841,column 18,is_stmt
    8670 002a42 0602          B $C$L227 ; |2841| 
         002a44 00   
    8671                                                      ; branch occurs ; |2841| 
    8672 002a45       $C$L203:    
    8673                      .dwpsn  file "../c5535_bsl_revc/ezdsp5535_v1/c55xx_csl/src/csl_msc.c",line 2844,column 10,is_stmt
    8674 002a45 EDA8          MOV dbl(*SP(#84)), XAR3
         002a47 BF   
    8675 002a48 DF6D          MOV uns(low_byte(*AR3(#105))), AR1 ; |2844| 
         002a4a 9300 
         002a4c 69   
    8676 002a4d C914          MOV AR1, *SP(#10) ; |2844| 
    8677                      .dwpsn  file "../c5535_bsl_revc/ezdsp5535_v1/c55xx_csl/src/csl_msc.c",line 2846,column 13,is_stmt
    8678 002a4f ED04          MOV dbl(*SP(#2)), XAR3
         002a51 BF   
    8679 002a52 AA14          MOV *SP(#10), AR2 ; |2846| 
    8680 002a54 A97B          MOV *AR3(short(#5)), AR1 ; |2846| 
    8681 002a56 12A8          CMPU AR2 >= AR1, TC1 ; |2846| 
         002a58 94   
    8682 002a59 6264          BCC $C$L204,TC1 ; |2846| 
    8683                                                      ; branchcc occurs ; |2846| 
    8684 002a5b 22A9          MOV AR2, AR1
    8685 002a5d 4A02          B $C$L205 ; |2846| 
    8686                                                      ; branch occurs ; |2846| 
    8687 002a5f       $C$L204:    
    8688 002a5f A97B          MOV *AR3(short(#5)), AR1 ; |2846| 
    8689 002a61       $C$L205:    
    8690 002a61 C914          MOV AR1, *SP(#10) ; |2846| 
    8691                      .dwpsn  file "../c5535_bsl_revc/ezdsp5535_v1/c55xx_csl/src/csl_msc.c",line 2848,column 13,is_stmt
    8692 002a63 EDA8          MOV dbl(*SP(#84)), XAR1
         002a65 9F   
    8693 002a66 ED08          MOV dbl(*SP(#4)), XAR0
         002a68 8F   
    8694              
    8695                      AADD #104, AR1 ; |2848| 
    8696 002a69 8A14  ||      MOV *SP(#10), T0 ; |2848| 
         002a6b 941C 
         002a6d 68   
    8697              
    8698              $C$DW$562       .dwtag  DW_TAG_TI_branch
    8699                      .dwattr $C$DW$562, DW_AT_low_pc(0x00)
    8700                      .dwattr $C$DW$562, DW_AT_name("_USB_postTransaction")
    8701                      .dwattr $C$DW$562, DW_AT_TI_call
    8702              
    8703 002a6e 6C00          CALL #_USB_postTransaction ; |2848| 
         002a70 0000!
    8704 002a72 3D05  ||      MOV #0, T1
    8705              
TMS320C55x Assembler PC v4.4.1 Tue Oct 02 02:33:20 2018

Tools Copyright (c) 1996-2012 Texas Instruments Incorporated
csl_msc.asm                                                          PAGE  215

    8706                                                      ; call occurs [#_USB_postTransaction] ; |2848| 
    8707                      .dwpsn  file "../c5535_bsl_revc/ezdsp5535_v1/c55xx_csl/src/csl_msc.c",line 2851,column 18,is_stmt
    8708 002a74 0601          B $C$L227 ; |2851| 
         002a76 CE   
    8709                                                      ; branch occurs ; |2851| 
    8710 002a77       $C$L206:    
    8711                      .dwpsn  file "../c5535_bsl_revc/ezdsp5535_v1/c55xx_csl/src/csl_msc.c",line 2854,column 11,is_stmt
    8712 002a77 E618          MOV #12, *SP(#12) ; |2854| 
         002a79 0C   
    8713                      .dwpsn  file "../c5535_bsl_revc/ezdsp5535_v1/c55xx_csl/src/csl_msc.c",line 2855,column 11,is_stmt
    8714 002a7a EDA8          MOV dbl(*SP(#84)), XAR3
         002a7c BF   
    8715 002a7d ED6D          MOV dbl(*AR3(#178)), XAR3
         002a7f BF00 
         002a81 B2   
    8716 002a82 A975          MOV *AR3(short(#2)), AR1 ; |2855| 
    8717 002a84 C914          MOV AR1, *SP(#10) ; |2855| 
    8718                      .dwpsn  file "../c5535_bsl_revc/ezdsp5535_v1/c55xx_csl/src/csl_msc.c",line 2856,column 11,is_stmt
    8719 002a86 ED04          MOV dbl(*SP(#2)), XAR3
         002a88 BF   
    8720 002a89 AA14          MOV *SP(#10), AR2 ; |2856| 
    8721 002a8b A97B          MOV *AR3(short(#5)), AR1 ; |2856| 
    8722 002a8d 12AC          CMPU AR2 != AR1, TC1 ; |2856| 
         002a8f 94   
    8723 002a90 6264          BCC $C$L207,TC1 ; |2856| 
    8724                                                      ; branchcc occurs ; |2856| 
    8725                      .dwpsn  file "../c5535_bsl_revc/ezdsp5535_v1/c55xx_csl/src/csl_msc.c",line 2858,column 5,is_stmt
    8726 002a92 F518          OR #0x0001, *SP(#12) ; |2858| 
         002a94 0001 
    8727 002a96       $C$L207:    
    8728                      .dwpsn  file "../c5535_bsl_revc/ezdsp5535_v1/c55xx_csl/src/csl_msc.c",line 2862,column 11,is_stmt
    8729 002a96 ED04          MOV dbl(*SP(#2)), XAR3
         002a98 BF   
    8730 002a99 AA14          MOV *SP(#10), AR2 ; |2862| 
    8731 002a9b A97B          MOV *AR3(short(#5)), AR1 ; |2862| 
    8732 002a9d 12A8          CMPU AR2 >= AR1, TC1 ; |2862| 
         002a9f 94   
    8733 002aa0 6264          BCC $C$L208,TC1 ; |2862| 
    8734                                                      ; branchcc occurs ; |2862| 
    8735              
    8736 002aa2 4A02          B $C$L209 ; |2862| 
    8737 002aa4 23A9  ||      MOV AR2, AR1
    8738              
    8739                                                      ; branch occurs ; |2862| 
    8740 002aa6       $C$L208:    
    8741 002aa6 A97B          MOV *AR3(short(#5)), AR1 ; |2862| 
    8742 002aa8       $C$L209:    
    8743 002aa8 C914          MOV AR1, *SP(#10) ; |2862| 
    8744                      .dwpsn  file "../c5535_bsl_revc/ezdsp5535_v1/c55xx_csl/src/csl_msc.c",line 2865,column 11,is_stmt
    8745 002aaa EDA8          MOV dbl(*SP(#84)), XAR3
         002aac BF   
    8746 002aad ED08          MOV dbl(*SP(#4)), XAR0
         002aaf 8F   
    8747 002ab0 A414          MOV *SP(#10), T0 ; |2865| 
    8748 002ab2 A518          MOV *SP(#12), T1 ; |2865| 
TMS320C55x Assembler PC v4.4.1 Tue Oct 02 02:33:20 2018

Tools Copyright (c) 1996-2012 Texas Instruments Incorporated
csl_msc.asm                                                          PAGE  216

    8749 002ab4 ED6D          MOV dbl(*AR3(#178)), XAR1
         002ab6 9F00 
         002ab8 B2   
    8750              $C$DW$563       .dwtag  DW_TAG_TI_branch
    8751                      .dwattr $C$DW$563, DW_AT_low_pc(0x00)
    8752                      .dwattr $C$DW$563, DW_AT_name("_USB_postTransaction")
    8753                      .dwattr $C$DW$563, DW_AT_TI_call
    8754 002ab9 6C00          CALL #_USB_postTransaction ; |2865| 
         002abb 0000!
    8755                                                      ; call occurs [#_USB_postTransaction] ; |2865| 
    8756                      .dwpsn  file "../c5535_bsl_revc/ezdsp5535_v1/c55xx_csl/src/csl_msc.c",line 2867,column 16,is_stmt
    8757 002abd 0601          B $C$L227 ; |2867| 
         002abf 85   
    8758                                                      ; branch occurs ; |2867| 
    8759 002ac0       $C$L210:    
    8760                      .dwpsn  file "../c5535_bsl_revc/ezdsp5535_v1/c55xx_csl/src/csl_msc.c",line 2871,column 11,is_stmt
    8761 002ac0 E618          MOV #12, *SP(#12) ; |2871| 
         002ac2 0C   
    8762                      .dwpsn  file "../c5535_bsl_revc/ezdsp5535_v1/c55xx_csl/src/csl_msc.c",line 2872,column 11,is_stmt
    8763 002ac3 EDA8          MOV dbl(*SP(#84)), XAR3
         002ac5 BF   
    8764 002ac6 ED6D          MOV dbl(*AR3(#180)), XAR3
         002ac8 BF00 
         002aca B4   
    8765 002acb A975          MOV *AR3(short(#2)), AR1 ; |2872| 
    8766 002acd C914          MOV AR1, *SP(#10) ; |2872| 
    8767                      .dwpsn  file "../c5535_bsl_revc/ezdsp5535_v1/c55xx_csl/src/csl_msc.c",line 2873,column 11,is_stmt
    8768 002acf ED04          MOV dbl(*SP(#2)), XAR3
         002ad1 BF   
    8769 002ad2 AA14          MOV *SP(#10), AR2 ; |2873| 
    8770 002ad4 A97B          MOV *AR3(short(#5)), AR1 ; |2873| 
    8771 002ad6 12AC          CMPU AR2 != AR1, TC1 ; |2873| 
         002ad8 94   
    8772 002ad9 6264          BCC $C$L211,TC1 ; |2873| 
    8773                                                      ; branchcc occurs ; |2873| 
    8774                      .dwpsn  file "../c5535_bsl_revc/ezdsp5535_v1/c55xx_csl/src/csl_msc.c",line 2875,column 5,is_stmt
    8775 002adb F518          OR #0x0001, *SP(#12) ; |2875| 
         002add 0001 
    8776 002adf       $C$L211:    
    8777                      .dwpsn  file "../c5535_bsl_revc/ezdsp5535_v1/c55xx_csl/src/csl_msc.c",line 2879,column 11,is_stmt
    8778 002adf ED04          MOV dbl(*SP(#2)), XAR3
         002ae1 BF   
    8779 002ae2 AA14          MOV *SP(#10), AR2 ; |2879| 
    8780 002ae4 A97B          MOV *AR3(short(#5)), AR1 ; |2879| 
    8781 002ae6 12A8          CMPU AR2 >= AR1, TC1 ; |2879| 
         002ae8 94   
    8782 002ae9 6264          BCC $C$L212,TC1 ; |2879| 
    8783                                                      ; branchcc occurs ; |2879| 
    8784              
    8785 002aeb 4A02          B $C$L213 ; |2879| 
    8786 002aed 23A9  ||      MOV AR2, AR1
    8787              
    8788                                                      ; branch occurs ; |2879| 
    8789 002aef       $C$L212:    
    8790 002aef A97B          MOV *AR3(short(#5)), AR1 ; |2879| 
TMS320C55x Assembler PC v4.4.1 Tue Oct 02 02:33:20 2018

Tools Copyright (c) 1996-2012 Texas Instruments Incorporated
csl_msc.asm                                                          PAGE  217

    8791 002af1       $C$L213:    
    8792 002af1 C914          MOV AR1, *SP(#10) ; |2879| 
    8793                      .dwpsn  file "../c5535_bsl_revc/ezdsp5535_v1/c55xx_csl/src/csl_msc.c",line 2882,column 11,is_stmt
    8794 002af3 EDA8          MOV dbl(*SP(#84)), XAR3
         002af5 BF   
    8795 002af6 ED08          MOV dbl(*SP(#4)), XAR0
         002af8 8F   
    8796 002af9 A414          MOV *SP(#10), T0 ; |2882| 
    8797 002afb A518          MOV *SP(#12), T1 ; |2882| 
    8798 002afd ED6D          MOV dbl(*AR3(#180)), XAR1
         002aff 9F00 
         002b01 B4   
    8799              $C$DW$564       .dwtag  DW_TAG_TI_branch
    8800                      .dwattr $C$DW$564, DW_AT_low_pc(0x00)
    8801                      .dwattr $C$DW$564, DW_AT_name("_USB_postTransaction")
    8802                      .dwattr $C$DW$564, DW_AT_TI_call
    8803 002b02 6C00          CALL #_USB_postTransaction ; |2882| 
         002b04 0000!
    8804                                                      ; call occurs [#_USB_postTransaction] ; |2882| 
    8805                      .dwpsn  file "../c5535_bsl_revc/ezdsp5535_v1/c55xx_csl/src/csl_msc.c",line 2885,column 16,is_stmt
    8806 002b06 0601          B $C$L227 ; |2885| 
         002b08 3C   
    8807                                                      ; branch occurs ; |2885| 
    8808 002b09       $C$L214:    
    8809                      .dwpsn  file "../c5535_bsl_revc/ezdsp5535_v1/c55xx_csl/src/csl_msc.c",line 2888,column 11,is_stmt
    8810 002b09 3C00          MOV #0, AC0 ; |2888| 
    8811 002b0b 900A          MOV AC0, XAR2
    8812              
    8813 002b10 4D41          RPT #65   ; |2888| 
    8814 002b0d EC20  ||      AMAR *SP(#16), XAR3
         002b0f BE   
    8815              
    8816                                                          ; loop starts ; |2888| 
    8817 002b12       $C$L215:    
    8818 002b12       $C$DW$L$_MSC_reqGetDescriptor$24$B:
    8819 002b12 8045              MOV *AR2+, *AR3+ ; |2888| 
         002b14 94   
    8820                                                      ; loop ends ; |2888| 
    8821 002b15       $C$DW$L$_MSC_reqGetDescriptor$24$E:
    8822 002b15       $C$L216:    
    8823                      .dwpsn  file "../c5535_bsl_revc/ezdsp5535_v1/c55xx_csl/src/csl_msc.c",line 2890,column 11,is_stmt
    8824 002b15 ED04          MOV dbl(*SP(#2)), XAR3
         002b17 BF   
    8825 002b18 DF77          MOV uns(low_byte(*AR3(short(#3)))), AR1 ; |2890| 
         002b1a 93   
    8826 002b1b 0419          BCC $C$L219,AR1 != #0 ; |2890| 
         002b1d 33   
    8827                                                      ; branchcc occurs ; |2890| 
    8828                      .dwpsn  file "../c5535_bsl_revc/ezdsp5535_v1/c55xx_csl/src/csl_msc.c",line 2892,column 12,is_stmt
    8829 002b1e EDA8          MOV dbl(*SP(#84)), XAR3
         002b20 BF   
    8830 002b21 DF6D          MOV uns(low_byte(*AR3(#147))), AR1 ; |2892| 
         002b23 9300 
         002b25 93   
    8831 002b26 C914          MOV AR1, *SP(#10) ; |2892| 
TMS320C55x Assembler PC v4.4.1 Tue Oct 02 02:33:20 2018

Tools Copyright (c) 1996-2012 Texas Instruments Incorporated
csl_msc.asm                                                          PAGE  218

    8832                      .dwpsn  file "../c5535_bsl_revc/ezdsp5535_v1/c55xx_csl/src/csl_msc.c",line 2894,column 14,is_stmt
    8833 002b28 ED04          MOV dbl(*SP(#2)), XAR3
         002b2a BF   
    8834 002b2b AA14          MOV *SP(#10), AR2 ; |2894| 
    8835 002b2d A97B          MOV *AR3(short(#5)), AR1 ; |2894| 
    8836 002b2f 12A8          CMPU AR2 >= AR1, TC1 ; |2894| 
         002b31 94   
    8837 002b32 6264          BCC $C$L217,TC1 ; |2894| 
    8838                                                      ; branchcc occurs ; |2894| 
    8839              
    8840 002b34 4A02          B $C$L218 ; |2894| 
    8841 002b36 23A9  ||      MOV AR2, AR1
    8842              
    8843                                                      ; branch occurs ; |2894| 
    8844 002b38       $C$L217:    
    8845 002b38 A97B          MOV *AR3(short(#5)), AR1 ; |2894| 
    8846 002b3a       $C$L218:    
    8847 002b3a C914          MOV AR1, *SP(#10) ; |2894| 
    8848                      .dwpsn  file "../c5535_bsl_revc/ezdsp5535_v1/c55xx_csl/src/csl_msc.c",line 2896,column 14,is_stmt
    8849 002b3c EDA8          MOV dbl(*SP(#84)), XAR1
         002b3e 9F   
    8850 002b3f ED08          MOV dbl(*SP(#4)), XAR0
         002b41 8F   
    8851 002b42 A414          MOV *SP(#10), T0 ; |2896| 
    8852 002b44 B42F          AMAR *+AR1(#146) ; |2896| 
         002b46 0092 
    8853              $C$DW$565       .dwtag  DW_TAG_TI_branch
    8854                      .dwattr $C$DW$565, DW_AT_low_pc(0x00)
    8855                      .dwattr $C$DW$565, DW_AT_name("_USB_postTransaction")
    8856                      .dwattr $C$DW$565, DW_AT_TI_call
    8857              
    8858 002b48 6C00          CALL #_USB_postTransaction ; |2896| 
         002b4a 0000!
    8859 002b4c 3D05  ||      MOV #0, T1
    8860              
    8861                                                      ; call occurs [#_USB_postTransaction] ; |2896| 
    8862                      .dwpsn  file "../c5535_bsl_revc/ezdsp5535_v1/c55xx_csl/src/csl_msc.c",line 2899,column 11,is_stmt
    8863 002b4e 0600          B $C$L227 ; |2899| 
         002b50 F4   
    8864                                                      ; branch occurs ; |2899| 
    8865 002b51       $C$L219:    
    8866                      .dwpsn  file "../c5535_bsl_revc/ezdsp5535_v1/c55xx_csl/src/csl_msc.c",line 2903,column 12,is_stmt
    8867 002b51 A977          MOV *AR3(short(#3)), AR1 ; |2903| 
    8868 002b53 EDA8          MOV dbl(*SP(#84)), XAR3
         002b55 BF   
    8869 002b56 18FF          AND #0x00ff, AR1, AC0 ; |2903| 
         002b58 09   
    8870 002b59 5000          SFTL AC0, #1 ; |2903| 
    8871 002b5b 900A          MOV AC0, XAR2
    8872 002b5d ED6D          MOV dbl(*AR3(#170)), XAR3
         002b5f BF00 
         002b61 AA   
    8873 002b62 14A1          AADD XAR2, XAR3 ; |2903| 
         002b64 B0   
    8874 002b65 ED61          MOV dbl(*AR3), XAR0
TMS320C55x Assembler PC v4.4.1 Tue Oct 02 02:33:20 2018

Tools Copyright (c) 1996-2012 Texas Instruments Incorporated
csl_msc.asm                                                          PAGE  219

         002b67 8F   
    8875              $C$DW$566       .dwtag  DW_TAG_TI_branch
    8876                      .dwattr $C$DW$566, DW_AT_low_pc(0x00)
    8877                      .dwattr $C$DW$566, DW_AT_name("_strlen")
    8878                      .dwattr $C$DW$566, DW_AT_TI_call
    8879 002b68 6C00          CALL #_strlen ; |2903| 
         002b6a 0000!
    8880                                                      ; call occurs [#_strlen] ; |2903| 
    8881 002b6c C416          MOV T0, *SP(#11) ; |2903| 
    8882                      .dwpsn  file "../c5535_bsl_revc/ezdsp5535_v1/c55xx_csl/src/csl_msc.c",line 2908,column 5,is_stmt
    8883 002b6e 2249          MOV T0, AR1
    8884 002b70 5090          SFTL AR1, #1 ; |2908| 
    8885 002b72 4029          ADD #2, AR1 ; |2908| 
    8886 002b74 C9AC          MOV AR1, *SP(#86) ; |2908| 
    8887                      .dwpsn  file "../c5535_bsl_revc/ezdsp5535_v1/c55xx_csl/src/csl_msc.c",line 2911,column 14,is_stmt
    8888 002b76 ED04          MOV dbl(*SP(#2)), XAR3
         002b78 BF   
    8889 002b79 AAAC          MOV *SP(#86), AR2 ; |2911| 
    8890 002b7b A97B          MOV *AR3(short(#5)), AR1 ; |2911| 
    8891 002b7d 12A8          CMPU AR2 >= AR1, TC1 ; |2911| 
         002b7f 94   
    8892 002b80 6264          BCC $C$L220,TC1 ; |2911| 
    8893                                                      ; branchcc occurs ; |2911| 
    8894              
    8895 002b82 4A02          B $C$L221 ; |2911| 
    8896 002b84 23A9  ||      MOV AR2, AR1
    8897              
    8898                                                      ; branch occurs ; |2911| 
    8899 002b86       $C$L220:    
    8900 002b86 A97B          MOV *AR3(short(#5)), AR1 ; |2911| 
    8901 002b88       $C$L221:    
    8902 002b88 C914          MOV AR1, *SP(#10) ; |2911| 
    8903                      .dwpsn  file "../c5535_bsl_revc/ezdsp5535_v1/c55xx_csl/src/csl_msc.c",line 2915,column 18,is_stmt
    8904 002b8a E61A          MOV #0, *SP(#13) ; |2915| 
         002b8c 00   
    8905                      .dwpsn  file "../c5535_bsl_revc/ezdsp5535_v1/c55xx_csl/src/csl_msc.c",line 2915,column 29,is_stmt
    8906 002b8d AA1A          MOV *SP(#13), AR2 ; |2915| 
    8907 002b8f A916          MOV *SP(#11), AR1 ; |2915| 
    8908 002b91 12A8          CMPU AR2 >= AR1, TC1 ; |2915| 
         002b93 94   
    8909 002b94 0464          BCC $C$L223,TC1 ; |2915| 
         002b96 52   
    8910                                                      ; branchcc occurs ; |2915| 
    8911 002b97       $C$L222:    
    8912 002b97       $C$DW$L$_MSC_reqGetDescriptor$34$B:
    8913                      .dwpsn  file "../c5535_bsl_revc/ezdsp5535_v1/c55xx_csl/src/csl_msc.c",line 2917,column 6,is_stmt
    8914 002b97 ED04          MOV dbl(*SP(#2)), XAR3
         002b99 BF   
    8915 002b9a A977          MOV *AR3(short(#3)), AR1 ; |2917| 
    8916 002b9c EDA8          MOV dbl(*SP(#84)), XAR3
         002b9e BF   
    8917 002b9f 18FF          AND #0x00ff, AR1, AC0 ; |2917| 
         002ba1 09   
    8918 002ba2 5000          SFTL AC0, #1 ; |2917| 
    8919 002ba4 900A          MOV AC0, XAR2
TMS320C55x Assembler PC v4.4.1 Tue Oct 02 02:33:20 2018

Tools Copyright (c) 1996-2012 Texas Instruments Incorporated
csl_msc.asm                                                          PAGE  220

    8920 002ba6 ED6D          MOV dbl(*AR3(#170)), XAR3
         002ba8 BF00 
         002baa AA   
    8921 002bab 14A1          AADD XAR2, XAR3 ; |2917| 
         002bad B0   
    8922 002bae ED61          MOV dbl(*AR3), XAR3
         002bb0 BF   
    8923 002bb1 DF1A          MOV uns(*SP(#13)), AC0 ; |2917| 
         002bb3 05   
    8924 002bb4 900A          MOV AC0, XAR2
    8925 002bb6 14A1          AADD XAR2, XAR3 ; |2917| 
         002bb8 B0   
    8926 002bb9 A961          MOV *AR3, AR1 ; |2917| 
    8927 002bbb C91C          MOV AR1, *SP(#14) ; |2917| 
    8928                      .dwpsn  file "../c5535_bsl_revc/ezdsp5535_v1/c55xx_csl/src/csl_msc.c",line 2919,column 6,is_stmt
    8929 002bbd E61E          MOV #0, *SP(#15) ; |2919| 
         002bbf 00   
    8930                      .dwpsn  file "../c5535_bsl_revc/ezdsp5535_v1/c55xx_csl/src/csl_msc.c",line 2920,column 6,is_stmt
    8931 002bc0 DF1A          MOV uns(*SP(#13)), AC0 ; |2920| 
         002bc2 05   
    8932 002bc3 900B          MOV AC0, XAR3
    8933 002bc5 1402          AADD #2, AR3 ; |2920| 
         002bc7 B4   
    8934 002bc8 90B0          MOV XAR3, AC0
    8935 002bca 900A          MOV AC0, XAR2
    8936 002bcc A11E          MOV *SP(#15), AC1 ; |2920| 
    8937 002bce EC20          AMAR *SP(#16), XAR3
         002bd0 BE   
    8938 002bd1 A01C          MOV *SP(#14), AC0 ; |2920| 
    8939              
    8940 002bd3 14A1          AADD XAR2, XAR3 ; |2920| 
         002bd5 B0   
    8941 002bd6 1111  ||      OR AC1 << #8, AC0 ; |2920| 
         002bd8 08   
    8942              
    8943 002bd9 C061          MOV AC0, *AR3 ; |2920| 
    8944                      .dwpsn  file "../c5535_bsl_revc/ezdsp5535_v1/c55xx_csl/src/csl_msc.c",line 2915,column 45,is_stmt
    8945 002bdb F71A          ADD #1, *SP(#13) ; |2915| 
         002bdd 0001 
    8946                      .dwpsn  file "../c5535_bsl_revc/ezdsp5535_v1/c55xx_csl/src/csl_msc.c",line 2915,column 29,is_stmt
    8947 002bdf A916          MOV *SP(#11), AR1 ; |2915| 
    8948 002be1 AA1A          MOV *SP(#13), AR2 ; |2915| 
    8949 002be3 12A4          CMPU AR2 < AR1, TC1 ; |2915| 
         002be5 94   
    8950 002be6 0464          BCC $C$L222,TC1 ; |2915| 
         002be8 AE   
    8951                                                      ; branchcc occurs ; |2915| 
    8952 002be9       $C$DW$L$_MSC_reqGetDescriptor$34$E:
    8953 002be9       $C$L223:    
    8954                      .dwpsn  file "../c5535_bsl_revc/ezdsp5535_v1/c55xx_csl/src/csl_msc.c",line 2923,column 14,is_stmt
    8955 002be9 A9AC          MOV *SP(#86), AR1 ; |2923| 
    8956 002beb 7E03          OR #0x0300, AR1, AR1 ; |2923| 
         002bed 0099 
    8957 002bef C922          MOV AR1, *SP(#17) ; |2923| 
    8958                      .dwpsn  file "../c5535_bsl_revc/ezdsp5535_v1/c55xx_csl/src/csl_msc.c",line 2926,column 14,is_stmt
TMS320C55x Assembler PC v4.4.1 Tue Oct 02 02:33:20 2018

Tools Copyright (c) 1996-2012 Texas Instruments Incorporated
csl_msc.asm                                                          PAGE  221

    8959 002bf1 ED08          MOV dbl(*SP(#4)), XAR0
         002bf3 8F   
    8960 002bf4 A414          MOV *SP(#10), T0 ; |2926| 
    8961 002bf6 EC20          AMAR *SP(#16), XAR1
         002bf8 9E   
    8962              $C$DW$567       .dwtag  DW_TAG_TI_branch
    8963                      .dwattr $C$DW$567, DW_AT_low_pc(0x00)
    8964                      .dwattr $C$DW$567, DW_AT_name("_USB_postTransaction")
    8965                      .dwattr $C$DW$567, DW_AT_TI_call
    8966              
    8967 002bf9 6C00          CALL #_USB_postTransaction ; |2926| 
         002bfb 0000!
    8968 002bfd 3D05  ||      MOV #0, T1
    8969              
    8970                                                      ; call occurs [#_USB_postTransaction] ; |2926| 
    8971                      .dwpsn  file "../c5535_bsl_revc/ezdsp5535_v1/c55xx_csl/src/csl_msc.c",line 2929,column 15,is_stmt
    8972 002bff 0600          B $C$L227 ; |2929| 
         002c01 43   
    8973                                                      ; branch occurs ; |2929| 
    8974 002c02       $C$L224:    
    8975                      .dwpsn  file "../c5535_bsl_revc/ezdsp5535_v1/c55xx_csl/src/csl_msc.c",line 2932,column 7,is_stmt
    8976 002c02 3C14          MOV #1, T0
    8977 002c04 0600          B $C$L228 ; |2932| 
         002c06 40   
    8978                                                      ; branch occurs ; |2932| 
    8979 002c07       $C$L225:    
    8980                      .dwpsn  file "../c5535_bsl_revc/ezdsp5535_v1/c55xx_csl/src/csl_msc.c",line 2831,column 5,is_stmt
    8981 002c07 ED04          MOV dbl(*SP(#2)), XAR3
         002c09 BF   
    8982              
    8983 002c0a DF77          MOV uns(high_byte(*AR3(short(#3)))), AR1 ; |2831| 
         002c0c 91   
    8984 002c0d 3D3A  ||      MOV #3, AR2
    8985              
    8986 002c0f 12A4          CMP AR1 > AR2, TC1 ; |2831| 
         002c11 90   
    8987 002c12 0464          BCC $C$L226,TC1 ; |2831| 
         002c14 1B   
    8988                                                      ; branchcc occurs ; |2831| 
    8989 002c15 1290          CMP AR1 == AR2, TC1 ; |2831| 
         002c17 A0   
    8990 002c18 6D64          BCC $C$L214,TC1 ; |2831| 
         002c1a FEED 
    8991                                                      ; branchcc occurs ; |2831| 
    8992 002c1c 3C1A          MOV #1, AR2
    8993 002c1e 1290          CMPU AR1 == AR2, TC1 ; |2831| 
         002c20 A4   
    8994 002c21 6D64          BCC $C$L200,TC1 ; |2831| 
         002c23 FDEE 
    8995                                                      ; branchcc occurs ; |2831| 
    8996 002c25 3C2A          MOV #2, AR2
    8997 002c27 1290          CMPU AR1 == AR2, TC1 ; |2831| 
         002c29 A4   
    8998 002c2a 6D64          BCC $C$L206,TC1 ; |2831| 
         002c2c FE49 
TMS320C55x Assembler PC v4.4.1 Tue Oct 02 02:33:20 2018

Tools Copyright (c) 1996-2012 Texas Instruments Incorporated
csl_msc.asm                                                          PAGE  222

    8999                                                      ; branchcc occurs ; |2831| 
    9000 002c2e 4A52          B $C$L224 ; |2831| 
    9001                                                      ; branch occurs ; |2831| 
    9002 002c30       $C$L226:    
    9003 002c30 3C6A          MOV #6, AR2
    9004 002c32 1290          CMPU AR1 == AR2, TC1 ; |2831| 
         002c34 A4   
    9005 002c35 6D64          BCC $C$L203,TC1 ; |2831| 
         002c37 FE0C 
    9006                                                      ; branchcc occurs ; |2831| 
    9007 002c39 3C7A          MOV #7, AR2
    9008 002c3b 1290          CMPU AR1 == AR2, TC1 ; |2831| 
         002c3d A4   
    9009 002c3e 6D64          BCC $C$L210,TC1 ; |2831| 
         002c40 FE7E 
    9010                                                      ; branchcc occurs ; |2831| 
    9011 002c42 06FF          B $C$L224 ; |2831| 
         002c44 BD   
    9012                                                      ; branch occurs ; |2831| 
    9013 002c45       $C$L227:    
    9014                      .dwpsn  file "../c5535_bsl_revc/ezdsp5535_v1/c55xx_csl/src/csl_msc.c",line 2935,column 2,is_stmt
    9015 002c45 3C34          MOV #3, T0
    9016 002c47       $C$L228:    
    9017                      .dwpsn  file "../c5535_bsl_revc/ezdsp5535_v1/c55xx_csl/src/csl_msc.c",line 2936,column 1,is_stmt
    9018 002c47 4E57          AADD #87, SP
    9019                      .dwcfi  cfa_offset, 1
    9020              $C$DW$568       .dwtag  DW_TAG_TI_branch
    9021                      .dwattr $C$DW$568, DW_AT_low_pc(0x00)
    9022                      .dwattr $C$DW$568, DW_AT_TI_return
    9023 002c49 4804          RET
    9024                                                      ; return occurs
    9025              
    9026              $C$DW$569       .dwtag  DW_TAG_TI_loop
    9027                      .dwattr $C$DW$569, DW_AT_name("F:\eZdsp-DBG-sim\tmp1\c55x-sim2\foo\Debug\csl_msc.asm:$C$L222:1:153847
    9028                      .dwattr $C$DW$569, DW_AT_TI_begin_file("../c5535_bsl_revc/ezdsp5535_v1/c55xx_csl/src/csl_msc.c")
    9029                      .dwattr $C$DW$569, DW_AT_TI_begin_line(0xb63)
    9030                      .dwattr $C$DW$569, DW_AT_TI_end_line(0xb69)
    9031              $C$DW$570       .dwtag  DW_TAG_TI_loop_range
    9032                      .dwattr $C$DW$570, DW_AT_low_pc($C$DW$L$_MSC_reqGetDescriptor$34$B)
    9033                      .dwattr $C$DW$570, DW_AT_high_pc($C$DW$L$_MSC_reqGetDescriptor$34$E)
    9034                      .dwendtag $C$DW$569
    9035              
    9036              
    9037              $C$DW$571       .dwtag  DW_TAG_TI_loop
    9038                      .dwattr $C$DW$571, DW_AT_name("F:\eZdsp-DBG-sim\tmp1\c55x-sim2\foo\Debug\csl_msc.asm:$C$L215:1:153847
    9039                      .dwattr $C$DW$571, DW_AT_TI_begin_file("../c5535_bsl_revc/ezdsp5535_v1/c55xx_csl/src/csl_msc.c")
    9040                      .dwattr $C$DW$571, DW_AT_TI_begin_line(0xb48)
    9041                      .dwattr $C$DW$571, DW_AT_TI_end_line(0xb48)
    9042              $C$DW$572       .dwtag  DW_TAG_TI_loop_range
    9043                      .dwattr $C$DW$572, DW_AT_low_pc($C$DW$L$_MSC_reqGetDescriptor$24$B)
    9044                      .dwattr $C$DW$572, DW_AT_high_pc($C$DW$L$_MSC_reqGetDescriptor$24$E)
    9045                      .dwendtag $C$DW$571
    9046              
    9047                      .dwattr $C$DW$540, DW_AT_TI_end_file("../c5535_bsl_revc/ezdsp5535_v1/c55xx_csl/src/csl_msc.c")
    9048                      .dwattr $C$DW$540, DW_AT_TI_end_line(0xb78)
TMS320C55x Assembler PC v4.4.1 Tue Oct 02 02:33:20 2018

Tools Copyright (c) 1996-2012 Texas Instruments Incorporated
csl_msc.asm                                                          PAGE  223

    9049                      .dwattr $C$DW$540, DW_AT_TI_end_column(0x01)
    9050                      .dwendentry
    9051                      .dwendtag $C$DW$540
    9052              
    9053 002c4b               .sect   ".text"
    9054                      .align 4
    9055                      .global _MSC_reqBotMscReset
    9056              
    9057              $C$DW$573       .dwtag  DW_TAG_subprogram, DW_AT_name("MSC_reqBotMscReset")
    9058                      .dwattr $C$DW$573, DW_AT_low_pc(_MSC_reqBotMscReset)
    9059                      .dwattr $C$DW$573, DW_AT_high_pc(0x00)
    9060                      .dwattr $C$DW$573, DW_AT_TI_symbol_name("_MSC_reqBotMscReset")
    9061                      .dwattr $C$DW$573, DW_AT_external
    9062                      .dwattr $C$DW$573, DW_AT_type(*$C$DW$T$42)
    9063                      .dwattr $C$DW$573, DW_AT_TI_begin_file("../c5535_bsl_revc/ezdsp5535_v1/c55xx_csl/src/csl_msc.c")
    9064                      .dwattr $C$DW$573, DW_AT_TI_begin_line(0xbb1)
    9065                      .dwattr $C$DW$573, DW_AT_TI_begin_column(0x13)
    9066                      .dwattr $C$DW$573, DW_AT_TI_max_frame_size(0x16)
    9067                      .dwpsn  file "../c5535_bsl_revc/ezdsp5535_v1/c55xx_csl/src/csl_msc.c",line 2998,column 1,is_stmt,addr
    9068              
    9069                      .dwfde $C$DW$CIE, _MSC_reqBotMscReset
    9070              $C$DW$574       .dwtag  DW_TAG_formal_parameter, DW_AT_name("devNum")
    9071                      .dwattr $C$DW$574, DW_AT_TI_symbol_name("_devNum")
    9072                      .dwattr $C$DW$574, DW_AT_type(*$C$DW$T$24)
    9073                      .dwattr $C$DW$574, DW_AT_location[DW_OP_reg12]
    9074              $C$DW$575       .dwtag  DW_TAG_formal_parameter, DW_AT_name("usbSetup")
    9075                      .dwattr $C$DW$575, DW_AT_TI_symbol_name("_usbSetup")
    9076                      .dwattr $C$DW$575, DW_AT_type(*$C$DW$T$43)
    9077                      .dwattr $C$DW$575, DW_AT_location[DW_OP_reg17]
    9078              $C$DW$576       .dwtag  DW_TAG_formal_parameter, DW_AT_name("hInEp")
    9079                      .dwattr $C$DW$576, DW_AT_TI_symbol_name("_hInEp")
    9080                      .dwattr $C$DW$576, DW_AT_type(*$C$DW$T$27)
    9081                      .dwattr $C$DW$576, DW_AT_location[DW_OP_reg19]
    9082              $C$DW$577       .dwtag  DW_TAG_formal_parameter, DW_AT_name("hOutEp")
    9083                      .dwattr $C$DW$577, DW_AT_TI_symbol_name("_hOutEp")
    9084                      .dwattr $C$DW$577, DW_AT_type(*$C$DW$T$27)
    9085                      .dwattr $C$DW$577, DW_AT_location[DW_OP_reg21]
    9086              $C$DW$578       .dwtag  DW_TAG_formal_parameter, DW_AT_name("pMsc")
    9087                      .dwattr $C$DW$578, DW_AT_TI_symbol_name("_pMsc")
    9088                      .dwattr $C$DW$578, DW_AT_type(*$C$DW$T$3)
    9089                      .dwattr $C$DW$578, DW_AT_location[DW_OP_reg23]
    9090              ;*******************************************************************************
    9091              ;* FUNCTION NAME: MSC_reqBotMscReset                                           *
    9092              ;*                                                                             *
    9093              ;*   Function Uses Regs : AC0,AC0,T0,AR0,XAR0,AR1,XAR1,AR2,XAR2,AR3,XAR3,SP,   *
    9094              ;*                        M40,SATA,SATD,RDM,FRCT,SMUL                          *
    9095              ;*   Stack Frame        : Compact (No Frame Pointer, w/ debug)                 *
    9096              ;*   Total Frame Size   : 22 words                                             *
    9097              ;*                        (2 return address/alignment)                         *
    9098              ;*                        (20 local values)                                    *
    9099              ;*   Min System Stack   : 1 word                                               *
    9100              ;*******************************************************************************
    9101 002c4c       _MSC_reqBotMscReset:
    9102                      .dwcfi  cfa_offset, 1
    9103                      .dwcfi  save_reg_to_mem, 91, -1
TMS320C55x Assembler PC v4.4.1 Tue Oct 02 02:33:20 2018

Tools Copyright (c) 1996-2012 Texas Instruments Incorporated
csl_msc.asm                                                          PAGE  224

    9104 002c4c 4EEB          AADD #-21, SP
    9105                      .dwcfi  cfa_offset, 22
    9106              $C$DW$579       .dwtag  DW_TAG_variable, DW_AT_name("devNum")
    9107                      .dwattr $C$DW$579, DW_AT_TI_symbol_name("_devNum")
    9108                      .dwattr $C$DW$579, DW_AT_type(*$C$DW$T$24)
    9109                      .dwattr $C$DW$579, DW_AT_location[DW_OP_bregx 0x24 0]
    9110              $C$DW$580       .dwtag  DW_TAG_variable, DW_AT_name("usbSetup")
    9111                      .dwattr $C$DW$580, DW_AT_TI_symbol_name("_usbSetup")
    9112                      .dwattr $C$DW$580, DW_AT_type(*$C$DW$T$43)
    9113                      .dwattr $C$DW$580, DW_AT_location[DW_OP_bregx 0x24 2]
    9114              $C$DW$581       .dwtag  DW_TAG_variable, DW_AT_name("hInEp")
    9115                      .dwattr $C$DW$581, DW_AT_TI_symbol_name("_hInEp")
    9116                      .dwattr $C$DW$581, DW_AT_type(*$C$DW$T$27)
    9117                      .dwattr $C$DW$581, DW_AT_location[DW_OP_bregx 0x24 4]
    9118              $C$DW$582       .dwtag  DW_TAG_variable, DW_AT_name("hOutEp")
    9119                      .dwattr $C$DW$582, DW_AT_TI_symbol_name("_hOutEp")
    9120                      .dwattr $C$DW$582, DW_AT_type(*$C$DW$T$27)
    9121                      .dwattr $C$DW$582, DW_AT_location[DW_OP_bregx 0x24 6]
    9122              $C$DW$583       .dwtag  DW_TAG_variable, DW_AT_name("pMsc")
    9123                      .dwattr $C$DW$583, DW_AT_TI_symbol_name("_pMsc")
    9124                      .dwattr $C$DW$583, DW_AT_type(*$C$DW$T$3)
    9125                      .dwattr $C$DW$583, DW_AT_location[DW_OP_bregx 0x24 8]
    9126              $C$DW$584       .dwtag  DW_TAG_variable, DW_AT_name("pMscClassHdl")
    9127                      .dwattr $C$DW$584, DW_AT_TI_symbol_name("_pMscClassHdl")
    9128                      .dwattr $C$DW$584, DW_AT_type(*$C$DW$T$98)
    9129                      .dwattr $C$DW$584, DW_AT_location[DW_OP_bregx 0x24 10]
    9130              $C$DW$585       .dwtag  DW_TAG_variable, DW_AT_name("pMscHandle")
    9131                      .dwattr $C$DW$585, DW_AT_TI_symbol_name("_pMscHandle")
    9132                      .dwattr $C$DW$585, DW_AT_type(*$C$DW$T$107)
    9133                      .dwattr $C$DW$585, DW_AT_location[DW_OP_bregx 0x24 12]
    9134              $C$DW$586       .dwtag  DW_TAG_variable, DW_AT_name("hUsbInEp")
    9135                      .dwattr $C$DW$586, DW_AT_TI_symbol_name("_hUsbInEp")
    9136                      .dwattr $C$DW$586, DW_AT_type(*$C$DW$T$27)
    9137                      .dwattr $C$DW$586, DW_AT_location[DW_OP_bregx 0x24 14]
    9138              $C$DW$587       .dwtag  DW_TAG_variable, DW_AT_name("hUsbOutEp")
    9139                      .dwattr $C$DW$587, DW_AT_TI_symbol_name("_hUsbOutEp")
    9140                      .dwattr $C$DW$587, DW_AT_type(*$C$DW$T$27)
    9141                      .dwattr $C$DW$587, DW_AT_location[DW_OP_bregx 0x24 16]
    9142              $C$DW$588       .dwtag  DW_TAG_variable, DW_AT_name("status")
    9143                      .dwattr $C$DW$588, DW_AT_TI_symbol_name("_status")
    9144                      .dwattr $C$DW$588, DW_AT_type(*$C$DW$T$89)
    9145                      .dwattr $C$DW$588, DW_AT_location[DW_OP_bregx 0x24 18]
    9146              $C$DW$589       .dwtag  DW_TAG_variable, DW_AT_name("retStatus")
    9147                      .dwattr $C$DW$589, DW_AT_TI_symbol_name("_retStatus")
    9148                      .dwattr $C$DW$589, DW_AT_type(*$C$DW$T$42)
    9149                      .dwattr $C$DW$589, DW_AT_location[DW_OP_bregx 0x24 19]
    9150 002c4e EB10          MOV XAR3, dbl(*SP(#8))
         002c50 B5   
    9151 002c51 EB0C          MOV XAR2, dbl(*SP(#6))
         002c53 A5   
    9152 002c54 EB08          MOV XAR1, dbl(*SP(#4))
         002c56 95   
    9153 002c57 EB04          MOV XAR0, dbl(*SP(#2))
         002c59 85   
    9154 002c5a C400          MOV T0, *SP(#0) ; |2998| 
TMS320C55x Assembler PC v4.4.1 Tue Oct 02 02:33:20 2018

Tools Copyright (c) 1996-2012 Texas Instruments Incorporated
csl_msc.asm                                                          PAGE  225

    9155                      .dwpsn  file "../c5535_bsl_revc/ezdsp5535_v1/c55xx_csl/src/csl_msc.c",line 3006,column 2,is_stmt
    9156 002c5c E624          MOV #0, *SP(#18) ; |3006| 
         002c5e 00   
    9157                      .dwpsn  file "../c5535_bsl_revc/ezdsp5535_v1/c55xx_csl/src/csl_msc.c",line 3007,column 2,is_stmt
    9158 002c5f E626          MOV #1, *SP(#19) ; |3007| 
         002c61 01   
    9159                      .dwpsn  file "../c5535_bsl_revc/ezdsp5535_v1/c55xx_csl/src/csl_msc.c",line 3009,column 2,is_stmt
    9160 002c62 ED10          MOV dbl(*SP(#8)), XAR3
         002c64 BF   
    9161 002c65 90B0          MOV XAR3, AC0
    9162 002c67 0400          BCC $C$L229,AC0 == #0 ; |3009| 
         002c69 47   
    9163                                                      ; branchcc occurs ; |3009| 
    9164                      .dwpsn  file "../c5535_bsl_revc/ezdsp5535_v1/c55xx_csl/src/csl_msc.c",line 3011,column 3,is_stmt
    9165 002c6a EB14          MOV XAR3, dbl(*SP(#10))
         002c6c B5   
    9166                      .dwpsn  file "../c5535_bsl_revc/ezdsp5535_v1/c55xx_csl/src/csl_msc.c",line 3012,column 3,is_stmt
    9167 002c6d B46F          AMAR *+AR3(#182) ; |3012| 
         002c6f 00B6 
    9168 002c71 EB18          MOV XAR3, dbl(*SP(#12))
         002c73 B5   
    9169                      .dwpsn  file "../c5535_bsl_revc/ezdsp5535_v1/c55xx_csl/src/csl_msc.c",line 3013,column 3,is_stmt
    9170 002c74 B46F          AMAR *+AR3(#334) ; |3013| 
         002c76 014E 
    9171 002c78 EB20          MOV XAR3, dbl(*SP(#16))
         002c7a B5   
    9172                      .dwpsn  file "../c5535_bsl_revc/ezdsp5535_v1/c55xx_csl/src/csl_msc.c",line 3014,column 3,is_stmt
    9173 002c7b ED18          MOV dbl(*SP(#12)), XAR3
         002c7d BF   
    9174 002c7e B46F          AMAR *+AR3(#314) ; |3014| 
         002c80 013A 
    9175 002c82 EB1C          MOV XAR3, dbl(*SP(#14))
         002c84 B5   
    9176                      .dwpsn  file "../c5535_bsl_revc/ezdsp5535_v1/c55xx_csl/src/csl_msc.c",line 3016,column 3,is_stmt
    9177 002c85 ED1C          MOV dbl(*SP(#14)), XAR0
         002c87 8F   
    9178              $C$DW$590       .dwtag  DW_TAG_TI_branch
    9179                      .dwattr $C$DW$590, DW_AT_low_pc(0x00)
    9180                      .dwattr $C$DW$590, DW_AT_name("_USB_abortTransaction")
    9181                      .dwattr $C$DW$590, DW_AT_TI_call
    9182 002c88 6C00          CALL #_USB_abortTransaction ; |3016| 
         002c8a 0000!
    9183                                                      ; call occurs [#_USB_abortTransaction] ; |3016| 
    9184 002c8c C424          MOV T0, *SP(#18) ; |3016| 
    9185                      .dwpsn  file "../c5535_bsl_revc/ezdsp5535_v1/c55xx_csl/src/csl_msc.c",line 3017,column 3,is_stmt
    9186 002c8e ED20          MOV dbl(*SP(#16)), XAR0
         002c90 8F   
    9187              $C$DW$591       .dwtag  DW_TAG_TI_branch
    9188                      .dwattr $C$DW$591, DW_AT_low_pc(0x00)
    9189                      .dwattr $C$DW$591, DW_AT_name("_USB_abortTransaction")
    9190                      .dwattr $C$DW$591, DW_AT_TI_call
    9191 002c91 6C00          CALL #_USB_abortTransaction ; |3017| 
         002c93 0000!
    9192                                                      ; call occurs [#_USB_abortTransaction] ; |3017| 
    9193 002c95 C424          MOV T0, *SP(#18) ; |3017| 
TMS320C55x Assembler PC v4.4.1 Tue Oct 02 02:33:20 2018

Tools Copyright (c) 1996-2012 Texas Instruments Incorporated
csl_msc.asm                                                          PAGE  226

    9194                      .dwpsn  file "../c5535_bsl_revc/ezdsp5535_v1/c55xx_csl/src/csl_msc.c",line 3019,column 3,is_stmt
    9195 002c97 ED18          MOV dbl(*SP(#12)), XAR3
         002c99 BF   
    9196 002c9a E66D          MOV #0, *AR3(#355) ; |3019| 
         002c9c 0001 
         002c9e 63   
    9197                      .dwpsn  file "../c5535_bsl_revc/ezdsp5535_v1/c55xx_csl/src/csl_msc.c",line 3021,column 3,is_stmt
    9198 002c9f ED18          MOV dbl(*SP(#12)), XAR0
         002ca1 8F   
    9199 002ca2 ED20          MOV dbl(*SP(#16)), XAR1
         002ca4 9F   
    9200              $C$DW$592       .dwtag  DW_TAG_TI_branch
    9201                      .dwattr $C$DW$592, DW_AT_low_pc(0x00)
    9202                      .dwattr $C$DW$592, DW_AT_name("_MSC_HandleStateReset")
    9203                      .dwattr $C$DW$592, DW_AT_TI_call
    9204 002ca5 08D3          CALL #_MSC_HandleStateReset ; |3021| 
         002ca7 78   
    9205                                                      ; call occurs [#_MSC_HandleStateReset] ; |3021| 
    9206 002ca8 C424          MOV T0, *SP(#18) ; |3021| 
    9207                      .dwpsn  file "../c5535_bsl_revc/ezdsp5535_v1/c55xx_csl/src/csl_msc.c",line 3022,column 3,is_stmt
    9208 002caa 2249          MOV T0, AR1
    9209 002cac 6199          BCC $C$L229,AR1 != #0 ; |3022| 
    9210                                                      ; branchcc occurs ; |3022| 
    9211                      .dwpsn  file "../c5535_bsl_revc/ezdsp5535_v1/c55xx_csl/src/csl_msc.c",line 3024,column 4,is_stmt
    9212 002cae E626          MOV #2, *SP(#19) ; |3024| 
         002cb0 02   
    9213 002cb1       $C$L229:    
    9214                      .dwpsn  file "../c5535_bsl_revc/ezdsp5535_v1/c55xx_csl/src/csl_msc.c",line 3028,column 2,is_stmt
    9215 002cb1 A426          MOV *SP(#19), T0 ; |3028| 
    9216                      .dwpsn  file "../c5535_bsl_revc/ezdsp5535_v1/c55xx_csl/src/csl_msc.c",line 3029,column 1,is_stmt
    9217 002cb3 4E15          AADD #21, SP
    9218                      .dwcfi  cfa_offset, 1
    9219              $C$DW$593       .dwtag  DW_TAG_TI_branch
    9220                      .dwattr $C$DW$593, DW_AT_low_pc(0x00)
    9221                      .dwattr $C$DW$593, DW_AT_TI_return
    9222 002cb5 4804          RET
    9223                                                      ; return occurs
    9224                      .dwattr $C$DW$573, DW_AT_TI_end_file("../c5535_bsl_revc/ezdsp5535_v1/c55xx_csl/src/csl_msc.c")
    9225                      .dwattr $C$DW$573, DW_AT_TI_end_line(0xbd5)
    9226                      .dwattr $C$DW$573, DW_AT_TI_end_column(0x01)
    9227                      .dwendentry
    9228                      .dwendtag $C$DW$573
    9229              
    9230 002cb7               .sect   ".text"
    9231                      .align 4
    9232                      .global _MSC_sendCswWithPhaseError
    9233              
    9234              $C$DW$594       .dwtag  DW_TAG_subprogram, DW_AT_name("MSC_sendCswWithPhaseError")
    9235                      .dwattr $C$DW$594, DW_AT_low_pc(_MSC_sendCswWithPhaseError)
    9236                      .dwattr $C$DW$594, DW_AT_high_pc(0x00)
    9237                      .dwattr $C$DW$594, DW_AT_TI_symbol_name("_MSC_sendCswWithPhaseError")
    9238                      .dwattr $C$DW$594, DW_AT_external
    9239                      .dwattr $C$DW$594, DW_AT_type(*$C$DW$T$89)
    9240                      .dwattr $C$DW$594, DW_AT_TI_begin_file("../c5535_bsl_revc/ezdsp5535_v1/c55xx_csl/src/csl_msc.c")
    9241                      .dwattr $C$DW$594, DW_AT_TI_begin_line(0xc07)
TMS320C55x Assembler PC v4.4.1 Tue Oct 02 02:33:20 2018

Tools Copyright (c) 1996-2012 Texas Instruments Incorporated
csl_msc.asm                                                          PAGE  227

    9242                      .dwattr $C$DW$594, DW_AT_TI_begin_column(0x0c)
    9243                      .dwattr $C$DW$594, DW_AT_TI_max_frame_size(0x06)
    9244                      .dwpsn  file "../c5535_bsl_revc/ezdsp5535_v1/c55xx_csl/src/csl_msc.c",line 3081,column 1,is_stmt,addr
    9245              
    9246                      .dwfde $C$DW$CIE, _MSC_sendCswWithPhaseError
    9247              $C$DW$595       .dwtag  DW_TAG_formal_parameter, DW_AT_name("pMscHandle")
    9248                      .dwattr $C$DW$595, DW_AT_TI_symbol_name("_pMscHandle")
    9249                      .dwattr $C$DW$595, DW_AT_type(*$C$DW$T$107)
    9250                      .dwattr $C$DW$595, DW_AT_location[DW_OP_reg17]
    9251              $C$DW$596       .dwtag  DW_TAG_formal_parameter, DW_AT_name("hUsbInEp")
    9252                      .dwattr $C$DW$596, DW_AT_TI_symbol_name("_hUsbInEp")
    9253                      .dwattr $C$DW$596, DW_AT_type(*$C$DW$T$27)
    9254                      .dwattr $C$DW$596, DW_AT_location[DW_OP_reg19]
    9255              ;*******************************************************************************
    9256              ;* FUNCTION NAME: MSC_sendCswWithPhaseError                                    *
    9257              ;*                                                                             *
    9258              ;*   Function Uses Regs : AC0,AC0,T0,T1,AR0,XAR0,AR1,XAR1,AR3,XAR3,SP,M40,SATA,*
    9259              ;*                        SATD,RDM,FRCT,SMUL                                   *
    9260              ;*   Stack Frame        : Compact (No Frame Pointer, w/ debug)                 *
    9261              ;*   Total Frame Size   : 6 words                                              *
    9262              ;*                        (1 return address/alignment)                         *
    9263              ;*                        (5 local values)                                     *
    9264              ;*   Min System Stack   : 1 word                                               *
    9265              ;*******************************************************************************
    9266 002cb8       _MSC_sendCswWithPhaseError:
    9267                      .dwcfi  cfa_offset, 1
    9268                      .dwcfi  save_reg_to_mem, 91, -1
    9269 002cb8 4EFB          AADD #-5, SP
    9270                      .dwcfi  cfa_offset, 6
    9271              $C$DW$597       .dwtag  DW_TAG_variable, DW_AT_name("pMscHandle")
    9272                      .dwattr $C$DW$597, DW_AT_TI_symbol_name("_pMscHandle")
    9273                      .dwattr $C$DW$597, DW_AT_type(*$C$DW$T$107)
    9274                      .dwattr $C$DW$597, DW_AT_location[DW_OP_bregx 0x24 0]
    9275              $C$DW$598       .dwtag  DW_TAG_variable, DW_AT_name("hUsbInEp")
    9276                      .dwattr $C$DW$598, DW_AT_TI_symbol_name("_hUsbInEp")
    9277                      .dwattr $C$DW$598, DW_AT_type(*$C$DW$T$27)
    9278                      .dwattr $C$DW$598, DW_AT_location[DW_OP_bregx 0x24 2]
    9279              $C$DW$599       .dwtag  DW_TAG_variable, DW_AT_name("status")
    9280                      .dwattr $C$DW$599, DW_AT_TI_symbol_name("_status")
    9281                      .dwattr $C$DW$599, DW_AT_type(*$C$DW$T$89)
    9282                      .dwattr $C$DW$599, DW_AT_location[DW_OP_bregx 0x24 4]
    9283 002cba EB04          MOV XAR1, dbl(*SP(#2))
         002cbc 95   
    9284 002cbd EB00          MOV XAR0, dbl(*SP(#0))
         002cbf 85   
    9285                      .dwpsn  file "../c5535_bsl_revc/ezdsp5535_v1/c55xx_csl/src/csl_msc.c",line 3084,column 2,is_stmt
    9286 002cc0 E608          MOV #0, *SP(#4) ; |3084| 
         002cc2 00   
    9287                      .dwpsn  file "../c5535_bsl_revc/ezdsp5535_v1/c55xx_csl/src/csl_msc.c",line 3086,column 2,is_stmt
    9288 002cc3 ED00          MOV dbl(*SP(#0)), XAR3
         002cc5 BF   
    9289 002cc6 90B0          MOV XAR3, AC0
    9290 002cc8 0400          BCC $C$L230,AC0 == #0 ; |3086| 
         002cca 4A   
    9291                                                      ; branchcc occurs ; |3086| 
TMS320C55x Assembler PC v4.4.1 Tue Oct 02 02:33:20 2018

Tools Copyright (c) 1996-2012 Texas Instruments Incorporated
csl_msc.asm                                                          PAGE  228

    9292 002ccb ED04          MOV dbl(*SP(#2)), XAR3
         002ccd BF   
    9293 002cce 90B0          MOV XAR3, AC0
    9294 002cd0 0400          BCC $C$L230,AC0 == #0 ; |3086| 
         002cd2 42   
    9295                                                      ; branchcc occurs ; |3086| 
    9296                      .dwpsn  file "../c5535_bsl_revc/ezdsp5535_v1/c55xx_csl/src/csl_msc.c",line 3088,column 3,is_stmt
    9297 002cd3 ED00          MOV dbl(*SP(#0)), XAR3
         002cd5 BF   
    9298 002cd6 ED6D          MOV dbl(*AR3(#16)), AC0 ; |3088| 
         002cd8 0800 
         002cda 10   
    9299 002cdb 7DFF          AND #0xffff, AC0, AC0 ; |3088| 
         002cdd FF00 
    9300 002cdf C06D          MOV AC0, *AR3(#287) ; |3088| 
         002ce1 011F 
    9301                      .dwpsn  file "../c5535_bsl_revc/ezdsp5535_v1/c55xx_csl/src/csl_msc.c",line 3090,column 3,is_stmt
    9302 002ce3 ED00          MOV dbl(*SP(#0)), XAR3
         002ce5 BF   
    9303 002ce6 ED6D          MOV dbl(*AR3(#16)), AC0 ; |3090| 
         002ce8 0800 
         002cea 10   
    9304 002ceb BC6D          MOV HI(AC0), *AR3(#288) ; |3090| 
         002ced 0120 
    9305                      .dwpsn  file "../c5535_bsl_revc/ezdsp5535_v1/c55xx_csl/src/csl_msc.c",line 3093,column 3,is_stmt
    9306 002cef ED00          MOV dbl(*SP(#0)), XAR3
         002cf1 BF   
    9307 002cf2 E66D          MOV #2, *AR3(#289) ; |3093| 
         002cf4 0201 
         002cf6 21   
    9308                      .dwpsn  file "../c5535_bsl_revc/ezdsp5535_v1/c55xx_csl/src/csl_msc.c",line 3094,column 3,is_stmt
    9309 002cf7 ED00          MOV dbl(*SP(#0)), XAR3
         002cf9 BF   
    9310 002cfa E66D          MOV #4, *AR3(#355) ; |3094| 
         002cfc 0401 
         002cfe 63   
    9311                      .dwpsn  file "../c5535_bsl_revc/ezdsp5535_v1/c55xx_csl/src/csl_msc.c",line 3097,column 3,is_stmt
    9312 002cff ED00          MOV dbl(*SP(#0)), XAR1
         002d01 9F   
    9313 002d02 3CD4          MOV #13, T0
    9314 002d04 ED04          MOV dbl(*SP(#2)), XAR0
         002d06 8F   
    9315 002d07 B42F          AMAR *+AR1(#282) ; |3097| 
         002d09 011A 
    9316              $C$DW$600       .dwtag  DW_TAG_TI_branch
    9317                      .dwattr $C$DW$600, DW_AT_low_pc(0x00)
    9318                      .dwattr $C$DW$600, DW_AT_name("_USB_postTransaction")
    9319                      .dwattr $C$DW$600, DW_AT_TI_call
    9320              
    9321 002d0b 6C00          CALL #_USB_postTransaction ; |3097| 
         002d0d 0000!
    9322 002d0f 3D15  ||      MOV #1, T1
    9323              
    9324                                                      ; call occurs [#_USB_postTransaction] ; |3097| 
    9325 002d11 C408          MOV T0, *SP(#4) ; |3097| 
TMS320C55x Assembler PC v4.4.1 Tue Oct 02 02:33:20 2018

Tools Copyright (c) 1996-2012 Texas Instruments Incorporated
csl_msc.asm                                                          PAGE  229

    9326                      .dwpsn  file "../c5535_bsl_revc/ezdsp5535_v1/c55xx_csl/src/csl_msc.c",line 3100,column 2,is_stmt
    9327 002d13 4A03          B $C$L231 ; |3100| 
    9328                                                      ; branch occurs ; |3100| 
    9329 002d15       $C$L230:    
    9330                      .dwpsn  file "../c5535_bsl_revc/ezdsp5535_v1/c55xx_csl/src/csl_msc.c",line 3103,column 3,is_stmt
    9331 002d15 E608          MOV #-6, *SP(#4) ; |3103| 
         002d17 FA   
    9332 002d18       $C$L231:    
    9333                      .dwpsn  file "../c5535_bsl_revc/ezdsp5535_v1/c55xx_csl/src/csl_msc.c",line 3106,column 2,is_stmt
    9334 002d18 A408          MOV *SP(#4), T0 ; |3106| 
    9335                      .dwpsn  file "../c5535_bsl_revc/ezdsp5535_v1/c55xx_csl/src/csl_msc.c",line 3107,column 1,is_stmt
    9336 002d1a 4E05          AADD #5, SP
    9337                      .dwcfi  cfa_offset, 1
    9338              $C$DW$601       .dwtag  DW_TAG_TI_branch
    9339                      .dwattr $C$DW$601, DW_AT_low_pc(0x00)
    9340                      .dwattr $C$DW$601, DW_AT_TI_return
    9341 002d1c 4804          RET
    9342                                                      ; return occurs
    9343                      .dwattr $C$DW$594, DW_AT_TI_end_file("../c5535_bsl_revc/ezdsp5535_v1/c55xx_csl/src/csl_msc.c")
    9344                      .dwattr $C$DW$594, DW_AT_TI_end_line(0xc23)
    9345                      .dwattr $C$DW$594, DW_AT_TI_end_column(0x01)
    9346                      .dwendentry
    9347                      .dwendtag $C$DW$594
    9348              
    9349 002d1e               .sect   ".text"
    9350                      .align 4
    9351                      .global _MSC_handleDataDirMisMatch
    9352              
    9353              $C$DW$602       .dwtag  DW_TAG_subprogram, DW_AT_name("MSC_handleDataDirMisMatch")
    9354                      .dwattr $C$DW$602, DW_AT_low_pc(_MSC_handleDataDirMisMatch)
    9355                      .dwattr $C$DW$602, DW_AT_high_pc(0x00)
    9356                      .dwattr $C$DW$602, DW_AT_TI_symbol_name("_MSC_handleDataDirMisMatch")
    9357                      .dwattr $C$DW$602, DW_AT_external
    9358                      .dwattr $C$DW$602, DW_AT_type(*$C$DW$T$89)
    9359                      .dwattr $C$DW$602, DW_AT_TI_begin_file("../c5535_bsl_revc/ezdsp5535_v1/c55xx_csl/src/csl_msc.c")
    9360                      .dwattr $C$DW$602, DW_AT_TI_begin_line(0xc57)
    9361                      .dwattr $C$DW$602, DW_AT_TI_begin_column(0x0c)
    9362                      .dwattr $C$DW$602, DW_AT_TI_max_frame_size(0x06)
    9363                      .dwpsn  file "../c5535_bsl_revc/ezdsp5535_v1/c55xx_csl/src/csl_msc.c",line 3161,column 1,is_stmt,addr
    9364              
    9365                      .dwfde $C$DW$CIE, _MSC_handleDataDirMisMatch
    9366              $C$DW$603       .dwtag  DW_TAG_formal_parameter, DW_AT_name("pMscHandle")
    9367                      .dwattr $C$DW$603, DW_AT_TI_symbol_name("_pMscHandle")
    9368                      .dwattr $C$DW$603, DW_AT_type(*$C$DW$T$107)
    9369                      .dwattr $C$DW$603, DW_AT_location[DW_OP_reg17]
    9370              $C$DW$604       .dwtag  DW_TAG_formal_parameter, DW_AT_name("dataDir")
    9371                      .dwattr $C$DW$604, DW_AT_TI_symbol_name("_dataDir")
    9372                      .dwattr $C$DW$604, DW_AT_type(*$C$DW$T$25)
    9373                      .dwattr $C$DW$604, DW_AT_location[DW_OP_reg12]
    9374              ;*******************************************************************************
    9375              ;* FUNCTION NAME: MSC_handleDataDirMisMatch                                    *
    9376              ;*                                                                             *
    9377              ;*   Function Uses Regs : AC0,AC0,T0,T1,AR0,XAR0,AR1,XAR1,AR3,XAR3,SP,TC1,M40, *
    9378              ;*                        SATA,SATD,RDM,FRCT,SMUL                              *
    9379              ;*   Stack Frame        : Compact (No Frame Pointer, w/ debug)                 *
TMS320C55x Assembler PC v4.4.1 Tue Oct 02 02:33:20 2018

Tools Copyright (c) 1996-2012 Texas Instruments Incorporated
csl_msc.asm                                                          PAGE  230

    9380              ;*   Total Frame Size   : 6 words                                              *
    9381              ;*                        (2 return address/alignment)                         *
    9382              ;*                        (4 local values)                                     *
    9383              ;*   Min System Stack   : 1 word                                               *
    9384              ;*******************************************************************************
    9385 002d20       _MSC_handleDataDirMisMatch:
    9386                      .dwcfi  cfa_offset, 1
    9387                      .dwcfi  save_reg_to_mem, 91, -1
    9388 002d20 4EFB          AADD #-5, SP
    9389                      .dwcfi  cfa_offset, 6
    9390              $C$DW$605       .dwtag  DW_TAG_variable, DW_AT_name("pMscHandle")
    9391                      .dwattr $C$DW$605, DW_AT_TI_symbol_name("_pMscHandle")
    9392                      .dwattr $C$DW$605, DW_AT_type(*$C$DW$T$107)
    9393                      .dwattr $C$DW$605, DW_AT_location[DW_OP_bregx 0x24 0]
    9394              $C$DW$606       .dwtag  DW_TAG_variable, DW_AT_name("dataDir")
    9395                      .dwattr $C$DW$606, DW_AT_TI_symbol_name("_dataDir")
    9396                      .dwattr $C$DW$606, DW_AT_type(*$C$DW$T$25)
    9397                      .dwattr $C$DW$606, DW_AT_location[DW_OP_bregx 0x24 2]
    9398              $C$DW$607       .dwtag  DW_TAG_variable, DW_AT_name("status")
    9399                      .dwattr $C$DW$607, DW_AT_TI_symbol_name("_status")
    9400                      .dwattr $C$DW$607, DW_AT_type(*$C$DW$T$89)
    9401                      .dwattr $C$DW$607, DW_AT_location[DW_OP_bregx 0x24 3]
    9402 002d22 C404          MOV T0, *SP(#2) ; |3161| 
    9403 002d24 EB00          MOV XAR0, dbl(*SP(#0))
         002d26 85   
    9404                      .dwpsn  file "../c5535_bsl_revc/ezdsp5535_v1/c55xx_csl/src/csl_msc.c",line 3164,column 2,is_stmt
    9405 002d27 E606          MOV #0, *SP(#3) ; |3164| 
         002d29 00   
    9406                      .dwpsn  file "../c5535_bsl_revc/ezdsp5535_v1/c55xx_csl/src/csl_msc.c",line 3166,column 2,is_stmt
    9407 002d2a ED00          MOV dbl(*SP(#0)), XAR3
         002d2c BF   
    9408 002d2d 90B0          MOV XAR3, AC0
    9409 002d2f 0400          BCC $C$L234,AC0 == #0 ; |3166| 
         002d31 60   
    9410                                                      ; branchcc occurs ; |3166| 
    9411                      .dwpsn  file "../c5535_bsl_revc/ezdsp5535_v1/c55xx_csl/src/csl_msc.c",line 3168,column 3,is_stmt
    9412 002d32 E66D          MOV #2, *AR3(#289) ; |3168| 
         002d34 0201 
         002d36 21   
    9413                      .dwpsn  file "../c5535_bsl_revc/ezdsp5535_v1/c55xx_csl/src/csl_msc.c",line 3171,column 3,is_stmt
    9414 002d37 ED00          MOV dbl(*SP(#0)), XAR3
         002d39 BF   
    9415 002d3a E66D          MOV #2, *AR3(#355) ; |3171| 
         002d3c 0201 
         002d3e 63   
    9416                      .dwpsn  file "../c5535_bsl_revc/ezdsp5535_v1/c55xx_csl/src/csl_msc.c",line 3173,column 3,is_stmt
    9417 002d3f F004          CMP *SP(#2) == #128, TC1 ; |3173| 
         002d41 0080 
    9418 002d43 0474          BCC $C$L232,!TC1 ; |3173| 
         002d45 1F   
    9419                                                      ; branchcc occurs ; |3173| 
    9420                      .dwpsn  file "../c5535_bsl_revc/ezdsp5535_v1/c55xx_csl/src/csl_msc.c",line 3175,column 4,is_stmt
    9421 002d46 ED00          MOV dbl(*SP(#0)), XAR0
         002d48 8F   
    9422 002d49 B40F          AMAR *+AR0(#314) ; |3175| 
TMS320C55x Assembler PC v4.4.1 Tue Oct 02 02:33:20 2018

Tools Copyright (c) 1996-2012 Texas Instruments Incorporated
csl_msc.asm                                                          PAGE  231

         002d4b 013A 
    9423              $C$DW$608       .dwtag  DW_TAG_TI_branch
    9424                      .dwattr $C$DW$608, DW_AT_low_pc(0x00)
    9425                      .dwattr $C$DW$608, DW_AT_name("_USB_stallEndpt")
    9426                      .dwattr $C$DW$608, DW_AT_TI_call
    9427 002d4d 6C00          CALL #_USB_stallEndpt ; |3175| 
         002d4f 0000!
    9428                                                      ; call occurs [#_USB_stallEndpt] ; |3175| 
    9429 002d51 C406          MOV T0, *SP(#3) ; |3175| 
    9430                      .dwpsn  file "../c5535_bsl_revc/ezdsp5535_v1/c55xx_csl/src/csl_msc.c",line 3176,column 4,is_stmt
    9431 002d53 ED00          MOV dbl(*SP(#0)), XAR0
         002d55 8F   
    9432 002d56 B40F          AMAR *+AR0(#334) ; |3176| 
         002d58 014E 
    9433              $C$DW$609       .dwtag  DW_TAG_TI_branch
    9434                      .dwattr $C$DW$609, DW_AT_low_pc(0x00)
    9435                      .dwattr $C$DW$609, DW_AT_name("_USB_stallEndpt")
    9436                      .dwattr $C$DW$609, DW_AT_TI_call
    9437 002d5a 6C00          CALL #_USB_stallEndpt ; |3176| 
         002d5c 0000!
    9438                                                      ; call occurs [#_USB_stallEndpt] ; |3176| 
    9439 002d5e DA06          OR *SP(#3), T0, AR1 ; |3176| 
         002d60 94   
    9440 002d61 C906          MOV AR1, *SP(#3) ; |3176| 
    9441                      .dwpsn  file "../c5535_bsl_revc/ezdsp5535_v1/c55xx_csl/src/csl_msc.c",line 3177,column 3,is_stmt
    9442 002d63 4A0D          B $C$L233 ; |3177| 
    9443                                                      ; branch occurs ; |3177| 
    9444 002d65       $C$L232:    
    9445                      .dwpsn  file "../c5535_bsl_revc/ezdsp5535_v1/c55xx_csl/src/csl_msc.c",line 3180,column 4,is_stmt
    9446 002d65 ED00          MOV dbl(*SP(#0)), XAR0
         002d67 8F   
    9447 002d68 B40F          AMAR *+AR0(#314) ; |3180| 
         002d6a 013A 
    9448              $C$DW$610       .dwtag  DW_TAG_TI_branch
    9449                      .dwattr $C$DW$610, DW_AT_low_pc(0x00)
    9450                      .dwattr $C$DW$610, DW_AT_name("_USB_stallEndpt")
    9451                      .dwattr $C$DW$610, DW_AT_TI_call
    9452 002d6c 6C00          CALL #_USB_stallEndpt ; |3180| 
         002d6e 0000!
    9453                                                      ; call occurs [#_USB_stallEndpt] ; |3180| 
    9454 002d70 C406          MOV T0, *SP(#3) ; |3180| 
    9455 002d72       $C$L233:    
    9456                      .dwpsn  file "../c5535_bsl_revc/ezdsp5535_v1/c55xx_csl/src/csl_msc.c",line 3184,column 3,is_stmt
    9457 002d72 ED00          MOV dbl(*SP(#0)), XAR3
         002d74 BF   
    9458 002d75 ED00          MOV dbl(*SP(#0)), XAR0
         002d77 8F   
    9459 002d78 7600          MOV #32, T1 ; |3184| 
         002d7a 2058 
    9460 002d7c ED6D          MOV dbl(*AR3(#14)), XAR1
         002d7e 9F00 
         002d80 0E   
    9461 002d81 B40F          AMAR *+AR0(#314) ; |3184| 
         002d83 013A 
    9462              $C$DW$611       .dwtag  DW_TAG_TI_branch
TMS320C55x Assembler PC v4.4.1 Tue Oct 02 02:33:20 2018

Tools Copyright (c) 1996-2012 Texas Instruments Incorporated
csl_msc.asm                                                          PAGE  232

    9463                      .dwattr $C$DW$611, DW_AT_low_pc(0x00)
    9464                      .dwattr $C$DW$611, DW_AT_name("_USB_postTransaction")
    9465                      .dwattr $C$DW$611, DW_AT_TI_call
    9466              
    9467 002d85 6C00          CALL #_USB_postTransaction ; |3184| 
         002d87 0000!
    9468 002d89 3D04  ||      MOV #0, T0
    9469              
    9470                                                      ; call occurs [#_USB_postTransaction] ; |3184| 
    9471 002d8b DA06          OR *SP(#3), T0, AR1 ; |3184| 
         002d8d 94   
    9472 002d8e C906          MOV AR1, *SP(#3) ; |3184| 
    9473                      .dwpsn  file "../c5535_bsl_revc/ezdsp5535_v1/c55xx_csl/src/csl_msc.c",line 3187,column 2,is_stmt
    9474 002d90 4A03          B $C$L235 ; |3187| 
    9475                                                      ; branch occurs ; |3187| 
    9476 002d92       $C$L234:    
    9477                      .dwpsn  file "../c5535_bsl_revc/ezdsp5535_v1/c55xx_csl/src/csl_msc.c",line 3190,column 3,is_stmt
    9478 002d92 E606          MOV #-5, *SP(#3) ; |3190| 
         002d94 FB   
    9479 002d95       $C$L235:    
    9480                      .dwpsn  file "../c5535_bsl_revc/ezdsp5535_v1/c55xx_csl/src/csl_msc.c",line 3193,column 2,is_stmt
    9481 002d95 A406          MOV *SP(#3), T0 ; |3193| 
    9482                      .dwpsn  file "../c5535_bsl_revc/ezdsp5535_v1/c55xx_csl/src/csl_msc.c",line 3194,column 1,is_stmt
    9483 002d97 4E05          AADD #5, SP
    9484                      .dwcfi  cfa_offset, 1
    9485              $C$DW$612       .dwtag  DW_TAG_TI_branch
    9486                      .dwattr $C$DW$612, DW_AT_low_pc(0x00)
    9487                      .dwattr $C$DW$612, DW_AT_TI_return
    9488 002d99 4804          RET
    9489                                                      ; return occurs
    9490                      .dwattr $C$DW$602, DW_AT_TI_end_file("../c5535_bsl_revc/ezdsp5535_v1/c55xx_csl/src/csl_msc.c")
    9491                      .dwattr $C$DW$602, DW_AT_TI_end_line(0xc7a)
    9492                      .dwattr $C$DW$602, DW_AT_TI_end_column(0x01)
    9493                      .dwendentry
    9494                      .dwendtag $C$DW$602
    9495              
    9496              ;******************************************************************************
    9497              ;* UNDEFINED EXTERNAL REFERENCES                                              *
    9498              ;******************************************************************************
    9499                      .global _strlen
    9500                      .global _USB_initEndptObj
    9501                      .global _USB_getEvents
    9502                      .global _USB_getSetupPacket
    9503                      .global _USB_postTransaction
    9504                      .global _USB_isTransactionDone
    9505                      .global _USB_stallEndpt
    9506                      .global _USB_abortTransaction
    9507                      .global _USB_abortAllTransaction
    9508                      .global _USB_connectDev
    9509                      .global _USB_disconnectDev
    9510                      .global _USB_setParams
    9511                      .global _USB_getMaxPower
    9512                      .global _USB_setFullSpeedMode
    9513                      .global _USB_getDataCountReadFromFifo
    9514              
TMS320C55x Assembler PC v4.4.1 Tue Oct 02 02:33:20 2018

Tools Copyright (c) 1996-2012 Texas Instruments Incorporated
csl_msc.asm                                                          PAGE  233

    9515              ;*******************************************************************************
    9516              ;* TYPE INFORMATION                                                            *
    9517              ;*******************************************************************************
    9518              
    9519              $C$DW$T$23      .dwtag  DW_TAG_enumeration_type
    9520                      .dwattr $C$DW$T$23, DW_AT_byte_size(0x01)
    9521              $C$DW$613       .dwtag  DW_TAG_enumerator, DW_AT_name("CSL_USB0"), DW_AT_const_value(0x00)
    9522              $C$DW$614       .dwtag  DW_TAG_enumerator, DW_AT_name("CSL_USB1"), DW_AT_const_value(0x01)
    9523              $C$DW$615       .dwtag  DW_TAG_enumerator, DW_AT_name("CSL_USB2"), DW_AT_const_value(0x02)
    9524                      .dwendtag $C$DW$T$23
    9525              
    9526              $C$DW$T$24      .dwtag  DW_TAG_typedef, DW_AT_name("CSL_UsbDevNum")
    9527                      .dwattr $C$DW$T$24, DW_AT_type(*$C$DW$T$23)
    9528                      .dwattr $C$DW$T$24, DW_AT_language(DW_LANG_C)
    9529              
    9530              $C$DW$T$41      .dwtag  DW_TAG_enumeration_type
    9531                      .dwattr $C$DW$T$41, DW_AT_byte_size(0x01)
    9532              $C$DW$616       .dwtag  DW_TAG_enumerator, DW_AT_name("CSL_MSC_REQUEST_DONE"), DW_AT_const_value(0x00)
    9533              $C$DW$617       .dwtag  DW_TAG_enumerator, DW_AT_name("CSL_MSC_REQUEST_STALL"), DW_AT_const_value(0x01)
    9534              $C$DW$618       .dwtag  DW_TAG_enumerator, DW_AT_name("CSL_MSC_REQUEST_SEND_ACK"), DW_AT_const_value(0x02)
    9535              $C$DW$619       .dwtag  DW_TAG_enumerator, DW_AT_name("CSL_MSC_REQUEST_GET_ACK"), DW_AT_const_value(0x03)
    9536              $C$DW$620       .dwtag  DW_TAG_enumerator, DW_AT_name("CSL_MSC_REQUEST_DATA_IN"), DW_AT_const_value(0x04)
    9537              $C$DW$621       .dwtag  DW_TAG_enumerator, DW_AT_name("CSL_MSC_REQUEST_DATA_OUT"), DW_AT_const_value(0x05)
    9538                      .dwendtag $C$DW$T$41
    9539              
    9540              $C$DW$T$42      .dwtag  DW_TAG_typedef, DW_AT_name("CSL_MscRequestRet")
    9541                      .dwattr $C$DW$T$42, DW_AT_type(*$C$DW$T$41)
    9542                      .dwattr $C$DW$T$42, DW_AT_language(DW_LANG_C)
    9543              
    9544              $C$DW$T$44      .dwtag  DW_TAG_subroutine_type
    9545                      .dwattr $C$DW$T$44, DW_AT_type(*$C$DW$T$42)
    9546                      .dwattr $C$DW$T$44, DW_AT_language(DW_LANG_C)
    9547              $C$DW$622       .dwtag  DW_TAG_formal_parameter
    9548                      .dwattr $C$DW$622, DW_AT_type(*$C$DW$T$24)
    9549              $C$DW$623       .dwtag  DW_TAG_formal_parameter
    9550                      .dwattr $C$DW$623, DW_AT_type(*$C$DW$T$43)
    9551              $C$DW$624       .dwtag  DW_TAG_formal_parameter
    9552                      .dwattr $C$DW$624, DW_AT_type(*$C$DW$T$27)
    9553              $C$DW$625       .dwtag  DW_TAG_formal_parameter
    9554                      .dwattr $C$DW$625, DW_AT_type(*$C$DW$T$27)
    9555              $C$DW$626       .dwtag  DW_TAG_formal_parameter
    9556                      .dwattr $C$DW$626, DW_AT_type(*$C$DW$T$3)
    9557                      .dwendtag $C$DW$T$44
    9558              
    9559              $C$DW$T$45      .dwtag  DW_TAG_pointer_type
    9560                      .dwattr $C$DW$T$45, DW_AT_type(*$C$DW$T$44)
    9561                      .dwattr $C$DW$T$45, DW_AT_address_class(0x20)
    9562              $C$DW$T$93      .dwtag  DW_TAG_typedef, DW_AT_name("fpMSC_REQ_HANDLER")
    9563                      .dwattr $C$DW$T$93, DW_AT_type(*$C$DW$T$45)
    9564                      .dwattr $C$DW$T$93, DW_AT_language(DW_LANG_C)
    9565              
    9566              $C$DW$T$51      .dwtag  DW_TAG_enumeration_type
    9567                      .dwattr $C$DW$T$51, DW_AT_byte_size(0x01)
    9568              $C$DW$627       .dwtag  DW_TAG_enumerator, DW_AT_name("CSL_MSC_MEDIACCESS_OVERFLOW"), DW_AT_const_value(0x00)
    9569              $C$DW$628       .dwtag  DW_TAG_enumerator, DW_AT_name("CSL_MSC_MEDIACCESS_SUCCESS"), DW_AT_const_value(0x01)
TMS320C55x Assembler PC v4.4.1 Tue Oct 02 02:33:20 2018

Tools Copyright (c) 1996-2012 Texas Instruments Incorporated
csl_msc.asm                                                          PAGE  234

    9570              $C$DW$629       .dwtag  DW_TAG_enumerator, DW_AT_name("CSL_MSC_MEDIACCESS_NOTPRESENT"), DW_AT_const_value(0x0
    9571              $C$DW$630       .dwtag  DW_TAG_enumerator, DW_AT_name("CSL_MSC_MEDIACCESS_WRITEPROTECT"), DW_AT_const_value(0
    9572              $C$DW$631       .dwtag  DW_TAG_enumerator, DW_AT_name("CSL_MSC_MEDIACCESS_BADMEDIA"), DW_AT_const_value(0x04)
    9573                      .dwendtag $C$DW$T$51
    9574              
    9575              $C$DW$T$52      .dwtag  DW_TAG_typedef, DW_AT_name("CSL_MscMediaStatus")
    9576                      .dwattr $C$DW$T$52, DW_AT_type(*$C$DW$T$51)
    9577                      .dwattr $C$DW$T$52, DW_AT_language(DW_LANG_C)
    9578              
    9579              $C$DW$T$54      .dwtag  DW_TAG_subroutine_type
    9580                      .dwattr $C$DW$T$54, DW_AT_type(*$C$DW$T$52)
    9581                      .dwattr $C$DW$T$54, DW_AT_language(DW_LANG_C)
    9582              $C$DW$632       .dwtag  DW_TAG_formal_parameter
    9583                      .dwattr $C$DW$632, DW_AT_type(*$C$DW$T$25)
    9584              $C$DW$633       .dwtag  DW_TAG_formal_parameter
    9585                      .dwattr $C$DW$633, DW_AT_type(*$C$DW$T$47)
    9586              $C$DW$634       .dwtag  DW_TAG_formal_parameter
    9587                      .dwattr $C$DW$634, DW_AT_type(*$C$DW$T$53)
    9588              $C$DW$635       .dwtag  DW_TAG_formal_parameter
    9589                      .dwattr $C$DW$635, DW_AT_type(*$C$DW$T$25)
    9590                      .dwendtag $C$DW$T$54
    9591              
    9592              $C$DW$T$55      .dwtag  DW_TAG_pointer_type
    9593                      .dwattr $C$DW$T$55, DW_AT_type(*$C$DW$T$54)
    9594                      .dwattr $C$DW$T$55, DW_AT_address_class(0x20)
    9595              
    9596              $C$DW$T$56      .dwtag  DW_TAG_subroutine_type
    9597                      .dwattr $C$DW$T$56, DW_AT_type(*$C$DW$T$52)
    9598                      .dwattr $C$DW$T$56, DW_AT_language(DW_LANG_C)
    9599              $C$DW$636       .dwtag  DW_TAG_formal_parameter
    9600                      .dwattr $C$DW$636, DW_AT_type(*$C$DW$T$25)
    9601                      .dwendtag $C$DW$T$56
    9602              
    9603              $C$DW$T$57      .dwtag  DW_TAG_pointer_type
    9604                      .dwattr $C$DW$T$57, DW_AT_type(*$C$DW$T$56)
    9605                      .dwattr $C$DW$T$57, DW_AT_address_class(0x20)
    9606              
    9607              $C$DW$T$60      .dwtag  DW_TAG_subroutine_type
    9608                      .dwattr $C$DW$T$60, DW_AT_type(*$C$DW$T$52)
    9609                      .dwattr $C$DW$T$60, DW_AT_language(DW_LANG_C)
    9610              $C$DW$637       .dwtag  DW_TAG_formal_parameter
    9611                      .dwattr $C$DW$637, DW_AT_type(*$C$DW$T$25)
    9612              $C$DW$638       .dwtag  DW_TAG_formal_parameter
    9613                      .dwattr $C$DW$638, DW_AT_type(*$C$DW$T$59)
    9614                      .dwendtag $C$DW$T$60
    9615              
    9616              $C$DW$T$61      .dwtag  DW_TAG_pointer_type
    9617                      .dwattr $C$DW$T$61, DW_AT_type(*$C$DW$T$60)
    9618                      .dwattr $C$DW$T$61, DW_AT_address_class(0x20)
    9619              
    9620              $C$DW$T$58      .dwtag  DW_TAG_enumeration_type
    9621                      .dwattr $C$DW$T$58, DW_AT_byte_size(0x01)
    9622              $C$DW$639       .dwtag  DW_TAG_enumerator, DW_AT_name("CSL_MSC_UNLOCK"), DW_AT_const_value(0x00)
    9623              $C$DW$640       .dwtag  DW_TAG_enumerator, DW_AT_name("CSL_MSC_LOCK"), DW_AT_const_value(0x01)
    9624                      .dwendtag $C$DW$T$58
TMS320C55x Assembler PC v4.4.1 Tue Oct 02 02:33:20 2018

Tools Copyright (c) 1996-2012 Texas Instruments Incorporated
csl_msc.asm                                                          PAGE  235

    9625              
    9626              $C$DW$T$59      .dwtag  DW_TAG_typedef, DW_AT_name("CSL_MscMediaLockStatus")
    9627                      .dwattr $C$DW$T$59, DW_AT_type(*$C$DW$T$58)
    9628                      .dwattr $C$DW$T$59, DW_AT_language(DW_LANG_C)
    9629              
    9630              $C$DW$T$78      .dwtag  DW_TAG_enumeration_type
    9631                      .dwattr $C$DW$T$78, DW_AT_byte_size(0x01)
    9632              $C$DW$641       .dwtag  DW_TAG_enumerator, DW_AT_name("CSL_USB_OUT_EP0"), DW_AT_const_value(0x00)
    9633              $C$DW$642       .dwtag  DW_TAG_enumerator, DW_AT_name("CSL_USB_OUT_EP1"), DW_AT_const_value(0x01)
    9634              $C$DW$643       .dwtag  DW_TAG_enumerator, DW_AT_name("CSL_USB_OUT_EP2"), DW_AT_const_value(0x02)
    9635              $C$DW$644       .dwtag  DW_TAG_enumerator, DW_AT_name("CSL_USB_OUT_EP3"), DW_AT_const_value(0x03)
    9636              $C$DW$645       .dwtag  DW_TAG_enumerator, DW_AT_name("CSL_USB_OUT_EP4"), DW_AT_const_value(0x04)
    9637              $C$DW$646       .dwtag  DW_TAG_enumerator, DW_AT_name("CSL_USB_OUT_EP5"), DW_AT_const_value(0x05)
    9638              $C$DW$647       .dwtag  DW_TAG_enumerator, DW_AT_name("CSL_USB_OUT_EP6"), DW_AT_const_value(0x06)
    9639              $C$DW$648       .dwtag  DW_TAG_enumerator, DW_AT_name("CSL_USB_OUT_EP7"), DW_AT_const_value(0x07)
    9640              $C$DW$649       .dwtag  DW_TAG_enumerator, DW_AT_name("CSL_USB_IN_EP0"), DW_AT_const_value(0x08)
    9641              $C$DW$650       .dwtag  DW_TAG_enumerator, DW_AT_name("CSL_USB_IN_EP1"), DW_AT_const_value(0x09)
    9642              $C$DW$651       .dwtag  DW_TAG_enumerator, DW_AT_name("CSL_USB_IN_EP2"), DW_AT_const_value(0x0a)
    9643              $C$DW$652       .dwtag  DW_TAG_enumerator, DW_AT_name("CSL_USB_IN_EP3"), DW_AT_const_value(0x0b)
    9644              $C$DW$653       .dwtag  DW_TAG_enumerator, DW_AT_name("CSL_USB_IN_EP4"), DW_AT_const_value(0x0c)
    9645              $C$DW$654       .dwtag  DW_TAG_enumerator, DW_AT_name("CSL_USB_IN_EP5"), DW_AT_const_value(0x0d)
    9646              $C$DW$655       .dwtag  DW_TAG_enumerator, DW_AT_name("CSL_USB_IN_EP6"), DW_AT_const_value(0x0e)
    9647              $C$DW$656       .dwtag  DW_TAG_enumerator, DW_AT_name("CSL_USB_IN_EP7"), DW_AT_const_value(0x0f)
    9648                      .dwendtag $C$DW$T$78
    9649              
    9650              $C$DW$T$79      .dwtag  DW_TAG_typedef, DW_AT_name("CSL_UsbEpNum")
    9651                      .dwattr $C$DW$T$79, DW_AT_type(*$C$DW$T$78)
    9652                      .dwattr $C$DW$T$79, DW_AT_language(DW_LANG_C)
    9653              
    9654              $C$DW$T$80      .dwtag  DW_TAG_enumeration_type
    9655                      .dwattr $C$DW$T$80, DW_AT_byte_size(0x01)
    9656              $C$DW$657       .dwtag  DW_TAG_enumerator, DW_AT_name("CSL_USB_CTRL"), DW_AT_const_value(0x00)
    9657              $C$DW$658       .dwtag  DW_TAG_enumerator, DW_AT_name("CSL_USB_BULK"), DW_AT_const_value(0x01)
    9658              $C$DW$659       .dwtag  DW_TAG_enumerator, DW_AT_name("CSL_USB_INTR"), DW_AT_const_value(0x02)
    9659              $C$DW$660       .dwtag  DW_TAG_enumerator, DW_AT_name("CSL_USB_ISO"), DW_AT_const_value(0x03)
    9660              $C$DW$661       .dwtag  DW_TAG_enumerator, DW_AT_name("CSL_USB_HPORT"), DW_AT_const_value(0x04)
    9661                      .dwendtag $C$DW$T$80
    9662              
    9663              $C$DW$T$81      .dwtag  DW_TAG_typedef, DW_AT_name("CSL_UsbXferType")
    9664                      .dwattr $C$DW$T$81, DW_AT_type(*$C$DW$T$80)
    9665                      .dwattr $C$DW$T$81, DW_AT_language(DW_LANG_C)
    9666              
    9667              $C$DW$T$86      .dwtag  DW_TAG_enumeration_type
    9668                      .dwattr $C$DW$T$86, DW_AT_byte_size(0x01)
    9669              $C$DW$662       .dwtag  DW_TAG_enumerator, DW_AT_name("CSL_USB_FALSE"), DW_AT_const_value(0x00)
    9670              $C$DW$663       .dwtag  DW_TAG_enumerator, DW_AT_name("CSL_USB_TRUE"), DW_AT_const_value(0x01)
    9671                      .dwendtag $C$DW$T$86
    9672              
    9673              $C$DW$T$87      .dwtag  DW_TAG_typedef, DW_AT_name("CSL_UsbBoolean")
    9674                      .dwattr $C$DW$T$87, DW_AT_type(*$C$DW$T$86)
    9675                      .dwattr $C$DW$T$87, DW_AT_language(DW_LANG_C)
    9676              
    9677              $C$DW$T$21      .dwtag  DW_TAG_structure_type
    9678                      .dwattr $C$DW$T$21, DW_AT_name("CSL_MscClassStruct")
    9679                      .dwattr $C$DW$T$21, DW_AT_byte_size(0x220)
TMS320C55x Assembler PC v4.4.1 Tue Oct 02 02:33:20 2018

Tools Copyright (c) 1996-2012 Texas Instruments Incorporated
csl_msc.asm                                                          PAGE  236

    9680              $C$DW$664       .dwtag  DW_TAG_member
    9681                      .dwattr $C$DW$664, DW_AT_type(*$C$DW$T$19)
    9682                      .dwattr $C$DW$664, DW_AT_name("ctrlHandle")
    9683                      .dwattr $C$DW$664, DW_AT_TI_symbol_name("_ctrlHandle")
    9684                      .dwattr $C$DW$664, DW_AT_data_member_location[DW_OP_plus_uconst 0x0]
    9685                      .dwattr $C$DW$664, DW_AT_accessibility(DW_ACCESS_public)
    9686              $C$DW$665       .dwtag  DW_TAG_member
    9687                      .dwattr $C$DW$665, DW_AT_type(*$C$DW$T$20)
    9688                      .dwattr $C$DW$665, DW_AT_name("mscHandle")
    9689                      .dwattr $C$DW$665, DW_AT_TI_symbol_name("_mscHandle")
    9690                      .dwattr $C$DW$665, DW_AT_data_member_location[DW_OP_plus_uconst 0xb6]
    9691                      .dwattr $C$DW$665, DW_AT_accessibility(DW_ACCESS_public)
    9692                      .dwendtag $C$DW$T$21
    9693              
    9694              $C$DW$T$96      .dwtag  DW_TAG_typedef, DW_AT_name("CSL_MscClassStruct")
    9695                      .dwattr $C$DW$T$96, DW_AT_type(*$C$DW$T$21)
    9696                      .dwattr $C$DW$T$96, DW_AT_language(DW_LANG_C)
    9697              $C$DW$T$97      .dwtag  DW_TAG_pointer_type
    9698                      .dwattr $C$DW$T$97, DW_AT_type(*$C$DW$T$96)
    9699                      .dwattr $C$DW$T$97, DW_AT_address_class(0x17)
    9700              $C$DW$T$98      .dwtag  DW_TAG_typedef, DW_AT_name("pMscClassHandle")
    9701                      .dwattr $C$DW$T$98, DW_AT_type(*$C$DW$T$97)
    9702                      .dwattr $C$DW$T$98, DW_AT_language(DW_LANG_C)
    9703              
    9704              $C$DW$T$48      .dwtag  DW_TAG_structure_type
    9705                      .dwattr $C$DW$T$48, DW_AT_name("CSL_MscCtrlObject")
    9706                      .dwattr $C$DW$T$48, DW_AT_byte_size(0xb6)
    9707              $C$DW$666       .dwtag  DW_TAG_member
    9708                      .dwattr $C$DW$666, DW_AT_type(*$C$DW$T$22)
    9709                      .dwattr $C$DW$666, DW_AT_name("ctrlInEpObj")
    9710                      .dwattr $C$DW$666, DW_AT_TI_symbol_name("_ctrlInEpObj")
    9711                      .dwattr $C$DW$666, DW_AT_data_member_location[DW_OP_plus_uconst 0x0]
    9712                      .dwattr $C$DW$666, DW_AT_accessibility(DW_ACCESS_public)
    9713              $C$DW$667       .dwtag  DW_TAG_member
    9714                      .dwattr $C$DW$667, DW_AT_type(*$C$DW$T$24)
    9715                      .dwattr $C$DW$667, DW_AT_name("devNum")
    9716                      .dwattr $C$DW$667, DW_AT_TI_symbol_name("_devNum")
    9717                      .dwattr $C$DW$667, DW_AT_data_member_location[DW_OP_plus_uconst 0x14]
    9718                      .dwattr $C$DW$667, DW_AT_accessibility(DW_ACCESS_public)
    9719              $C$DW$668       .dwtag  DW_TAG_member
    9720                      .dwattr $C$DW$668, DW_AT_type(*$C$DW$T$22)
    9721                      .dwattr $C$DW$668, DW_AT_name("ctrlOutEpObj")
    9722                      .dwattr $C$DW$668, DW_AT_TI_symbol_name("_ctrlOutEpObj")
    9723                      .dwattr $C$DW$668, DW_AT_data_member_location[DW_OP_plus_uconst 0x16]
    9724                      .dwattr $C$DW$668, DW_AT_accessibility(DW_ACCESS_public)
    9725              $C$DW$669       .dwtag  DW_TAG_member
    9726                      .dwattr $C$DW$669, DW_AT_type(*$C$DW$T$25)
    9727                      .dwattr $C$DW$669, DW_AT_name("suspendFlag")
    9728                      .dwattr $C$DW$669, DW_AT_TI_symbol_name("_suspendFlag")
    9729                      .dwattr $C$DW$669, DW_AT_data_member_location[DW_OP_plus_uconst 0x2a]
    9730                      .dwattr $C$DW$669, DW_AT_accessibility(DW_ACCESS_public)
    9731              $C$DW$670       .dwtag  DW_TAG_member
    9732                      .dwattr $C$DW$670, DW_AT_type(*$C$DW$T$28)
    9733                      .dwattr $C$DW$670, DW_AT_name("hEpObjArray")
    9734                      .dwattr $C$DW$670, DW_AT_TI_symbol_name("_hEpObjArray")
TMS320C55x Assembler PC v4.4.1 Tue Oct 02 02:33:20 2018

Tools Copyright (c) 1996-2012 Texas Instruments Incorporated
csl_msc.asm                                                          PAGE  237

    9735                      .dwattr $C$DW$670, DW_AT_data_member_location[DW_OP_plus_uconst 0x2c]
    9736                      .dwattr $C$DW$670, DW_AT_accessibility(DW_ACCESS_public)
    9737              $C$DW$671       .dwtag  DW_TAG_member
    9738                      .dwattr $C$DW$671, DW_AT_type(*$C$DW$T$29)
    9739                      .dwattr $C$DW$671, DW_AT_name("usbSetup")
    9740                      .dwattr $C$DW$671, DW_AT_TI_symbol_name("_usbSetup")
    9741                      .dwattr $C$DW$671, DW_AT_data_member_location[DW_OP_plus_uconst 0x36]
    9742                      .dwattr $C$DW$671, DW_AT_accessibility(DW_ACCESS_public)
    9743              $C$DW$672       .dwtag  DW_TAG_member
    9744                      .dwattr $C$DW$672, DW_AT_type(*$C$DW$T$30)
    9745                      .dwattr $C$DW$672, DW_AT_name("highSpeedCfgDescr")
    9746                      .dwattr $C$DW$672, DW_AT_TI_symbol_name("_highSpeedCfgDescr")
    9747                      .dwattr $C$DW$672, DW_AT_data_member_location[DW_OP_plus_uconst 0x3c]
    9748                      .dwattr $C$DW$672, DW_AT_accessibility(DW_ACCESS_public)
    9749              $C$DW$673       .dwtag  DW_TAG_member
    9750                      .dwattr $C$DW$673, DW_AT_type(*$C$DW$T$30)
    9751                      .dwattr $C$DW$673, DW_AT_name("fullSpeedCfgDescr")
    9752                      .dwattr $C$DW$673, DW_AT_TI_symbol_name("_fullSpeedCfgDescr")
    9753                      .dwattr $C$DW$673, DW_AT_data_member_location[DW_OP_plus_uconst 0x4d]
    9754                      .dwattr $C$DW$673, DW_AT_accessibility(DW_ACCESS_public)
    9755              $C$DW$674       .dwtag  DW_TAG_member
    9756                      .dwattr $C$DW$674, DW_AT_type(*$C$DW$T$31)
    9757                      .dwattr $C$DW$674, DW_AT_name("deviceDescr")
    9758                      .dwattr $C$DW$674, DW_AT_TI_symbol_name("_deviceDescr")
    9759                      .dwattr $C$DW$674, DW_AT_data_member_location[DW_OP_plus_uconst 0x5e]
    9760                      .dwattr $C$DW$674, DW_AT_accessibility(DW_ACCESS_public)
    9761              $C$DW$675       .dwtag  DW_TAG_member
    9762                      .dwattr $C$DW$675, DW_AT_type(*$C$DW$T$32)
    9763                      .dwattr $C$DW$675, DW_AT_name("deviceQualDescr")
    9764                      .dwattr $C$DW$675, DW_AT_TI_symbol_name("_deviceQualDescr")
    9765                      .dwattr $C$DW$675, DW_AT_data_member_location[DW_OP_plus_uconst 0x68]
    9766                      .dwattr $C$DW$675, DW_AT_accessibility(DW_ACCESS_public)
    9767              $C$DW$676       .dwtag  DW_TAG_member
    9768                      .dwattr $C$DW$676, DW_AT_type(*$C$DW$T$32)
    9769                      .dwattr $C$DW$676, DW_AT_name("confDescr")
    9770                      .dwattr $C$DW$676, DW_AT_TI_symbol_name("_confDescr")
    9771                      .dwattr $C$DW$676, DW_AT_data_member_location[DW_OP_plus_uconst 0x6e]
    9772                      .dwattr $C$DW$676, DW_AT_accessibility(DW_ACCESS_public)
    9773              $C$DW$677       .dwtag  DW_TAG_member
    9774                      .dwattr $C$DW$677, DW_AT_type(*$C$DW$T$32)
    9775                      .dwattr $C$DW$677, DW_AT_name("massStorageIntDescr")
    9776                      .dwattr $C$DW$677, DW_AT_TI_symbol_name("_massStorageIntDescr")
    9777                      .dwattr $C$DW$677, DW_AT_data_member_location[DW_OP_plus_uconst 0x74]
    9778                      .dwattr $C$DW$677, DW_AT_accessibility(DW_ACCESS_public)
    9779              $C$DW$678       .dwtag  DW_TAG_member
    9780                      .dwattr $C$DW$678, DW_AT_type(*$C$DW$T$33)
    9781                      .dwattr $C$DW$678, DW_AT_name("massStorageBulkOutEndptDescr")
    9782                      .dwattr $C$DW$678, DW_AT_TI_symbol_name("_massStorageBulkOutEndptDescr")
    9783                      .dwattr $C$DW$678, DW_AT_data_member_location[DW_OP_plus_uconst 0x7a]
    9784                      .dwattr $C$DW$678, DW_AT_accessibility(DW_ACCESS_public)
    9785              $C$DW$679       .dwtag  DW_TAG_member
    9786                      .dwattr $C$DW$679, DW_AT_type(*$C$DW$T$34)
    9787                      .dwattr $C$DW$679, DW_AT_name("massStorageInterfcLnk")
    9788                      .dwattr $C$DW$679, DW_AT_TI_symbol_name("_massStorageInterfcLnk")
    9789                      .dwattr $C$DW$679, DW_AT_data_member_location[DW_OP_plus_uconst 0x80]
TMS320C55x Assembler PC v4.4.1 Tue Oct 02 02:33:20 2018

Tools Copyright (c) 1996-2012 Texas Instruments Incorporated
csl_msc.asm                                                          PAGE  238

    9790                      .dwattr $C$DW$679, DW_AT_accessibility(DW_ACCESS_public)
    9791              $C$DW$680       .dwtag  DW_TAG_member
    9792                      .dwattr $C$DW$680, DW_AT_type(*$C$DW$T$33)
    9793                      .dwattr $C$DW$680, DW_AT_name("massStorageBulkInEndptDescr")
    9794                      .dwattr $C$DW$680, DW_AT_TI_symbol_name("_massStorageBulkInEndptDescr")
    9795                      .dwattr $C$DW$680, DW_AT_data_member_location[DW_OP_plus_uconst 0x86]
    9796                      .dwattr $C$DW$680, DW_AT_accessibility(DW_ACCESS_public)
    9797              $C$DW$681       .dwtag  DW_TAG_member
    9798                      .dwattr $C$DW$681, DW_AT_type(*$C$DW$T$34)
    9799                      .dwattr $C$DW$681, DW_AT_name("massStorageBulkOutEndptLnk")
    9800                      .dwattr $C$DW$681, DW_AT_TI_symbol_name("_massStorageBulkOutEndptLnk")
    9801                      .dwattr $C$DW$681, DW_AT_data_member_location[DW_OP_plus_uconst 0x8c]
    9802                      .dwattr $C$DW$681, DW_AT_accessibility(DW_ACCESS_public)
    9803              $C$DW$682       .dwtag  DW_TAG_member
    9804                      .dwattr $C$DW$682, DW_AT_type(*$C$DW$T$35)
    9805                      .dwattr $C$DW$682, DW_AT_name("stringDescrLangid")
    9806                      .dwattr $C$DW$682, DW_AT_TI_symbol_name("_stringDescrLangid")
    9807                      .dwattr $C$DW$682, DW_AT_data_member_location[DW_OP_plus_uconst 0x92]
    9808                      .dwattr $C$DW$682, DW_AT_accessibility(DW_ACCESS_public)
    9809              $C$DW$683       .dwtag  DW_TAG_member
    9810                      .dwattr $C$DW$683, DW_AT_type(*$C$DW$T$25)
    9811                      .dwattr $C$DW$683, DW_AT_name("curConfigStat")
    9812                      .dwattr $C$DW$683, DW_AT_TI_symbol_name("_curConfigStat")
    9813                      .dwattr $C$DW$683, DW_AT_data_member_location[DW_OP_plus_uconst 0x96]
    9814                      .dwattr $C$DW$683, DW_AT_accessibility(DW_ACCESS_public)
    9815              $C$DW$684       .dwtag  DW_TAG_member
    9816                      .dwattr $C$DW$684, DW_AT_type(*$C$DW$T$34)
    9817                      .dwattr $C$DW$684, DW_AT_name("massStorageBulkInEndptLnk")
    9818                      .dwattr $C$DW$684, DW_AT_TI_symbol_name("_massStorageBulkInEndptLnk")
    9819                      .dwattr $C$DW$684, DW_AT_data_member_location[DW_OP_plus_uconst 0x98]
    9820                      .dwattr $C$DW$684, DW_AT_accessibility(DW_ACCESS_public)
    9821              $C$DW$685       .dwtag  DW_TAG_member
    9822                      .dwattr $C$DW$685, DW_AT_type(*$C$DW$T$33)
    9823                      .dwattr $C$DW$685, DW_AT_name("ctrlBuffer")
    9824                      .dwattr $C$DW$685, DW_AT_TI_symbol_name("_ctrlBuffer")
    9825                      .dwattr $C$DW$685, DW_AT_data_member_location[DW_OP_plus_uconst 0x9e]
    9826                      .dwattr $C$DW$685, DW_AT_accessibility(DW_ACCESS_public)
    9827              $C$DW$686       .dwtag  DW_TAG_member
    9828                      .dwattr $C$DW$686, DW_AT_type(*$C$DW$T$34)
    9829                      .dwattr $C$DW$686, DW_AT_name("configDescrLnk")
    9830                      .dwattr $C$DW$686, DW_AT_TI_symbol_name("_configDescrLnk")
    9831                      .dwattr $C$DW$686, DW_AT_data_member_location[DW_OP_plus_uconst 0xa4]
    9832                      .dwattr $C$DW$686, DW_AT_accessibility(DW_ACCESS_public)
    9833              $C$DW$687       .dwtag  DW_TAG_member
    9834                      .dwattr $C$DW$687, DW_AT_type(*$C$DW$T$38)
    9835                      .dwattr $C$DW$687, DW_AT_name("strDescr")
    9836                      .dwattr $C$DW$687, DW_AT_TI_symbol_name("_strDescr")
    9837                      .dwattr $C$DW$687, DW_AT_data_member_location[DW_OP_plus_uconst 0xaa]
    9838                      .dwattr $C$DW$687, DW_AT_accessibility(DW_ACCESS_public)
    9839              $C$DW$688       .dwtag  DW_TAG_member
    9840                      .dwattr $C$DW$688, DW_AT_type(*$C$DW$T$40)
    9841                      .dwattr $C$DW$688, DW_AT_name("mscReqTable")
    9842                      .dwattr $C$DW$688, DW_AT_TI_symbol_name("_mscReqTable")
    9843                      .dwattr $C$DW$688, DW_AT_data_member_location[DW_OP_plus_uconst 0xac]
    9844                      .dwattr $C$DW$688, DW_AT_accessibility(DW_ACCESS_public)
TMS320C55x Assembler PC v4.4.1 Tue Oct 02 02:33:20 2018

Tools Copyright (c) 1996-2012 Texas Instruments Incorporated
csl_msc.asm                                                          PAGE  239

    9845              $C$DW$689       .dwtag  DW_TAG_member
    9846                      .dwattr $C$DW$689, DW_AT_type(*$C$DW$T$45)
    9847                      .dwattr $C$DW$689, DW_AT_name("fpRequestHandler")
    9848                      .dwattr $C$DW$689, DW_AT_TI_symbol_name("_fpRequestHandler")
    9849                      .dwattr $C$DW$689, DW_AT_data_member_location[DW_OP_plus_uconst 0xae]
    9850                      .dwattr $C$DW$689, DW_AT_accessibility(DW_ACCESS_public)
    9851              $C$DW$690       .dwtag  DW_TAG_member
    9852                      .dwattr $C$DW$690, DW_AT_type(*$C$DW$T$46)
    9853                      .dwattr $C$DW$690, DW_AT_name("usbSpeedCfg")
    9854                      .dwattr $C$DW$690, DW_AT_TI_symbol_name("_usbSpeedCfg")
    9855                      .dwattr $C$DW$690, DW_AT_data_member_location[DW_OP_plus_uconst 0xb0]
    9856                      .dwattr $C$DW$690, DW_AT_accessibility(DW_ACCESS_public)
    9857              $C$DW$691       .dwtag  DW_TAG_member
    9858                      .dwattr $C$DW$691, DW_AT_type(*$C$DW$T$47)
    9859                      .dwattr $C$DW$691, DW_AT_name("pCfgDescr")
    9860                      .dwattr $C$DW$691, DW_AT_TI_symbol_name("_pCfgDescr")
    9861                      .dwattr $C$DW$691, DW_AT_data_member_location[DW_OP_plus_uconst 0xb2]
    9862                      .dwattr $C$DW$691, DW_AT_accessibility(DW_ACCESS_public)
    9863              $C$DW$692       .dwtag  DW_TAG_member
    9864                      .dwattr $C$DW$692, DW_AT_type(*$C$DW$T$47)
    9865                      .dwattr $C$DW$692, DW_AT_name("pOtherSpeedCfgDescr")
    9866                      .dwattr $C$DW$692, DW_AT_TI_symbol_name("_pOtherSpeedCfgDescr")
    9867                      .dwattr $C$DW$692, DW_AT_data_member_location[DW_OP_plus_uconst 0xb4]
    9868                      .dwattr $C$DW$692, DW_AT_accessibility(DW_ACCESS_public)
    9869                      .dwendtag $C$DW$T$48
    9870              
    9871              $C$DW$T$19      .dwtag  DW_TAG_typedef, DW_AT_name("CSL_MscCtrlObject")
    9872                      .dwattr $C$DW$T$19, DW_AT_type(*$C$DW$T$48)
    9873                      .dwattr $C$DW$T$19, DW_AT_language(DW_LANG_C)
    9874              $C$DW$T$99      .dwtag  DW_TAG_pointer_type
    9875                      .dwattr $C$DW$T$99, DW_AT_type(*$C$DW$T$19)
    9876                      .dwattr $C$DW$T$99, DW_AT_address_class(0x17)
    9877              
    9878              $C$DW$T$64      .dwtag  DW_TAG_structure_type
    9879                      .dwattr $C$DW$T$64, DW_AT_name("CSL_MscInitStructApp")
    9880                      .dwattr $C$DW$T$64, DW_AT_byte_size(0x1e)
    9881              $C$DW$693       .dwtag  DW_TAG_member
    9882                      .dwattr $C$DW$693, DW_AT_type(*$C$DW$T$3)
    9883                      .dwattr $C$DW$693, DW_AT_name("pMscObj")
    9884                      .dwattr $C$DW$693, DW_AT_TI_symbol_name("_pMscObj")
    9885                      .dwattr $C$DW$693, DW_AT_data_member_location[DW_OP_plus_uconst 0x0]
    9886                      .dwattr $C$DW$693, DW_AT_accessibility(DW_ACCESS_public)
    9887              $C$DW$694       .dwtag  DW_TAG_member
    9888                      .dwattr $C$DW$694, DW_AT_type(*$C$DW$T$25)
    9889                      .dwattr $C$DW$694, DW_AT_name("pId")
    9890                      .dwattr $C$DW$694, DW_AT_TI_symbol_name("_pId")
    9891                      .dwattr $C$DW$694, DW_AT_data_member_location[DW_OP_plus_uconst 0x2]
    9892                      .dwattr $C$DW$694, DW_AT_accessibility(DW_ACCESS_public)
    9893              $C$DW$695       .dwtag  DW_TAG_member
    9894                      .dwattr $C$DW$695, DW_AT_type(*$C$DW$T$25)
    9895                      .dwattr $C$DW$695, DW_AT_name("vId")
    9896                      .dwattr $C$DW$695, DW_AT_TI_symbol_name("_vId")
    9897                      .dwattr $C$DW$695, DW_AT_data_member_location[DW_OP_plus_uconst 0x3]
    9898                      .dwattr $C$DW$695, DW_AT_accessibility(DW_ACCESS_public)
    9899              $C$DW$696       .dwtag  DW_TAG_member
TMS320C55x Assembler PC v4.4.1 Tue Oct 02 02:33:20 2018

Tools Copyright (c) 1996-2012 Texas Instruments Incorporated
csl_msc.asm                                                          PAGE  240

    9900                      .dwattr $C$DW$696, DW_AT_type(*$C$DW$T$25)
    9901                      .dwattr $C$DW$696, DW_AT_name("numLun")
    9902                      .dwattr $C$DW$696, DW_AT_TI_symbol_name("_numLun")
    9903                      .dwattr $C$DW$696, DW_AT_data_member_location[DW_OP_plus_uconst 0x4]
    9904                      .dwattr $C$DW$696, DW_AT_accessibility(DW_ACCESS_public)
    9905              $C$DW$697       .dwtag  DW_TAG_member
    9906                      .dwattr $C$DW$697, DW_AT_type(*$C$DW$T$38)
    9907                      .dwattr $C$DW$697, DW_AT_name("strDescrApp")
    9908                      .dwattr $C$DW$697, DW_AT_TI_symbol_name("_strDescrApp")
    9909                      .dwattr $C$DW$697, DW_AT_data_member_location[DW_OP_plus_uconst 0x6]
    9910                      .dwattr $C$DW$697, DW_AT_accessibility(DW_ACCESS_public)
    9911              $C$DW$698       .dwtag  DW_TAG_member
    9912                      .dwattr $C$DW$698, DW_AT_type(*$C$DW$T$47)
    9913                      .dwattr $C$DW$698, DW_AT_name("lbaBufferApp")
    9914                      .dwattr $C$DW$698, DW_AT_TI_symbol_name("_lbaBufferApp")
    9915                      .dwattr $C$DW$698, DW_AT_data_member_location[DW_OP_plus_uconst 0x8]
    9916                      .dwattr $C$DW$698, DW_AT_accessibility(DW_ACCESS_public)
    9917              $C$DW$699       .dwtag  DW_TAG_member
    9918                      .dwattr $C$DW$699, DW_AT_type(*$C$DW$T$40)
    9919                      .dwattr $C$DW$699, DW_AT_name("mscReqTableApp")
    9920                      .dwattr $C$DW$699, DW_AT_TI_symbol_name("_mscReqTableApp")
    9921                      .dwattr $C$DW$699, DW_AT_data_member_location[DW_OP_plus_uconst 0xa]
    9922                      .dwattr $C$DW$699, DW_AT_accessibility(DW_ACCESS_public)
    9923              $C$DW$700       .dwtag  DW_TAG_member
    9924                      .dwattr $C$DW$700, DW_AT_type(*$C$DW$T$50)
    9925                      .dwattr $C$DW$700, DW_AT_name("bulkHandler")
    9926                      .dwattr $C$DW$700, DW_AT_TI_symbol_name("_bulkHandler")
    9927                      .dwattr $C$DW$700, DW_AT_data_member_location[DW_OP_plus_uconst 0xc]
    9928                      .dwattr $C$DW$700, DW_AT_accessibility(DW_ACCESS_public)
    9929              $C$DW$701       .dwtag  DW_TAG_member
    9930                      .dwattr $C$DW$701, DW_AT_type(*$C$DW$T$50)
    9931                      .dwattr $C$DW$701, DW_AT_name("ctrlHandler")
    9932                      .dwattr $C$DW$701, DW_AT_TI_symbol_name("_ctrlHandler")
    9933                      .dwattr $C$DW$701, DW_AT_data_member_location[DW_OP_plus_uconst 0xe]
    9934                      .dwattr $C$DW$701, DW_AT_accessibility(DW_ACCESS_public)
    9935              $C$DW$702       .dwtag  DW_TAG_member
    9936                      .dwattr $C$DW$702, DW_AT_type(*$C$DW$T$55)
    9937                      .dwattr $C$DW$702, DW_AT_name("readMediaApp")
    9938                      .dwattr $C$DW$702, DW_AT_TI_symbol_name("_readMediaApp")
    9939                      .dwattr $C$DW$702, DW_AT_data_member_location[DW_OP_plus_uconst 0x10]
    9940                      .dwattr $C$DW$702, DW_AT_accessibility(DW_ACCESS_public)
    9941              $C$DW$703       .dwtag  DW_TAG_member
    9942                      .dwattr $C$DW$703, DW_AT_type(*$C$DW$T$55)
    9943                      .dwattr $C$DW$703, DW_AT_name("writeMediaApp")
    9944                      .dwattr $C$DW$703, DW_AT_TI_symbol_name("_writeMediaApp")
    9945                      .dwattr $C$DW$703, DW_AT_data_member_location[DW_OP_plus_uconst 0x12]
    9946                      .dwattr $C$DW$703, DW_AT_accessibility(DW_ACCESS_public)
    9947              $C$DW$704       .dwtag  DW_TAG_member
    9948                      .dwattr $C$DW$704, DW_AT_type(*$C$DW$T$57)
    9949                      .dwattr $C$DW$704, DW_AT_name("mediaGetPresentStateApp")
    9950                      .dwattr $C$DW$704, DW_AT_TI_symbol_name("_mediaGetPresentStateApp")
    9951                      .dwattr $C$DW$704, DW_AT_data_member_location[DW_OP_plus_uconst 0x14]
    9952                      .dwattr $C$DW$704, DW_AT_accessibility(DW_ACCESS_public)
    9953              $C$DW$705       .dwtag  DW_TAG_member
    9954                      .dwattr $C$DW$705, DW_AT_type(*$C$DW$T$57)
TMS320C55x Assembler PC v4.4.1 Tue Oct 02 02:33:20 2018

Tools Copyright (c) 1996-2012 Texas Instruments Incorporated
csl_msc.asm                                                          PAGE  241

    9955                      .dwattr $C$DW$705, DW_AT_name("mediaInitApp")
    9956                      .dwattr $C$DW$705, DW_AT_TI_symbol_name("_mediaInitApp")
    9957                      .dwattr $C$DW$705, DW_AT_data_member_location[DW_OP_plus_uconst 0x16]
    9958                      .dwattr $C$DW$705, DW_AT_accessibility(DW_ACCESS_public)
    9959              $C$DW$706       .dwtag  DW_TAG_member
    9960                      .dwattr $C$DW$706, DW_AT_type(*$C$DW$T$57)
    9961                      .dwattr $C$DW$706, DW_AT_name("mediaEjectApp")
    9962                      .dwattr $C$DW$706, DW_AT_TI_symbol_name("_mediaEjectApp")
    9963                      .dwattr $C$DW$706, DW_AT_data_member_location[DW_OP_plus_uconst 0x18]
    9964                      .dwattr $C$DW$706, DW_AT_accessibility(DW_ACCESS_public)
    9965              $C$DW$707       .dwtag  DW_TAG_member
    9966                      .dwattr $C$DW$707, DW_AT_type(*$C$DW$T$61)
    9967                      .dwattr $C$DW$707, DW_AT_name("mediaLockUnitApp")
    9968                      .dwattr $C$DW$707, DW_AT_TI_symbol_name("_mediaLockUnitApp")
    9969                      .dwattr $C$DW$707, DW_AT_data_member_location[DW_OP_plus_uconst 0x1a]
    9970                      .dwattr $C$DW$707, DW_AT_accessibility(DW_ACCESS_public)
    9971              $C$DW$708       .dwtag  DW_TAG_member
    9972                      .dwattr $C$DW$708, DW_AT_type(*$C$DW$T$63)
    9973                      .dwattr $C$DW$708, DW_AT_name("getMediaSizeApp")
    9974                      .dwattr $C$DW$708, DW_AT_TI_symbol_name("_getMediaSizeApp")
    9975                      .dwattr $C$DW$708, DW_AT_data_member_location[DW_OP_plus_uconst 0x1c]
    9976                      .dwattr $C$DW$708, DW_AT_accessibility(DW_ACCESS_public)
    9977                      .dwendtag $C$DW$T$64
    9978              
    9979              $C$DW$T$100     .dwtag  DW_TAG_typedef, DW_AT_name("CSL_MscInitStructApp")
    9980                      .dwattr $C$DW$T$100, DW_AT_type(*$C$DW$T$64)
    9981                      .dwattr $C$DW$T$100, DW_AT_language(DW_LANG_C)
    9982              $C$DW$T$101     .dwtag  DW_TAG_pointer_type
    9983                      .dwattr $C$DW$T$101, DW_AT_type(*$C$DW$T$100)
    9984                      .dwattr $C$DW$T$101, DW_AT_address_class(0x17)
    9985              $C$DW$T$102     .dwtag  DW_TAG_typedef, DW_AT_name("pMscAppClassHandle")
    9986                      .dwattr $C$DW$T$102, DW_AT_type(*$C$DW$T$101)
    9987                      .dwattr $C$DW$T$102, DW_AT_language(DW_LANG_C)
    9988              
    9989              $C$DW$T$66      .dwtag  DW_TAG_structure_type
    9990                      .dwattr $C$DW$T$66, DW_AT_name("CSL_MscLogicalUnit")
    9991                      .dwattr $C$DW$T$66, DW_AT_byte_size(0x3e)
    9992              $C$DW$709       .dwtag  DW_TAG_member
    9993                      .dwattr $C$DW$709, DW_AT_type(*$C$DW$T$65)
    9994                      .dwattr $C$DW$709, DW_AT_name("scsiInquiryData")
    9995                      .dwattr $C$DW$709, DW_AT_TI_symbol_name("_scsiInquiryData")
    9996                      .dwattr $C$DW$709, DW_AT_data_member_location[DW_OP_plus_uconst 0x0]
    9997                      .dwattr $C$DW$709, DW_AT_accessibility(DW_ACCESS_public)
    9998              $C$DW$710       .dwtag  DW_TAG_member
    9999                      .dwattr $C$DW$710, DW_AT_type(*$C$DW$T$53)
   10000                      .dwattr $C$DW$710, DW_AT_name("mediaSize")
   10001                      .dwattr $C$DW$710, DW_AT_TI_symbol_name("_mediaSize")
   10002                      .dwattr $C$DW$710, DW_AT_data_member_location[DW_OP_plus_uconst 0x32]
   10003                      .dwattr $C$DW$710, DW_AT_accessibility(DW_ACCESS_public)
   10004              $C$DW$711       .dwtag  DW_TAG_member
   10005                      .dwattr $C$DW$711, DW_AT_type(*$C$DW$T$53)
   10006                      .dwattr $C$DW$711, DW_AT_name("currLba")
   10007                      .dwattr $C$DW$711, DW_AT_TI_symbol_name("_currLba")
   10008                      .dwattr $C$DW$711, DW_AT_data_member_location[DW_OP_plus_uconst 0x34]
   10009                      .dwattr $C$DW$711, DW_AT_accessibility(DW_ACCESS_public)
TMS320C55x Assembler PC v4.4.1 Tue Oct 02 02:33:20 2018

Tools Copyright (c) 1996-2012 Texas Instruments Incorporated
csl_msc.asm                                                          PAGE  242

   10010              $C$DW$712       .dwtag  DW_TAG_member
   10011                      .dwattr $C$DW$712, DW_AT_type(*$C$DW$T$53)
   10012                      .dwattr $C$DW$712, DW_AT_name("lbaSize")
   10013                      .dwattr $C$DW$712, DW_AT_TI_symbol_name("_lbaSize")
   10014                      .dwattr $C$DW$712, DW_AT_data_member_location[DW_OP_plus_uconst 0x36]
   10015                      .dwattr $C$DW$712, DW_AT_accessibility(DW_ACCESS_public)
   10016              $C$DW$713       .dwtag  DW_TAG_member
   10017                      .dwattr $C$DW$713, DW_AT_type(*$C$DW$T$25)
   10018                      .dwattr $C$DW$713, DW_AT_name("removeable")
   10019                      .dwattr $C$DW$713, DW_AT_TI_symbol_name("_removeable")
   10020                      .dwattr $C$DW$713, DW_AT_data_member_location[DW_OP_plus_uconst 0x38]
   10021                      .dwattr $C$DW$713, DW_AT_accessibility(DW_ACCESS_public)
   10022              $C$DW$714       .dwtag  DW_TAG_member
   10023                      .dwattr $C$DW$714, DW_AT_type(*$C$DW$T$25)
   10024                      .dwattr $C$DW$714, DW_AT_name("mediaState")
   10025                      .dwattr $C$DW$714, DW_AT_TI_symbol_name("_mediaState")
   10026                      .dwattr $C$DW$714, DW_AT_data_member_location[DW_OP_plus_uconst 0x39]
   10027                      .dwattr $C$DW$714, DW_AT_accessibility(DW_ACCESS_public)
   10028              $C$DW$715       .dwtag  DW_TAG_member
   10029                      .dwattr $C$DW$715, DW_AT_type(*$C$DW$T$25)
   10030                      .dwattr $C$DW$715, DW_AT_name("readwrite")
   10031                      .dwattr $C$DW$715, DW_AT_TI_symbol_name("_readwrite")
   10032                      .dwattr $C$DW$715, DW_AT_data_member_location[DW_OP_plus_uconst 0x3a]
   10033                      .dwattr $C$DW$715, DW_AT_accessibility(DW_ACCESS_public)
   10034              $C$DW$716       .dwtag  DW_TAG_member
   10035                      .dwattr $C$DW$716, DW_AT_type(*$C$DW$T$25)
   10036                      .dwattr $C$DW$716, DW_AT_name("lbaCnt")
   10037                      .dwattr $C$DW$716, DW_AT_TI_symbol_name("_lbaCnt")
   10038                      .dwattr $C$DW$716, DW_AT_data_member_location[DW_OP_plus_uconst 0x3b]
   10039                      .dwattr $C$DW$716, DW_AT_accessibility(DW_ACCESS_public)
   10040              $C$DW$717       .dwtag  DW_TAG_member
   10041                      .dwattr $C$DW$717, DW_AT_type(*$C$DW$T$25)
   10042                      .dwattr $C$DW$717, DW_AT_name("verifyFlag")
   10043                      .dwattr $C$DW$717, DW_AT_TI_symbol_name("_verifyFlag")
   10044                      .dwattr $C$DW$717, DW_AT_data_member_location[DW_OP_plus_uconst 0x3c]
   10045                      .dwattr $C$DW$717, DW_AT_accessibility(DW_ACCESS_public)
   10046                      .dwendtag $C$DW$T$66
   10047              
   10048              $C$DW$T$69      .dwtag  DW_TAG_typedef, DW_AT_name("CSL_MscLogicalUnit")
   10049                      .dwattr $C$DW$T$69, DW_AT_type(*$C$DW$T$66)
   10050                      .dwattr $C$DW$T$69, DW_AT_language(DW_LANG_C)
   10051              
   10052              $C$DW$T$70      .dwtag  DW_TAG_array_type
   10053                      .dwattr $C$DW$T$70, DW_AT_type(*$C$DW$T$69)
   10054                      .dwattr $C$DW$T$70, DW_AT_language(DW_LANG_C)
   10055                      .dwattr $C$DW$T$70, DW_AT_byte_size(0xf8)
   10056              $C$DW$718       .dwtag  DW_TAG_subrange_type
   10057                      .dwattr $C$DW$718, DW_AT_upper_bound(0x03)
   10058                      .dwendtag $C$DW$T$70
   10059              
   10060              
   10061              $C$DW$T$68      .dwtag  DW_TAG_structure_type
   10062                      .dwattr $C$DW$T$68, DW_AT_name("CSL_MscLunAttribApp")
   10063                      .dwattr $C$DW$T$68, DW_AT_byte_size(0x20)
   10064              $C$DW$719       .dwtag  DW_TAG_member
TMS320C55x Assembler PC v4.4.1 Tue Oct 02 02:33:20 2018

Tools Copyright (c) 1996-2012 Texas Instruments Incorporated
csl_msc.asm                                                          PAGE  243

   10065                      .dwattr $C$DW$719, DW_AT_type(*$C$DW$T$53)
   10066                      .dwattr $C$DW$719, DW_AT_name("lbaSizeApp")
   10067                      .dwattr $C$DW$719, DW_AT_TI_symbol_name("_lbaSizeApp")
   10068                      .dwattr $C$DW$719, DW_AT_data_member_location[DW_OP_plus_uconst 0x0]
   10069                      .dwattr $C$DW$719, DW_AT_accessibility(DW_ACCESS_public)
   10070              $C$DW$720       .dwtag  DW_TAG_member
   10071                      .dwattr $C$DW$720, DW_AT_type(*$C$DW$T$53)
   10072                      .dwattr $C$DW$720, DW_AT_name("mediaSizeApp")
   10073                      .dwattr $C$DW$720, DW_AT_TI_symbol_name("_mediaSizeApp")
   10074                      .dwattr $C$DW$720, DW_AT_data_member_location[DW_OP_plus_uconst 0x2]
   10075                      .dwattr $C$DW$720, DW_AT_accessibility(DW_ACCESS_public)
   10076              $C$DW$721       .dwtag  DW_TAG_member
   10077                      .dwattr $C$DW$721, DW_AT_type(*$C$DW$T$25)
   10078                      .dwattr $C$DW$721, DW_AT_name("removeableApp")
   10079                      .dwattr $C$DW$721, DW_AT_TI_symbol_name("_removeableApp")
   10080                      .dwattr $C$DW$721, DW_AT_data_member_location[DW_OP_plus_uconst 0x4]
   10081                      .dwattr $C$DW$721, DW_AT_accessibility(DW_ACCESS_public)
   10082              $C$DW$722       .dwtag  DW_TAG_member
   10083                      .dwattr $C$DW$722, DW_AT_type(*$C$DW$T$67)
   10084                      .dwattr $C$DW$722, DW_AT_name("scsiInquiryConfData")
   10085                      .dwattr $C$DW$722, DW_AT_TI_symbol_name("_scsiInquiryConfData")
   10086                      .dwattr $C$DW$722, DW_AT_data_member_location[DW_OP_plus_uconst 0x5]
   10087                      .dwattr $C$DW$722, DW_AT_accessibility(DW_ACCESS_public)
   10088              $C$DW$723       .dwtag  DW_TAG_member
   10089                      .dwattr $C$DW$723, DW_AT_type(*$C$DW$T$25)
   10090                      .dwattr $C$DW$723, DW_AT_name("mediaStateApp")
   10091                      .dwattr $C$DW$723, DW_AT_TI_symbol_name("_mediaStateApp")
   10092                      .dwattr $C$DW$723, DW_AT_data_member_location[DW_OP_plus_uconst 0x1d]
   10093                      .dwattr $C$DW$723, DW_AT_accessibility(DW_ACCESS_public)
   10094              $C$DW$724       .dwtag  DW_TAG_member
   10095                      .dwattr $C$DW$724, DW_AT_type(*$C$DW$T$25)
   10096                      .dwattr $C$DW$724, DW_AT_name("readwriteApp")
   10097                      .dwattr $C$DW$724, DW_AT_TI_symbol_name("_readwriteApp")
   10098                      .dwattr $C$DW$724, DW_AT_data_member_location[DW_OP_plus_uconst 0x1e]
   10099                      .dwattr $C$DW$724, DW_AT_accessibility(DW_ACCESS_public)
   10100                      .dwendtag $C$DW$T$68
   10101              
   10102              $C$DW$T$105     .dwtag  DW_TAG_typedef, DW_AT_name("CSL_MscLunAttribApp")
   10103                      .dwattr $C$DW$T$105, DW_AT_type(*$C$DW$T$68)
   10104                      .dwattr $C$DW$T$105, DW_AT_language(DW_LANG_C)
   10105              $C$DW$T$106     .dwtag  DW_TAG_pointer_type
   10106                      .dwattr $C$DW$T$106, DW_AT_type(*$C$DW$T$105)
   10107                      .dwattr $C$DW$T$106, DW_AT_address_class(0x17)
   10108              
   10109              $C$DW$T$73      .dwtag  DW_TAG_structure_type
   10110                      .dwattr $C$DW$T$73, DW_AT_name("CSL_MscObject")
   10111                      .dwattr $C$DW$T$73, DW_AT_byte_size(0x16a)
   10112              $C$DW$725       .dwtag  DW_TAG_member
   10113                      .dwattr $C$DW$725, DW_AT_type(*$C$DW$T$55)
   10114                      .dwattr $C$DW$725, DW_AT_name("readMedia")
   10115                      .dwattr $C$DW$725, DW_AT_TI_symbol_name("_readMedia")
   10116                      .dwattr $C$DW$725, DW_AT_data_member_location[DW_OP_plus_uconst 0x0]
   10117                      .dwattr $C$DW$725, DW_AT_accessibility(DW_ACCESS_public)
   10118              $C$DW$726       .dwtag  DW_TAG_member
   10119                      .dwattr $C$DW$726, DW_AT_type(*$C$DW$T$55)
TMS320C55x Assembler PC v4.4.1 Tue Oct 02 02:33:20 2018

Tools Copyright (c) 1996-2012 Texas Instruments Incorporated
csl_msc.asm                                                          PAGE  244

   10120                      .dwattr $C$DW$726, DW_AT_name("writeMedia")
   10121                      .dwattr $C$DW$726, DW_AT_TI_symbol_name("_writeMedia")
   10122                      .dwattr $C$DW$726, DW_AT_data_member_location[DW_OP_plus_uconst 0x2]
   10123                      .dwattr $C$DW$726, DW_AT_accessibility(DW_ACCESS_public)
   10124              $C$DW$727       .dwtag  DW_TAG_member
   10125                      .dwattr $C$DW$727, DW_AT_type(*$C$DW$T$57)
   10126                      .dwattr $C$DW$727, DW_AT_name("mediaGetPresentState")
   10127                      .dwattr $C$DW$727, DW_AT_TI_symbol_name("_mediaGetPresentState")
   10128                      .dwattr $C$DW$727, DW_AT_data_member_location[DW_OP_plus_uconst 0x4]
   10129                      .dwattr $C$DW$727, DW_AT_accessibility(DW_ACCESS_public)
   10130              $C$DW$728       .dwtag  DW_TAG_member
   10131                      .dwattr $C$DW$728, DW_AT_type(*$C$DW$T$57)
   10132                      .dwattr $C$DW$728, DW_AT_name("mediaInit")
   10133                      .dwattr $C$DW$728, DW_AT_TI_symbol_name("_mediaInit")
   10134                      .dwattr $C$DW$728, DW_AT_data_member_location[DW_OP_plus_uconst 0x6]
   10135                      .dwattr $C$DW$728, DW_AT_accessibility(DW_ACCESS_public)
   10136              $C$DW$729       .dwtag  DW_TAG_member
   10137                      .dwattr $C$DW$729, DW_AT_type(*$C$DW$T$57)
   10138                      .dwattr $C$DW$729, DW_AT_name("mediaEject")
   10139                      .dwattr $C$DW$729, DW_AT_TI_symbol_name("_mediaEject")
   10140                      .dwattr $C$DW$729, DW_AT_data_member_location[DW_OP_plus_uconst 0x8]
   10141                      .dwattr $C$DW$729, DW_AT_accessibility(DW_ACCESS_public)
   10142              $C$DW$730       .dwtag  DW_TAG_member
   10143                      .dwattr $C$DW$730, DW_AT_type(*$C$DW$T$61)
   10144                      .dwattr $C$DW$730, DW_AT_name("mediaLockUnit")
   10145                      .dwattr $C$DW$730, DW_AT_TI_symbol_name("_mediaLockUnit")
   10146                      .dwattr $C$DW$730, DW_AT_data_member_location[DW_OP_plus_uconst 0xa]
   10147                      .dwattr $C$DW$730, DW_AT_accessibility(DW_ACCESS_public)
   10148              $C$DW$731       .dwtag  DW_TAG_member
   10149                      .dwattr $C$DW$731, DW_AT_type(*$C$DW$T$63)
   10150                      .dwattr $C$DW$731, DW_AT_name("getMediaSize")
   10151                      .dwattr $C$DW$731, DW_AT_TI_symbol_name("_getMediaSize")
   10152                      .dwattr $C$DW$731, DW_AT_data_member_location[DW_OP_plus_uconst 0xc]
   10153                      .dwattr $C$DW$731, DW_AT_accessibility(DW_ACCESS_public)
   10154              $C$DW$732       .dwtag  DW_TAG_member
   10155                      .dwattr $C$DW$732, DW_AT_type(*$C$DW$T$47)
   10156                      .dwattr $C$DW$732, DW_AT_name("lbaBuffer")
   10157                      .dwattr $C$DW$732, DW_AT_TI_symbol_name("_lbaBuffer")
   10158                      .dwattr $C$DW$732, DW_AT_data_member_location[DW_OP_plus_uconst 0xe]
   10159                      .dwattr $C$DW$732, DW_AT_accessibility(DW_ACCESS_public)
   10160              $C$DW$733       .dwtag  DW_TAG_member
   10161                      .dwattr $C$DW$733, DW_AT_type(*$C$DW$T$53)
   10162                      .dwattr $C$DW$733, DW_AT_name("cbwDataTransferLength")
   10163                      .dwattr $C$DW$733, DW_AT_TI_symbol_name("_cbwDataTransferLength")
   10164                      .dwattr $C$DW$733, DW_AT_data_member_location[DW_OP_plus_uconst 0x10]
   10165                      .dwattr $C$DW$733, DW_AT_accessibility(DW_ACCESS_public)
   10166              $C$DW$734       .dwtag  DW_TAG_member
   10167                      .dwattr $C$DW$734, DW_AT_type(*$C$DW$T$70)
   10168                      .dwattr $C$DW$734, DW_AT_name("lun")
   10169                      .dwattr $C$DW$734, DW_AT_TI_symbol_name("_lun")
   10170                      .dwattr $C$DW$734, DW_AT_data_member_location[DW_OP_plus_uconst 0x12]
   10171                      .dwattr $C$DW$734, DW_AT_accessibility(DW_ACCESS_public)
   10172              $C$DW$735       .dwtag  DW_TAG_member
   10173                      .dwattr $C$DW$735, DW_AT_type(*$C$DW$T$71)
   10174                      .dwattr $C$DW$735, DW_AT_name("senseData")
TMS320C55x Assembler PC v4.4.1 Tue Oct 02 02:33:20 2018

Tools Copyright (c) 1996-2012 Texas Instruments Incorporated
csl_msc.asm                                                          PAGE  245

   10175                      .dwattr $C$DW$735, DW_AT_TI_symbol_name("_senseData")
   10176                      .dwattr $C$DW$735, DW_AT_data_member_location[DW_OP_plus_uconst 0x10a]
   10177                      .dwattr $C$DW$735, DW_AT_accessibility(DW_ACCESS_public)
   10178              $C$DW$736       .dwtag  DW_TAG_member
   10179                      .dwattr $C$DW$736, DW_AT_type(*$C$DW$T$25)
   10180                      .dwattr $C$DW$736, DW_AT_name("activityPresentFlag")
   10181                      .dwattr $C$DW$736, DW_AT_TI_symbol_name("_activityPresentFlag")
   10182                      .dwattr $C$DW$736, DW_AT_data_member_location[DW_OP_plus_uconst 0x119]
   10183                      .dwattr $C$DW$736, DW_AT_accessibility(DW_ACCESS_public)
   10184              $C$DW$737       .dwtag  DW_TAG_member
   10185                      .dwattr $C$DW$737, DW_AT_type(*$C$DW$T$72)
   10186                      .dwattr $C$DW$737, DW_AT_name("csw")
   10187                      .dwattr $C$DW$737, DW_AT_TI_symbol_name("_csw")
   10188                      .dwattr $C$DW$737, DW_AT_data_member_location[DW_OP_plus_uconst 0x11a]
   10189                      .dwattr $C$DW$737, DW_AT_accessibility(DW_ACCESS_public)
   10190              $C$DW$738       .dwtag  DW_TAG_member
   10191                      .dwattr $C$DW$738, DW_AT_type(*$C$DW$T$32)
   10192                      .dwattr $C$DW$738, DW_AT_name("readCapacity")
   10193                      .dwattr $C$DW$738, DW_AT_TI_symbol_name("_readCapacity")
   10194                      .dwattr $C$DW$738, DW_AT_data_member_location[DW_OP_plus_uconst 0x122]
   10195                      .dwattr $C$DW$738, DW_AT_accessibility(DW_ACCESS_public)
   10196              $C$DW$739       .dwtag  DW_TAG_member
   10197                      .dwattr $C$DW$739, DW_AT_type(*$C$DW$T$30)
   10198                      .dwattr $C$DW$739, DW_AT_name("cbw")
   10199                      .dwattr $C$DW$739, DW_AT_TI_symbol_name("_cbw")
   10200                      .dwattr $C$DW$739, DW_AT_data_member_location[DW_OP_plus_uconst 0x128]
   10201                      .dwattr $C$DW$739, DW_AT_accessibility(DW_ACCESS_public)
   10202              $C$DW$740       .dwtag  DW_TAG_member
   10203                      .dwattr $C$DW$740, DW_AT_type(*$C$DW$T$22)
   10204                      .dwattr $C$DW$740, DW_AT_name("bulkInEpObj")
   10205                      .dwattr $C$DW$740, DW_AT_TI_symbol_name("_bulkInEpObj")
   10206                      .dwattr $C$DW$740, DW_AT_data_member_location[DW_OP_plus_uconst 0x13a]
   10207                      .dwattr $C$DW$740, DW_AT_accessibility(DW_ACCESS_public)
   10208              $C$DW$741       .dwtag  DW_TAG_member
   10209                      .dwattr $C$DW$741, DW_AT_type(*$C$DW$T$22)
   10210                      .dwattr $C$DW$741, DW_AT_name("bulkOutEpObj")
   10211                      .dwattr $C$DW$741, DW_AT_TI_symbol_name("_bulkOutEpObj")
   10212                      .dwattr $C$DW$741, DW_AT_data_member_location[DW_OP_plus_uconst 0x14e]
   10213                      .dwattr $C$DW$741, DW_AT_accessibility(DW_ACCESS_public)
   10214              $C$DW$742       .dwtag  DW_TAG_member
   10215                      .dwattr $C$DW$742, DW_AT_type(*$C$DW$T$25)
   10216                      .dwattr $C$DW$742, DW_AT_name("noOfLun")
   10217                      .dwattr $C$DW$742, DW_AT_TI_symbol_name("_noOfLun")
   10218                      .dwattr $C$DW$742, DW_AT_data_member_location[DW_OP_plus_uconst 0x162]
   10219                      .dwattr $C$DW$742, DW_AT_accessibility(DW_ACCESS_public)
   10220              $C$DW$743       .dwtag  DW_TAG_member
   10221                      .dwattr $C$DW$743, DW_AT_type(*$C$DW$T$25)
   10222                      .dwattr $C$DW$743, DW_AT_name("storageState")
   10223                      .dwattr $C$DW$743, DW_AT_TI_symbol_name("_storageState")
   10224                      .dwattr $C$DW$743, DW_AT_data_member_location[DW_OP_plus_uconst 0x163]
   10225                      .dwattr $C$DW$743, DW_AT_accessibility(DW_ACCESS_public)
   10226              $C$DW$744       .dwtag  DW_TAG_member
   10227                      .dwattr $C$DW$744, DW_AT_type(*$C$DW$T$33)
   10228                      .dwattr $C$DW$744, DW_AT_name("modeSenseData")
   10229                      .dwattr $C$DW$744, DW_AT_TI_symbol_name("_modeSenseData")
TMS320C55x Assembler PC v4.4.1 Tue Oct 02 02:33:20 2018

Tools Copyright (c) 1996-2012 Texas Instruments Incorporated
csl_msc.asm                                                          PAGE  246

   10230                      .dwattr $C$DW$744, DW_AT_data_member_location[DW_OP_plus_uconst 0x164]
   10231                      .dwattr $C$DW$744, DW_AT_accessibility(DW_ACCESS_public)
   10232              $C$DW$745       .dwtag  DW_TAG_member
   10233                      .dwattr $C$DW$745, DW_AT_type(*$C$DW$T$46)
   10234                      .dwattr $C$DW$745, DW_AT_name("writeToMedia")
   10235                      .dwattr $C$DW$745, DW_AT_TI_symbol_name("_writeToMedia")
   10236                      .dwattr $C$DW$745, DW_AT_data_member_location[DW_OP_plus_uconst 0x169]
   10237                      .dwattr $C$DW$745, DW_AT_accessibility(DW_ACCESS_public)
   10238                      .dwendtag $C$DW$T$73
   10239              
   10240              $C$DW$T$20      .dwtag  DW_TAG_typedef, DW_AT_name("CSL_MscObject")
   10241                      .dwattr $C$DW$T$20, DW_AT_type(*$C$DW$T$73)
   10242                      .dwattr $C$DW$T$20, DW_AT_language(DW_LANG_C)
   10243              $C$DW$T$107     .dwtag  DW_TAG_pointer_type
   10244                      .dwattr $C$DW$T$107, DW_AT_type(*$C$DW$T$20)
   10245                      .dwattr $C$DW$T$107, DW_AT_address_class(0x17)
   10246              
   10247              $C$DW$T$75      .dwtag  DW_TAG_structure_type
   10248                      .dwattr $C$DW$T$75, DW_AT_name("CSL_MscRequestStruct")
   10249                      .dwattr $C$DW$T$75, DW_AT_byte_size(0x04)
   10250              $C$DW$746       .dwtag  DW_TAG_member
   10251                      .dwattr $C$DW$746, DW_AT_type(*$C$DW$T$74)
   10252                      .dwattr $C$DW$746, DW_AT_name("request")
   10253                      .dwattr $C$DW$746, DW_AT_TI_symbol_name("_request")
   10254                      .dwattr $C$DW$746, DW_AT_data_member_location[DW_OP_plus_uconst 0x0]
   10255                      .dwattr $C$DW$746, DW_AT_accessibility(DW_ACCESS_public)
   10256              $C$DW$747       .dwtag  DW_TAG_member
   10257                      .dwattr $C$DW$747, DW_AT_type(*$C$DW$T$45)
   10258                      .dwattr $C$DW$747, DW_AT_name("fpRequestHandler")
   10259                      .dwattr $C$DW$747, DW_AT_TI_symbol_name("_fpRequestHandler")
   10260                      .dwattr $C$DW$747, DW_AT_data_member_location[DW_OP_plus_uconst 0x2]
   10261                      .dwattr $C$DW$747, DW_AT_accessibility(DW_ACCESS_public)
   10262                      .dwendtag $C$DW$T$75
   10263              
   10264              $C$DW$T$39      .dwtag  DW_TAG_typedef, DW_AT_name("CSL_MscRequestStruct")
   10265                      .dwattr $C$DW$T$39, DW_AT_type(*$C$DW$T$75)
   10266                      .dwattr $C$DW$T$39, DW_AT_language(DW_LANG_C)
   10267              $C$DW$T$40      .dwtag  DW_TAG_pointer_type
   10268                      .dwattr $C$DW$T$40, DW_AT_type(*$C$DW$T$39)
   10269                      .dwattr $C$DW$T$40, DW_AT_address_class(0x17)
   10270              
   10271              $C$DW$T$77      .dwtag  DW_TAG_structure_type
   10272                      .dwattr $C$DW$T$77, DW_AT_name("CSL_UsbDataStruct")
   10273                      .dwattr $C$DW$T$77, DW_AT_byte_size(0x06)
   10274              $C$DW$748       .dwtag  DW_TAG_member
   10275                      .dwattr $C$DW$748, DW_AT_type(*$C$DW$T$25)
   10276                      .dwattr $C$DW$748, DW_AT_name("bytes")
   10277                      .dwattr $C$DW$748, DW_AT_TI_symbol_name("_bytes")
   10278                      .dwattr $C$DW$748, DW_AT_data_member_location[DW_OP_plus_uconst 0x0]
   10279                      .dwattr $C$DW$748, DW_AT_accessibility(DW_ACCESS_public)
   10280              $C$DW$749       .dwtag  DW_TAG_member
   10281                      .dwattr $C$DW$749, DW_AT_type(*$C$DW$T$47)
   10282                      .dwattr $C$DW$749, DW_AT_name("pBuffer")
   10283                      .dwattr $C$DW$749, DW_AT_TI_symbol_name("_pBuffer")
   10284                      .dwattr $C$DW$749, DW_AT_data_member_location[DW_OP_plus_uconst 0x2]
TMS320C55x Assembler PC v4.4.1 Tue Oct 02 02:33:20 2018

Tools Copyright (c) 1996-2012 Texas Instruments Incorporated
csl_msc.asm                                                          PAGE  247

   10285                      .dwattr $C$DW$749, DW_AT_accessibility(DW_ACCESS_public)
   10286              $C$DW$750       .dwtag  DW_TAG_member
   10287                      .dwattr $C$DW$750, DW_AT_type(*$C$DW$T$76)
   10288                      .dwattr $C$DW$750, DW_AT_name("pNextBuffer")
   10289                      .dwattr $C$DW$750, DW_AT_TI_symbol_name("_pNextBuffer")
   10290                      .dwattr $C$DW$750, DW_AT_data_member_location[DW_OP_plus_uconst 0x4]
   10291                      .dwattr $C$DW$750, DW_AT_accessibility(DW_ACCESS_public)
   10292                      .dwendtag $C$DW$T$77
   10293              
   10294              $C$DW$T$34      .dwtag  DW_TAG_typedef, DW_AT_name("CSL_UsbDataStruct")
   10295                      .dwattr $C$DW$T$34, DW_AT_type(*$C$DW$T$77)
   10296                      .dwattr $C$DW$T$34, DW_AT_language(DW_LANG_C)
   10297              $C$DW$T$83      .dwtag  DW_TAG_pointer_type
   10298                      .dwattr $C$DW$T$83, DW_AT_type(*$C$DW$T$34)
   10299                      .dwattr $C$DW$T$83, DW_AT_address_class(0x17)
   10300              $C$DW$T$76      .dwtag  DW_TAG_pointer_type
   10301                      .dwattr $C$DW$T$76, DW_AT_type(*$C$DW$T$77)
   10302                      .dwattr $C$DW$T$76, DW_AT_address_class(0x17)
   10303              
   10304              $C$DW$T$84      .dwtag  DW_TAG_structure_type
   10305                      .dwattr $C$DW$T$84, DW_AT_name("CSL_UsbEpObj")
   10306                      .dwattr $C$DW$T$84, DW_AT_byte_size(0x14)
   10307              $C$DW$751       .dwtag  DW_TAG_member
   10308                      .dwattr $C$DW$751, DW_AT_type(*$C$DW$T$79)
   10309                      .dwattr $C$DW$751, DW_AT_name("epNum")
   10310                      .dwattr $C$DW$751, DW_AT_TI_symbol_name("_epNum")
   10311                      .dwattr $C$DW$751, DW_AT_data_member_location[DW_OP_plus_uconst 0x0]
   10312                      .dwattr $C$DW$751, DW_AT_accessibility(DW_ACCESS_public)
   10313              $C$DW$752       .dwtag  DW_TAG_member
   10314                      .dwattr $C$DW$752, DW_AT_type(*$C$DW$T$81)
   10315                      .dwattr $C$DW$752, DW_AT_name("xferType")
   10316                      .dwattr $C$DW$752, DW_AT_TI_symbol_name("_xferType")
   10317                      .dwattr $C$DW$752, DW_AT_data_member_location[DW_OP_plus_uconst 0x1]
   10318                      .dwattr $C$DW$752, DW_AT_accessibility(DW_ACCESS_public)
   10319              $C$DW$753       .dwtag  DW_TAG_member
   10320                      .dwattr $C$DW$753, DW_AT_type(*$C$DW$T$25)
   10321                      .dwattr $C$DW$753, DW_AT_name("maxPktSiz")
   10322                      .dwattr $C$DW$753, DW_AT_TI_symbol_name("_maxPktSiz")
   10323                      .dwattr $C$DW$753, DW_AT_data_member_location[DW_OP_plus_uconst 0x2]
   10324                      .dwattr $C$DW$753, DW_AT_accessibility(DW_ACCESS_public)
   10325              $C$DW$754       .dwtag  DW_TAG_member
   10326                      .dwattr $C$DW$754, DW_AT_type(*$C$DW$T$25)
   10327                      .dwattr $C$DW$754, DW_AT_name("eventMask")
   10328                      .dwattr $C$DW$754, DW_AT_TI_symbol_name("_eventMask")
   10329                      .dwattr $C$DW$754, DW_AT_data_member_location[DW_OP_plus_uconst 0x3]
   10330                      .dwattr $C$DW$754, DW_AT_accessibility(DW_ACCESS_public)
   10331              $C$DW$755       .dwtag  DW_TAG_member
   10332                      .dwattr $C$DW$755, DW_AT_type(*$C$DW$T$82)
   10333                      .dwattr $C$DW$755, DW_AT_name("fxn")
   10334                      .dwattr $C$DW$755, DW_AT_TI_symbol_name("_fxn")
   10335                      .dwattr $C$DW$755, DW_AT_data_member_location[DW_OP_plus_uconst 0x4]
   10336                      .dwattr $C$DW$755, DW_AT_accessibility(DW_ACCESS_public)
   10337              $C$DW$756       .dwtag  DW_TAG_member
   10338                      .dwattr $C$DW$756, DW_AT_type(*$C$DW$T$25)
   10339                      .dwattr $C$DW$756, DW_AT_name("dataFlags")
TMS320C55x Assembler PC v4.4.1 Tue Oct 02 02:33:20 2018

Tools Copyright (c) 1996-2012 Texas Instruments Incorporated
csl_msc.asm                                                          PAGE  248

   10340                      .dwattr $C$DW$756, DW_AT_TI_symbol_name("_dataFlags")
   10341                      .dwattr $C$DW$756, DW_AT_data_member_location[DW_OP_plus_uconst 0x6]
   10342                      .dwattr $C$DW$756, DW_AT_accessibility(DW_ACCESS_public)
   10343              $C$DW$757       .dwtag  DW_TAG_member
   10344                      .dwattr $C$DW$757, DW_AT_type(*$C$DW$T$25)
   10345                      .dwattr $C$DW$757, DW_AT_name("status")
   10346                      .dwattr $C$DW$757, DW_AT_TI_symbol_name("_status")
   10347                      .dwattr $C$DW$757, DW_AT_data_member_location[DW_OP_plus_uconst 0x7]
   10348                      .dwattr $C$DW$757, DW_AT_accessibility(DW_ACCESS_public)
   10349              $C$DW$758       .dwtag  DW_TAG_member
   10350                      .dwattr $C$DW$758, DW_AT_type(*$C$DW$T$25)
   10351                      .dwattr $C$DW$758, DW_AT_name("epDescRegSAddr")
   10352                      .dwattr $C$DW$758, DW_AT_TI_symbol_name("_epDescRegSAddr")
   10353                      .dwattr $C$DW$758, DW_AT_data_member_location[DW_OP_plus_uconst 0x8]
   10354                      .dwattr $C$DW$758, DW_AT_accessibility(DW_ACCESS_public)
   10355              $C$DW$759       .dwtag  DW_TAG_member
   10356                      .dwattr $C$DW$759, DW_AT_type(*$C$DW$T$25)
   10357                      .dwattr $C$DW$759, DW_AT_name("dmaRegSAddr")
   10358                      .dwattr $C$DW$759, DW_AT_TI_symbol_name("_dmaRegSAddr")
   10359                      .dwattr $C$DW$759, DW_AT_data_member_location[DW_OP_plus_uconst 0x9]
   10360                      .dwattr $C$DW$759, DW_AT_accessibility(DW_ACCESS_public)
   10361              $C$DW$760       .dwtag  DW_TAG_member
   10362                      .dwattr $C$DW$760, DW_AT_type(*$C$DW$T$25)
   10363                      .dwattr $C$DW$760, DW_AT_name("totByteCnt")
   10364                      .dwattr $C$DW$760, DW_AT_TI_symbol_name("_totByteCnt")
   10365                      .dwattr $C$DW$760, DW_AT_data_member_location[DW_OP_plus_uconst 0xa]
   10366                      .dwattr $C$DW$760, DW_AT_accessibility(DW_ACCESS_public)
   10367              $C$DW$761       .dwtag  DW_TAG_member
   10368                      .dwattr $C$DW$761, DW_AT_type(*$C$DW$T$25)
   10369                      .dwattr $C$DW$761, DW_AT_name("byteInThisSeg")
   10370                      .dwattr $C$DW$761, DW_AT_TI_symbol_name("_byteInThisSeg")
   10371                      .dwattr $C$DW$761, DW_AT_data_member_location[DW_OP_plus_uconst 0xb]
   10372                      .dwattr $C$DW$761, DW_AT_accessibility(DW_ACCESS_public)
   10373              $C$DW$762       .dwtag  DW_TAG_member
   10374                      .dwattr $C$DW$762, DW_AT_type(*$C$DW$T$47)
   10375                      .dwattr $C$DW$762, DW_AT_name("xferBytCnt")
   10376                      .dwattr $C$DW$762, DW_AT_TI_symbol_name("_xferBytCnt")
   10377                      .dwattr $C$DW$762, DW_AT_data_member_location[DW_OP_plus_uconst 0xc]
   10378                      .dwattr $C$DW$762, DW_AT_accessibility(DW_ACCESS_public)
   10379              $C$DW$763       .dwtag  DW_TAG_member
   10380                      .dwattr $C$DW$763, DW_AT_type(*$C$DW$T$47)
   10381                      .dwattr $C$DW$763, DW_AT_name("pBuffer")
   10382                      .dwattr $C$DW$763, DW_AT_TI_symbol_name("_pBuffer")
   10383                      .dwattr $C$DW$763, DW_AT_data_member_location[DW_OP_plus_uconst 0xe]
   10384                      .dwattr $C$DW$763, DW_AT_accessibility(DW_ACCESS_public)
   10385              $C$DW$764       .dwtag  DW_TAG_member
   10386                      .dwattr $C$DW$764, DW_AT_type(*$C$DW$T$83)
   10387                      .dwattr $C$DW$764, DW_AT_name("pNextBuffer")
   10388                      .dwattr $C$DW$764, DW_AT_TI_symbol_name("_pNextBuffer")
   10389                      .dwattr $C$DW$764, DW_AT_data_member_location[DW_OP_plus_uconst 0x10]
   10390                      .dwattr $C$DW$764, DW_AT_accessibility(DW_ACCESS_public)
   10391              $C$DW$765       .dwtag  DW_TAG_member
   10392                      .dwattr $C$DW$765, DW_AT_type(*$C$DW$T$25)
   10393                      .dwattr $C$DW$765, DW_AT_name("eventFlag")
   10394                      .dwattr $C$DW$765, DW_AT_TI_symbol_name("_eventFlag")
TMS320C55x Assembler PC v4.4.1 Tue Oct 02 02:33:20 2018

Tools Copyright (c) 1996-2012 Texas Instruments Incorporated
csl_msc.asm                                                          PAGE  249

   10395                      .dwattr $C$DW$765, DW_AT_data_member_location[DW_OP_plus_uconst 0x12]
   10396                      .dwattr $C$DW$765, DW_AT_accessibility(DW_ACCESS_public)
   10397                      .dwendtag $C$DW$T$84
   10398              
   10399              $C$DW$T$22      .dwtag  DW_TAG_typedef, DW_AT_name("CSL_UsbEpObj")
   10400                      .dwattr $C$DW$T$22, DW_AT_type(*$C$DW$T$84)
   10401                      .dwattr $C$DW$T$22, DW_AT_language(DW_LANG_C)
   10402              $C$DW$T$26      .dwtag  DW_TAG_pointer_type
   10403                      .dwattr $C$DW$T$26, DW_AT_type(*$C$DW$T$22)
   10404                      .dwattr $C$DW$T$26, DW_AT_address_class(0x17)
   10405              $C$DW$T$27      .dwtag  DW_TAG_typedef, DW_AT_name("pUsbEpHandle")
   10406                      .dwattr $C$DW$T$27, DW_AT_type(*$C$DW$T$26)
   10407                      .dwattr $C$DW$T$27, DW_AT_language(DW_LANG_C)
   10408              
   10409              $C$DW$T$28      .dwtag  DW_TAG_array_type
   10410                      .dwattr $C$DW$T$28, DW_AT_type(*$C$DW$T$27)
   10411                      .dwattr $C$DW$T$28, DW_AT_language(DW_LANG_C)
   10412                      .dwattr $C$DW$T$28, DW_AT_byte_size(0x0a)
   10413              $C$DW$766       .dwtag  DW_TAG_subrange_type
   10414                      .dwattr $C$DW$766, DW_AT_upper_bound(0x04)
   10415                      .dwendtag $C$DW$T$28
   10416              
   10417              $C$DW$T$108     .dwtag  DW_TAG_pointer_type
   10418                      .dwattr $C$DW$T$108, DW_AT_type(*$C$DW$T$27)
   10419                      .dwattr $C$DW$T$108, DW_AT_address_class(0x17)
   10420              
   10421              $C$DW$T$85      .dwtag  DW_TAG_structure_type
   10422                      .dwattr $C$DW$T$85, DW_AT_name("CSL_UsbSetupStruct")
   10423                      .dwattr $C$DW$T$85, DW_AT_byte_size(0x06)
   10424              $C$DW$767       .dwtag  DW_TAG_member
   10425                      .dwattr $C$DW$767, DW_AT_type(*$C$DW$T$10)
   10426                      .dwattr $C$DW$767, DW_AT_name("newPacket")
   10427                      .dwattr $C$DW$767, DW_AT_TI_symbol_name("_newPacket")
   10428                      .dwattr $C$DW$767, DW_AT_data_member_location[DW_OP_plus_uconst 0x0]
   10429                      .dwattr $C$DW$767, DW_AT_accessibility(DW_ACCESS_public)
   10430              $C$DW$768       .dwtag  DW_TAG_member
   10431                      .dwattr $C$DW$768, DW_AT_type(*$C$DW$T$25)
   10432                      .dwattr $C$DW$768, DW_AT_name("bmRequestType")
   10433                      .dwattr $C$DW$768, DW_AT_TI_symbol_name("_bmRequestType")
   10434                      .dwattr $C$DW$768, DW_AT_data_member_location[DW_OP_plus_uconst 0x1]
   10435                      .dwattr $C$DW$768, DW_AT_accessibility(DW_ACCESS_public)
   10436              $C$DW$769       .dwtag  DW_TAG_member
   10437                      .dwattr $C$DW$769, DW_AT_type(*$C$DW$T$25)
   10438                      .dwattr $C$DW$769, DW_AT_name("bRequest")
   10439                      .dwattr $C$DW$769, DW_AT_TI_symbol_name("_bRequest")
   10440                      .dwattr $C$DW$769, DW_AT_data_member_location[DW_OP_plus_uconst 0x2]
   10441                      .dwattr $C$DW$769, DW_AT_accessibility(DW_ACCESS_public)
   10442              $C$DW$770       .dwtag  DW_TAG_member
   10443                      .dwattr $C$DW$770, DW_AT_type(*$C$DW$T$25)
   10444                      .dwattr $C$DW$770, DW_AT_name("wValue")
   10445                      .dwattr $C$DW$770, DW_AT_TI_symbol_name("_wValue")
   10446                      .dwattr $C$DW$770, DW_AT_data_member_location[DW_OP_plus_uconst 0x3]
   10447                      .dwattr $C$DW$770, DW_AT_accessibility(DW_ACCESS_public)
   10448              $C$DW$771       .dwtag  DW_TAG_member
   10449                      .dwattr $C$DW$771, DW_AT_type(*$C$DW$T$25)
TMS320C55x Assembler PC v4.4.1 Tue Oct 02 02:33:20 2018

Tools Copyright (c) 1996-2012 Texas Instruments Incorporated
csl_msc.asm                                                          PAGE  250

   10450                      .dwattr $C$DW$771, DW_AT_name("wIndex")
   10451                      .dwattr $C$DW$771, DW_AT_TI_symbol_name("_wIndex")
   10452                      .dwattr $C$DW$771, DW_AT_data_member_location[DW_OP_plus_uconst 0x4]
   10453                      .dwattr $C$DW$771, DW_AT_accessibility(DW_ACCESS_public)
   10454              $C$DW$772       .dwtag  DW_TAG_member
   10455                      .dwattr $C$DW$772, DW_AT_type(*$C$DW$T$25)
   10456                      .dwattr $C$DW$772, DW_AT_name("wLength")
   10457                      .dwattr $C$DW$772, DW_AT_TI_symbol_name("_wLength")
   10458                      .dwattr $C$DW$772, DW_AT_data_member_location[DW_OP_plus_uconst 0x5]
   10459                      .dwattr $C$DW$772, DW_AT_accessibility(DW_ACCESS_public)
   10460                      .dwendtag $C$DW$T$85
   10461              
   10462              $C$DW$T$29      .dwtag  DW_TAG_typedef, DW_AT_name("CSL_UsbSetupStruct")
   10463                      .dwattr $C$DW$T$29, DW_AT_type(*$C$DW$T$85)
   10464                      .dwattr $C$DW$T$29, DW_AT_language(DW_LANG_C)
   10465              $C$DW$T$43      .dwtag  DW_TAG_pointer_type
   10466                      .dwattr $C$DW$T$43, DW_AT_type(*$C$DW$T$29)
   10467                      .dwattr $C$DW$T$43, DW_AT_address_class(0x17)
   10468              $C$DW$T$3       .dwtag  DW_TAG_pointer_type
   10469                      .dwattr $C$DW$T$3, DW_AT_address_class(0x17)
   10470              
   10471              $C$DW$T$49      .dwtag  DW_TAG_subroutine_type
   10472                      .dwattr $C$DW$T$49, DW_AT_language(DW_LANG_C)
   10473              $C$DW$T$50      .dwtag  DW_TAG_pointer_type
   10474                      .dwattr $C$DW$T$50, DW_AT_type(*$C$DW$T$49)
   10475                      .dwattr $C$DW$T$50, DW_AT_address_class(0x20)
   10476              $C$DW$T$82      .dwtag  DW_TAG_typedef, DW_AT_name("CSL_USB_EVENT_ISR")
   10477                      .dwattr $C$DW$T$82, DW_AT_type(*$C$DW$T$50)
   10478                      .dwattr $C$DW$T$82, DW_AT_language(DW_LANG_C)
   10479              $C$DW$773       .dwtag  DW_TAG_TI_far_type
   10480              $C$DW$T$110     .dwtag  DW_TAG_const_type
   10481                      .dwattr $C$DW$T$110, DW_AT_type(*$C$DW$773)
   10482              $C$DW$T$111     .dwtag  DW_TAG_pointer_type
   10483                      .dwattr $C$DW$T$111, DW_AT_type(*$C$DW$T$110)
   10484                      .dwattr $C$DW$T$111, DW_AT_address_class(0x17)
   10485              $C$DW$T$4       .dwtag  DW_TAG_base_type
   10486                      .dwattr $C$DW$T$4, DW_AT_encoding(DW_ATE_boolean)
   10487                      .dwattr $C$DW$T$4, DW_AT_name("bool")
   10488                      .dwattr $C$DW$T$4, DW_AT_byte_size(0x01)
   10489              $C$DW$T$5       .dwtag  DW_TAG_base_type
   10490                      .dwattr $C$DW$T$5, DW_AT_encoding(DW_ATE_signed_char)
   10491                      .dwattr $C$DW$T$5, DW_AT_name("signed char")
   10492                      .dwattr $C$DW$T$5, DW_AT_byte_size(0x01)
   10493              $C$DW$T$6       .dwtag  DW_TAG_base_type
   10494                      .dwattr $C$DW$T$6, DW_AT_encoding(DW_ATE_unsigned_char)
   10495                      .dwattr $C$DW$T$6, DW_AT_name("unsigned char")
   10496                      .dwattr $C$DW$T$6, DW_AT_byte_size(0x01)
   10497              $C$DW$T$7       .dwtag  DW_TAG_base_type
   10498                      .dwattr $C$DW$T$7, DW_AT_encoding(DW_ATE_signed_char)
   10499                      .dwattr $C$DW$T$7, DW_AT_name("wchar_t")
   10500                      .dwattr $C$DW$T$7, DW_AT_byte_size(0x01)
   10501              $C$DW$T$8       .dwtag  DW_TAG_base_type
   10502                      .dwattr $C$DW$T$8, DW_AT_encoding(DW_ATE_signed)
   10503                      .dwattr $C$DW$T$8, DW_AT_name("short")
   10504                      .dwattr $C$DW$T$8, DW_AT_byte_size(0x01)
TMS320C55x Assembler PC v4.4.1 Tue Oct 02 02:33:20 2018

Tools Copyright (c) 1996-2012 Texas Instruments Incorporated
csl_msc.asm                                                          PAGE  251

   10505              $C$DW$T$88      .dwtag  DW_TAG_typedef, DW_AT_name("Int16")
   10506                      .dwattr $C$DW$T$88, DW_AT_type(*$C$DW$T$8)
   10507                      .dwattr $C$DW$T$88, DW_AT_language(DW_LANG_C)
   10508              $C$DW$T$89      .dwtag  DW_TAG_typedef, DW_AT_name("CSL_Status")
   10509                      .dwattr $C$DW$T$89, DW_AT_type(*$C$DW$T$88)
   10510                      .dwattr $C$DW$T$89, DW_AT_language(DW_LANG_C)
   10511              $C$DW$T$90      .dwtag  DW_TAG_pointer_type
   10512                      .dwattr $C$DW$T$90, DW_AT_type(*$C$DW$T$89)
   10513                      .dwattr $C$DW$T$90, DW_AT_address_class(0x17)
   10514              $C$DW$T$9       .dwtag  DW_TAG_base_type
   10515                      .dwattr $C$DW$T$9, DW_AT_encoding(DW_ATE_unsigned)
   10516                      .dwattr $C$DW$T$9, DW_AT_name("unsigned short")
   10517                      .dwattr $C$DW$T$9, DW_AT_byte_size(0x01)
   10518              $C$DW$T$25      .dwtag  DW_TAG_typedef, DW_AT_name("Uint16")
   10519                      .dwattr $C$DW$T$25, DW_AT_type(*$C$DW$T$9)
   10520                      .dwattr $C$DW$T$25, DW_AT_language(DW_LANG_C)
   10521              $C$DW$T$150     .dwtag  DW_TAG_typedef, DW_AT_name("CSL_UsbEventMask")
   10522                      .dwattr $C$DW$T$150, DW_AT_type(*$C$DW$T$25)
   10523                      .dwattr $C$DW$T$150, DW_AT_language(DW_LANG_C)
   10524              $C$DW$T$122     .dwtag  DW_TAG_typedef, DW_AT_name("CSL_UsbIoFlags")
   10525                      .dwattr $C$DW$T$122, DW_AT_type(*$C$DW$T$25)
   10526                      .dwattr $C$DW$T$122, DW_AT_language(DW_LANG_C)
   10527              $C$DW$T$74      .dwtag  DW_TAG_typedef, DW_AT_name("WORD")
   10528                      .dwattr $C$DW$T$74, DW_AT_type(*$C$DW$T$25)
   10529                      .dwattr $C$DW$T$74, DW_AT_language(DW_LANG_C)
   10530              
   10531              $C$DW$T$30      .dwtag  DW_TAG_array_type
   10532                      .dwattr $C$DW$T$30, DW_AT_type(*$C$DW$T$25)
   10533                      .dwattr $C$DW$T$30, DW_AT_language(DW_LANG_C)
   10534                      .dwattr $C$DW$T$30, DW_AT_byte_size(0x11)
   10535              $C$DW$774       .dwtag  DW_TAG_subrange_type
   10536                      .dwattr $C$DW$774, DW_AT_upper_bound(0x10)
   10537                      .dwendtag $C$DW$T$30
   10538              
   10539              
   10540              $C$DW$T$31      .dwtag  DW_TAG_array_type
   10541                      .dwattr $C$DW$T$31, DW_AT_type(*$C$DW$T$25)
   10542                      .dwattr $C$DW$T$31, DW_AT_language(DW_LANG_C)
   10543                      .dwattr $C$DW$T$31, DW_AT_byte_size(0x0a)
   10544              $C$DW$775       .dwtag  DW_TAG_subrange_type
   10545                      .dwattr $C$DW$775, DW_AT_upper_bound(0x09)
   10546                      .dwendtag $C$DW$T$31
   10547              
   10548              
   10549              $C$DW$T$32      .dwtag  DW_TAG_array_type
   10550                      .dwattr $C$DW$T$32, DW_AT_type(*$C$DW$T$25)
   10551                      .dwattr $C$DW$T$32, DW_AT_language(DW_LANG_C)
   10552                      .dwattr $C$DW$T$32, DW_AT_byte_size(0x06)
   10553              $C$DW$776       .dwtag  DW_TAG_subrange_type
   10554                      .dwattr $C$DW$776, DW_AT_upper_bound(0x05)
   10555                      .dwendtag $C$DW$T$32
   10556              
   10557              
   10558              $C$DW$T$33      .dwtag  DW_TAG_array_type
   10559                      .dwattr $C$DW$T$33, DW_AT_type(*$C$DW$T$25)
TMS320C55x Assembler PC v4.4.1 Tue Oct 02 02:33:20 2018

Tools Copyright (c) 1996-2012 Texas Instruments Incorporated
csl_msc.asm                                                          PAGE  252

   10560                      .dwattr $C$DW$T$33, DW_AT_language(DW_LANG_C)
   10561                      .dwattr $C$DW$T$33, DW_AT_byte_size(0x05)
   10562              $C$DW$777       .dwtag  DW_TAG_subrange_type
   10563                      .dwattr $C$DW$777, DW_AT_upper_bound(0x04)
   10564                      .dwendtag $C$DW$T$33
   10565              
   10566              
   10567              $C$DW$T$35      .dwtag  DW_TAG_array_type
   10568                      .dwattr $C$DW$T$35, DW_AT_type(*$C$DW$T$25)
   10569                      .dwattr $C$DW$T$35, DW_AT_language(DW_LANG_C)
   10570                      .dwattr $C$DW$T$35, DW_AT_byte_size(0x04)
   10571              $C$DW$778       .dwtag  DW_TAG_subrange_type
   10572                      .dwattr $C$DW$778, DW_AT_upper_bound(0x03)
   10573                      .dwendtag $C$DW$T$35
   10574              
   10575              $C$DW$T$47      .dwtag  DW_TAG_pointer_type
   10576                      .dwattr $C$DW$T$47, DW_AT_type(*$C$DW$T$25)
   10577                      .dwattr $C$DW$T$47, DW_AT_address_class(0x17)
   10578              
   10579              $C$DW$T$65      .dwtag  DW_TAG_array_type
   10580                      .dwattr $C$DW$T$65, DW_AT_type(*$C$DW$T$25)
   10581                      .dwattr $C$DW$T$65, DW_AT_language(DW_LANG_C)
   10582                      .dwattr $C$DW$T$65, DW_AT_byte_size(0x32)
   10583              $C$DW$779       .dwtag  DW_TAG_subrange_type
   10584                      .dwattr $C$DW$779, DW_AT_upper_bound(0x31)
   10585                      .dwendtag $C$DW$T$65
   10586              
   10587              
   10588              $C$DW$T$67      .dwtag  DW_TAG_array_type
   10589                      .dwattr $C$DW$T$67, DW_AT_type(*$C$DW$T$25)
   10590                      .dwattr $C$DW$T$67, DW_AT_language(DW_LANG_C)
   10591                      .dwattr $C$DW$T$67, DW_AT_byte_size(0x18)
   10592              $C$DW$780       .dwtag  DW_TAG_subrange_type
   10593                      .dwattr $C$DW$780, DW_AT_upper_bound(0x17)
   10594                      .dwendtag $C$DW$T$67
   10595              
   10596              
   10597              $C$DW$T$71      .dwtag  DW_TAG_array_type
   10598                      .dwattr $C$DW$T$71, DW_AT_type(*$C$DW$T$25)
   10599                      .dwattr $C$DW$T$71, DW_AT_language(DW_LANG_C)
   10600                      .dwattr $C$DW$T$71, DW_AT_byte_size(0x0f)
   10601              $C$DW$781       .dwtag  DW_TAG_subrange_type
   10602                      .dwattr $C$DW$781, DW_AT_upper_bound(0x0e)
   10603                      .dwendtag $C$DW$T$71
   10604              
   10605              
   10606              $C$DW$T$72      .dwtag  DW_TAG_array_type
   10607                      .dwattr $C$DW$T$72, DW_AT_type(*$C$DW$T$25)
   10608                      .dwattr $C$DW$T$72, DW_AT_language(DW_LANG_C)
   10609                      .dwattr $C$DW$T$72, DW_AT_byte_size(0x08)
   10610              $C$DW$782       .dwtag  DW_TAG_subrange_type
   10611                      .dwattr $C$DW$782, DW_AT_upper_bound(0x07)
   10612                      .dwendtag $C$DW$T$72
   10613              
   10614              
TMS320C55x Assembler PC v4.4.1 Tue Oct 02 02:33:20 2018

Tools Copyright (c) 1996-2012 Texas Instruments Incorporated
csl_msc.asm                                                          PAGE  253

   10615              $C$DW$T$168     .dwtag  DW_TAG_array_type
   10616                      .dwattr $C$DW$T$168, DW_AT_type(*$C$DW$T$25)
   10617                      .dwattr $C$DW$T$168, DW_AT_language(DW_LANG_C)
   10618                      .dwattr $C$DW$T$168, DW_AT_byte_size(0x42)
   10619              $C$DW$783       .dwtag  DW_TAG_subrange_type
   10620                      .dwattr $C$DW$783, DW_AT_upper_bound(0x41)
   10621                      .dwendtag $C$DW$T$168
   10622              
   10623              $C$DW$T$10      .dwtag  DW_TAG_base_type
   10624                      .dwattr $C$DW$T$10, DW_AT_encoding(DW_ATE_signed)
   10625                      .dwattr $C$DW$T$10, DW_AT_name("int")
   10626                      .dwattr $C$DW$T$10, DW_AT_byte_size(0x01)
   10627              $C$DW$T$46      .dwtag  DW_TAG_typedef, DW_AT_name("Bool")
   10628                      .dwattr $C$DW$T$46, DW_AT_type(*$C$DW$T$10)
   10629                      .dwattr $C$DW$T$46, DW_AT_language(DW_LANG_C)
   10630              $C$DW$T$11      .dwtag  DW_TAG_base_type
   10631                      .dwattr $C$DW$T$11, DW_AT_encoding(DW_ATE_unsigned)
   10632                      .dwattr $C$DW$T$11, DW_AT_name("unsigned int")
   10633                      .dwattr $C$DW$T$11, DW_AT_byte_size(0x01)
   10634              $C$DW$T$112     .dwtag  DW_TAG_typedef, DW_AT_name("size_t")
   10635                      .dwattr $C$DW$T$112, DW_AT_type(*$C$DW$T$11)
   10636                      .dwattr $C$DW$T$112, DW_AT_language(DW_LANG_C)
   10637              $C$DW$T$12      .dwtag  DW_TAG_base_type
   10638                      .dwattr $C$DW$T$12, DW_AT_encoding(DW_ATE_signed)
   10639                      .dwattr $C$DW$T$12, DW_AT_name("long")
   10640                      .dwattr $C$DW$T$12, DW_AT_byte_size(0x02)
   10641              $C$DW$T$13      .dwtag  DW_TAG_base_type
   10642                      .dwattr $C$DW$T$13, DW_AT_encoding(DW_ATE_unsigned)
   10643                      .dwattr $C$DW$T$13, DW_AT_name("unsigned long")
   10644                      .dwattr $C$DW$T$13, DW_AT_byte_size(0x02)
   10645              $C$DW$T$53      .dwtag  DW_TAG_typedef, DW_AT_name("Uint32")
   10646                      .dwattr $C$DW$T$53, DW_AT_type(*$C$DW$T$13)
   10647                      .dwattr $C$DW$T$53, DW_AT_language(DW_LANG_C)
   10648              
   10649              $C$DW$T$62      .dwtag  DW_TAG_subroutine_type
   10650                      .dwattr $C$DW$T$62, DW_AT_type(*$C$DW$T$53)
   10651                      .dwattr $C$DW$T$62, DW_AT_language(DW_LANG_C)
   10652              $C$DW$784       .dwtag  DW_TAG_formal_parameter
   10653                      .dwattr $C$DW$784, DW_AT_type(*$C$DW$T$25)
   10654                      .dwendtag $C$DW$T$62
   10655              
   10656              $C$DW$T$63      .dwtag  DW_TAG_pointer_type
   10657                      .dwattr $C$DW$T$63, DW_AT_type(*$C$DW$T$62)
   10658                      .dwattr $C$DW$T$63, DW_AT_address_class(0x20)
   10659              $C$DW$T$14      .dwtag  DW_TAG_base_type
   10660                      .dwattr $C$DW$T$14, DW_AT_encoding(DW_ATE_signed)
   10661                      .dwattr $C$DW$T$14, DW_AT_name("long long")
   10662                      .dwattr $C$DW$T$14, DW_AT_byte_size(0x04)
   10663                      .dwattr $C$DW$T$14, DW_AT_bit_size(0x28)
   10664                      .dwattr $C$DW$T$14, DW_AT_bit_offset(0x18)
   10665              $C$DW$T$15      .dwtag  DW_TAG_base_type
   10666                      .dwattr $C$DW$T$15, DW_AT_encoding(DW_ATE_unsigned)
   10667                      .dwattr $C$DW$T$15, DW_AT_name("unsigned long long")
   10668                      .dwattr $C$DW$T$15, DW_AT_byte_size(0x04)
   10669                      .dwattr $C$DW$T$15, DW_AT_bit_size(0x28)
TMS320C55x Assembler PC v4.4.1 Tue Oct 02 02:33:20 2018

Tools Copyright (c) 1996-2012 Texas Instruments Incorporated
csl_msc.asm                                                          PAGE  254

   10670                      .dwattr $C$DW$T$15, DW_AT_bit_offset(0x18)
   10671              $C$DW$T$16      .dwtag  DW_TAG_base_type
   10672                      .dwattr $C$DW$T$16, DW_AT_encoding(DW_ATE_float)
   10673                      .dwattr $C$DW$T$16, DW_AT_name("float")
   10674                      .dwattr $C$DW$T$16, DW_AT_byte_size(0x02)
   10675              $C$DW$T$17      .dwtag  DW_TAG_base_type
   10676                      .dwattr $C$DW$T$17, DW_AT_encoding(DW_ATE_float)
   10677                      .dwattr $C$DW$T$17, DW_AT_name("double")
   10678                      .dwattr $C$DW$T$17, DW_AT_byte_size(0x02)
   10679              $C$DW$T$18      .dwtag  DW_TAG_base_type
   10680                      .dwattr $C$DW$T$18, DW_AT_encoding(DW_ATE_float)
   10681                      .dwattr $C$DW$T$18, DW_AT_name("long double")
   10682                      .dwattr $C$DW$T$18, DW_AT_byte_size(0x02)
   10683              $C$DW$T$36      .dwtag  DW_TAG_base_type
   10684                      .dwattr $C$DW$T$36, DW_AT_encoding(DW_ATE_signed_char)
   10685                      .dwattr $C$DW$T$36, DW_AT_name("signed char")
   10686                      .dwattr $C$DW$T$36, DW_AT_byte_size(0x01)
   10687              $C$DW$T$37      .dwtag  DW_TAG_pointer_type
   10688                      .dwattr $C$DW$T$37, DW_AT_type(*$C$DW$T$36)
   10689                      .dwattr $C$DW$T$37, DW_AT_address_class(0x17)
   10690              $C$DW$T$38      .dwtag  DW_TAG_pointer_type
   10691                      .dwattr $C$DW$T$38, DW_AT_type(*$C$DW$T$37)
   10692                      .dwattr $C$DW$T$38, DW_AT_address_class(0x17)
   10693              $C$DW$785       .dwtag  DW_TAG_TI_far_type
   10694                      .dwattr $C$DW$785, DW_AT_type(*$C$DW$T$36)
   10695              $C$DW$T$170     .dwtag  DW_TAG_const_type
   10696                      .dwattr $C$DW$T$170, DW_AT_type(*$C$DW$785)
   10697              $C$DW$T$171     .dwtag  DW_TAG_pointer_type
   10698                      .dwattr $C$DW$T$171, DW_AT_type(*$C$DW$T$170)
   10699                      .dwattr $C$DW$T$171, DW_AT_address_class(0x17)
   10700                      .dwattr $C$DW$CU, DW_AT_language(DW_LANG_C)
   10701              
   10702              ;***************************************************************
   10703              ;* DWARF CIE ENTRIES                                           *
   10704              ;***************************************************************
   10705              
   10706              $C$DW$CIE       .dwcie 91
   10707                      .dwcfi  cfa_register, 36
   10708                      .dwcfi  cfa_offset, 0
   10709                      .dwcfi  undefined, 0
   10710                      .dwcfi  undefined, 1
   10711                      .dwcfi  undefined, 2
   10712                      .dwcfi  undefined, 3
   10713                      .dwcfi  undefined, 4
   10714                      .dwcfi  undefined, 5
   10715                      .dwcfi  undefined, 6
   10716                      .dwcfi  undefined, 7
   10717                      .dwcfi  undefined, 8
   10718                      .dwcfi  undefined, 9
   10719                      .dwcfi  undefined, 10
   10720                      .dwcfi  undefined, 11
   10721                      .dwcfi  undefined, 12
   10722                      .dwcfi  undefined, 13
   10723                      .dwcfi  same_value, 14
   10724                      .dwcfi  same_value, 15
TMS320C55x Assembler PC v4.4.1 Tue Oct 02 02:33:20 2018

Tools Copyright (c) 1996-2012 Texas Instruments Incorporated
csl_msc.asm                                                          PAGE  255

   10725                      .dwcfi  undefined, 16
   10726                      .dwcfi  undefined, 17
   10727                      .dwcfi  undefined, 18
   10728                      .dwcfi  undefined, 19
   10729                      .dwcfi  undefined, 20
   10730                      .dwcfi  undefined, 21
   10731                      .dwcfi  undefined, 22
   10732                      .dwcfi  undefined, 23
   10733                      .dwcfi  undefined, 24
   10734                      .dwcfi  undefined, 25
   10735                      .dwcfi  same_value, 26
   10736                      .dwcfi  same_value, 27
   10737                      .dwcfi  same_value, 28
   10738                      .dwcfi  same_value, 29
   10739                      .dwcfi  same_value, 30
   10740                      .dwcfi  same_value, 31
   10741                      .dwcfi  undefined, 32
   10742                      .dwcfi  undefined, 33
   10743                      .dwcfi  undefined, 34
   10744                      .dwcfi  undefined, 35
   10745                      .dwcfi  undefined, 36
   10746                      .dwcfi  undefined, 37
   10747                      .dwcfi  undefined, 38
   10748                      .dwcfi  undefined, 39
   10749                      .dwcfi  undefined, 40
   10750                      .dwcfi  undefined, 41
   10751                      .dwcfi  undefined, 42
   10752                      .dwcfi  undefined, 43
   10753                      .dwcfi  undefined, 44
   10754                      .dwcfi  undefined, 45
   10755                      .dwcfi  undefined, 46
   10756                      .dwcfi  undefined, 47
   10757                      .dwcfi  undefined, 48
   10758                      .dwcfi  undefined, 49
   10759                      .dwcfi  undefined, 50
   10760                      .dwcfi  undefined, 51
   10761                      .dwcfi  undefined, 52
   10762                      .dwcfi  undefined, 53
   10763                      .dwcfi  undefined, 54
   10764                      .dwcfi  undefined, 55
   10765                      .dwcfi  undefined, 56
   10766                      .dwcfi  undefined, 57
   10767                      .dwcfi  undefined, 58
   10768                      .dwcfi  undefined, 59
   10769                      .dwcfi  undefined, 60
   10770                      .dwcfi  undefined, 61
   10771                      .dwcfi  undefined, 62
   10772                      .dwcfi  undefined, 63
   10773                      .dwcfi  undefined, 64
   10774                      .dwcfi  undefined, 65
   10775                      .dwcfi  undefined, 66
   10776                      .dwcfi  undefined, 67
   10777                      .dwcfi  undefined, 68
   10778                      .dwcfi  undefined, 69
   10779                      .dwcfi  undefined, 70
TMS320C55x Assembler PC v4.4.1 Tue Oct 02 02:33:20 2018

Tools Copyright (c) 1996-2012 Texas Instruments Incorporated
csl_msc.asm                                                          PAGE  256

   10780                      .dwcfi  undefined, 71
   10781                      .dwcfi  undefined, 72
   10782                      .dwcfi  undefined, 73
   10783                      .dwcfi  undefined, 74
   10784                      .dwcfi  undefined, 75
   10785                      .dwcfi  undefined, 76
   10786                      .dwcfi  undefined, 77
   10787                      .dwcfi  undefined, 78
   10788                      .dwcfi  undefined, 79
   10789                      .dwcfi  undefined, 80
   10790                      .dwcfi  undefined, 81
   10791                      .dwcfi  undefined, 82
   10792                      .dwcfi  undefined, 83
   10793                      .dwcfi  undefined, 84
   10794                      .dwcfi  undefined, 85
   10795                      .dwcfi  undefined, 86
   10796                      .dwcfi  undefined, 87
   10797                      .dwcfi  undefined, 88
   10798                      .dwcfi  undefined, 89
   10799                      .dwcfi  undefined, 90
   10800                      .dwcfi  undefined, 91
   10801                      .dwendentry
   10802              
   10803              ;***************************************************************
   10804              ;* DWARF REGISTER MAP                                          *
   10805              ;***************************************************************
   10806              
   10807              $C$DW$786       .dwtag  DW_TAG_TI_assign_register, DW_AT_name("AC0")
   10808                      .dwattr $C$DW$786, DW_AT_location[DW_OP_reg0]
   10809              $C$DW$787       .dwtag  DW_TAG_TI_assign_register, DW_AT_name("AC0")
   10810                      .dwattr $C$DW$787, DW_AT_location[DW_OP_reg1]
   10811              $C$DW$788       .dwtag  DW_TAG_TI_assign_register, DW_AT_name("AC0_G")
   10812                      .dwattr $C$DW$788, DW_AT_location[DW_OP_reg2]
   10813              $C$DW$789       .dwtag  DW_TAG_TI_assign_register, DW_AT_name("AC1")
   10814                      .dwattr $C$DW$789, DW_AT_location[DW_OP_reg3]
   10815              $C$DW$790       .dwtag  DW_TAG_TI_assign_register, DW_AT_name("AC1")
   10816                      .dwattr $C$DW$790, DW_AT_location[DW_OP_reg4]
   10817              $C$DW$791       .dwtag  DW_TAG_TI_assign_register, DW_AT_name("AC1_G")
   10818                      .dwattr $C$DW$791, DW_AT_location[DW_OP_reg5]
   10819              $C$DW$792       .dwtag  DW_TAG_TI_assign_register, DW_AT_name("AC2")
   10820                      .dwattr $C$DW$792, DW_AT_location[DW_OP_reg6]
   10821              $C$DW$793       .dwtag  DW_TAG_TI_assign_register, DW_AT_name("AC2")
   10822                      .dwattr $C$DW$793, DW_AT_location[DW_OP_reg7]
   10823              $C$DW$794       .dwtag  DW_TAG_TI_assign_register, DW_AT_name("AC2_G")
   10824                      .dwattr $C$DW$794, DW_AT_location[DW_OP_reg8]
   10825              $C$DW$795       .dwtag  DW_TAG_TI_assign_register, DW_AT_name("AC3")
   10826                      .dwattr $C$DW$795, DW_AT_location[DW_OP_reg9]
   10827              $C$DW$796       .dwtag  DW_TAG_TI_assign_register, DW_AT_name("AC3")
   10828                      .dwattr $C$DW$796, DW_AT_location[DW_OP_reg10]
   10829              $C$DW$797       .dwtag  DW_TAG_TI_assign_register, DW_AT_name("AC3_G")
   10830                      .dwattr $C$DW$797, DW_AT_location[DW_OP_reg11]
   10831              $C$DW$798       .dwtag  DW_TAG_TI_assign_register, DW_AT_name("T0")
   10832                      .dwattr $C$DW$798, DW_AT_location[DW_OP_reg12]
   10833              $C$DW$799       .dwtag  DW_TAG_TI_assign_register, DW_AT_name("T1")
   10834                      .dwattr $C$DW$799, DW_AT_location[DW_OP_reg13]
TMS320C55x Assembler PC v4.4.1 Tue Oct 02 02:33:20 2018

Tools Copyright (c) 1996-2012 Texas Instruments Incorporated
csl_msc.asm                                                          PAGE  257

   10835              $C$DW$800       .dwtag  DW_TAG_TI_assign_register, DW_AT_name("T2")
   10836                      .dwattr $C$DW$800, DW_AT_location[DW_OP_reg14]
   10837              $C$DW$801       .dwtag  DW_TAG_TI_assign_register, DW_AT_name("T3")
   10838                      .dwattr $C$DW$801, DW_AT_location[DW_OP_reg15]
   10839              $C$DW$802       .dwtag  DW_TAG_TI_assign_register, DW_AT_name("AR0")
   10840                      .dwattr $C$DW$802, DW_AT_location[DW_OP_reg16]
   10841              $C$DW$803       .dwtag  DW_TAG_TI_assign_register, DW_AT_name("XAR0")
   10842                      .dwattr $C$DW$803, DW_AT_location[DW_OP_reg17]
   10843              $C$DW$804       .dwtag  DW_TAG_TI_assign_register, DW_AT_name("AR1")
   10844                      .dwattr $C$DW$804, DW_AT_location[DW_OP_reg18]
   10845              $C$DW$805       .dwtag  DW_TAG_TI_assign_register, DW_AT_name("XAR1")
   10846                      .dwattr $C$DW$805, DW_AT_location[DW_OP_reg19]
   10847              $C$DW$806       .dwtag  DW_TAG_TI_assign_register, DW_AT_name("AR2")
   10848                      .dwattr $C$DW$806, DW_AT_location[DW_OP_reg20]
   10849              $C$DW$807       .dwtag  DW_TAG_TI_assign_register, DW_AT_name("XAR2")
   10850                      .dwattr $C$DW$807, DW_AT_location[DW_OP_reg21]
   10851              $C$DW$808       .dwtag  DW_TAG_TI_assign_register, DW_AT_name("AR3")
   10852                      .dwattr $C$DW$808, DW_AT_location[DW_OP_reg22]
   10853              $C$DW$809       .dwtag  DW_TAG_TI_assign_register, DW_AT_name("XAR3")
   10854                      .dwattr $C$DW$809, DW_AT_location[DW_OP_reg23]
   10855              $C$DW$810       .dwtag  DW_TAG_TI_assign_register, DW_AT_name("AR4")
   10856                      .dwattr $C$DW$810, DW_AT_location[DW_OP_reg24]
   10857              $C$DW$811       .dwtag  DW_TAG_TI_assign_register, DW_AT_name("XAR4")
   10858                      .dwattr $C$DW$811, DW_AT_location[DW_OP_reg25]
   10859              $C$DW$812       .dwtag  DW_TAG_TI_assign_register, DW_AT_name("AR5")
   10860                      .dwattr $C$DW$812, DW_AT_location[DW_OP_reg26]
   10861              $C$DW$813       .dwtag  DW_TAG_TI_assign_register, DW_AT_name("XAR5")
   10862                      .dwattr $C$DW$813, DW_AT_location[DW_OP_reg27]
   10863              $C$DW$814       .dwtag  DW_TAG_TI_assign_register, DW_AT_name("AR6")
   10864                      .dwattr $C$DW$814, DW_AT_location[DW_OP_reg28]
   10865              $C$DW$815       .dwtag  DW_TAG_TI_assign_register, DW_AT_name("XAR6")
   10866                      .dwattr $C$DW$815, DW_AT_location[DW_OP_reg29]
   10867              $C$DW$816       .dwtag  DW_TAG_TI_assign_register, DW_AT_name("AR7")
   10868                      .dwattr $C$DW$816, DW_AT_location[DW_OP_reg30]
   10869              $C$DW$817       .dwtag  DW_TAG_TI_assign_register, DW_AT_name("XAR7")
   10870                      .dwattr $C$DW$817, DW_AT_location[DW_OP_reg31]
   10871              $C$DW$818       .dwtag  DW_TAG_TI_assign_register, DW_AT_name("FP")
   10872                      .dwattr $C$DW$818, DW_AT_location[DW_OP_regx 0x20]
   10873              $C$DW$819       .dwtag  DW_TAG_TI_assign_register, DW_AT_name("XFP")
   10874                      .dwattr $C$DW$819, DW_AT_location[DW_OP_regx 0x21]
   10875              $C$DW$820       .dwtag  DW_TAG_TI_assign_register, DW_AT_name("PC")
   10876                      .dwattr $C$DW$820, DW_AT_location[DW_OP_regx 0x22]
   10877              $C$DW$821       .dwtag  DW_TAG_TI_assign_register, DW_AT_name("SP")
   10878                      .dwattr $C$DW$821, DW_AT_location[DW_OP_regx 0x23]
   10879              $C$DW$822       .dwtag  DW_TAG_TI_assign_register, DW_AT_name("XSP")
   10880                      .dwattr $C$DW$822, DW_AT_location[DW_OP_regx 0x24]
   10881              $C$DW$823       .dwtag  DW_TAG_TI_assign_register, DW_AT_name("BKC")
   10882                      .dwattr $C$DW$823, DW_AT_location[DW_OP_regx 0x25]
   10883              $C$DW$824       .dwtag  DW_TAG_TI_assign_register, DW_AT_name("BK03")
   10884                      .dwattr $C$DW$824, DW_AT_location[DW_OP_regx 0x26]
   10885              $C$DW$825       .dwtag  DW_TAG_TI_assign_register, DW_AT_name("BK47")
   10886                      .dwattr $C$DW$825, DW_AT_location[DW_OP_regx 0x27]
   10887              $C$DW$826       .dwtag  DW_TAG_TI_assign_register, DW_AT_name("ST0")
   10888                      .dwattr $C$DW$826, DW_AT_location[DW_OP_regx 0x28]
   10889              $C$DW$827       .dwtag  DW_TAG_TI_assign_register, DW_AT_name("ST1")
TMS320C55x Assembler PC v4.4.1 Tue Oct 02 02:33:20 2018

Tools Copyright (c) 1996-2012 Texas Instruments Incorporated
csl_msc.asm                                                          PAGE  258

   10890                      .dwattr $C$DW$827, DW_AT_location[DW_OP_regx 0x29]
   10891              $C$DW$828       .dwtag  DW_TAG_TI_assign_register, DW_AT_name("ST2")
   10892                      .dwattr $C$DW$828, DW_AT_location[DW_OP_regx 0x2a]
   10893              $C$DW$829       .dwtag  DW_TAG_TI_assign_register, DW_AT_name("ST3")
   10894                      .dwattr $C$DW$829, DW_AT_location[DW_OP_regx 0x2b]
   10895              $C$DW$830       .dwtag  DW_TAG_TI_assign_register, DW_AT_name("MDP")
   10896                      .dwattr $C$DW$830, DW_AT_location[DW_OP_regx 0x2c]
   10897              $C$DW$831       .dwtag  DW_TAG_TI_assign_register, DW_AT_name("MDP05")
   10898                      .dwattr $C$DW$831, DW_AT_location[DW_OP_regx 0x2d]
   10899              $C$DW$832       .dwtag  DW_TAG_TI_assign_register, DW_AT_name("MDP67")
   10900                      .dwattr $C$DW$832, DW_AT_location[DW_OP_regx 0x2e]
   10901              $C$DW$833       .dwtag  DW_TAG_TI_assign_register, DW_AT_name("BRC0")
   10902                      .dwattr $C$DW$833, DW_AT_location[DW_OP_regx 0x2f]
   10903              $C$DW$834       .dwtag  DW_TAG_TI_assign_register, DW_AT_name("RSA0")
   10904                      .dwattr $C$DW$834, DW_AT_location[DW_OP_regx 0x30]
   10905              $C$DW$835       .dwtag  DW_TAG_TI_assign_register, DW_AT_name("RSA0_H")
   10906                      .dwattr $C$DW$835, DW_AT_location[DW_OP_regx 0x31]
   10907              $C$DW$836       .dwtag  DW_TAG_TI_assign_register, DW_AT_name("REA0")
   10908                      .dwattr $C$DW$836, DW_AT_location[DW_OP_regx 0x32]
   10909              $C$DW$837       .dwtag  DW_TAG_TI_assign_register, DW_AT_name("REA0_H")
   10910                      .dwattr $C$DW$837, DW_AT_location[DW_OP_regx 0x33]
   10911              $C$DW$838       .dwtag  DW_TAG_TI_assign_register, DW_AT_name("BRS1")
   10912                      .dwattr $C$DW$838, DW_AT_location[DW_OP_regx 0x34]
   10913              $C$DW$839       .dwtag  DW_TAG_TI_assign_register, DW_AT_name("BRC1")
   10914                      .dwattr $C$DW$839, DW_AT_location[DW_OP_regx 0x35]
   10915              $C$DW$840       .dwtag  DW_TAG_TI_assign_register, DW_AT_name("RSA1")
   10916                      .dwattr $C$DW$840, DW_AT_location[DW_OP_regx 0x36]
   10917              $C$DW$841       .dwtag  DW_TAG_TI_assign_register, DW_AT_name("RSA1_H")
   10918                      .dwattr $C$DW$841, DW_AT_location[DW_OP_regx 0x37]
   10919              $C$DW$842       .dwtag  DW_TAG_TI_assign_register, DW_AT_name("REA1")
   10920                      .dwattr $C$DW$842, DW_AT_location[DW_OP_regx 0x38]
   10921              $C$DW$843       .dwtag  DW_TAG_TI_assign_register, DW_AT_name("REA1_H")
   10922                      .dwattr $C$DW$843, DW_AT_location[DW_OP_regx 0x39]
   10923              $C$DW$844       .dwtag  DW_TAG_TI_assign_register, DW_AT_name("CSR")
   10924                      .dwattr $C$DW$844, DW_AT_location[DW_OP_regx 0x3a]
   10925              $C$DW$845       .dwtag  DW_TAG_TI_assign_register, DW_AT_name("RPTC")
   10926                      .dwattr $C$DW$845, DW_AT_location[DW_OP_regx 0x3b]
   10927              $C$DW$846       .dwtag  DW_TAG_TI_assign_register, DW_AT_name("CDP")
   10928                      .dwattr $C$DW$846, DW_AT_location[DW_OP_regx 0x3c]
   10929              $C$DW$847       .dwtag  DW_TAG_TI_assign_register, DW_AT_name("XCDP")
   10930                      .dwattr $C$DW$847, DW_AT_location[DW_OP_regx 0x3d]
   10931              $C$DW$848       .dwtag  DW_TAG_TI_assign_register, DW_AT_name("TRN0")
   10932                      .dwattr $C$DW$848, DW_AT_location[DW_OP_regx 0x3e]
   10933              $C$DW$849       .dwtag  DW_TAG_TI_assign_register, DW_AT_name("TRN1")
   10934                      .dwattr $C$DW$849, DW_AT_location[DW_OP_regx 0x3f]
   10935              $C$DW$850       .dwtag  DW_TAG_TI_assign_register, DW_AT_name("BSA01")
   10936                      .dwattr $C$DW$850, DW_AT_location[DW_OP_regx 0x40]
   10937              $C$DW$851       .dwtag  DW_TAG_TI_assign_register, DW_AT_name("BSA23")
   10938                      .dwattr $C$DW$851, DW_AT_location[DW_OP_regx 0x41]
   10939              $C$DW$852       .dwtag  DW_TAG_TI_assign_register, DW_AT_name("BSA45")
   10940                      .dwattr $C$DW$852, DW_AT_location[DW_OP_regx 0x42]
   10941              $C$DW$853       .dwtag  DW_TAG_TI_assign_register, DW_AT_name("BSA67")
   10942                      .dwattr $C$DW$853, DW_AT_location[DW_OP_regx 0x43]
   10943              $C$DW$854       .dwtag  DW_TAG_TI_assign_register, DW_AT_name("BSAC")
   10944                      .dwattr $C$DW$854, DW_AT_location[DW_OP_regx 0x44]
TMS320C55x Assembler PC v4.4.1 Tue Oct 02 02:33:20 2018

Tools Copyright (c) 1996-2012 Texas Instruments Incorporated
csl_msc.asm                                                          PAGE  259

   10945              $C$DW$855       .dwtag  DW_TAG_TI_assign_register, DW_AT_name("CARRY")
   10946                      .dwattr $C$DW$855, DW_AT_location[DW_OP_regx 0x45]
   10947              $C$DW$856       .dwtag  DW_TAG_TI_assign_register, DW_AT_name("TC1")
   10948                      .dwattr $C$DW$856, DW_AT_location[DW_OP_regx 0x46]
   10949              $C$DW$857       .dwtag  DW_TAG_TI_assign_register, DW_AT_name("TC2")
   10950                      .dwattr $C$DW$857, DW_AT_location[DW_OP_regx 0x47]
   10951              $C$DW$858       .dwtag  DW_TAG_TI_assign_register, DW_AT_name("M40")
   10952                      .dwattr $C$DW$858, DW_AT_location[DW_OP_regx 0x48]
   10953              $C$DW$859       .dwtag  DW_TAG_TI_assign_register, DW_AT_name("SXMD")
   10954                      .dwattr $C$DW$859, DW_AT_location[DW_OP_regx 0x49]
   10955              $C$DW$860       .dwtag  DW_TAG_TI_assign_register, DW_AT_name("ARMS")
   10956                      .dwattr $C$DW$860, DW_AT_location[DW_OP_regx 0x4a]
   10957              $C$DW$861       .dwtag  DW_TAG_TI_assign_register, DW_AT_name("C54CM")
   10958                      .dwattr $C$DW$861, DW_AT_location[DW_OP_regx 0x4b]
   10959              $C$DW$862       .dwtag  DW_TAG_TI_assign_register, DW_AT_name("SATA")
   10960                      .dwattr $C$DW$862, DW_AT_location[DW_OP_regx 0x4c]
   10961              $C$DW$863       .dwtag  DW_TAG_TI_assign_register, DW_AT_name("SATD")
   10962                      .dwattr $C$DW$863, DW_AT_location[DW_OP_regx 0x4d]
   10963              $C$DW$864       .dwtag  DW_TAG_TI_assign_register, DW_AT_name("RDM")
   10964                      .dwattr $C$DW$864, DW_AT_location[DW_OP_regx 0x4e]
   10965              $C$DW$865       .dwtag  DW_TAG_TI_assign_register, DW_AT_name("FRCT")
   10966                      .dwattr $C$DW$865, DW_AT_location[DW_OP_regx 0x4f]
   10967              $C$DW$866       .dwtag  DW_TAG_TI_assign_register, DW_AT_name("SMUL")
   10968                      .dwattr $C$DW$866, DW_AT_location[DW_OP_regx 0x50]
   10969              $C$DW$867       .dwtag  DW_TAG_TI_assign_register, DW_AT_name("INTM")
   10970                      .dwattr $C$DW$867, DW_AT_location[DW_OP_regx 0x51]
   10971              $C$DW$868       .dwtag  DW_TAG_TI_assign_register, DW_AT_name("AR0LC")
   10972                      .dwattr $C$DW$868, DW_AT_location[DW_OP_regx 0x52]
   10973              $C$DW$869       .dwtag  DW_TAG_TI_assign_register, DW_AT_name("AR1LC")
   10974                      .dwattr $C$DW$869, DW_AT_location[DW_OP_regx 0x53]
   10975              $C$DW$870       .dwtag  DW_TAG_TI_assign_register, DW_AT_name("AR2LC")
   10976                      .dwattr $C$DW$870, DW_AT_location[DW_OP_regx 0x54]
   10977              $C$DW$871       .dwtag  DW_TAG_TI_assign_register, DW_AT_name("AR3LC")
   10978                      .dwattr $C$DW$871, DW_AT_location[DW_OP_regx 0x55]
   10979              $C$DW$872       .dwtag  DW_TAG_TI_assign_register, DW_AT_name("AR4LC")
   10980                      .dwattr $C$DW$872, DW_AT_location[DW_OP_regx 0x56]
   10981              $C$DW$873       .dwtag  DW_TAG_TI_assign_register, DW_AT_name("AR5LC")
   10982                      .dwattr $C$DW$873, DW_AT_location[DW_OP_regx 0x57]
   10983              $C$DW$874       .dwtag  DW_TAG_TI_assign_register, DW_AT_name("AR6LC")
   10984                      .dwattr $C$DW$874, DW_AT_location[DW_OP_regx 0x58]
   10985              $C$DW$875       .dwtag  DW_TAG_TI_assign_register, DW_AT_name("AR7LC")
   10986                      .dwattr $C$DW$875, DW_AT_location[DW_OP_regx 0x59]
   10987              $C$DW$876       .dwtag  DW_TAG_TI_assign_register, DW_AT_name("CDPLC")
   10988                      .dwattr $C$DW$876, DW_AT_location[DW_OP_regx 0x5a]
   10989              $C$DW$877       .dwtag  DW_TAG_TI_assign_register, DW_AT_name("CIE_RETA")
   10990                      .dwattr $C$DW$877, DW_AT_location[DW_OP_regx 0x5b]
   10991                      .dwendtag $C$DW$CU
   10992              
   10992              
   10992              

No Assembly Errors, No Assembly Warnings
