TMS320C55x Assembler PC v4.4.1 Tue Oct 02 02:32:59 2018

Tools Copyright (c) 1996-2012 Texas Instruments Incorporated
csl_intc.asm                                                         PAGE    1

    2485              ; Temporary Registers Used: None
       1              ;*******************************************************************************
       2              ;* TMS320C55x C/C++ Codegen                                          PC v4.4.1 *
       3              ;* Date/Time created: Tue Oct 02 02:32:58 2018                                 *
       4              ;*******************************************************************************
       5                      .compiler_opts --hll_source=on --mem_model:code=flat --mem_model:data=large --object_format=coff --si
       6                      .mmregs
       7                      .cpl_on
       8                      .arms_on
       9                      .c54cm_off
      10                      .asg AR6, FP
      11                      .asg XAR6, XFP
      12                      .asg DPH, MDP
      13                      .model call=c55_std
      14                      .model mem=large
      15                      .noremark 5002  ; code respects overwrite rules
      16              ;*******************************************************************************
      17              ;* GLOBAL FILE PARAMETERS                                                      *
      18              ;*                                                                             *
      19              ;*   Architecture       : TMS320C55x                                           *
      20              ;*   Optimizing for     : Speed                                                *
      21              ;*   Memory             : Large Model (23-Bit Data Pointers)                   *
      22              ;*   Calls              : Normal Library ASM calls                             *
      23              ;*   Debug Info         : Standard TI Debug Information                        *
      24              ;*******************************************************************************
      25              
      26              $C$DW$CU        .dwtag  DW_TAG_compile_unit
      27                      .dwattr $C$DW$CU, DW_AT_name("../c5535_bsl_revc/ezdsp5535_v1/c55xx_csl/src/csl_intc.c")
      28                      .dwattr $C$DW$CU, DW_AT_producer("TMS320C55x C/C++ Codegen PC v4.4.1 Copyright (c) 1996-2012 Texas In
      29                      .dwattr $C$DW$CU, DW_AT_TI_version(0x01)
      30                      .dwattr $C$DW$CU, DW_AT_comp_dir("F:\eZdsp-DBG-sim\tmp1\c55x-sim2\foo\Debug")
      31 000000               .bss    _CSL_IRQ_DATA,132,0,2
      32              $C$DW$1 .dwtag  DW_TAG_variable, DW_AT_name("CSL_IRQ_DATA")
      33                      .dwattr $C$DW$1, DW_AT_TI_symbol_name("_CSL_IRQ_DATA")
      34                      .dwattr $C$DW$1, DW_AT_type(*$C$DW$T$36)
      35                      .dwattr $C$DW$1, DW_AT_location[DW_OP_addr _CSL_IRQ_DATA]
      36              ;       F:\t\cc5p5\ccsv5\tools\compiler\c5500_4.4.1\bin\acp55.exe -@f:\\AppData\\Local\\Temp\\0645212 
      37 000000               .sect   ".text"
      38                      .align 4
      39                      .global _IRQ_init
      40              
      41              $C$DW$2 .dwtag  DW_TAG_subprogram, DW_AT_name("IRQ_init")
      42                      .dwattr $C$DW$2, DW_AT_low_pc(_IRQ_init)
      43                      .dwattr $C$DW$2, DW_AT_high_pc(0x00)
      44                      .dwattr $C$DW$2, DW_AT_TI_symbol_name("_IRQ_init")
      45                      .dwattr $C$DW$2, DW_AT_external
      46                      .dwattr $C$DW$2, DW_AT_type(*$C$DW$T$45)
      47                      .dwattr $C$DW$2, DW_AT_TI_begin_file("../c5535_bsl_revc/ezdsp5535_v1/c55xx_csl/src/csl_intc.c")
      48                      .dwattr $C$DW$2, DW_AT_TI_begin_line(0x42)
      49                      .dwattr $C$DW$2, DW_AT_TI_begin_column(0x0c)
      50                      .dwattr $C$DW$2, DW_AT_TI_max_frame_size(0x06)
      51                      .dwpsn  file "../c5535_bsl_revc/ezdsp5535_v1/c55xx_csl/src/csl_intc.c",line 70,column 1,is_stmt,addre
      52              
      53                      .dwfde $C$DW$CIE, _IRQ_init
      54              $C$DW$3 .dwtag  DW_TAG_formal_parameter, DW_AT_name("dispatchTable")
TMS320C55x Assembler PC v4.4.1 Tue Oct 02 02:32:59 2018

Tools Copyright (c) 1996-2012 Texas Instruments Incorporated
csl_intc.asm                                                         PAGE    2

      55                      .dwattr $C$DW$3, DW_AT_TI_symbol_name("_dispatchTable")
      56                      .dwattr $C$DW$3, DW_AT_type(*$C$DW$T$26)
      57                      .dwattr $C$DW$3, DW_AT_location[DW_OP_reg17]
      58              $C$DW$4 .dwtag  DW_TAG_formal_parameter, DW_AT_name("biosPresent")
      59                      .dwattr $C$DW$4, DW_AT_TI_symbol_name("_biosPresent")
      60                      .dwattr $C$DW$4, DW_AT_type(*$C$DW$T$28)
      61                      .dwattr $C$DW$4, DW_AT_location[DW_OP_reg12]
      62              ;*******************************************************************************
      63              ;* FUNCTION NAME: IRQ_init                                                     *
      64              ;*                                                                             *
      65              ;*   Function Uses Regs : AC0,AC0,AC1,AC1,T0,T1,AR0,XAR0,AR1,AR2,XAR2,AR3,XAR3,*
      66              ;*                        SP,CARRY,TC1,M40,SATA,SATD,RDM,FRCT,SMUL             *
      67              ;*   Stack Frame        : Compact (No Frame Pointer, w/ debug)                 *
      68              ;*   Total Frame Size   : 6 words                                              *
      69              ;*                        (2 return address/alignment)                         *
      70              ;*                        (4 local values)                                     *
      71              ;*   Min System Stack   : 1 word                                               *
      72              ;*******************************************************************************
      73 000000       _IRQ_init:
      74                      .dwcfi  cfa_offset, 1
      75                      .dwcfi  save_reg_to_mem, 91, -1
      76 000000 4EFB          AADD #-5, SP
      77                      .dwcfi  cfa_offset, 6
      78              $C$DW$5 .dwtag  DW_TAG_variable, DW_AT_name("dispatchTable")
      79                      .dwattr $C$DW$5, DW_AT_TI_symbol_name("_dispatchTable")
      80                      .dwattr $C$DW$5, DW_AT_type(*$C$DW$T$26)
      81                      .dwattr $C$DW$5, DW_AT_location[DW_OP_bregx 0x24 0]
      82              $C$DW$6 .dwtag  DW_TAG_variable, DW_AT_name("biosPresent")
      83                      .dwattr $C$DW$6, DW_AT_TI_symbol_name("_biosPresent")
      84                      .dwattr $C$DW$6, DW_AT_type(*$C$DW$T$28)
      85                      .dwattr $C$DW$6, DW_AT_location[DW_OP_bregx 0x24 2]
      86              $C$DW$7 .dwtag  DW_TAG_variable, DW_AT_name("i")
      87                      .dwattr $C$DW$7, DW_AT_TI_symbol_name("_i")
      88                      .dwattr $C$DW$7, DW_AT_type(*$C$DW$T$10)
      89                      .dwattr $C$DW$7, DW_AT_location[DW_OP_bregx 0x24 3]
      90 000002 C404          MOV T0, *SP(#2) ; |70| 
      91 000004 EB00          MOV XAR0, dbl(*SP(#0))
         000006 85   
      92                      .dwpsn  file "../c5535_bsl_revc/ezdsp5535_v1/c55xx_csl/src/csl_intc.c",line 73,column 5,is_stmt
      93 000007 ED00          MOV dbl(*SP(#0)), XAR3
         000009 BF   
      94 00000a 90B0          MOV XAR3, AC0
      95 00000c EC31          AMOV #8388607, XAR3 ; |73| 
         00000e BE7F 
         000010 FFFF 
      96 000012 90B1          MOV XAR3, AC1
      97 000014 121C          CMPU AC1 != AC0, TC1 ; |73| 
         000016 04   
      98 000017 62E4          BCC $C$L1,TC1 ; |73| 
      99                                                      ; branchcc occurs ; |73| 
     100                      .dwpsn  file "../c5535_bsl_revc/ezdsp5535_v1/c55xx_csl/src/csl_intc.c",line 75,column 9,is_stmt
     101 000019 3E64          MOV #-6, T0
     102 00001b 0600          B $C$L6   ; |75| 
         00001d 78   
     103                                                      ; branch occurs ; |75| 
TMS320C55x Assembler PC v4.4.1 Tue Oct 02 02:32:59 2018

Tools Copyright (c) 1996-2012 Texas Instruments Incorporated
csl_intc.asm                                                         PAGE    3

     104 00001e       $C$L1:    
     105                      .dwpsn  file "../c5535_bsl_revc/ezdsp5535_v1/c55xx_csl/src/csl_intc.c",line 78,column 5,is_stmt
     106 00001e ED00          MOV dbl(*SP(#0)), XAR3
         000020 BF   
     107 000021 EB31          MOV XAR3, dbl(*(#_CSL_IRQ_DATA))
         000023 B500 
         000025 0000-
     108                      .dwpsn  file "../c5535_bsl_revc/ezdsp5535_v1/c55xx_csl/src/csl_intc.c",line 80,column 10,is_stmt
     109 000027 E606          MOV #0, *SP(#3) ; |80| 
         000029 00   
     110                      .dwpsn  file "../c5535_bsl_revc/ezdsp5535_v1/c55xx_csl/src/csl_intc.c",line 80,column 15,is_stmt
     111 00002a 7600          MOV #31, AR2 ; |80| 
         00002c 1FA8 
     112 00002e A906          MOV *SP(#3), AR1 ; |80| 
     113 000030 12A4          CMPU AR1 > AR2, TC1 ; |80| 
         000032 94   
     114 000033 0464          BCC $C$L3,TC1 ; |80| 
         000035 24   
     115                                                      ; branchcc occurs ; |80| 
     116 000036       $C$L2:    
     117 000036       $C$DW$L$_IRQ_init$4$B:
     118                      .dwpsn  file "../c5535_bsl_revc/ezdsp5535_v1/c55xx_csl/src/csl_intc.c",line 81,column 9,is_stmt
     119 000036 A006          MOV *SP(#3), AC0 ; |81| 
     120 000038 5000          SFTL AC0, #1 ; |81| 
     121 00003a 900A          MOV AC0, XAR2
     122 00003c EC31          AMOV #(_CSL_IRQ_DATA+2), XAR3 ; |81| 
         00003e BE00 
         000040 0002-
     123              
     124                      AADD XAR2, XAR3 ; |81| 
     125 000042 8A06  ||      MOV *SP(#3), AC0 ; |81| 
         000044 B018 
         000046 A1   
     126              
     127 000047 EB61          MOV AC0, dbl(*AR3) ; |81| 
         000049 08   
     128                      .dwpsn  file "../c5535_bsl_revc/ezdsp5535_v1/c55xx_csl/src/csl_intc.c",line 80,column 35,is_stmt
     129 00004a F706          ADD #1, *SP(#3) ; |80| 
         00004c 0001 
     130                      .dwpsn  file "../c5535_bsl_revc/ezdsp5535_v1/c55xx_csl/src/csl_intc.c",line 80,column 15,is_stmt
     131 00004e 7600          MOV #31, AR2 ; |80| 
         000050 1FA8 
     132 000052 A906          MOV *SP(#3), AR1 ; |80| 
     133 000054 12A8          CMPU AR1 <= AR2, TC1 ; |80| 
         000056 94   
     134 000057 0464          BCC $C$L2,TC1 ; |80| 
         000059 DC   
     135                                                      ; branchcc occurs ; |80| 
     136 00005a       $C$DW$L$_IRQ_init$4$E:
     137 00005a       $C$L3:    
     138                      .dwpsn  file "../c5535_bsl_revc/ezdsp5535_v1/c55xx_csl/src/csl_intc.c",line 83,column 9,is_stmt
     139 00005a E606          MOV #0, *SP(#3) ; |83| 
         00005c 00   
     140                      .dwpsn  file "../c5535_bsl_revc/ezdsp5535_v1/c55xx_csl/src/csl_intc.c",line 83,column 14,is_stmt
     141 00005d A906          MOV *SP(#3), AR1 ; |83| 
TMS320C55x Assembler PC v4.4.1 Tue Oct 02 02:32:59 2018

Tools Copyright (c) 1996-2012 Texas Instruments Incorporated
csl_intc.asm                                                         PAGE    4

     142 00005f 12A4          CMPU AR1 > AR2, TC1 ; |83| 
         000061 94   
     143 000062 0464          BCC $C$L5,TC1 ; |83| 
         000064 28   
     144                                                      ; branchcc occurs ; |83| 
     145 000065       $C$L4:    
     146 000065       $C$DW$L$_IRQ_init$6$B:
     147                      .dwpsn  file "../c5535_bsl_revc/ezdsp5535_v1/c55xx_csl/src/csl_intc.c",line 84,column 9,is_stmt
     148 000065 A006          MOV *SP(#3), AC0 ; |84| 
     149 000067 5000          SFTL AC0, #1 ; |84| 
     150 000069 900A          MOV AC0, XAR2
     151 00006b EC31          AMOV #(_CSL_IRQ_DATA+66), XAR3 ; |84| 
         00006d BE00 
         00006f 0042-
     152              
     153 000073 3D10          MOV #1, AC0 ; |84| 
     154 000071 A506  ||      MOV *SP(#3), T1 ; |84| 
     155              
     156 000075 14A1          AADD XAR2, XAR3 ; |84| 
         000077 B0   
     157 000078 5D05  ||      SFTS AC0, T1, AC0 ; |84| 
     158              
     159 00007a EB61          MOV AC0, dbl(*AR3) ; |84| 
         00007c 08   
     160                      .dwpsn  file "../c5535_bsl_revc/ezdsp5535_v1/c55xx_csl/src/csl_intc.c",line 83,column 35,is_stmt
     161 00007d F706          ADD #1, *SP(#3) ; |83| 
         00007f 0001 
     162                      .dwpsn  file "../c5535_bsl_revc/ezdsp5535_v1/c55xx_csl/src/csl_intc.c",line 83,column 14,is_stmt
     163 000081 7600          MOV #31, AR2 ; |83| 
         000083 1FA8 
     164 000085 A906          MOV *SP(#3), AR1 ; |83| 
     165 000087 12A8          CMPU AR1 <= AR2, TC1 ; |83| 
         000089 94   
     166 00008a 0464          BCC $C$L4,TC1 ; |83| 
         00008c D8   
     167                                                      ; branchcc occurs ; |83| 
     168 00008d       $C$DW$L$_IRQ_init$6$E:
     169 00008d       $C$L5:    
     170                      .dwpsn  file "../c5535_bsl_revc/ezdsp5535_v1/c55xx_csl/src/csl_intc.c",line 86,column 5,is_stmt
     171 00008d A904          MOV *SP(#2), AR1 ; |86| 
     172 00008f C931          MOV AR1, *(#(_CSL_IRQ_DATA+130)) ; |86| 
         000091 0000 
         000093 82-  
     173                      .dwpsn  file "../c5535_bsl_revc/ezdsp5535_v1/c55xx_csl/src/csl_intc.c",line 87,column 5,is_stmt
     174 000094 3C04          MOV #0, T0
     175 000096       $C$L6:    
     176                      .dwpsn  file "../c5535_bsl_revc/ezdsp5535_v1/c55xx_csl/src/csl_intc.c",line 88,column 1,is_stmt
     177 000096 4E05          AADD #5, SP
     178                      .dwcfi  cfa_offset, 1
     179              $C$DW$8 .dwtag  DW_TAG_TI_branch
     180                      .dwattr $C$DW$8, DW_AT_low_pc(0x00)
     181                      .dwattr $C$DW$8, DW_AT_TI_return
     182 000098 4804          RET
     183                                                      ; return occurs
     184              
TMS320C55x Assembler PC v4.4.1 Tue Oct 02 02:32:59 2018

Tools Copyright (c) 1996-2012 Texas Instruments Incorporated
csl_intc.asm                                                         PAGE    5

     185              $C$DW$9 .dwtag  DW_TAG_TI_loop
     186                      .dwattr $C$DW$9, DW_AT_name("F:\eZdsp-DBG-sim\tmp1\c55x-sim2\foo\Debug\csl_intc.asm:$C$L4:1:153847277
     187                      .dwattr $C$DW$9, DW_AT_TI_begin_file("../c5535_bsl_revc/ezdsp5535_v1/c55xx_csl/src/csl_intc.c")
     188                      .dwattr $C$DW$9, DW_AT_TI_begin_line(0x53)
     189                      .dwattr $C$DW$9, DW_AT_TI_end_line(0x54)
     190              $C$DW$10        .dwtag  DW_TAG_TI_loop_range
     191                      .dwattr $C$DW$10, DW_AT_low_pc($C$DW$L$_IRQ_init$6$B)
     192                      .dwattr $C$DW$10, DW_AT_high_pc($C$DW$L$_IRQ_init$6$E)
     193                      .dwendtag $C$DW$9
     194              
     195              
     196              $C$DW$11        .dwtag  DW_TAG_TI_loop
     197                      .dwattr $C$DW$11, DW_AT_name("F:\eZdsp-DBG-sim\tmp1\c55x-sim2\foo\Debug\csl_intc.asm:$C$L2:1:15384727
     198                      .dwattr $C$DW$11, DW_AT_TI_begin_file("../c5535_bsl_revc/ezdsp5535_v1/c55xx_csl/src/csl_intc.c")
     199                      .dwattr $C$DW$11, DW_AT_TI_begin_line(0x50)
     200                      .dwattr $C$DW$11, DW_AT_TI_end_line(0x51)
     201              $C$DW$12        .dwtag  DW_TAG_TI_loop_range
     202                      .dwattr $C$DW$12, DW_AT_low_pc($C$DW$L$_IRQ_init$4$B)
     203                      .dwattr $C$DW$12, DW_AT_high_pc($C$DW$L$_IRQ_init$4$E)
     204                      .dwendtag $C$DW$11
     205              
     206                      .dwattr $C$DW$2, DW_AT_TI_end_file("../c5535_bsl_revc/ezdsp5535_v1/c55xx_csl/src/csl_intc.c")
     207                      .dwattr $C$DW$2, DW_AT_TI_end_line(0x58)
     208                      .dwattr $C$DW$2, DW_AT_TI_end_column(0x01)
     209                      .dwendentry
     210                      .dwendtag $C$DW$2
     211              
     212 00009a               .sect   ".text"
     213                      .align 4
     214                      .global _IRQ_clear
     215              
     216              $C$DW$13        .dwtag  DW_TAG_subprogram, DW_AT_name("IRQ_clear")
     217                      .dwattr $C$DW$13, DW_AT_low_pc(_IRQ_clear)
     218                      .dwattr $C$DW$13, DW_AT_high_pc(0x00)
     219                      .dwattr $C$DW$13, DW_AT_TI_symbol_name("_IRQ_clear")
     220                      .dwattr $C$DW$13, DW_AT_external
     221                      .dwattr $C$DW$13, DW_AT_type(*$C$DW$T$45)
     222                      .dwattr $C$DW$13, DW_AT_TI_begin_file("../c5535_bsl_revc/ezdsp5535_v1/c55xx_csl/src/csl_intc.c")
     223                      .dwattr $C$DW$13, DW_AT_TI_begin_line(0x80)
     224                      .dwattr $C$DW$13, DW_AT_TI_begin_column(0x0c)
     225                      .dwattr $C$DW$13, DW_AT_TI_max_frame_size(0x04)
     226                      .dwpsn  file "../c5535_bsl_revc/ezdsp5535_v1/c55xx_csl/src/csl_intc.c",line 131,column 1,is_stmt,addr
     227              
     228                      .dwfde $C$DW$CIE, _IRQ_clear
     229              $C$DW$14        .dwtag  DW_TAG_formal_parameter, DW_AT_name("EventId")
     230                      .dwattr $C$DW$14, DW_AT_TI_symbol_name("_EventId")
     231                      .dwattr $C$DW$14, DW_AT_type(*$C$DW$T$28)
     232                      .dwattr $C$DW$14, DW_AT_location[DW_OP_reg12]
     233              ;*******************************************************************************
     234              ;* FUNCTION NAME: IRQ_clear                                                    *
     235              ;*                                                                             *
     236              ;*   Function Uses Regs : AC0,T0,T1,AR1,AR2,SP,CARRY,TC1,M40,SATA,SATD,RDM,    *
     237              ;*                        FRCT,SMUL                                            *
     238              ;*   Stack Frame        : Compact (No Frame Pointer, w/ debug)                 *
     239              ;*   Total Frame Size   : 4 words                                              *
TMS320C55x Assembler PC v4.4.1 Tue Oct 02 02:32:59 2018

Tools Copyright (c) 1996-2012 Texas Instruments Incorporated
csl_intc.asm                                                         PAGE    6

     240              ;*                        (1 return address/alignment)                         *
     241              ;*                        (3 local values)                                     *
     242              ;*   Min System Stack   : 1 word                                               *
     243              ;*******************************************************************************
     244 00009c       _IRQ_clear:
     245                      .dwcfi  cfa_offset, 1
     246                      .dwcfi  save_reg_to_mem, 91, -1
     247 00009c 4EFD          AADD #-3, SP
     248                      .dwcfi  cfa_offset, 4
     249              $C$DW$15        .dwtag  DW_TAG_variable, DW_AT_name("EventId")
     250                      .dwattr $C$DW$15, DW_AT_TI_symbol_name("_EventId")
     251                      .dwattr $C$DW$15, DW_AT_type(*$C$DW$T$28)
     252                      .dwattr $C$DW$15, DW_AT_location[DW_OP_bregx 0x24 0]
     253              $C$DW$16        .dwtag  DW_TAG_variable, DW_AT_name("bit")
     254                      .dwattr $C$DW$16, DW_AT_TI_symbol_name("_bit")
     255                      .dwattr $C$DW$16, DW_AT_type(*$C$DW$T$28)
     256                      .dwattr $C$DW$16, DW_AT_location[DW_OP_bregx 0x24 1]
     257              $C$DW$17        .dwtag  DW_TAG_variable, DW_AT_name("old_intm")
     258                      .dwattr $C$DW$17, DW_AT_TI_symbol_name("_old_intm")
     259                      .dwattr $C$DW$17, DW_AT_type(*$C$DW$T$41)
     260                      .dwattr $C$DW$17, DW_AT_location[DW_OP_bregx 0x24 2]
     261 00009e C400          MOV T0, *SP(#0) ; |131| 
     262                      .dwpsn  file "../c5535_bsl_revc/ezdsp5535_v1/c55xx_csl/src/csl_intc.c",line 136,column 5,is_stmt
     263              
     264 0000a0 7600          MOV #31, AR2 ; |136| 
         0000a2 1FA8 
     265 0000a4 2349  ||      MOV T0, AR1
     266              
     267 0000a6 12A8          CMPU AR2 >= AR1, TC1 ; |136| 
         0000a8 94   
     268 0000a9 62E4          BCC $C$L7,TC1 ; |136| 
     269                                                      ; branchcc occurs ; |136| 
     270                      .dwpsn  file "../c5535_bsl_revc/ezdsp5535_v1/c55xx_csl/src/csl_intc.c",line 138,column 9,is_stmt
     271 0000ab 3E64          MOV #-6, T0
     272 0000ad 0600          B $C$L10  ; |138| 
         0000af 52   
     273                                                      ; branch occurs ; |138| 
     274 0000b0       $C$L7:    
     275                      .dwpsn  file "../c5535_bsl_revc/ezdsp5535_v1/c55xx_csl/src/csl_intc.c",line 141,column 5,is_stmt
     276              $C$DW$18        .dwtag  DW_TAG_TI_branch
     277                      .dwattr $C$DW$18, DW_AT_low_pc(0x00)
     278                      .dwattr $C$DW$18, DW_AT_name("_IRQ_globalDisable")
     279                      .dwattr $C$DW$18, DW_AT_TI_call
     280 0000b0 0804          CALL #_IRQ_globalDisable ; |141| 
         0000b2 71   
     281                                                      ; call occurs [#_IRQ_globalDisable] ; |141| 
     282 0000b3 C404          MOV T0, *SP(#2) ; |141| 
     283                      .dwpsn  file "../c5535_bsl_revc/ezdsp5535_v1/c55xx_csl/src/csl_intc.c",line 143,column 5,is_stmt
     284 0000b5 A900          MOV *SP(#0), AR1 ; |143| 
     285 0000b7 C902          MOV AR1, *SP(#1) ; |143| 
     286                      .dwpsn  file "../c5535_bsl_revc/ezdsp5535_v1/c55xx_csl/src/csl_intc.c",line 145,column 5,is_stmt
     287              
     288 0000b9 A900          MOV *SP(#0), AR1 ; |145| 
     289 0000bb 3DFA  ||      MOV #15, AR2
     290              
TMS320C55x Assembler PC v4.4.1 Tue Oct 02 02:32:59 2018

Tools Copyright (c) 1996-2012 Texas Instruments Incorporated
csl_intc.asm                                                         PAGE    7

     291 0000bd 12A8          CMPU AR1 <= AR2, TC1 ; |145| 
         0000bf 94   
     292 0000c0 0464          BCC $C$L8,TC1 ; |145| 
         0000c2 1F   
     293                                                      ; branchcc occurs ; |145| 
     294                      .dwpsn  file "../c5535_bsl_revc/ezdsp5535_v1/c55xx_csl/src/csl_intc.c",line 148,column 9,is_stmt
     295 0000c3 F702          SUB #16, *SP(#1) ; |148| 
         0000c5 FFF0 
     296                      .dwpsn  file "../c5535_bsl_revc/ezdsp5535_v1/c55xx_csl/src/csl_intc.c",line 149,column 9,is_stmt
     297              
     298 0000c7 A502          MOV *SP(#1), T1 ; |149| 
     299 0000c9 3D10  ||      MOV #1, AC0
     300              
     301 0000cb 5C05          SFTS AC0, T1, AC0 ; |149| 
     302 0000cd 3609          NOT AC0, AR1 ; |149| 
     303 0000cf D931          AND *(#70), AR1, AR1 ; |149| 
         0000d1 9900 
         0000d3 0046 
     304 0000d5 3C10          MOV #1, AC0
     305 0000d7 5C05          SFTS AC0, T1, AC0 ; |149| 
     306 0000d9 2A90          OR AR1, AC0 ; |149| 
     307 0000db C031          MOV AC0, *(#70) ; |149| 
         0000dd 0000 
         0000df 46   
     308                      .dwpsn  file "../c5535_bsl_revc/ezdsp5535_v1/c55xx_csl/src/csl_intc.c",line 150,column 5,is_stmt
     309 0000e0 4A19          B $C$L9   ; |150| 
     310                                                      ; branch occurs ; |150| 
     311 0000e2       $C$L8:    
     312                      .dwpsn  file "../c5535_bsl_revc/ezdsp5535_v1/c55xx_csl/src/csl_intc.c",line 154,column 9,is_stmt
     313              
     314 0000e4 3D10          MOV #1, AC0
     315 0000e2 A502  ||      MOV *SP(#1), T1 ; |154| 
     316              
     317 0000e6 5C05          SFTS AC0, T1, AC0 ; |154| 
     318 0000e8 3609          NOT AC0, AR1 ; |154| 
     319 0000ea D931          AND *(#1), AR1, AR1 ; |154| 
         0000ec 9900 
         0000ee 0001 
     320 0000f0 3C10          MOV #1, AC0
     321 0000f2 5C05          SFTS AC0, T1, AC0 ; |154| 
     322 0000f4 2A90          OR AR1, AC0 ; |154| 
     323 0000f6 C031          MOV AC0, *(#1) ; |154| 
         0000f8 0000 
         0000fa 01   
     324 0000fb       $C$L9:    
     325                      .dwpsn  file "../c5535_bsl_revc/ezdsp5535_v1/c55xx_csl/src/csl_intc.c",line 157,column 5,is_stmt
     326 0000fb A404          MOV *SP(#2), T0 ; |157| 
     327              $C$DW$19        .dwtag  DW_TAG_TI_branch
     328                      .dwattr $C$DW$19, DW_AT_low_pc(0x00)
     329                      .dwattr $C$DW$19, DW_AT_name("_IRQ_globalRestore")
     330                      .dwattr $C$DW$19, DW_AT_TI_call
     331 0000fd 0804          CALL #_IRQ_globalRestore ; |157| 
         0000ff 5C   
     332                                                      ; call occurs [#_IRQ_globalRestore] ; |157| 
     333                      .dwpsn  file "../c5535_bsl_revc/ezdsp5535_v1/c55xx_csl/src/csl_intc.c",line 158,column 5,is_stmt
TMS320C55x Assembler PC v4.4.1 Tue Oct 02 02:32:59 2018

Tools Copyright (c) 1996-2012 Texas Instruments Incorporated
csl_intc.asm                                                         PAGE    8

     334 000100 3C04          MOV #0, T0
     335 000102       $C$L10:    
     336                      .dwpsn  file "../c5535_bsl_revc/ezdsp5535_v1/c55xx_csl/src/csl_intc.c",line 159,column 1,is_stmt
     337 000102 4E03          AADD #3, SP
     338                      .dwcfi  cfa_offset, 1
     339              $C$DW$20        .dwtag  DW_TAG_TI_branch
     340                      .dwattr $C$DW$20, DW_AT_low_pc(0x00)
     341                      .dwattr $C$DW$20, DW_AT_TI_return
     342 000104 4804          RET
     343                                                      ; return occurs
     344                      .dwattr $C$DW$13, DW_AT_TI_end_file("../c5535_bsl_revc/ezdsp5535_v1/c55xx_csl/src/csl_intc.c")
     345                      .dwattr $C$DW$13, DW_AT_TI_end_line(0x9f)
     346                      .dwattr $C$DW$13, DW_AT_TI_end_column(0x01)
     347                      .dwendentry
     348                      .dwendtag $C$DW$13
     349              
     350 000106               .sect   ".text"
     351                      .align 4
     352                      .global _IRQ_clearAll
     353              
     354              $C$DW$21        .dwtag  DW_TAG_subprogram, DW_AT_name("IRQ_clearAll")
     355                      .dwattr $C$DW$21, DW_AT_low_pc(_IRQ_clearAll)
     356                      .dwattr $C$DW$21, DW_AT_high_pc(0x00)
     357                      .dwattr $C$DW$21, DW_AT_TI_symbol_name("_IRQ_clearAll")
     358                      .dwattr $C$DW$21, DW_AT_external
     359                      .dwattr $C$DW$21, DW_AT_TI_begin_file("../c5535_bsl_revc/ezdsp5535_v1/c55xx_csl/src/csl_intc.c")
     360                      .dwattr $C$DW$21, DW_AT_TI_begin_line(0xbe)
     361                      .dwattr $C$DW$21, DW_AT_TI_begin_column(0x06)
     362                      .dwattr $C$DW$21, DW_AT_TI_max_frame_size(0x01)
     363                      .dwpsn  file "../c5535_bsl_revc/ezdsp5535_v1/c55xx_csl/src/csl_intc.c",line 191,column 1,is_stmt,addr
     364              
     365                      .dwfde $C$DW$CIE, _IRQ_clearAll
     366              ;*******************************************************************************
     367              ;* FUNCTION NAME: IRQ_clearAll                                                 *
     368              ;*                                                                             *
     369              ;*   Function Uses Regs : SP,M40,SATA,SATD,RDM,FRCT,SMUL                       *
     370              ;*   Stack Frame        : Compact (No Frame Pointer, w/ debug)                 *
     371              ;*   Total Frame Size   : 1 word                                               *
     372              ;*                        (1 return address/alignment)                         *
     373              ;*   Min System Stack   : 1 word                                               *
     374              ;*******************************************************************************
     375 000108       _IRQ_clearAll:
     376                      .dwcfi  cfa_offset, 1
     377                      .dwcfi  save_reg_to_mem, 91, -1
     378                      .dwpsn  file "../c5535_bsl_revc/ezdsp5535_v1/c55xx_csl/src/csl_intc.c",line 193,column 5,is_stmt
     379 000108 FB31          MOV #65535, *(#1) ; |193| 
         00010a FFFF 
         00010c 0000 
         00010e 01   
     380                      .dwpsn  file "../c5535_bsl_revc/ezdsp5535_v1/c55xx_csl/src/csl_intc.c",line 196,column 2,is_stmt
     381 00010f FB31          MOV #65535, *(#70) ; |196| 
         000111 FFFF 
         000113 0000 
         000115 46   
     382                      .dwpsn  file "../c5535_bsl_revc/ezdsp5535_v1/c55xx_csl/src/csl_intc.c",line 197,column 1,is_stmt
TMS320C55x Assembler PC v4.4.1 Tue Oct 02 02:32:59 2018

Tools Copyright (c) 1996-2012 Texas Instruments Incorporated
csl_intc.asm                                                         PAGE    9

     383              $C$DW$22        .dwtag  DW_TAG_TI_branch
     384                      .dwattr $C$DW$22, DW_AT_low_pc(0x00)
     385                      .dwattr $C$DW$22, DW_AT_TI_return
     386 000116 4804          RET
     387                                                      ; return occurs
     388                      .dwattr $C$DW$21, DW_AT_TI_end_file("../c5535_bsl_revc/ezdsp5535_v1/c55xx_csl/src/csl_intc.c")
     389                      .dwattr $C$DW$21, DW_AT_TI_end_line(0xc5)
     390                      .dwattr $C$DW$21, DW_AT_TI_end_column(0x01)
     391                      .dwendentry
     392                      .dwendtag $C$DW$21
     393              
     394 000118               .sect   ".text"
     395                      .align 4
     396                      .global _IRQ_config
     397              
     398              $C$DW$23        .dwtag  DW_TAG_subprogram, DW_AT_name("IRQ_config")
     399                      .dwattr $C$DW$23, DW_AT_low_pc(_IRQ_config)
     400                      .dwattr $C$DW$23, DW_AT_high_pc(0x00)
     401                      .dwattr $C$DW$23, DW_AT_TI_symbol_name("_IRQ_config")
     402                      .dwattr $C$DW$23, DW_AT_external
     403                      .dwattr $C$DW$23, DW_AT_type(*$C$DW$T$45)
     404                      .dwattr $C$DW$23, DW_AT_TI_begin_file("../c5535_bsl_revc/ezdsp5535_v1/c55xx_csl/src/csl_intc.c")
     405                      .dwattr $C$DW$23, DW_AT_TI_begin_line(0xf8)
     406                      .dwattr $C$DW$23, DW_AT_TI_begin_column(0x0c)
     407                      .dwattr $C$DW$23, DW_AT_TI_max_frame_size(0x06)
     408                      .dwpsn  file "../c5535_bsl_revc/ezdsp5535_v1/c55xx_csl/src/csl_intc.c",line 252,column 1,is_stmt,addr
     409              
     410                      .dwfde $C$DW$CIE, _IRQ_config
     411              $C$DW$24        .dwtag  DW_TAG_formal_parameter, DW_AT_name("EventId")
     412                      .dwattr $C$DW$24, DW_AT_TI_symbol_name("_EventId")
     413                      .dwattr $C$DW$24, DW_AT_type(*$C$DW$T$28)
     414                      .dwattr $C$DW$24, DW_AT_location[DW_OP_reg12]
     415              $C$DW$25        .dwtag  DW_TAG_formal_parameter, DW_AT_name("config")
     416                      .dwattr $C$DW$25, DW_AT_TI_symbol_name("_config")
     417                      .dwattr $C$DW$25, DW_AT_type(*$C$DW$T$35)
     418                      .dwattr $C$DW$25, DW_AT_location[DW_OP_reg17]
     419              ;*******************************************************************************
     420              ;* FUNCTION NAME: IRQ_config                                                   *
     421              ;*                                                                             *
     422              ;*   Function Uses Regs : AC0,AC0,AC1,AC1,T0,AR0,XAR0,AR1,AR2,XAR2,AR3,XAR3,SP,*
     423              ;*                        TC1,M40,SATA,SATD,RDM,FRCT,SMUL                      *
     424              ;*   Stack Frame        : Compact (No Frame Pointer, w/ debug)                 *
     425              ;*   Total Frame Size   : 6 words                                              *
     426              ;*                        (2 return address/alignment)                         *
     427              ;*                        (4 local values)                                     *
     428              ;*   Min System Stack   : 1 word                                               *
     429              ;*******************************************************************************
     430 000118       _IRQ_config:
     431                      .dwcfi  cfa_offset, 1
     432                      .dwcfi  save_reg_to_mem, 91, -1
     433 000118 4EFB          AADD #-5, SP
     434                      .dwcfi  cfa_offset, 6
     435              $C$DW$26        .dwtag  DW_TAG_variable, DW_AT_name("EventId")
     436                      .dwattr $C$DW$26, DW_AT_TI_symbol_name("_EventId")
     437                      .dwattr $C$DW$26, DW_AT_type(*$C$DW$T$28)
TMS320C55x Assembler PC v4.4.1 Tue Oct 02 02:32:59 2018

Tools Copyright (c) 1996-2012 Texas Instruments Incorporated
csl_intc.asm                                                         PAGE   10

     438                      .dwattr $C$DW$26, DW_AT_location[DW_OP_bregx 0x24 0]
     439              $C$DW$27        .dwtag  DW_TAG_variable, DW_AT_name("config")
     440                      .dwattr $C$DW$27, DW_AT_TI_symbol_name("_config")
     441                      .dwattr $C$DW$27, DW_AT_type(*$C$DW$T$35)
     442                      .dwattr $C$DW$27, DW_AT_location[DW_OP_bregx 0x24 2]
     443 00011a EB04          MOV XAR0, dbl(*SP(#2))
         00011c 85   
     444 00011d C400          MOV T0, *SP(#0) ; |252| 
     445                      .dwpsn  file "../c5535_bsl_revc/ezdsp5535_v1/c55xx_csl/src/csl_intc.c",line 253,column 5,is_stmt
     446 00011f ED04          MOV dbl(*SP(#2)), XAR3
         000121 BF   
     447              
     448 000122 90B0          MOV XAR3, AC0
     449 000124 3D01  ||      MOV #0, AC1 ; |253| 
     450              
     451 000126 121C          CMPU AC1 != AC0, TC1 ; |253| 
         000128 04   
     452 000129 62E4          BCC $C$L11,TC1 ; |253| 
     453                                                      ; branchcc occurs ; |253| 
     454                      .dwpsn  file "../c5535_bsl_revc/ezdsp5535_v1/c55xx_csl/src/csl_intc.c",line 255,column 9,is_stmt
     455 00012b 3E64          MOV #-6, T0
     456 00012d 0600          B $C$L13  ; |255| 
         00012f 77   
     457                                                      ; branch occurs ; |255| 
     458 000130       $C$L11:    
     459                      .dwpsn  file "../c5535_bsl_revc/ezdsp5535_v1/c55xx_csl/src/csl_intc.c",line 259,column 5,is_stmt
     460              
     461 000130 7600          MOV #31, AR2 ; |259| 
         000132 1FA8 
     462 000134 2349  ||      MOV T0, AR1
     463              
     464 000136 12A8          CMPU AR2 >= AR1, TC1 ; |259| 
         000138 94   
     465 000139 62E4          BCC $C$L12,TC1 ; |259| 
     466                                                      ; branchcc occurs ; |259| 
     467                      .dwpsn  file "../c5535_bsl_revc/ezdsp5535_v1/c55xx_csl/src/csl_intc.c",line 261,column 9,is_stmt
     468 00013b 3E64          MOV #-6, T0
     469 00013d 0600          B $C$L13  ; |261| 
         00013f 67   
     470                                                      ; branch occurs ; |261| 
     471 000140       $C$L12:    
     472                      .dwpsn  file "../c5535_bsl_revc/ezdsp5535_v1/c55xx_csl/src/csl_intc.c",line 264,column 5,is_stmt
     473 000140 ED31          MOV dbl(*(#_CSL_IRQ_DATA)), XAR3
         000142 BF00 
         000144 0000-
     474 000146 DF00          MOV uns(*SP(#0)), AC0 ; |264| 
         000148 05   
     475 000149 1005          SFTS AC0, #3, AC0 ; |264| 
         00014b 03   
     476 00014c 900A          MOV AC0, XAR2
     477 00014e 14A1          AADD XAR2, XAR3 ; |264| 
         000150 B0   
     478 000151 ED04          MOV dbl(*SP(#2)), XAR2
         000153 AF   
     479 000154 8041          MOV dbl(*AR2), dbl(*AR3) ; |264| 
TMS320C55x Assembler PC v4.4.1 Tue Oct 02 02:32:59 2018

Tools Copyright (c) 1996-2012 Texas Instruments Incorporated
csl_intc.asm                                                         PAGE   11

         000156 80   
     480                      .dwpsn  file "../c5535_bsl_revc/ezdsp5535_v1/c55xx_csl/src/csl_intc.c",line 267,column 5,is_stmt
     481 000157 ED31          MOV dbl(*(#_CSL_IRQ_DATA)), XAR3
         000159 BF00 
         00015b 0000-
     482 00015d DF00          MOV uns(*SP(#0)), AC0 ; |267| 
         00015f 05   
     483 000160 1005          SFTS AC0, #3, AC0 ; |267| 
         000162 03   
     484 000163 900A          MOV AC0, XAR2
     485 000165 14A1          AADD XAR2, XAR3 ; |267| 
         000167 B0   
     486 000168 ED04          MOV dbl(*SP(#2)), XAR2
         00016a AF   
     487 00016b ED55          MOV dbl(*AR2(short(#2))), AC0 ; |267| 
         00016d 08   
     488 00016e EB75          MOV AC0, dbl(*AR3(short(#2))) ; |267| 
         000170 08   
     489                      .dwpsn  file "../c5535_bsl_revc/ezdsp5535_v1/c55xx_csl/src/csl_intc.c",line 270,column 5,is_stmt
     490 000171 ED31          MOV dbl(*(#_CSL_IRQ_DATA)), XAR3
         000173 BF00 
         000175 0000-
     491 000177 DF00          MOV uns(*SP(#0)), AC0 ; |270| 
         000179 05   
     492 00017a 1005          SFTS AC0, #3, AC0 ; |270| 
         00017c 03   
     493 00017d 900A          MOV AC0, XAR2
     494 00017f 14A1          AADD XAR2, XAR3 ; |270| 
         000181 B0   
     495 000182 ED04          MOV dbl(*SP(#2)), XAR2
         000184 AF   
     496 000185 ED59          MOV dbl(*AR2(short(#4))), AC0 ; |270| 
         000187 08   
     497 000188 EB79          MOV AC0, dbl(*AR3(short(#4))) ; |270| 
         00018a 08   
     498                      .dwpsn  file "../c5535_bsl_revc/ezdsp5535_v1/c55xx_csl/src/csl_intc.c",line 272,column 5,is_stmt
     499 00018b ED31          MOV dbl(*(#_CSL_IRQ_DATA)), XAR3
         00018d BF00 
         00018f 0000-
     500 000191 DF00          MOV uns(*SP(#0)), AC0 ; |272| 
         000193 05   
     501 000194 1005          SFTS AC0, #3, AC0 ; |272| 
         000196 03   
     502 000197 900A          MOV AC0, XAR2
     503 000199 14A1          AADD XAR2, XAR3 ; |272| 
         00019b B0   
     504 00019c ED04          MOV dbl(*SP(#2)), XAR2
         00019e AF   
     505 00019f ED5D          MOV dbl(*AR2(short(#6))), AC0 ; |272| 
         0001a1 08   
     506 0001a2 EB7D          MOV AC0, dbl(*AR3(short(#6))) ; |272| 
         0001a4 08   
     507                      .dwpsn  file "../c5535_bsl_revc/ezdsp5535_v1/c55xx_csl/src/csl_intc.c",line 274,column 5,is_stmt
     508 0001a5 3C04          MOV #0, T0
     509 0001a7       $C$L13:    
TMS320C55x Assembler PC v4.4.1 Tue Oct 02 02:32:59 2018

Tools Copyright (c) 1996-2012 Texas Instruments Incorporated
csl_intc.asm                                                         PAGE   12

     510                      .dwpsn  file "../c5535_bsl_revc/ezdsp5535_v1/c55xx_csl/src/csl_intc.c",line 275,column 1,is_stmt
     511 0001a7 4E05          AADD #5, SP
     512                      .dwcfi  cfa_offset, 1
     513              $C$DW$28        .dwtag  DW_TAG_TI_branch
     514                      .dwattr $C$DW$28, DW_AT_low_pc(0x00)
     515                      .dwattr $C$DW$28, DW_AT_TI_return
     516 0001a9 4804          RET
     517                                                      ; return occurs
     518                      .dwattr $C$DW$23, DW_AT_TI_end_file("../c5535_bsl_revc/ezdsp5535_v1/c55xx_csl/src/csl_intc.c")
     519                      .dwattr $C$DW$23, DW_AT_TI_end_line(0x113)
     520                      .dwattr $C$DW$23, DW_AT_TI_end_column(0x01)
     521                      .dwendentry
     522                      .dwendtag $C$DW$23
     523              
     524 0001ab               .sect   ".text"
     525                      .align 4
     526                      .global _IRQ_getConfig
     527              
     528              $C$DW$29        .dwtag  DW_TAG_subprogram, DW_AT_name("IRQ_getConfig")
     529                      .dwattr $C$DW$29, DW_AT_low_pc(_IRQ_getConfig)
     530                      .dwattr $C$DW$29, DW_AT_high_pc(0x00)
     531                      .dwattr $C$DW$29, DW_AT_TI_symbol_name("_IRQ_getConfig")
     532                      .dwattr $C$DW$29, DW_AT_external
     533                      .dwattr $C$DW$29, DW_AT_type(*$C$DW$T$45)
     534                      .dwattr $C$DW$29, DW_AT_TI_begin_file("../c5535_bsl_revc/ezdsp5535_v1/c55xx_csl/src/csl_intc.c")
     535                      .dwattr $C$DW$29, DW_AT_TI_begin_line(0x143)
     536                      .dwattr $C$DW$29, DW_AT_TI_begin_column(0x0c)
     537                      .dwattr $C$DW$29, DW_AT_TI_max_frame_size(0x06)
     538                      .dwpsn  file "../c5535_bsl_revc/ezdsp5535_v1/c55xx_csl/src/csl_intc.c",line 327,column 1,is_stmt,addr
     539              
     540                      .dwfde $C$DW$CIE, _IRQ_getConfig
     541              $C$DW$30        .dwtag  DW_TAG_formal_parameter, DW_AT_name("EventId")
     542                      .dwattr $C$DW$30, DW_AT_TI_symbol_name("_EventId")
     543                      .dwattr $C$DW$30, DW_AT_type(*$C$DW$T$28)
     544                      .dwattr $C$DW$30, DW_AT_location[DW_OP_reg12]
     545              $C$DW$31        .dwtag  DW_TAG_formal_parameter, DW_AT_name("config")
     546                      .dwattr $C$DW$31, DW_AT_TI_symbol_name("_config")
     547                      .dwattr $C$DW$31, DW_AT_type(*$C$DW$T$35)
     548                      .dwattr $C$DW$31, DW_AT_location[DW_OP_reg17]
     549              ;*******************************************************************************
     550              ;* FUNCTION NAME: IRQ_getConfig                                                *
     551              ;*                                                                             *
     552              ;*   Function Uses Regs : AC0,AC0,AC1,AC1,T0,AR0,XAR0,AR1,AR2,XAR2,AR3,XAR3,SP,*
     553              ;*                        TC1,M40,SATA,SATD,RDM,FRCT,SMUL                      *
     554              ;*   Stack Frame        : Compact (No Frame Pointer, w/ debug)                 *
     555              ;*   Total Frame Size   : 6 words                                              *
     556              ;*                        (2 return address/alignment)                         *
     557              ;*                        (4 local values)                                     *
     558              ;*   Min System Stack   : 1 word                                               *
     559              ;*******************************************************************************
     560 0001ac       _IRQ_getConfig:
     561                      .dwcfi  cfa_offset, 1
     562                      .dwcfi  save_reg_to_mem, 91, -1
     563 0001ac 4EFB          AADD #-5, SP
     564                      .dwcfi  cfa_offset, 6
TMS320C55x Assembler PC v4.4.1 Tue Oct 02 02:32:59 2018

Tools Copyright (c) 1996-2012 Texas Instruments Incorporated
csl_intc.asm                                                         PAGE   13

     565              $C$DW$32        .dwtag  DW_TAG_variable, DW_AT_name("EventId")
     566                      .dwattr $C$DW$32, DW_AT_TI_symbol_name("_EventId")
     567                      .dwattr $C$DW$32, DW_AT_type(*$C$DW$T$28)
     568                      .dwattr $C$DW$32, DW_AT_location[DW_OP_bregx 0x24 0]
     569              $C$DW$33        .dwtag  DW_TAG_variable, DW_AT_name("config")
     570                      .dwattr $C$DW$33, DW_AT_TI_symbol_name("_config")
     571                      .dwattr $C$DW$33, DW_AT_type(*$C$DW$T$35)
     572                      .dwattr $C$DW$33, DW_AT_location[DW_OP_bregx 0x24 2]
     573 0001ae EB04          MOV XAR0, dbl(*SP(#2))
         0001b0 85   
     574 0001b1 C400          MOV T0, *SP(#0) ; |327| 
     575                      .dwpsn  file "../c5535_bsl_revc/ezdsp5535_v1/c55xx_csl/src/csl_intc.c",line 328,column 5,is_stmt
     576 0001b3 ED04          MOV dbl(*SP(#2)), XAR3
         0001b5 BF   
     577              
     578 0001b6 90B0          MOV XAR3, AC0
     579 0001b8 3D01  ||      MOV #0, AC1 ; |328| 
     580              
     581 0001ba 121C          CMPU AC1 != AC0, TC1 ; |328| 
         0001bc 04   
     582 0001bd 62E4          BCC $C$L14,TC1 ; |328| 
     583                                                      ; branchcc occurs ; |328| 
     584                      .dwpsn  file "../c5535_bsl_revc/ezdsp5535_v1/c55xx_csl/src/csl_intc.c",line 330,column 9,is_stmt
     585 0001bf 3E64          MOV #-6, T0
     586 0001c1 0600          B $C$L16  ; |330| 
         0001c3 77   
     587                                                      ; branch occurs ; |330| 
     588 0001c4       $C$L14:    
     589                      .dwpsn  file "../c5535_bsl_revc/ezdsp5535_v1/c55xx_csl/src/csl_intc.c",line 333,column 5,is_stmt
     590              
     591 0001c4 7600          MOV #31, AR2 ; |333| 
         0001c6 1FA8 
     592 0001c8 2349  ||      MOV T0, AR1
     593              
     594 0001ca 12A8          CMPU AR2 >= AR1, TC1 ; |333| 
         0001cc 94   
     595 0001cd 62E4          BCC $C$L15,TC1 ; |333| 
     596                                                      ; branchcc occurs ; |333| 
     597                      .dwpsn  file "../c5535_bsl_revc/ezdsp5535_v1/c55xx_csl/src/csl_intc.c",line 335,column 9,is_stmt
     598 0001cf 3E64          MOV #-6, T0
     599 0001d1 0600          B $C$L16  ; |335| 
         0001d3 67   
     600                                                      ; branch occurs ; |335| 
     601 0001d4       $C$L15:    
     602                      .dwpsn  file "../c5535_bsl_revc/ezdsp5535_v1/c55xx_csl/src/csl_intc.c",line 337,column 5,is_stmt
     603 0001d4 ED31          MOV dbl(*(#_CSL_IRQ_DATA)), XAR3
         0001d6 BF00 
         0001d8 0000-
     604 0001da DF00          MOV uns(*SP(#0)), AC0 ; |337| 
         0001dc 05   
     605 0001dd 1005          SFTS AC0, #3, AC0 ; |337| 
         0001df 03   
     606 0001e0 900A          MOV AC0, XAR2
     607 0001e2 14A1          AADD XAR2, XAR3 ; |337| 
         0001e4 B0   
TMS320C55x Assembler PC v4.4.1 Tue Oct 02 02:32:59 2018

Tools Copyright (c) 1996-2012 Texas Instruments Incorporated
csl_intc.asm                                                         PAGE   14

     608 0001e5 ED04          MOV dbl(*SP(#2)), XAR2
         0001e7 AF   
     609 0001e8 8061          MOV dbl(*AR3), dbl(*AR2) ; |337| 
         0001ea 00   
     610                      .dwpsn  file "../c5535_bsl_revc/ezdsp5535_v1/c55xx_csl/src/csl_intc.c",line 340,column 5,is_stmt
     611 0001eb ED31          MOV dbl(*(#_CSL_IRQ_DATA)), XAR3
         0001ed BF00 
         0001ef 0000-
     612 0001f1 DF00          MOV uns(*SP(#0)), AC0 ; |340| 
         0001f3 05   
     613 0001f4 1005          SFTS AC0, #3, AC0 ; |340| 
         0001f6 03   
     614 0001f7 900A          MOV AC0, XAR2
     615 0001f9 14A1          AADD XAR2, XAR3 ; |340| 
         0001fb B0   
     616 0001fc ED75          MOV dbl(*AR3(short(#2))), AC0 ; |340| 
         0001fe 08   
     617 0001ff ED04          MOV dbl(*SP(#2)), XAR3
         000201 BF   
     618 000202 EB75          MOV AC0, dbl(*AR3(short(#2))) ; |340| 
         000204 08   
     619                      .dwpsn  file "../c5535_bsl_revc/ezdsp5535_v1/c55xx_csl/src/csl_intc.c",line 343,column 5,is_stmt
     620 000205 ED31          MOV dbl(*(#_CSL_IRQ_DATA)), XAR3
         000207 BF00 
         000209 0000-
     621 00020b DF00          MOV uns(*SP(#0)), AC0 ; |343| 
         00020d 05   
     622 00020e 1005          SFTS AC0, #3, AC0 ; |343| 
         000210 03   
     623 000211 900A          MOV AC0, XAR2
     624 000213 14A1          AADD XAR2, XAR3 ; |343| 
         000215 B0   
     625 000216 ED79          MOV dbl(*AR3(short(#4))), AC0 ; |343| 
         000218 08   
     626 000219 ED04          MOV dbl(*SP(#2)), XAR3
         00021b BF   
     627 00021c EB79          MOV AC0, dbl(*AR3(short(#4))) ; |343| 
         00021e 08   
     628                      .dwpsn  file "../c5535_bsl_revc/ezdsp5535_v1/c55xx_csl/src/csl_intc.c",line 345,column 5,is_stmt
     629 00021f ED31          MOV dbl(*(#_CSL_IRQ_DATA)), XAR3
         000221 BF00 
         000223 0000-
     630 000225 DF00          MOV uns(*SP(#0)), AC0 ; |345| 
         000227 05   
     631 000228 1005          SFTS AC0, #3, AC0 ; |345| 
         00022a 03   
     632 00022b 900A          MOV AC0, XAR2
     633 00022d 14A1          AADD XAR2, XAR3 ; |345| 
         00022f B0   
     634 000230 ED7D          MOV dbl(*AR3(short(#6))), AC0 ; |345| 
         000232 08   
     635 000233 ED04          MOV dbl(*SP(#2)), XAR3
         000235 BF   
     636 000236 EB7D          MOV AC0, dbl(*AR3(short(#6))) ; |345| 
         000238 08   
TMS320C55x Assembler PC v4.4.1 Tue Oct 02 02:32:59 2018

Tools Copyright (c) 1996-2012 Texas Instruments Incorporated
csl_intc.asm                                                         PAGE   15

     637                      .dwpsn  file "../c5535_bsl_revc/ezdsp5535_v1/c55xx_csl/src/csl_intc.c",line 347,column 5,is_stmt
     638 000239 3C04          MOV #0, T0
     639 00023b       $C$L16:    
     640                      .dwpsn  file "../c5535_bsl_revc/ezdsp5535_v1/c55xx_csl/src/csl_intc.c",line 348,column 1,is_stmt
     641 00023b 4E05          AADD #5, SP
     642                      .dwcfi  cfa_offset, 1
     643              $C$DW$34        .dwtag  DW_TAG_TI_branch
     644                      .dwattr $C$DW$34, DW_AT_low_pc(0x00)
     645                      .dwattr $C$DW$34, DW_AT_TI_return
     646 00023d 4804          RET
     647                                                      ; return occurs
     648                      .dwattr $C$DW$29, DW_AT_TI_end_file("../c5535_bsl_revc/ezdsp5535_v1/c55xx_csl/src/csl_intc.c")
     649                      .dwattr $C$DW$29, DW_AT_TI_end_line(0x15c)
     650                      .dwattr $C$DW$29, DW_AT_TI_end_column(0x01)
     651                      .dwendentry
     652                      .dwendtag $C$DW$29
     653              
     654 00023f               .sect   ".text"
     655                      .align 4
     656                      .global _IRQ_disable
     657              
     658              $C$DW$35        .dwtag  DW_TAG_subprogram, DW_AT_name("IRQ_disable")
     659                      .dwattr $C$DW$35, DW_AT_low_pc(_IRQ_disable)
     660                      .dwattr $C$DW$35, DW_AT_high_pc(0x00)
     661                      .dwattr $C$DW$35, DW_AT_TI_symbol_name("_IRQ_disable")
     662                      .dwattr $C$DW$35, DW_AT_external
     663                      .dwattr $C$DW$35, DW_AT_type(*$C$DW$T$10)
     664                      .dwattr $C$DW$35, DW_AT_TI_begin_file("../c5535_bsl_revc/ezdsp5535_v1/c55xx_csl/src/csl_intc.c")
     665                      .dwattr $C$DW$35, DW_AT_TI_begin_line(0x182)
     666                      .dwattr $C$DW$35, DW_AT_TI_begin_column(0x05)
     667                      .dwattr $C$DW$35, DW_AT_TI_max_frame_size(0x06)
     668                      .dwpsn  file "../c5535_bsl_revc/ezdsp5535_v1/c55xx_csl/src/csl_intc.c",line 389,column 1,is_stmt,addr
     669              
     670                      .dwfde $C$DW$CIE, _IRQ_disable
     671              $C$DW$36        .dwtag  DW_TAG_formal_parameter, DW_AT_name("EventId")
     672                      .dwattr $C$DW$36, DW_AT_TI_symbol_name("_EventId")
     673                      .dwattr $C$DW$36, DW_AT_type(*$C$DW$T$28)
     674                      .dwattr $C$DW$36, DW_AT_location[DW_OP_reg12]
     675              ;*******************************************************************************
     676              ;* FUNCTION NAME: IRQ_disable                                                  *
     677              ;*                                                                             *
     678              ;*   Function Uses Regs : AC0,AC0,T0,T1,AR1,AR2,SP,CARRY,TC1,M40,SATA,SATD,RDM,*
     679              ;*                        FRCT,SMUL                                            *
     680              ;*   Stack Frame        : Compact (No Frame Pointer, w/ debug)                 *
     681              ;*   Total Frame Size   : 6 words                                              *
     682              ;*                        (2 return address/alignment)                         *
     683              ;*                        (4 local values)                                     *
     684              ;*   Min System Stack   : 1 word                                               *
     685              ;*******************************************************************************
     686 000240       _IRQ_disable:
     687                      .dwcfi  cfa_offset, 1
     688                      .dwcfi  save_reg_to_mem, 91, -1
     689 000240 4EFB          AADD #-5, SP
     690                      .dwcfi  cfa_offset, 6
     691              $C$DW$37        .dwtag  DW_TAG_variable, DW_AT_name("EventId")
TMS320C55x Assembler PC v4.4.1 Tue Oct 02 02:32:59 2018

Tools Copyright (c) 1996-2012 Texas Instruments Incorporated
csl_intc.asm                                                         PAGE   16

     692                      .dwattr $C$DW$37, DW_AT_TI_symbol_name("_EventId")
     693                      .dwattr $C$DW$37, DW_AT_type(*$C$DW$T$28)
     694                      .dwattr $C$DW$37, DW_AT_location[DW_OP_bregx 0x24 0]
     695              $C$DW$38        .dwtag  DW_TAG_variable, DW_AT_name("bit")
     696                      .dwattr $C$DW$38, DW_AT_TI_symbol_name("_bit")
     697                      .dwattr $C$DW$38, DW_AT_type(*$C$DW$T$28)
     698                      .dwattr $C$DW$38, DW_AT_location[DW_OP_bregx 0x24 1]
     699              $C$DW$39        .dwtag  DW_TAG_variable, DW_AT_name("old_flag")
     700                      .dwattr $C$DW$39, DW_AT_TI_symbol_name("_old_flag")
     701                      .dwattr $C$DW$39, DW_AT_type(*$C$DW$T$10)
     702                      .dwattr $C$DW$39, DW_AT_location[DW_OP_bregx 0x24 2]
     703              $C$DW$40        .dwtag  DW_TAG_variable, DW_AT_name("old_intm")
     704                      .dwattr $C$DW$40, DW_AT_TI_symbol_name("_old_intm")
     705                      .dwattr $C$DW$40, DW_AT_type(*$C$DW$T$41)
     706                      .dwattr $C$DW$40, DW_AT_location[DW_OP_bregx 0x24 3]
     707 000242 C400          MOV T0, *SP(#0) ; |389| 
     708                      .dwpsn  file "../c5535_bsl_revc/ezdsp5535_v1/c55xx_csl/src/csl_intc.c",line 394,column 5,is_stmt
     709              
     710 000244 7600          MOV #31, AR2 ; |394| 
         000246 1FA8 
     711 000248 2349  ||      MOV T0, AR1
     712              
     713 00024a 12A8          CMPU AR2 >= AR1, TC1 ; |394| 
         00024c 94   
     714 00024d 62E4          BCC $C$L17,TC1 ; |394| 
     715                                                      ; branchcc occurs ; |394| 
     716                      .dwpsn  file "../c5535_bsl_revc/ezdsp5535_v1/c55xx_csl/src/csl_intc.c",line 396,column 9,is_stmt
     717 00024f 3E64          MOV #-6, T0
     718 000251 0600          B $C$L20  ; |396| 
         000253 66   
     719                                                      ; branch occurs ; |396| 
     720 000254       $C$L17:    
     721                      .dwpsn  file "../c5535_bsl_revc/ezdsp5535_v1/c55xx_csl/src/csl_intc.c",line 399,column 5,is_stmt
     722 000254 C902          MOV AR1, *SP(#1) ; |399| 
     723                      .dwpsn  file "../c5535_bsl_revc/ezdsp5535_v1/c55xx_csl/src/csl_intc.c",line 400,column 5,is_stmt
     724              $C$DW$41        .dwtag  DW_TAG_TI_branch
     725                      .dwattr $C$DW$41, DW_AT_low_pc(0x00)
     726                      .dwattr $C$DW$41, DW_AT_name("_IRQ_globalDisable")
     727                      .dwattr $C$DW$41, DW_AT_TI_call
     728 000256 0802          CALL #_IRQ_globalDisable ; |400| 
         000258 CB   
     729                                                      ; call occurs [#_IRQ_globalDisable] ; |400| 
     730 000259 C406          MOV T0, *SP(#3) ; |400| 
     731                      .dwpsn  file "../c5535_bsl_revc/ezdsp5535_v1/c55xx_csl/src/csl_intc.c",line 402,column 5,is_stmt
     732              
     733 00025b A900          MOV *SP(#0), AR1 ; |402| 
     734 00025d 3DFA  ||      MOV #15, AR2
     735              
     736 00025f 12A8          CMPU AR1 <= AR2, TC1 ; |402| 
         000261 94   
     737 000262 0464          BCC $C$L18,TC1 ; |402| 
         000264 2A   
     738                                                      ; branchcc occurs ; |402| 
     739                      .dwpsn  file "../c5535_bsl_revc/ezdsp5535_v1/c55xx_csl/src/csl_intc.c",line 405,column 9,is_stmt
     740 000265 F702          SUB #16, *SP(#1) ; |405| 
TMS320C55x Assembler PC v4.4.1 Tue Oct 02 02:32:59 2018

Tools Copyright (c) 1996-2012 Texas Instruments Incorporated
csl_intc.asm                                                         PAGE   17

         000267 FFF0 
     741                      .dwpsn  file "../c5535_bsl_revc/ezdsp5535_v1/c55xx_csl/src/csl_intc.c",line 406,column 9,is_stmt
     742 000269 DF31          MOV uns(*(#69)), AC0 ; |406| 
         00026b 0500 
         00026d 0045 
     743 00026f A902          MOV *SP(#1), AR1 ; |406| 
     744 000271 3495          NEG AR1, T1 ; |406| 
     745 000273 5C05          SFTS AC0, T1, AC0 ; |406| 
     746 000275 1801          AND #0x0001, AC0, AC0 ; |406| 
         000277 00   
     747 000278 C004          MOV AC0, *SP(#2) ; |406| 
     748                      .dwpsn  file "../c5535_bsl_revc/ezdsp5535_v1/c55xx_csl/src/csl_intc.c",line 407,column 9,is_stmt
     749              
     750 00027a A502          MOV *SP(#1), T1 ; |407| 
     751 00027c 3D10  ||      MOV #1, AC0
     752              
     753 00027e 5C05          SFTS AC0, T1, AC0 ; |407| 
     754 000280 3609          NOT AC0, AR1 ; |407| 
     755 000282 D931          AND *(#69), AR1, AC0 ; |407| 
         000284 0900 
         000286 0045 
     756 000288 C031          MOV AC0, *(#69) ; |407| 
         00028a 0000 
         00028c 45   
     757                      .dwpsn  file "../c5535_bsl_revc/ezdsp5535_v1/c55xx_csl/src/csl_intc.c",line 408,column 5,is_stmt
     758 00028d 4A24          B $C$L19  ; |408| 
     759                                                      ; branch occurs ; |408| 
     760 00028f       $C$L18:    
     761                      .dwpsn  file "../c5535_bsl_revc/ezdsp5535_v1/c55xx_csl/src/csl_intc.c",line 412,column 9,is_stmt
     762 00028f A902          MOV *SP(#1), AR1 ; |412| 
     763 000291 DF31          MOV uns(*(#0)), AC0 ; |412| 
         000293 0500 
         000295 0000 
     764 000297 3495          NEG AR1, T1 ; |412| 
     765 000299 5C05          SFTS AC0, T1, AC0 ; |412| 
     766 00029b 1801          AND #0x0001, AC0, AC0 ; |412| 
         00029d 00   
     767 00029e C004          MOV AC0, *SP(#2) ; |412| 
     768                      .dwpsn  file "../c5535_bsl_revc/ezdsp5535_v1/c55xx_csl/src/csl_intc.c",line 413,column 9,is_stmt
     769              
     770 0002a2 3D10          MOV #1, AC0
     771 0002a0 A502  ||      MOV *SP(#1), T1 ; |413| 
     772              
     773 0002a4 5C05          SFTS AC0, T1, AC0 ; |413| 
     774 0002a6 3609          NOT AC0, AR1 ; |413| 
     775 0002a8 D931          AND *(#0), AR1, AC0 ; |413| 
         0002aa 0900 
         0002ac 0000 
     776 0002ae C031          MOV AC0, *(#0) ; |413| 
         0002b0 0000 
         0002b2 00   
     777 0002b3       $C$L19:    
     778                      .dwpsn  file "../c5535_bsl_revc/ezdsp5535_v1/c55xx_csl/src/csl_intc.c",line 415,column 5,is_stmt
     779 0002b3 A406          MOV *SP(#3), T0 ; |415| 
     780              $C$DW$42        .dwtag  DW_TAG_TI_branch
TMS320C55x Assembler PC v4.4.1 Tue Oct 02 02:32:59 2018

Tools Copyright (c) 1996-2012 Texas Instruments Incorporated
csl_intc.asm                                                         PAGE   18

     781                      .dwattr $C$DW$42, DW_AT_low_pc(0x00)
     782                      .dwattr $C$DW$42, DW_AT_name("_IRQ_globalRestore")
     783                      .dwattr $C$DW$42, DW_AT_TI_call
     784 0002b5 0802          CALL #_IRQ_globalRestore ; |415| 
         0002b7 A4   
     785                                                      ; call occurs [#_IRQ_globalRestore] ; |415| 
     786                      .dwpsn  file "../c5535_bsl_revc/ezdsp5535_v1/c55xx_csl/src/csl_intc.c",line 417,column 5,is_stmt
     787 0002b8 A404          MOV *SP(#2), T0 ; |417| 
     788 0002ba       $C$L20:    
     789                      .dwpsn  file "../c5535_bsl_revc/ezdsp5535_v1/c55xx_csl/src/csl_intc.c",line 418,column 1,is_stmt
     790 0002ba 4E05          AADD #5, SP
     791                      .dwcfi  cfa_offset, 1
     792              $C$DW$43        .dwtag  DW_TAG_TI_branch
     793                      .dwattr $C$DW$43, DW_AT_low_pc(0x00)
     794                      .dwattr $C$DW$43, DW_AT_TI_return
     795 0002bc 4804          RET
     796                                                      ; return occurs
     797                      .dwattr $C$DW$35, DW_AT_TI_end_file("../c5535_bsl_revc/ezdsp5535_v1/c55xx_csl/src/csl_intc.c")
     798                      .dwattr $C$DW$35, DW_AT_TI_end_line(0x1a2)
     799                      .dwattr $C$DW$35, DW_AT_TI_end_column(0x01)
     800                      .dwendentry
     801                      .dwendtag $C$DW$35
     802              
     803 0002be               .sect   ".text"
     804                      .align 4
     805                      .global _IRQ_disableAll
     806              
     807              $C$DW$44        .dwtag  DW_TAG_subprogram, DW_AT_name("IRQ_disableAll")
     808                      .dwattr $C$DW$44, DW_AT_low_pc(_IRQ_disableAll)
     809                      .dwattr $C$DW$44, DW_AT_high_pc(0x00)
     810                      .dwattr $C$DW$44, DW_AT_TI_symbol_name("_IRQ_disableAll")
     811                      .dwattr $C$DW$44, DW_AT_external
     812                      .dwattr $C$DW$44, DW_AT_TI_begin_file("../c5535_bsl_revc/ezdsp5535_v1/c55xx_csl/src/csl_intc.c")
     813                      .dwattr $C$DW$44, DW_AT_TI_begin_line(0x1c4)
     814                      .dwattr $C$DW$44, DW_AT_TI_begin_column(0x06)
     815                      .dwattr $C$DW$44, DW_AT_TI_max_frame_size(0x01)
     816                      .dwpsn  file "../c5535_bsl_revc/ezdsp5535_v1/c55xx_csl/src/csl_intc.c",line 453,column 1,is_stmt,addr
     817              
     818                      .dwfde $C$DW$CIE, _IRQ_disableAll
     819              ;*******************************************************************************
     820              ;* FUNCTION NAME: IRQ_disableAll                                               *
     821              ;*                                                                             *
     822              ;*   Function Uses Regs : SP,M40,SATA,SATD,RDM,FRCT,SMUL                       *
     823              ;*   Stack Frame        : Compact (No Frame Pointer, w/ debug)                 *
     824              ;*   Total Frame Size   : 1 word                                               *
     825              ;*                        (1 return address/alignment)                         *
     826              ;*   Min System Stack   : 1 word                                               *
     827              ;*******************************************************************************
     828 0002c0       _IRQ_disableAll:
     829                      .dwcfi  cfa_offset, 1
     830                      .dwcfi  save_reg_to_mem, 91, -1
     831                      .dwpsn  file "../c5535_bsl_revc/ezdsp5535_v1/c55xx_csl/src/csl_intc.c",line 455,column 2,is_stmt
     832 0002c0 E631          MOV #0, *(#0) ; |455| 
         0002c2 0000 
         0002c4 0000 
TMS320C55x Assembler PC v4.4.1 Tue Oct 02 02:32:59 2018

Tools Copyright (c) 1996-2012 Texas Instruments Incorporated
csl_intc.asm                                                         PAGE   19

     833                      .dwpsn  file "../c5535_bsl_revc/ezdsp5535_v1/c55xx_csl/src/csl_intc.c",line 458,column 2,is_stmt
     834 0002c6 E631          MOV #0, *(#69) ; |458| 
         0002c8 0000 
         0002ca 0045 
     835                      .dwpsn  file "../c5535_bsl_revc/ezdsp5535_v1/c55xx_csl/src/csl_intc.c",line 459,column 1,is_stmt
     836              $C$DW$45        .dwtag  DW_TAG_TI_branch
     837                      .dwattr $C$DW$45, DW_AT_low_pc(0x00)
     838                      .dwattr $C$DW$45, DW_AT_TI_return
     839 0002cc 4804          RET
     840                                                      ; return occurs
     841                      .dwattr $C$DW$44, DW_AT_TI_end_file("../c5535_bsl_revc/ezdsp5535_v1/c55xx_csl/src/csl_intc.c")
     842                      .dwattr $C$DW$44, DW_AT_TI_end_line(0x1cb)
     843                      .dwattr $C$DW$44, DW_AT_TI_end_column(0x01)
     844                      .dwendentry
     845                      .dwendtag $C$DW$44
     846              
     847 0002ce               .sect   ".text"
     848                      .align 4
     849                      .global _IRQ_enable
     850              
     851              $C$DW$46        .dwtag  DW_TAG_subprogram, DW_AT_name("IRQ_enable")
     852                      .dwattr $C$DW$46, DW_AT_low_pc(_IRQ_enable)
     853                      .dwattr $C$DW$46, DW_AT_high_pc(0x00)
     854                      .dwattr $C$DW$46, DW_AT_TI_symbol_name("_IRQ_enable")
     855                      .dwattr $C$DW$46, DW_AT_external
     856                      .dwattr $C$DW$46, DW_AT_type(*$C$DW$T$10)
     857                      .dwattr $C$DW$46, DW_AT_TI_begin_file("../c5535_bsl_revc/ezdsp5535_v1/c55xx_csl/src/csl_intc.c")
     858                      .dwattr $C$DW$46, DW_AT_TI_begin_line(0x1f0)
     859                      .dwattr $C$DW$46, DW_AT_TI_begin_column(0x05)
     860                      .dwattr $C$DW$46, DW_AT_TI_max_frame_size(0x06)
     861                      .dwpsn  file "../c5535_bsl_revc/ezdsp5535_v1/c55xx_csl/src/csl_intc.c",line 499,column 1,is_stmt,addr
     862              
     863                      .dwfde $C$DW$CIE, _IRQ_enable
     864              $C$DW$47        .dwtag  DW_TAG_formal_parameter, DW_AT_name("EventId")
     865                      .dwattr $C$DW$47, DW_AT_TI_symbol_name("_EventId")
     866                      .dwattr $C$DW$47, DW_AT_type(*$C$DW$T$28)
     867                      .dwattr $C$DW$47, DW_AT_location[DW_OP_reg12]
     868              ;*******************************************************************************
     869              ;* FUNCTION NAME: IRQ_enable                                                   *
     870              ;*                                                                             *
     871              ;*   Function Uses Regs : AC0,AC0,T0,T1,AR1,AR2,SP,CARRY,TC1,M40,SATA,SATD,RDM,*
     872              ;*                        FRCT,SMUL                                            *
     873              ;*   Stack Frame        : Compact (No Frame Pointer, w/ debug)                 *
     874              ;*   Total Frame Size   : 6 words                                              *
     875              ;*                        (2 return address/alignment)                         *
     876              ;*                        (4 local values)                                     *
     877              ;*   Min System Stack   : 1 word                                               *
     878              ;*******************************************************************************
     879 0002d0       _IRQ_enable:
     880                      .dwcfi  cfa_offset, 1
     881                      .dwcfi  save_reg_to_mem, 91, -1
     882 0002d0 4EFB          AADD #-5, SP
     883                      .dwcfi  cfa_offset, 6
     884              $C$DW$48        .dwtag  DW_TAG_variable, DW_AT_name("EventId")
     885                      .dwattr $C$DW$48, DW_AT_TI_symbol_name("_EventId")
TMS320C55x Assembler PC v4.4.1 Tue Oct 02 02:32:59 2018

Tools Copyright (c) 1996-2012 Texas Instruments Incorporated
csl_intc.asm                                                         PAGE   20

     886                      .dwattr $C$DW$48, DW_AT_type(*$C$DW$T$28)
     887                      .dwattr $C$DW$48, DW_AT_location[DW_OP_bregx 0x24 0]
     888              $C$DW$49        .dwtag  DW_TAG_variable, DW_AT_name("bit")
     889                      .dwattr $C$DW$49, DW_AT_TI_symbol_name("_bit")
     890                      .dwattr $C$DW$49, DW_AT_type(*$C$DW$T$28)
     891                      .dwattr $C$DW$49, DW_AT_location[DW_OP_bregx 0x24 1]
     892              $C$DW$50        .dwtag  DW_TAG_variable, DW_AT_name("old_flag")
     893                      .dwattr $C$DW$50, DW_AT_TI_symbol_name("_old_flag")
     894                      .dwattr $C$DW$50, DW_AT_type(*$C$DW$T$10)
     895                      .dwattr $C$DW$50, DW_AT_location[DW_OP_bregx 0x24 2]
     896              $C$DW$51        .dwtag  DW_TAG_variable, DW_AT_name("old_intm")
     897                      .dwattr $C$DW$51, DW_AT_TI_symbol_name("_old_intm")
     898                      .dwattr $C$DW$51, DW_AT_type(*$C$DW$T$41)
     899                      .dwattr $C$DW$51, DW_AT_location[DW_OP_bregx 0x24 3]
     900 0002d2 C400          MOV T0, *SP(#0) ; |499| 
     901                      .dwpsn  file "../c5535_bsl_revc/ezdsp5535_v1/c55xx_csl/src/csl_intc.c",line 504,column 5,is_stmt
     902              
     903 0002d4 7600          MOV #31, AR2 ; |504| 
         0002d6 1FA8 
     904 0002d8 2349  ||      MOV T0, AR1
     905              
     906 0002da 12A8          CMPU AR2 >= AR1, TC1 ; |504| 
         0002dc 94   
     907 0002dd 62E4          BCC $C$L21,TC1 ; |504| 
     908                                                      ; branchcc occurs ; |504| 
     909                      .dwpsn  file "../c5535_bsl_revc/ezdsp5535_v1/c55xx_csl/src/csl_intc.c",line 506,column 9,is_stmt
     910 0002df 3E64          MOV #-6, T0
     911 0002e1 0600          B $C$L24  ; |506| 
         0002e3 72   
     912                                                      ; branch occurs ; |506| 
     913 0002e4       $C$L21:    
     914                      .dwpsn  file "../c5535_bsl_revc/ezdsp5535_v1/c55xx_csl/src/csl_intc.c",line 509,column 5,is_stmt
     915 0002e4 C902          MOV AR1, *SP(#1) ; |509| 
     916                      .dwpsn  file "../c5535_bsl_revc/ezdsp5535_v1/c55xx_csl/src/csl_intc.c",line 510,column 5,is_stmt
     917              $C$DW$52        .dwtag  DW_TAG_TI_branch
     918                      .dwattr $C$DW$52, DW_AT_low_pc(0x00)
     919                      .dwattr $C$DW$52, DW_AT_name("_IRQ_globalDisable")
     920                      .dwattr $C$DW$52, DW_AT_TI_call
     921 0002e6 0802          CALL #_IRQ_globalDisable ; |510| 
         0002e8 3B   
     922                                                      ; call occurs [#_IRQ_globalDisable] ; |510| 
     923 0002e9 C406          MOV T0, *SP(#3) ; |510| 
     924                      .dwpsn  file "../c5535_bsl_revc/ezdsp5535_v1/c55xx_csl/src/csl_intc.c",line 511,column 5,is_stmt
     925              
     926 0002eb A900          MOV *SP(#0), AR1 ; |511| 
     927 0002ed 3DFA  ||      MOV #15, AR2
     928              
     929 0002ef 12A8          CMPU AR1 <= AR2, TC1 ; |511| 
         0002f1 94   
     930 0002f2 0464          BCC $C$L22,TC1 ; |511| 
         0002f4 30   
     931                                                      ; branchcc occurs ; |511| 
     932                      .dwpsn  file "../c5535_bsl_revc/ezdsp5535_v1/c55xx_csl/src/csl_intc.c",line 513,column 9,is_stmt
     933 0002f5 F702          SUB #16, *SP(#1) ; |513| 
         0002f7 FFF0 
TMS320C55x Assembler PC v4.4.1 Tue Oct 02 02:32:59 2018

Tools Copyright (c) 1996-2012 Texas Instruments Incorporated
csl_intc.asm                                                         PAGE   21

     934                      .dwpsn  file "../c5535_bsl_revc/ezdsp5535_v1/c55xx_csl/src/csl_intc.c",line 514,column 9,is_stmt
     935 0002f9 DF31          MOV uns(*(#69)), AC0 ; |514| 
         0002fb 0500 
         0002fd 0045 
     936 0002ff A902          MOV *SP(#1), AR1 ; |514| 
     937 000301 3495          NEG AR1, T1 ; |514| 
     938 000303 5C05          SFTS AC0, T1, AC0 ; |514| 
     939 000305 1801          AND #0x0001, AC0, AC0 ; |514| 
         000307 00   
     940 000308 C004          MOV AC0, *SP(#2) ; |514| 
     941                      .dwpsn  file "../c5535_bsl_revc/ezdsp5535_v1/c55xx_csl/src/csl_intc.c",line 515,column 9,is_stmt
     942              
     943 00030c 3D10          MOV #1, AC0
     944 00030a A502  ||      MOV *SP(#1), T1 ; |515| 
     945              
     946 00030e 5C05          SFTS AC0, T1, AC0 ; |515| 
     947 000310 3609          NOT AC0, AR1 ; |515| 
     948 000312 D931          AND *(#69), AR1, AR1 ; |515| 
         000314 9900 
         000316 0045 
     949 000318 3C10          MOV #1, AC0
     950 00031a 5C05          SFTS AC0, T1, AC0 ; |515| 
     951 00031c 2A90          OR AR1, AC0 ; |515| 
     952 00031e C031          MOV AC0, *(#69) ; |515| 
         000320 0000 
         000322 45   
     953                      .dwpsn  file "../c5535_bsl_revc/ezdsp5535_v1/c55xx_csl/src/csl_intc.c",line 516,column 5,is_stmt
     954 000323 4A2A          B $C$L23  ; |516| 
     955                                                      ; branch occurs ; |516| 
     956 000325       $C$L22:    
     957                      .dwpsn  file "../c5535_bsl_revc/ezdsp5535_v1/c55xx_csl/src/csl_intc.c",line 519,column 9,is_stmt
     958 000325 A902          MOV *SP(#1), AR1 ; |519| 
     959 000327 DF31          MOV uns(*(#0)), AC0 ; |519| 
         000329 0500 
         00032b 0000 
     960 00032d 3495          NEG AR1, T1 ; |519| 
     961 00032f 5C05          SFTS AC0, T1, AC0 ; |519| 
     962 000331 1801          AND #0x0001, AC0, AC0 ; |519| 
         000333 00   
     963 000334 C004          MOV AC0, *SP(#2) ; |519| 
     964                      .dwpsn  file "../c5535_bsl_revc/ezdsp5535_v1/c55xx_csl/src/csl_intc.c",line 520,column 9,is_stmt
     965              
     966 000338 3D10          MOV #1, AC0
     967 000336 A502  ||      MOV *SP(#1), T1 ; |520| 
     968              
     969 00033a 5C05          SFTS AC0, T1, AC0 ; |520| 
     970 00033c 3609          NOT AC0, AR1 ; |520| 
     971 00033e D931          AND *(#0), AR1, AR1 ; |520| 
         000340 9900 
         000342 0000 
     972 000344 3C10          MOV #1, AC0
     973 000346 5C05          SFTS AC0, T1, AC0 ; |520| 
     974 000348 2A90          OR AR1, AC0 ; |520| 
     975 00034a C031          MOV AC0, *(#0) ; |520| 
         00034c 0000 
TMS320C55x Assembler PC v4.4.1 Tue Oct 02 02:32:59 2018

Tools Copyright (c) 1996-2012 Texas Instruments Incorporated
csl_intc.asm                                                         PAGE   22

         00034e 00   
     976 00034f       $C$L23:    
     977                      .dwpsn  file "../c5535_bsl_revc/ezdsp5535_v1/c55xx_csl/src/csl_intc.c",line 523,column 5,is_stmt
     978 00034f A406          MOV *SP(#3), T0 ; |523| 
     979              $C$DW$53        .dwtag  DW_TAG_TI_branch
     980                      .dwattr $C$DW$53, DW_AT_low_pc(0x00)
     981                      .dwattr $C$DW$53, DW_AT_name("_IRQ_globalRestore")
     982                      .dwattr $C$DW$53, DW_AT_TI_call
     983 000351 0802          CALL #_IRQ_globalRestore ; |523| 
         000353 08   
     984                                                      ; call occurs [#_IRQ_globalRestore] ; |523| 
     985                      .dwpsn  file "../c5535_bsl_revc/ezdsp5535_v1/c55xx_csl/src/csl_intc.c",line 525,column 5,is_stmt
     986 000354 A404          MOV *SP(#2), T0 ; |525| 
     987 000356       $C$L24:    
     988                      .dwpsn  file "../c5535_bsl_revc/ezdsp5535_v1/c55xx_csl/src/csl_intc.c",line 526,column 1,is_stmt
     989 000356 4E05          AADD #5, SP
     990                      .dwcfi  cfa_offset, 1
     991              $C$DW$54        .dwtag  DW_TAG_TI_branch
     992                      .dwattr $C$DW$54, DW_AT_low_pc(0x00)
     993                      .dwattr $C$DW$54, DW_AT_TI_return
     994 000358 4804          RET
     995                                                      ; return occurs
     996                      .dwattr $C$DW$46, DW_AT_TI_end_file("../c5535_bsl_revc/ezdsp5535_v1/c55xx_csl/src/csl_intc.c")
     997                      .dwattr $C$DW$46, DW_AT_TI_end_line(0x20e)
     998                      .dwattr $C$DW$46, DW_AT_TI_end_column(0x01)
     999                      .dwendentry
    1000                      .dwendtag $C$DW$46
    1001              
    1002 00035a               .sect   ".text"
    1003                      .align 4
    1004                      .global _IRQ_restore
    1005              
    1006              $C$DW$55        .dwtag  DW_TAG_subprogram, DW_AT_name("IRQ_restore")
    1007                      .dwattr $C$DW$55, DW_AT_low_pc(_IRQ_restore)
    1008                      .dwattr $C$DW$55, DW_AT_high_pc(0x00)
    1009                      .dwattr $C$DW$55, DW_AT_TI_symbol_name("_IRQ_restore")
    1010                      .dwattr $C$DW$55, DW_AT_external
    1011                      .dwattr $C$DW$55, DW_AT_type(*$C$DW$T$45)
    1012                      .dwattr $C$DW$55, DW_AT_TI_begin_file("../c5535_bsl_revc/ezdsp5535_v1/c55xx_csl/src/csl_intc.c")
    1013                      .dwattr $C$DW$55, DW_AT_TI_begin_line(0x234)
    1014                      .dwattr $C$DW$55, DW_AT_TI_begin_column(0x0c)
    1015                      .dwattr $C$DW$55, DW_AT_TI_max_frame_size(0x06)
    1016                      .dwpsn  file "../c5535_bsl_revc/ezdsp5535_v1/c55xx_csl/src/csl_intc.c",line 568,column 1,is_stmt,addr
    1017              
    1018                      .dwfde $C$DW$CIE, _IRQ_restore
    1019              $C$DW$56        .dwtag  DW_TAG_formal_parameter, DW_AT_name("EventId")
    1020                      .dwattr $C$DW$56, DW_AT_TI_symbol_name("_EventId")
    1021                      .dwattr $C$DW$56, DW_AT_type(*$C$DW$T$28)
    1022                      .dwattr $C$DW$56, DW_AT_location[DW_OP_reg12]
    1023              $C$DW$57        .dwtag  DW_TAG_formal_parameter, DW_AT_name("value")
    1024                      .dwattr $C$DW$57, DW_AT_TI_symbol_name("_value")
    1025                      .dwattr $C$DW$57, DW_AT_type(*$C$DW$T$10)
    1026                      .dwattr $C$DW$57, DW_AT_location[DW_OP_reg13]
    1027              ;*******************************************************************************
    1028              ;* FUNCTION NAME: IRQ_restore                                                  *
TMS320C55x Assembler PC v4.4.1 Tue Oct 02 02:32:59 2018

Tools Copyright (c) 1996-2012 Texas Instruments Incorporated
csl_intc.asm                                                         PAGE   23

    1029              ;*                                                                             *
    1030              ;*   Function Uses Regs : AC0,T0,T1,AR1,AR2,SP,CARRY,TC1,M40,SATA,SATD,RDM,    *
    1031              ;*                        FRCT,SMUL                                            *
    1032              ;*   Stack Frame        : Compact (No Frame Pointer, w/ debug)                 *
    1033              ;*   Total Frame Size   : 6 words                                              *
    1034              ;*                        (2 return address/alignment)                         *
    1035              ;*                        (4 local values)                                     *
    1036              ;*   Min System Stack   : 1 word                                               *
    1037              ;*******************************************************************************
    1038 00035c       _IRQ_restore:
    1039                      .dwcfi  cfa_offset, 1
    1040                      .dwcfi  save_reg_to_mem, 91, -1
    1041 00035c 4EFB          AADD #-5, SP
    1042                      .dwcfi  cfa_offset, 6
    1043              $C$DW$58        .dwtag  DW_TAG_variable, DW_AT_name("EventId")
    1044                      .dwattr $C$DW$58, DW_AT_TI_symbol_name("_EventId")
    1045                      .dwattr $C$DW$58, DW_AT_type(*$C$DW$T$28)
    1046                      .dwattr $C$DW$58, DW_AT_location[DW_OP_bregx 0x24 0]
    1047              $C$DW$59        .dwtag  DW_TAG_variable, DW_AT_name("value")
    1048                      .dwattr $C$DW$59, DW_AT_TI_symbol_name("_value")
    1049                      .dwattr $C$DW$59, DW_AT_type(*$C$DW$T$10)
    1050                      .dwattr $C$DW$59, DW_AT_location[DW_OP_bregx 0x24 1]
    1051              $C$DW$60        .dwtag  DW_TAG_variable, DW_AT_name("bit")
    1052                      .dwattr $C$DW$60, DW_AT_TI_symbol_name("_bit")
    1053                      .dwattr $C$DW$60, DW_AT_type(*$C$DW$T$28)
    1054                      .dwattr $C$DW$60, DW_AT_location[DW_OP_bregx 0x24 2]
    1055              $C$DW$61        .dwtag  DW_TAG_variable, DW_AT_name("old_intm")
    1056                      .dwattr $C$DW$61, DW_AT_TI_symbol_name("_old_intm")
    1057                      .dwattr $C$DW$61, DW_AT_type(*$C$DW$T$41)
    1058                      .dwattr $C$DW$61, DW_AT_location[DW_OP_bregx 0x24 3]
    1059 00035e C502          MOV T1, *SP(#1) ; |568| 
    1060 000360 C400          MOV T0, *SP(#0) ; |568| 
    1061                      .dwpsn  file "../c5535_bsl_revc/ezdsp5535_v1/c55xx_csl/src/csl_intc.c",line 573,column 5,is_stmt
    1062              
    1063 000362 7600          MOV #31, AR2 ; |573| 
         000364 1FA8 
    1064 000366 2349  ||      MOV T0, AR1
    1065              
    1066 000368 12A8          CMPU AR2 >= AR1, TC1 ; |573| 
         00036a 94   
    1067 00036b 62E4          BCC $C$L25,TC1 ; |573| 
    1068                                                      ; branchcc occurs ; |573| 
    1069                      .dwpsn  file "../c5535_bsl_revc/ezdsp5535_v1/c55xx_csl/src/csl_intc.c",line 575,column 9,is_stmt
    1070 00036d 3E64          MOV #-6, T0
    1071 00036f 0600          B $C$L28  ; |575| 
         000371 56   
    1072                                                      ; branch occurs ; |575| 
    1073 000372       $C$L25:    
    1074                      .dwpsn  file "../c5535_bsl_revc/ezdsp5535_v1/c55xx_csl/src/csl_intc.c",line 578,column 5,is_stmt
    1075 000372 C904          MOV AR1, *SP(#2) ; |578| 
    1076                      .dwpsn  file "../c5535_bsl_revc/ezdsp5535_v1/c55xx_csl/src/csl_intc.c",line 579,column 5,is_stmt
    1077              $C$DW$62        .dwtag  DW_TAG_TI_branch
    1078                      .dwattr $C$DW$62, DW_AT_low_pc(0x00)
    1079                      .dwattr $C$DW$62, DW_AT_name("_IRQ_globalDisable")
    1080                      .dwattr $C$DW$62, DW_AT_TI_call
TMS320C55x Assembler PC v4.4.1 Tue Oct 02 02:32:59 2018

Tools Copyright (c) 1996-2012 Texas Instruments Incorporated
csl_intc.asm                                                         PAGE   24

    1081 000374 0801          CALL #_IRQ_globalDisable ; |579| 
         000376 AD   
    1082                                                      ; call occurs [#_IRQ_globalDisable] ; |579| 
    1083 000377 C406          MOV T0, *SP(#3) ; |579| 
    1084                      .dwpsn  file "../c5535_bsl_revc/ezdsp5535_v1/c55xx_csl/src/csl_intc.c",line 580,column 5,is_stmt
    1085              
    1086 000379 A900          MOV *SP(#0), AR1 ; |580| 
    1087 00037b 3DFA  ||      MOV #15, AR2
    1088              
    1089 00037d 12A8          CMPU AR1 <= AR2, TC1 ; |580| 
         00037f 94   
    1090 000380 0464          BCC $C$L26,TC1 ; |580| 
         000382 22   
    1091                                                      ; branchcc occurs ; |580| 
    1092                      .dwpsn  file "../c5535_bsl_revc/ezdsp5535_v1/c55xx_csl/src/csl_intc.c",line 582,column 9,is_stmt
    1093 000383 F704          SUB #16, *SP(#2) ; |582| 
         000385 FFF0 
    1094                      .dwpsn  file "../c5535_bsl_revc/ezdsp5535_v1/c55xx_csl/src/csl_intc.c",line 583,column 9,is_stmt
    1095              
    1096 000387 A504          MOV *SP(#2), T1 ; |583| 
    1097 000389 3D10  ||      MOV #1, AC0
    1098              
    1099 00038b 5C05          SFTS AC0, T1, AC0 ; |583| 
    1100              
    1101 00038f 3709          NOT AC0, AR1 ; |583| 
    1102 00038d AA02  ||      MOV *SP(#1), AR2 ; |583| 
    1103              
    1104 000391 D931          AND *(#69), AR1, AR1 ; |583| 
         000393 9900 
         000395 0045 
    1105 000397 1801          AND #0x0001, AR2, AC0 ; |583| 
         000399 0A   
    1106 00039a 5C05          SFTS AC0, T1, AC0 ; |583| 
    1107 00039c 2A90          OR AR1, AC0 ; |583| 
    1108 00039e C031          MOV AC0, *(#69) ; |583| 
         0003a0 0000 
         0003a2 45   
    1109                      .dwpsn  file "../c5535_bsl_revc/ezdsp5535_v1/c55xx_csl/src/csl_intc.c",line 584,column 5,is_stmt
    1110 0003a3 4A1C          B $C$L27  ; |584| 
    1111                                                      ; branch occurs ; |584| 
    1112 0003a5       $C$L26:    
    1113                      .dwpsn  file "../c5535_bsl_revc/ezdsp5535_v1/c55xx_csl/src/csl_intc.c",line 587,column 9,is_stmt
    1114              
    1115 0003a7 3D10          MOV #1, AC0
    1116 0003a5 A504  ||      MOV *SP(#2), T1 ; |587| 
    1117              
    1118 0003a9 5C05          SFTS AC0, T1, AC0 ; |587| 
    1119              
    1120 0003ad 3709          NOT AC0, AR1 ; |587| 
    1121 0003ab AA02  ||      MOV *SP(#1), AR2 ; |587| 
    1122              
    1123 0003af D931          AND *(#0), AR1, AR1 ; |587| 
         0003b1 9900 
         0003b3 0000 
    1124 0003b5 1801          AND #0x0001, AR2, AC0 ; |587| 
TMS320C55x Assembler PC v4.4.1 Tue Oct 02 02:32:59 2018

Tools Copyright (c) 1996-2012 Texas Instruments Incorporated
csl_intc.asm                                                         PAGE   25

         0003b7 0A   
    1125 0003b8 5C05          SFTS AC0, T1, AC0 ; |587| 
    1126 0003ba 2A90          OR AR1, AC0 ; |587| 
    1127 0003bc C031          MOV AC0, *(#0) ; |587| 
         0003be 0000 
         0003c0 00   
    1128 0003c1       $C$L27:    
    1129                      .dwpsn  file "../c5535_bsl_revc/ezdsp5535_v1/c55xx_csl/src/csl_intc.c",line 589,column 5,is_stmt
    1130 0003c1 A406          MOV *SP(#3), T0 ; |589| 
    1131              $C$DW$63        .dwtag  DW_TAG_TI_branch
    1132                      .dwattr $C$DW$63, DW_AT_low_pc(0x00)
    1133                      .dwattr $C$DW$63, DW_AT_name("_IRQ_globalRestore")
    1134                      .dwattr $C$DW$63, DW_AT_TI_call
    1135 0003c3 0801          CALL #_IRQ_globalRestore ; |589| 
         0003c5 96   
    1136                                                      ; call occurs [#_IRQ_globalRestore] ; |589| 
    1137                      .dwpsn  file "../c5535_bsl_revc/ezdsp5535_v1/c55xx_csl/src/csl_intc.c",line 591,column 5,is_stmt
    1138 0003c6 3C04          MOV #0, T0
    1139 0003c8       $C$L28:    
    1140                      .dwpsn  file "../c5535_bsl_revc/ezdsp5535_v1/c55xx_csl/src/csl_intc.c",line 592,column 1,is_stmt
    1141 0003c8 4E05          AADD #5, SP
    1142                      .dwcfi  cfa_offset, 1
    1143              $C$DW$64        .dwtag  DW_TAG_TI_branch
    1144                      .dwattr $C$DW$64, DW_AT_low_pc(0x00)
    1145                      .dwattr $C$DW$64, DW_AT_TI_return
    1146 0003ca 4804          RET
    1147                                                      ; return occurs
    1148                      .dwattr $C$DW$55, DW_AT_TI_end_file("../c5535_bsl_revc/ezdsp5535_v1/c55xx_csl/src/csl_intc.c")
    1149                      .dwattr $C$DW$55, DW_AT_TI_end_line(0x250)
    1150                      .dwattr $C$DW$55, DW_AT_TI_end_column(0x01)
    1151                      .dwendentry
    1152                      .dwendtag $C$DW$55
    1153              
    1154 0003cc               .sect   ".text"
    1155                      .align 4
    1156                      .global _IRQ_getArg
    1157              
    1158              $C$DW$65        .dwtag  DW_TAG_subprogram, DW_AT_name("IRQ_getArg")
    1159                      .dwattr $C$DW$65, DW_AT_low_pc(_IRQ_getArg)
    1160                      .dwattr $C$DW$65, DW_AT_high_pc(0x00)
    1161                      .dwattr $C$DW$65, DW_AT_TI_symbol_name("_IRQ_getArg")
    1162                      .dwattr $C$DW$65, DW_AT_external
    1163                      .dwattr $C$DW$65, DW_AT_type(*$C$DW$T$45)
    1164                      .dwattr $C$DW$65, DW_AT_TI_begin_file("../c5535_bsl_revc/ezdsp5535_v1/c55xx_csl/src/csl_intc.c")
    1165                      .dwattr $C$DW$65, DW_AT_TI_begin_line(0x277)
    1166                      .dwattr $C$DW$65, DW_AT_TI_begin_column(0x0c)
    1167                      .dwattr $C$DW$65, DW_AT_TI_max_frame_size(0x06)
    1168                      .dwpsn  file "../c5535_bsl_revc/ezdsp5535_v1/c55xx_csl/src/csl_intc.c",line 635,column 1,is_stmt,addr
    1169              
    1170                      .dwfde $C$DW$CIE, _IRQ_getArg
    1171              $C$DW$66        .dwtag  DW_TAG_formal_parameter, DW_AT_name("EventId")
    1172                      .dwattr $C$DW$66, DW_AT_TI_symbol_name("_EventId")
    1173                      .dwattr $C$DW$66, DW_AT_type(*$C$DW$T$28)
    1174                      .dwattr $C$DW$66, DW_AT_location[DW_OP_reg12]
    1175              $C$DW$67        .dwtag  DW_TAG_formal_parameter, DW_AT_name("arg")
TMS320C55x Assembler PC v4.4.1 Tue Oct 02 02:32:59 2018

Tools Copyright (c) 1996-2012 Texas Instruments Incorporated
csl_intc.asm                                                         PAGE   26

    1176                      .dwattr $C$DW$67, DW_AT_TI_symbol_name("_arg")
    1177                      .dwattr $C$DW$67, DW_AT_type(*$C$DW$T$50)
    1178                      .dwattr $C$DW$67, DW_AT_location[DW_OP_reg17]
    1179              ;*******************************************************************************
    1180              ;* FUNCTION NAME: IRQ_getArg                                                   *
    1181              ;*                                                                             *
    1182              ;*   Function Uses Regs : AC0,AC0,AC1,AC1,T0,AR0,XAR0,AR1,AR2,XAR2,AR3,XAR3,SP,*
    1183              ;*                        TC1,M40,SATA,SATD,RDM,FRCT,SMUL                      *
    1184              ;*   Stack Frame        : Compact (No Frame Pointer, w/ debug)                 *
    1185              ;*   Total Frame Size   : 6 words                                              *
    1186              ;*                        (2 return address/alignment)                         *
    1187              ;*                        (4 local values)                                     *
    1188              ;*   Min System Stack   : 1 word                                               *
    1189              ;*******************************************************************************
    1190 0003cc       _IRQ_getArg:
    1191                      .dwcfi  cfa_offset, 1
    1192                      .dwcfi  save_reg_to_mem, 91, -1
    1193 0003cc 4EFB          AADD #-5, SP
    1194                      .dwcfi  cfa_offset, 6
    1195              $C$DW$68        .dwtag  DW_TAG_variable, DW_AT_name("EventId")
    1196                      .dwattr $C$DW$68, DW_AT_TI_symbol_name("_EventId")
    1197                      .dwattr $C$DW$68, DW_AT_type(*$C$DW$T$28)
    1198                      .dwattr $C$DW$68, DW_AT_location[DW_OP_bregx 0x24 0]
    1199              $C$DW$69        .dwtag  DW_TAG_variable, DW_AT_name("arg")
    1200                      .dwattr $C$DW$69, DW_AT_TI_symbol_name("_arg")
    1201                      .dwattr $C$DW$69, DW_AT_type(*$C$DW$T$50)
    1202                      .dwattr $C$DW$69, DW_AT_location[DW_OP_bregx 0x24 2]
    1203 0003ce EB04          MOV XAR0, dbl(*SP(#2))
         0003d0 85   
    1204 0003d1 C400          MOV T0, *SP(#0) ; |635| 
    1205                      .dwpsn  file "../c5535_bsl_revc/ezdsp5535_v1/c55xx_csl/src/csl_intc.c",line 636,column 5,is_stmt
    1206 0003d3 ED04          MOV dbl(*SP(#2)), XAR3
         0003d5 BF   
    1207              
    1208 0003d6 90B0          MOV XAR3, AC0
    1209 0003d8 3D01  ||      MOV #0, AC1 ; |636| 
    1210              
    1211 0003da 121C          CMPU AC1 != AC0, TC1 ; |636| 
         0003dc 04   
    1212 0003dd 6264          BCC $C$L29,TC1 ; |636| 
    1213                                                      ; branchcc occurs ; |636| 
    1214                      .dwpsn  file "../c5535_bsl_revc/ezdsp5535_v1/c55xx_csl/src/csl_intc.c",line 638,column 9,is_stmt
    1215 0003df 3E64          MOV #-6, T0
    1216 0003e1 4A2B          B $C$L31  ; |638| 
    1217                                                      ; branch occurs ; |638| 
    1218 0003e3       $C$L29:    
    1219                      .dwpsn  file "../c5535_bsl_revc/ezdsp5535_v1/c55xx_csl/src/csl_intc.c",line 642,column 5,is_stmt
    1220              
    1221 0003e3 7600          MOV #31, AR2 ; |642| 
         0003e5 1FA8 
    1222 0003e7 2349  ||      MOV T0, AR1
    1223              
    1224 0003e9 12A8          CMPU AR2 >= AR1, TC1 ; |642| 
         0003eb 94   
    1225 0003ec 6264          BCC $C$L30,TC1 ; |642| 
TMS320C55x Assembler PC v4.4.1 Tue Oct 02 02:32:59 2018

Tools Copyright (c) 1996-2012 Texas Instruments Incorporated
csl_intc.asm                                                         PAGE   27

    1226                                                      ; branchcc occurs ; |642| 
    1227                      .dwpsn  file "../c5535_bsl_revc/ezdsp5535_v1/c55xx_csl/src/csl_intc.c",line 644,column 9,is_stmt
    1228 0003ee 3E64          MOV #-6, T0
    1229 0003f0 4A1C          B $C$L31  ; |644| 
    1230                                                      ; branch occurs ; |644| 
    1231 0003f2       $C$L30:    
    1232                      .dwpsn  file "../c5535_bsl_revc/ezdsp5535_v1/c55xx_csl/src/csl_intc.c",line 646,column 5,is_stmt
    1233 0003f2 ED31          MOV dbl(*(#_CSL_IRQ_DATA)), XAR3
         0003f4 BF00 
         0003f6 0000-
    1234 0003f8 DF00          MOV uns(*SP(#0)), AC0 ; |646| 
         0003fa 05   
    1235 0003fb 1005          SFTS AC0, #3, AC0 ; |646| 
         0003fd 03   
    1236 0003fe 900A          MOV AC0, XAR2
    1237 000400 14A1          AADD XAR2, XAR3 ; |646| 
         000402 B0   
    1238 000403 ED04          MOV dbl(*SP(#2)), XAR2
         000405 AF   
    1239 000406 1402          AADD #2, AR3 ; |646| 
         000408 B4   
    1240 000409 8061          MOV dbl(*AR3), dbl(*AR2) ; |646| 
         00040b 00   
    1241                      .dwpsn  file "../c5535_bsl_revc/ezdsp5535_v1/c55xx_csl/src/csl_intc.c",line 648,column 5,is_stmt
    1242 00040c 3C04          MOV #0, T0
    1243 00040e       $C$L31:    
    1244                      .dwpsn  file "../c5535_bsl_revc/ezdsp5535_v1/c55xx_csl/src/csl_intc.c",line 649,column 1,is_stmt
    1245 00040e 4E05          AADD #5, SP
    1246                      .dwcfi  cfa_offset, 1
    1247              $C$DW$70        .dwtag  DW_TAG_TI_branch
    1248                      .dwattr $C$DW$70, DW_AT_low_pc(0x00)
    1249                      .dwattr $C$DW$70, DW_AT_TI_return
    1250 000410 4804          RET
    1251                                                      ; return occurs
    1252                      .dwattr $C$DW$65, DW_AT_TI_end_file("../c5535_bsl_revc/ezdsp5535_v1/c55xx_csl/src/csl_intc.c")
    1253                      .dwattr $C$DW$65, DW_AT_TI_end_line(0x289)
    1254                      .dwattr $C$DW$65, DW_AT_TI_end_column(0x01)
    1255                      .dwendentry
    1256                      .dwendtag $C$DW$65
    1257              
    1258 000412               .sect   ".text"
    1259                      .align 4
    1260                      .global _IRQ_setArg
    1261              
    1262              $C$DW$71        .dwtag  DW_TAG_subprogram, DW_AT_name("IRQ_setArg")
    1263                      .dwattr $C$DW$71, DW_AT_low_pc(_IRQ_setArg)
    1264                      .dwattr $C$DW$71, DW_AT_high_pc(0x00)
    1265                      .dwattr $C$DW$71, DW_AT_TI_symbol_name("_IRQ_setArg")
    1266                      .dwattr $C$DW$71, DW_AT_external
    1267                      .dwattr $C$DW$71, DW_AT_type(*$C$DW$T$45)
    1268                      .dwattr $C$DW$71, DW_AT_TI_begin_file("../c5535_bsl_revc/ezdsp5535_v1/c55xx_csl/src/csl_intc.c")
    1269                      .dwattr $C$DW$71, DW_AT_TI_begin_line(0x2b3)
    1270                      .dwattr $C$DW$71, DW_AT_TI_begin_column(0x0c)
    1271                      .dwattr $C$DW$71, DW_AT_TI_max_frame_size(0x06)
    1272                      .dwpsn  file "../c5535_bsl_revc/ezdsp5535_v1/c55xx_csl/src/csl_intc.c",line 695,column 1,is_stmt,addr
TMS320C55x Assembler PC v4.4.1 Tue Oct 02 02:32:59 2018

Tools Copyright (c) 1996-2012 Texas Instruments Incorporated
csl_intc.asm                                                         PAGE   28

    1273              
    1274                      .dwfde $C$DW$CIE, _IRQ_setArg
    1275              $C$DW$72        .dwtag  DW_TAG_formal_parameter, DW_AT_name("EventId")
    1276                      .dwattr $C$DW$72, DW_AT_TI_symbol_name("_EventId")
    1277                      .dwattr $C$DW$72, DW_AT_type(*$C$DW$T$28)
    1278                      .dwattr $C$DW$72, DW_AT_location[DW_OP_reg12]
    1279              $C$DW$73        .dwtag  DW_TAG_formal_parameter, DW_AT_name("val")
    1280                      .dwattr $C$DW$73, DW_AT_TI_symbol_name("_val")
    1281                      .dwattr $C$DW$73, DW_AT_type(*$C$DW$T$22)
    1282                      .dwattr $C$DW$73, DW_AT_location[DW_OP_reg0]
    1283              ;*******************************************************************************
    1284              ;* FUNCTION NAME: IRQ_setArg                                                   *
    1285              ;*                                                                             *
    1286              ;*   Function Uses Regs : AC0,AC0,T0,AR1,AR2,XAR2,AR3,XAR3,SP,TC1,M40,SATA,    *
    1287              ;*                        SATD,RDM,FRCT,SMUL                                   *
    1288              ;*   Stack Frame        : Compact (No Frame Pointer, w/ debug)                 *
    1289              ;*   Total Frame Size   : 6 words                                              *
    1290              ;*                        (2 return address/alignment)                         *
    1291              ;*                        (4 local values)                                     *
    1292              ;*   Min System Stack   : 1 word                                               *
    1293              ;*******************************************************************************
    1294 000414       _IRQ_setArg:
    1295                      .dwcfi  cfa_offset, 1
    1296                      .dwcfi  save_reg_to_mem, 91, -1
    1297 000414 4EFB          AADD #-5, SP
    1298                      .dwcfi  cfa_offset, 6
    1299              $C$DW$74        .dwtag  DW_TAG_variable, DW_AT_name("EventId")
    1300                      .dwattr $C$DW$74, DW_AT_TI_symbol_name("_EventId")
    1301                      .dwattr $C$DW$74, DW_AT_type(*$C$DW$T$28)
    1302                      .dwattr $C$DW$74, DW_AT_location[DW_OP_bregx 0x24 0]
    1303              $C$DW$75        .dwtag  DW_TAG_variable, DW_AT_name("val")
    1304                      .dwattr $C$DW$75, DW_AT_TI_symbol_name("_val")
    1305                      .dwattr $C$DW$75, DW_AT_type(*$C$DW$T$22)
    1306                      .dwattr $C$DW$75, DW_AT_location[DW_OP_bregx 0x24 2]
    1307 000416 EB04          MOV AC0, dbl(*SP(#2)) ; |695| 
         000418 08   
    1308 000419 C400          MOV T0, *SP(#0) ; |695| 
    1309                      .dwpsn  file "../c5535_bsl_revc/ezdsp5535_v1/c55xx_csl/src/csl_intc.c",line 697,column 5,is_stmt
    1310              
    1311 00041b 7600          MOV #31, AR2 ; |697| 
         00041d 1FA8 
    1312 00041f 2349  ||      MOV T0, AR1
    1313              
    1314 000421 12A8          CMPU AR2 >= AR1, TC1 ; |697| 
         000423 94   
    1315 000424 6264          BCC $C$L32,TC1 ; |697| 
    1316                                                      ; branchcc occurs ; |697| 
    1317                      .dwpsn  file "../c5535_bsl_revc/ezdsp5535_v1/c55xx_csl/src/csl_intc.c",line 699,column 9,is_stmt
    1318 000426 3E64          MOV #-6, T0
    1319 000428 4A19          B $C$L33  ; |699| 
    1320                                                      ; branch occurs ; |699| 
    1321 00042a       $C$L32:    
    1322                      .dwpsn  file "../c5535_bsl_revc/ezdsp5535_v1/c55xx_csl/src/csl_intc.c",line 701,column 5,is_stmt
    1323 00042a ED31          MOV dbl(*(#_CSL_IRQ_DATA)), XAR3
         00042c BF00 
TMS320C55x Assembler PC v4.4.1 Tue Oct 02 02:32:59 2018

Tools Copyright (c) 1996-2012 Texas Instruments Incorporated
csl_intc.asm                                                         PAGE   29

         00042e 0000-
    1324 000430 DF00          MOV uns(*SP(#0)), AC0 ; |701| 
         000432 05   
    1325 000433 1005          SFTS AC0, #3, AC0 ; |701| 
         000435 03   
    1326 000436 900A          MOV AC0, XAR2
    1327              
    1328                      AADD XAR2, XAR3 ; |701| 
    1329 000438 8E04  ||      MOV dbl(*SP(#2)), AC0 ; |701| 
         00043a BD18 
         00043c 08A1 
    1330              
    1331 00043e EB75          MOV AC0, dbl(*AR3(short(#2))) ; |701| 
         000440 08   
    1332                      .dwpsn  file "../c5535_bsl_revc/ezdsp5535_v1/c55xx_csl/src/csl_intc.c",line 703,column 5,is_stmt
    1333 000441 3C04          MOV #0, T0
    1334 000443       $C$L33:    
    1335                      .dwpsn  file "../c5535_bsl_revc/ezdsp5535_v1/c55xx_csl/src/csl_intc.c",line 704,column 1,is_stmt
    1336 000443 4E05          AADD #5, SP
    1337                      .dwcfi  cfa_offset, 1
    1338              $C$DW$76        .dwtag  DW_TAG_TI_branch
    1339                      .dwattr $C$DW$76, DW_AT_low_pc(0x00)
    1340                      .dwattr $C$DW$76, DW_AT_TI_return
    1341 000445 4804          RET
    1342                                                      ; return occurs
    1343                      .dwattr $C$DW$71, DW_AT_TI_end_file("../c5535_bsl_revc/ezdsp5535_v1/c55xx_csl/src/csl_intc.c")
    1344                      .dwattr $C$DW$71, DW_AT_TI_end_line(0x2c0)
    1345                      .dwattr $C$DW$71, DW_AT_TI_end_column(0x01)
    1346                      .dwendentry
    1347                      .dwendtag $C$DW$71
    1348              
    1349 000447               .sect   ".text"
    1350                      .align 4
    1351                      .global _IRQ_map
    1352              
    1353              $C$DW$77        .dwtag  DW_TAG_subprogram, DW_AT_name("IRQ_map")
    1354                      .dwattr $C$DW$77, DW_AT_low_pc(_IRQ_map)
    1355                      .dwattr $C$DW$77, DW_AT_high_pc(0x00)
    1356                      .dwattr $C$DW$77, DW_AT_TI_symbol_name("_IRQ_map")
    1357                      .dwattr $C$DW$77, DW_AT_external
    1358                      .dwattr $C$DW$77, DW_AT_type(*$C$DW$T$45)
    1359                      .dwattr $C$DW$77, DW_AT_TI_begin_file("../c5535_bsl_revc/ezdsp5535_v1/c55xx_csl/src/csl_intc.c")
    1360                      .dwattr $C$DW$77, DW_AT_TI_begin_line(0x2e7)
    1361                      .dwattr $C$DW$77, DW_AT_TI_begin_column(0x0c)
    1362                      .dwattr $C$DW$77, DW_AT_TI_max_frame_size(0x02)
    1363                      .dwpsn  file "../c5535_bsl_revc/ezdsp5535_v1/c55xx_csl/src/csl_intc.c",line 746,column 1,is_stmt,addr
    1364              
    1365                      .dwfde $C$DW$CIE, _IRQ_map
    1366              $C$DW$78        .dwtag  DW_TAG_formal_parameter, DW_AT_name("EventId")
    1367                      .dwattr $C$DW$78, DW_AT_TI_symbol_name("_EventId")
    1368                      .dwattr $C$DW$78, DW_AT_type(*$C$DW$T$28)
    1369                      .dwattr $C$DW$78, DW_AT_location[DW_OP_reg12]
    1370              ;*******************************************************************************
    1371              ;* FUNCTION NAME: IRQ_map                                                      *
    1372              ;*                                                                             *
TMS320C55x Assembler PC v4.4.1 Tue Oct 02 02:32:59 2018

Tools Copyright (c) 1996-2012 Texas Instruments Incorporated
csl_intc.asm                                                         PAGE   30

    1373              ;*   Function Uses Regs : AC0,AC0,T0,T1,AR1,AR2,XAR2,AR3,XAR3,SP,CARRY,TC1,M40,*
    1374              ;*                        SATA,SATD,RDM,FRCT,SMUL                              *
    1375              ;*   Stack Frame        : Compact (No Frame Pointer, w/ debug)                 *
    1376              ;*   Total Frame Size   : 2 words                                              *
    1377              ;*                        (1 return address/alignment)                         *
    1378              ;*                        (1 local values)                                     *
    1379              ;*   Min System Stack   : 1 word                                               *
    1380              ;*******************************************************************************
    1381 000448       _IRQ_map:
    1382                      .dwcfi  cfa_offset, 1
    1383                      .dwcfi  save_reg_to_mem, 91, -1
    1384 000448 4EFF          AADD #-1, SP
    1385                      .dwcfi  cfa_offset, 2
    1386              $C$DW$79        .dwtag  DW_TAG_variable, DW_AT_name("EventId")
    1387                      .dwattr $C$DW$79, DW_AT_TI_symbol_name("_EventId")
    1388                      .dwattr $C$DW$79, DW_AT_type(*$C$DW$T$28)
    1389                      .dwattr $C$DW$79, DW_AT_location[DW_OP_bregx 0x24 0]
    1390 00044a C400          MOV T0, *SP(#0) ; |746| 
    1391                      .dwpsn  file "../c5535_bsl_revc/ezdsp5535_v1/c55xx_csl/src/csl_intc.c",line 748,column 5,is_stmt
    1392              
    1393 00044c 7600          MOV #31, AR2 ; |748| 
         00044e 1FA8 
    1394 000450 2349  ||      MOV T0, AR1
    1395              
    1396 000452 12A8          CMPU AR2 >= AR1, TC1 ; |748| 
         000454 94   
    1397 000455 6264          BCC $C$L34,TC1 ; |748| 
    1398                                                      ; branchcc occurs ; |748| 
    1399                      .dwpsn  file "../c5535_bsl_revc/ezdsp5535_v1/c55xx_csl/src/csl_intc.c",line 750,column 9,is_stmt
    1400 000457 3E64          MOV #-6, T0
    1401 000459 4A1B          B $C$L35  ; |750| 
    1402                                                      ; branch occurs ; |750| 
    1403 00045b       $C$L34:    
    1404                      .dwpsn  file "../c5535_bsl_revc/ezdsp5535_v1/c55xx_csl/src/csl_intc.c",line 752,column 5,is_stmt
    1405 00045b DF00          MOV uns(*SP(#0)), AC0 ; |752| 
         00045d 05   
    1406 00045e 5000          SFTL AC0, #1 ; |752| 
    1407 000460 900A          MOV AC0, XAR2
    1408 000462 EC31          AMOV #(_CSL_IRQ_DATA+2), XAR3 ; |752| 
         000464 BE00 
         000466 0002-
    1409              
    1410 00046a 3D10          MOV #1, AC0 ; |752| 
    1411 000468 A500  ||      MOV *SP(#0), T1 ; |752| 
    1412              
    1413 00046c 14A1          AADD XAR2, XAR3 ; |752| 
         00046e B0   
    1414 00046f 5D05  ||      SFTS AC0, T1, AC0 ; |752| 
    1415              
    1416 000471 EB61          MOV AC0, dbl(*AR3) ; |752| 
         000473 08   
    1417                      .dwpsn  file "../c5535_bsl_revc/ezdsp5535_v1/c55xx_csl/src/csl_intc.c",line 754,column 5,is_stmt
    1418 000474 3C04          MOV #0, T0
    1419 000476       $C$L35:    
    1420                      .dwpsn  file "../c5535_bsl_revc/ezdsp5535_v1/c55xx_csl/src/csl_intc.c",line 755,column 1,is_stmt
TMS320C55x Assembler PC v4.4.1 Tue Oct 02 02:32:59 2018

Tools Copyright (c) 1996-2012 Texas Instruments Incorporated
csl_intc.asm                                                         PAGE   31

    1421 000476 4E01          AADD #1, SP
    1422                      .dwcfi  cfa_offset, 1
    1423              $C$DW$80        .dwtag  DW_TAG_TI_branch
    1424                      .dwattr $C$DW$80, DW_AT_low_pc(0x00)
    1425                      .dwattr $C$DW$80, DW_AT_TI_return
    1426 000478 4804          RET
    1427                                                      ; return occurs
    1428                      .dwattr $C$DW$77, DW_AT_TI_end_file("../c5535_bsl_revc/ezdsp5535_v1/c55xx_csl/src/csl_intc.c")
    1429                      .dwattr $C$DW$77, DW_AT_TI_end_line(0x2f3)
    1430                      .dwattr $C$DW$77, DW_AT_TI_end_column(0x01)
    1431                      .dwendentry
    1432                      .dwendtag $C$DW$77
    1433              
    1434 00047a               .sect   ".text"
    1435                      .align 4
    1436                      .global _IRQ_setVecs
    1437              
    1438              $C$DW$81        .dwtag  DW_TAG_subprogram, DW_AT_name("IRQ_setVecs")
    1439                      .dwattr $C$DW$81, DW_AT_low_pc(_IRQ_setVecs)
    1440                      .dwattr $C$DW$81, DW_AT_high_pc(0x00)
    1441                      .dwattr $C$DW$81, DW_AT_TI_symbol_name("_IRQ_setVecs")
    1442                      .dwattr $C$DW$81, DW_AT_external
    1443                      .dwattr $C$DW$81, DW_AT_type(*$C$DW$T$45)
    1444                      .dwattr $C$DW$81, DW_AT_TI_begin_file("../c5535_bsl_revc/ezdsp5535_v1/c55xx_csl/src/csl_intc.c")
    1445                      .dwattr $C$DW$81, DW_AT_TI_begin_line(0x31b)
    1446                      .dwattr $C$DW$81, DW_AT_TI_begin_column(0x0c)
    1447                      .dwattr $C$DW$81, DW_AT_TI_max_frame_size(0x06)
    1448                      .dwpsn  file "../c5535_bsl_revc/ezdsp5535_v1/c55xx_csl/src/csl_intc.c",line 798,column 1,is_stmt,addr
    1449              
    1450                      .dwfde $C$DW$CIE, _IRQ_setVecs
    1451              $C$DW$82        .dwtag  DW_TAG_formal_parameter, DW_AT_name("Ivpd")
    1452                      .dwattr $C$DW$82, DW_AT_TI_symbol_name("_Ivpd")
    1453                      .dwattr $C$DW$82, DW_AT_type(*$C$DW$T$22)
    1454                      .dwattr $C$DW$82, DW_AT_location[DW_OP_reg0]
    1455              ;*******************************************************************************
    1456              ;* FUNCTION NAME: IRQ_setVecs                                                  *
    1457              ;*                                                                             *
    1458              ;*   Function Uses Regs : AC0,AC0,AC1,AC1,T0,AR1,SP,CARRY,M40,SATA,SATD,RDM,   *
    1459              ;*                        FRCT,SMUL                                            *
    1460              ;*   Stack Frame        : Compact (No Frame Pointer, w/ debug)                 *
    1461              ;*   Total Frame Size   : 6 words                                              *
    1462              ;*                        (2 return address/alignment)                         *
    1463              ;*                        (4 local values)                                     *
    1464              ;*   Min System Stack   : 1 word                                               *
    1465              ;*******************************************************************************
    1466 00047c       _IRQ_setVecs:
    1467                      .dwcfi  cfa_offset, 1
    1468                      .dwcfi  save_reg_to_mem, 91, -1
    1469 00047c 4EFB          AADD #-5, SP
    1470                      .dwcfi  cfa_offset, 6
    1471              $C$DW$83        .dwtag  DW_TAG_variable, DW_AT_name("Ivpd")
    1472                      .dwattr $C$DW$83, DW_AT_TI_symbol_name("_Ivpd")
    1473                      .dwattr $C$DW$83, DW_AT_type(*$C$DW$T$22)
    1474                      .dwattr $C$DW$83, DW_AT_location[DW_OP_bregx 0x24 0]
    1475              $C$DW$84        .dwtag  DW_TAG_variable, DW_AT_name("old_intm")
TMS320C55x Assembler PC v4.4.1 Tue Oct 02 02:32:59 2018

Tools Copyright (c) 1996-2012 Texas Instruments Incorporated
csl_intc.asm                                                         PAGE   32

    1476                      .dwattr $C$DW$84, DW_AT_TI_symbol_name("_old_intm")
    1477                      .dwattr $C$DW$84, DW_AT_type(*$C$DW$T$41)
    1478                      .dwattr $C$DW$84, DW_AT_location[DW_OP_bregx 0x24 2]
    1479              $C$DW$85        .dwtag  DW_TAG_variable, DW_AT_name("val")
    1480                      .dwattr $C$DW$85, DW_AT_TI_symbol_name("_val")
    1481                      .dwattr $C$DW$85, DW_AT_type(*$C$DW$T$28)
    1482                      .dwattr $C$DW$85, DW_AT_location[DW_OP_bregx 0x24 3]
    1483 00047e EB00          MOV AC0, dbl(*SP(#0)) ; |798| 
         000480 08   
    1484                      .dwpsn  file "../c5535_bsl_revc/ezdsp5535_v1/c55xx_csl/src/csl_intc.c",line 800,column 12,is_stmt
    1485 000481 7AFF          MOV #-1 << #16, AC0 ; |800| 
         000483 FF0A 
    1486 000485 ED00          MOV dbl(*SP(#0)), AC1 ; |800| 
         000487 18   
    1487 000488 7EFF          OR #0xff00, AC0, AC0 ; |800| 
         00048a 0000 
    1488 00048c 2810          AND AC1, AC0 ; |800| 
    1489 00048e 1007          SFTL AC0, #-8, AC0 ; |800| 
         000490 38   
    1490 000491 C006          MOV AC0, *SP(#3) ; |800| 
    1491                      .dwpsn  file "../c5535_bsl_revc/ezdsp5535_v1/c55xx_csl/src/csl_intc.c",line 801,column 5,is_stmt
    1492              $C$DW$86        .dwtag  DW_TAG_TI_branch
    1493                      .dwattr $C$DW$86, DW_AT_low_pc(0x00)
    1494                      .dwattr $C$DW$86, DW_AT_name("_IRQ_globalDisable")
    1495                      .dwattr $C$DW$86, DW_AT_TI_call
    1496 000493 0800          CALL #_IRQ_globalDisable ; |801| 
         000495 8E   
    1497                                                      ; call occurs [#_IRQ_globalDisable] ; |801| 
    1498 000496 C404          MOV T0, *SP(#2) ; |801| 
    1499                      .dwpsn  file "../c5535_bsl_revc/ezdsp5535_v1/c55xx_csl/src/csl_intc.c",line 802,column 5,is_stmt
    1500 000498 A906          MOV *SP(#3), AR1 ; |802| 
    1501 00049a C931          MOV AR1, *(#73) ; |802| 
         00049c 0000 
         00049e 49   
    1502                      .dwpsn  file "../c5535_bsl_revc/ezdsp5535_v1/c55xx_csl/src/csl_intc.c",line 803,column 5,is_stmt
    1503 00049f C931          MOV AR1, *(#74) ; |803| 
         0004a1 0000 
         0004a3 4A   
    1504                      .dwpsn  file "../c5535_bsl_revc/ezdsp5535_v1/c55xx_csl/src/csl_intc.c",line 804,column 5,is_stmt
    1505              $C$DW$87        .dwtag  DW_TAG_TI_branch
    1506                      .dwattr $C$DW$87, DW_AT_low_pc(0x00)
    1507                      .dwattr $C$DW$87, DW_AT_name("_IRQ_globalRestore")
    1508                      .dwattr $C$DW$87, DW_AT_TI_call
    1509 0004a4 0800          CALL #_IRQ_globalRestore ; |804| 
         0004a6 B5   
    1510                                                      ; call occurs [#_IRQ_globalRestore] ; |804| 
    1511                      .dwpsn  file "../c5535_bsl_revc/ezdsp5535_v1/c55xx_csl/src/csl_intc.c",line 806,column 5,is_stmt
    1512 0004a7 3C04          MOV #0, T0
    1513                      .dwpsn  file "../c5535_bsl_revc/ezdsp5535_v1/c55xx_csl/src/csl_intc.c",line 807,column 1,is_stmt
    1514 0004a9 4E05          AADD #5, SP
    1515                      .dwcfi  cfa_offset, 1
    1516              $C$DW$88        .dwtag  DW_TAG_TI_branch
    1517                      .dwattr $C$DW$88, DW_AT_low_pc(0x00)
    1518                      .dwattr $C$DW$88, DW_AT_TI_return
    1519 0004ab 4804          RET
TMS320C55x Assembler PC v4.4.1 Tue Oct 02 02:32:59 2018

Tools Copyright (c) 1996-2012 Texas Instruments Incorporated
csl_intc.asm                                                         PAGE   33

    1520                                                      ; return occurs
    1521                      .dwattr $C$DW$81, DW_AT_TI_end_file("../c5535_bsl_revc/ezdsp5535_v1/c55xx_csl/src/csl_intc.c")
    1522                      .dwattr $C$DW$81, DW_AT_TI_end_line(0x327)
    1523                      .dwattr $C$DW$81, DW_AT_TI_end_column(0x01)
    1524                      .dwendentry
    1525                      .dwendtag $C$DW$81
    1526              
    1527 0004ad               .sect   ".text"
    1528                      .align 4
    1529                      .global _IRQ_test
    1530              
    1531              $C$DW$89        .dwtag  DW_TAG_subprogram, DW_AT_name("IRQ_test")
    1532                      .dwattr $C$DW$89, DW_AT_low_pc(_IRQ_test)
    1533                      .dwattr $C$DW$89, DW_AT_high_pc(0x00)
    1534                      .dwattr $C$DW$89, DW_AT_TI_symbol_name("_IRQ_test")
    1535                      .dwattr $C$DW$89, DW_AT_external
    1536                      .dwattr $C$DW$89, DW_AT_type(*$C$DW$T$45)
    1537                      .dwattr $C$DW$89, DW_AT_TI_begin_file("../c5535_bsl_revc/ezdsp5535_v1/c55xx_csl/src/csl_intc.c")
    1538                      .dwattr $C$DW$89, DW_AT_TI_begin_line(0x350)
    1539                      .dwattr $C$DW$89, DW_AT_TI_begin_column(0x0c)
    1540                      .dwattr $C$DW$89, DW_AT_TI_max_frame_size(0x08)
    1541                      .dwpsn  file "../c5535_bsl_revc/ezdsp5535_v1/c55xx_csl/src/csl_intc.c",line 852,column 1,is_stmt,addr
    1542              
    1543                      .dwfde $C$DW$CIE, _IRQ_test
    1544              $C$DW$90        .dwtag  DW_TAG_formal_parameter, DW_AT_name("EventId")
    1545                      .dwattr $C$DW$90, DW_AT_TI_symbol_name("_EventId")
    1546                      .dwattr $C$DW$90, DW_AT_type(*$C$DW$T$28)
    1547                      .dwattr $C$DW$90, DW_AT_location[DW_OP_reg12]
    1548              $C$DW$91        .dwtag  DW_TAG_formal_parameter, DW_AT_name("IntStatus")
    1549                      .dwattr $C$DW$91, DW_AT_TI_symbol_name("_IntStatus")
    1550                      .dwattr $C$DW$91, DW_AT_type(*$C$DW$T$54)
    1551                      .dwattr $C$DW$91, DW_AT_location[DW_OP_reg17]
    1552              ;*******************************************************************************
    1553              ;* FUNCTION NAME: IRQ_test                                                     *
    1554              ;*                                                                             *
    1555              ;*   Function Uses Regs : AC0,AC0,AC1,AC1,T0,T1,AR0,XAR0,AR1,AR2,AR3,XAR3,SP,  *
    1556              ;*                        CARRY,TC1,M40,SATA,SATD,RDM,FRCT,SMUL                *
    1557              ;*   Stack Frame        : Compact (No Frame Pointer, w/ debug)                 *
    1558              ;*   Total Frame Size   : 8 words                                              *
    1559              ;*                        (2 return address/alignment)                         *
    1560              ;*                        (6 local values)                                     *
    1561              ;*   Min System Stack   : 1 word                                               *
    1562              ;*******************************************************************************
    1563 0004b0       _IRQ_test:
    1564                      .dwcfi  cfa_offset, 1
    1565                      .dwcfi  save_reg_to_mem, 91, -1
    1566 0004b0 4EF9          AADD #-7, SP
    1567                      .dwcfi  cfa_offset, 8
    1568              $C$DW$92        .dwtag  DW_TAG_variable, DW_AT_name("EventId")
    1569                      .dwattr $C$DW$92, DW_AT_TI_symbol_name("_EventId")
    1570                      .dwattr $C$DW$92, DW_AT_type(*$C$DW$T$28)
    1571                      .dwattr $C$DW$92, DW_AT_location[DW_OP_bregx 0x24 0]
    1572              $C$DW$93        .dwtag  DW_TAG_variable, DW_AT_name("IntStatus")
    1573                      .dwattr $C$DW$93, DW_AT_TI_symbol_name("_IntStatus")
    1574                      .dwattr $C$DW$93, DW_AT_type(*$C$DW$T$54)
TMS320C55x Assembler PC v4.4.1 Tue Oct 02 02:32:59 2018

Tools Copyright (c) 1996-2012 Texas Instruments Incorporated
csl_intc.asm                                                         PAGE   34

    1575                      .dwattr $C$DW$93, DW_AT_location[DW_OP_bregx 0x24 2]
    1576              $C$DW$94        .dwtag  DW_TAG_variable, DW_AT_name("bit")
    1577                      .dwattr $C$DW$94, DW_AT_TI_symbol_name("_bit")
    1578                      .dwattr $C$DW$94, DW_AT_type(*$C$DW$T$28)
    1579                      .dwattr $C$DW$94, DW_AT_location[DW_OP_bregx 0x24 4]
    1580              $C$DW$95        .dwtag  DW_TAG_variable, DW_AT_name("old_intm")
    1581                      .dwattr $C$DW$95, DW_AT_TI_symbol_name("_old_intm")
    1582                      .dwattr $C$DW$95, DW_AT_type(*$C$DW$T$41)
    1583                      .dwattr $C$DW$95, DW_AT_location[DW_OP_bregx 0x24 5]
    1584 0004b2 EB04          MOV XAR0, dbl(*SP(#2))
         0004b4 85   
    1585 0004b5 C400          MOV T0, *SP(#0) ; |852| 
    1586                      .dwpsn  file "../c5535_bsl_revc/ezdsp5535_v1/c55xx_csl/src/csl_intc.c",line 855,column 5,is_stmt
    1587 0004b7 ED04          MOV dbl(*SP(#2)), XAR3
         0004b9 BF   
    1588              
    1589 0004ba 90B0          MOV XAR3, AC0
    1590 0004bc 3D01  ||      MOV #0, AC1 ; |855| 
    1591              
    1592 0004be 121C          CMPU AC1 != AC0, TC1 ; |855| 
         0004c0 04   
    1593 0004c1 62E4          BCC $C$L36,TC1 ; |855| 
    1594                                                      ; branchcc occurs ; |855| 
    1595                      .dwpsn  file "../c5535_bsl_revc/ezdsp5535_v1/c55xx_csl/src/csl_intc.c",line 857,column 5,is_stmt
    1596 0004c3 3E64          MOV #-6, T0
    1597 0004c5 0600          B $C$L40  ; |857| 
         0004c7 56   
    1598                                                      ; branch occurs ; |857| 
    1599 0004c8       $C$L36:    
    1600                      .dwpsn  file "../c5535_bsl_revc/ezdsp5535_v1/c55xx_csl/src/csl_intc.c",line 860,column 5,is_stmt
    1601              
    1602 0004c8 7600          MOV #31, AR2 ; |860| 
         0004ca 1FA8 
    1603 0004cc 2349  ||      MOV T0, AR1
    1604              
    1605 0004ce 12A8          CMPU AR2 >= AR1, TC1 ; |860| 
         0004d0 94   
    1606 0004d1 62E4          BCC $C$L37,TC1 ; |860| 
    1607                                                      ; branchcc occurs ; |860| 
    1608                      .dwpsn  file "../c5535_bsl_revc/ezdsp5535_v1/c55xx_csl/src/csl_intc.c",line 862,column 9,is_stmt
    1609 0004d3 3E64          MOV #-6, T0
    1610 0004d5 0600          B $C$L40  ; |862| 
         0004d7 46   
    1611                                                      ; branch occurs ; |862| 
    1612 0004d8       $C$L37:    
    1613                      .dwpsn  file "../c5535_bsl_revc/ezdsp5535_v1/c55xx_csl/src/csl_intc.c",line 864,column 5,is_stmt
    1614 0004d8 C908          MOV AR1, *SP(#4) ; |864| 
    1615                      .dwpsn  file "../c5535_bsl_revc/ezdsp5535_v1/c55xx_csl/src/csl_intc.c",line 865,column 5,is_stmt
    1616              $C$DW$96        .dwtag  DW_TAG_TI_branch
    1617                      .dwattr $C$DW$96, DW_AT_low_pc(0x00)
    1618                      .dwattr $C$DW$96, DW_AT_name("_IRQ_globalDisable")
    1619                      .dwattr $C$DW$96, DW_AT_TI_call
    1620 0004da 0800          CALL #_IRQ_globalDisable ; |865| 
         0004dc 47   
    1621                                                      ; call occurs [#_IRQ_globalDisable] ; |865| 
TMS320C55x Assembler PC v4.4.1 Tue Oct 02 02:32:59 2018

Tools Copyright (c) 1996-2012 Texas Instruments Incorporated
csl_intc.asm                                                         PAGE   35

    1622 0004dd C40A          MOV T0, *SP(#5) ; |865| 
    1623                      .dwpsn  file "../c5535_bsl_revc/ezdsp5535_v1/c55xx_csl/src/csl_intc.c",line 867,column 5,is_stmt
    1624              
    1625 0004df A900          MOV *SP(#0), AR1 ; |867| 
    1626 0004e1 3DFA  ||      MOV #15, AR2
    1627              
    1628 0004e3 12A8          CMPU AR1 <= AR2, TC1 ; |867| 
         0004e5 94   
    1629 0004e6 0464          BCC $C$L38,TC1 ; |867| 
         0004e8 1A   
    1630                                                      ; branchcc occurs ; |867| 
    1631                      .dwpsn  file "../c5535_bsl_revc/ezdsp5535_v1/c55xx_csl/src/csl_intc.c",line 869,column 9,is_stmt
    1632 0004e9 F708          SUB #16, *SP(#4) ; |869| 
         0004eb FFF0 
    1633                      .dwpsn  file "../c5535_bsl_revc/ezdsp5535_v1/c55xx_csl/src/csl_intc.c",line 870,column 9,is_stmt
    1634 0004ed A908          MOV *SP(#4), AR1 ; |870| 
    1635 0004ef ED04          MOV dbl(*SP(#2)), XAR3
         0004f1 BF   
    1636 0004f2 DF31          MOV uns(*(#70)), AC0 ; |870| 
         0004f4 0500 
         0004f6 0046 
    1637 0004f8 3495          NEG AR1, T1 ; |870| 
    1638 0004fa 5C05          SFTS AC0, T1, AC0 ; |870| 
    1639 0004fc 1801          AND #0x0001, AC0, AC0 ; |870| 
         0004fe 00   
    1640 0004ff C061          MOV AC0, *AR3 ; |870| 
    1641                      .dwpsn  file "../c5535_bsl_revc/ezdsp5535_v1/c55xx_csl/src/csl_intc.c",line 871,column 5,is_stmt
    1642 000501 4A14          B $C$L39  ; |871| 
    1643                                                      ; branch occurs ; |871| 
    1644 000503       $C$L38:    
    1645                      .dwpsn  file "../c5535_bsl_revc/ezdsp5535_v1/c55xx_csl/src/csl_intc.c",line 874,column 9,is_stmt
    1646 000503 A908          MOV *SP(#4), AR1 ; |874| 
    1647 000505 ED04          MOV dbl(*SP(#2)), XAR3
         000507 BF   
    1648 000508 DF31          MOV uns(*(#1)), AC0 ; |874| 
         00050a 0500 
         00050c 0001 
    1649 00050e 3495          NEG AR1, T1 ; |874| 
    1650 000510 5C05          SFTS AC0, T1, AC0 ; |874| 
    1651 000512 1801          AND #0x0001, AC0, AC0 ; |874| 
         000514 00   
    1652 000515 C061          MOV AC0, *AR3 ; |874| 
    1653 000517       $C$L39:    
    1654                      .dwpsn  file "../c5535_bsl_revc/ezdsp5535_v1/c55xx_csl/src/csl_intc.c",line 876,column 5,is_stmt
    1655 000517 A40A          MOV *SP(#5), T0 ; |876| 
    1656              $C$DW$97        .dwtag  DW_TAG_TI_branch
    1657                      .dwattr $C$DW$97, DW_AT_low_pc(0x00)
    1658                      .dwattr $C$DW$97, DW_AT_name("_IRQ_globalRestore")
    1659                      .dwattr $C$DW$97, DW_AT_TI_call
    1660 000519 0800          CALL #_IRQ_globalRestore ; |876| 
         00051b 40   
    1661                                                      ; call occurs [#_IRQ_globalRestore] ; |876| 
    1662                      .dwpsn  file "../c5535_bsl_revc/ezdsp5535_v1/c55xx_csl/src/csl_intc.c",line 878,column 5,is_stmt
    1663 00051c 3C04          MOV #0, T0
    1664 00051e       $C$L40:    
TMS320C55x Assembler PC v4.4.1 Tue Oct 02 02:32:59 2018

Tools Copyright (c) 1996-2012 Texas Instruments Incorporated
csl_intc.asm                                                         PAGE   36

    1665                      .dwpsn  file "../c5535_bsl_revc/ezdsp5535_v1/c55xx_csl/src/csl_intc.c",line 879,column 1,is_stmt
    1666 00051e 4E07          AADD #7, SP
    1667                      .dwcfi  cfa_offset, 1
    1668              $C$DW$98        .dwtag  DW_TAG_TI_branch
    1669                      .dwattr $C$DW$98, DW_AT_low_pc(0x00)
    1670                      .dwattr $C$DW$98, DW_AT_TI_return
    1671 000520 4804          RET
    1672                                                      ; return occurs
    1673                      .dwattr $C$DW$89, DW_AT_TI_end_file("../c5535_bsl_revc/ezdsp5535_v1/c55xx_csl/src/csl_intc.c")
    1674                      .dwattr $C$DW$89, DW_AT_TI_end_line(0x36f)
    1675                      .dwattr $C$DW$89, DW_AT_TI_end_column(0x01)
    1676                      .dwendentry
    1677                      .dwendtag $C$DW$89
    1678              
    1679 000522               .sect   ".text"
    1680                      .align 4
    1681                      .global _IRQ_globalDisable
    1682              
    1683              $C$DW$99        .dwtag  DW_TAG_subprogram, DW_AT_name("IRQ_globalDisable")
    1684                      .dwattr $C$DW$99, DW_AT_low_pc(_IRQ_globalDisable)
    1685                      .dwattr $C$DW$99, DW_AT_high_pc(0x00)
    1686                      .dwattr $C$DW$99, DW_AT_TI_symbol_name("_IRQ_globalDisable")
    1687                      .dwattr $C$DW$99, DW_AT_external
    1688                      .dwattr $C$DW$99, DW_AT_type(*$C$DW$T$41)
    1689                      .dwattr $C$DW$99, DW_AT_TI_begin_file("../c5535_bsl_revc/ezdsp5535_v1/c55xx_csl/src/csl_intc.c")
    1690                      .dwattr $C$DW$99, DW_AT_TI_begin_line(0x391)
    1691                      .dwattr $C$DW$99, DW_AT_TI_begin_column(0x06)
    1692                      .dwattr $C$DW$99, DW_AT_TI_max_frame_size(0x02)
    1693                      .dwpsn  file "../c5535_bsl_revc/ezdsp5535_v1/c55xx_csl/src/csl_intc.c",line 914,column 1,is_stmt,addr
    1694              
    1695                      .dwfde $C$DW$CIE, _IRQ_globalDisable
    1696              ;*******************************************************************************
    1697              ;* FUNCTION NAME: IRQ_globalDisable                                            *
    1698              ;*                                                                             *
    1699              ;*   Function Uses Regs : AC0,AC0,T0,AR1,SP,M40,SATA,SATD,RDM,FRCT,SMUL        *
    1700              ;*   Stack Frame        : Compact (No Frame Pointer, w/ debug)                 *
    1701              ;*   Total Frame Size   : 2 words                                              *
    1702              ;*                        (1 return address/alignment)                         *
    1703              ;*                        (1 local values)                                     *
    1704              ;*   Min System Stack   : 1 word                                               *
    1705              ;*******************************************************************************
    1706 000524       _IRQ_globalDisable:
    1707                      .dwcfi  cfa_offset, 1
    1708                      .dwcfi  save_reg_to_mem, 91, -1
    1709 000524 4EFF          AADD #-1, SP
    1710                      .dwcfi  cfa_offset, 2
    1711              $C$DW$100       .dwtag  DW_TAG_variable, DW_AT_name("value")
    1712                      .dwattr $C$DW$100, DW_AT_TI_symbol_name("_value")
    1713                      .dwattr $C$DW$100, DW_AT_type(*$C$DW$T$41)
    1714                      .dwattr $C$DW$100, DW_AT_location[DW_OP_bregx 0x24 0]
    1715                      .dwpsn  file "../c5535_bsl_revc/ezdsp5535_v1/c55xx_csl/src/csl_intc.c",line 916,column 2,is_stmt
    1716 000526 A931          MOV *(#3), AR1 ; |916| 
         000528 0000 
         00052a 03   
    1717 00052b 7D08          AND #0x0800, AR1, AC0 ; |916| 
TMS320C55x Assembler PC v4.4.1 Tue Oct 02 02:32:59 2018

Tools Copyright (c) 1996-2012 Texas Instruments Incorporated
csl_intc.asm                                                         PAGE   37

         00052d 0009 
    1718 00052f 1005          SFTS AC0, #-11, AC0 ; |916| 
         000531 35   
    1719 000532 C000          MOV AC0, *SP(#0) ; |916| 
    1720                      .dwpsn  file "../c5535_bsl_revc/ezdsp5535_v1/c55xx_csl/src/csl_intc.c",line 917,column 5,is_stmt
    1721 000534 20            NOP                      ;====> CODE AUTO-GENERATED by CSL
    1722                      .dwpsn  file "../c5535_bsl_revc/ezdsp5535_v1/c55xx_csl/src/csl_intc.c",line 921,column 5,is_stmt
    1723 000535 46B3          BSET INTM                ;====> CODE AUTO-GENERATED by CSL
    1724                      .dwpsn  file "../c5535_bsl_revc/ezdsp5535_v1/c55xx_csl/src/csl_intc.c",line 924,column 5,is_stmt
    1725 000537 2204          MOV AC0, T0
    1726                      .dwpsn  file "../c5535_bsl_revc/ezdsp5535_v1/c55xx_csl/src/csl_intc.c",line 925,column 1,is_stmt
    1727 000539 4E01          AADD #1, SP
    1728                      .dwcfi  cfa_offset, 1
    1729              $C$DW$101       .dwtag  DW_TAG_TI_branch
    1730                      .dwattr $C$DW$101, DW_AT_low_pc(0x00)
    1731                      .dwattr $C$DW$101, DW_AT_TI_return
    1732 00053b 4804          RET
    1733                                                      ; return occurs
    1734                      .dwattr $C$DW$99, DW_AT_TI_end_file("../c5535_bsl_revc/ezdsp5535_v1/c55xx_csl/src/csl_intc.c")
    1735                      .dwattr $C$DW$99, DW_AT_TI_end_line(0x39d)
    1736                      .dwattr $C$DW$99, DW_AT_TI_end_column(0x01)
    1737                      .dwendentry
    1738                      .dwendtag $C$DW$99
    1739              
    1740 00053d               .sect   ".text"
    1741                      .align 4
    1742                      .global _IRQ_globalEnable
    1743              
    1744              $C$DW$102       .dwtag  DW_TAG_subprogram, DW_AT_name("IRQ_globalEnable")
    1745                      .dwattr $C$DW$102, DW_AT_low_pc(_IRQ_globalEnable)
    1746                      .dwattr $C$DW$102, DW_AT_high_pc(0x00)
    1747                      .dwattr $C$DW$102, DW_AT_TI_symbol_name("_IRQ_globalEnable")
    1748                      .dwattr $C$DW$102, DW_AT_external
    1749                      .dwattr $C$DW$102, DW_AT_type(*$C$DW$T$41)
    1750                      .dwattr $C$DW$102, DW_AT_TI_begin_file("../c5535_bsl_revc/ezdsp5535_v1/c55xx_csl/src/csl_intc.c")
    1751                      .dwattr $C$DW$102, DW_AT_TI_begin_line(0x3bf)
    1752                      .dwattr $C$DW$102, DW_AT_TI_begin_column(0x06)
    1753                      .dwattr $C$DW$102, DW_AT_TI_max_frame_size(0x02)
    1754                      .dwpsn  file "../c5535_bsl_revc/ezdsp5535_v1/c55xx_csl/src/csl_intc.c",line 960,column 1,is_stmt,addr
    1755              
    1756                      .dwfde $C$DW$CIE, _IRQ_globalEnable
    1757              ;*******************************************************************************
    1758              ;* FUNCTION NAME: IRQ_globalEnable                                             *
    1759              ;*                                                                             *
    1760              ;*   Function Uses Regs : AC0,AC0,T0,AR1,SP,M40,SATA,SATD,RDM,FRCT,SMUL        *
    1761              ;*   Stack Frame        : Compact (No Frame Pointer, w/ debug)                 *
    1762              ;*   Total Frame Size   : 2 words                                              *
    1763              ;*                        (1 return address/alignment)                         *
    1764              ;*                        (1 local values)                                     *
    1765              ;*   Min System Stack   : 1 word                                               *
    1766              ;*******************************************************************************
    1767 000540       _IRQ_globalEnable:
    1768                      .dwcfi  cfa_offset, 1
    1769                      .dwcfi  save_reg_to_mem, 91, -1
    1770 000540 4EFF          AADD #-1, SP
TMS320C55x Assembler PC v4.4.1 Tue Oct 02 02:32:59 2018

Tools Copyright (c) 1996-2012 Texas Instruments Incorporated
csl_intc.asm                                                         PAGE   38

    1771                      .dwcfi  cfa_offset, 2
    1772              $C$DW$103       .dwtag  DW_TAG_variable, DW_AT_name("value")
    1773                      .dwattr $C$DW$103, DW_AT_TI_symbol_name("_value")
    1774                      .dwattr $C$DW$103, DW_AT_type(*$C$DW$T$41)
    1775                      .dwattr $C$DW$103, DW_AT_location[DW_OP_bregx 0x24 0]
    1776                      .dwpsn  file "../c5535_bsl_revc/ezdsp5535_v1/c55xx_csl/src/csl_intc.c",line 962,column 5,is_stmt
    1777 000542 A931          MOV *(#3), AR1 ; |962| 
         000544 0000 
         000546 03   
    1778 000547 7D08          AND #0x0800, AR1, AC0 ; |962| 
         000549 0009 
    1779 00054b 1005          SFTS AC0, #-11, AC0 ; |962| 
         00054d 35   
    1780 00054e C000          MOV AC0, *SP(#0) ; |962| 
    1781                      .dwpsn  file "../c5535_bsl_revc/ezdsp5535_v1/c55xx_csl/src/csl_intc.c",line 963,column 5,is_stmt
    1782 000550 20            NOP                      ;====> CODE AUTO-GENERATED by CSL
    1783                      .dwpsn  file "../c5535_bsl_revc/ezdsp5535_v1/c55xx_csl/src/csl_intc.c",line 967,column 5,is_stmt
    1784 000551 46B2          BCLR INTM                ;====> CODE AUTO-GENERATED by CSL
    1785                      .dwpsn  file "../c5535_bsl_revc/ezdsp5535_v1/c55xx_csl/src/csl_intc.c",line 969,column 5,is_stmt
    1786 000553 2204          MOV AC0, T0
    1787                      .dwpsn  file "../c5535_bsl_revc/ezdsp5535_v1/c55xx_csl/src/csl_intc.c",line 970,column 1,is_stmt
    1788 000555 4E01          AADD #1, SP
    1789                      .dwcfi  cfa_offset, 1
    1790              $C$DW$104       .dwtag  DW_TAG_TI_branch
    1791                      .dwattr $C$DW$104, DW_AT_low_pc(0x00)
    1792                      .dwattr $C$DW$104, DW_AT_TI_return
    1793 000557 4804          RET
    1794                                                      ; return occurs
    1795                      .dwattr $C$DW$102, DW_AT_TI_end_file("../c5535_bsl_revc/ezdsp5535_v1/c55xx_csl/src/csl_intc.c")
    1796                      .dwattr $C$DW$102, DW_AT_TI_end_line(0x3ca)
    1797                      .dwattr $C$DW$102, DW_AT_TI_end_column(0x01)
    1798                      .dwendentry
    1799                      .dwendtag $C$DW$102
    1800              
    1801 000559               .sect   ".text"
    1802                      .align 4
    1803                      .global _IRQ_globalRestore
    1804              
    1805              $C$DW$105       .dwtag  DW_TAG_subprogram, DW_AT_name("IRQ_globalRestore")
    1806                      .dwattr $C$DW$105, DW_AT_low_pc(_IRQ_globalRestore)
    1807                      .dwattr $C$DW$105, DW_AT_high_pc(0x00)
    1808                      .dwattr $C$DW$105, DW_AT_TI_symbol_name("_IRQ_globalRestore")
    1809                      .dwattr $C$DW$105, DW_AT_external
    1810                      .dwattr $C$DW$105, DW_AT_TI_begin_file("../c5535_bsl_revc/ezdsp5535_v1/c55xx_csl/src/csl_intc.c")
    1811                      .dwattr $C$DW$105, DW_AT_TI_begin_line(0x3ea)
    1812                      .dwattr $C$DW$105, DW_AT_TI_begin_column(0x06)
    1813                      .dwattr $C$DW$105, DW_AT_TI_max_frame_size(0x02)
    1814                      .dwpsn  file "../c5535_bsl_revc/ezdsp5535_v1/c55xx_csl/src/csl_intc.c",line 1005,column 1,is_stmt,add
    1815              
    1816                      .dwfde $C$DW$CIE, _IRQ_globalRestore
    1817              $C$DW$106       .dwtag  DW_TAG_formal_parameter, DW_AT_name("value")
    1818                      .dwattr $C$DW$106, DW_AT_TI_symbol_name("_value")
    1819                      .dwattr $C$DW$106, DW_AT_type(*$C$DW$T$41)
    1820                      .dwattr $C$DW$106, DW_AT_location[DW_OP_reg12]
    1821              ;*******************************************************************************
TMS320C55x Assembler PC v4.4.1 Tue Oct 02 02:32:59 2018

Tools Copyright (c) 1996-2012 Texas Instruments Incorporated
csl_intc.asm                                                         PAGE   39

    1822              ;* FUNCTION NAME: IRQ_globalRestore                                            *
    1823              ;*                                                                             *
    1824              ;*   Function Uses Regs : T0,AR1,SP,M40,SATA,SATD,RDM,FRCT,SMUL                *
    1825              ;*   Stack Frame        : Compact (No Frame Pointer, w/ debug)                 *
    1826              ;*   Total Frame Size   : 2 words                                              *
    1827              ;*                        (1 return address/alignment)                         *
    1828              ;*                        (1 local values)                                     *
    1829              ;*   Min System Stack   : 1 word                                               *
    1830              ;*******************************************************************************
    1831 00055c       _IRQ_globalRestore:
    1832                      .dwcfi  cfa_offset, 1
    1833                      .dwcfi  save_reg_to_mem, 91, -1
    1834 00055c 4EFF          AADD #-1, SP
    1835                      .dwcfi  cfa_offset, 2
    1836              $C$DW$107       .dwtag  DW_TAG_variable, DW_AT_name("value")
    1837                      .dwattr $C$DW$107, DW_AT_TI_symbol_name("_value")
    1838                      .dwattr $C$DW$107, DW_AT_type(*$C$DW$T$41)
    1839                      .dwattr $C$DW$107, DW_AT_location[DW_OP_bregx 0x24 0]
    1840 00055e C400          MOV T0, *SP(#0) ; |1005| 
    1841                      .dwpsn  file "../c5535_bsl_revc/ezdsp5535_v1/c55xx_csl/src/csl_intc.c",line 1006,column 5,is_stmt
    1842 000560 2249          MOV T0, AR1
    1843 000562 6289          BCC $C$L41,AR1 == #0 ; |1006| 
    1844                                                      ; branchcc occurs ; |1006| 
    1845                      .dwpsn  file "../c5535_bsl_revc/ezdsp5535_v1/c55xx_csl/src/csl_intc.c",line 1008,column 9,is_stmt
    1846 000564 20            NOP                      ;====> CODE AUTO-GENERATED by CSL
    1847                      .dwpsn  file "../c5535_bsl_revc/ezdsp5535_v1/c55xx_csl/src/csl_intc.c",line 1012,column 9,is_stmt
    1848 000565 46B3          BSET INTM                ;====> CODE AUTO-GENERATED by CSL
    1849                      .dwpsn  file "../c5535_bsl_revc/ezdsp5535_v1/c55xx_csl/src/csl_intc.c",line 1014,column 5,is_stmt
    1850 000567 4A03          B $C$L42  ; |1014| 
    1851                                                      ; branch occurs ; |1014| 
    1852 000569       $C$L41:    
    1853                      .dwpsn  file "../c5535_bsl_revc/ezdsp5535_v1/c55xx_csl/src/csl_intc.c",line 1018,column 9,is_stmt
    1854 000569 20            NOP                      ;====> CODE AUTO-GENERATED by CSL
    1855                      .dwpsn  file "../c5535_bsl_revc/ezdsp5535_v1/c55xx_csl/src/csl_intc.c",line 1022,column 9,is_stmt
    1856 00056a 46B2          BCLR INTM                ;====> CODE AUTO-GENERATED by CSL
    1857                      .dwpsn  file "../c5535_bsl_revc/ezdsp5535_v1/c55xx_csl/src/csl_intc.c",line 1025,column 1,is_stmt
    1858 00056c       $C$L42:    
    1859 00056c 4E01          AADD #1, SP
    1860                      .dwcfi  cfa_offset, 1
    1861              $C$DW$108       .dwtag  DW_TAG_TI_branch
    1862                      .dwattr $C$DW$108, DW_AT_low_pc(0x00)
    1863                      .dwattr $C$DW$108, DW_AT_TI_return
    1864 00056e 4804          RET
    1865                                                      ; return occurs
    1866                      .dwattr $C$DW$105, DW_AT_TI_end_file("../c5535_bsl_revc/ezdsp5535_v1/c55xx_csl/src/csl_intc.c")
    1867                      .dwattr $C$DW$105, DW_AT_TI_end_line(0x401)
    1868                      .dwattr $C$DW$105, DW_AT_TI_end_column(0x01)
    1869                      .dwendentry
    1870                      .dwendtag $C$DW$105
    1871              
    1872              
    1873              ;*******************************************************************************
    1874              ;* TYPE INFORMATION                                                            *
    1875              ;*******************************************************************************
    1876              
TMS320C55x Assembler PC v4.4.1 Tue Oct 02 02:32:59 2018

Tools Copyright (c) 1996-2012 Texas Instruments Incorporated
csl_intc.asm                                                         PAGE   40

    1877              $C$DW$T$23      .dwtag  DW_TAG_structure_type
    1878                      .dwattr $C$DW$T$23, DW_AT_byte_size(0x08)
    1879              $C$DW$109       .dwtag  DW_TAG_member
    1880                      .dwattr $C$DW$109, DW_AT_type(*$C$DW$T$21)
    1881                      .dwattr $C$DW$109, DW_AT_name("funcAddr")
    1882                      .dwattr $C$DW$109, DW_AT_TI_symbol_name("_funcAddr")
    1883                      .dwattr $C$DW$109, DW_AT_data_member_location[DW_OP_plus_uconst 0x0]
    1884                      .dwattr $C$DW$109, DW_AT_accessibility(DW_ACCESS_public)
    1885              $C$DW$110       .dwtag  DW_TAG_member
    1886                      .dwattr $C$DW$110, DW_AT_type(*$C$DW$T$22)
    1887                      .dwattr $C$DW$110, DW_AT_name("funcArg")
    1888                      .dwattr $C$DW$110, DW_AT_TI_symbol_name("_funcArg")
    1889                      .dwattr $C$DW$110, DW_AT_data_member_location[DW_OP_plus_uconst 0x2]
    1890                      .dwattr $C$DW$110, DW_AT_accessibility(DW_ACCESS_public)
    1891              $C$DW$111       .dwtag  DW_TAG_member
    1892                      .dwattr $C$DW$111, DW_AT_type(*$C$DW$T$22)
    1893                      .dwattr $C$DW$111, DW_AT_name("ierMask")
    1894                      .dwattr $C$DW$111, DW_AT_TI_symbol_name("_ierMask")
    1895                      .dwattr $C$DW$111, DW_AT_data_member_location[DW_OP_plus_uconst 0x4]
    1896                      .dwattr $C$DW$111, DW_AT_accessibility(DW_ACCESS_public)
    1897              $C$DW$112       .dwtag  DW_TAG_member
    1898                      .dwattr $C$DW$112, DW_AT_type(*$C$DW$T$22)
    1899                      .dwattr $C$DW$112, DW_AT_name("cacheCtrl")
    1900                      .dwattr $C$DW$112, DW_AT_TI_symbol_name("_cacheCtrl")
    1901                      .dwattr $C$DW$112, DW_AT_data_member_location[DW_OP_plus_uconst 0x6]
    1902                      .dwattr $C$DW$112, DW_AT_accessibility(DW_ACCESS_public)
    1903                      .dwendtag $C$DW$T$23
    1904              
    1905              $C$DW$T$25      .dwtag  DW_TAG_typedef, DW_AT_name("CSL_IRQ_Dispatch")
    1906                      .dwattr $C$DW$T$25, DW_AT_type(*$C$DW$T$23)
    1907                      .dwattr $C$DW$T$25, DW_AT_language(DW_LANG_C)
    1908              $C$DW$T$26      .dwtag  DW_TAG_pointer_type
    1909                      .dwattr $C$DW$T$26, DW_AT_type(*$C$DW$T$25)
    1910                      .dwattr $C$DW$T$26, DW_AT_address_class(0x17)
    1911              
    1912              $C$DW$T$24      .dwtag  DW_TAG_structure_type
    1913                      .dwattr $C$DW$T$24, DW_AT_byte_size(0x08)
    1914              $C$DW$113       .dwtag  DW_TAG_member
    1915                      .dwattr $C$DW$113, DW_AT_type(*$C$DW$T$21)
    1916                      .dwattr $C$DW$113, DW_AT_name("funcAddr")
    1917                      .dwattr $C$DW$113, DW_AT_TI_symbol_name("_funcAddr")
    1918                      .dwattr $C$DW$113, DW_AT_data_member_location[DW_OP_plus_uconst 0x0]
    1919                      .dwattr $C$DW$113, DW_AT_accessibility(DW_ACCESS_public)
    1920              $C$DW$114       .dwtag  DW_TAG_member
    1921                      .dwattr $C$DW$114, DW_AT_type(*$C$DW$T$22)
    1922                      .dwattr $C$DW$114, DW_AT_name("funcArg")
    1923                      .dwattr $C$DW$114, DW_AT_TI_symbol_name("_funcArg")
    1924                      .dwattr $C$DW$114, DW_AT_data_member_location[DW_OP_plus_uconst 0x2]
    1925                      .dwattr $C$DW$114, DW_AT_accessibility(DW_ACCESS_public)
    1926              $C$DW$115       .dwtag  DW_TAG_member
    1927                      .dwattr $C$DW$115, DW_AT_type(*$C$DW$T$22)
    1928                      .dwattr $C$DW$115, DW_AT_name("ierMask")
    1929                      .dwattr $C$DW$115, DW_AT_TI_symbol_name("_ierMask")
    1930                      .dwattr $C$DW$115, DW_AT_data_member_location[DW_OP_plus_uconst 0x4]
    1931                      .dwattr $C$DW$115, DW_AT_accessibility(DW_ACCESS_public)
TMS320C55x Assembler PC v4.4.1 Tue Oct 02 02:32:59 2018

Tools Copyright (c) 1996-2012 Texas Instruments Incorporated
csl_intc.asm                                                         PAGE   41

    1932              $C$DW$116       .dwtag  DW_TAG_member
    1933                      .dwattr $C$DW$116, DW_AT_type(*$C$DW$T$22)
    1934                      .dwattr $C$DW$116, DW_AT_name("cacheCtrl")
    1935                      .dwattr $C$DW$116, DW_AT_TI_symbol_name("_cacheCtrl")
    1936                      .dwattr $C$DW$116, DW_AT_data_member_location[DW_OP_plus_uconst 0x6]
    1937                      .dwattr $C$DW$116, DW_AT_accessibility(DW_ACCESS_public)
    1938                      .dwendtag $C$DW$T$24
    1939              
    1940              $C$DW$T$34      .dwtag  DW_TAG_typedef, DW_AT_name("CSL_IRQ_Config")
    1941                      .dwattr $C$DW$T$34, DW_AT_type(*$C$DW$T$24)
    1942                      .dwattr $C$DW$T$34, DW_AT_language(DW_LANG_C)
    1943              $C$DW$T$35      .dwtag  DW_TAG_pointer_type
    1944                      .dwattr $C$DW$T$35, DW_AT_type(*$C$DW$T$34)
    1945                      .dwattr $C$DW$T$35, DW_AT_address_class(0x17)
    1946              
    1947              $C$DW$T$29      .dwtag  DW_TAG_structure_type
    1948                      .dwattr $C$DW$T$29, DW_AT_byte_size(0x84)
    1949              $C$DW$117       .dwtag  DW_TAG_member
    1950                      .dwattr $C$DW$117, DW_AT_type(*$C$DW$T$26)
    1951                      .dwattr $C$DW$117, DW_AT_name("IrqDispatchTable")
    1952                      .dwattr $C$DW$117, DW_AT_TI_symbol_name("_IrqDispatchTable")
    1953                      .dwattr $C$DW$117, DW_AT_data_member_location[DW_OP_plus_uconst 0x0]
    1954                      .dwattr $C$DW$117, DW_AT_accessibility(DW_ACCESS_public)
    1955              $C$DW$118       .dwtag  DW_TAG_member
    1956                      .dwattr $C$DW$118, DW_AT_type(*$C$DW$T$27)
    1957                      .dwattr $C$DW$118, DW_AT_name("IrqIntTable")
    1958                      .dwattr $C$DW$118, DW_AT_TI_symbol_name("_IrqIntTable")
    1959                      .dwattr $C$DW$118, DW_AT_data_member_location[DW_OP_plus_uconst 0x2]
    1960                      .dwattr $C$DW$118, DW_AT_accessibility(DW_ACCESS_public)
    1961              $C$DW$119       .dwtag  DW_TAG_member
    1962                      .dwattr $C$DW$119, DW_AT_type(*$C$DW$T$27)
    1963                      .dwattr $C$DW$119, DW_AT_name("IrqEventTable")
    1964                      .dwattr $C$DW$119, DW_AT_TI_symbol_name("_IrqEventTable")
    1965                      .dwattr $C$DW$119, DW_AT_data_member_location[DW_OP_plus_uconst 0x42]
    1966                      .dwattr $C$DW$119, DW_AT_accessibility(DW_ACCESS_public)
    1967              $C$DW$120       .dwtag  DW_TAG_member
    1968                      .dwattr $C$DW$120, DW_AT_type(*$C$DW$T$28)
    1969                      .dwattr $C$DW$120, DW_AT_name("biosPresent")
    1970                      .dwattr $C$DW$120, DW_AT_TI_symbol_name("_biosPresent")
    1971                      .dwattr $C$DW$120, DW_AT_data_member_location[DW_OP_plus_uconst 0x82]
    1972                      .dwattr $C$DW$120, DW_AT_accessibility(DW_ACCESS_public)
    1973                      .dwendtag $C$DW$T$29
    1974              
    1975              $C$DW$T$36      .dwtag  DW_TAG_typedef, DW_AT_name("CSL_IrqDataObj")
    1976                      .dwattr $C$DW$T$36, DW_AT_type(*$C$DW$T$29)
    1977                      .dwattr $C$DW$T$36, DW_AT_language(DW_LANG_C)
    1978              
    1979              $C$DW$T$33      .dwtag  DW_TAG_structure_type
    1980                      .dwattr $C$DW$T$33, DW_AT_byte_size(0x4c)
    1981              $C$DW$121       .dwtag  DW_TAG_member
    1982                      .dwattr $C$DW$121, DW_AT_type(*$C$DW$T$30)
    1983                      .dwattr $C$DW$121, DW_AT_name("IER0")
    1984                      .dwattr $C$DW$121, DW_AT_TI_symbol_name("_IER0")
    1985                      .dwattr $C$DW$121, DW_AT_data_member_location[DW_OP_plus_uconst 0x0]
    1986                      .dwattr $C$DW$121, DW_AT_accessibility(DW_ACCESS_public)
TMS320C55x Assembler PC v4.4.1 Tue Oct 02 02:32:59 2018

Tools Copyright (c) 1996-2012 Texas Instruments Incorporated
csl_intc.asm                                                         PAGE   42

    1987              $C$DW$122       .dwtag  DW_TAG_member
    1988                      .dwattr $C$DW$122, DW_AT_type(*$C$DW$T$30)
    1989                      .dwattr $C$DW$122, DW_AT_name("IFR0")
    1990                      .dwattr $C$DW$122, DW_AT_TI_symbol_name("_IFR0")
    1991                      .dwattr $C$DW$122, DW_AT_data_member_location[DW_OP_plus_uconst 0x1]
    1992                      .dwattr $C$DW$122, DW_AT_accessibility(DW_ACCESS_public)
    1993              $C$DW$123       .dwtag  DW_TAG_member
    1994                      .dwattr $C$DW$123, DW_AT_type(*$C$DW$T$30)
    1995                      .dwattr $C$DW$123, DW_AT_name("ST0_55")
    1996                      .dwattr $C$DW$123, DW_AT_TI_symbol_name("_ST0_55")
    1997                      .dwattr $C$DW$123, DW_AT_data_member_location[DW_OP_plus_uconst 0x2]
    1998                      .dwattr $C$DW$123, DW_AT_accessibility(DW_ACCESS_public)
    1999              $C$DW$124       .dwtag  DW_TAG_member
    2000                      .dwattr $C$DW$124, DW_AT_type(*$C$DW$T$30)
    2001                      .dwattr $C$DW$124, DW_AT_name("ST1_55")
    2002                      .dwattr $C$DW$124, DW_AT_TI_symbol_name("_ST1_55")
    2003                      .dwattr $C$DW$124, DW_AT_data_member_location[DW_OP_plus_uconst 0x3]
    2004                      .dwattr $C$DW$124, DW_AT_accessibility(DW_ACCESS_public)
    2005              $C$DW$125       .dwtag  DW_TAG_member
    2006                      .dwattr $C$DW$125, DW_AT_type(*$C$DW$T$30)
    2007                      .dwattr $C$DW$125, DW_AT_name("ST3_55")
    2008                      .dwattr $C$DW$125, DW_AT_TI_symbol_name("_ST3_55")
    2009                      .dwattr $C$DW$125, DW_AT_data_member_location[DW_OP_plus_uconst 0x4]
    2010                      .dwattr $C$DW$125, DW_AT_accessibility(DW_ACCESS_public)
    2011              $C$DW$126       .dwtag  DW_TAG_member
    2012                      .dwattr $C$DW$126, DW_AT_type(*$C$DW$T$31)
    2013                      .dwattr $C$DW$126, DW_AT_name("RSVD0")
    2014                      .dwattr $C$DW$126, DW_AT_TI_symbol_name("_RSVD0")
    2015                      .dwattr $C$DW$126, DW_AT_data_member_location[DW_OP_plus_uconst 0x5]
    2016                      .dwattr $C$DW$126, DW_AT_accessibility(DW_ACCESS_public)
    2017              $C$DW$127       .dwtag  DW_TAG_member
    2018                      .dwattr $C$DW$127, DW_AT_type(*$C$DW$T$30)
    2019                      .dwattr $C$DW$127, DW_AT_name("IER1")
    2020                      .dwattr $C$DW$127, DW_AT_TI_symbol_name("_IER1")
    2021                      .dwattr $C$DW$127, DW_AT_data_member_location[DW_OP_plus_uconst 0x45]
    2022                      .dwattr $C$DW$127, DW_AT_accessibility(DW_ACCESS_public)
    2023              $C$DW$128       .dwtag  DW_TAG_member
    2024                      .dwattr $C$DW$128, DW_AT_type(*$C$DW$T$30)
    2025                      .dwattr $C$DW$128, DW_AT_name("IFR1")
    2026                      .dwattr $C$DW$128, DW_AT_TI_symbol_name("_IFR1")
    2027                      .dwattr $C$DW$128, DW_AT_data_member_location[DW_OP_plus_uconst 0x46]
    2028                      .dwattr $C$DW$128, DW_AT_accessibility(DW_ACCESS_public)
    2029              $C$DW$129       .dwtag  DW_TAG_member
    2030                      .dwattr $C$DW$129, DW_AT_type(*$C$DW$T$32)
    2031                      .dwattr $C$DW$129, DW_AT_name("RSVD1")
    2032                      .dwattr $C$DW$129, DW_AT_TI_symbol_name("_RSVD1")
    2033                      .dwattr $C$DW$129, DW_AT_data_member_location[DW_OP_plus_uconst 0x47]
    2034                      .dwattr $C$DW$129, DW_AT_accessibility(DW_ACCESS_public)
    2035              $C$DW$130       .dwtag  DW_TAG_member
    2036                      .dwattr $C$DW$130, DW_AT_type(*$C$DW$T$30)
    2037                      .dwattr $C$DW$130, DW_AT_name("IVPD")
    2038                      .dwattr $C$DW$130, DW_AT_TI_symbol_name("_IVPD")
    2039                      .dwattr $C$DW$130, DW_AT_data_member_location[DW_OP_plus_uconst 0x49]
    2040                      .dwattr $C$DW$130, DW_AT_accessibility(DW_ACCESS_public)
    2041              $C$DW$131       .dwtag  DW_TAG_member
TMS320C55x Assembler PC v4.4.1 Tue Oct 02 02:32:59 2018

Tools Copyright (c) 1996-2012 Texas Instruments Incorporated
csl_intc.asm                                                         PAGE   43

    2042                      .dwattr $C$DW$131, DW_AT_type(*$C$DW$T$30)
    2043                      .dwattr $C$DW$131, DW_AT_name("IVPH")
    2044                      .dwattr $C$DW$131, DW_AT_TI_symbol_name("_IVPH")
    2045                      .dwattr $C$DW$131, DW_AT_data_member_location[DW_OP_plus_uconst 0x4a]
    2046                      .dwattr $C$DW$131, DW_AT_accessibility(DW_ACCESS_public)
    2047              $C$DW$132       .dwtag  DW_TAG_member
    2048                      .dwattr $C$DW$132, DW_AT_type(*$C$DW$T$30)
    2049                      .dwattr $C$DW$132, DW_AT_name("ST2_55")
    2050                      .dwattr $C$DW$132, DW_AT_TI_symbol_name("_ST2_55")
    2051                      .dwattr $C$DW$132, DW_AT_data_member_location[DW_OP_plus_uconst 0x4b]
    2052                      .dwattr $C$DW$132, DW_AT_accessibility(DW_ACCESS_public)
    2053                      .dwendtag $C$DW$T$33
    2054              
    2055              $C$DW$T$37      .dwtag  DW_TAG_typedef, DW_AT_name("CSL_CpuRegs")
    2056                      .dwattr $C$DW$T$37, DW_AT_type(*$C$DW$T$33)
    2057                      .dwattr $C$DW$T$37, DW_AT_language(DW_LANG_C)
    2058              $C$DW$133       .dwtag  DW_TAG_TI_far_type
    2059                      .dwattr $C$DW$133, DW_AT_type(*$C$DW$T$37)
    2060              $C$DW$T$38      .dwtag  DW_TAG_volatile_type
    2061                      .dwattr $C$DW$T$38, DW_AT_type(*$C$DW$133)
    2062              $C$DW$T$39      .dwtag  DW_TAG_pointer_type
    2063                      .dwattr $C$DW$T$39, DW_AT_type(*$C$DW$T$38)
    2064                      .dwattr $C$DW$T$39, DW_AT_address_class(0x17)
    2065              $C$DW$T$40      .dwtag  DW_TAG_typedef, DW_AT_name("CSL_CpuRegsOvly")
    2066                      .dwattr $C$DW$T$40, DW_AT_type(*$C$DW$T$39)
    2067                      .dwattr $C$DW$T$40, DW_AT_language(DW_LANG_C)
    2068              
    2069              $C$DW$T$19      .dwtag  DW_TAG_subroutine_type
    2070                      .dwattr $C$DW$T$19, DW_AT_language(DW_LANG_C)
    2071              $C$DW$T$20      .dwtag  DW_TAG_pointer_type
    2072                      .dwattr $C$DW$T$20, DW_AT_type(*$C$DW$T$19)
    2073                      .dwattr $C$DW$T$20, DW_AT_address_class(0x20)
    2074              $C$DW$T$21      .dwtag  DW_TAG_typedef, DW_AT_name("IRQ_IsrPtr")
    2075                      .dwattr $C$DW$T$21, DW_AT_type(*$C$DW$T$20)
    2076                      .dwattr $C$DW$T$21, DW_AT_language(DW_LANG_C)
    2077              $C$DW$T$4       .dwtag  DW_TAG_base_type
    2078                      .dwattr $C$DW$T$4, DW_AT_encoding(DW_ATE_boolean)
    2079                      .dwattr $C$DW$T$4, DW_AT_name("bool")
    2080                      .dwattr $C$DW$T$4, DW_AT_byte_size(0x01)
    2081              $C$DW$T$5       .dwtag  DW_TAG_base_type
    2082                      .dwattr $C$DW$T$5, DW_AT_encoding(DW_ATE_signed_char)
    2083                      .dwattr $C$DW$T$5, DW_AT_name("signed char")
    2084                      .dwattr $C$DW$T$5, DW_AT_byte_size(0x01)
    2085              $C$DW$T$6       .dwtag  DW_TAG_base_type
    2086                      .dwattr $C$DW$T$6, DW_AT_encoding(DW_ATE_unsigned_char)
    2087                      .dwattr $C$DW$T$6, DW_AT_name("unsigned char")
    2088                      .dwattr $C$DW$T$6, DW_AT_byte_size(0x01)
    2089              $C$DW$T$7       .dwtag  DW_TAG_base_type
    2090                      .dwattr $C$DW$T$7, DW_AT_encoding(DW_ATE_signed_char)
    2091                      .dwattr $C$DW$T$7, DW_AT_name("wchar_t")
    2092                      .dwattr $C$DW$T$7, DW_AT_byte_size(0x01)
    2093              $C$DW$T$8       .dwtag  DW_TAG_base_type
    2094                      .dwattr $C$DW$T$8, DW_AT_encoding(DW_ATE_signed)
    2095                      .dwattr $C$DW$T$8, DW_AT_name("short")
    2096                      .dwattr $C$DW$T$8, DW_AT_byte_size(0x01)
TMS320C55x Assembler PC v4.4.1 Tue Oct 02 02:32:59 2018

Tools Copyright (c) 1996-2012 Texas Instruments Incorporated
csl_intc.asm                                                         PAGE   44

    2097              $C$DW$T$44      .dwtag  DW_TAG_typedef, DW_AT_name("Int16")
    2098                      .dwattr $C$DW$T$44, DW_AT_type(*$C$DW$T$8)
    2099                      .dwattr $C$DW$T$44, DW_AT_language(DW_LANG_C)
    2100              $C$DW$T$45      .dwtag  DW_TAG_typedef, DW_AT_name("CSL_Status")
    2101                      .dwattr $C$DW$T$45, DW_AT_type(*$C$DW$T$44)
    2102                      .dwattr $C$DW$T$45, DW_AT_language(DW_LANG_C)
    2103              $C$DW$T$9       .dwtag  DW_TAG_base_type
    2104                      .dwattr $C$DW$T$9, DW_AT_encoding(DW_ATE_unsigned)
    2105                      .dwattr $C$DW$T$9, DW_AT_name("unsigned short")
    2106                      .dwattr $C$DW$T$9, DW_AT_byte_size(0x01)
    2107              $C$DW$T$28      .dwtag  DW_TAG_typedef, DW_AT_name("Uint16")
    2108                      .dwattr $C$DW$T$28, DW_AT_type(*$C$DW$T$9)
    2109                      .dwattr $C$DW$T$28, DW_AT_language(DW_LANG_C)
    2110              $C$DW$134       .dwtag  DW_TAG_TI_far_type
    2111                      .dwattr $C$DW$134, DW_AT_type(*$C$DW$T$28)
    2112              $C$DW$T$30      .dwtag  DW_TAG_volatile_type
    2113                      .dwattr $C$DW$T$30, DW_AT_type(*$C$DW$134)
    2114              
    2115              $C$DW$T$31      .dwtag  DW_TAG_array_type
    2116                      .dwattr $C$DW$T$31, DW_AT_type(*$C$DW$T$30)
    2117                      .dwattr $C$DW$T$31, DW_AT_language(DW_LANG_C)
    2118                      .dwattr $C$DW$T$31, DW_AT_byte_size(0x40)
    2119              $C$DW$135       .dwtag  DW_TAG_subrange_type
    2120                      .dwattr $C$DW$135, DW_AT_upper_bound(0x3f)
    2121                      .dwendtag $C$DW$T$31
    2122              
    2123              
    2124              $C$DW$T$32      .dwtag  DW_TAG_array_type
    2125                      .dwattr $C$DW$T$32, DW_AT_type(*$C$DW$T$30)
    2126                      .dwattr $C$DW$T$32, DW_AT_language(DW_LANG_C)
    2127                      .dwattr $C$DW$T$32, DW_AT_byte_size(0x02)
    2128              $C$DW$136       .dwtag  DW_TAG_subrange_type
    2129                      .dwattr $C$DW$136, DW_AT_upper_bound(0x01)
    2130                      .dwendtag $C$DW$T$32
    2131              
    2132              $C$DW$T$10      .dwtag  DW_TAG_base_type
    2133                      .dwattr $C$DW$T$10, DW_AT_encoding(DW_ATE_signed)
    2134                      .dwattr $C$DW$T$10, DW_AT_name("int")
    2135                      .dwattr $C$DW$T$10, DW_AT_byte_size(0x01)
    2136              $C$DW$T$41      .dwtag  DW_TAG_typedef, DW_AT_name("Bool")
    2137                      .dwattr $C$DW$T$41, DW_AT_type(*$C$DW$T$10)
    2138                      .dwattr $C$DW$T$41, DW_AT_language(DW_LANG_C)
    2139              $C$DW$T$54      .dwtag  DW_TAG_pointer_type
    2140                      .dwattr $C$DW$T$54, DW_AT_type(*$C$DW$T$41)
    2141                      .dwattr $C$DW$T$54, DW_AT_address_class(0x17)
    2142              $C$DW$T$11      .dwtag  DW_TAG_base_type
    2143                      .dwattr $C$DW$T$11, DW_AT_encoding(DW_ATE_unsigned)
    2144                      .dwattr $C$DW$T$11, DW_AT_name("unsigned int")
    2145                      .dwattr $C$DW$T$11, DW_AT_byte_size(0x01)
    2146              $C$DW$T$12      .dwtag  DW_TAG_base_type
    2147                      .dwattr $C$DW$T$12, DW_AT_encoding(DW_ATE_signed)
    2148                      .dwattr $C$DW$T$12, DW_AT_name("long")
    2149                      .dwattr $C$DW$T$12, DW_AT_byte_size(0x02)
    2150              $C$DW$T$13      .dwtag  DW_TAG_base_type
    2151                      .dwattr $C$DW$T$13, DW_AT_encoding(DW_ATE_unsigned)
TMS320C55x Assembler PC v4.4.1 Tue Oct 02 02:32:59 2018

Tools Copyright (c) 1996-2012 Texas Instruments Incorporated
csl_intc.asm                                                         PAGE   45

    2152                      .dwattr $C$DW$T$13, DW_AT_name("unsigned long")
    2153                      .dwattr $C$DW$T$13, DW_AT_byte_size(0x02)
    2154              $C$DW$T$22      .dwtag  DW_TAG_typedef, DW_AT_name("Uint32")
    2155                      .dwattr $C$DW$T$22, DW_AT_type(*$C$DW$T$13)
    2156                      .dwattr $C$DW$T$22, DW_AT_language(DW_LANG_C)
    2157              
    2158              $C$DW$T$27      .dwtag  DW_TAG_array_type
    2159                      .dwattr $C$DW$T$27, DW_AT_type(*$C$DW$T$22)
    2160                      .dwattr $C$DW$T$27, DW_AT_language(DW_LANG_C)
    2161                      .dwattr $C$DW$T$27, DW_AT_byte_size(0x40)
    2162              $C$DW$137       .dwtag  DW_TAG_subrange_type
    2163                      .dwattr $C$DW$137, DW_AT_upper_bound(0x1f)
    2164                      .dwendtag $C$DW$T$27
    2165              
    2166              $C$DW$T$50      .dwtag  DW_TAG_pointer_type
    2167                      .dwattr $C$DW$T$50, DW_AT_type(*$C$DW$T$22)
    2168                      .dwattr $C$DW$T$50, DW_AT_address_class(0x17)
    2169              $C$DW$T$14      .dwtag  DW_TAG_base_type
    2170                      .dwattr $C$DW$T$14, DW_AT_encoding(DW_ATE_signed)
    2171                      .dwattr $C$DW$T$14, DW_AT_name("long long")
    2172                      .dwattr $C$DW$T$14, DW_AT_byte_size(0x04)
    2173                      .dwattr $C$DW$T$14, DW_AT_bit_size(0x28)
    2174                      .dwattr $C$DW$T$14, DW_AT_bit_offset(0x18)
    2175              $C$DW$T$15      .dwtag  DW_TAG_base_type
    2176                      .dwattr $C$DW$T$15, DW_AT_encoding(DW_ATE_unsigned)
    2177                      .dwattr $C$DW$T$15, DW_AT_name("unsigned long long")
    2178                      .dwattr $C$DW$T$15, DW_AT_byte_size(0x04)
    2179                      .dwattr $C$DW$T$15, DW_AT_bit_size(0x28)
    2180                      .dwattr $C$DW$T$15, DW_AT_bit_offset(0x18)
    2181              $C$DW$T$16      .dwtag  DW_TAG_base_type
    2182                      .dwattr $C$DW$T$16, DW_AT_encoding(DW_ATE_float)
    2183                      .dwattr $C$DW$T$16, DW_AT_name("float")
    2184                      .dwattr $C$DW$T$16, DW_AT_byte_size(0x02)
    2185              $C$DW$T$17      .dwtag  DW_TAG_base_type
    2186                      .dwattr $C$DW$T$17, DW_AT_encoding(DW_ATE_float)
    2187                      .dwattr $C$DW$T$17, DW_AT_name("double")
    2188                      .dwattr $C$DW$T$17, DW_AT_byte_size(0x02)
    2189              $C$DW$T$18      .dwtag  DW_TAG_base_type
    2190                      .dwattr $C$DW$T$18, DW_AT_encoding(DW_ATE_float)
    2191                      .dwattr $C$DW$T$18, DW_AT_name("long double")
    2192                      .dwattr $C$DW$T$18, DW_AT_byte_size(0x02)
    2193                      .dwattr $C$DW$CU, DW_AT_language(DW_LANG_C)
    2194              
    2195              ;***************************************************************
    2196              ;* DWARF CIE ENTRIES                                           *
    2197              ;***************************************************************
    2198              
    2199              $C$DW$CIE       .dwcie 91
    2200                      .dwcfi  cfa_register, 36
    2201                      .dwcfi  cfa_offset, 0
    2202                      .dwcfi  undefined, 0
    2203                      .dwcfi  undefined, 1
    2204                      .dwcfi  undefined, 2
    2205                      .dwcfi  undefined, 3
    2206                      .dwcfi  undefined, 4
TMS320C55x Assembler PC v4.4.1 Tue Oct 02 02:32:59 2018

Tools Copyright (c) 1996-2012 Texas Instruments Incorporated
csl_intc.asm                                                         PAGE   46

    2207                      .dwcfi  undefined, 5
    2208                      .dwcfi  undefined, 6
    2209                      .dwcfi  undefined, 7
    2210                      .dwcfi  undefined, 8
    2211                      .dwcfi  undefined, 9
    2212                      .dwcfi  undefined, 10
    2213                      .dwcfi  undefined, 11
    2214                      .dwcfi  undefined, 12
    2215                      .dwcfi  undefined, 13
    2216                      .dwcfi  same_value, 14
    2217                      .dwcfi  same_value, 15
    2218                      .dwcfi  undefined, 16
    2219                      .dwcfi  undefined, 17
    2220                      .dwcfi  undefined, 18
    2221                      .dwcfi  undefined, 19
    2222                      .dwcfi  undefined, 20
    2223                      .dwcfi  undefined, 21
    2224                      .dwcfi  undefined, 22
    2225                      .dwcfi  undefined, 23
    2226                      .dwcfi  undefined, 24
    2227                      .dwcfi  undefined, 25
    2228                      .dwcfi  same_value, 26
    2229                      .dwcfi  same_value, 27
    2230                      .dwcfi  same_value, 28
    2231                      .dwcfi  same_value, 29
    2232                      .dwcfi  same_value, 30
    2233                      .dwcfi  same_value, 31
    2234                      .dwcfi  undefined, 32
    2235                      .dwcfi  undefined, 33
    2236                      .dwcfi  undefined, 34
    2237                      .dwcfi  undefined, 35
    2238                      .dwcfi  undefined, 36
    2239                      .dwcfi  undefined, 37
    2240                      .dwcfi  undefined, 38
    2241                      .dwcfi  undefined, 39
    2242                      .dwcfi  undefined, 40
    2243                      .dwcfi  undefined, 41
    2244                      .dwcfi  undefined, 42
    2245                      .dwcfi  undefined, 43
    2246                      .dwcfi  undefined, 44
    2247                      .dwcfi  undefined, 45
    2248                      .dwcfi  undefined, 46
    2249                      .dwcfi  undefined, 47
    2250                      .dwcfi  undefined, 48
    2251                      .dwcfi  undefined, 49
    2252                      .dwcfi  undefined, 50
    2253                      .dwcfi  undefined, 51
    2254                      .dwcfi  undefined, 52
    2255                      .dwcfi  undefined, 53
    2256                      .dwcfi  undefined, 54
    2257                      .dwcfi  undefined, 55
    2258                      .dwcfi  undefined, 56
    2259                      .dwcfi  undefined, 57
    2260                      .dwcfi  undefined, 58
    2261                      .dwcfi  undefined, 59
TMS320C55x Assembler PC v4.4.1 Tue Oct 02 02:32:59 2018

Tools Copyright (c) 1996-2012 Texas Instruments Incorporated
csl_intc.asm                                                         PAGE   47

    2262                      .dwcfi  undefined, 60
    2263                      .dwcfi  undefined, 61
    2264                      .dwcfi  undefined, 62
    2265                      .dwcfi  undefined, 63
    2266                      .dwcfi  undefined, 64
    2267                      .dwcfi  undefined, 65
    2268                      .dwcfi  undefined, 66
    2269                      .dwcfi  undefined, 67
    2270                      .dwcfi  undefined, 68
    2271                      .dwcfi  undefined, 69
    2272                      .dwcfi  undefined, 70
    2273                      .dwcfi  undefined, 71
    2274                      .dwcfi  undefined, 72
    2275                      .dwcfi  undefined, 73
    2276                      .dwcfi  undefined, 74
    2277                      .dwcfi  undefined, 75
    2278                      .dwcfi  undefined, 76
    2279                      .dwcfi  undefined, 77
    2280                      .dwcfi  undefined, 78
    2281                      .dwcfi  undefined, 79
    2282                      .dwcfi  undefined, 80
    2283                      .dwcfi  undefined, 81
    2284                      .dwcfi  undefined, 82
    2285                      .dwcfi  undefined, 83
    2286                      .dwcfi  undefined, 84
    2287                      .dwcfi  undefined, 85
    2288                      .dwcfi  undefined, 86
    2289                      .dwcfi  undefined, 87
    2290                      .dwcfi  undefined, 88
    2291                      .dwcfi  undefined, 89
    2292                      .dwcfi  undefined, 90
    2293                      .dwcfi  undefined, 91
    2294                      .dwendentry
    2295              
    2296              ;***************************************************************
    2297              ;* DWARF REGISTER MAP                                          *
    2298              ;***************************************************************
    2299              
    2300              $C$DW$138       .dwtag  DW_TAG_TI_assign_register, DW_AT_name("AC0")
    2301                      .dwattr $C$DW$138, DW_AT_location[DW_OP_reg0]
    2302              $C$DW$139       .dwtag  DW_TAG_TI_assign_register, DW_AT_name("AC0")
    2303                      .dwattr $C$DW$139, DW_AT_location[DW_OP_reg1]
    2304              $C$DW$140       .dwtag  DW_TAG_TI_assign_register, DW_AT_name("AC0_G")
    2305                      .dwattr $C$DW$140, DW_AT_location[DW_OP_reg2]
    2306              $C$DW$141       .dwtag  DW_TAG_TI_assign_register, DW_AT_name("AC1")
    2307                      .dwattr $C$DW$141, DW_AT_location[DW_OP_reg3]
    2308              $C$DW$142       .dwtag  DW_TAG_TI_assign_register, DW_AT_name("AC1")
    2309                      .dwattr $C$DW$142, DW_AT_location[DW_OP_reg4]
    2310              $C$DW$143       .dwtag  DW_TAG_TI_assign_register, DW_AT_name("AC1_G")
    2311                      .dwattr $C$DW$143, DW_AT_location[DW_OP_reg5]
    2312              $C$DW$144       .dwtag  DW_TAG_TI_assign_register, DW_AT_name("AC2")
    2313                      .dwattr $C$DW$144, DW_AT_location[DW_OP_reg6]
    2314              $C$DW$145       .dwtag  DW_TAG_TI_assign_register, DW_AT_name("AC2")
    2315                      .dwattr $C$DW$145, DW_AT_location[DW_OP_reg7]
    2316              $C$DW$146       .dwtag  DW_TAG_TI_assign_register, DW_AT_name("AC2_G")
TMS320C55x Assembler PC v4.4.1 Tue Oct 02 02:32:59 2018

Tools Copyright (c) 1996-2012 Texas Instruments Incorporated
csl_intc.asm                                                         PAGE   48

    2317                      .dwattr $C$DW$146, DW_AT_location[DW_OP_reg8]
    2318              $C$DW$147       .dwtag  DW_TAG_TI_assign_register, DW_AT_name("AC3")
    2319                      .dwattr $C$DW$147, DW_AT_location[DW_OP_reg9]
    2320              $C$DW$148       .dwtag  DW_TAG_TI_assign_register, DW_AT_name("AC3")
    2321                      .dwattr $C$DW$148, DW_AT_location[DW_OP_reg10]
    2322              $C$DW$149       .dwtag  DW_TAG_TI_assign_register, DW_AT_name("AC3_G")
    2323                      .dwattr $C$DW$149, DW_AT_location[DW_OP_reg11]
    2324              $C$DW$150       .dwtag  DW_TAG_TI_assign_register, DW_AT_name("T0")
    2325                      .dwattr $C$DW$150, DW_AT_location[DW_OP_reg12]
    2326              $C$DW$151       .dwtag  DW_TAG_TI_assign_register, DW_AT_name("T1")
    2327                      .dwattr $C$DW$151, DW_AT_location[DW_OP_reg13]
    2328              $C$DW$152       .dwtag  DW_TAG_TI_assign_register, DW_AT_name("T2")
    2329                      .dwattr $C$DW$152, DW_AT_location[DW_OP_reg14]
    2330              $C$DW$153       .dwtag  DW_TAG_TI_assign_register, DW_AT_name("T3")
    2331                      .dwattr $C$DW$153, DW_AT_location[DW_OP_reg15]
    2332              $C$DW$154       .dwtag  DW_TAG_TI_assign_register, DW_AT_name("AR0")
    2333                      .dwattr $C$DW$154, DW_AT_location[DW_OP_reg16]
    2334              $C$DW$155       .dwtag  DW_TAG_TI_assign_register, DW_AT_name("XAR0")
    2335                      .dwattr $C$DW$155, DW_AT_location[DW_OP_reg17]
    2336              $C$DW$156       .dwtag  DW_TAG_TI_assign_register, DW_AT_name("AR1")
    2337                      .dwattr $C$DW$156, DW_AT_location[DW_OP_reg18]
    2338              $C$DW$157       .dwtag  DW_TAG_TI_assign_register, DW_AT_name("XAR1")
    2339                      .dwattr $C$DW$157, DW_AT_location[DW_OP_reg19]
    2340              $C$DW$158       .dwtag  DW_TAG_TI_assign_register, DW_AT_name("AR2")
    2341                      .dwattr $C$DW$158, DW_AT_location[DW_OP_reg20]
    2342              $C$DW$159       .dwtag  DW_TAG_TI_assign_register, DW_AT_name("XAR2")
    2343                      .dwattr $C$DW$159, DW_AT_location[DW_OP_reg21]
    2344              $C$DW$160       .dwtag  DW_TAG_TI_assign_register, DW_AT_name("AR3")
    2345                      .dwattr $C$DW$160, DW_AT_location[DW_OP_reg22]
    2346              $C$DW$161       .dwtag  DW_TAG_TI_assign_register, DW_AT_name("XAR3")
    2347                      .dwattr $C$DW$161, DW_AT_location[DW_OP_reg23]
    2348              $C$DW$162       .dwtag  DW_TAG_TI_assign_register, DW_AT_name("AR4")
    2349                      .dwattr $C$DW$162, DW_AT_location[DW_OP_reg24]
    2350              $C$DW$163       .dwtag  DW_TAG_TI_assign_register, DW_AT_name("XAR4")
    2351                      .dwattr $C$DW$163, DW_AT_location[DW_OP_reg25]
    2352              $C$DW$164       .dwtag  DW_TAG_TI_assign_register, DW_AT_name("AR5")
    2353                      .dwattr $C$DW$164, DW_AT_location[DW_OP_reg26]
    2354              $C$DW$165       .dwtag  DW_TAG_TI_assign_register, DW_AT_name("XAR5")
    2355                      .dwattr $C$DW$165, DW_AT_location[DW_OP_reg27]
    2356              $C$DW$166       .dwtag  DW_TAG_TI_assign_register, DW_AT_name("AR6")
    2357                      .dwattr $C$DW$166, DW_AT_location[DW_OP_reg28]
    2358              $C$DW$167       .dwtag  DW_TAG_TI_assign_register, DW_AT_name("XAR6")
    2359                      .dwattr $C$DW$167, DW_AT_location[DW_OP_reg29]
    2360              $C$DW$168       .dwtag  DW_TAG_TI_assign_register, DW_AT_name("AR7")
    2361                      .dwattr $C$DW$168, DW_AT_location[DW_OP_reg30]
    2362              $C$DW$169       .dwtag  DW_TAG_TI_assign_register, DW_AT_name("XAR7")
    2363                      .dwattr $C$DW$169, DW_AT_location[DW_OP_reg31]
    2364              $C$DW$170       .dwtag  DW_TAG_TI_assign_register, DW_AT_name("FP")
    2365                      .dwattr $C$DW$170, DW_AT_location[DW_OP_regx 0x20]
    2366              $C$DW$171       .dwtag  DW_TAG_TI_assign_register, DW_AT_name("XFP")
    2367                      .dwattr $C$DW$171, DW_AT_location[DW_OP_regx 0x21]
    2368              $C$DW$172       .dwtag  DW_TAG_TI_assign_register, DW_AT_name("PC")
    2369                      .dwattr $C$DW$172, DW_AT_location[DW_OP_regx 0x22]
    2370              $C$DW$173       .dwtag  DW_TAG_TI_assign_register, DW_AT_name("SP")
    2371                      .dwattr $C$DW$173, DW_AT_location[DW_OP_regx 0x23]
TMS320C55x Assembler PC v4.4.1 Tue Oct 02 02:32:59 2018

Tools Copyright (c) 1996-2012 Texas Instruments Incorporated
csl_intc.asm                                                         PAGE   49

    2372              $C$DW$174       .dwtag  DW_TAG_TI_assign_register, DW_AT_name("XSP")
    2373                      .dwattr $C$DW$174, DW_AT_location[DW_OP_regx 0x24]
    2374              $C$DW$175       .dwtag  DW_TAG_TI_assign_register, DW_AT_name("BKC")
    2375                      .dwattr $C$DW$175, DW_AT_location[DW_OP_regx 0x25]
    2376              $C$DW$176       .dwtag  DW_TAG_TI_assign_register, DW_AT_name("BK03")
    2377                      .dwattr $C$DW$176, DW_AT_location[DW_OP_regx 0x26]
    2378              $C$DW$177       .dwtag  DW_TAG_TI_assign_register, DW_AT_name("BK47")
    2379                      .dwattr $C$DW$177, DW_AT_location[DW_OP_regx 0x27]
    2380              $C$DW$178       .dwtag  DW_TAG_TI_assign_register, DW_AT_name("ST0")
    2381                      .dwattr $C$DW$178, DW_AT_location[DW_OP_regx 0x28]
    2382              $C$DW$179       .dwtag  DW_TAG_TI_assign_register, DW_AT_name("ST1")
    2383                      .dwattr $C$DW$179, DW_AT_location[DW_OP_regx 0x29]
    2384              $C$DW$180       .dwtag  DW_TAG_TI_assign_register, DW_AT_name("ST2")
    2385                      .dwattr $C$DW$180, DW_AT_location[DW_OP_regx 0x2a]
    2386              $C$DW$181       .dwtag  DW_TAG_TI_assign_register, DW_AT_name("ST3")
    2387                      .dwattr $C$DW$181, DW_AT_location[DW_OP_regx 0x2b]
    2388              $C$DW$182       .dwtag  DW_TAG_TI_assign_register, DW_AT_name("MDP")
    2389                      .dwattr $C$DW$182, DW_AT_location[DW_OP_regx 0x2c]
    2390              $C$DW$183       .dwtag  DW_TAG_TI_assign_register, DW_AT_name("MDP05")
    2391                      .dwattr $C$DW$183, DW_AT_location[DW_OP_regx 0x2d]
    2392              $C$DW$184       .dwtag  DW_TAG_TI_assign_register, DW_AT_name("MDP67")
    2393                      .dwattr $C$DW$184, DW_AT_location[DW_OP_regx 0x2e]
    2394              $C$DW$185       .dwtag  DW_TAG_TI_assign_register, DW_AT_name("BRC0")
    2395                      .dwattr $C$DW$185, DW_AT_location[DW_OP_regx 0x2f]
    2396              $C$DW$186       .dwtag  DW_TAG_TI_assign_register, DW_AT_name("RSA0")
    2397                      .dwattr $C$DW$186, DW_AT_location[DW_OP_regx 0x30]
    2398              $C$DW$187       .dwtag  DW_TAG_TI_assign_register, DW_AT_name("RSA0_H")
    2399                      .dwattr $C$DW$187, DW_AT_location[DW_OP_regx 0x31]
    2400              $C$DW$188       .dwtag  DW_TAG_TI_assign_register, DW_AT_name("REA0")
    2401                      .dwattr $C$DW$188, DW_AT_location[DW_OP_regx 0x32]
    2402              $C$DW$189       .dwtag  DW_TAG_TI_assign_register, DW_AT_name("REA0_H")
    2403                      .dwattr $C$DW$189, DW_AT_location[DW_OP_regx 0x33]
    2404              $C$DW$190       .dwtag  DW_TAG_TI_assign_register, DW_AT_name("BRS1")
    2405                      .dwattr $C$DW$190, DW_AT_location[DW_OP_regx 0x34]
    2406              $C$DW$191       .dwtag  DW_TAG_TI_assign_register, DW_AT_name("BRC1")
    2407                      .dwattr $C$DW$191, DW_AT_location[DW_OP_regx 0x35]
    2408              $C$DW$192       .dwtag  DW_TAG_TI_assign_register, DW_AT_name("RSA1")
    2409                      .dwattr $C$DW$192, DW_AT_location[DW_OP_regx 0x36]
    2410              $C$DW$193       .dwtag  DW_TAG_TI_assign_register, DW_AT_name("RSA1_H")
    2411                      .dwattr $C$DW$193, DW_AT_location[DW_OP_regx 0x37]
    2412              $C$DW$194       .dwtag  DW_TAG_TI_assign_register, DW_AT_name("REA1")
    2413                      .dwattr $C$DW$194, DW_AT_location[DW_OP_regx 0x38]
    2414              $C$DW$195       .dwtag  DW_TAG_TI_assign_register, DW_AT_name("REA1_H")
    2415                      .dwattr $C$DW$195, DW_AT_location[DW_OP_regx 0x39]
    2416              $C$DW$196       .dwtag  DW_TAG_TI_assign_register, DW_AT_name("CSR")
    2417                      .dwattr $C$DW$196, DW_AT_location[DW_OP_regx 0x3a]
    2418              $C$DW$197       .dwtag  DW_TAG_TI_assign_register, DW_AT_name("RPTC")
    2419                      .dwattr $C$DW$197, DW_AT_location[DW_OP_regx 0x3b]
    2420              $C$DW$198       .dwtag  DW_TAG_TI_assign_register, DW_AT_name("CDP")
    2421                      .dwattr $C$DW$198, DW_AT_location[DW_OP_regx 0x3c]
    2422              $C$DW$199       .dwtag  DW_TAG_TI_assign_register, DW_AT_name("XCDP")
    2423                      .dwattr $C$DW$199, DW_AT_location[DW_OP_regx 0x3d]
    2424              $C$DW$200       .dwtag  DW_TAG_TI_assign_register, DW_AT_name("TRN0")
    2425                      .dwattr $C$DW$200, DW_AT_location[DW_OP_regx 0x3e]
    2426              $C$DW$201       .dwtag  DW_TAG_TI_assign_register, DW_AT_name("TRN1")
TMS320C55x Assembler PC v4.4.1 Tue Oct 02 02:32:59 2018

Tools Copyright (c) 1996-2012 Texas Instruments Incorporated
csl_intc.asm                                                         PAGE   50

    2427                      .dwattr $C$DW$201, DW_AT_location[DW_OP_regx 0x3f]
    2428              $C$DW$202       .dwtag  DW_TAG_TI_assign_register, DW_AT_name("BSA01")
    2429                      .dwattr $C$DW$202, DW_AT_location[DW_OP_regx 0x40]
    2430              $C$DW$203       .dwtag  DW_TAG_TI_assign_register, DW_AT_name("BSA23")
    2431                      .dwattr $C$DW$203, DW_AT_location[DW_OP_regx 0x41]
    2432              $C$DW$204       .dwtag  DW_TAG_TI_assign_register, DW_AT_name("BSA45")
    2433                      .dwattr $C$DW$204, DW_AT_location[DW_OP_regx 0x42]
    2434              $C$DW$205       .dwtag  DW_TAG_TI_assign_register, DW_AT_name("BSA67")
    2435                      .dwattr $C$DW$205, DW_AT_location[DW_OP_regx 0x43]
    2436              $C$DW$206       .dwtag  DW_TAG_TI_assign_register, DW_AT_name("BSAC")
    2437                      .dwattr $C$DW$206, DW_AT_location[DW_OP_regx 0x44]
    2438              $C$DW$207       .dwtag  DW_TAG_TI_assign_register, DW_AT_name("CARRY")
    2439                      .dwattr $C$DW$207, DW_AT_location[DW_OP_regx 0x45]
    2440              $C$DW$208       .dwtag  DW_TAG_TI_assign_register, DW_AT_name("TC1")
    2441                      .dwattr $C$DW$208, DW_AT_location[DW_OP_regx 0x46]
    2442              $C$DW$209       .dwtag  DW_TAG_TI_assign_register, DW_AT_name("TC2")
    2443                      .dwattr $C$DW$209, DW_AT_location[DW_OP_regx 0x47]
    2444              $C$DW$210       .dwtag  DW_TAG_TI_assign_register, DW_AT_name("M40")
    2445                      .dwattr $C$DW$210, DW_AT_location[DW_OP_regx 0x48]
    2446              $C$DW$211       .dwtag  DW_TAG_TI_assign_register, DW_AT_name("SXMD")
    2447                      .dwattr $C$DW$211, DW_AT_location[DW_OP_regx 0x49]
    2448              $C$DW$212       .dwtag  DW_TAG_TI_assign_register, DW_AT_name("ARMS")
    2449                      .dwattr $C$DW$212, DW_AT_location[DW_OP_regx 0x4a]
    2450              $C$DW$213       .dwtag  DW_TAG_TI_assign_register, DW_AT_name("C54CM")
    2451                      .dwattr $C$DW$213, DW_AT_location[DW_OP_regx 0x4b]
    2452              $C$DW$214       .dwtag  DW_TAG_TI_assign_register, DW_AT_name("SATA")
    2453                      .dwattr $C$DW$214, DW_AT_location[DW_OP_regx 0x4c]
    2454              $C$DW$215       .dwtag  DW_TAG_TI_assign_register, DW_AT_name("SATD")
    2455                      .dwattr $C$DW$215, DW_AT_location[DW_OP_regx 0x4d]
    2456              $C$DW$216       .dwtag  DW_TAG_TI_assign_register, DW_AT_name("RDM")
    2457                      .dwattr $C$DW$216, DW_AT_location[DW_OP_regx 0x4e]
    2458              $C$DW$217       .dwtag  DW_TAG_TI_assign_register, DW_AT_name("FRCT")
    2459                      .dwattr $C$DW$217, DW_AT_location[DW_OP_regx 0x4f]
    2460              $C$DW$218       .dwtag  DW_TAG_TI_assign_register, DW_AT_name("SMUL")
    2461                      .dwattr $C$DW$218, DW_AT_location[DW_OP_regx 0x50]
    2462              $C$DW$219       .dwtag  DW_TAG_TI_assign_register, DW_AT_name("INTM")
    2463                      .dwattr $C$DW$219, DW_AT_location[DW_OP_regx 0x51]
    2464              $C$DW$220       .dwtag  DW_TAG_TI_assign_register, DW_AT_name("AR0LC")
    2465                      .dwattr $C$DW$220, DW_AT_location[DW_OP_regx 0x52]
    2466              $C$DW$221       .dwtag  DW_TAG_TI_assign_register, DW_AT_name("AR1LC")
    2467                      .dwattr $C$DW$221, DW_AT_location[DW_OP_regx 0x53]
    2468              $C$DW$222       .dwtag  DW_TAG_TI_assign_register, DW_AT_name("AR2LC")
    2469                      .dwattr $C$DW$222, DW_AT_location[DW_OP_regx 0x54]
    2470              $C$DW$223       .dwtag  DW_TAG_TI_assign_register, DW_AT_name("AR3LC")
    2471                      .dwattr $C$DW$223, DW_AT_location[DW_OP_regx 0x55]
    2472              $C$DW$224       .dwtag  DW_TAG_TI_assign_register, DW_AT_name("AR4LC")
    2473                      .dwattr $C$DW$224, DW_AT_location[DW_OP_regx 0x56]
    2474              $C$DW$225       .dwtag  DW_TAG_TI_assign_register, DW_AT_name("AR5LC")
    2475                      .dwattr $C$DW$225, DW_AT_location[DW_OP_regx 0x57]
    2476              $C$DW$226       .dwtag  DW_TAG_TI_assign_register, DW_AT_name("AR6LC")
    2477                      .dwattr $C$DW$226, DW_AT_location[DW_OP_regx 0x58]
    2478              $C$DW$227       .dwtag  DW_TAG_TI_assign_register, DW_AT_name("AR7LC")
    2479                      .dwattr $C$DW$227, DW_AT_location[DW_OP_regx 0x59]
    2480              $C$DW$228       .dwtag  DW_TAG_TI_assign_register, DW_AT_name("CDPLC")
    2481                      .dwattr $C$DW$228, DW_AT_location[DW_OP_regx 0x5a]
TMS320C55x Assembler PC v4.4.1 Tue Oct 02 02:32:59 2018

Tools Copyright (c) 1996-2012 Texas Instruments Incorporated
csl_intc.asm                                                         PAGE   51

    2482              $C$DW$229       .dwtag  DW_TAG_TI_assign_register, DW_AT_name("CIE_RETA")
    2483                      .dwattr $C$DW$229, DW_AT_location[DW_OP_regx 0x5b]
    2484                      .dwendtag $C$DW$CU
    2485              
    2485              
    2485              

No Assembly Errors, No Assembly Warnings
