TMS320C55x Assembler PC v4.4.1 Tue Oct 02 02:33:20 2018

Tools Copyright (c) 1996-2012 Texas Instruments Incorporated
csl_msc.asm                                                          PAGE    1

   10992              ; Temporary Registers Used: None
       1              ;*******************************************************************************
       2              ;* TMS320C55x C/C++ Codegen                                          PC v4.4.1 *
       3              ;* Date/Time created: Tue Oct 02 02:33:14 2018                                 *
       4              ;*******************************************************************************
       5                      .compiler_opts --hll_source=on --mem_model:code=flat --mem_model:data=large --object_format=coff --si
       6                      .mmregs
       7                      .cpl_on
       8                      .arms_on
       9                      .c54cm_off
      10                      .asg AR6, FP
      11                      .asg XAR6, XFP
      12                      .asg DPH, MDP
      13                      .model call=c55_std
      14                      .model mem=large
      15                      .noremark 5002  ; code respects overwrite rules
      16              ;*******************************************************************************
      17              ;* GLOBAL FILE PARAMETERS                                                      *
      18              ;*                                                                             *
      19              ;*   Architecture       : TMS320C55x                                           *
      20              ;*   Optimizing for     : Speed                                                *
      21              ;*   Memory             : Large Model (23-Bit Data Pointers)                   *
      22              ;*   Calls              : Normal Library ASM calls                             *
      23              ;*   Debug Info         : Standard TI Debug Information                        *
      24              ;*******************************************************************************
      25              
      26              $C$DW$CU        .dwtag  DW_TAG_compile_unit
      27                      .dwattr $C$DW$CU, DW_AT_name("../c5535_bsl_revc/ezdsp5535_v1/c55xx_csl/src/csl_msc.c")
      28                      .dwattr $C$DW$CU, DW_AT_producer("TMS320C55x C/C++ Codegen PC v4.4.1 Copyright (c) 1996-2012 Texas In
      29                      .dwattr $C$DW$CU, DW_AT_TI_version(0x01)
      30                      .dwattr $C$DW$CU, DW_AT_comp_dir("F:\eZdsp-DBG-sim\tmp1\c55x-sim2\foo\Debug")
      31              
      32              $C$DW$1 .dwtag  DW_TAG_subprogram, DW_AT_name("memcpy")
      33                      .dwattr $C$DW$1, DW_AT_TI_symbol_name("_memcpy")
      34                      .dwattr $C$DW$1, DW_AT_type(*$C$DW$T$3)
      35                      .dwattr $C$DW$1, DW_AT_declaration
      36                      .dwattr $C$DW$1, DW_AT_external
      37              $C$DW$2 .dwtag  DW_TAG_formal_parameter
      38                      .dwattr $C$DW$2, DW_AT_type(*$C$DW$T$3)
      39              $C$DW$3 .dwtag  DW_TAG_formal_parameter
      40                      .dwattr $C$DW$3, DW_AT_type(*$C$DW$T$111)
      41              $C$DW$4 .dwtag  DW_TAG_formal_parameter
      42                      .dwattr $C$DW$4, DW_AT_type(*$C$DW$T$112)
      43                      .dwendtag $C$DW$1
      44              
      45              
      46              $C$DW$5 .dwtag  DW_TAG_subprogram, DW_AT_name("strlen")
      47                      .dwattr $C$DW$5, DW_AT_TI_symbol_name("_strlen")
      48                      .dwattr $C$DW$5, DW_AT_type(*$C$DW$T$112)
      49                      .dwattr $C$DW$5, DW_AT_declaration
      50                      .dwattr $C$DW$5, DW_AT_external
      51              $C$DW$6 .dwtag  DW_TAG_formal_parameter
      52                      .dwattr $C$DW$6, DW_AT_type(*$C$DW$T$171)
      53                      .dwendtag $C$DW$5
      54              
TMS320C55x Assembler PC v4.4.1 Tue Oct 02 02:33:20 2018

Tools Copyright (c) 1996-2012 Texas Instruments Incorporated
csl_msc.asm                                                          PAGE    2

      55              
      56              $C$DW$7 .dwtag  DW_TAG_subprogram, DW_AT_name("USB_initEndptObj")
      57                      .dwattr $C$DW$7, DW_AT_TI_symbol_name("_USB_initEndptObj")
      58                      .dwattr $C$DW$7, DW_AT_type(*$C$DW$T$89)
      59                      .dwattr $C$DW$7, DW_AT_declaration
      60                      .dwattr $C$DW$7, DW_AT_external
      61              $C$DW$8 .dwtag  DW_TAG_formal_parameter
      62                      .dwattr $C$DW$8, DW_AT_type(*$C$DW$T$24)
      63              $C$DW$9 .dwtag  DW_TAG_formal_parameter
      64                      .dwattr $C$DW$9, DW_AT_type(*$C$DW$T$27)
      65              $C$DW$10        .dwtag  DW_TAG_formal_parameter
      66                      .dwattr $C$DW$10, DW_AT_type(*$C$DW$T$79)
      67              $C$DW$11        .dwtag  DW_TAG_formal_parameter
      68                      .dwattr $C$DW$11, DW_AT_type(*$C$DW$T$81)
      69              $C$DW$12        .dwtag  DW_TAG_formal_parameter
      70                      .dwattr $C$DW$12, DW_AT_type(*$C$DW$T$25)
      71              $C$DW$13        .dwtag  DW_TAG_formal_parameter
      72                      .dwattr $C$DW$13, DW_AT_type(*$C$DW$T$25)
      73              $C$DW$14        .dwtag  DW_TAG_formal_parameter
      74                      .dwattr $C$DW$14, DW_AT_type(*$C$DW$T$82)
      75                      .dwendtag $C$DW$7
      76              
      77              
      78              $C$DW$15        .dwtag  DW_TAG_subprogram, DW_AT_name("USB_getEvents")
      79                      .dwattr $C$DW$15, DW_AT_TI_symbol_name("_USB_getEvents")
      80                      .dwattr $C$DW$15, DW_AT_type(*$C$DW$T$150)
      81                      .dwattr $C$DW$15, DW_AT_declaration
      82                      .dwattr $C$DW$15, DW_AT_external
      83              $C$DW$16        .dwtag  DW_TAG_formal_parameter
      84                      .dwattr $C$DW$16, DW_AT_type(*$C$DW$T$27)
      85              $C$DW$17        .dwtag  DW_TAG_formal_parameter
      86                      .dwattr $C$DW$17, DW_AT_type(*$C$DW$T$90)
      87                      .dwendtag $C$DW$15
      88              
      89              
      90              $C$DW$18        .dwtag  DW_TAG_subprogram, DW_AT_name("USB_getSetupPacket")
      91                      .dwattr $C$DW$18, DW_AT_TI_symbol_name("_USB_getSetupPacket")
      92                      .dwattr $C$DW$18, DW_AT_type(*$C$DW$T$89)
      93                      .dwattr $C$DW$18, DW_AT_declaration
      94                      .dwattr $C$DW$18, DW_AT_external
      95              $C$DW$19        .dwtag  DW_TAG_formal_parameter
      96                      .dwattr $C$DW$19, DW_AT_type(*$C$DW$T$24)
      97              $C$DW$20        .dwtag  DW_TAG_formal_parameter
      98                      .dwattr $C$DW$20, DW_AT_type(*$C$DW$T$43)
      99              $C$DW$21        .dwtag  DW_TAG_formal_parameter
     100                      .dwattr $C$DW$21, DW_AT_type(*$C$DW$T$46)
     101                      .dwendtag $C$DW$18
     102              
     103              
     104              $C$DW$22        .dwtag  DW_TAG_subprogram, DW_AT_name("USB_postTransaction")
     105                      .dwattr $C$DW$22, DW_AT_TI_symbol_name("_USB_postTransaction")
     106                      .dwattr $C$DW$22, DW_AT_type(*$C$DW$T$89)
     107                      .dwattr $C$DW$22, DW_AT_declaration
     108                      .dwattr $C$DW$22, DW_AT_external
     109              $C$DW$23        .dwtag  DW_TAG_formal_parameter
TMS320C55x Assembler PC v4.4.1 Tue Oct 02 02:33:20 2018

Tools Copyright (c) 1996-2012 Texas Instruments Incorporated
csl_msc.asm                                                          PAGE    3

     110                      .dwattr $C$DW$23, DW_AT_type(*$C$DW$T$27)
     111              $C$DW$24        .dwtag  DW_TAG_formal_parameter
     112                      .dwattr $C$DW$24, DW_AT_type(*$C$DW$T$25)
     113              $C$DW$25        .dwtag  DW_TAG_formal_parameter
     114                      .dwattr $C$DW$25, DW_AT_type(*$C$DW$T$3)
     115              $C$DW$26        .dwtag  DW_TAG_formal_parameter
     116                      .dwattr $C$DW$26, DW_AT_type(*$C$DW$T$122)
     117                      .dwendtag $C$DW$22
     118              
     119              
     120              $C$DW$27        .dwtag  DW_TAG_subprogram, DW_AT_name("USB_isTransactionDone")
     121                      .dwattr $C$DW$27, DW_AT_TI_symbol_name("_USB_isTransactionDone")
     122                      .dwattr $C$DW$27, DW_AT_type(*$C$DW$T$87)
     123                      .dwattr $C$DW$27, DW_AT_declaration
     124                      .dwattr $C$DW$27, DW_AT_external
     125              $C$DW$28        .dwtag  DW_TAG_formal_parameter
     126                      .dwattr $C$DW$28, DW_AT_type(*$C$DW$T$27)
     127              $C$DW$29        .dwtag  DW_TAG_formal_parameter
     128                      .dwattr $C$DW$29, DW_AT_type(*$C$DW$T$90)
     129                      .dwendtag $C$DW$27
     130              
     131              
     132              $C$DW$30        .dwtag  DW_TAG_subprogram, DW_AT_name("USB_stallEndpt")
     133                      .dwattr $C$DW$30, DW_AT_TI_symbol_name("_USB_stallEndpt")
     134                      .dwattr $C$DW$30, DW_AT_type(*$C$DW$T$89)
     135                      .dwattr $C$DW$30, DW_AT_declaration
     136                      .dwattr $C$DW$30, DW_AT_external
     137              $C$DW$31        .dwtag  DW_TAG_formal_parameter
     138                      .dwattr $C$DW$31, DW_AT_type(*$C$DW$T$27)
     139                      .dwendtag $C$DW$30
     140              
     141              
     142              $C$DW$32        .dwtag  DW_TAG_subprogram, DW_AT_name("USB_abortTransaction")
     143                      .dwattr $C$DW$32, DW_AT_TI_symbol_name("_USB_abortTransaction")
     144                      .dwattr $C$DW$32, DW_AT_type(*$C$DW$T$89)
     145                      .dwattr $C$DW$32, DW_AT_declaration
     146                      .dwattr $C$DW$32, DW_AT_external
     147              $C$DW$33        .dwtag  DW_TAG_formal_parameter
     148                      .dwattr $C$DW$33, DW_AT_type(*$C$DW$T$27)
     149                      .dwendtag $C$DW$32
     150              
     151              
     152              $C$DW$34        .dwtag  DW_TAG_subprogram, DW_AT_name("USB_abortAllTransaction")
     153                      .dwattr $C$DW$34, DW_AT_TI_symbol_name("_USB_abortAllTransaction")
     154                      .dwattr $C$DW$34, DW_AT_type(*$C$DW$T$89)
     155                      .dwattr $C$DW$34, DW_AT_declaration
     156                      .dwattr $C$DW$34, DW_AT_external
     157              $C$DW$35        .dwtag  DW_TAG_formal_parameter
     158                      .dwattr $C$DW$35, DW_AT_type(*$C$DW$T$24)
     159                      .dwendtag $C$DW$34
     160              
     161              
     162              $C$DW$36        .dwtag  DW_TAG_subprogram, DW_AT_name("USB_connectDev")
     163                      .dwattr $C$DW$36, DW_AT_TI_symbol_name("_USB_connectDev")
     164                      .dwattr $C$DW$36, DW_AT_type(*$C$DW$T$89)
TMS320C55x Assembler PC v4.4.1 Tue Oct 02 02:33:20 2018

Tools Copyright (c) 1996-2012 Texas Instruments Incorporated
csl_msc.asm                                                          PAGE    4

     165                      .dwattr $C$DW$36, DW_AT_declaration
     166                      .dwattr $C$DW$36, DW_AT_external
     167              $C$DW$37        .dwtag  DW_TAG_formal_parameter
     168                      .dwattr $C$DW$37, DW_AT_type(*$C$DW$T$24)
     169                      .dwendtag $C$DW$36
     170              
     171              
     172              $C$DW$38        .dwtag  DW_TAG_subprogram, DW_AT_name("USB_disconnectDev")
     173                      .dwattr $C$DW$38, DW_AT_TI_symbol_name("_USB_disconnectDev")
     174                      .dwattr $C$DW$38, DW_AT_type(*$C$DW$T$89)
     175                      .dwattr $C$DW$38, DW_AT_declaration
     176                      .dwattr $C$DW$38, DW_AT_external
     177              $C$DW$39        .dwtag  DW_TAG_formal_parameter
     178                      .dwattr $C$DW$39, DW_AT_type(*$C$DW$T$24)
     179                      .dwendtag $C$DW$38
     180              
     181              
     182              $C$DW$40        .dwtag  DW_TAG_subprogram, DW_AT_name("USB_setParams")
     183                      .dwattr $C$DW$40, DW_AT_TI_symbol_name("_USB_setParams")
     184                      .dwattr $C$DW$40, DW_AT_type(*$C$DW$T$89)
     185                      .dwattr $C$DW$40, DW_AT_declaration
     186                      .dwattr $C$DW$40, DW_AT_external
     187              $C$DW$41        .dwtag  DW_TAG_formal_parameter
     188                      .dwattr $C$DW$41, DW_AT_type(*$C$DW$T$24)
     189              $C$DW$42        .dwtag  DW_TAG_formal_parameter
     190                      .dwattr $C$DW$42, DW_AT_type(*$C$DW$T$108)
     191              $C$DW$43        .dwtag  DW_TAG_formal_parameter
     192                      .dwattr $C$DW$43, DW_AT_type(*$C$DW$T$25)
     193                      .dwendtag $C$DW$40
     194              
     195              
     196              $C$DW$44        .dwtag  DW_TAG_subprogram, DW_AT_name("USB_getMaxPower")
     197                      .dwattr $C$DW$44, DW_AT_TI_symbol_name("_USB_getMaxPower")
     198                      .dwattr $C$DW$44, DW_AT_type(*$C$DW$T$74)
     199                      .dwattr $C$DW$44, DW_AT_declaration
     200                      .dwattr $C$DW$44, DW_AT_external
     201              $C$DW$45        .dwtag  DW_TAG_formal_parameter
     202                      .dwattr $C$DW$45, DW_AT_type(*$C$DW$T$24)
     203                      .dwendtag $C$DW$44
     204              
     205              
     206              $C$DW$46        .dwtag  DW_TAG_subprogram, DW_AT_name("USB_setFullSpeedMode")
     207                      .dwattr $C$DW$46, DW_AT_TI_symbol_name("_USB_setFullSpeedMode")
     208                      .dwattr $C$DW$46, DW_AT_declaration
     209                      .dwattr $C$DW$46, DW_AT_external
     210              $C$DW$47        .dwtag  DW_TAG_formal_parameter
     211                      .dwattr $C$DW$47, DW_AT_type(*$C$DW$T$25)
     212                      .dwendtag $C$DW$46
     213              
     214              
     215              $C$DW$48        .dwtag  DW_TAG_subprogram, DW_AT_name("USB_getDataCountReadFromFifo")
     216                      .dwattr $C$DW$48, DW_AT_TI_symbol_name("_USB_getDataCountReadFromFifo")
     217                      .dwattr $C$DW$48, DW_AT_type(*$C$DW$T$25)
     218                      .dwattr $C$DW$48, DW_AT_declaration
     219                      .dwattr $C$DW$48, DW_AT_external
TMS320C55x Assembler PC v4.4.1 Tue Oct 02 02:33:20 2018

Tools Copyright (c) 1996-2012 Texas Instruments Incorporated
csl_msc.asm                                                          PAGE    5

     220              $C$DW$49        .dwtag  DW_TAG_formal_parameter
     221                      .dwattr $C$DW$49, DW_AT_type(*$C$DW$T$27)
     222                      .dwendtag $C$DW$48
     223              
     224              ;       F:\t\cc5p5\ccsv5\tools\compiler\c5500_4.4.1\bin\acp55.exe -@f:\\AppData\\Local\\Temp\\1192812 
     225 000000               .sect   ".text"
     226                      .align 4
     227              
     228              $C$DW$50        .dwtag  DW_TAG_subprogram, DW_AT_name("MSC_SetSenseKeys")
     229                      .dwattr $C$DW$50, DW_AT_low_pc(_MSC_SetSenseKeys)
     230                      .dwattr $C$DW$50, DW_AT_high_pc(0x00)
     231                      .dwattr $C$DW$50, DW_AT_TI_symbol_name("_MSC_SetSenseKeys")
     232                      .dwattr $C$DW$50, DW_AT_TI_begin_file("F:/eZdsp-DBG-sim/tmp1/c55x-sim2/foo/c5535_bsl_revc/ezdsp5535_v
     233                      .dwattr $C$DW$50, DW_AT_TI_begin_line(0x58)
     234                      .dwattr $C$DW$50, DW_AT_TI_begin_column(0x06)
     235                      .dwattr $C$DW$50, DW_AT_TI_max_frame_size(0x06)
     236                      .dwpsn  file "F:/eZdsp-DBG-sim/tmp1/c55x-sim2/foo/c5535_bsl_revc/ezdsp5535_v1/c55xx_csl/inc/csl_mscAu
     237              
     238                      .dwfde $C$DW$CIE, _MSC_SetSenseKeys
     239              $C$DW$51        .dwtag  DW_TAG_formal_parameter, DW_AT_name("senseData")
     240                      .dwattr $C$DW$51, DW_AT_TI_symbol_name("_senseData")
     241                      .dwattr $C$DW$51, DW_AT_type(*$C$DW$T$47)
     242                      .dwattr $C$DW$51, DW_AT_location[DW_OP_reg17]
     243              $C$DW$52        .dwtag  DW_TAG_formal_parameter, DW_AT_name("senseKey")
     244                      .dwattr $C$DW$52, DW_AT_TI_symbol_name("_senseKey")
     245                      .dwattr $C$DW$52, DW_AT_type(*$C$DW$T$25)
     246                      .dwattr $C$DW$52, DW_AT_location[DW_OP_reg12]
     247              $C$DW$53        .dwtag  DW_TAG_formal_parameter, DW_AT_name("addSenseKey")
     248                      .dwattr $C$DW$53, DW_AT_TI_symbol_name("_addSenseKey")
     249                      .dwattr $C$DW$53, DW_AT_type(*$C$DW$T$25)
     250                      .dwattr $C$DW$53, DW_AT_location[DW_OP_reg13]
     251              ;*******************************************************************************
     252              ;* FUNCTION NAME: MSC_SetSenseKeys                                             *
     253              ;*                                                                             *
     254              ;*   Function Uses Regs : T0,T1,AR0,XAR0,AR1,AR3,XAR3,SP,M40,SATA,SATD,RDM,    *
     255              ;*                        FRCT,SMUL                                            *
     256              ;*   Stack Frame        : Compact (No Frame Pointer, w/ debug)                 *
     257              ;*   Total Frame Size   : 6 words                                              *
     258              ;*                        (2 return address/alignment)                         *
     259              ;*                        (4 local values)                                     *
     260              ;*   Min System Stack   : 1 word                                               *
     261              ;*******************************************************************************
     262 000000       _MSC_SetSenseKeys:
     263                      .dwcfi  cfa_offset, 1
     264                      .dwcfi  save_reg_to_mem, 91, -1
     265 000000 4EFB          AADD #-5, SP
     266                      .dwcfi  cfa_offset, 6
     267              $C$DW$54        .dwtag  DW_TAG_variable, DW_AT_name("senseData")
     268                      .dwattr $C$DW$54, DW_AT_TI_symbol_name("_senseData")
     269                      .dwattr $C$DW$54, DW_AT_type(*$C$DW$T$47)
     270                      .dwattr $C$DW$54, DW_AT_location[DW_OP_bregx 0x24 0]
     271              $C$DW$55        .dwtag  DW_TAG_variable, DW_AT_name("senseKey")
     272                      .dwattr $C$DW$55, DW_AT_TI_symbol_name("_senseKey")
     273                      .dwattr $C$DW$55, DW_AT_type(*$C$DW$T$25)
     274                      .dwattr $C$DW$55, DW_AT_location[DW_OP_bregx 0x24 2]
TMS320C55x Assembler PC v4.4.1 Tue Oct 02 02:33:20 2018

Tools Copyright (c) 1996-2012 Texas Instruments Incorporated
csl_msc.asm                                                          PAGE    6

     275              $C$DW$56        .dwtag  DW_TAG_variable, DW_AT_name("addSenseKey")
     276                      .dwattr $C$DW$56, DW_AT_TI_symbol_name("_addSenseKey")
     277                      .dwattr $C$DW$56, DW_AT_type(*$C$DW$T$25)
     278                      .dwattr $C$DW$56, DW_AT_location[DW_OP_bregx 0x24 3]
     279 000002 C506          MOV T1, *SP(#3) ; |91| 
     280 000004 C404          MOV T0, *SP(#2) ; |91| 
     281 000006 EB00          MOV XAR0, dbl(*SP(#0))
         000008 85   
     282                      .dwpsn  file "F:/eZdsp-DBG-sim/tmp1/c55x-sim2/foo/c5535_bsl_revc/ezdsp5535_v1/c55xx_csl/inc/csl_mscAu
     283 000009 ED00          MOV dbl(*SP(#0)), XAR3
         00000b BF   
     284 00000c A904          MOV *SP(#2), AR1 ; |92| 
     285 00000e C977          MOV AR1, *AR3(short(#3)) ; |92| 
     286                      .dwpsn  file "F:/eZdsp-DBG-sim/tmp1/c55x-sim2/foo/c5535_bsl_revc/ezdsp5535_v1/c55xx_csl/inc/csl_mscAu
     287 000010 ED00          MOV dbl(*SP(#0)), XAR3
         000012 BF   
     288 000013 A906          MOV *SP(#3), AR1 ; |93| 
     289 000015 C96D          MOV AR1, *AR3(#8) ; |93| 
         000017 0008 
     290                      .dwpsn  file "F:/eZdsp-DBG-sim/tmp1/c55x-sim2/foo/c5535_bsl_revc/ezdsp5535_v1/c55xx_csl/inc/csl_mscAu
     291 000019 4E05          AADD #5, SP
     292                      .dwcfi  cfa_offset, 1
     293              $C$DW$57        .dwtag  DW_TAG_TI_branch
     294                      .dwattr $C$DW$57, DW_AT_low_pc(0x00)
     295                      .dwattr $C$DW$57, DW_AT_TI_return
     296 00001b 4804          RET
     297                                                      ; return occurs
     298                      .dwattr $C$DW$50, DW_AT_TI_end_file("F:/eZdsp-DBG-sim/tmp1/c55x-sim2/foo/c5535_bsl_revc/ezdsp5535_v1/
     299                      .dwattr $C$DW$50, DW_AT_TI_end_line(0x5e)
     300                      .dwattr $C$DW$50, DW_AT_TI_end_column(0x01)
     301                      .dwendentry
     302                      .dwendtag $C$DW$50
     303              
     304 00001d               .sect   ".text"
     305                      .align 4
     306              
     307              $C$DW$58        .dwtag  DW_TAG_subprogram, DW_AT_name("MSC_HandleStateReset")
     308                      .dwattr $C$DW$58, DW_AT_low_pc(_MSC_HandleStateReset)
     309                      .dwattr $C$DW$58, DW_AT_high_pc(0x00)
     310                      .dwattr $C$DW$58, DW_AT_TI_symbol_name("_MSC_HandleStateReset")
     311                      .dwattr $C$DW$58, DW_AT_type(*$C$DW$T$89)
     312                      .dwattr $C$DW$58, DW_AT_TI_begin_file("F:/eZdsp-DBG-sim/tmp1/c55x-sim2/foo/c5535_bsl_revc/ezdsp5535_v
     313                      .dwattr $C$DW$58, DW_AT_TI_begin_line(0x8c)
     314                      .dwattr $C$DW$58, DW_AT_TI_begin_column(0x0c)
     315                      .dwattr $C$DW$58, DW_AT_TI_max_frame_size(0x06)
     316                      .dwpsn  file "F:/eZdsp-DBG-sim/tmp1/c55x-sim2/foo/c5535_bsl_revc/ezdsp5535_v1/c55xx_csl/inc/csl_mscAu
     317              
     318                      .dwfde $C$DW$CIE, _MSC_HandleStateReset
     319              $C$DW$59        .dwtag  DW_TAG_formal_parameter, DW_AT_name("pMscHandle")
     320                      .dwattr $C$DW$59, DW_AT_TI_symbol_name("_pMscHandle")
     321                      .dwattr $C$DW$59, DW_AT_type(*$C$DW$T$107)
     322                      .dwattr $C$DW$59, DW_AT_location[DW_OP_reg17]
     323              $C$DW$60        .dwtag  DW_TAG_formal_parameter, DW_AT_name("hUsbOutEp")
     324                      .dwattr $C$DW$60, DW_AT_TI_symbol_name("_hUsbOutEp")
     325                      .dwattr $C$DW$60, DW_AT_type(*$C$DW$T$27)
TMS320C55x Assembler PC v4.4.1 Tue Oct 02 02:33:20 2018

Tools Copyright (c) 1996-2012 Texas Instruments Incorporated
csl_msc.asm                                                          PAGE    7

     326                      .dwattr $C$DW$60, DW_AT_location[DW_OP_reg19]
     327              ;*******************************************************************************
     328              ;* FUNCTION NAME: MSC_HandleStateReset                                         *
     329              ;*                                                                             *
     330              ;*   Function Uses Regs : T0,T1,AR0,XAR0,AR1,XAR1,AR3,XAR3,SP,M40,SATA,SATD,   *
     331              ;*                        RDM,FRCT,SMUL                                        *
     332              ;*   Stack Frame        : Compact (No Frame Pointer, w/ debug)                 *
     333              ;*   Total Frame Size   : 6 words                                              *
     334              ;*                        (1 return address/alignment)                         *
     335              ;*                        (5 local values)                                     *
     336              ;*   Min System Stack   : 1 word                                               *
     337              ;*******************************************************************************
     338 000020       _MSC_HandleStateReset:
     339                      .dwcfi  cfa_offset, 1
     340                      .dwcfi  save_reg_to_mem, 91, -1
     341 000020 4EFB          AADD #-5, SP
     342                      .dwcfi  cfa_offset, 6
     343              $C$DW$61        .dwtag  DW_TAG_variable, DW_AT_name("pMscHandle")
     344                      .dwattr $C$DW$61, DW_AT_TI_symbol_name("_pMscHandle")
     345                      .dwattr $C$DW$61, DW_AT_type(*$C$DW$T$107)
     346                      .dwattr $C$DW$61, DW_AT_location[DW_OP_bregx 0x24 0]
     347              $C$DW$62        .dwtag  DW_TAG_variable, DW_AT_name("hUsbOutEp")
     348                      .dwattr $C$DW$62, DW_AT_TI_symbol_name("_hUsbOutEp")
     349                      .dwattr $C$DW$62, DW_AT_type(*$C$DW$T$27)
     350                      .dwattr $C$DW$62, DW_AT_location[DW_OP_bregx 0x24 2]
     351              $C$DW$63        .dwtag  DW_TAG_variable, DW_AT_name("status")
     352                      .dwattr $C$DW$63, DW_AT_TI_symbol_name("_status")
     353                      .dwattr $C$DW$63, DW_AT_type(*$C$DW$T$89)
     354                      .dwattr $C$DW$63, DW_AT_location[DW_OP_bregx 0x24 4]
     355 000022 EB04          MOV XAR1, dbl(*SP(#2))
         000024 95   
     356 000025 EB00          MOV XAR0, dbl(*SP(#0))
         000027 85   
     357                      .dwpsn  file "F:/eZdsp-DBG-sim/tmp1/c55x-sim2/foo/c5535_bsl_revc/ezdsp5535_v1/c55xx_csl/inc/csl_mscAu
     358 000028 ED04          MOV dbl(*SP(#2)), XAR0
         00002a 8F   
     359              $C$DW$64        .dwtag  DW_TAG_TI_branch
     360                      .dwattr $C$DW$64, DW_AT_low_pc(0x00)
     361                      .dwattr $C$DW$64, DW_AT_name("_USB_abortTransaction")
     362                      .dwattr $C$DW$64, DW_AT_TI_call
     363 00002b 6C00          CALL #_USB_abortTransaction ; |145| 
         00002d 0000!
     364                                                      ; call occurs [#_USB_abortTransaction] ; |145| 
     365 00002f C408          MOV T0, *SP(#4) ; |145| 
     366                      .dwpsn  file "F:/eZdsp-DBG-sim/tmp1/c55x-sim2/foo/c5535_bsl_revc/ezdsp5535_v1/c55xx_csl/inc/csl_mscAu
     367 000031 ED00          MOV dbl(*SP(#0)), XAR1
         000033 9F   
     368 000034 7600          MOV #31, T0 ; |146| 
         000036 1F48 
     369 000038 ED04          MOV dbl(*SP(#2)), XAR0
         00003a 8F   
     370 00003b B42F          AMAR *+AR1(#296) ; |146| 
         00003d 0128 
     371              $C$DW$65        .dwtag  DW_TAG_TI_branch
     372                      .dwattr $C$DW$65, DW_AT_low_pc(0x00)
TMS320C55x Assembler PC v4.4.1 Tue Oct 02 02:33:20 2018

Tools Copyright (c) 1996-2012 Texas Instruments Incorporated
csl_msc.asm                                                          PAGE    8

     373                      .dwattr $C$DW$65, DW_AT_name("_USB_postTransaction")
     374                      .dwattr $C$DW$65, DW_AT_TI_call
     375              
     376 00003f 6C00          CALL #_USB_postTransaction ; |146| 
         000041 0000!
     377 000043 3D05  ||      MOV #0, T1
     378              
     379                                                      ; call occurs [#_USB_postTransaction] ; |146| 
     380 000045 C408          MOV T0, *SP(#4) ; |146| 
     381                      .dwpsn  file "F:/eZdsp-DBG-sim/tmp1/c55x-sim2/foo/c5535_bsl_revc/ezdsp5535_v1/c55xx_csl/inc/csl_mscAu
     382 000047 ED00          MOV dbl(*SP(#0)), XAR3
         000049 BF   
     383 00004a E66D          MOV #1, *AR3(#355) ; |148| 
         00004c 0101 
         00004e 63   
     384                      .dwpsn  file "F:/eZdsp-DBG-sim/tmp1/c55x-sim2/foo/c5535_bsl_revc/ezdsp5535_v1/c55xx_csl/inc/csl_mscAu
     385 00004f A408          MOV *SP(#4), T0 ; |150| 
     386                      .dwpsn  file "F:/eZdsp-DBG-sim/tmp1/c55x-sim2/foo/c5535_bsl_revc/ezdsp5535_v1/c55xx_csl/inc/csl_mscAu
     387 000051 4E05          AADD #5, SP
     388                      .dwcfi  cfa_offset, 1
     389              $C$DW$66        .dwtag  DW_TAG_TI_branch
     390                      .dwattr $C$DW$66, DW_AT_low_pc(0x00)
     391                      .dwattr $C$DW$66, DW_AT_TI_return
     392 000053 4804          RET
     393                                                      ; return occurs
     394                      .dwattr $C$DW$58, DW_AT_TI_end_file("F:/eZdsp-DBG-sim/tmp1/c55x-sim2/foo/c5535_bsl_revc/ezdsp5535_v1/
     395                      .dwattr $C$DW$58, DW_AT_TI_end_line(0x97)
     396                      .dwattr $C$DW$58, DW_AT_TI_end_column(0x01)
     397                      .dwendentry
     398                      .dwendtag $C$DW$58
     399              
     400 000055               .sect   ".text"
     401                      .align 4
     402              
     403              $C$DW$67        .dwtag  DW_TAG_subprogram, DW_AT_name("MSC_HandleStartStopUnit")
     404                      .dwattr $C$DW$67, DW_AT_low_pc(_MSC_HandleStartStopUnit)
     405                      .dwattr $C$DW$67, DW_AT_high_pc(0x00)
     406                      .dwattr $C$DW$67, DW_AT_TI_symbol_name("_MSC_HandleStartStopUnit")
     407                      .dwattr $C$DW$67, DW_AT_type(*$C$DW$T$89)
     408                      .dwattr $C$DW$67, DW_AT_TI_begin_file("F:/eZdsp-DBG-sim/tmp1/c55x-sim2/foo/c5535_bsl_revc/ezdsp5535_v
     409                      .dwattr $C$DW$67, DW_AT_TI_begin_line(0xc7)
     410                      .dwattr $C$DW$67, DW_AT_TI_begin_column(0x0c)
     411                      .dwattr $C$DW$67, DW_AT_TI_max_frame_size(0x0a)
     412                      .dwpsn  file "F:/eZdsp-DBG-sim/tmp1/c55x-sim2/foo/c5535_bsl_revc/ezdsp5535_v1/c55xx_csl/inc/csl_mscAu
     413              
     414                      .dwfde $C$DW$CIE, _MSC_HandleStartStopUnit
     415              $C$DW$68        .dwtag  DW_TAG_formal_parameter, DW_AT_name("pMscHandle")
     416                      .dwattr $C$DW$68, DW_AT_TI_symbol_name("_pMscHandle")
     417                      .dwattr $C$DW$68, DW_AT_type(*$C$DW$T$107)
     418                      .dwattr $C$DW$68, DW_AT_location[DW_OP_reg17]
     419              $C$DW$69        .dwtag  DW_TAG_formal_parameter, DW_AT_name("hUsbInEp")
     420                      .dwattr $C$DW$69, DW_AT_TI_symbol_name("_hUsbInEp")
     421                      .dwattr $C$DW$69, DW_AT_type(*$C$DW$T$27)
     422                      .dwattr $C$DW$69, DW_AT_location[DW_OP_reg19]
     423              $C$DW$70        .dwtag  DW_TAG_formal_parameter, DW_AT_name("lunNum")
TMS320C55x Assembler PC v4.4.1 Tue Oct 02 02:33:20 2018

Tools Copyright (c) 1996-2012 Texas Instruments Incorporated
csl_msc.asm                                                          PAGE    9

     424                      .dwattr $C$DW$70, DW_AT_TI_symbol_name("_lunNum")
     425                      .dwattr $C$DW$70, DW_AT_type(*$C$DW$T$25)
     426                      .dwattr $C$DW$70, DW_AT_location[DW_OP_reg12]
     427              ;*******************************************************************************
     428              ;* FUNCTION NAME: MSC_HandleStartStopUnit                                      *
     429              ;*                                                                             *
     430              ;*   Function Uses Regs : AC0,AC0,AC1,AC1,T0,T1,AR0,XAR0,AR1,XAR1,AR2,XAR2,AR3,*
     431              ;*                        XAR3,SP,CARRY,TC1,M40,SATA,SATD,RDM,FRCT,SMUL        *
     432              ;*   Stack Frame        : Compact (No Frame Pointer, w/ debug)                 *
     433              ;*   Total Frame Size   : 10 words                                             *
     434              ;*                        (2 return address/alignment)                         *
     435              ;*                        (8 local values)                                     *
     436              ;*   Min System Stack   : 1 word                                               *
     437              ;*******************************************************************************
     438 000058       _MSC_HandleStartStopUnit:
     439                      .dwcfi  cfa_offset, 1
     440                      .dwcfi  save_reg_to_mem, 91, -1
     441 000058 4EF7          AADD #-9, SP
     442                      .dwcfi  cfa_offset, 10
     443              $C$DW$71        .dwtag  DW_TAG_variable, DW_AT_name("pMscHandle")
     444                      .dwattr $C$DW$71, DW_AT_TI_symbol_name("_pMscHandle")
     445                      .dwattr $C$DW$71, DW_AT_type(*$C$DW$T$107)
     446                      .dwattr $C$DW$71, DW_AT_location[DW_OP_bregx 0x24 0]
     447              $C$DW$72        .dwtag  DW_TAG_variable, DW_AT_name("hUsbInEp")
     448                      .dwattr $C$DW$72, DW_AT_TI_symbol_name("_hUsbInEp")
     449                      .dwattr $C$DW$72, DW_AT_type(*$C$DW$T$27)
     450                      .dwattr $C$DW$72, DW_AT_location[DW_OP_bregx 0x24 2]
     451              $C$DW$73        .dwtag  DW_TAG_variable, DW_AT_name("lunNum")
     452                      .dwattr $C$DW$73, DW_AT_TI_symbol_name("_lunNum")
     453                      .dwattr $C$DW$73, DW_AT_type(*$C$DW$T$25)
     454                      .dwattr $C$DW$73, DW_AT_location[DW_OP_bregx 0x24 4]
     455              $C$DW$74        .dwtag  DW_TAG_variable, DW_AT_name("mediaEjectStat")
     456                      .dwattr $C$DW$74, DW_AT_TI_symbol_name("_mediaEjectStat")
     457                      .dwattr $C$DW$74, DW_AT_type(*$C$DW$T$52)
     458                      .dwattr $C$DW$74, DW_AT_location[DW_OP_bregx 0x24 5]
     459              $C$DW$75        .dwtag  DW_TAG_variable, DW_AT_name("status")
     460                      .dwattr $C$DW$75, DW_AT_TI_symbol_name("_status")
     461                      .dwattr $C$DW$75, DW_AT_type(*$C$DW$T$89)
     462                      .dwattr $C$DW$75, DW_AT_location[DW_OP_bregx 0x24 6]
     463              $C$DW$76        .dwtag  DW_TAG_variable, DW_AT_name("loadEject")
     464                      .dwattr $C$DW$76, DW_AT_TI_symbol_name("_loadEject")
     465                      .dwattr $C$DW$76, DW_AT_type(*$C$DW$T$25)
     466                      .dwattr $C$DW$76, DW_AT_location[DW_OP_bregx 0x24 7]
     467 00005a C408          MOV T0, *SP(#4) ; |202| 
     468 00005c EB04          MOV XAR1, dbl(*SP(#2))
         00005e 95   
     469 00005f EB00          MOV XAR0, dbl(*SP(#0))
         000061 85   
     470                      .dwpsn  file "F:/eZdsp-DBG-sim/tmp1/c55x-sim2/foo/c5535_bsl_revc/ezdsp5535_v1/c55xx_csl/inc/csl_mscAu
     471 000062 ED00          MOV dbl(*SP(#0)), XAR3
         000064 BF   
     472 000065 ED6D          MOV dbl(*AR3(#16)), AC0 ; |207| 
         000067 0800 
         000069 10   
     473 00006a 0400          BCC $C$L1,AC0 == #0 ; |207| 
TMS320C55x Assembler PC v4.4.1 Tue Oct 02 02:33:20 2018

Tools Copyright (c) 1996-2012 Texas Instruments Incorporated
csl_msc.asm                                                          PAGE   10

         00006c 42   
     474                                                      ; branchcc occurs ; |207| 
     475                      .dwpsn  file "F:/eZdsp-DBG-sim/tmp1/c55x-sim2/foo/c5535_bsl_revc/ezdsp5535_v1/c55xx_csl/inc/csl_mscAu
     476 00006d E66D          MOV #2, *AR3(#355) ; |210| 
         00006f 0201 
         000071 63   
     477                      .dwpsn  file "F:/eZdsp-DBG-sim/tmp1/c55x-sim2/foo/c5535_bsl_revc/ezdsp5535_v1/c55xx_csl/inc/csl_mscAu
     478 000072 ED00          MOV dbl(*SP(#0)), XAR0
         000074 8F   
     479 000075 B40F          AMAR *+AR0(#334) ; |211| 
         000077 014E 
     480              $C$DW$77        .dwtag  DW_TAG_TI_branch
     481                      .dwattr $C$DW$77, DW_AT_low_pc(0x00)
     482                      .dwattr $C$DW$77, DW_AT_name("_USB_stallEndpt")
     483                      .dwattr $C$DW$77, DW_AT_TI_call
     484 000079 6C00          CALL #_USB_stallEndpt ; |211| 
         00007b 0000!
     485                                                      ; call occurs [#_USB_stallEndpt] ; |211| 
     486 00007d C40C          MOV T0, *SP(#6) ; |211| 
     487                      .dwpsn  file "F:/eZdsp-DBG-sim/tmp1/c55x-sim2/foo/c5535_bsl_revc/ezdsp5535_v1/c55xx_csl/inc/csl_mscAu
     488 00007f ED00          MOV dbl(*SP(#0)), XAR0
         000081 8F   
     489 000082 B40F          AMAR *+AR0(#314) ; |212| 
         000084 013A 
     490              $C$DW$78        .dwtag  DW_TAG_TI_branch
     491                      .dwattr $C$DW$78, DW_AT_low_pc(0x00)
     492                      .dwattr $C$DW$78, DW_AT_name("_USB_stallEndpt")
     493                      .dwattr $C$DW$78, DW_AT_TI_call
     494 000086 6C00          CALL #_USB_stallEndpt ; |212| 
         000088 0000!
     495                                                      ; call occurs [#_USB_stallEndpt] ; |212| 
     496 00008a C40C          MOV T0, *SP(#6) ; |212| 
     497                      .dwpsn  file "F:/eZdsp-DBG-sim/tmp1/c55x-sim2/foo/c5535_bsl_revc/ezdsp5535_v1/c55xx_csl/inc/csl_mscAu
     498 00008c ED00          MOV dbl(*SP(#0)), XAR0
         00008e 8F   
     499 00008f ED00          MOV dbl(*SP(#0)), XAR3
         000091 BF   
     500 000092 7600          MOV #32, T1 ; |216| 
         000094 2058 
     501 000096 B40F          AMAR *+AR0(#314) ; |216| 
         000098 013A 
     502 00009a ED6D          MOV dbl(*AR3(#14)), XAR1
         00009c 9F00 
         00009e 0E   
     503              $C$DW$79        .dwtag  DW_TAG_TI_branch
     504                      .dwattr $C$DW$79, DW_AT_low_pc(0x00)
     505                      .dwattr $C$DW$79, DW_AT_name("_USB_postTransaction")
     506                      .dwattr $C$DW$79, DW_AT_TI_call
     507              
     508 00009f 6C00          CALL #_USB_postTransaction ; |216| 
         0000a1 0000!
     509 0000a3 3D04  ||      MOV #0, T0
     510              
     511                                                      ; call occurs [#_USB_postTransaction] ; |216| 
     512 0000a5 DA0C          OR *SP(#6), T0, AR1 ; |216| 
TMS320C55x Assembler PC v4.4.1 Tue Oct 02 02:33:20 2018

Tools Copyright (c) 1996-2012 Texas Instruments Incorporated
csl_msc.asm                                                          PAGE   11

         0000a7 94   
     513 0000a8 C90C          MOV AR1, *SP(#6) ; |216| 
     514                      .dwpsn  file "F:/eZdsp-DBG-sim/tmp1/c55x-sim2/foo/c5535_bsl_revc/ezdsp5535_v1/c55xx_csl/inc/csl_mscAu
     515 0000aa 2294          MOV AR1, T0
     516 0000ac 0600          B $C$L6   ; |221| 
         0000ae E9   
     517                                                      ; branch occurs ; |221| 
     518 0000af       $C$L1:    
     519                      .dwpsn  file "F:/eZdsp-DBG-sim/tmp1/c55x-sim2/foo/c5535_bsl_revc/ezdsp5535_v1/c55xx_csl/inc/csl_mscAu
     520 0000af DF6D          MOV uns(high_byte(*AR3(#306))), AR1 ; |224| 
         0000b1 9101 
         0000b3 32   
     521 0000b4 C90E          MOV AR1, *SP(#7) ; |224| 
     522                      .dwpsn  file "F:/eZdsp-DBG-sim/tmp1/c55x-sim2/foo/c5535_bsl_revc/ezdsp5535_v1/c55xx_csl/inc/csl_mscAu
     523 0000b6 ED00          MOV dbl(*SP(#0)), XAR3
         0000b8 BF   
     524 0000b9 E66D          MOV #0, *AR3(#289) ; |225| 
         0000bb 0001 
         0000bd 21   
     525                      .dwpsn  file "F:/eZdsp-DBG-sim/tmp1/c55x-sim2/foo/c5535_bsl_revc/ezdsp5535_v1/c55xx_csl/inc/csl_mscAu
     526 0000be ED00          MOV dbl(*SP(#0)), XAR3
         0000c0 BF   
     527 0000c1 E66D          MOV #4, *AR3(#355) ; |227| 
         0000c3 0401 
         0000c5 63   
     528                      .dwpsn  file "F:/eZdsp-DBG-sim/tmp1/c55x-sim2/foo/c5535_bsl_revc/ezdsp5535_v1/c55xx_csl/inc/csl_mscAu
     529 0000c6 F00E          CMP *SP(#7) == #2, TC1 ; |229| 
         0000c8 0002 
     530 0000ca 6D74          BCC $C$L4,!TC1 ; |229| 
         0000cc 008E 
     531                                                      ; branchcc occurs ; |229| 
     532                      .dwpsn  file "F:/eZdsp-DBG-sim/tmp1/c55x-sim2/foo/c5535_bsl_revc/ezdsp5535_v1/c55xx_csl/inc/csl_mscAu
     533 0000ce ED00          MOV dbl(*SP(#0)), XAR3
         0000d0 BF   
     534 0000d1 DF08          MOV uns(*SP(#4)), AC1 ; |231| 
         0000d3 15   
     535 0000d4 1015          SFTS AC1, #6, AC0 ; |231| 
         0000d6 06   
     536 0000d7 1014          SUB AC1 << #1, AC0 ; |231| 
         0000d9 01   
     537 0000da 900A          MOV AC0, XAR2
     538 0000dc 14A1          AADD XAR2, XAR3 ; |231| 
         0000de B0   
     539 0000df DC6D          BTST #1, *AR3(#75), TC1 ; |231| 
         0000e1 1000 
         0000e3 4B   
     540 0000e4 0474          BCC $C$L2,!TC1 ; |231| 
         0000e6 1B   
     541                                                      ; branchcc occurs ; |231| 
     542                      .dwpsn  file "F:/eZdsp-DBG-sim/tmp1/c55x-sim2/foo/c5535_bsl_revc/ezdsp5535_v1/c55xx_csl/inc/csl_mscAu
     543 0000e7 ED00          MOV dbl(*SP(#0)), XAR0
         0000e9 8F   
     544 0000ea 7602          MOV #595, T1 ; |233| 
         0000ec 5358 
     545 0000ee B40F          AMAR *+AR0(#266) ; |233| 
TMS320C55x Assembler PC v4.4.1 Tue Oct 02 02:33:20 2018

Tools Copyright (c) 1996-2012 Texas Instruments Incorporated
csl_msc.asm                                                          PAGE   12

         0000f0 010A 
     546              $C$DW$80        .dwtag  DW_TAG_TI_branch
     547                      .dwattr $C$DW$80, DW_AT_low_pc(0x00)
     548                      .dwattr $C$DW$80, DW_AT_name("_MSC_SetSenseKeys")
     549                      .dwattr $C$DW$80, DW_AT_TI_call
     550              
     551 0000f2 08FF          CALL #_MSC_SetSenseKeys ; |233| 
         0000f4 09   
     552 0000f5 3D64  ||      MOV #6, T0
     553              
     554                                                      ; call occurs [#_MSC_SetSenseKeys] ; |233| 
     555                      .dwpsn  file "F:/eZdsp-DBG-sim/tmp1/c55x-sim2/foo/c5535_bsl_revc/ezdsp5535_v1/c55xx_csl/inc/csl_mscAu
     556 0000f7 ED00          MOV dbl(*SP(#0)), XAR3
         0000f9 BF   
     557 0000fa E66D          MOV #1, *AR3(#289) ; |236| 
         0000fc 0101 
         0000fe 21   
     558                      .dwpsn  file "F:/eZdsp-DBG-sim/tmp1/c55x-sim2/foo/c5535_bsl_revc/ezdsp5535_v1/c55xx_csl/inc/csl_mscAu
     559 0000ff 0600          B $C$L5   ; |237| 
         000101 82   
     560                                                      ; branch occurs ; |237| 
     561 000102       $C$L2:    
     562                      .dwpsn  file "F:/eZdsp-DBG-sim/tmp1/c55x-sim2/foo/c5535_bsl_revc/ezdsp5535_v1/c55xx_csl/inc/csl_mscAu
     563 000102 ED00          MOV dbl(*SP(#0)), XAR3
         000104 BF   
     564 000105 A408          MOV *SP(#4), T0 ; |240| 
     565 000107 ED6D          MOV dbl(*AR3(#8)), AC0 ; |240| 
         000109 0800 
         00010b 08   
     566              $C$DW$81        .dwtag  DW_TAG_TI_branch
     567                      .dwattr $C$DW$81, DW_AT_low_pc(0x00)
     568                      .dwattr $C$DW$81, DW_AT_TI_call
     569                      .dwattr $C$DW$81, DW_AT_TI_indirect
     570 00010c 9200          CALL AC0  ; |240| 
     571                                                      ; call occurs [AC0] ; |240| 
     572 00010e C40A          MOV T0, *SP(#5) ; |240| 
     573                      .dwpsn  file "F:/eZdsp-DBG-sim/tmp1/c55x-sim2/foo/c5535_bsl_revc/ezdsp5535_v1/c55xx_csl/inc/csl_mscAu
     574 000110 F00A          CMP *SP(#5) == #1, TC1 ; |241| 
         000112 0001 
     575 000114 0474          BCC $C$L3,!TC1 ; |241| 
         000116 2B   
     576                                                      ; branchcc occurs ; |241| 
     577                      .dwpsn  file "F:/eZdsp-DBG-sim/tmp1/c55x-sim2/foo/c5535_bsl_revc/ezdsp5535_v1/c55xx_csl/inc/csl_mscAu
     578 000117 ED00          MOV dbl(*SP(#0)), XAR3
         000119 BF   
     579 00011a DF08          MOV uns(*SP(#4)), AC1 ; |244| 
         00011c 15   
     580 00011d 1015          SFTS AC1, #6, AC0 ; |244| 
         00011f 06   
     581 000120 1014          SUB AC1 << #1, AC0 ; |244| 
         000122 01   
     582 000123 900A          MOV AC0, XAR2
     583 000125 14A1          AADD XAR2, XAR3 ; |244| 
         000127 B0   
     584 000128 1412          AADD #18, AR3 ; |244| 
TMS320C55x Assembler PC v4.4.1 Tue Oct 02 02:33:20 2018

Tools Copyright (c) 1996-2012 Texas Instruments Incorporated
csl_msc.asm                                                          PAGE   13

         00012a B4   
     585 00012b F46D          AND #0xfff6, *AR3(#57) ; |244| 
         00012d FFF6 
         00012f 0039 
     586                      .dwpsn  file "F:/eZdsp-DBG-sim/tmp1/c55x-sim2/foo/c5535_bsl_revc/ezdsp5535_v1/c55xx_csl/inc/csl_mscAu
     587 000131 ED00          MOV dbl(*SP(#0)), XAR0
         000133 8F   
     588 000134 3C04          MOV #0, T0
     589 000136 B40F          AMAR *+AR0(#266) ; |245| 
         000138 010A 
     590              $C$DW$82        .dwtag  DW_TAG_TI_branch
     591                      .dwattr $C$DW$82, DW_AT_low_pc(0x00)
     592                      .dwattr $C$DW$82, DW_AT_name("_MSC_SetSenseKeys")
     593                      .dwattr $C$DW$82, DW_AT_TI_call
     594              
     595 00013a 08FE          CALL #_MSC_SetSenseKeys ; |245| 
         00013c C1   
     596 00013d 3D05  ||      MOV #0, T1
     597              
     598                                                      ; call occurs [#_MSC_SetSenseKeys] ; |245| 
     599                      .dwpsn  file "F:/eZdsp-DBG-sim/tmp1/c55x-sim2/foo/c5535_bsl_revc/ezdsp5535_v1/c55xx_csl/inc/csl_mscAu
     600 00013f 0600          B $C$L5   ; |248| 
         000141 42   
     601                                                      ; branch occurs ; |248| 
     602 000142       $C$L3:    
     603                      .dwpsn  file "F:/eZdsp-DBG-sim/tmp1/c55x-sim2/foo/c5535_bsl_revc/ezdsp5535_v1/c55xx_csl/inc/csl_mscAu
     604 000142 ED00          MOV dbl(*SP(#0)), XAR3
         000144 BF   
     605 000145 E66D          MOV #1, *AR3(#289) ; |251| 
         000147 0101 
         000149 21   
     606                      .dwpsn  file "F:/eZdsp-DBG-sim/tmp1/c55x-sim2/foo/c5535_bsl_revc/ezdsp5535_v1/c55xx_csl/inc/csl_mscAu
     607 00014a ED00          MOV dbl(*SP(#0)), XAR0
         00014c 8F   
     608 00014d 7600          MOV #32, T1 ; |252| 
         00014f 2058 
     609 000151 B40F          AMAR *+AR0(#266) ; |252| 
         000153 010A 
     610              $C$DW$83        .dwtag  DW_TAG_TI_branch
     611                      .dwattr $C$DW$83, DW_AT_low_pc(0x00)
     612                      .dwattr $C$DW$83, DW_AT_name("_MSC_SetSenseKeys")
     613                      .dwattr $C$DW$83, DW_AT_TI_call
     614              
     615 000155 08FE          CALL #_MSC_SetSenseKeys ; |252| 
         000157 A6   
     616 000158 3D54  ||      MOV #5, T0
     617              
     618                                                      ; call occurs [#_MSC_SetSenseKeys] ; |252| 
     619                      .dwpsn  file "F:/eZdsp-DBG-sim/tmp1/c55x-sim2/foo/c5535_bsl_revc/ezdsp5535_v1/c55xx_csl/inc/csl_mscAu
     620 00015a 4A28          B $C$L5   ; |257| 
     621                                                      ; branch occurs ; |257| 
     622 00015c       $C$L4:    
     623                      .dwpsn  file "F:/eZdsp-DBG-sim/tmp1/c55x-sim2/foo/c5535_bsl_revc/ezdsp5535_v1/c55xx_csl/inc/csl_mscAu
     624 00015c ED00          MOV dbl(*SP(#0)), XAR0
         00015e 8F   
TMS320C55x Assembler PC v4.4.1 Tue Oct 02 02:33:20 2018

Tools Copyright (c) 1996-2012 Texas Instruments Incorporated
csl_msc.asm                                                          PAGE   14

     625 00015f 3C04          MOV #0, T0
     626 000161 B40F          AMAR *+AR0(#266) ; |260| 
         000163 010A 
     627              $C$DW$84        .dwtag  DW_TAG_TI_branch
     628                      .dwattr $C$DW$84, DW_AT_low_pc(0x00)
     629                      .dwattr $C$DW$84, DW_AT_name("_MSC_SetSenseKeys")
     630                      .dwattr $C$DW$84, DW_AT_TI_call
     631              
     632 000165 08FE          CALL #_MSC_SetSenseKeys ; |260| 
         000167 96   
     633 000168 3D05  ||      MOV #0, T1
     634              
     635                                                      ; call occurs [#_MSC_SetSenseKeys] ; |260| 
     636                      .dwpsn  file "F:/eZdsp-DBG-sim/tmp1/c55x-sim2/foo/c5535_bsl_revc/ezdsp5535_v1/c55xx_csl/inc/csl_mscAu
     637 00016a ED00          MOV dbl(*SP(#0)), XAR3
         00016c BF   
     638 00016d DF08          MOV uns(*SP(#4)), AC1 ; |264| 
         00016f 15   
     639 000170 1015          SFTS AC1, #6, AC0 ; |264| 
         000172 06   
     640 000173 1014          SUB AC1 << #1, AC0 ; |264| 
         000175 01   
     641 000176 900A          MOV AC0, XAR2
     642 000178 14A1          AADD XAR2, XAR3 ; |264| 
         00017a B0   
     643 00017b 1412          AADD #18, AR3 ; |264| 
         00017d B4   
     644 00017e F46D          AND #0xfff6, *AR3(#57) ; |264| 
         000180 FFF6 
         000182 0039 
     645 000184       $C$L5:    
     646                      .dwpsn  file "F:/eZdsp-DBG-sim/tmp1/c55x-sim2/foo/c5535_bsl_revc/ezdsp5535_v1/c55xx_csl/inc/csl_mscAu
     647 000184 ED00          MOV dbl(*SP(#0)), XAR1
         000186 9F   
     648 000187 ED04          MOV dbl(*SP(#2)), XAR0
         000189 8F   
     649 00018a 3CD4          MOV #13, T0
     650 00018c B42F          AMAR *+AR1(#282) ; |267| 
         00018e 011A 
     651              $C$DW$85        .dwtag  DW_TAG_TI_branch
     652                      .dwattr $C$DW$85, DW_AT_low_pc(0x00)
     653                      .dwattr $C$DW$85, DW_AT_name("_USB_postTransaction")
     654                      .dwattr $C$DW$85, DW_AT_TI_call
     655              
     656 000190 6C00          CALL #_USB_postTransaction ; |267| 
         000192 0000!
     657 000194 3D05  ||      MOV #0, T1
     658              
     659                                                      ; call occurs [#_USB_postTransaction] ; |267| 
     660 000196 C40C          MOV T0, *SP(#6) ; |267| 
     661                      .dwpsn  file "F:/eZdsp-DBG-sim/tmp1/c55x-sim2/foo/c5535_bsl_revc/ezdsp5535_v1/c55xx_csl/inc/csl_mscAu
     662 000198       $C$L6:    
     663                      .dwpsn  file "F:/eZdsp-DBG-sim/tmp1/c55x-sim2/foo/c5535_bsl_revc/ezdsp5535_v1/c55xx_csl/inc/csl_mscAu
     664 000198 4E09          AADD #9, SP
     665                      .dwcfi  cfa_offset, 1
TMS320C55x Assembler PC v4.4.1 Tue Oct 02 02:33:20 2018

Tools Copyright (c) 1996-2012 Texas Instruments Incorporated
csl_msc.asm                                                          PAGE   15

     666              $C$DW$86        .dwtag  DW_TAG_TI_branch
     667                      .dwattr $C$DW$86, DW_AT_low_pc(0x00)
     668                      .dwattr $C$DW$86, DW_AT_TI_return
     669 00019a 4804          RET
     670                                                      ; return occurs
     671                      .dwattr $C$DW$67, DW_AT_TI_end_file("F:/eZdsp-DBG-sim/tmp1/c55x-sim2/foo/c5535_bsl_revc/ezdsp5535_v1/
     672                      .dwattr $C$DW$67, DW_AT_TI_end_line(0x10e)
     673                      .dwattr $C$DW$67, DW_AT_TI_end_column(0x01)
     674                      .dwendentry
     675                      .dwendtag $C$DW$67
     676              
     677 00019c               .sect   ".text"
     678                      .align 4
     679              
     680              $C$DW$87        .dwtag  DW_TAG_subprogram, DW_AT_name("MSC_HandleStateSendCSW")
     681                      .dwattr $C$DW$87, DW_AT_low_pc(_MSC_HandleStateSendCSW)
     682                      .dwattr $C$DW$87, DW_AT_high_pc(0x00)
     683                      .dwattr $C$DW$87, DW_AT_TI_symbol_name("_MSC_HandleStateSendCSW")
     684                      .dwattr $C$DW$87, DW_AT_type(*$C$DW$T$89)
     685                      .dwattr $C$DW$87, DW_AT_TI_begin_file("F:/eZdsp-DBG-sim/tmp1/c55x-sim2/foo/c5535_bsl_revc/ezdsp5535_v
     686                      .dwattr $C$DW$87, DW_AT_TI_begin_line(0x13e)
     687                      .dwattr $C$DW$87, DW_AT_TI_begin_column(0x0c)
     688                      .dwattr $C$DW$87, DW_AT_TI_max_frame_size(0x08)
     689                      .dwpsn  file "F:/eZdsp-DBG-sim/tmp1/c55x-sim2/foo/c5535_bsl_revc/ezdsp5535_v1/c55xx_csl/inc/csl_mscAu
     690              
     691                      .dwfde $C$DW$CIE, _MSC_HandleStateSendCSW
     692              $C$DW$88        .dwtag  DW_TAG_formal_parameter, DW_AT_name("pMscHandle")
     693                      .dwattr $C$DW$88, DW_AT_TI_symbol_name("_pMscHandle")
     694                      .dwattr $C$DW$88, DW_AT_type(*$C$DW$T$107)
     695                      .dwattr $C$DW$88, DW_AT_location[DW_OP_reg17]
     696              $C$DW$89        .dwtag  DW_TAG_formal_parameter, DW_AT_name("hUsbOutEp")
     697                      .dwattr $C$DW$89, DW_AT_TI_symbol_name("_hUsbOutEp")
     698                      .dwattr $C$DW$89, DW_AT_type(*$C$DW$T$27)
     699                      .dwattr $C$DW$89, DW_AT_location[DW_OP_reg19]
     700              $C$DW$90        .dwtag  DW_TAG_formal_parameter, DW_AT_name("hUsbInEp")
     701                      .dwattr $C$DW$90, DW_AT_TI_symbol_name("_hUsbInEp")
     702                      .dwattr $C$DW$90, DW_AT_type(*$C$DW$T$27)
     703                      .dwattr $C$DW$90, DW_AT_location[DW_OP_reg21]
     704              ;*******************************************************************************
     705              ;* FUNCTION NAME: MSC_HandleStateSendCSW                                       *
     706              ;*                                                                             *
     707              ;*   Function Uses Regs : T0,T1,AR0,XAR0,AR1,XAR1,AR2,XAR2,AR3,XAR3,SP,M40,    *
     708              ;*                        SATA,SATD,RDM,FRCT,SMUL                              *
     709              ;*   Stack Frame        : Compact (No Frame Pointer, w/ debug)                 *
     710              ;*   Total Frame Size   : 8 words                                              *
     711              ;*                        (1 return address/alignment)                         *
     712              ;*                        (7 local values)                                     *
     713              ;*   Min System Stack   : 1 word                                               *
     714              ;*******************************************************************************
     715 00019c       _MSC_HandleStateSendCSW:
     716                      .dwcfi  cfa_offset, 1
     717                      .dwcfi  save_reg_to_mem, 91, -1
     718 00019c 4EF9          AADD #-7, SP
     719                      .dwcfi  cfa_offset, 8
     720              $C$DW$91        .dwtag  DW_TAG_variable, DW_AT_name("pMscHandle")
TMS320C55x Assembler PC v4.4.1 Tue Oct 02 02:33:20 2018

Tools Copyright (c) 1996-2012 Texas Instruments Incorporated
csl_msc.asm                                                          PAGE   16

     721                      .dwattr $C$DW$91, DW_AT_TI_symbol_name("_pMscHandle")
     722                      .dwattr $C$DW$91, DW_AT_type(*$C$DW$T$107)
     723                      .dwattr $C$DW$91, DW_AT_location[DW_OP_bregx 0x24 0]
     724              $C$DW$92        .dwtag  DW_TAG_variable, DW_AT_name("hUsbOutEp")
     725                      .dwattr $C$DW$92, DW_AT_TI_symbol_name("_hUsbOutEp")
     726                      .dwattr $C$DW$92, DW_AT_type(*$C$DW$T$27)
     727                      .dwattr $C$DW$92, DW_AT_location[DW_OP_bregx 0x24 2]
     728              $C$DW$93        .dwtag  DW_TAG_variable, DW_AT_name("hUsbInEp")
     729                      .dwattr $C$DW$93, DW_AT_TI_symbol_name("_hUsbInEp")
     730                      .dwattr $C$DW$93, DW_AT_type(*$C$DW$T$27)
     731                      .dwattr $C$DW$93, DW_AT_location[DW_OP_bregx 0x24 4]
     732              $C$DW$94        .dwtag  DW_TAG_variable, DW_AT_name("status")
     733                      .dwattr $C$DW$94, DW_AT_TI_symbol_name("_status")
     734                      .dwattr $C$DW$94, DW_AT_type(*$C$DW$T$89)
     735                      .dwattr $C$DW$94, DW_AT_location[DW_OP_bregx 0x24 6]
     736 00019e EB08          MOV XAR2, dbl(*SP(#4))
         0001a0 A5   
     737 0001a1 EB04          MOV XAR1, dbl(*SP(#2))
         0001a3 95   
     738 0001a4 EB00          MOV XAR0, dbl(*SP(#0))
         0001a6 85   
     739                      .dwpsn  file "F:/eZdsp-DBG-sim/tmp1/c55x-sim2/foo/c5535_bsl_revc/ezdsp5535_v1/c55xx_csl/inc/csl_mscAu
     740 0001a7 ED08          MOV dbl(*SP(#4)), XAR0
         0001a9 8F   
     741 0001aa EC0C          AMAR *SP(#6), XAR1
         0001ac 9E   
     742              $C$DW$95        .dwtag  DW_TAG_TI_branch
     743                      .dwattr $C$DW$95, DW_AT_low_pc(0x00)
     744                      .dwattr $C$DW$95, DW_AT_name("_USB_isTransactionDone")
     745                      .dwattr $C$DW$95, DW_AT_TI_call
     746 0001ad 6C00          CALL #_USB_isTransactionDone ; |324| 
         0001af 0000!
     747                                                      ; call occurs [#_USB_isTransactionDone] ; |324| 
     748 0001b1 0404          BCC $C$L7,T0 == #0 ; |324| 
         0001b3 29   
     749                                                      ; branchcc occurs ; |324| 
     750                      .dwpsn  file "F:/eZdsp-DBG-sim/tmp1/c55x-sim2/foo/c5535_bsl_revc/ezdsp5535_v1/c55xx_csl/inc/csl_mscAu
     751 0001b4 ED00          MOV dbl(*SP(#0)), XAR3
         0001b6 BF   
     752 0001b7 E66D          MOV #0, *AR3(#281) ; |326| 
         0001b9 0001 
         0001bb 19   
     753                      .dwpsn  file "F:/eZdsp-DBG-sim/tmp1/c55x-sim2/foo/c5535_bsl_revc/ezdsp5535_v1/c55xx_csl/inc/csl_mscAu
     754 0001bc ED00          MOV dbl(*SP(#0)), XAR3
         0001be BF   
     755 0001bf E66D          MOV #1, *AR3(#355) ; |327| 
         0001c1 0101 
         0001c3 63   
     756                      .dwpsn  file "F:/eZdsp-DBG-sim/tmp1/c55x-sim2/foo/c5535_bsl_revc/ezdsp5535_v1/c55xx_csl/inc/csl_mscAu
     757 0001c4 ED00          MOV dbl(*SP(#0)), XAR1
         0001c6 9F   
     758 0001c7 7600          MOV #31, T0 ; |328| 
         0001c9 1F48 
     759 0001cb ED04          MOV dbl(*SP(#2)), XAR0
         0001cd 8F   
TMS320C55x Assembler PC v4.4.1 Tue Oct 02 02:33:20 2018

Tools Copyright (c) 1996-2012 Texas Instruments Incorporated
csl_msc.asm                                                          PAGE   17

     760 0001ce B42F          AMAR *+AR1(#296) ; |328| 
         0001d0 0128 
     761              $C$DW$96        .dwtag  DW_TAG_TI_branch
     762                      .dwattr $C$DW$96, DW_AT_low_pc(0x00)
     763                      .dwattr $C$DW$96, DW_AT_name("_USB_postTransaction")
     764                      .dwattr $C$DW$96, DW_AT_TI_call
     765              
     766 0001d2 6C00          CALL #_USB_postTransaction ; |328| 
         0001d4 0000!
     767 0001d6 3D05  ||      MOV #0, T1
     768              
     769                                                      ; call occurs [#_USB_postTransaction] ; |328| 
     770 0001d8 DA0C          OR *SP(#6), T0, AR1 ; |328| 
         0001da 94   
     771 0001db C90C          MOV AR1, *SP(#6) ; |328| 
     772 0001dd       $C$L7:    
     773                      .dwpsn  file "F:/eZdsp-DBG-sim/tmp1/c55x-sim2/foo/c5535_bsl_revc/ezdsp5535_v1/c55xx_csl/inc/csl_mscAu
     774 0001dd A40C          MOV *SP(#6), T0 ; |332| 
     775                      .dwpsn  file "F:/eZdsp-DBG-sim/tmp1/c55x-sim2/foo/c5535_bsl_revc/ezdsp5535_v1/c55xx_csl/inc/csl_mscAu
     776 0001df 4E07          AADD #7, SP
     777                      .dwcfi  cfa_offset, 1
     778              $C$DW$97        .dwtag  DW_TAG_TI_branch
     779                      .dwattr $C$DW$97, DW_AT_low_pc(0x00)
     780                      .dwattr $C$DW$97, DW_AT_TI_return
     781 0001e1 4804          RET
     782                                                      ; return occurs
     783                      .dwattr $C$DW$87, DW_AT_TI_end_file("F:/eZdsp-DBG-sim/tmp1/c55x-sim2/foo/c5535_bsl_revc/ezdsp5535_v1/
     784                      .dwattr $C$DW$87, DW_AT_TI_end_line(0x14d)
     785                      .dwattr $C$DW$87, DW_AT_TI_end_column(0x01)
     786                      .dwendentry
     787                      .dwendtag $C$DW$87
     788              
     789 0001e3               .sect   ".text"
     790                      .align 4
     791              
     792              $C$DW$98        .dwtag  DW_TAG_subprogram, DW_AT_name("MSC_HandleStateSendData")
     793                      .dwattr $C$DW$98, DW_AT_low_pc(_MSC_HandleStateSendData)
     794                      .dwattr $C$DW$98, DW_AT_high_pc(0x00)
     795                      .dwattr $C$DW$98, DW_AT_TI_symbol_name("_MSC_HandleStateSendData")
     796                      .dwattr $C$DW$98, DW_AT_type(*$C$DW$T$89)
     797                      .dwattr $C$DW$98, DW_AT_TI_begin_file("F:/eZdsp-DBG-sim/tmp1/c55x-sim2/foo/c5535_bsl_revc/ezdsp5535_v
     798                      .dwattr $C$DW$98, DW_AT_TI_begin_line(0x17c)
     799                      .dwattr $C$DW$98, DW_AT_TI_begin_column(0x0c)
     800                      .dwattr $C$DW$98, DW_AT_TI_max_frame_size(0x06)
     801                      .dwpsn  file "F:/eZdsp-DBG-sim/tmp1/c55x-sim2/foo/c5535_bsl_revc/ezdsp5535_v1/c55xx_csl/inc/csl_mscAu
     802              
     803                      .dwfde $C$DW$CIE, _MSC_HandleStateSendData
     804              $C$DW$99        .dwtag  DW_TAG_formal_parameter, DW_AT_name("pMscHandle")
     805                      .dwattr $C$DW$99, DW_AT_TI_symbol_name("_pMscHandle")
     806                      .dwattr $C$DW$99, DW_AT_type(*$C$DW$T$107)
     807                      .dwattr $C$DW$99, DW_AT_location[DW_OP_reg17]
     808              $C$DW$100       .dwtag  DW_TAG_formal_parameter, DW_AT_name("hUsbInEp")
     809                      .dwattr $C$DW$100, DW_AT_TI_symbol_name("_hUsbInEp")
     810                      .dwattr $C$DW$100, DW_AT_type(*$C$DW$T$27)
     811                      .dwattr $C$DW$100, DW_AT_location[DW_OP_reg19]
TMS320C55x Assembler PC v4.4.1 Tue Oct 02 02:33:20 2018

Tools Copyright (c) 1996-2012 Texas Instruments Incorporated
csl_msc.asm                                                          PAGE   18

     812              ;*******************************************************************************
     813              ;* FUNCTION NAME: MSC_HandleStateSendData                                      *
     814              ;*                                                                             *
     815              ;*   Function Uses Regs : T0,T1,AR0,XAR0,AR1,XAR1,AR3,XAR3,SP,M40,SATA,SATD,   *
     816              ;*                        RDM,FRCT,SMUL                                        *
     817              ;*   Stack Frame        : Compact (No Frame Pointer, w/ debug)                 *
     818              ;*   Total Frame Size   : 6 words                                              *
     819              ;*                        (1 return address/alignment)                         *
     820              ;*                        (5 local values)                                     *
     821              ;*   Min System Stack   : 1 word                                               *
     822              ;*******************************************************************************
     823 0001e4       _MSC_HandleStateSendData:
     824                      .dwcfi  cfa_offset, 1
     825                      .dwcfi  save_reg_to_mem, 91, -1
     826 0001e4 4EFB          AADD #-5, SP
     827                      .dwcfi  cfa_offset, 6
     828              $C$DW$101       .dwtag  DW_TAG_variable, DW_AT_name("pMscHandle")
     829                      .dwattr $C$DW$101, DW_AT_TI_symbol_name("_pMscHandle")
     830                      .dwattr $C$DW$101, DW_AT_type(*$C$DW$T$107)
     831                      .dwattr $C$DW$101, DW_AT_location[DW_OP_bregx 0x24 0]
     832              $C$DW$102       .dwtag  DW_TAG_variable, DW_AT_name("hUsbInEp")
     833                      .dwattr $C$DW$102, DW_AT_TI_symbol_name("_hUsbInEp")
     834                      .dwattr $C$DW$102, DW_AT_type(*$C$DW$T$27)
     835                      .dwattr $C$DW$102, DW_AT_location[DW_OP_bregx 0x24 2]
     836              $C$DW$103       .dwtag  DW_TAG_variable, DW_AT_name("status")
     837                      .dwattr $C$DW$103, DW_AT_TI_symbol_name("_status")
     838                      .dwattr $C$DW$103, DW_AT_type(*$C$DW$T$89)
     839                      .dwattr $C$DW$103, DW_AT_location[DW_OP_bregx 0x24 4]
     840 0001e6 EB04          MOV XAR1, dbl(*SP(#2))
         0001e8 95   
     841 0001e9 EB00          MOV XAR0, dbl(*SP(#0))
         0001eb 85   
     842                      .dwpsn  file "F:/eZdsp-DBG-sim/tmp1/c55x-sim2/foo/c5535_bsl_revc/ezdsp5535_v1/c55xx_csl/inc/csl_mscAu
     843 0001ec ED04          MOV dbl(*SP(#2)), XAR0
         0001ee 8F   
     844 0001ef EC08          AMAR *SP(#4), XAR1
         0001f1 9E   
     845              $C$DW$104       .dwtag  DW_TAG_TI_branch
     846                      .dwattr $C$DW$104, DW_AT_low_pc(0x00)
     847                      .dwattr $C$DW$104, DW_AT_name("_USB_isTransactionDone")
     848                      .dwattr $C$DW$104, DW_AT_TI_call
     849 0001f2 6C00          CALL #_USB_isTransactionDone ; |385| 
         0001f4 0000!
     850                                                      ; call occurs [#_USB_isTransactionDone] ; |385| 
     851 0001f6 0404          BCC $C$L8,T0 == #0 ; |385| 
         0001f8 1F   
     852                                                      ; branchcc occurs ; |385| 
     853                      .dwpsn  file "F:/eZdsp-DBG-sim/tmp1/c55x-sim2/foo/c5535_bsl_revc/ezdsp5535_v1/c55xx_csl/inc/csl_mscAu
     854 0001f9 ED00          MOV dbl(*SP(#0)), XAR1
         0001fb 9F   
     855 0001fc ED04          MOV dbl(*SP(#2)), XAR0
         0001fe 8F   
     856 0001ff 3CD4          MOV #13, T0
     857 000201 B42F          AMAR *+AR1(#282) ; |387| 
         000203 011A 
TMS320C55x Assembler PC v4.4.1 Tue Oct 02 02:33:20 2018

Tools Copyright (c) 1996-2012 Texas Instruments Incorporated
csl_msc.asm                                                          PAGE   19

     858              $C$DW$105       .dwtag  DW_TAG_TI_branch
     859                      .dwattr $C$DW$105, DW_AT_low_pc(0x00)
     860                      .dwattr $C$DW$105, DW_AT_name("_USB_postTransaction")
     861                      .dwattr $C$DW$105, DW_AT_TI_call
     862              
     863 000205 6C00          CALL #_USB_postTransaction ; |387| 
         000207 0000!
     864 000209 3D05  ||      MOV #0, T1
     865              
     866                                                      ; call occurs [#_USB_postTransaction] ; |387| 
     867 00020b DA08          OR *SP(#4), T0, AR1 ; |387| 
         00020d 94   
     868 00020e C908          MOV AR1, *SP(#4) ; |387| 
     869                      .dwpsn  file "F:/eZdsp-DBG-sim/tmp1/c55x-sim2/foo/c5535_bsl_revc/ezdsp5535_v1/c55xx_csl/inc/csl_mscAu
     870 000210 ED00          MOV dbl(*SP(#0)), XAR3
         000212 BF   
     871 000213 E66D          MOV #4, *AR3(#355) ; |389| 
         000215 0401 
         000217 63   
     872 000218       $C$L8:    
     873                      .dwpsn  file "F:/eZdsp-DBG-sim/tmp1/c55x-sim2/foo/c5535_bsl_revc/ezdsp5535_v1/c55xx_csl/inc/csl_mscAu
     874 000218 A408          MOV *SP(#4), T0 ; |392| 
     875                      .dwpsn  file "F:/eZdsp-DBG-sim/tmp1/c55x-sim2/foo/c5535_bsl_revc/ezdsp5535_v1/c55xx_csl/inc/csl_mscAu
     876 00021a 4E05          AADD #5, SP
     877                      .dwcfi  cfa_offset, 1
     878              $C$DW$106       .dwtag  DW_TAG_TI_branch
     879                      .dwattr $C$DW$106, DW_AT_low_pc(0x00)
     880                      .dwattr $C$DW$106, DW_AT_TI_return
     881 00021c 4804          RET
     882                                                      ; return occurs
     883                      .dwattr $C$DW$98, DW_AT_TI_end_file("F:/eZdsp-DBG-sim/tmp1/c55x-sim2/foo/c5535_bsl_revc/ezdsp5535_v1/
     884                      .dwattr $C$DW$98, DW_AT_TI_end_line(0x189)
     885                      .dwattr $C$DW$98, DW_AT_TI_end_column(0x01)
     886                      .dwendentry
     887                      .dwendtag $C$DW$98
     888              
     889 00021e               .sect   ".text"
     890                      .align 4
     891              
     892              $C$DW$107       .dwtag  DW_TAG_subprogram, DW_AT_name("MSC_HandleStateSendStall")
     893                      .dwattr $C$DW$107, DW_AT_low_pc(_MSC_HandleStateSendStall)
     894                      .dwattr $C$DW$107, DW_AT_high_pc(0x00)
     895                      .dwattr $C$DW$107, DW_AT_TI_symbol_name("_MSC_HandleStateSendStall")
     896                      .dwattr $C$DW$107, DW_AT_type(*$C$DW$T$89)
     897                      .dwattr $C$DW$107, DW_AT_TI_begin_file("F:/eZdsp-DBG-sim/tmp1/c55x-sim2/foo/c5535_bsl_revc/ezdsp5535_
     898                      .dwattr $C$DW$107, DW_AT_TI_begin_line(0x1b8)
     899                      .dwattr $C$DW$107, DW_AT_TI_begin_column(0x0c)
     900                      .dwattr $C$DW$107, DW_AT_TI_max_frame_size(0x06)
     901                      .dwpsn  file "F:/eZdsp-DBG-sim/tmp1/c55x-sim2/foo/c5535_bsl_revc/ezdsp5535_v1/c55xx_csl/inc/csl_mscAu
     902              
     903                      .dwfde $C$DW$CIE, _MSC_HandleStateSendStall
     904              $C$DW$108       .dwtag  DW_TAG_formal_parameter, DW_AT_name("pMscHandle")
     905                      .dwattr $C$DW$108, DW_AT_TI_symbol_name("_pMscHandle")
     906                      .dwattr $C$DW$108, DW_AT_type(*$C$DW$T$107)
     907                      .dwattr $C$DW$108, DW_AT_location[DW_OP_reg17]
TMS320C55x Assembler PC v4.4.1 Tue Oct 02 02:33:20 2018

Tools Copyright (c) 1996-2012 Texas Instruments Incorporated
csl_msc.asm                                                          PAGE   20

     908              $C$DW$109       .dwtag  DW_TAG_formal_parameter, DW_AT_name("hUsbInEp")
     909                      .dwattr $C$DW$109, DW_AT_TI_symbol_name("_hUsbInEp")
     910                      .dwattr $C$DW$109, DW_AT_type(*$C$DW$T$27)
     911                      .dwattr $C$DW$109, DW_AT_location[DW_OP_reg19]
     912              ;*******************************************************************************
     913              ;* FUNCTION NAME: MSC_HandleStateSendStall                                     *
     914              ;*                                                                             *
     915              ;*   Function Uses Regs : T0,T1,AR0,XAR0,AR1,XAR1,AR3,XAR3,SP,M40,SATA,SATD,   *
     916              ;*                        RDM,FRCT,SMUL                                        *
     917              ;*   Stack Frame        : Compact (No Frame Pointer, w/ debug)                 *
     918              ;*   Total Frame Size   : 6 words                                              *
     919              ;*                        (1 return address/alignment)                         *
     920              ;*                        (5 local values)                                     *
     921              ;*   Min System Stack   : 1 word                                               *
     922              ;*******************************************************************************
     923 000220       _MSC_HandleStateSendStall:
     924                      .dwcfi  cfa_offset, 1
     925                      .dwcfi  save_reg_to_mem, 91, -1
     926 000220 4EFB          AADD #-5, SP
     927                      .dwcfi  cfa_offset, 6
     928              $C$DW$110       .dwtag  DW_TAG_variable, DW_AT_name("pMscHandle")
     929                      .dwattr $C$DW$110, DW_AT_TI_symbol_name("_pMscHandle")
     930                      .dwattr $C$DW$110, DW_AT_type(*$C$DW$T$107)
     931                      .dwattr $C$DW$110, DW_AT_location[DW_OP_bregx 0x24 0]
     932              $C$DW$111       .dwtag  DW_TAG_variable, DW_AT_name("hUsbInEp")
     933                      .dwattr $C$DW$111, DW_AT_TI_symbol_name("_hUsbInEp")
     934                      .dwattr $C$DW$111, DW_AT_type(*$C$DW$T$27)
     935                      .dwattr $C$DW$111, DW_AT_location[DW_OP_bregx 0x24 2]
     936              $C$DW$112       .dwtag  DW_TAG_variable, DW_AT_name("status")
     937                      .dwattr $C$DW$112, DW_AT_TI_symbol_name("_status")
     938                      .dwattr $C$DW$112, DW_AT_type(*$C$DW$T$89)
     939                      .dwattr $C$DW$112, DW_AT_location[DW_OP_bregx 0x24 4]
     940 000222 EB04          MOV XAR1, dbl(*SP(#2))
         000224 95   
     941 000225 EB00          MOV XAR0, dbl(*SP(#0))
         000227 85   
     942                      .dwpsn  file "F:/eZdsp-DBG-sim/tmp1/c55x-sim2/foo/c5535_bsl_revc/ezdsp5535_v1/c55xx_csl/inc/csl_mscAu
     943 000228 ED04          MOV dbl(*SP(#2)), XAR0
         00022a 8F   
     944 00022b EC08          AMAR *SP(#4), XAR1
         00022d 9E   
     945              $C$DW$113       .dwtag  DW_TAG_TI_branch
     946                      .dwattr $C$DW$113, DW_AT_low_pc(0x00)
     947                      .dwattr $C$DW$113, DW_AT_name("_USB_isTransactionDone")
     948                      .dwattr $C$DW$113, DW_AT_TI_call
     949 00022e 6C00          CALL #_USB_isTransactionDone ; |445| 
         000230 0000!
     950                                                      ; call occurs [#_USB_isTransactionDone] ; |445| 
     951 000232 0404          BCC $C$L9,T0 == #0 ; |445| 
         000234 1F   
     952                                                      ; branchcc occurs ; |445| 
     953                      .dwpsn  file "F:/eZdsp-DBG-sim/tmp1/c55x-sim2/foo/c5535_bsl_revc/ezdsp5535_v1/c55xx_csl/inc/csl_mscAu
     954 000235 ED00          MOV dbl(*SP(#0)), XAR1
         000237 9F   
     955 000238 ED04          MOV dbl(*SP(#2)), XAR0
TMS320C55x Assembler PC v4.4.1 Tue Oct 02 02:33:20 2018

Tools Copyright (c) 1996-2012 Texas Instruments Incorporated
csl_msc.asm                                                          PAGE   21

         00023a 8F   
     956 00023b 3CD4          MOV #13, T0
     957 00023d B42F          AMAR *+AR1(#282) ; |447| 
         00023f 011A 
     958              $C$DW$114       .dwtag  DW_TAG_TI_branch
     959                      .dwattr $C$DW$114, DW_AT_low_pc(0x00)
     960                      .dwattr $C$DW$114, DW_AT_name("_USB_postTransaction")
     961                      .dwattr $C$DW$114, DW_AT_TI_call
     962              
     963 000241 6C00          CALL #_USB_postTransaction ; |447| 
         000243 0000!
     964 000245 3D05  ||      MOV #0, T1
     965              
     966                                                      ; call occurs [#_USB_postTransaction] ; |447| 
     967 000247 DA08          OR *SP(#4), T0, AR1 ; |447| 
         000249 94   
     968 00024a C908          MOV AR1, *SP(#4) ; |447| 
     969                      .dwpsn  file "F:/eZdsp-DBG-sim/tmp1/c55x-sim2/foo/c5535_bsl_revc/ezdsp5535_v1/c55xx_csl/inc/csl_mscAu
     970 00024c ED00          MOV dbl(*SP(#0)), XAR3
         00024e BF   
     971 00024f E66D          MOV #4, *AR3(#355) ; |449| 
         000251 0401 
         000253 63   
     972 000254       $C$L9:    
     973                      .dwpsn  file "F:/eZdsp-DBG-sim/tmp1/c55x-sim2/foo/c5535_bsl_revc/ezdsp5535_v1/c55xx_csl/inc/csl_mscAu
     974 000254 A408          MOV *SP(#4), T0 ; |452| 
     975                      .dwpsn  file "F:/eZdsp-DBG-sim/tmp1/c55x-sim2/foo/c5535_bsl_revc/ezdsp5535_v1/c55xx_csl/inc/csl_mscAu
     976 000256 4E05          AADD #5, SP
     977                      .dwcfi  cfa_offset, 1
     978              $C$DW$115       .dwtag  DW_TAG_TI_branch
     979                      .dwattr $C$DW$115, DW_AT_low_pc(0x00)
     980                      .dwattr $C$DW$115, DW_AT_TI_return
     981 000258 4804          RET
     982                                                      ; return occurs
     983                      .dwattr $C$DW$107, DW_AT_TI_end_file("F:/eZdsp-DBG-sim/tmp1/c55x-sim2/foo/c5535_bsl_revc/ezdsp5535_v1
     984                      .dwattr $C$DW$107, DW_AT_TI_end_line(0x1c5)
     985                      .dwattr $C$DW$107, DW_AT_TI_end_column(0x01)
     986                      .dwendentry
     987                      .dwendtag $C$DW$107
     988              
     989 00025a               .sect   ".text"
     990                      .align 4
     991              
     992              $C$DW$116       .dwtag  DW_TAG_subprogram, DW_AT_name("MSC_HandleStateSendingShortPkt")
     993                      .dwattr $C$DW$116, DW_AT_low_pc(_MSC_HandleStateSendingShortPkt)
     994                      .dwattr $C$DW$116, DW_AT_high_pc(0x00)
     995                      .dwattr $C$DW$116, DW_AT_TI_symbol_name("_MSC_HandleStateSendingShortPkt")
     996                      .dwattr $C$DW$116, DW_AT_type(*$C$DW$T$89)
     997                      .dwattr $C$DW$116, DW_AT_TI_begin_file("F:/eZdsp-DBG-sim/tmp1/c55x-sim2/foo/c5535_bsl_revc/ezdsp5535_
     998                      .dwattr $C$DW$116, DW_AT_TI_begin_line(0x1f4)
     999                      .dwattr $C$DW$116, DW_AT_TI_begin_column(0x0c)
    1000                      .dwattr $C$DW$116, DW_AT_TI_max_frame_size(0x06)
    1001                      .dwpsn  file "F:/eZdsp-DBG-sim/tmp1/c55x-sim2/foo/c5535_bsl_revc/ezdsp5535_v1/c55xx_csl/inc/csl_mscAu
    1002              
    1003                      .dwfde $C$DW$CIE, _MSC_HandleStateSendingShortPkt
TMS320C55x Assembler PC v4.4.1 Tue Oct 02 02:33:20 2018

Tools Copyright (c) 1996-2012 Texas Instruments Incorporated
csl_msc.asm                                                          PAGE   22

    1004              $C$DW$117       .dwtag  DW_TAG_formal_parameter, DW_AT_name("pMscHandle")
    1005                      .dwattr $C$DW$117, DW_AT_TI_symbol_name("_pMscHandle")
    1006                      .dwattr $C$DW$117, DW_AT_type(*$C$DW$T$107)
    1007                      .dwattr $C$DW$117, DW_AT_location[DW_OP_reg17]
    1008              $C$DW$118       .dwtag  DW_TAG_formal_parameter, DW_AT_name("hUsbInEp")
    1009                      .dwattr $C$DW$118, DW_AT_TI_symbol_name("_hUsbInEp")
    1010                      .dwattr $C$DW$118, DW_AT_type(*$C$DW$T$27)
    1011                      .dwattr $C$DW$118, DW_AT_location[DW_OP_reg19]
    1012              ;*******************************************************************************
    1013              ;* FUNCTION NAME: MSC_HandleStateSendingShortPkt                               *
    1014              ;*                                                                             *
    1015              ;*   Function Uses Regs : T0,T1,AR0,XAR0,AR1,XAR1,AR3,XAR3,SP,M40,SATA,SATD,   *
    1016              ;*                        RDM,FRCT,SMUL                                        *
    1017              ;*   Stack Frame        : Compact (No Frame Pointer, w/ debug)                 *
    1018              ;*   Total Frame Size   : 6 words                                              *
    1019              ;*                        (1 return address/alignment)                         *
    1020              ;*                        (5 local values)                                     *
    1021              ;*   Min System Stack   : 1 word                                               *
    1022              ;*******************************************************************************
    1023 00025c       _MSC_HandleStateSendingShortPkt:
    1024                      .dwcfi  cfa_offset, 1
    1025                      .dwcfi  save_reg_to_mem, 91, -1
    1026 00025c 4EFB          AADD #-5, SP
    1027                      .dwcfi  cfa_offset, 6
    1028              $C$DW$119       .dwtag  DW_TAG_variable, DW_AT_name("pMscHandle")
    1029                      .dwattr $C$DW$119, DW_AT_TI_symbol_name("_pMscHandle")
    1030                      .dwattr $C$DW$119, DW_AT_type(*$C$DW$T$107)
    1031                      .dwattr $C$DW$119, DW_AT_location[DW_OP_bregx 0x24 0]
    1032              $C$DW$120       .dwtag  DW_TAG_variable, DW_AT_name("hUsbInEp")
    1033                      .dwattr $C$DW$120, DW_AT_TI_symbol_name("_hUsbInEp")
    1034                      .dwattr $C$DW$120, DW_AT_type(*$C$DW$T$27)
    1035                      .dwattr $C$DW$120, DW_AT_location[DW_OP_bregx 0x24 2]
    1036              $C$DW$121       .dwtag  DW_TAG_variable, DW_AT_name("status")
    1037                      .dwattr $C$DW$121, DW_AT_TI_symbol_name("_status")
    1038                      .dwattr $C$DW$121, DW_AT_type(*$C$DW$T$89)
    1039                      .dwattr $C$DW$121, DW_AT_location[DW_OP_bregx 0x24 4]
    1040 00025e EB04          MOV XAR1, dbl(*SP(#2))
         000260 95   
    1041 000261 EB00          MOV XAR0, dbl(*SP(#0))
         000263 85   
    1042                      .dwpsn  file "F:/eZdsp-DBG-sim/tmp1/c55x-sim2/foo/c5535_bsl_revc/ezdsp5535_v1/c55xx_csl/inc/csl_mscAu
    1043 000264 ED00          MOV dbl(*SP(#0)), XAR3
         000266 BF   
    1044 000267 E66D          MOV #2, *AR3(#355) ; |505| 
         000269 0201 
         00026b 63   
    1045                      .dwpsn  file "F:/eZdsp-DBG-sim/tmp1/c55x-sim2/foo/c5535_bsl_revc/ezdsp5535_v1/c55xx_csl/inc/csl_mscAu
    1046 00026c ED04          MOV dbl(*SP(#2)), XAR0
         00026e 8F   
    1047              $C$DW$122       .dwtag  DW_TAG_TI_branch
    1048                      .dwattr $C$DW$122, DW_AT_low_pc(0x00)
    1049                      .dwattr $C$DW$122, DW_AT_name("_USB_stallEndpt")
    1050                      .dwattr $C$DW$122, DW_AT_TI_call
    1051 00026f 6C00          CALL #_USB_stallEndpt ; |507| 
         000271 0000!
TMS320C55x Assembler PC v4.4.1 Tue Oct 02 02:33:20 2018

Tools Copyright (c) 1996-2012 Texas Instruments Incorporated
csl_msc.asm                                                          PAGE   23

    1052                                                      ; call occurs [#_USB_stallEndpt] ; |507| 
    1053 000273 C408          MOV T0, *SP(#4) ; |507| 
    1054                      .dwpsn  file "F:/eZdsp-DBG-sim/tmp1/c55x-sim2/foo/c5535_bsl_revc/ezdsp5535_v1/c55xx_csl/inc/csl_mscAu
    1055 000275 ED00          MOV dbl(*SP(#0)), XAR1
         000277 9F   
    1056 000278 7600          MOV #32, T1 ; |510| 
         00027a 2058 
    1057 00027c ED04          MOV dbl(*SP(#2)), XAR0
         00027e 8F   
    1058 00027f B42F          AMAR *+AR1(#282) ; |510| 
         000281 011A 
    1059              $C$DW$123       .dwtag  DW_TAG_TI_branch
    1060                      .dwattr $C$DW$123, DW_AT_low_pc(0x00)
    1061                      .dwattr $C$DW$123, DW_AT_name("_USB_postTransaction")
    1062                      .dwattr $C$DW$123, DW_AT_TI_call
    1063              
    1064 000283 6C00          CALL #_USB_postTransaction ; |510| 
         000285 0000!
    1065 000287 3D04  ||      MOV #0, T0
    1066              
    1067                                                      ; call occurs [#_USB_postTransaction] ; |510| 
    1068 000289 DA08          OR *SP(#4), T0, AR1 ; |510| 
         00028b 94   
    1069 00028c C908          MOV AR1, *SP(#4) ; |510| 
    1070                      .dwpsn  file "F:/eZdsp-DBG-sim/tmp1/c55x-sim2/foo/c5535_bsl_revc/ezdsp5535_v1/c55xx_csl/inc/csl_mscAu
    1071 00028e 2294          MOV AR1, T0
    1072                      .dwpsn  file "F:/eZdsp-DBG-sim/tmp1/c55x-sim2/foo/c5535_bsl_revc/ezdsp5535_v1/c55xx_csl/inc/csl_mscAu
    1073 000290 4E05          AADD #5, SP
    1074                      .dwcfi  cfa_offset, 1
    1075              $C$DW$124       .dwtag  DW_TAG_TI_branch
    1076                      .dwattr $C$DW$124, DW_AT_low_pc(0x00)
    1077                      .dwattr $C$DW$124, DW_AT_TI_return
    1078 000292 4804          RET
    1079                                                      ; return occurs
    1080                      .dwattr $C$DW$116, DW_AT_TI_end_file("F:/eZdsp-DBG-sim/tmp1/c55x-sim2/foo/c5535_bsl_revc/ezdsp5535_v1
    1081                      .dwattr $C$DW$116, DW_AT_TI_end_line(0x203)
    1082                      .dwattr $C$DW$116, DW_AT_TI_end_column(0x01)
    1083                      .dwendentry
    1084                      .dwendtag $C$DW$116
    1085              
    1086 000294               .sect   ".text"
    1087                      .align 4
    1088              
    1089              $C$DW$125       .dwtag  DW_TAG_subprogram, DW_AT_name("MSC_HandleModeSense6")
    1090                      .dwattr $C$DW$125, DW_AT_low_pc(_MSC_HandleModeSense6)
    1091                      .dwattr $C$DW$125, DW_AT_high_pc(0x00)
    1092                      .dwattr $C$DW$125, DW_AT_TI_symbol_name("_MSC_HandleModeSense6")
    1093                      .dwattr $C$DW$125, DW_AT_type(*$C$DW$T$89)
    1094                      .dwattr $C$DW$125, DW_AT_TI_begin_file("F:/eZdsp-DBG-sim/tmp1/c55x-sim2/foo/c5535_bsl_revc/ezdsp5535_
    1095                      .dwattr $C$DW$125, DW_AT_TI_begin_line(0x233)
    1096                      .dwattr $C$DW$125, DW_AT_TI_begin_column(0x0c)
    1097                      .dwattr $C$DW$125, DW_AT_TI_max_frame_size(0x0a)
    1098                      .dwpsn  file "F:/eZdsp-DBG-sim/tmp1/c55x-sim2/foo/c5535_bsl_revc/ezdsp5535_v1/c55xx_csl/inc/csl_mscAu
    1099              
    1100                      .dwfde $C$DW$CIE, _MSC_HandleModeSense6
TMS320C55x Assembler PC v4.4.1 Tue Oct 02 02:33:20 2018

Tools Copyright (c) 1996-2012 Texas Instruments Incorporated
csl_msc.asm                                                          PAGE   24

    1101              $C$DW$126       .dwtag  DW_TAG_formal_parameter, DW_AT_name("pMscHandle")
    1102                      .dwattr $C$DW$126, DW_AT_TI_symbol_name("_pMscHandle")
    1103                      .dwattr $C$DW$126, DW_AT_type(*$C$DW$T$107)
    1104                      .dwattr $C$DW$126, DW_AT_location[DW_OP_reg17]
    1105              $C$DW$127       .dwtag  DW_TAG_formal_parameter, DW_AT_name("hUsbInEp")
    1106                      .dwattr $C$DW$127, DW_AT_TI_symbol_name("_hUsbInEp")
    1107                      .dwattr $C$DW$127, DW_AT_type(*$C$DW$T$27)
    1108                      .dwattr $C$DW$127, DW_AT_location[DW_OP_reg19]
    1109              $C$DW$128       .dwtag  DW_TAG_formal_parameter, DW_AT_name("logicalUnit")
    1110                      .dwattr $C$DW$128, DW_AT_TI_symbol_name("_logicalUnit")
    1111                      .dwattr $C$DW$128, DW_AT_type(*$C$DW$T$25)
    1112                      .dwattr $C$DW$128, DW_AT_location[DW_OP_reg12]
    1113              ;*******************************************************************************
    1114              ;* FUNCTION NAME: MSC_HandleModeSense6                                         *
    1115              ;*                                                                             *
    1116              ;*   Function Uses Regs : AC0,AC0,AC1,AC1,T0,T1,AR0,XAR0,AR1,XAR1,AR2,AR3,XAR3,*
    1117              ;*                        SP,CARRY,TC1,M40,SATA,SATD,RDM,FRCT,SMUL             *
    1118              ;*   Stack Frame        : Compact (No Frame Pointer, w/ debug)                 *
    1119              ;*   Total Frame Size   : 10 words                                             *
    1120              ;*                        (2 return address/alignment)                         *
    1121              ;*                        (8 local values)                                     *
    1122              ;*   Min System Stack   : 1 word                                               *
    1123              ;*******************************************************************************
    1124 000294       _MSC_HandleModeSense6:
    1125                      .dwcfi  cfa_offset, 1
    1126                      .dwcfi  save_reg_to_mem, 91, -1
    1127 000294 4EF7          AADD #-9, SP
    1128                      .dwcfi  cfa_offset, 10
    1129              $C$DW$129       .dwtag  DW_TAG_variable, DW_AT_name("pMscHandle")
    1130                      .dwattr $C$DW$129, DW_AT_TI_symbol_name("_pMscHandle")
    1131                      .dwattr $C$DW$129, DW_AT_type(*$C$DW$T$107)
    1132                      .dwattr $C$DW$129, DW_AT_location[DW_OP_bregx 0x24 0]
    1133              $C$DW$130       .dwtag  DW_TAG_variable, DW_AT_name("hUsbInEp")
    1134                      .dwattr $C$DW$130, DW_AT_TI_symbol_name("_hUsbInEp")
    1135                      .dwattr $C$DW$130, DW_AT_type(*$C$DW$T$27)
    1136                      .dwattr $C$DW$130, DW_AT_location[DW_OP_bregx 0x24 2]
    1137              $C$DW$131       .dwtag  DW_TAG_variable, DW_AT_name("logicalUnit")
    1138                      .dwattr $C$DW$131, DW_AT_TI_symbol_name("_logicalUnit")
    1139                      .dwattr $C$DW$131, DW_AT_type(*$C$DW$T$25)
    1140                      .dwattr $C$DW$131, DW_AT_location[DW_OP_bregx 0x24 4]
    1141              $C$DW$132       .dwtag  DW_TAG_variable, DW_AT_name("status")
    1142                      .dwattr $C$DW$132, DW_AT_TI_symbol_name("_status")
    1143                      .dwattr $C$DW$132, DW_AT_type(*$C$DW$T$89)
    1144                      .dwattr $C$DW$132, DW_AT_location[DW_OP_bregx 0x24 5]
    1145              $C$DW$133       .dwtag  DW_TAG_variable, DW_AT_name("modeSenseLen")
    1146                      .dwattr $C$DW$133, DW_AT_TI_symbol_name("_modeSenseLen")
    1147                      .dwattr $C$DW$133, DW_AT_type(*$C$DW$T$25)
    1148                      .dwattr $C$DW$133, DW_AT_location[DW_OP_bregx 0x24 6]
    1149              $C$DW$134       .dwtag  DW_TAG_variable, DW_AT_name("smallerLen")
    1150                      .dwattr $C$DW$134, DW_AT_TI_symbol_name("_smallerLen")
    1151                      .dwattr $C$DW$134, DW_AT_type(*$C$DW$T$25)
    1152                      .dwattr $C$DW$134, DW_AT_location[DW_OP_bregx 0x24 7]
    1153 000296 C408          MOV T0, *SP(#4) ; |566| 
    1154 000298 EB04          MOV XAR1, dbl(*SP(#2))
         00029a 95   
TMS320C55x Assembler PC v4.4.1 Tue Oct 02 02:33:20 2018

Tools Copyright (c) 1996-2012 Texas Instruments Incorporated
csl_msc.asm                                                          PAGE   25

    1155 00029b EB00          MOV XAR0, dbl(*SP(#0))
         00029d 85   
    1156                      .dwpsn  file "F:/eZdsp-DBG-sim/tmp1/c55x-sim2/foo/c5535_bsl_revc/ezdsp5535_v1/c55xx_csl/inc/csl_mscAu
    1157 00029e ED00          MOV dbl(*SP(#0)), XAR3
         0002a0 BF   
    1158 0002a1 A96D          MOV *AR3(#303), AR1 ; |572| 
         0002a3 012F 
    1159              
    1160 0002a9 1980          AND #0x0080, AR1, AR1 ; |572| 
         0002ab 99   
    1161 0002a5 7600  ||      MOV #128, AR2 ; |572| 
         0002a7 80A8 
    1162              
    1163 0002ac 1290          CMPU AR1 == AR2, TC1 ; |572| 
         0002ae A4   
    1164 0002af 0464          BCC $C$L10,TC1 ; |572| 
         0002b1 4D   
    1165                                                      ; branchcc occurs ; |572| 
    1166 0002b2 ED6D          MOV dbl(*AR3(#16)), AC0 ; |572| 
         0002b4 0800 
         0002b6 10   
    1167 0002b7 0400          BCC $C$L10,AC0 == #0 ; |572| 
         0002b9 45   
    1168                                                      ; branchcc occurs ; |572| 
    1169                      .dwpsn  file "F:/eZdsp-DBG-sim/tmp1/c55x-sim2/foo/c5535_bsl_revc/ezdsp5535_v1/c55xx_csl/inc/csl_mscAu
    1170 0002ba E66D          MOV #2, *AR3(#289) ; |576| 
         0002bc 0201 
         0002be 21   
    1171                      .dwpsn  file "F:/eZdsp-DBG-sim/tmp1/c55x-sim2/foo/c5535_bsl_revc/ezdsp5535_v1/c55xx_csl/inc/csl_mscAu
    1172 0002bf ED00          MOV dbl(*SP(#0)), XAR3
         0002c1 BF   
    1173 0002c2 E66D          MOV #2, *AR3(#355) ; |579| 
         0002c4 0201 
         0002c6 63   
    1174                      .dwpsn  file "F:/eZdsp-DBG-sim/tmp1/c55x-sim2/foo/c5535_bsl_revc/ezdsp5535_v1/c55xx_csl/inc/csl_mscAu
    1175 0002c7 ED00          MOV dbl(*SP(#0)), XAR0
         0002c9 8F   
    1176 0002ca B40F          AMAR *+AR0(#314) ; |580| 
         0002cc 013A 
    1177              $C$DW$135       .dwtag  DW_TAG_TI_branch
    1178                      .dwattr $C$DW$135, DW_AT_low_pc(0x00)
    1179                      .dwattr $C$DW$135, DW_AT_name("_USB_stallEndpt")
    1180                      .dwattr $C$DW$135, DW_AT_TI_call
    1181 0002ce 6C00          CALL #_USB_stallEndpt ; |580| 
         0002d0 0000!
    1182                                                      ; call occurs [#_USB_stallEndpt] ; |580| 
    1183 0002d2 C40A          MOV T0, *SP(#5) ; |580| 
    1184                      .dwpsn  file "F:/eZdsp-DBG-sim/tmp1/c55x-sim2/foo/c5535_bsl_revc/ezdsp5535_v1/c55xx_csl/inc/csl_mscAu
    1185 0002d4 ED00          MOV dbl(*SP(#0)), XAR0
         0002d6 8F   
    1186 0002d7 B40F          AMAR *+AR0(#334) ; |581| 
         0002d9 014E 
    1187              $C$DW$136       .dwtag  DW_TAG_TI_branch
    1188                      .dwattr $C$DW$136, DW_AT_low_pc(0x00)
    1189                      .dwattr $C$DW$136, DW_AT_name("_USB_stallEndpt")
TMS320C55x Assembler PC v4.4.1 Tue Oct 02 02:33:20 2018

Tools Copyright (c) 1996-2012 Texas Instruments Incorporated
csl_msc.asm                                                          PAGE   26

    1190                      .dwattr $C$DW$136, DW_AT_TI_call
    1191 0002db 6C00          CALL #_USB_stallEndpt ; |581| 
         0002dd 0000!
    1192                                                      ; call occurs [#_USB_stallEndpt] ; |581| 
    1193 0002df C40A          MOV T0, *SP(#5) ; |581| 
    1194                      .dwpsn  file "F:/eZdsp-DBG-sim/tmp1/c55x-sim2/foo/c5535_bsl_revc/ezdsp5535_v1/c55xx_csl/inc/csl_mscAu
    1195 0002e1 ED00          MOV dbl(*SP(#0)), XAR0
         0002e3 8F   
    1196 0002e4 ED00          MOV dbl(*SP(#0)), XAR3
         0002e6 BF   
    1197 0002e7 7600          MOV #32, T1 ; |584| 
         0002e9 2058 
    1198 0002eb B40F          AMAR *+AR0(#314) ; |584| 
         0002ed 013A 
    1199 0002ef ED6D          MOV dbl(*AR3(#14)), XAR1
         0002f1 9F00 
         0002f3 0E   
    1200              $C$DW$137       .dwtag  DW_TAG_TI_branch
    1201                      .dwattr $C$DW$137, DW_AT_low_pc(0x00)
    1202                      .dwattr $C$DW$137, DW_AT_name("_USB_postTransaction")
    1203                      .dwattr $C$DW$137, DW_AT_TI_call
    1204              
    1205 0002f4 6C00          CALL #_USB_postTransaction ; |584| 
         0002f6 0000!
    1206 0002f8 3D04  ||      MOV #0, T0
    1207              
    1208                                                      ; call occurs [#_USB_postTransaction] ; |584| 
    1209 0002fa C40A          MOV T0, *SP(#5) ; |584| 
    1210                      .dwpsn  file "F:/eZdsp-DBG-sim/tmp1/c55x-sim2/foo/c5535_bsl_revc/ezdsp5535_v1/c55xx_csl/inc/csl_mscAu
    1211 0002fc 0600          B $C$L15  ; |588| 
         0002fe 89   
    1212                                                      ; branch occurs ; |588| 
    1213 0002ff       $C$L10:    
    1214                      .dwpsn  file "F:/eZdsp-DBG-sim/tmp1/c55x-sim2/foo/c5535_bsl_revc/ezdsp5535_v1/c55xx_csl/inc/csl_mscAu
    1215 0002ff ED6D          MOV dbl(*AR3(#16)), AC0 ; |591| 
         000301 0800 
         000303 10   
    1216 000304 0400          BCC $C$L13,AC0 == #0 ; |591| 
         000306 77   
    1217                                                      ; branchcc occurs ; |591| 
    1218                      .dwpsn  file "F:/eZdsp-DBG-sim/tmp1/c55x-sim2/foo/c5535_bsl_revc/ezdsp5535_v1/c55xx_csl/inc/csl_mscAu
    1219 000307 A96D          MOV *AR3(#356), AR1 ; |593| 
         000309 0164 
    1220 00030b C90C          MOV AR1, *SP(#6) ; |593| 
    1221                      .dwpsn  file "F:/eZdsp-DBG-sim/tmp1/c55x-sim2/foo/c5535_bsl_revc/ezdsp5535_v1/c55xx_csl/inc/csl_mscAu
    1222 00030d ED00          MOV dbl(*SP(#0)), XAR3
         00030f BF   
    1223 000310 DF0C          MOV uns(*SP(#6)), AC1 ; |596| 
         000312 15   
    1224 000313 ED6D          MOV dbl(*AR3(#16)), AC0 ; |596| 
         000315 0800 
         000317 10   
    1225 000318 1218          CMPU AC1 >= AC0, TC1 ; |596| 
         00031a 04   
    1226 00031b 6264          BCC $C$L11,TC1 ; |596| 
TMS320C55x Assembler PC v4.4.1 Tue Oct 02 02:33:20 2018

Tools Copyright (c) 1996-2012 Texas Instruments Incorporated
csl_msc.asm                                                          PAGE   27

    1227                                                      ; branchcc occurs ; |596| 
    1228                      .dwpsn  file "F:/eZdsp-DBG-sim/tmp1/c55x-sim2/foo/c5535_bsl_revc/ezdsp5535_v1/c55xx_csl/inc/csl_mscAu
    1229 00031d C90E          MOV AR1, *SP(#7) ; |598| 
    1230                      .dwpsn  file "F:/eZdsp-DBG-sim/tmp1/c55x-sim2/foo/c5535_bsl_revc/ezdsp5535_v1/c55xx_csl/inc/csl_mscAu
    1231 00031f 4A0B          B $C$L12  ; |599| 
    1232                                                      ; branch occurs ; |599| 
    1233 000321       $C$L11:    
    1234                      .dwpsn  file "F:/eZdsp-DBG-sim/tmp1/c55x-sim2/foo/c5535_bsl_revc/ezdsp5535_v1/c55xx_csl/inc/csl_mscAu
    1235 000321 ED6D          MOV dbl(*AR3(#16)), AC0 ; |602| 
         000323 0800 
         000325 10   
    1236 000326 7DFF          AND #0xffff, AC0, AC0 ; |602| 
         000328 FF00 
    1237 00032a C00E          MOV AC0, *SP(#7) ; |602| 
    1238 00032c       $C$L12:    
    1239                      .dwpsn  file "F:/eZdsp-DBG-sim/tmp1/c55x-sim2/foo/c5535_bsl_revc/ezdsp5535_v1/c55xx_csl/inc/csl_mscAu
    1240 00032c ED00          MOV dbl(*SP(#0)), XAR3
         00032e BF   
    1241 00032f DF0E          MOV uns(*SP(#7)), AC0 ; |607| 
         000331 05   
    1242 000332 ED6D          SUB AC0, dbl(*AR3(#16)), AC0 ; |607| 
         000334 0400 
         000336 10   
    1243 000337 EB6D          MOV AC0, dbl(*AR3(#16)) ; |607| 
         000339 0800 
         00033b 10   
    1244                      .dwpsn  file "F:/eZdsp-DBG-sim/tmp1/c55x-sim2/foo/c5535_bsl_revc/ezdsp5535_v1/c55xx_csl/inc/csl_mscAu
    1245 00033c ED00          MOV dbl(*SP(#0)), XAR3
         00033e BF   
    1246 00033f ED6D          MOV dbl(*AR3(#16)), AC0 ; |608| 
         000341 0800 
         000343 10   
    1247 000344 7DFF          AND #0xffff, AC0, AC0 ; |608| 
         000346 FF00 
    1248 000348 C06D          MOV AC0, *AR3(#287) ; |608| 
         00034a 011F 
    1249                      .dwpsn  file "F:/eZdsp-DBG-sim/tmp1/c55x-sim2/foo/c5535_bsl_revc/ezdsp5535_v1/c55xx_csl/inc/csl_mscAu
    1250 00034c ED00          MOV dbl(*SP(#0)), XAR3
         00034e BF   
    1251 00034f ED6D          MOV dbl(*AR3(#16)), AC0 ; |610| 
         000351 0800 
         000353 10   
    1252 000354 BC6D          MOV HI(AC0), *AR3(#288) ; |610| 
         000356 0120 
    1253                      .dwpsn  file "F:/eZdsp-DBG-sim/tmp1/c55x-sim2/foo/c5535_bsl_revc/ezdsp5535_v1/c55xx_csl/inc/csl_mscAu
    1254 000358 ED00          MOV dbl(*SP(#0)), XAR3
         00035a BF   
    1255 00035b E66D          MOV #0, *AR3(#289) ; |612| 
         00035d 0001 
         00035f 21   
    1256                      .dwpsn  file "F:/eZdsp-DBG-sim/tmp1/c55x-sim2/foo/c5535_bsl_revc/ezdsp5535_v1/c55xx_csl/inc/csl_mscAu
    1257 000360 ED00          MOV dbl(*SP(#0)), XAR1
         000362 9F   
    1258 000363 ED04          MOV dbl(*SP(#2)), XAR0
         000365 8F   
TMS320C55x Assembler PC v4.4.1 Tue Oct 02 02:33:20 2018

Tools Copyright (c) 1996-2012 Texas Instruments Incorporated
csl_msc.asm                                                          PAGE   28

    1259 000366 A40E          MOV *SP(#7), T0 ; |613| 
    1260 000368 B42F          AMAR *+AR1(#357) ; |613| 
         00036a 0165 
    1261              $C$DW$138       .dwtag  DW_TAG_TI_branch
    1262                      .dwattr $C$DW$138, DW_AT_low_pc(0x00)
    1263                      .dwattr $C$DW$138, DW_AT_name("_USB_postTransaction")
    1264                      .dwattr $C$DW$138, DW_AT_TI_call
    1265              
    1266 00036c 6C00          CALL #_USB_postTransaction ; |613| 
         00036e 0000!
    1267 000370 3D15  ||      MOV #1, T1
    1268              
    1269                                                      ; call occurs [#_USB_postTransaction] ; |613| 
    1270 000372 C40A          MOV T0, *SP(#5) ; |613| 
    1271                      .dwpsn  file "F:/eZdsp-DBG-sim/tmp1/c55x-sim2/foo/c5535_bsl_revc/ezdsp5535_v1/c55xx_csl/inc/csl_mscAu
    1272 000374 ED00          MOV dbl(*SP(#0)), XAR3
         000376 BF   
    1273 000377 E66D          MOV #3, *AR3(#355) ; |617| 
         000379 0301 
         00037b 63   
    1274                      .dwpsn  file "F:/eZdsp-DBG-sim/tmp1/c55x-sim2/foo/c5535_bsl_revc/ezdsp5535_v1/c55xx_csl/inc/csl_mscAu
    1275 00037c 4A08          B $C$L14  ; |618| 
    1276                                                      ; branch occurs ; |618| 
    1277 00037e       $C$L13:    
    1278                      .dwpsn  file "F:/eZdsp-DBG-sim/tmp1/c55x-sim2/foo/c5535_bsl_revc/ezdsp5535_v1/c55xx_csl/inc/csl_mscAu
    1279 00037e ED04          MOV dbl(*SP(#2)), XAR1
         000380 9F   
    1280              $C$DW$139       .dwtag  DW_TAG_TI_branch
    1281                      .dwattr $C$DW$139, DW_AT_low_pc(0x00)
    1282                      .dwattr $C$DW$139, DW_AT_name("_MSC_sendCswWithPhaseError")
    1283                      .dwattr $C$DW$139, DW_AT_TI_call
    1284 000381 0829          CALL #_MSC_sendCswWithPhaseError ; |621| 
         000383 34   
    1285                                                      ; call occurs [#_MSC_sendCswWithPhaseError] ; |621| 
    1286 000384 C40A          MOV T0, *SP(#5) ; |621| 
    1287 000386       $C$L14:    
    1288                      .dwpsn  file "F:/eZdsp-DBG-sim/tmp1/c55x-sim2/foo/c5535_bsl_revc/ezdsp5535_v1/c55xx_csl/inc/csl_mscAu
    1289 000386 A40A          MOV *SP(#5), T0 ; |624| 
    1290 000388       $C$L15:    
    1291                      .dwpsn  file "F:/eZdsp-DBG-sim/tmp1/c55x-sim2/foo/c5535_bsl_revc/ezdsp5535_v1/c55xx_csl/inc/csl_mscAu
    1292 000388 4E09          AADD #9, SP
    1293                      .dwcfi  cfa_offset, 1
    1294              $C$DW$140       .dwtag  DW_TAG_TI_branch
    1295                      .dwattr $C$DW$140, DW_AT_low_pc(0x00)
    1296                      .dwattr $C$DW$140, DW_AT_TI_return
    1297 00038a 4804          RET
    1298                                                      ; return occurs
    1299                      .dwattr $C$DW$125, DW_AT_TI_end_file("F:/eZdsp-DBG-sim/tmp1/c55x-sim2/foo/c5535_bsl_revc/ezdsp5535_v1
    1300                      .dwattr $C$DW$125, DW_AT_TI_end_line(0x271)
    1301                      .dwattr $C$DW$125, DW_AT_TI_end_column(0x01)
    1302                      .dwendentry
    1303                      .dwendtag $C$DW$125
    1304              
    1305 00038c               .sect   ".text"
    1306                      .align 4
TMS320C55x Assembler PC v4.4.1 Tue Oct 02 02:33:20 2018

Tools Copyright (c) 1996-2012 Texas Instruments Incorporated
csl_msc.asm                                                          PAGE   29

    1307              
    1308              $C$DW$141       .dwtag  DW_TAG_subprogram, DW_AT_name("MSC_HandleModeSense10")
    1309                      .dwattr $C$DW$141, DW_AT_low_pc(_MSC_HandleModeSense10)
    1310                      .dwattr $C$DW$141, DW_AT_high_pc(0x00)
    1311                      .dwattr $C$DW$141, DW_AT_TI_symbol_name("_MSC_HandleModeSense10")
    1312                      .dwattr $C$DW$141, DW_AT_type(*$C$DW$T$89)
    1313                      .dwattr $C$DW$141, DW_AT_TI_begin_file("F:/eZdsp-DBG-sim/tmp1/c55x-sim2/foo/c5535_bsl_revc/ezdsp5535_
    1314                      .dwattr $C$DW$141, DW_AT_TI_begin_line(0x2a1)
    1315                      .dwattr $C$DW$141, DW_AT_TI_begin_column(0x0c)
    1316                      .dwattr $C$DW$141, DW_AT_TI_max_frame_size(0x0a)
    1317                      .dwpsn  file "F:/eZdsp-DBG-sim/tmp1/c55x-sim2/foo/c5535_bsl_revc/ezdsp5535_v1/c55xx_csl/inc/csl_mscAu
    1318              
    1319                      .dwfde $C$DW$CIE, _MSC_HandleModeSense10
    1320              $C$DW$142       .dwtag  DW_TAG_formal_parameter, DW_AT_name("pMscHandle")
    1321                      .dwattr $C$DW$142, DW_AT_TI_symbol_name("_pMscHandle")
    1322                      .dwattr $C$DW$142, DW_AT_type(*$C$DW$T$107)
    1323                      .dwattr $C$DW$142, DW_AT_location[DW_OP_reg17]
    1324              $C$DW$143       .dwtag  DW_TAG_formal_parameter, DW_AT_name("hUsbInEp")
    1325                      .dwattr $C$DW$143, DW_AT_TI_symbol_name("_hUsbInEp")
    1326                      .dwattr $C$DW$143, DW_AT_type(*$C$DW$T$27)
    1327                      .dwattr $C$DW$143, DW_AT_location[DW_OP_reg19]
    1328              $C$DW$144       .dwtag  DW_TAG_formal_parameter, DW_AT_name("logicalUnit")
    1329                      .dwattr $C$DW$144, DW_AT_TI_symbol_name("_logicalUnit")
    1330                      .dwattr $C$DW$144, DW_AT_type(*$C$DW$T$25)
    1331                      .dwattr $C$DW$144, DW_AT_location[DW_OP_reg12]
    1332              ;*******************************************************************************
    1333              ;* FUNCTION NAME: MSC_HandleModeSense10                                        *
    1334              ;*                                                                             *
    1335              ;*   Function Uses Regs : AC0,AC0,AC1,AC1,T0,T1,AR0,XAR0,AR1,XAR1,AR2,AR3,XAR3,*
    1336              ;*                        SP,CARRY,TC1,M40,SATA,SATD,RDM,FRCT,SMUL             *
    1337              ;*   Stack Frame        : Compact (No Frame Pointer, w/ debug)                 *
    1338              ;*   Total Frame Size   : 10 words                                             *
    1339              ;*                        (2 return address/alignment)                         *
    1340              ;*                        (8 local values)                                     *
    1341              ;*   Min System Stack   : 1 word                                               *
    1342              ;*******************************************************************************
    1343 00038c       _MSC_HandleModeSense10:
    1344                      .dwcfi  cfa_offset, 1
    1345                      .dwcfi  save_reg_to_mem, 91, -1
    1346 00038c 4EF7          AADD #-9, SP
    1347                      .dwcfi  cfa_offset, 10
    1348              $C$DW$145       .dwtag  DW_TAG_variable, DW_AT_name("pMscHandle")
    1349                      .dwattr $C$DW$145, DW_AT_TI_symbol_name("_pMscHandle")
    1350                      .dwattr $C$DW$145, DW_AT_type(*$C$DW$T$107)
    1351                      .dwattr $C$DW$145, DW_AT_location[DW_OP_bregx 0x24 0]
    1352              $C$DW$146       .dwtag  DW_TAG_variable, DW_AT_name("hUsbInEp")
    1353                      .dwattr $C$DW$146, DW_AT_TI_symbol_name("_hUsbInEp")
    1354                      .dwattr $C$DW$146, DW_AT_type(*$C$DW$T$27)
    1355                      .dwattr $C$DW$146, DW_AT_location[DW_OP_bregx 0x24 2]
    1356              $C$DW$147       .dwtag  DW_TAG_variable, DW_AT_name("logicalUnit")
    1357                      .dwattr $C$DW$147, DW_AT_TI_symbol_name("_logicalUnit")
    1358                      .dwattr $C$DW$147, DW_AT_type(*$C$DW$T$25)
    1359                      .dwattr $C$DW$147, DW_AT_location[DW_OP_bregx 0x24 4]
    1360              $C$DW$148       .dwtag  DW_TAG_variable, DW_AT_name("status")
    1361                      .dwattr $C$DW$148, DW_AT_TI_symbol_name("_status")
TMS320C55x Assembler PC v4.4.1 Tue Oct 02 02:33:20 2018

Tools Copyright (c) 1996-2012 Texas Instruments Incorporated
csl_msc.asm                                                          PAGE   30

    1362                      .dwattr $C$DW$148, DW_AT_type(*$C$DW$T$89)
    1363                      .dwattr $C$DW$148, DW_AT_location[DW_OP_bregx 0x24 5]
    1364              $C$DW$149       .dwtag  DW_TAG_variable, DW_AT_name("modeSenseLen")
    1365                      .dwattr $C$DW$149, DW_AT_TI_symbol_name("_modeSenseLen")
    1366                      .dwattr $C$DW$149, DW_AT_type(*$C$DW$T$25)
    1367                      .dwattr $C$DW$149, DW_AT_location[DW_OP_bregx 0x24 6]
    1368              $C$DW$150       .dwtag  DW_TAG_variable, DW_AT_name("smallerLen")
    1369                      .dwattr $C$DW$150, DW_AT_TI_symbol_name("_smallerLen")
    1370                      .dwattr $C$DW$150, DW_AT_type(*$C$DW$T$25)
    1371                      .dwattr $C$DW$150, DW_AT_location[DW_OP_bregx 0x24 7]
    1372 00038e C408          MOV T0, *SP(#4) ; |676| 
    1373 000390 EB04          MOV XAR1, dbl(*SP(#2))
         000392 95   
    1374 000393 EB00          MOV XAR0, dbl(*SP(#0))
         000395 85   
    1375                      .dwpsn  file "F:/eZdsp-DBG-sim/tmp1/c55x-sim2/foo/c5535_bsl_revc/ezdsp5535_v1/c55xx_csl/inc/csl_mscAu
    1376 000396 ED00          MOV dbl(*SP(#0)), XAR3
         000398 BF   
    1377 000399 A96D          MOV *AR3(#303), AR1 ; |682| 
         00039b 012F 
    1378              
    1379 0003a1 1980          AND #0x0080, AR1, AR1 ; |682| 
         0003a3 99   
    1380 00039d 7600  ||      MOV #128, AR2 ; |682| 
         00039f 80A8 
    1381              
    1382 0003a4 1290          CMPU AR1 == AR2, TC1 ; |682| 
         0003a6 A4   
    1383 0003a7 0464          BCC $C$L16,TC1 ; |682| 
         0003a9 4D   
    1384                                                      ; branchcc occurs ; |682| 
    1385 0003aa ED6D          MOV dbl(*AR3(#16)), AC0 ; |682| 
         0003ac 0800 
         0003ae 10   
    1386 0003af 0400          BCC $C$L16,AC0 == #0 ; |682| 
         0003b1 45   
    1387                                                      ; branchcc occurs ; |682| 
    1388                      .dwpsn  file "F:/eZdsp-DBG-sim/tmp1/c55x-sim2/foo/c5535_bsl_revc/ezdsp5535_v1/c55xx_csl/inc/csl_mscAu
    1389 0003b2 E66D          MOV #2, *AR3(#289) ; |686| 
         0003b4 0201 
         0003b6 21   
    1390                      .dwpsn  file "F:/eZdsp-DBG-sim/tmp1/c55x-sim2/foo/c5535_bsl_revc/ezdsp5535_v1/c55xx_csl/inc/csl_mscAu
    1391 0003b7 ED00          MOV dbl(*SP(#0)), XAR3
         0003b9 BF   
    1392 0003ba E66D          MOV #2, *AR3(#355) ; |689| 
         0003bc 0201 
         0003be 63   
    1393                      .dwpsn  file "F:/eZdsp-DBG-sim/tmp1/c55x-sim2/foo/c5535_bsl_revc/ezdsp5535_v1/c55xx_csl/inc/csl_mscAu
    1394 0003bf ED00          MOV dbl(*SP(#0)), XAR0
         0003c1 8F   
    1395 0003c2 B40F          AMAR *+AR0(#314) ; |690| 
         0003c4 013A 
    1396              $C$DW$151       .dwtag  DW_TAG_TI_branch
    1397                      .dwattr $C$DW$151, DW_AT_low_pc(0x00)
    1398                      .dwattr $C$DW$151, DW_AT_name("_USB_stallEndpt")
TMS320C55x Assembler PC v4.4.1 Tue Oct 02 02:33:20 2018

Tools Copyright (c) 1996-2012 Texas Instruments Incorporated
csl_msc.asm                                                          PAGE   31

    1399                      .dwattr $C$DW$151, DW_AT_TI_call
    1400 0003c6 6C00          CALL #_USB_stallEndpt ; |690| 
         0003c8 0000!
    1401                                                      ; call occurs [#_USB_stallEndpt] ; |690| 
    1402 0003ca C40A          MOV T0, *SP(#5) ; |690| 
    1403                      .dwpsn  file "F:/eZdsp-DBG-sim/tmp1/c55x-sim2/foo/c5535_bsl_revc/ezdsp5535_v1/c55xx_csl/inc/csl_mscAu
    1404 0003cc ED00          MOV dbl(*SP(#0)), XAR0
         0003ce 8F   
    1405 0003cf B40F          AMAR *+AR0(#334) ; |691| 
         0003d1 014E 
    1406              $C$DW$152       .dwtag  DW_TAG_TI_branch
    1407                      .dwattr $C$DW$152, DW_AT_low_pc(0x00)
    1408                      .dwattr $C$DW$152, DW_AT_name("_USB_stallEndpt")
    1409                      .dwattr $C$DW$152, DW_AT_TI_call
    1410 0003d3 6C00          CALL #_USB_stallEndpt ; |691| 
         0003d5 0000!
    1411                                                      ; call occurs [#_USB_stallEndpt] ; |691| 
    1412 0003d7 C40A          MOV T0, *SP(#5) ; |691| 
    1413                      .dwpsn  file "F:/eZdsp-DBG-sim/tmp1/c55x-sim2/foo/c5535_bsl_revc/ezdsp5535_v1/c55xx_csl/inc/csl_mscAu
    1414 0003d9 ED00          MOV dbl(*SP(#0)), XAR0
         0003db 8F   
    1415 0003dc ED00          MOV dbl(*SP(#0)), XAR3
         0003de BF   
    1416 0003df 7600          MOV #32, T1 ; |694| 
         0003e1 2058 
    1417 0003e3 B40F          AMAR *+AR0(#314) ; |694| 
         0003e5 013A 
    1418 0003e7 ED6D          MOV dbl(*AR3(#14)), XAR1
         0003e9 9F00 
         0003eb 0E   
    1419              $C$DW$153       .dwtag  DW_TAG_TI_branch
    1420                      .dwattr $C$DW$153, DW_AT_low_pc(0x00)
    1421                      .dwattr $C$DW$153, DW_AT_name("_USB_postTransaction")
    1422                      .dwattr $C$DW$153, DW_AT_TI_call
    1423              
    1424 0003ec 6C00          CALL #_USB_postTransaction ; |694| 
         0003ee 0000!
    1425 0003f0 3D04  ||      MOV #0, T0
    1426              
    1427                                                      ; call occurs [#_USB_postTransaction] ; |694| 
    1428 0003f2 C40A          MOV T0, *SP(#5) ; |694| 
    1429                      .dwpsn  file "F:/eZdsp-DBG-sim/tmp1/c55x-sim2/foo/c5535_bsl_revc/ezdsp5535_v1/c55xx_csl/inc/csl_mscAu
    1430 0003f4 0600          B $C$L21  ; |698| 
         0003f6 89   
    1431                                                      ; branch occurs ; |698| 
    1432 0003f7       $C$L16:    
    1433                      .dwpsn  file "F:/eZdsp-DBG-sim/tmp1/c55x-sim2/foo/c5535_bsl_revc/ezdsp5535_v1/c55xx_csl/inc/csl_mscAu
    1434 0003f7 ED6D          MOV dbl(*AR3(#16)), AC0 ; |701| 
         0003f9 0800 
         0003fb 10   
    1435 0003fc 0400          BCC $C$L19,AC0 == #0 ; |701| 
         0003fe 77   
    1436                                                      ; branchcc occurs ; |701| 
    1437                      .dwpsn  file "F:/eZdsp-DBG-sim/tmp1/c55x-sim2/foo/c5535_bsl_revc/ezdsp5535_v1/c55xx_csl/inc/csl_mscAu
    1438 0003ff A96D          MOV *AR3(#356), AR1 ; |703| 
TMS320C55x Assembler PC v4.4.1 Tue Oct 02 02:33:20 2018

Tools Copyright (c) 1996-2012 Texas Instruments Incorporated
csl_msc.asm                                                          PAGE   32

         000401 0164 
    1439 000403 C90C          MOV AR1, *SP(#6) ; |703| 
    1440                      .dwpsn  file "F:/eZdsp-DBG-sim/tmp1/c55x-sim2/foo/c5535_bsl_revc/ezdsp5535_v1/c55xx_csl/inc/csl_mscAu
    1441 000405 ED00          MOV dbl(*SP(#0)), XAR3
         000407 BF   
    1442 000408 DF0C          MOV uns(*SP(#6)), AC1 ; |706| 
         00040a 15   
    1443 00040b ED6D          MOV dbl(*AR3(#16)), AC0 ; |706| 
         00040d 0800 
         00040f 10   
    1444 000410 1218          CMPU AC1 >= AC0, TC1 ; |706| 
         000412 04   
    1445 000413 6264          BCC $C$L17,TC1 ; |706| 
    1446                                                      ; branchcc occurs ; |706| 
    1447                      .dwpsn  file "F:/eZdsp-DBG-sim/tmp1/c55x-sim2/foo/c5535_bsl_revc/ezdsp5535_v1/c55xx_csl/inc/csl_mscAu
    1448 000415 C90E          MOV AR1, *SP(#7) ; |708| 
    1449                      .dwpsn  file "F:/eZdsp-DBG-sim/tmp1/c55x-sim2/foo/c5535_bsl_revc/ezdsp5535_v1/c55xx_csl/inc/csl_mscAu
    1450 000417 4A0B          B $C$L18  ; |709| 
    1451                                                      ; branch occurs ; |709| 
    1452 000419       $C$L17:    
    1453                      .dwpsn  file "F:/eZdsp-DBG-sim/tmp1/c55x-sim2/foo/c5535_bsl_revc/ezdsp5535_v1/c55xx_csl/inc/csl_mscAu
    1454 000419 ED6D          MOV dbl(*AR3(#16)), AC0 ; |712| 
         00041b 0800 
         00041d 10   
    1455 00041e 7DFF          AND #0xffff, AC0, AC0 ; |712| 
         000420 FF00 
    1456 000422 C00E          MOV AC0, *SP(#7) ; |712| 
    1457 000424       $C$L18:    
    1458                      .dwpsn  file "F:/eZdsp-DBG-sim/tmp1/c55x-sim2/foo/c5535_bsl_revc/ezdsp5535_v1/c55xx_csl/inc/csl_mscAu
    1459 000424 ED00          MOV dbl(*SP(#0)), XAR3
         000426 BF   
    1460 000427 DF0E          MOV uns(*SP(#7)), AC0 ; |717| 
         000429 05   
    1461 00042a ED6D          SUB AC0, dbl(*AR3(#16)), AC0 ; |717| 
         00042c 0400 
         00042e 10   
    1462 00042f EB6D          MOV AC0, dbl(*AR3(#16)) ; |717| 
         000431 0800 
         000433 10   
    1463                      .dwpsn  file "F:/eZdsp-DBG-sim/tmp1/c55x-sim2/foo/c5535_bsl_revc/ezdsp5535_v1/c55xx_csl/inc/csl_mscAu
    1464 000434 ED00          MOV dbl(*SP(#0)), XAR3
         000436 BF   
    1465 000437 ED6D          MOV dbl(*AR3(#16)), AC0 ; |718| 
         000439 0800 
         00043b 10   
    1466 00043c 7DFF          AND #0xffff, AC0, AC0 ; |718| 
         00043e FF00 
    1467 000440 C06D          MOV AC0, *AR3(#287) ; |718| 
         000442 011F 
    1468                      .dwpsn  file "F:/eZdsp-DBG-sim/tmp1/c55x-sim2/foo/c5535_bsl_revc/ezdsp5535_v1/c55xx_csl/inc/csl_mscAu
    1469 000444 ED00          MOV dbl(*SP(#0)), XAR3
         000446 BF   
    1470 000447 ED6D          MOV dbl(*AR3(#16)), AC0 ; |720| 
         000449 0800 
         00044b 10   
TMS320C55x Assembler PC v4.4.1 Tue Oct 02 02:33:20 2018

Tools Copyright (c) 1996-2012 Texas Instruments Incorporated
csl_msc.asm                                                          PAGE   33

    1471 00044c BC6D          MOV HI(AC0), *AR3(#288) ; |720| 
         00044e 0120 
    1472                      .dwpsn  file "F:/eZdsp-DBG-sim/tmp1/c55x-sim2/foo/c5535_bsl_revc/ezdsp5535_v1/c55xx_csl/inc/csl_mscAu
    1473 000450 ED00          MOV dbl(*SP(#0)), XAR3
         000452 BF   
    1474 000453 E66D          MOV #0, *AR3(#289) ; |722| 
         000455 0001 
         000457 21   
    1475                      .dwpsn  file "F:/eZdsp-DBG-sim/tmp1/c55x-sim2/foo/c5535_bsl_revc/ezdsp5535_v1/c55xx_csl/inc/csl_mscAu
    1476 000458 ED00          MOV dbl(*SP(#0)), XAR1
         00045a 9F   
    1477 00045b ED04          MOV dbl(*SP(#2)), XAR0
         00045d 8F   
    1478 00045e A40E          MOV *SP(#7), T0 ; |723| 
    1479 000460 B42F          AMAR *+AR1(#357) ; |723| 
         000462 0165 
    1480              $C$DW$154       .dwtag  DW_TAG_TI_branch
    1481                      .dwattr $C$DW$154, DW_AT_low_pc(0x00)
    1482                      .dwattr $C$DW$154, DW_AT_name("_USB_postTransaction")
    1483                      .dwattr $C$DW$154, DW_AT_TI_call
    1484              
    1485 000464 6C00          CALL #_USB_postTransaction ; |723| 
         000466 0000!
    1486 000468 3D15  ||      MOV #1, T1
    1487              
    1488                                                      ; call occurs [#_USB_postTransaction] ; |723| 
    1489 00046a C40A          MOV T0, *SP(#5) ; |723| 
    1490                      .dwpsn  file "F:/eZdsp-DBG-sim/tmp1/c55x-sim2/foo/c5535_bsl_revc/ezdsp5535_v1/c55xx_csl/inc/csl_mscAu
    1491 00046c ED00          MOV dbl(*SP(#0)), XAR3
         00046e BF   
    1492 00046f E66D          MOV #3, *AR3(#355) ; |727| 
         000471 0301 
         000473 63   
    1493                      .dwpsn  file "F:/eZdsp-DBG-sim/tmp1/c55x-sim2/foo/c5535_bsl_revc/ezdsp5535_v1/c55xx_csl/inc/csl_mscAu
    1494 000474 4A08          B $C$L20  ; |728| 
    1495                                                      ; branch occurs ; |728| 
    1496 000476       $C$L19:    
    1497                      .dwpsn  file "F:/eZdsp-DBG-sim/tmp1/c55x-sim2/foo/c5535_bsl_revc/ezdsp5535_v1/c55xx_csl/inc/csl_mscAu
    1498 000476 ED04          MOV dbl(*SP(#2)), XAR1
         000478 9F   
    1499              $C$DW$155       .dwtag  DW_TAG_TI_branch
    1500                      .dwattr $C$DW$155, DW_AT_low_pc(0x00)
    1501                      .dwattr $C$DW$155, DW_AT_name("_MSC_sendCswWithPhaseError")
    1502                      .dwattr $C$DW$155, DW_AT_TI_call
    1503 000479 0828          CALL #_MSC_sendCswWithPhaseError ; |731| 
         00047b 3C   
    1504                                                      ; call occurs [#_MSC_sendCswWithPhaseError] ; |731| 
    1505 00047c C40A          MOV T0, *SP(#5) ; |731| 
    1506 00047e       $C$L20:    
    1507                      .dwpsn  file "F:/eZdsp-DBG-sim/tmp1/c55x-sim2/foo/c5535_bsl_revc/ezdsp5535_v1/c55xx_csl/inc/csl_mscAu
    1508 00047e A40A          MOV *SP(#5), T0 ; |734| 
    1509 000480       $C$L21:    
    1510                      .dwpsn  file "F:/eZdsp-DBG-sim/tmp1/c55x-sim2/foo/c5535_bsl_revc/ezdsp5535_v1/c55xx_csl/inc/csl_mscAu
    1511 000480 4E09          AADD #9, SP
    1512                      .dwcfi  cfa_offset, 1
TMS320C55x Assembler PC v4.4.1 Tue Oct 02 02:33:20 2018

Tools Copyright (c) 1996-2012 Texas Instruments Incorporated
csl_msc.asm                                                          PAGE   34

    1513              $C$DW$156       .dwtag  DW_TAG_TI_branch
    1514                      .dwattr $C$DW$156, DW_AT_low_pc(0x00)
    1515                      .dwattr $C$DW$156, DW_AT_TI_return
    1516 000482 4804          RET
    1517                                                      ; return occurs
    1518                      .dwattr $C$DW$141, DW_AT_TI_end_file("F:/eZdsp-DBG-sim/tmp1/c55x-sim2/foo/c5535_bsl_revc/ezdsp5535_v1
    1519                      .dwattr $C$DW$141, DW_AT_TI_end_line(0x2df)
    1520                      .dwattr $C$DW$141, DW_AT_TI_end_column(0x01)
    1521                      .dwendentry
    1522                      .dwendtag $C$DW$141
    1523              
    1524 000484               .sect   ".text"
    1525                      .align 4
    1526              
    1527              $C$DW$157       .dwtag  DW_TAG_subprogram, DW_AT_name("MSC_HandleInquiry")
    1528                      .dwattr $C$DW$157, DW_AT_low_pc(_MSC_HandleInquiry)
    1529                      .dwattr $C$DW$157, DW_AT_high_pc(0x00)
    1530                      .dwattr $C$DW$157, DW_AT_TI_symbol_name("_MSC_HandleInquiry")
    1531                      .dwattr $C$DW$157, DW_AT_type(*$C$DW$T$89)
    1532                      .dwattr $C$DW$157, DW_AT_TI_begin_file("F:/eZdsp-DBG-sim/tmp1/c55x-sim2/foo/c5535_bsl_revc/ezdsp5535_
    1533                      .dwattr $C$DW$157, DW_AT_TI_begin_line(0x30f)
    1534                      .dwattr $C$DW$157, DW_AT_TI_begin_column(0x0c)
    1535                      .dwattr $C$DW$157, DW_AT_TI_max_frame_size(0x0a)
    1536                      .dwpsn  file "F:/eZdsp-DBG-sim/tmp1/c55x-sim2/foo/c5535_bsl_revc/ezdsp5535_v1/c55xx_csl/inc/csl_mscAu
    1537              
    1538                      .dwfde $C$DW$CIE, _MSC_HandleInquiry
    1539              $C$DW$158       .dwtag  DW_TAG_formal_parameter, DW_AT_name("pMscHandle")
    1540                      .dwattr $C$DW$158, DW_AT_TI_symbol_name("_pMscHandle")
    1541                      .dwattr $C$DW$158, DW_AT_type(*$C$DW$T$107)
    1542                      .dwattr $C$DW$158, DW_AT_location[DW_OP_reg17]
    1543              $C$DW$159       .dwtag  DW_TAG_formal_parameter, DW_AT_name("hUsbInEp")
    1544                      .dwattr $C$DW$159, DW_AT_TI_symbol_name("_hUsbInEp")
    1545                      .dwattr $C$DW$159, DW_AT_type(*$C$DW$T$27)
    1546                      .dwattr $C$DW$159, DW_AT_location[DW_OP_reg19]
    1547              $C$DW$160       .dwtag  DW_TAG_formal_parameter, DW_AT_name("logicalUnit")
    1548                      .dwattr $C$DW$160, DW_AT_TI_symbol_name("_logicalUnit")
    1549                      .dwattr $C$DW$160, DW_AT_type(*$C$DW$T$25)
    1550                      .dwattr $C$DW$160, DW_AT_location[DW_OP_reg12]
    1551              ;*******************************************************************************
    1552              ;* FUNCTION NAME: MSC_HandleInquiry                                            *
    1553              ;*                                                                             *
    1554              ;*   Function Uses Regs : AC0,AC0,AC1,AC1,T0,T1,AR0,XAR0,AR1,XAR1,AR2,XAR2,AR3,*
    1555              ;*                        XAR3,SP,CARRY,TC1,M40,SATA,SATD,RDM,FRCT,SMUL        *
    1556              ;*   Stack Frame        : Compact (No Frame Pointer, w/ debug)                 *
    1557              ;*   Total Frame Size   : 10 words                                             *
    1558              ;*                        (2 return address/alignment)                         *
    1559              ;*                        (8 local values)                                     *
    1560              ;*   Min System Stack   : 1 word                                               *
    1561              ;*******************************************************************************
    1562 000484       _MSC_HandleInquiry:
    1563                      .dwcfi  cfa_offset, 1
    1564                      .dwcfi  save_reg_to_mem, 91, -1
    1565 000484 4EF7          AADD #-9, SP
    1566                      .dwcfi  cfa_offset, 10
    1567              $C$DW$161       .dwtag  DW_TAG_variable, DW_AT_name("pMscHandle")
TMS320C55x Assembler PC v4.4.1 Tue Oct 02 02:33:20 2018

Tools Copyright (c) 1996-2012 Texas Instruments Incorporated
csl_msc.asm                                                          PAGE   35

    1568                      .dwattr $C$DW$161, DW_AT_TI_symbol_name("_pMscHandle")
    1569                      .dwattr $C$DW$161, DW_AT_type(*$C$DW$T$107)
    1570                      .dwattr $C$DW$161, DW_AT_location[DW_OP_bregx 0x24 0]
    1571              $C$DW$162       .dwtag  DW_TAG_variable, DW_AT_name("hUsbInEp")
    1572                      .dwattr $C$DW$162, DW_AT_TI_symbol_name("_hUsbInEp")
    1573                      .dwattr $C$DW$162, DW_AT_type(*$C$DW$T$27)
    1574                      .dwattr $C$DW$162, DW_AT_location[DW_OP_bregx 0x24 2]
    1575              $C$DW$163       .dwtag  DW_TAG_variable, DW_AT_name("logicalUnit")
    1576                      .dwattr $C$DW$163, DW_AT_TI_symbol_name("_logicalUnit")
    1577                      .dwattr $C$DW$163, DW_AT_type(*$C$DW$T$25)
    1578                      .dwattr $C$DW$163, DW_AT_location[DW_OP_bregx 0x24 4]
    1579              $C$DW$164       .dwtag  DW_TAG_variable, DW_AT_name("status")
    1580                      .dwattr $C$DW$164, DW_AT_TI_symbol_name("_status")
    1581                      .dwattr $C$DW$164, DW_AT_type(*$C$DW$T$89)
    1582                      .dwattr $C$DW$164, DW_AT_location[DW_OP_bregx 0x24 5]
    1583              $C$DW$165       .dwtag  DW_TAG_variable, DW_AT_name("cbwRespLen")
    1584                      .dwattr $C$DW$165, DW_AT_TI_symbol_name("_cbwRespLen")
    1585                      .dwattr $C$DW$165, DW_AT_type(*$C$DW$T$25)
    1586                      .dwattr $C$DW$165, DW_AT_location[DW_OP_bregx 0x24 6]
    1587              $C$DW$166       .dwtag  DW_TAG_variable, DW_AT_name("smallerLen")
    1588                      .dwattr $C$DW$166, DW_AT_TI_symbol_name("_smallerLen")
    1589                      .dwattr $C$DW$166, DW_AT_type(*$C$DW$T$25)
    1590                      .dwattr $C$DW$166, DW_AT_location[DW_OP_bregx 0x24 7]
    1591 000486 C408          MOV T0, *SP(#4) ; |786| 
    1592 000488 EB04          MOV XAR1, dbl(*SP(#2))
         00048a 95   
    1593 00048b EB00          MOV XAR0, dbl(*SP(#0))
         00048d 85   
    1594                      .dwpsn  file "F:/eZdsp-DBG-sim/tmp1/c55x-sim2/foo/c5535_bsl_revc/ezdsp5535_v1/c55xx_csl/inc/csl_mscAu
    1595 00048e ED00          MOV dbl(*SP(#0)), XAR3
         000490 BF   
    1596 000491 A96D          MOV *AR3(#303), AR1 ; |792| 
         000493 012F 
    1597              
    1598 000499 1980          AND #0x0080, AR1, AR1 ; |792| 
         00049b 99   
    1599 000495 7600  ||      MOV #128, AR2 ; |792| 
         000497 80A8 
    1600              
    1601 00049c 1290          CMPU AR1 == AR2, TC1 ; |792| 
         00049e A4   
    1602 00049f 0464          BCC $C$L22,TC1 ; |792| 
         0004a1 13   
    1603                                                      ; branchcc occurs ; |792| 
    1604 0004a2 ED6D          MOV dbl(*AR3(#16)), AC0 ; |792| 
         0004a4 0800 
         0004a6 10   
    1605 0004a7 6600          BCC $C$L22,AC0 == #0 ; |792| 
    1606                                                      ; branchcc occurs ; |792| 
    1607                      .dwpsn  file "F:/eZdsp-DBG-sim/tmp1/c55x-sim2/foo/c5535_bsl_revc/ezdsp5535_v1/c55xx_csl/inc/csl_mscAu
    1608 0004a9 7600          MOV #128, T0 ; |796| 
         0004ab 8048 
    1609              $C$DW$167       .dwtag  DW_TAG_TI_branch
    1610                      .dwattr $C$DW$167, DW_AT_low_pc(0x00)
    1611                      .dwattr $C$DW$167, DW_AT_name("_MSC_handleDataDirMisMatch")
TMS320C55x Assembler PC v4.4.1 Tue Oct 02 02:33:20 2018

Tools Copyright (c) 1996-2012 Texas Instruments Incorporated
csl_msc.asm                                                          PAGE   36

    1612                      .dwattr $C$DW$167, DW_AT_TI_call
    1613 0004ad 0828          CALL #_MSC_handleDataDirMisMatch ; |796| 
         0004af 70   
    1614                                                      ; call occurs [#_MSC_handleDataDirMisMatch] ; |796| 
    1615 0004b0 C40A          MOV T0, *SP(#5) ; |796| 
    1616                      .dwpsn  file "F:/eZdsp-DBG-sim/tmp1/c55x-sim2/foo/c5535_bsl_revc/ezdsp5535_v1/c55xx_csl/inc/csl_mscAu
    1617 0004b2 0600          B $C$L27  ; |798| 
         0004b4 AB   
    1618                                                      ; branch occurs ; |798| 
    1619 0004b5       $C$L22:    
    1620                      .dwpsn  file "F:/eZdsp-DBG-sim/tmp1/c55x-sim2/foo/c5535_bsl_revc/ezdsp5535_v1/c55xx_csl/inc/csl_mscAu
    1621 0004b5 ED6D          MOV dbl(*AR3(#16)), AC0 ; |801| 
         0004b7 0800 
         0004b9 10   
    1622 0004ba 6D00          BCC $C$L25,AC0 == #0 ; |801| 
         0004bc 009A 
    1623                                                      ; branchcc occurs ; |801| 
    1624                      .dwpsn  file "F:/eZdsp-DBG-sim/tmp1/c55x-sim2/foo/c5535_bsl_revc/ezdsp5535_v1/c55xx_csl/inc/csl_mscAu
    1625 0004be DF08          MOV uns(*SP(#4)), AC1 ; |803| 
         0004c0 15   
    1626 0004c1 1015          SFTS AC1, #6, AC0 ; |803| 
         0004c3 06   
    1627 0004c4 1014          SUB AC1 << #1, AC0 ; |803| 
         0004c6 01   
    1628 0004c7 900A          MOV AC0, XAR2
    1629 0004c9 14A1          AADD XAR2, XAR3 ; |803| 
         0004cb B0   
    1630 0004cc A96D          MOV *AR3(#18), AR1 ; |803| 
         0004ce 0012 
    1631 0004d0 C90C          MOV AR1, *SP(#6) ; |803| 
    1632                      .dwpsn  file "F:/eZdsp-DBG-sim/tmp1/c55x-sim2/foo/c5535_bsl_revc/ezdsp5535_v1/c55xx_csl/inc/csl_mscAu
    1633 0004d2 ED00          MOV dbl(*SP(#0)), XAR3
         0004d4 BF   
    1634 0004d5 DF0C          MOV uns(*SP(#6)), AC1 ; |805| 
         0004d7 15   
    1635 0004d8 ED6D          MOV dbl(*AR3(#16)), AC0 ; |805| 
         0004da 0800 
         0004dc 10   
    1636 0004dd 1218          CMPU AC1 >= AC0, TC1 ; |805| 
         0004df 04   
    1637 0004e0 6664          BCC $C$L23,TC1 ; |805| 
    1638                                                      ; branchcc occurs ; |805| 
    1639                      .dwpsn  file "F:/eZdsp-DBG-sim/tmp1/c55x-sim2/foo/c5535_bsl_revc/ezdsp5535_v1/c55xx_csl/inc/csl_mscAu
    1640 0004e2 C90E          MOV AR1, *SP(#7) ; |807| 
    1641                      .dwpsn  file "F:/eZdsp-DBG-sim/tmp1/c55x-sim2/foo/c5535_bsl_revc/ezdsp5535_v1/c55xx_csl/inc/csl_mscAu
    1642 0004e4 ED00          MOV dbl(*SP(#0)), XAR3
         0004e6 BF   
    1643 0004e7 E66D          MOV #7, *AR3(#355) ; |808| 
         0004e9 0701 
         0004eb 63   
    1644                      .dwpsn  file "F:/eZdsp-DBG-sim/tmp1/c55x-sim2/foo/c5535_bsl_revc/ezdsp5535_v1/c55xx_csl/inc/csl_mscAu
    1645 0004ec 4A13          B $C$L24  ; |809| 
    1646                                                      ; branch occurs ; |809| 
    1647 0004ee       $C$L23:    
    1648                      .dwpsn  file "F:/eZdsp-DBG-sim/tmp1/c55x-sim2/foo/c5535_bsl_revc/ezdsp5535_v1/c55xx_csl/inc/csl_mscAu
TMS320C55x Assembler PC v4.4.1 Tue Oct 02 02:33:20 2018

Tools Copyright (c) 1996-2012 Texas Instruments Incorporated
csl_msc.asm                                                          PAGE   37

    1649 0004ee ED6D          MOV dbl(*AR3(#16)), AC0 ; |812| 
         0004f0 0800 
         0004f2 10   
    1650 0004f3 7DFF          AND #0xffff, AC0, AC0 ; |812| 
         0004f5 FF00 
    1651 0004f7 C00E          MOV AC0, *SP(#7) ; |812| 
    1652                      .dwpsn  file "F:/eZdsp-DBG-sim/tmp1/c55x-sim2/foo/c5535_bsl_revc/ezdsp5535_v1/c55xx_csl/inc/csl_mscAu
    1653 0004f9 ED00          MOV dbl(*SP(#0)), XAR3
         0004fb BF   
    1654 0004fc E66D          MOV #3, *AR3(#355) ; |814| 
         0004fe 0301 
         000500 63   
    1655 000501       $C$L24:    
    1656                      .dwpsn  file "F:/eZdsp-DBG-sim/tmp1/c55x-sim2/foo/c5535_bsl_revc/ezdsp5535_v1/c55xx_csl/inc/csl_mscAu
    1657 000501 ED00          MOV dbl(*SP(#0)), XAR3
         000503 BF   
    1658 000504 DF0E          MOV uns(*SP(#7)), AC0 ; |818| 
         000506 05   
    1659 000507 ED6D          SUB AC0, dbl(*AR3(#16)), AC0 ; |818| 
         000509 0400 
         00050b 10   
    1660 00050c EB6D          MOV AC0, dbl(*AR3(#16)) ; |818| 
         00050e 0800 
         000510 10   
    1661                      .dwpsn  file "F:/eZdsp-DBG-sim/tmp1/c55x-sim2/foo/c5535_bsl_revc/ezdsp5535_v1/c55xx_csl/inc/csl_mscAu
    1662 000511 ED00          MOV dbl(*SP(#0)), XAR3
         000513 BF   
    1663 000514 ED6D          MOV dbl(*AR3(#16)), AC0 ; |819| 
         000516 0800 
         000518 10   
    1664 000519 7DFF          AND #0xffff, AC0, AC0 ; |819| 
         00051b FF00 
    1665 00051d C06D          MOV AC0, *AR3(#287) ; |819| 
         00051f 011F 
    1666                      .dwpsn  file "F:/eZdsp-DBG-sim/tmp1/c55x-sim2/foo/c5535_bsl_revc/ezdsp5535_v1/c55xx_csl/inc/csl_mscAu
    1667 000521 ED00          MOV dbl(*SP(#0)), XAR3
         000523 BF   
    1668 000524 ED6D          MOV dbl(*AR3(#16)), AC0 ; |821| 
         000526 0800 
         000528 10   
    1669 000529 BC6D          MOV HI(AC0), *AR3(#288) ; |821| 
         00052b 0120 
    1670                      .dwpsn  file "F:/eZdsp-DBG-sim/tmp1/c55x-sim2/foo/c5535_bsl_revc/ezdsp5535_v1/c55xx_csl/inc/csl_mscAu
    1671 00052d ED00          MOV dbl(*SP(#0)), XAR3
         00052f BF   
    1672 000530 E66D          MOV #0, *AR3(#289) ; |823| 
         000532 0001 
         000534 21   
    1673                      .dwpsn  file "F:/eZdsp-DBG-sim/tmp1/c55x-sim2/foo/c5535_bsl_revc/ezdsp5535_v1/c55xx_csl/inc/csl_mscAu
    1674 000535 DF08          MOV uns(*SP(#4)), AC1 ; |825| 
         000537 15   
    1675 000538 ED00          MOV dbl(*SP(#0)), XAR1
         00053a 9F   
    1676 00053b 1015          SFTS AC1, #6, AC0 ; |825| 
         00053d 06   
TMS320C55x Assembler PC v4.4.1 Tue Oct 02 02:33:20 2018

Tools Copyright (c) 1996-2012 Texas Instruments Incorporated
csl_msc.asm                                                          PAGE   38

    1677 00053e 1014          SUB AC1 << #1, AC0 ; |825| 
         000540 01   
    1678 000541 900B          MOV AC0, XAR3
    1679 000543 ED04          MOV dbl(*SP(#2)), XAR0
         000545 8F   
    1680 000546 14B1          AADD XAR3, XAR1 ; |825| 
         000548 90   
    1681              
    1682                      AADD #19, AR1 ; |825| 
    1683 000549 8A0E  ||      MOV *SP(#7), T0 ; |825| 
         00054b 941C 
         00054d 13   
    1684              
    1685              $C$DW$168       .dwtag  DW_TAG_TI_branch
    1686                      .dwattr $C$DW$168, DW_AT_low_pc(0x00)
    1687                      .dwattr $C$DW$168, DW_AT_name("_USB_postTransaction")
    1688                      .dwattr $C$DW$168, DW_AT_TI_call
    1689              
    1690 00054e 6C00          CALL #_USB_postTransaction ; |825| 
         000550 0000!
    1691 000552 3D15  ||      MOV #1, T1
    1692              
    1693                                                      ; call occurs [#_USB_postTransaction] ; |825| 
    1694 000554 C40A          MOV T0, *SP(#5) ; |825| 
    1695                      .dwpsn  file "F:/eZdsp-DBG-sim/tmp1/c55x-sim2/foo/c5535_bsl_revc/ezdsp5535_v1/c55xx_csl/inc/csl_mscAu
    1696 000556 4A08          B $C$L26  ; |828| 
    1697                                                      ; branch occurs ; |828| 
    1698 000558       $C$L25:    
    1699                      .dwpsn  file "F:/eZdsp-DBG-sim/tmp1/c55x-sim2/foo/c5535_bsl_revc/ezdsp5535_v1/c55xx_csl/inc/csl_mscAu
    1700 000558 ED04          MOV dbl(*SP(#2)), XAR1
         00055a 9F   
    1701              $C$DW$169       .dwtag  DW_TAG_TI_branch
    1702                      .dwattr $C$DW$169, DW_AT_low_pc(0x00)
    1703                      .dwattr $C$DW$169, DW_AT_name("_MSC_sendCswWithPhaseError")
    1704                      .dwattr $C$DW$169, DW_AT_TI_call
    1705 00055b 0827          CALL #_MSC_sendCswWithPhaseError ; |831| 
         00055d 5A   
    1706                                                      ; call occurs [#_MSC_sendCswWithPhaseError] ; |831| 
    1707 00055e C40A          MOV T0, *SP(#5) ; |831| 
    1708 000560       $C$L26:    
    1709                      .dwpsn  file "F:/eZdsp-DBG-sim/tmp1/c55x-sim2/foo/c5535_bsl_revc/ezdsp5535_v1/c55xx_csl/inc/csl_mscAu
    1710 000560       $C$L27:    
    1711                      .dwpsn  file "F:/eZdsp-DBG-sim/tmp1/c55x-sim2/foo/c5535_bsl_revc/ezdsp5535_v1/c55xx_csl/inc/csl_mscAu
    1712 000560 4E09          AADD #9, SP
    1713                      .dwcfi  cfa_offset, 1
    1714              $C$DW$170       .dwtag  DW_TAG_TI_branch
    1715                      .dwattr $C$DW$170, DW_AT_low_pc(0x00)
    1716                      .dwattr $C$DW$170, DW_AT_TI_return
    1717 000562 4804          RET
    1718                                                      ; return occurs
    1719                      .dwattr $C$DW$157, DW_AT_TI_end_file("F:/eZdsp-DBG-sim/tmp1/c55x-sim2/foo/c5535_bsl_revc/ezdsp5535_v1
    1720                      .dwattr $C$DW$157, DW_AT_TI_end_line(0x343)
    1721                      .dwattr $C$DW$157, DW_AT_TI_end_column(0x01)
    1722                      .dwendentry
    1723                      .dwendtag $C$DW$157
TMS320C55x Assembler PC v4.4.1 Tue Oct 02 02:33:20 2018

Tools Copyright (c) 1996-2012 Texas Instruments Incorporated
csl_msc.asm                                                          PAGE   39

    1724              
    1725 000564               .sect   ".text"
    1726                      .align 4
    1727              
    1728              $C$DW$171       .dwtag  DW_TAG_subprogram, DW_AT_name("MSC_HandleRequestSense")
    1729                      .dwattr $C$DW$171, DW_AT_low_pc(_MSC_HandleRequestSense)
    1730                      .dwattr $C$DW$171, DW_AT_high_pc(0x00)
    1731                      .dwattr $C$DW$171, DW_AT_TI_symbol_name("_MSC_HandleRequestSense")
    1732                      .dwattr $C$DW$171, DW_AT_type(*$C$DW$T$89)
    1733                      .dwattr $C$DW$171, DW_AT_TI_begin_file("F:/eZdsp-DBG-sim/tmp1/c55x-sim2/foo/c5535_bsl_revc/ezdsp5535_
    1734                      .dwattr $C$DW$171, DW_AT_TI_begin_line(0x372)
    1735                      .dwattr $C$DW$171, DW_AT_TI_begin_column(0x0c)
    1736                      .dwattr $C$DW$171, DW_AT_TI_max_frame_size(0x08)
    1737                      .dwpsn  file "F:/eZdsp-DBG-sim/tmp1/c55x-sim2/foo/c5535_bsl_revc/ezdsp5535_v1/c55xx_csl/inc/csl_mscAu
    1738              
    1739                      .dwfde $C$DW$CIE, _MSC_HandleRequestSense
    1740              $C$DW$172       .dwtag  DW_TAG_formal_parameter, DW_AT_name("pMscHandle")
    1741                      .dwattr $C$DW$172, DW_AT_TI_symbol_name("_pMscHandle")
    1742                      .dwattr $C$DW$172, DW_AT_type(*$C$DW$T$107)
    1743                      .dwattr $C$DW$172, DW_AT_location[DW_OP_reg17]
    1744              $C$DW$173       .dwtag  DW_TAG_formal_parameter, DW_AT_name("hUsbInEp")
    1745                      .dwattr $C$DW$173, DW_AT_TI_symbol_name("_hUsbInEp")
    1746                      .dwattr $C$DW$173, DW_AT_type(*$C$DW$T$27)
    1747                      .dwattr $C$DW$173, DW_AT_location[DW_OP_reg19]
    1748              ;*******************************************************************************
    1749              ;* FUNCTION NAME: MSC_HandleRequestSense                                       *
    1750              ;*                                                                             *
    1751              ;*   Function Uses Regs : AC0,AC0,AC1,AC1,T0,T1,AR0,XAR0,AR1,XAR1,AR2,AR3,XAR3,*
    1752              ;*                        SP,CARRY,TC1,M40,SATA,SATD,RDM,FRCT,SMUL             *
    1753              ;*   Stack Frame        : Compact (No Frame Pointer, w/ debug)                 *
    1754              ;*   Total Frame Size   : 8 words                                              *
    1755              ;*                        (1 return address/alignment)                         *
    1756              ;*                        (7 local values)                                     *
    1757              ;*   Min System Stack   : 1 word                                               *
    1758              ;*******************************************************************************
    1759 000564       _MSC_HandleRequestSense:
    1760                      .dwcfi  cfa_offset, 1
    1761                      .dwcfi  save_reg_to_mem, 91, -1
    1762 000564 4EF9          AADD #-7, SP
    1763                      .dwcfi  cfa_offset, 8
    1764              $C$DW$174       .dwtag  DW_TAG_variable, DW_AT_name("pMscHandle")
    1765                      .dwattr $C$DW$174, DW_AT_TI_symbol_name("_pMscHandle")
    1766                      .dwattr $C$DW$174, DW_AT_type(*$C$DW$T$107)
    1767                      .dwattr $C$DW$174, DW_AT_location[DW_OP_bregx 0x24 0]
    1768              $C$DW$175       .dwtag  DW_TAG_variable, DW_AT_name("hUsbInEp")
    1769                      .dwattr $C$DW$175, DW_AT_TI_symbol_name("_hUsbInEp")
    1770                      .dwattr $C$DW$175, DW_AT_type(*$C$DW$T$27)
    1771                      .dwattr $C$DW$175, DW_AT_location[DW_OP_bregx 0x24 2]
    1772              $C$DW$176       .dwtag  DW_TAG_variable, DW_AT_name("status")
    1773                      .dwattr $C$DW$176, DW_AT_TI_symbol_name("_status")
    1774                      .dwattr $C$DW$176, DW_AT_type(*$C$DW$T$89)
    1775                      .dwattr $C$DW$176, DW_AT_location[DW_OP_bregx 0x24 4]
    1776              $C$DW$177       .dwtag  DW_TAG_variable, DW_AT_name("cbwRespLen")
    1777                      .dwattr $C$DW$177, DW_AT_TI_symbol_name("_cbwRespLen")
    1778                      .dwattr $C$DW$177, DW_AT_type(*$C$DW$T$25)
TMS320C55x Assembler PC v4.4.1 Tue Oct 02 02:33:20 2018

Tools Copyright (c) 1996-2012 Texas Instruments Incorporated
csl_msc.asm                                                          PAGE   40

    1779                      .dwattr $C$DW$177, DW_AT_location[DW_OP_bregx 0x24 5]
    1780              $C$DW$178       .dwtag  DW_TAG_variable, DW_AT_name("smallerLen")
    1781                      .dwattr $C$DW$178, DW_AT_TI_symbol_name("_smallerLen")
    1782                      .dwattr $C$DW$178, DW_AT_type(*$C$DW$T$25)
    1783                      .dwattr $C$DW$178, DW_AT_location[DW_OP_bregx 0x24 6]
    1784 000566 EB04          MOV XAR1, dbl(*SP(#2))
         000568 95   
    1785 000569 EB00          MOV XAR0, dbl(*SP(#0))
         00056b 85   
    1786                      .dwpsn  file "F:/eZdsp-DBG-sim/tmp1/c55x-sim2/foo/c5535_bsl_revc/ezdsp5535_v1/c55xx_csl/inc/csl_mscAu
    1787 00056c ED00          MOV dbl(*SP(#0)), XAR3
         00056e BF   
    1788 00056f A96D          MOV *AR3(#303), AR1 ; |890| 
         000571 012F 
    1789              
    1790 000577 1980          AND #0x0080, AR1, AR1 ; |890| 
         000579 99   
    1791 000573 7600  ||      MOV #128, AR2 ; |890| 
         000575 80A8 
    1792              
    1793 00057a 1290          CMPU AR1 == AR2, TC1 ; |890| 
         00057c A4   
    1794 00057d 0464          BCC $C$L28,TC1 ; |890| 
         00057f 13   
    1795                                                      ; branchcc occurs ; |890| 
    1796 000580 ED6D          MOV dbl(*AR3(#16)), AC0 ; |890| 
         000582 0800 
         000584 10   
    1797 000585 6600          BCC $C$L28,AC0 == #0 ; |890| 
    1798                                                      ; branchcc occurs ; |890| 
    1799                      .dwpsn  file "F:/eZdsp-DBG-sim/tmp1/c55x-sim2/foo/c5535_bsl_revc/ezdsp5535_v1/c55xx_csl/inc/csl_mscAu
    1800 000587 7600          MOV #128, T0 ; |894| 
         000589 8048 
    1801              $C$DW$179       .dwtag  DW_TAG_TI_branch
    1802                      .dwattr $C$DW$179, DW_AT_low_pc(0x00)
    1803                      .dwattr $C$DW$179, DW_AT_name("_MSC_handleDataDirMisMatch")
    1804                      .dwattr $C$DW$179, DW_AT_TI_call
    1805 00058b 0827          CALL #_MSC_handleDataDirMisMatch ; |894| 
         00058d 92   
    1806                                                      ; call occurs [#_MSC_handleDataDirMisMatch] ; |894| 
    1807 00058e C408          MOV T0, *SP(#4) ; |894| 
    1808                      .dwpsn  file "F:/eZdsp-DBG-sim/tmp1/c55x-sim2/foo/c5535_bsl_revc/ezdsp5535_v1/c55xx_csl/inc/csl_mscAu
    1809 000590 0600          B $C$L33  ; |896| 
         000592 8D   
    1810                                                      ; branch occurs ; |896| 
    1811 000593       $C$L28:    
    1812                      .dwpsn  file "F:/eZdsp-DBG-sim/tmp1/c55x-sim2/foo/c5535_bsl_revc/ezdsp5535_v1/c55xx_csl/inc/csl_mscAu
    1813 000593 ED6D          MOV dbl(*AR3(#16)), AC0 ; |899| 
         000595 0800 
         000597 10   
    1814 000598 0400          BCC $C$L31,AC0 == #0 ; |899| 
         00059a 7D   
    1815                                                      ; branchcc occurs ; |899| 
    1816                      .dwpsn  file "F:/eZdsp-DBG-sim/tmp1/c55x-sim2/foo/c5535_bsl_revc/ezdsp5535_v1/c55xx_csl/inc/csl_mscAu
    1817 00059b A96D          MOV *AR3(#266), AR1 ; |901| 
TMS320C55x Assembler PC v4.4.1 Tue Oct 02 02:33:20 2018

Tools Copyright (c) 1996-2012 Texas Instruments Incorporated
csl_msc.asm                                                          PAGE   41

         00059d 010A 
    1818 00059f C90A          MOV AR1, *SP(#5) ; |901| 
    1819                      .dwpsn  file "F:/eZdsp-DBG-sim/tmp1/c55x-sim2/foo/c5535_bsl_revc/ezdsp5535_v1/c55xx_csl/inc/csl_mscAu
    1820 0005a1 ED00          MOV dbl(*SP(#0)), XAR3
         0005a3 BF   
    1821 0005a4 DF0A          MOV uns(*SP(#5)), AC1 ; |904| 
         0005a6 15   
    1822 0005a7 ED6D          MOV dbl(*AR3(#16)), AC0 ; |904| 
         0005a9 0800 
         0005ab 10   
    1823 0005ac 1218          CMPU AC1 >= AC0, TC1 ; |904| 
         0005ae 04   
    1824 0005af 65E4          BCC $C$L29,TC1 ; |904| 
    1825                                                      ; branchcc occurs ; |904| 
    1826                      .dwpsn  file "F:/eZdsp-DBG-sim/tmp1/c55x-sim2/foo/c5535_bsl_revc/ezdsp5535_v1/c55xx_csl/inc/csl_mscAu
    1827 0005b1 E66D          MOV #7, *AR3(#355) ; |906| 
         0005b3 0701 
         0005b5 63   
    1828                      .dwpsn  file "F:/eZdsp-DBG-sim/tmp1/c55x-sim2/foo/c5535_bsl_revc/ezdsp5535_v1/c55xx_csl/inc/csl_mscAu
    1829 0005b6 A90A          MOV *SP(#5), AR1 ; |907| 
    1830 0005b8 C90C          MOV AR1, *SP(#6) ; |907| 
    1831                      .dwpsn  file "F:/eZdsp-DBG-sim/tmp1/c55x-sim2/foo/c5535_bsl_revc/ezdsp5535_v1/c55xx_csl/inc/csl_mscAu
    1832 0005ba 4A13          B $C$L30  ; |908| 
    1833                                                      ; branch occurs ; |908| 
    1834 0005bc       $C$L29:    
    1835                      .dwpsn  file "F:/eZdsp-DBG-sim/tmp1/c55x-sim2/foo/c5535_bsl_revc/ezdsp5535_v1/c55xx_csl/inc/csl_mscAu
    1836 0005bc E66D          MOV #3, *AR3(#355) ; |911| 
         0005be 0301 
         0005c0 63   
    1837                      .dwpsn  file "F:/eZdsp-DBG-sim/tmp1/c55x-sim2/foo/c5535_bsl_revc/ezdsp5535_v1/c55xx_csl/inc/csl_mscAu
    1838 0005c1 ED00          MOV dbl(*SP(#0)), XAR3
         0005c3 BF   
    1839 0005c4 ED6D          MOV dbl(*AR3(#16)), AC0 ; |913| 
         0005c6 0800 
         0005c8 10   
    1840 0005c9 7DFF          AND #0xffff, AC0, AC0 ; |913| 
         0005cb FF00 
    1841 0005cd C00C          MOV AC0, *SP(#6) ; |913| 
    1842 0005cf       $C$L30:    
    1843                      .dwpsn  file "F:/eZdsp-DBG-sim/tmp1/c55x-sim2/foo/c5535_bsl_revc/ezdsp5535_v1/c55xx_csl/inc/csl_mscAu
    1844 0005cf ED00          MOV dbl(*SP(#0)), XAR3
         0005d1 BF   
    1845 0005d2 DF0C          MOV uns(*SP(#6)), AC0 ; |918| 
         0005d4 05   
    1846 0005d5 ED6D          SUB AC0, dbl(*AR3(#16)), AC0 ; |918| 
         0005d7 0400 
         0005d9 10   
    1847 0005da EB6D          MOV AC0, dbl(*AR3(#16)) ; |918| 
         0005dc 0800 
         0005de 10   
    1848                      .dwpsn  file "F:/eZdsp-DBG-sim/tmp1/c55x-sim2/foo/c5535_bsl_revc/ezdsp5535_v1/c55xx_csl/inc/csl_mscAu
    1849 0005df ED00          MOV dbl(*SP(#0)), XAR3
         0005e1 BF   
    1850 0005e2 ED6D          MOV dbl(*AR3(#16)), AC0 ; |919| 
         0005e4 0800 
TMS320C55x Assembler PC v4.4.1 Tue Oct 02 02:33:20 2018

Tools Copyright (c) 1996-2012 Texas Instruments Incorporated
csl_msc.asm                                                          PAGE   42

         0005e6 10   
    1851 0005e7 1810          AND #0x0010, AC0, AC0 ; |919| 
         0005e9 00   
    1852 0005ea C06D          MOV AC0, *AR3(#287) ; |919| 
         0005ec 011F 
    1853                      .dwpsn  file "F:/eZdsp-DBG-sim/tmp1/c55x-sim2/foo/c5535_bsl_revc/ezdsp5535_v1/c55xx_csl/inc/csl_mscAu
    1854 0005ee ED00          MOV dbl(*SP(#0)), XAR3
         0005f0 BF   
    1855 0005f1 ED6D          MOV dbl(*AR3(#16)), AC0 ; |921| 
         0005f3 0800 
         0005f5 10   
    1856 0005f6 BC6D          MOV HI(AC0), *AR3(#288) ; |921| 
         0005f8 0120 
    1857                      .dwpsn  file "F:/eZdsp-DBG-sim/tmp1/c55x-sim2/foo/c5535_bsl_revc/ezdsp5535_v1/c55xx_csl/inc/csl_mscAu
    1858 0005fa ED00          MOV dbl(*SP(#0)), XAR3
         0005fc BF   
    1859 0005fd E66D          MOV #0, *AR3(#289) ; |923| 
         0005ff 0001 
         000601 21   
    1860                      .dwpsn  file "F:/eZdsp-DBG-sim/tmp1/c55x-sim2/foo/c5535_bsl_revc/ezdsp5535_v1/c55xx_csl/inc/csl_mscAu
    1861 000602 ED00          MOV dbl(*SP(#0)), XAR1
         000604 9F   
    1862 000605 ED04          MOV dbl(*SP(#2)), XAR0
         000607 8F   
    1863 000608 A40C          MOV *SP(#6), T0 ; |924| 
    1864 00060a B42F          AMAR *+AR1(#267) ; |924| 
         00060c 010B 
    1865              $C$DW$180       .dwtag  DW_TAG_TI_branch
    1866                      .dwattr $C$DW$180, DW_AT_low_pc(0x00)
    1867                      .dwattr $C$DW$180, DW_AT_name("_USB_postTransaction")
    1868                      .dwattr $C$DW$180, DW_AT_TI_call
    1869              
    1870 00060e 6C00          CALL #_USB_postTransaction ; |924| 
         000610 0000!
    1871 000612 3D15  ||      MOV #1, T1
    1872              
    1873                                                      ; call occurs [#_USB_postTransaction] ; |924| 
    1874 000614 C408          MOV T0, *SP(#4) ; |924| 
    1875                      .dwpsn  file "F:/eZdsp-DBG-sim/tmp1/c55x-sim2/foo/c5535_bsl_revc/ezdsp5535_v1/c55xx_csl/inc/csl_mscAu
    1876 000616 4A08          B $C$L32  ; |927| 
    1877                                                      ; branch occurs ; |927| 
    1878 000618       $C$L31:    
    1879                      .dwpsn  file "F:/eZdsp-DBG-sim/tmp1/c55x-sim2/foo/c5535_bsl_revc/ezdsp5535_v1/c55xx_csl/inc/csl_mscAu
    1880 000618 ED04          MOV dbl(*SP(#2)), XAR1
         00061a 9F   
    1881              $C$DW$181       .dwtag  DW_TAG_TI_branch
    1882                      .dwattr $C$DW$181, DW_AT_low_pc(0x00)
    1883                      .dwattr $C$DW$181, DW_AT_name("_MSC_sendCswWithPhaseError")
    1884                      .dwattr $C$DW$181, DW_AT_TI_call
    1885 00061b 0826          CALL #_MSC_sendCswWithPhaseError ; |930| 
         00061d 9A   
    1886                                                      ; call occurs [#_MSC_sendCswWithPhaseError] ; |930| 
    1887 00061e C408          MOV T0, *SP(#4) ; |930| 
    1888 000620       $C$L32:    
    1889                      .dwpsn  file "F:/eZdsp-DBG-sim/tmp1/c55x-sim2/foo/c5535_bsl_revc/ezdsp5535_v1/c55xx_csl/inc/csl_mscAu
TMS320C55x Assembler PC v4.4.1 Tue Oct 02 02:33:20 2018

Tools Copyright (c) 1996-2012 Texas Instruments Incorporated
csl_msc.asm                                                          PAGE   43

    1890 000620       $C$L33:    
    1891                      .dwpsn  file "F:/eZdsp-DBG-sim/tmp1/c55x-sim2/foo/c5535_bsl_revc/ezdsp5535_v1/c55xx_csl/inc/csl_mscAu
    1892 000620 4E07          AADD #7, SP
    1893                      .dwcfi  cfa_offset, 1
    1894              $C$DW$182       .dwtag  DW_TAG_TI_branch
    1895                      .dwattr $C$DW$182, DW_AT_low_pc(0x00)
    1896                      .dwattr $C$DW$182, DW_AT_TI_return
    1897 000622 4804          RET
    1898                                                      ; return occurs
    1899                      .dwattr $C$DW$171, DW_AT_TI_end_file("F:/eZdsp-DBG-sim/tmp1/c55x-sim2/foo/c5535_bsl_revc/ezdsp5535_v1
    1900                      .dwattr $C$DW$171, DW_AT_TI_end_line(0x3a6)
    1901                      .dwattr $C$DW$171, DW_AT_TI_end_column(0x01)
    1902                      .dwendentry
    1903                      .dwendtag $C$DW$171
    1904              
    1905 000624               .sect   ".text"
    1906                      .align 4
    1907              
    1908              $C$DW$183       .dwtag  DW_TAG_subprogram, DW_AT_name("MSC_HandleVerify10")
    1909                      .dwattr $C$DW$183, DW_AT_low_pc(_MSC_HandleVerify10)
    1910                      .dwattr $C$DW$183, DW_AT_high_pc(0x00)
    1911                      .dwattr $C$DW$183, DW_AT_TI_symbol_name("_MSC_HandleVerify10")
    1912                      .dwattr $C$DW$183, DW_AT_type(*$C$DW$T$89)
    1913                      .dwattr $C$DW$183, DW_AT_TI_begin_file("F:/eZdsp-DBG-sim/tmp1/c55x-sim2/foo/c5535_bsl_revc/ezdsp5535_
    1914                      .dwattr $C$DW$183, DW_AT_TI_begin_line(0x3d6)
    1915                      .dwattr $C$DW$183, DW_AT_TI_begin_column(0x0c)
    1916                      .dwattr $C$DW$183, DW_AT_TI_max_frame_size(0x08)
    1917                      .dwpsn  file "F:/eZdsp-DBG-sim/tmp1/c55x-sim2/foo/c5535_bsl_revc/ezdsp5535_v1/c55xx_csl/inc/csl_mscAu
    1918              
    1919                      .dwfde $C$DW$CIE, _MSC_HandleVerify10
    1920              $C$DW$184       .dwtag  DW_TAG_formal_parameter, DW_AT_name("pMscHandle")
    1921                      .dwattr $C$DW$184, DW_AT_TI_symbol_name("_pMscHandle")
    1922                      .dwattr $C$DW$184, DW_AT_type(*$C$DW$T$107)
    1923                      .dwattr $C$DW$184, DW_AT_location[DW_OP_reg17]
    1924              $C$DW$185       .dwtag  DW_TAG_formal_parameter, DW_AT_name("hUsbInEp")
    1925                      .dwattr $C$DW$185, DW_AT_TI_symbol_name("_hUsbInEp")
    1926                      .dwattr $C$DW$185, DW_AT_type(*$C$DW$T$27)
    1927                      .dwattr $C$DW$185, DW_AT_location[DW_OP_reg19]
    1928              $C$DW$186       .dwtag  DW_TAG_formal_parameter, DW_AT_name("logicalUnit")
    1929                      .dwattr $C$DW$186, DW_AT_TI_symbol_name("_logicalUnit")
    1930                      .dwattr $C$DW$186, DW_AT_type(*$C$DW$T$25)
    1931                      .dwattr $C$DW$186, DW_AT_location[DW_OP_reg12]
    1932              ;*******************************************************************************
    1933              ;* FUNCTION NAME: MSC_HandleVerify10                                           *
    1934              ;*                                                                             *
    1935              ;*   Function Uses Regs : AC0,AC0,AC1,AC1,T0,T1,AR0,XAR0,AR1,XAR1,AR2,XAR2,AR3,*
    1936              ;*                        XAR3,SP,CARRY,M40,SATA,SATD,RDM,FRCT,SMUL            *
    1937              ;*   Stack Frame        : Compact (No Frame Pointer, w/ debug)                 *
    1938              ;*   Total Frame Size   : 8 words                                              *
    1939              ;*                        (1 return address/alignment)                         *
    1940              ;*                        (7 local values)                                     *
    1941              ;*   Min System Stack   : 1 word                                               *
    1942              ;*******************************************************************************
    1943 000624       _MSC_HandleVerify10:
    1944                      .dwcfi  cfa_offset, 1
TMS320C55x Assembler PC v4.4.1 Tue Oct 02 02:33:20 2018

Tools Copyright (c) 1996-2012 Texas Instruments Incorporated
csl_msc.asm                                                          PAGE   44

    1945                      .dwcfi  save_reg_to_mem, 91, -1
    1946 000624 4EF9          AADD #-7, SP
    1947                      .dwcfi  cfa_offset, 8
    1948              $C$DW$187       .dwtag  DW_TAG_variable, DW_AT_name("pMscHandle")
    1949                      .dwattr $C$DW$187, DW_AT_TI_symbol_name("_pMscHandle")
    1950                      .dwattr $C$DW$187, DW_AT_type(*$C$DW$T$107)
    1951                      .dwattr $C$DW$187, DW_AT_location[DW_OP_bregx 0x24 0]
    1952              $C$DW$188       .dwtag  DW_TAG_variable, DW_AT_name("hUsbInEp")
    1953                      .dwattr $C$DW$188, DW_AT_TI_symbol_name("_hUsbInEp")
    1954                      .dwattr $C$DW$188, DW_AT_type(*$C$DW$T$27)
    1955                      .dwattr $C$DW$188, DW_AT_location[DW_OP_bregx 0x24 2]
    1956              $C$DW$189       .dwtag  DW_TAG_variable, DW_AT_name("logicalUnit")
    1957                      .dwattr $C$DW$189, DW_AT_TI_symbol_name("_logicalUnit")
    1958                      .dwattr $C$DW$189, DW_AT_type(*$C$DW$T$25)
    1959                      .dwattr $C$DW$189, DW_AT_location[DW_OP_bregx 0x24 4]
    1960              $C$DW$190       .dwtag  DW_TAG_variable, DW_AT_name("status")
    1961                      .dwattr $C$DW$190, DW_AT_TI_symbol_name("_status")
    1962                      .dwattr $C$DW$190, DW_AT_type(*$C$DW$T$89)
    1963                      .dwattr $C$DW$190, DW_AT_location[DW_OP_bregx 0x24 5]
    1964              $C$DW$191       .dwtag  DW_TAG_variable, DW_AT_name("verifyLen")
    1965                      .dwattr $C$DW$191, DW_AT_TI_symbol_name("_verifyLen")
    1966                      .dwattr $C$DW$191, DW_AT_type(*$C$DW$T$25)
    1967                      .dwattr $C$DW$191, DW_AT_location[DW_OP_bregx 0x24 6]
    1968 000626 C408          MOV T0, *SP(#4) ; |985| 
    1969 000628 EB04          MOV XAR1, dbl(*SP(#2))
         00062a 95   
    1970 00062b EB00          MOV XAR0, dbl(*SP(#0))
         00062d 85   
    1971                      .dwpsn  file "F:/eZdsp-DBG-sim/tmp1/c55x-sim2/foo/c5535_bsl_revc/ezdsp5535_v1/c55xx_csl/inc/csl_mscAu
    1972 00062e ED00          MOV dbl(*SP(#0)), XAR3
         000630 BF   
    1973 000631 ED6D          MOV dbl(*AR3(#16)), AC0 ; |989| 
         000633 0800 
         000635 10   
    1974 000636 0400          BCC $C$L34,AC0 == #0 ; |989| 
         000638 42   
    1975                                                      ; branchcc occurs ; |989| 
    1976                      .dwpsn  file "F:/eZdsp-DBG-sim/tmp1/c55x-sim2/foo/c5535_bsl_revc/ezdsp5535_v1/c55xx_csl/inc/csl_mscAu
    1977 000639 E66D          MOV #2, *AR3(#355) ; |992| 
         00063b 0201 
         00063d 63   
    1978                      .dwpsn  file "F:/eZdsp-DBG-sim/tmp1/c55x-sim2/foo/c5535_bsl_revc/ezdsp5535_v1/c55xx_csl/inc/csl_mscAu
    1979 00063e ED00          MOV dbl(*SP(#0)), XAR0
         000640 8F   
    1980 000641 B40F          AMAR *+AR0(#334) ; |993| 
         000643 014E 
    1981              $C$DW$192       .dwtag  DW_TAG_TI_branch
    1982                      .dwattr $C$DW$192, DW_AT_low_pc(0x00)
    1983                      .dwattr $C$DW$192, DW_AT_name("_USB_stallEndpt")
    1984                      .dwattr $C$DW$192, DW_AT_TI_call
    1985 000645 6C00          CALL #_USB_stallEndpt ; |993| 
         000647 0000!
    1986                                                      ; call occurs [#_USB_stallEndpt] ; |993| 
    1987 000649 C40A          MOV T0, *SP(#5) ; |993| 
    1988                      .dwpsn  file "F:/eZdsp-DBG-sim/tmp1/c55x-sim2/foo/c5535_bsl_revc/ezdsp5535_v1/c55xx_csl/inc/csl_mscAu
TMS320C55x Assembler PC v4.4.1 Tue Oct 02 02:33:20 2018

Tools Copyright (c) 1996-2012 Texas Instruments Incorporated
csl_msc.asm                                                          PAGE   45

    1989 00064b ED00          MOV dbl(*SP(#0)), XAR0
         00064d 8F   
    1990 00064e B40F          AMAR *+AR0(#314) ; |994| 
         000650 013A 
    1991              $C$DW$193       .dwtag  DW_TAG_TI_branch
    1992                      .dwattr $C$DW$193, DW_AT_low_pc(0x00)
    1993                      .dwattr $C$DW$193, DW_AT_name("_USB_stallEndpt")
    1994                      .dwattr $C$DW$193, DW_AT_TI_call
    1995 000652 6C00          CALL #_USB_stallEndpt ; |994| 
         000654 0000!
    1996                                                      ; call occurs [#_USB_stallEndpt] ; |994| 
    1997 000656 C40A          MOV T0, *SP(#5) ; |994| 
    1998                      .dwpsn  file "F:/eZdsp-DBG-sim/tmp1/c55x-sim2/foo/c5535_bsl_revc/ezdsp5535_v1/c55xx_csl/inc/csl_mscAu
    1999 000658 ED00          MOV dbl(*SP(#0)), XAR0
         00065a 8F   
    2000 00065b ED00          MOV dbl(*SP(#0)), XAR3
         00065d BF   
    2001 00065e 7600          MOV #32, T1 ; |998| 
         000660 2058 
    2002 000662 B40F          AMAR *+AR0(#314) ; |998| 
         000664 013A 
    2003 000666 ED6D          MOV dbl(*AR3(#14)), XAR1
         000668 9F00 
         00066a 0E   
    2004              $C$DW$194       .dwtag  DW_TAG_TI_branch
    2005                      .dwattr $C$DW$194, DW_AT_low_pc(0x00)
    2006                      .dwattr $C$DW$194, DW_AT_name("_USB_postTransaction")
    2007                      .dwattr $C$DW$194, DW_AT_TI_call
    2008              
    2009 00066b 6C00          CALL #_USB_postTransaction ; |998| 
         00066d 0000!
    2010 00066f 3D04  ||      MOV #0, T0
    2011              
    2012                                                      ; call occurs [#_USB_postTransaction] ; |998| 
    2013 000671 DA0A          OR *SP(#5), T0, AR1 ; |998| 
         000673 94   
    2014 000674 C90A          MOV AR1, *SP(#5) ; |998| 
    2015                      .dwpsn  file "F:/eZdsp-DBG-sim/tmp1/c55x-sim2/foo/c5535_bsl_revc/ezdsp5535_v1/c55xx_csl/inc/csl_mscAu
    2016 000676 2294          MOV AR1, T0
    2017 000678 0600          B $C$L38  ; |1003| 
         00067a 6E   
    2018                                                      ; branch occurs ; |1003| 
    2019 00067b       $C$L34:    
    2020                      .dwpsn  file "F:/eZdsp-DBG-sim/tmp1/c55x-sim2/foo/c5535_bsl_revc/ezdsp5535_v1/c55xx_csl/inc/csl_mscAu
    2021 00067b A96D          MOV *AR3(#308), AR1 ; |1006| 
         00067d 0134 
    2022 00067f A16D          MOV *AR3(#308), AC1 ; |1006| 
         000681 0134 
    2023 000683 7DFF          AND #0xff00, AR1, AC0 ; |1006| 
         000685 0009 
    2024 000687 76FF          BFXTR #0xff00, AC0, AC0 ; |1006| 
         000689 0000 
    2025 00068b 1011          OR AC1 << #8, AC0 ; |1006| 
         00068d 08   
    2026 00068e C00C          MOV AC0, *SP(#6) ; |1006| 
TMS320C55x Assembler PC v4.4.1 Tue Oct 02 02:33:20 2018

Tools Copyright (c) 1996-2012 Texas Instruments Incorporated
csl_msc.asm                                                          PAGE   46

    2027                      .dwpsn  file "F:/eZdsp-DBG-sim/tmp1/c55x-sim2/foo/c5535_bsl_revc/ezdsp5535_v1/c55xx_csl/inc/csl_mscAu
    2028 000690 ED00          MOV dbl(*SP(#0)), XAR3
         000692 BF   
    2029 000693 DF08          MOV uns(*SP(#4)), AC1 ; |1010| 
         000695 15   
    2030 000696 1015          SFTS AC1, #6, AC0 ; |1010| 
         000698 06   
    2031 000699 1014          SUB AC1 << #1, AC0 ; |1010| 
         00069b 01   
    2032 00069c 900A          MOV AC0, XAR2
    2033 00069e 14A1          AADD XAR2, XAR3 ; |1010| 
         0006a0 B0   
    2034 0006a1 A96D          MOV *AR3(#78), AR1 ; |1010| 
         0006a3 004E 
    2035 0006a5 6209          BCC $C$L35,AR1 == #0 ; |1010| 
    2036                                                      ; branchcc occurs ; |1010| 
    2037 0006a7 A90C          MOV *SP(#6), AR1 ; |1010| 
    2038 0006a9 6519          BCC $C$L36,AR1 != #0 ; |1010| 
    2039                                                      ; branchcc occurs ; |1010| 
    2040 0006ab       $C$L35:    
    2041                      .dwpsn  file "F:/eZdsp-DBG-sim/tmp1/c55x-sim2/foo/c5535_bsl_revc/ezdsp5535_v1/c55xx_csl/inc/csl_mscAu
    2042 0006ab ED00          MOV dbl(*SP(#0)), XAR3
         0006ad BF   
    2043 0006ae E66D          MOV #0, *AR3(#289) ; |1013| 
         0006b0 0001 
         0006b2 21   
    2044                      .dwpsn  file "F:/eZdsp-DBG-sim/tmp1/c55x-sim2/foo/c5535_bsl_revc/ezdsp5535_v1/c55xx_csl/inc/csl_mscAu
    2045 0006b3 4A18          B $C$L37  ; |1014| 
    2046                                                      ; branch occurs ; |1014| 
    2047 0006b5       $C$L36:    
    2048                      .dwpsn  file "F:/eZdsp-DBG-sim/tmp1/c55x-sim2/foo/c5535_bsl_revc/ezdsp5535_v1/c55xx_csl/inc/csl_mscAu
    2049 0006b5 ED00          MOV dbl(*SP(#0)), XAR3
         0006b7 BF   
    2050 0006b8 E66D          MOV #1, *AR3(#289) ; |1017| 
         0006ba 0101 
         0006bc 21   
    2051                      .dwpsn  file "F:/eZdsp-DBG-sim/tmp1/c55x-sim2/foo/c5535_bsl_revc/ezdsp5535_v1/c55xx_csl/inc/csl_mscAu
    2052 0006bd ED00          MOV dbl(*SP(#0)), XAR0
         0006bf 8F   
    2053 0006c0 7600          MOV #29, T1 ; |1018| 
         0006c2 1D58 
    2054 0006c4 B40F          AMAR *+AR0(#266) ; |1018| 
         0006c6 010A 
    2055              $C$DW$195       .dwtag  DW_TAG_TI_branch
    2056                      .dwattr $C$DW$195, DW_AT_low_pc(0x00)
    2057                      .dwattr $C$DW$195, DW_AT_name("_MSC_SetSenseKeys")
    2058                      .dwattr $C$DW$195, DW_AT_TI_call
    2059              
    2060 0006c8 08F9          CALL #_MSC_SetSenseKeys ; |1018| 
         0006ca 33   
    2061 0006cb 3DE4  ||      MOV #14, T0
    2062              
    2063                                                      ; call occurs [#_MSC_SetSenseKeys] ; |1018| 
    2064 0006cd       $C$L37:    
    2065                      .dwpsn  file "F:/eZdsp-DBG-sim/tmp1/c55x-sim2/foo/c5535_bsl_revc/ezdsp5535_v1/c55xx_csl/inc/csl_mscAu
TMS320C55x Assembler PC v4.4.1 Tue Oct 02 02:33:20 2018

Tools Copyright (c) 1996-2012 Texas Instruments Incorporated
csl_msc.asm                                                          PAGE   47

    2066 0006cd ED00          MOV dbl(*SP(#0)), XAR3
         0006cf BF   
    2067 0006d0 E66D          MOV #4, *AR3(#355) ; |1023| 
         0006d2 0401 
         0006d4 63   
    2068                      .dwpsn  file "F:/eZdsp-DBG-sim/tmp1/c55x-sim2/foo/c5535_bsl_revc/ezdsp5535_v1/c55xx_csl/inc/csl_mscAu
    2069 0006d5 ED00          MOV dbl(*SP(#0)), XAR1
         0006d7 9F   
    2070 0006d8 3CD4          MOV #13, T0
    2071 0006da ED04          MOV dbl(*SP(#2)), XAR0
         0006dc 8F   
    2072 0006dd B42F          AMAR *+AR1(#282) ; |1024| 
         0006df 011A 
    2073              $C$DW$196       .dwtag  DW_TAG_TI_branch
    2074                      .dwattr $C$DW$196, DW_AT_low_pc(0x00)
    2075                      .dwattr $C$DW$196, DW_AT_name("_USB_postTransaction")
    2076                      .dwattr $C$DW$196, DW_AT_TI_call
    2077              
    2078 0006e1 6C00          CALL #_USB_postTransaction ; |1024| 
         0006e3 0000!
    2079 0006e5 3D15  ||      MOV #1, T1
    2080              
    2081                                                      ; call occurs [#_USB_postTransaction] ; |1024| 
    2082 0006e7 C40A          MOV T0, *SP(#5) ; |1024| 
    2083                      .dwpsn  file "F:/eZdsp-DBG-sim/tmp1/c55x-sim2/foo/c5535_bsl_revc/ezdsp5535_v1/c55xx_csl/inc/csl_mscAu
    2084 0006e9       $C$L38:    
    2085                      .dwpsn  file "F:/eZdsp-DBG-sim/tmp1/c55x-sim2/foo/c5535_bsl_revc/ezdsp5535_v1/c55xx_csl/inc/csl_mscAu
    2086 0006e9 4E07          AADD #7, SP
    2087                      .dwcfi  cfa_offset, 1
    2088              $C$DW$197       .dwtag  DW_TAG_TI_branch
    2089                      .dwattr $C$DW$197, DW_AT_low_pc(0x00)
    2090                      .dwattr $C$DW$197, DW_AT_TI_return
    2091 0006eb 4804          RET
    2092                                                      ; return occurs
    2093                      .dwattr $C$DW$183, DW_AT_TI_end_file("F:/eZdsp-DBG-sim/tmp1/c55x-sim2/foo/c5535_bsl_revc/ezdsp5535_v1
    2094                      .dwattr $C$DW$183, DW_AT_TI_end_line(0x404)
    2095                      .dwattr $C$DW$183, DW_AT_TI_end_column(0x01)
    2096                      .dwendentry
    2097                      .dwendtag $C$DW$183
    2098              
    2099 0006ed               .sect   ".text"
    2100                      .align 4
    2101              
    2102              $C$DW$198       .dwtag  DW_TAG_subprogram, DW_AT_name("MSC_reqUnknown")
    2103                      .dwattr $C$DW$198, DW_AT_low_pc(_MSC_reqUnknown)
    2104                      .dwattr $C$DW$198, DW_AT_high_pc(0x00)
    2105                      .dwattr $C$DW$198, DW_AT_TI_symbol_name("_MSC_reqUnknown")
    2106                      .dwattr $C$DW$198, DW_AT_type(*$C$DW$T$42)
    2107                      .dwattr $C$DW$198, DW_AT_TI_begin_file("F:/eZdsp-DBG-sim/tmp1/c55x-sim2/foo/c5535_bsl_revc/ezdsp5535_
    2108                      .dwattr $C$DW$198, DW_AT_TI_begin_line(0x43d)
    2109                      .dwattr $C$DW$198, DW_AT_TI_begin_column(0x13)
    2110                      .dwattr $C$DW$198, DW_AT_TI_max_frame_size(0x0c)
    2111                      .dwpsn  file "F:/eZdsp-DBG-sim/tmp1/c55x-sim2/foo/c5535_bsl_revc/ezdsp5535_v1/c55xx_csl/inc/csl_mscAu
    2112              
    2113                      .dwfde $C$DW$CIE, _MSC_reqUnknown
TMS320C55x Assembler PC v4.4.1 Tue Oct 02 02:33:20 2018

Tools Copyright (c) 1996-2012 Texas Instruments Incorporated
csl_msc.asm                                                          PAGE   48

    2114              $C$DW$199       .dwtag  DW_TAG_formal_parameter, DW_AT_name("devNum")
    2115                      .dwattr $C$DW$199, DW_AT_TI_symbol_name("_devNum")
    2116                      .dwattr $C$DW$199, DW_AT_type(*$C$DW$T$24)
    2117                      .dwattr $C$DW$199, DW_AT_location[DW_OP_reg12]
    2118              $C$DW$200       .dwtag  DW_TAG_formal_parameter, DW_AT_name("usbSetup")
    2119                      .dwattr $C$DW$200, DW_AT_TI_symbol_name("_usbSetup")
    2120                      .dwattr $C$DW$200, DW_AT_type(*$C$DW$T$43)
    2121                      .dwattr $C$DW$200, DW_AT_location[DW_OP_reg17]
    2122              $C$DW$201       .dwtag  DW_TAG_formal_parameter, DW_AT_name("hInEp")
    2123                      .dwattr $C$DW$201, DW_AT_TI_symbol_name("_hInEp")
    2124                      .dwattr $C$DW$201, DW_AT_type(*$C$DW$T$27)
    2125                      .dwattr $C$DW$201, DW_AT_location[DW_OP_reg19]
    2126              $C$DW$202       .dwtag  DW_TAG_formal_parameter, DW_AT_name("hOutEp")
    2127                      .dwattr $C$DW$202, DW_AT_TI_symbol_name("_hOutEp")
    2128                      .dwattr $C$DW$202, DW_AT_type(*$C$DW$T$27)
    2129                      .dwattr $C$DW$202, DW_AT_location[DW_OP_reg21]
    2130              $C$DW$203       .dwtag  DW_TAG_formal_parameter, DW_AT_name("pMsc")
    2131                      .dwattr $C$DW$203, DW_AT_TI_symbol_name("_pMsc")
    2132                      .dwattr $C$DW$203, DW_AT_type(*$C$DW$T$3)
    2133                      .dwattr $C$DW$203, DW_AT_location[DW_OP_reg23]
    2134              ;*******************************************************************************
    2135              ;* FUNCTION NAME: MSC_reqUnknown                                               *
    2136              ;*                                                                             *
    2137              ;*   Function Uses Regs : T0,AR0,XAR0,AR1,XAR1,AR2,XAR2,AR3,XAR3,SP,M40,SATA,  *
    2138              ;*                        SATD,RDM,FRCT,SMUL                                   *
    2139              ;*   Stack Frame        : Compact (No Frame Pointer, w/ debug)                 *
    2140              ;*   Total Frame Size   : 12 words                                             *
    2141              ;*                        (1 return address/alignment)                         *
    2142              ;*                        (11 local values)                                    *
    2143              ;*   Min System Stack   : 1 word                                               *
    2144              ;*******************************************************************************
    2145 0006f0       _MSC_reqUnknown:
    2146                      .dwcfi  cfa_offset, 1
    2147                      .dwcfi  save_reg_to_mem, 91, -1
    2148 0006f0 4EF5          AADD #-11, SP
    2149                      .dwcfi  cfa_offset, 12
    2150              $C$DW$204       .dwtag  DW_TAG_variable, DW_AT_name("devNum")
    2151                      .dwattr $C$DW$204, DW_AT_TI_symbol_name("_devNum")
    2152                      .dwattr $C$DW$204, DW_AT_type(*$C$DW$T$24)
    2153                      .dwattr $C$DW$204, DW_AT_location[DW_OP_bregx 0x24 0]
    2154              $C$DW$205       .dwtag  DW_TAG_variable, DW_AT_name("usbSetup")
    2155                      .dwattr $C$DW$205, DW_AT_TI_symbol_name("_usbSetup")
    2156                      .dwattr $C$DW$205, DW_AT_type(*$C$DW$T$43)
    2157                      .dwattr $C$DW$205, DW_AT_location[DW_OP_bregx 0x24 2]
    2158              $C$DW$206       .dwtag  DW_TAG_variable, DW_AT_name("hInEp")
    2159                      .dwattr $C$DW$206, DW_AT_TI_symbol_name("_hInEp")
    2160                      .dwattr $C$DW$206, DW_AT_type(*$C$DW$T$27)
    2161                      .dwattr $C$DW$206, DW_AT_location[DW_OP_bregx 0x24 4]
    2162              $C$DW$207       .dwtag  DW_TAG_variable, DW_AT_name("hOutEp")
    2163                      .dwattr $C$DW$207, DW_AT_TI_symbol_name("_hOutEp")
    2164                      .dwattr $C$DW$207, DW_AT_type(*$C$DW$T$27)
    2165                      .dwattr $C$DW$207, DW_AT_location[DW_OP_bregx 0x24 6]
    2166              $C$DW$208       .dwtag  DW_TAG_variable, DW_AT_name("pMsc")
    2167                      .dwattr $C$DW$208, DW_AT_TI_symbol_name("_pMsc")
    2168                      .dwattr $C$DW$208, DW_AT_type(*$C$DW$T$3)
TMS320C55x Assembler PC v4.4.1 Tue Oct 02 02:33:20 2018

Tools Copyright (c) 1996-2012 Texas Instruments Incorporated
csl_msc.asm                                                          PAGE   49

    2169                      .dwattr $C$DW$208, DW_AT_location[DW_OP_bregx 0x24 8]
    2170              $C$DW$209       .dwtag  DW_TAG_variable, DW_AT_name("retStat")
    2171                      .dwattr $C$DW$209, DW_AT_TI_symbol_name("_retStat")
    2172                      .dwattr $C$DW$209, DW_AT_type(*$C$DW$T$42)
    2173                      .dwattr $C$DW$209, DW_AT_location[DW_OP_bregx 0x24 10]
    2174 0006f2 EB10          MOV XAR3, dbl(*SP(#8))
         0006f4 B5   
    2175 0006f5 EB0C          MOV XAR2, dbl(*SP(#6))
         0006f7 A5   
    2176 0006f8 EB08          MOV XAR1, dbl(*SP(#4))
         0006fa 95   
    2177 0006fb EB04          MOV XAR0, dbl(*SP(#2))
         0006fd 85   
    2178 0006fe C400          MOV T0, *SP(#0) ; |1090| 
    2179                      .dwpsn  file "F:/eZdsp-DBG-sim/tmp1/c55x-sim2/foo/c5535_bsl_revc/ezdsp5535_v1/c55xx_csl/inc/csl_mscAu
    2180 000700 E614          MOV #1, *SP(#10) ; |1094| 
         000702 01   
    2181                      .dwpsn  file "F:/eZdsp-DBG-sim/tmp1/c55x-sim2/foo/c5535_bsl_revc/ezdsp5535_v1/c55xx_csl/inc/csl_mscAu
    2182 000703 A414          MOV *SP(#10), T0 ; |1096| 
    2183                      .dwpsn  file "F:/eZdsp-DBG-sim/tmp1/c55x-sim2/foo/c5535_bsl_revc/ezdsp5535_v1/c55xx_csl/inc/csl_mscAu
    2184 000705 4E0B          AADD #11, SP
    2185                      .dwcfi  cfa_offset, 1
    2186              $C$DW$210       .dwtag  DW_TAG_TI_branch
    2187                      .dwattr $C$DW$210, DW_AT_low_pc(0x00)
    2188                      .dwattr $C$DW$210, DW_AT_TI_return
    2189 000707 4804          RET
    2190                                                      ; return occurs
    2191                      .dwattr $C$DW$198, DW_AT_TI_end_file("F:/eZdsp-DBG-sim/tmp1/c55x-sim2/foo/c5535_bsl_revc/ezdsp5535_v1
    2192                      .dwattr $C$DW$198, DW_AT_TI_end_line(0x449)
    2193                      .dwattr $C$DW$198, DW_AT_TI_end_column(0x01)
    2194                      .dwendentry
    2195                      .dwendtag $C$DW$198
    2196              
    2197 000709               .sect   ".text"
    2198                      .align 4
    2199              
    2200              $C$DW$211       .dwtag  DW_TAG_subprogram, DW_AT_name("MSC_lookupReqHandler")
    2201                      .dwattr $C$DW$211, DW_AT_low_pc(_MSC_lookupReqHandler)
    2202                      .dwattr $C$DW$211, DW_AT_high_pc(0x00)
    2203                      .dwattr $C$DW$211, DW_AT_TI_symbol_name("_MSC_lookupReqHandler")
    2204                      .dwattr $C$DW$211, DW_AT_type(*$C$DW$T$93)
    2205                      .dwattr $C$DW$211, DW_AT_TI_begin_file("F:/eZdsp-DBG-sim/tmp1/c55x-sim2/foo/c5535_bsl_revc/ezdsp5535_
    2206                      .dwattr $C$DW$211, DW_AT_TI_begin_line(0x47e)
    2207                      .dwattr $C$DW$211, DW_AT_TI_begin_column(0x13)
    2208                      .dwattr $C$DW$211, DW_AT_TI_max_frame_size(0x06)
    2209                      .dwpsn  file "F:/eZdsp-DBG-sim/tmp1/c55x-sim2/foo/c5535_bsl_revc/ezdsp5535_v1/c55xx_csl/inc/csl_mscAu
    2210              
    2211                      .dwfde $C$DW$CIE, _MSC_lookupReqHandler
    2212              $C$DW$212       .dwtag  DW_TAG_formal_parameter, DW_AT_name("request")
    2213                      .dwattr $C$DW$212, DW_AT_TI_symbol_name("_request")
    2214                      .dwattr $C$DW$212, DW_AT_type(*$C$DW$T$25)
    2215                      .dwattr $C$DW$212, DW_AT_location[DW_OP_reg12]
    2216              $C$DW$213       .dwtag  DW_TAG_formal_parameter, DW_AT_name("pUSB_ReqTable")
    2217                      .dwattr $C$DW$213, DW_AT_TI_symbol_name("_pUSB_ReqTable")
    2218                      .dwattr $C$DW$213, DW_AT_type(*$C$DW$T$40)
TMS320C55x Assembler PC v4.4.1 Tue Oct 02 02:33:20 2018

Tools Copyright (c) 1996-2012 Texas Instruments Incorporated
csl_msc.asm                                                          PAGE   50

    2219                      .dwattr $C$DW$213, DW_AT_location[DW_OP_reg17]
    2220              ;*******************************************************************************
    2221              ;* FUNCTION NAME: MSC_lookupReqHandler                                         *
    2222              ;*                                                                             *
    2223              ;*   Function Uses Regs : AC0,AC0,T0,AR0,XAR0,AR1,AR2,XAR2,AR3,XAR3,SP,CARRY,  *
    2224              ;*                        TC1,M40,SATA,SATD,RDM,FRCT,SMUL                      *
    2225              ;*   Stack Frame        : Compact (No Frame Pointer, w/ debug)                 *
    2226              ;*   Total Frame Size   : 6 words                                              *
    2227              ;*                        (1 return address/alignment)                         *
    2228              ;*                        (5 local values)                                     *
    2229              ;*   Min System Stack   : 1 word                                               *
    2230              ;*******************************************************************************
    2231 00070c       _MSC_lookupReqHandler:
    2232                      .dwcfi  cfa_offset, 1
    2233                      .dwcfi  save_reg_to_mem, 91, -1
    2234 00070c 4EFB          AADD #-5, SP
    2235                      .dwcfi  cfa_offset, 6
    2236              $C$DW$214       .dwtag  DW_TAG_variable, DW_AT_name("request")
    2237                      .dwattr $C$DW$214, DW_AT_TI_symbol_name("_request")
    2238                      .dwattr $C$DW$214, DW_AT_type(*$C$DW$T$25)
    2239                      .dwattr $C$DW$214, DW_AT_location[DW_OP_bregx 0x24 0]
    2240              $C$DW$215       .dwtag  DW_TAG_variable, DW_AT_name("pUSB_ReqTable")
    2241                      .dwattr $C$DW$215, DW_AT_TI_symbol_name("_pUSB_ReqTable")
    2242                      .dwattr $C$DW$215, DW_AT_type(*$C$DW$T$40)
    2243                      .dwattr $C$DW$215, DW_AT_location[DW_OP_bregx 0x24 2]
    2244              $C$DW$216       .dwtag  DW_TAG_variable, DW_AT_name("index")
    2245                      .dwattr $C$DW$216, DW_AT_TI_symbol_name("_index")
    2246                      .dwattr $C$DW$216, DW_AT_type(*$C$DW$T$25)
    2247                      .dwattr $C$DW$216, DW_AT_location[DW_OP_bregx 0x24 4]
    2248 00070e EB04          MOV XAR0, dbl(*SP(#2))
         000710 85   
    2249 000711 C400          MOV T0, *SP(#0) ; |1152| 
    2250                      .dwpsn  file "F:/eZdsp-DBG-sim/tmp1/c55x-sim2/foo/c5535_bsl_revc/ezdsp5535_v1/c55xx_csl/inc/csl_mscAu
    2251 000713 E608          MOV #0, *SP(#4) ; |1156| 
         000715 00   
    2252                      .dwpsn  file "F:/eZdsp-DBG-sim/tmp1/c55x-sim2/foo/c5535_bsl_revc/ezdsp5535_v1/c55xx_csl/inc/csl_mscAu
    2253 000716 ED04          MOV dbl(*SP(#2)), XAR3
         000718 BF   
    2254 000719 DF08          MOV uns(*SP(#4)), AC0 ; |1156| 
         00071b 05   
    2255 00071c 1005          SFTS AC0, #2, AC0 ; |1156| 
         00071e 02   
    2256 00071f 900A          MOV AC0, XAR2
    2257 000721 14A1          AADD XAR2, XAR3 ; |1156| 
         000723 B0   
    2258 000724 ED75          MOV dbl(*AR3(short(#2))), AC0 ; |1156| 
         000726 08   
    2259 000727 0400          BCC $C$L41,AC0 == #0 ; |1156| 
         000729 43   
    2260                                                      ; branchcc occurs ; |1156| 
    2261 00072a       $C$L39:    
    2262 00072a       $C$DW$L$_MSC_lookupReqHandler$2$B:
    2263                      .dwpsn  file "F:/eZdsp-DBG-sim/tmp1/c55x-sim2/foo/c5535_bsl_revc/ezdsp5535_v1/c55xx_csl/inc/csl_mscAu
    2264 00072a ED04          MOV dbl(*SP(#2)), XAR3
         00072c BF   
TMS320C55x Assembler PC v4.4.1 Tue Oct 02 02:33:20 2018

Tools Copyright (c) 1996-2012 Texas Instruments Incorporated
csl_msc.asm                                                          PAGE   51

    2265 00072d DF08          MOV uns(*SP(#4)), AC0 ; |1159| 
         00072f 05   
    2266 000730 1005          SFTS AC0, #2, AC0 ; |1159| 
         000732 02   
    2267 000733 900A          MOV AC0, XAR2
    2268              
    2269                      AADD XAR2, XAR3 ; |1159| 
    2270 000735 8A00  ||      MOV *SP(#0), AR1 ; |1159| 
         000737 B918 
         000739 A1   
    2271              
    2272 00073a AA61          MOV *AR3, AR2 ; |1159| 
    2273 00073c 12AC          CMPU AR2 != AR1, TC1 ; |1159| 
         00073e 94   
    2274 00073f 0464          BCC $C$L40,TC1 ; |1159| 
         000741 13   
    2275                                                      ; branchcc occurs ; |1159| 
    2276 000742       $C$DW$L$_MSC_lookupReqHandler$2$E:
    2277                      .dwpsn  file "F:/eZdsp-DBG-sim/tmp1/c55x-sim2/foo/c5535_bsl_revc/ezdsp5535_v1/c55xx_csl/inc/csl_mscAu
    2278 000742 ED04          MOV dbl(*SP(#2)), XAR3
         000744 BF   
    2279 000745 DF08          MOV uns(*SP(#4)), AC0 ; |1161| 
         000747 05   
    2280 000748 1005          SFTS AC0, #2, AC0 ; |1161| 
         00074a 02   
    2281 00074b 900A          MOV AC0, XAR2
    2282 00074d 14A1          AADD XAR2, XAR3 ; |1161| 
         00074f B0   
    2283 000750 ED75          MOV dbl(*AR3(short(#2))), AC0 ; |1161| 
         000752 08   
    2284 000753 4A20          B $C$L42  ; |1161| 
    2285                                                      ; branch occurs ; |1161| 
    2286 000755       $C$L40:    
    2287 000755       $C$DW$L$_MSC_lookupReqHandler$4$B:
    2288                      .dwpsn  file "F:/eZdsp-DBG-sim/tmp1/c55x-sim2/foo/c5535_bsl_revc/ezdsp5535_v1/c55xx_csl/inc/csl_mscAu
    2289 000755 F708          ADD #1, *SP(#4) ; |1156| 
         000757 0001 
    2290                      .dwpsn  file "F:/eZdsp-DBG-sim/tmp1/c55x-sim2/foo/c5535_bsl_revc/ezdsp5535_v1/c55xx_csl/inc/csl_mscAu
    2291 000759 ED04          MOV dbl(*SP(#2)), XAR3
         00075b BF   
    2292 00075c DF08          MOV uns(*SP(#4)), AC0 ; |1156| 
         00075e 05   
    2293 00075f 1005          SFTS AC0, #2, AC0 ; |1156| 
         000761 02   
    2294 000762 900A          MOV AC0, XAR2
    2295 000764 14A1          AADD XAR2, XAR3 ; |1156| 
         000766 B0   
    2296 000767 ED75          MOV dbl(*AR3(short(#2))), AC0 ; |1156| 
         000769 08   
    2297 00076a 0410          BCC $C$L39,AC0 != #0 ; |1156| 
         00076c BD   
    2298                                                      ; branchcc occurs ; |1156| 
    2299 00076d       $C$DW$L$_MSC_lookupReqHandler$4$E:
    2300 00076d       $C$L41:    
    2301                      .dwpsn  file "F:/eZdsp-DBG-sim/tmp1/c55x-sim2/foo/c5535_bsl_revc/ezdsp5535_v1/c55xx_csl/inc/csl_mscAu
TMS320C55x Assembler PC v4.4.1 Tue Oct 02 02:33:20 2018

Tools Copyright (c) 1996-2012 Texas Instruments Incorporated
csl_msc.asm                                                          PAGE   52

    2302 00076d 7A00          MOV #(_MSC_reqUnknown >> 16) << #16, AC0 ; |1167| 
         00076f 000A%
    2303 000771 7E00          OR #(_MSC_reqUnknown & 0xffff), AC0, AC0 ; |1167| 
         000773 0000%
    2304 000775       $C$L42:    
    2305                      .dwpsn  file "F:/eZdsp-DBG-sim/tmp1/c55x-sim2/foo/c5535_bsl_revc/ezdsp5535_v1/c55xx_csl/inc/csl_mscAu
    2306 000775 4E05          AADD #5, SP
    2307                      .dwcfi  cfa_offset, 1
    2308              $C$DW$217       .dwtag  DW_TAG_TI_branch
    2309                      .dwattr $C$DW$217, DW_AT_low_pc(0x00)
    2310                      .dwattr $C$DW$217, DW_AT_TI_return
    2311 000777 4804          RET
    2312                                                      ; return occurs
    2313              
    2314              $C$DW$218       .dwtag  DW_TAG_TI_loop
    2315                      .dwattr $C$DW$218, DW_AT_name("F:\eZdsp-DBG-sim\tmp1\c55x-sim2\foo\Debug\csl_msc.asm:$C$L39:1:1538472
    2316                      .dwattr $C$DW$218, DW_AT_TI_begin_file("F:/eZdsp-DBG-sim/tmp1/c55x-sim2/foo/c5535_bsl_revc/ezdsp5535_
    2317                      .dwattr $C$DW$218, DW_AT_TI_begin_line(0x484)
    2318                      .dwattr $C$DW$218, DW_AT_TI_end_line(0x48b)
    2319              $C$DW$219       .dwtag  DW_TAG_TI_loop_range
    2320                      .dwattr $C$DW$219, DW_AT_low_pc($C$DW$L$_MSC_lookupReqHandler$2$B)
    2321                      .dwattr $C$DW$219, DW_AT_high_pc($C$DW$L$_MSC_lookupReqHandler$2$E)
    2322              $C$DW$220       .dwtag  DW_TAG_TI_loop_range
    2323                      .dwattr $C$DW$220, DW_AT_low_pc($C$DW$L$_MSC_lookupReqHandler$4$B)
    2324                      .dwattr $C$DW$220, DW_AT_high_pc($C$DW$L$_MSC_lookupReqHandler$4$E)
    2325                      .dwendtag $C$DW$218
    2326              
    2327                      .dwattr $C$DW$211, DW_AT_TI_end_file("F:/eZdsp-DBG-sim/tmp1/c55x-sim2/foo/c5535_bsl_revc/ezdsp5535_v1
    2328                      .dwattr $C$DW$211, DW_AT_TI_end_line(0x490)
    2329                      .dwattr $C$DW$211, DW_AT_TI_end_column(0x01)
    2330                      .dwendentry
    2331                      .dwendtag $C$DW$211
    2332              
    2333 000779               .sect   ".text"
    2334                      .align 4
    2335              
    2336              $C$DW$221       .dwtag  DW_TAG_subprogram, DW_AT_name("MSC_verifyCBW")
    2337                      .dwattr $C$DW$221, DW_AT_low_pc(_MSC_verifyCBW)
    2338                      .dwattr $C$DW$221, DW_AT_high_pc(0x00)
    2339                      .dwattr $C$DW$221, DW_AT_TI_symbol_name("_MSC_verifyCBW")
    2340                      .dwattr $C$DW$221, DW_AT_type(*$C$DW$T$89)
    2341                      .dwattr $C$DW$221, DW_AT_TI_begin_file("F:/eZdsp-DBG-sim/tmp1/c55x-sim2/foo/c5535_bsl_revc/ezdsp5535_
    2342                      .dwattr $C$DW$221, DW_AT_TI_begin_line(0x7ca)
    2343                      .dwattr $C$DW$221, DW_AT_TI_begin_column(0x0d)
    2344                      .dwattr $C$DW$221, DW_AT_TI_max_frame_size(0x0c)
    2345                      .dwpsn  file "F:/eZdsp-DBG-sim/tmp1/c55x-sim2/foo/c5535_bsl_revc/ezdsp5535_v1/c55xx_csl/inc/csl_mscAu
    2346              
    2347                      .dwfde $C$DW$CIE, _MSC_verifyCBW
    2348              $C$DW$222       .dwtag  DW_TAG_formal_parameter, DW_AT_name("pMscHandle")
    2349                      .dwattr $C$DW$222, DW_AT_TI_symbol_name("_pMscHandle")
    2350                      .dwattr $C$DW$222, DW_AT_type(*$C$DW$T$107)
    2351                      .dwattr $C$DW$222, DW_AT_location[DW_OP_reg17]
    2352              $C$DW$223       .dwtag  DW_TAG_formal_parameter, DW_AT_name("hUsbOutEp")
    2353                      .dwattr $C$DW$223, DW_AT_TI_symbol_name("_hUsbOutEp")
    2354                      .dwattr $C$DW$223, DW_AT_type(*$C$DW$T$27)
TMS320C55x Assembler PC v4.4.1 Tue Oct 02 02:33:20 2018

Tools Copyright (c) 1996-2012 Texas Instruments Incorporated
csl_msc.asm                                                          PAGE   53

    2355                      .dwattr $C$DW$223, DW_AT_location[DW_OP_reg19]
    2356              $C$DW$224       .dwtag  DW_TAG_formal_parameter, DW_AT_name("hUsbInEp")
    2357                      .dwattr $C$DW$224, DW_AT_TI_symbol_name("_hUsbInEp")
    2358                      .dwattr $C$DW$224, DW_AT_type(*$C$DW$T$27)
    2359                      .dwattr $C$DW$224, DW_AT_location[DW_OP_reg21]
    2360              ;*******************************************************************************
    2361              ;* FUNCTION NAME: MSC_verifyCBW                                                *
    2362              ;*                                                                             *
    2363              ;*   Function Uses Regs : AC0,AC0,AC1,AC1,T0,AR0,XAR0,AR1,XAR1,AR2,XAR2,AR3,   *
    2364              ;*                        XAR3,SP,TC1,M40,SATA,SATD,RDM,FRCT,SMUL              *
    2365              ;*   Stack Frame        : Compact (No Frame Pointer, w/ debug)                 *
    2366              ;*   Total Frame Size   : 12 words                                             *
    2367              ;*                        (1 return address/alignment)                         *
    2368              ;*                        (11 local values)                                    *
    2369              ;*   Min System Stack   : 1 word                                               *
    2370              ;*******************************************************************************
    2371 00077c       _MSC_verifyCBW:
    2372                      .dwcfi  cfa_offset, 1
    2373                      .dwcfi  save_reg_to_mem, 91, -1
    2374 00077c 4EF5          AADD #-11, SP
    2375                      .dwcfi  cfa_offset, 12
    2376              $C$DW$225       .dwtag  DW_TAG_variable, DW_AT_name("pMscHandle")
    2377                      .dwattr $C$DW$225, DW_AT_TI_symbol_name("_pMscHandle")
    2378                      .dwattr $C$DW$225, DW_AT_type(*$C$DW$T$107)
    2379                      .dwattr $C$DW$225, DW_AT_location[DW_OP_bregx 0x24 0]
    2380              $C$DW$226       .dwtag  DW_TAG_variable, DW_AT_name("hUsbOutEp")
    2381                      .dwattr $C$DW$226, DW_AT_TI_symbol_name("_hUsbOutEp")
    2382                      .dwattr $C$DW$226, DW_AT_type(*$C$DW$T$27)
    2383                      .dwattr $C$DW$226, DW_AT_location[DW_OP_bregx 0x24 2]
    2384              $C$DW$227       .dwtag  DW_TAG_variable, DW_AT_name("hUsbInEp")
    2385                      .dwattr $C$DW$227, DW_AT_TI_symbol_name("_hUsbInEp")
    2386                      .dwattr $C$DW$227, DW_AT_type(*$C$DW$T$27)
    2387                      .dwattr $C$DW$227, DW_AT_location[DW_OP_bregx 0x24 4]
    2388              $C$DW$228       .dwtag  DW_TAG_variable, DW_AT_name("cbwSignature")
    2389                      .dwattr $C$DW$228, DW_AT_TI_symbol_name("_cbwSignature")
    2390                      .dwattr $C$DW$228, DW_AT_type(*$C$DW$T$53)
    2391                      .dwattr $C$DW$228, DW_AT_location[DW_OP_bregx 0x24 6]
    2392              $C$DW$229       .dwtag  DW_TAG_variable, DW_AT_name("status")
    2393                      .dwattr $C$DW$229, DW_AT_TI_symbol_name("_status")
    2394                      .dwattr $C$DW$229, DW_AT_type(*$C$DW$T$89)
    2395                      .dwattr $C$DW$229, DW_AT_location[DW_OP_bregx 0x24 8]
    2396              $C$DW$230       .dwtag  DW_TAG_variable, DW_AT_name("cbwSize")
    2397                      .dwattr $C$DW$230, DW_AT_TI_symbol_name("_cbwSize")
    2398                      .dwattr $C$DW$230, DW_AT_type(*$C$DW$T$25)
    2399                      .dwattr $C$DW$230, DW_AT_location[DW_OP_bregx 0x24 9]
    2400              $C$DW$231       .dwtag  DW_TAG_variable, DW_AT_name("logicalUnit")
    2401                      .dwattr $C$DW$231, DW_AT_TI_symbol_name("_logicalUnit")
    2402                      .dwattr $C$DW$231, DW_AT_type(*$C$DW$T$25)
    2403                      .dwattr $C$DW$231, DW_AT_location[DW_OP_bregx 0x24 10]
    2404 00077e EB08          MOV XAR2, dbl(*SP(#4))
         000780 A5   
    2405 000781 EB04          MOV XAR1, dbl(*SP(#2))
         000783 95   
    2406 000784 EB00          MOV XAR0, dbl(*SP(#0))
         000786 85   
TMS320C55x Assembler PC v4.4.1 Tue Oct 02 02:33:20 2018

Tools Copyright (c) 1996-2012 Texas Instruments Incorporated
csl_msc.asm                                                          PAGE   54

    2407                      .dwpsn  file "F:/eZdsp-DBG-sim/tmp1/c55x-sim2/foo/c5535_bsl_revc/ezdsp5535_v1/c55xx_csl/inc/csl_mscAu
    2408 000787 3C00          MOV #0, AC0 ; |2003| 
    2409 000789 EB0C          MOV AC0, dbl(*SP(#6)) ; |2003| 
         00078b 08   
    2410                      .dwpsn  file "F:/eZdsp-DBG-sim/tmp1/c55x-sim2/foo/c5535_bsl_revc/ezdsp5535_v1/c55xx_csl/inc/csl_mscAu
    2411 00078c E610          MOV #0, *SP(#8) ; |2004| 
         00078e 00   
    2412                      .dwpsn  file "F:/eZdsp-DBG-sim/tmp1/c55x-sim2/foo/c5535_bsl_revc/ezdsp5535_v1/c55xx_csl/inc/csl_mscAu
    2413 00078f E612          MOV #0, *SP(#9) ; |2005| 
         000791 00   
    2414                      .dwpsn  file "F:/eZdsp-DBG-sim/tmp1/c55x-sim2/foo/c5535_bsl_revc/ezdsp5535_v1/c55xx_csl/inc/csl_mscAu
    2415 000792 E614          MOV #0, *SP(#10) ; |2006| 
         000794 00   
    2416                      .dwpsn  file "F:/eZdsp-DBG-sim/tmp1/c55x-sim2/foo/c5535_bsl_revc/ezdsp5535_v1/c55xx_csl/inc/csl_mscAu
    2417 000795 ED00          MOV dbl(*SP(#0)), XAR3
         000797 BF   
    2418 000798 90B0          MOV XAR3, AC0
    2419 00079a 0400          BCC $C$L45,AC0 == #0 ; |2008| 
         00079c 6A   
    2420                                                      ; branchcc occurs ; |2008| 
    2421 00079d ED04          MOV dbl(*SP(#2)), XAR3
         00079f BF   
    2422 0007a0 90B0          MOV XAR3, AC0
    2423 0007a2 0400          BCC $C$L45,AC0 == #0 ; |2008| 
         0007a4 62   
    2424                                                      ; branchcc occurs ; |2008| 
    2425 0007a5 ED08          MOV dbl(*SP(#4)), XAR3
         0007a7 BF   
    2426 0007a8 90B0          MOV XAR3, AC0
    2427 0007aa 0400          BCC $C$L45,AC0 == #0 ; |2008| 
         0007ac 5A   
    2428                                                      ; branchcc occurs ; |2008| 
    2429                      .dwpsn  file "F:/eZdsp-DBG-sim/tmp1/c55x-sim2/foo/c5535_bsl_revc/ezdsp5535_v1/c55xx_csl/inc/csl_mscAu
    2430 0007ad ED00          MOV dbl(*SP(#0)), XAR2
         0007af AF   
    2431 0007b0 ED00          MOV dbl(*SP(#0)), XAR3
         0007b2 BF   
    2432 0007b3 A94D          MOV *AR2(#298), AR1 ; |2010| 
         0007b5 012A 
    2433 0007b7 5290          MOV AR1, HI(AC0) ; |2010| 
    2434 0007b9 DA6D          OR *AR3(#297), AC0, AC0 ; |2010| 
         0007bb 0001 
         0007bd 29   
    2435 0007be EB0C          MOV AC0, dbl(*SP(#6)) ; |2010| 
         0007c0 08   
    2436                      .dwpsn  file "F:/eZdsp-DBG-sim/tmp1/c55x-sim2/foo/c5535_bsl_revc/ezdsp5535_v1/c55xx_csl/inc/csl_mscAu
    2437 0007c1 ED0C          MOV dbl(*SP(#6)), AC1 ; |2014| 
         0007c3 18   
    2438 0007c4 7A43          MOV #17218 << #16, AC0 ; |2014| 
         0007c6 420A 
    2439 0007c8 7E53          OR #0x5355, AC0, AC0 ; |2014| 
         0007ca 5500 
    2440 0007cc 1210          CMPU AC1 == AC0, TC1 ; |2014| 
         0007ce 04   
    2441 0007cf 62E4          BCC $C$L43,TC1 ; |2014| 
TMS320C55x Assembler PC v4.4.1 Tue Oct 02 02:33:20 2018

Tools Copyright (c) 1996-2012 Texas Instruments Incorporated
csl_msc.asm                                                          PAGE   55

    2442                                                      ; branchcc occurs ; |2014| 
    2443                      .dwpsn  file "F:/eZdsp-DBG-sim/tmp1/c55x-sim2/foo/c5535_bsl_revc/ezdsp5535_v1/c55xx_csl/inc/csl_mscAu
    2444 0007d1 E610          MOV #-1, *SP(#8) ; |2016| 
         0007d3 FF   
    2445                      .dwpsn  file "F:/eZdsp-DBG-sim/tmp1/c55x-sim2/foo/c5535_bsl_revc/ezdsp5535_v1/c55xx_csl/inc/csl_mscAu
    2446 0007d4 4A34          B $C$L46  ; |2017| 
    2447                                                      ; branch occurs ; |2017| 
    2448 0007d6       $C$L43:    
    2449                      .dwpsn  file "F:/eZdsp-DBG-sim/tmp1/c55x-sim2/foo/c5535_bsl_revc/ezdsp5535_v1/c55xx_csl/inc/csl_mscAu
    2450 0007d6 ED04          MOV dbl(*SP(#2)), XAR0
         0007d8 8F   
    2451              $C$DW$232       .dwtag  DW_TAG_TI_branch
    2452                      .dwattr $C$DW$232, DW_AT_low_pc(0x00)
    2453                      .dwattr $C$DW$232, DW_AT_name("_USB_getDataCountReadFromFifo")
    2454                      .dwattr $C$DW$232, DW_AT_TI_call
    2455 0007d9 6C00          CALL #_USB_getDataCountReadFromFifo ; |2020| 
         0007db 0000!
    2456                                                      ; call occurs [#_USB_getDataCountReadFromFifo] ; |2020| 
    2457 0007dd C412          MOV T0, *SP(#9) ; |2020| 
    2458                      .dwpsn  file "F:/eZdsp-DBG-sim/tmp1/c55x-sim2/foo/c5535_bsl_revc/ezdsp5535_v1/c55xx_csl/inc/csl_mscAu
    2459 0007df F012          CMP *SP(#9) == #31, TC1 ; |2021| 
         0007e1 001F 
    2460 0007e3 62E4          BCC $C$L44,TC1 ; |2021| 
    2461                                                      ; branchcc occurs ; |2021| 
    2462                      .dwpsn  file "F:/eZdsp-DBG-sim/tmp1/c55x-sim2/foo/c5535_bsl_revc/ezdsp5535_v1/c55xx_csl/inc/csl_mscAu
    2463 0007e5 E610          MOV #-1, *SP(#8) ; |2023| 
         0007e7 FF   
    2464                      .dwpsn  file "F:/eZdsp-DBG-sim/tmp1/c55x-sim2/foo/c5535_bsl_revc/ezdsp5535_v1/c55xx_csl/inc/csl_mscAu
    2465 0007e8 4A20          B $C$L46  ; |2024| 
    2466                                                      ; branch occurs ; |2024| 
    2467 0007ea       $C$L44:    
    2468                      .dwpsn  file "F:/eZdsp-DBG-sim/tmp1/c55x-sim2/foo/c5535_bsl_revc/ezdsp5535_v1/c55xx_csl/inc/csl_mscAu
    2469 0007ea ED00          MOV dbl(*SP(#0)), XAR3
         0007ec BF   
    2470 0007ed DF6D          MOV uns(high_byte(*AR3(#303))), AR1 ; |2028| 
         0007ef 9101 
         0007f1 2F   
    2471 0007f2 C914          MOV AR1, *SP(#10) ; |2028| 
    2472                      .dwpsn  file "F:/eZdsp-DBG-sim/tmp1/c55x-sim2/foo/c5535_bsl_revc/ezdsp5535_v1/c55xx_csl/inc/csl_mscAu
    2473 0007f4 ED00          MOV dbl(*SP(#0)), XAR3
         0007f6 BF   
    2474 0007f7 AA14          MOV *SP(#10), AR2 ; |2030| 
    2475 0007f9 A96D          MOV *AR3(#354), AR1 ; |2030| 
         0007fb 0162 
    2476 0007fd 1298          CMPU AR2 <= AR1, TC1 ; |2030| 
         0007ff A4   
    2477 000800 6464          BCC $C$L46,TC1 ; |2030| 
    2478                                                      ; branchcc occurs ; |2030| 
    2479                      .dwpsn  file "F:/eZdsp-DBG-sim/tmp1/c55x-sim2/foo/c5535_bsl_revc/ezdsp5535_v1/c55xx_csl/inc/csl_mscAu
    2480 000802 E610          MOV #-1, *SP(#8) ; |2032| 
         000804 FF   
    2481                      .dwpsn  file "F:/eZdsp-DBG-sim/tmp1/c55x-sim2/foo/c5535_bsl_revc/ezdsp5535_v1/c55xx_csl/inc/csl_mscAu
    2482 000805 4A03          B $C$L46  ; |2036| 
    2483                                                      ; branch occurs ; |2036| 
    2484 000807       $C$L45:    
TMS320C55x Assembler PC v4.4.1 Tue Oct 02 02:33:20 2018

Tools Copyright (c) 1996-2012 Texas Instruments Incorporated
csl_msc.asm                                                          PAGE   56

    2485                      .dwpsn  file "F:/eZdsp-DBG-sim/tmp1/c55x-sim2/foo/c5535_bsl_revc/ezdsp5535_v1/c55xx_csl/inc/csl_mscAu
    2486 000807 E610          MOV #-1, *SP(#8) ; |2039| 
         000809 FF   
    2487 00080a       $C$L46:    
    2488                      .dwpsn  file "F:/eZdsp-DBG-sim/tmp1/c55x-sim2/foo/c5535_bsl_revc/ezdsp5535_v1/c55xx_csl/inc/csl_mscAu
    2489 00080a A410          MOV *SP(#8), T0 ; |2042| 
    2490                      .dwpsn  file "F:/eZdsp-DBG-sim/tmp1/c55x-sim2/foo/c5535_bsl_revc/ezdsp5535_v1/c55xx_csl/inc/csl_mscAu
    2491 00080c 4E0B          AADD #11, SP
    2492                      .dwcfi  cfa_offset, 1
    2493              $C$DW$233       .dwtag  DW_TAG_TI_branch
    2494                      .dwattr $C$DW$233, DW_AT_low_pc(0x00)
    2495                      .dwattr $C$DW$233, DW_AT_TI_return
    2496 00080e 4804          RET
    2497                                                      ; return occurs
    2498                      .dwattr $C$DW$221, DW_AT_TI_end_file("F:/eZdsp-DBG-sim/tmp1/c55x-sim2/foo/c5535_bsl_revc/ezdsp5535_v1
    2499                      .dwattr $C$DW$221, DW_AT_TI_end_line(0x7fb)
    2500                      .dwattr $C$DW$221, DW_AT_TI_end_column(0x01)
    2501                      .dwendentry
    2502                      .dwendtag $C$DW$221
    2503              
    2504 000810               .sect   ".text"
    2505                      .align 4
    2506                      .global _MSC_Open
    2507              
    2508              $C$DW$234       .dwtag  DW_TAG_subprogram, DW_AT_name("MSC_Open")
    2509                      .dwattr $C$DW$234, DW_AT_low_pc(_MSC_Open)
    2510                      .dwattr $C$DW$234, DW_AT_high_pc(0x00)
    2511                      .dwattr $C$DW$234, DW_AT_TI_symbol_name("_MSC_Open")
    2512                      .dwattr $C$DW$234, DW_AT_external
    2513                      .dwattr $C$DW$234, DW_AT_type(*$C$DW$T$89)
    2514                      .dwattr $C$DW$234, DW_AT_TI_begin_file("../c5535_bsl_revc/ezdsp5535_v1/c55xx_csl/src/csl_msc.c")
    2515                      .dwattr $C$DW$234, DW_AT_TI_begin_line(0x4d)
    2516                      .dwattr $C$DW$234, DW_AT_TI_begin_column(0x0c)
    2517                      .dwattr $C$DW$234, DW_AT_TI_max_frame_size(0x04)
    2518                      .dwpsn  file "../c5535_bsl_revc/ezdsp5535_v1/c55xx_csl/src/csl_msc.c",line 78,column 1,is_stmt,addres
    2519              
    2520                      .dwfde $C$DW$CIE, _MSC_Open
    2521              $C$DW$235       .dwtag  DW_TAG_formal_parameter, DW_AT_name("pAppClassHandle")
    2522                      .dwattr $C$DW$235, DW_AT_TI_symbol_name("_pAppClassHandle")
    2523                      .dwattr $C$DW$235, DW_AT_type(*$C$DW$T$102)
    2524                      .dwattr $C$DW$235, DW_AT_location[DW_OP_reg17]
    2525              ;*******************************************************************************
    2526              ;* FUNCTION NAME: MSC_Open                                                     *
    2527              ;*                                                                             *
    2528              ;*   Function Uses Regs : AC0,AC0,T0,AR0,XAR0,AR3,XAR3,SP,M40,SATA,SATD,RDM,   *
    2529              ;*                        FRCT,SMUL                                            *
    2530              ;*   Stack Frame        : Compact (No Frame Pointer, w/ debug)                 *
    2531              ;*   Total Frame Size   : 4 words                                              *
    2532              ;*                        (1 return address/alignment)                         *
    2533              ;*                        (3 local values)                                     *
    2534              ;*   Min System Stack   : 1 word                                               *
    2535              ;*******************************************************************************
    2536 000810       _MSC_Open:
    2537                      .dwcfi  cfa_offset, 1
    2538                      .dwcfi  save_reg_to_mem, 91, -1
TMS320C55x Assembler PC v4.4.1 Tue Oct 02 02:33:20 2018

Tools Copyright (c) 1996-2012 Texas Instruments Incorporated
csl_msc.asm                                                          PAGE   57

    2539 000810 4EFD          AADD #-3, SP
    2540                      .dwcfi  cfa_offset, 4
    2541              $C$DW$236       .dwtag  DW_TAG_variable, DW_AT_name("pAppClassHandle")
    2542                      .dwattr $C$DW$236, DW_AT_TI_symbol_name("_pAppClassHandle")
    2543                      .dwattr $C$DW$236, DW_AT_type(*$C$DW$T$102)
    2544                      .dwattr $C$DW$236, DW_AT_location[DW_OP_bregx 0x24 0]
    2545              $C$DW$237       .dwtag  DW_TAG_variable, DW_AT_name("status")
    2546                      .dwattr $C$DW$237, DW_AT_TI_symbol_name("_status")
    2547                      .dwattr $C$DW$237, DW_AT_type(*$C$DW$T$89)
    2548                      .dwattr $C$DW$237, DW_AT_location[DW_OP_bregx 0x24 2]
    2549 000812 EB00          MOV XAR0, dbl(*SP(#0))
         000814 85   
    2550                      .dwpsn  file "../c5535_bsl_revc/ezdsp5535_v1/c55xx_csl/src/csl_msc.c",line 81,column 2,is_stmt
    2551 000815 E604          MOV #0, *SP(#2) ; |81| 
         000817 00   
    2552                      .dwpsn  file "../c5535_bsl_revc/ezdsp5535_v1/c55xx_csl/src/csl_msc.c",line 83,column 2,is_stmt
    2553 000818 ED00          MOV dbl(*SP(#0)), XAR3
         00081a BF   
    2554 00081b 90B0          MOV XAR3, AC0
    2555 00081d 6600          BCC $C$L47,AC0 == #0 ; |83| 
    2556                                                      ; branchcc occurs ; |83| 
    2557                      .dwpsn  file "../c5535_bsl_revc/ezdsp5535_v1/c55xx_csl/src/csl_msc.c",line 85,column 3,is_stmt
    2558 00081f ED00          MOV dbl(*SP(#0)), XAR0
         000821 8F   
    2559              $C$DW$238       .dwtag  DW_TAG_TI_branch
    2560                      .dwattr $C$DW$238, DW_AT_low_pc(0x00)
    2561                      .dwattr $C$DW$238, DW_AT_name("_MSC_Setup")
    2562                      .dwattr $C$DW$238, DW_AT_TI_call
    2563              
    2564 000822 0800          CALL #_MSC_Setup ; |85| 
         000824 3D   
    2565 000825 3D14  ||      MOV #1, T0
    2566              
    2567                                                      ; call occurs [#_MSC_Setup] ; |85| 
    2568 000827 C404          MOV T0, *SP(#2) ; |85| 
    2569                      .dwpsn  file "../c5535_bsl_revc/ezdsp5535_v1/c55xx_csl/src/csl_msc.c",line 86,column 2,is_stmt
    2570 000829 4A03          B $C$L48  ; |86| 
    2571                                                      ; branch occurs ; |86| 
    2572 00082b       $C$L47:    
    2573                      .dwpsn  file "../c5535_bsl_revc/ezdsp5535_v1/c55xx_csl/src/csl_msc.c",line 89,column 3,is_stmt
    2574 00082b E604          MOV #-5, *SP(#2) ; |89| 
         00082d FB   
    2575 00082e       $C$L48:    
    2576                      .dwpsn  file "../c5535_bsl_revc/ezdsp5535_v1/c55xx_csl/src/csl_msc.c",line 92,column 2,is_stmt
    2577 00082e A404          MOV *SP(#2), T0 ; |92| 
    2578                      .dwpsn  file "../c5535_bsl_revc/ezdsp5535_v1/c55xx_csl/src/csl_msc.c",line 93,column 1,is_stmt
    2579 000830 4E03          AADD #3, SP
    2580                      .dwcfi  cfa_offset, 1
    2581              $C$DW$239       .dwtag  DW_TAG_TI_branch
    2582                      .dwattr $C$DW$239, DW_AT_low_pc(0x00)
    2583                      .dwattr $C$DW$239, DW_AT_TI_return
    2584 000832 4804          RET
    2585                                                      ; return occurs
    2586                      .dwattr $C$DW$234, DW_AT_TI_end_file("../c5535_bsl_revc/ezdsp5535_v1/c55xx_csl/src/csl_msc.c")
    2587                      .dwattr $C$DW$234, DW_AT_TI_end_line(0x5d)
TMS320C55x Assembler PC v4.4.1 Tue Oct 02 02:33:20 2018

Tools Copyright (c) 1996-2012 Texas Instruments Incorporated
csl_msc.asm                                                          PAGE   58

    2588                      .dwattr $C$DW$234, DW_AT_TI_end_column(0x01)
    2589                      .dwendentry
    2590                      .dwendtag $C$DW$234
    2591              
    2592 000834               .sect   ".text"
    2593                      .align 4
    2594                      .global _MSC_OpenFullspeed
    2595              
    2596              $C$DW$240       .dwtag  DW_TAG_subprogram, DW_AT_name("MSC_OpenFullspeed")
    2597                      .dwattr $C$DW$240, DW_AT_low_pc(_MSC_OpenFullspeed)
    2598                      .dwattr $C$DW$240, DW_AT_high_pc(0x00)
    2599                      .dwattr $C$DW$240, DW_AT_TI_symbol_name("_MSC_OpenFullspeed")
    2600                      .dwattr $C$DW$240, DW_AT_external
    2601                      .dwattr $C$DW$240, DW_AT_type(*$C$DW$T$89)
    2602                      .dwattr $C$DW$240, DW_AT_TI_begin_file("../c5535_bsl_revc/ezdsp5535_v1/c55xx_csl/src/csl_msc.c")
    2603                      .dwattr $C$DW$240, DW_AT_TI_begin_line(0x8d)
    2604                      .dwattr $C$DW$240, DW_AT_TI_begin_column(0x0c)
    2605                      .dwattr $C$DW$240, DW_AT_TI_max_frame_size(0x04)
    2606                      .dwpsn  file "../c5535_bsl_revc/ezdsp5535_v1/c55xx_csl/src/csl_msc.c",line 142,column 1,is_stmt,addre
    2607              
    2608                      .dwfde $C$DW$CIE, _MSC_OpenFullspeed
    2609              $C$DW$241       .dwtag  DW_TAG_formal_parameter, DW_AT_name("pAppClassHandle")
    2610                      .dwattr $C$DW$241, DW_AT_TI_symbol_name("_pAppClassHandle")
    2611                      .dwattr $C$DW$241, DW_AT_type(*$C$DW$T$102)
    2612                      .dwattr $C$DW$241, DW_AT_location[DW_OP_reg17]
    2613              ;*******************************************************************************
    2614              ;* FUNCTION NAME: MSC_OpenFullspeed                                            *
    2615              ;*                                                                             *
    2616              ;*   Function Uses Regs : AC0,AC0,T0,AR0,XAR0,AR3,XAR3,SP,M40,SATA,SATD,RDM,   *
    2617              ;*                        FRCT,SMUL                                            *
    2618              ;*   Stack Frame        : Compact (No Frame Pointer, w/ debug)                 *
    2619              ;*   Total Frame Size   : 4 words                                              *
    2620              ;*                        (1 return address/alignment)                         *
    2621              ;*                        (3 local values)                                     *
    2622              ;*   Min System Stack   : 1 word                                               *
    2623              ;*******************************************************************************
    2624 000834       _MSC_OpenFullspeed:
    2625                      .dwcfi  cfa_offset, 1
    2626                      .dwcfi  save_reg_to_mem, 91, -1
    2627 000834 4EFD          AADD #-3, SP
    2628                      .dwcfi  cfa_offset, 4
    2629              $C$DW$242       .dwtag  DW_TAG_variable, DW_AT_name("pAppClassHandle")
    2630                      .dwattr $C$DW$242, DW_AT_TI_symbol_name("_pAppClassHandle")
    2631                      .dwattr $C$DW$242, DW_AT_type(*$C$DW$T$102)
    2632                      .dwattr $C$DW$242, DW_AT_location[DW_OP_bregx 0x24 0]
    2633              $C$DW$243       .dwtag  DW_TAG_variable, DW_AT_name("status")
    2634                      .dwattr $C$DW$243, DW_AT_TI_symbol_name("_status")
    2635                      .dwattr $C$DW$243, DW_AT_type(*$C$DW$T$89)
    2636                      .dwattr $C$DW$243, DW_AT_location[DW_OP_bregx 0x24 2]
    2637 000836 EB00          MOV XAR0, dbl(*SP(#0))
         000838 85   
    2638                      .dwpsn  file "../c5535_bsl_revc/ezdsp5535_v1/c55xx_csl/src/csl_msc.c",line 145,column 2,is_stmt
    2639 000839 E604          MOV #0, *SP(#2) ; |145| 
         00083b 00   
    2640                      .dwpsn  file "../c5535_bsl_revc/ezdsp5535_v1/c55xx_csl/src/csl_msc.c",line 147,column 2,is_stmt
TMS320C55x Assembler PC v4.4.1 Tue Oct 02 02:33:20 2018

Tools Copyright (c) 1996-2012 Texas Instruments Incorporated
csl_msc.asm                                                          PAGE   59

    2641 00083c ED00          MOV dbl(*SP(#0)), XAR3
         00083e BF   
    2642 00083f 90B0          MOV XAR3, AC0
    2643 000841 0400          BCC $C$L49,AC0 == #0 ; |147| 
         000843 14   
    2644                                                      ; branchcc occurs ; |147| 
    2645                      .dwpsn  file "../c5535_bsl_revc/ezdsp5535_v1/c55xx_csl/src/csl_msc.c",line 149,column 3,is_stmt
    2646 000844 ED00          MOV dbl(*SP(#0)), XAR0
         000846 8F   
    2647              $C$DW$244       .dwtag  DW_TAG_TI_branch
    2648                      .dwattr $C$DW$244, DW_AT_low_pc(0x00)
    2649                      .dwattr $C$DW$244, DW_AT_name("_MSC_Setup")
    2650                      .dwattr $C$DW$244, DW_AT_TI_call
    2651              
    2652 000847 0800          CALL #_MSC_Setup ; |149| 
         000849 18   
    2653 00084a 3D04  ||      MOV #0, T0
    2654              
    2655                                                      ; call occurs [#_MSC_Setup] ; |149| 
    2656 00084c C404          MOV T0, *SP(#2) ; |149| 
    2657                      .dwpsn  file "../c5535_bsl_revc/ezdsp5535_v1/c55xx_csl/src/csl_msc.c",line 150,column 3,is_stmt
    2658 00084e 7600          MOV #64, T0 ; |150| 
         000850 4048 
    2659              $C$DW$245       .dwtag  DW_TAG_TI_branch
    2660                      .dwattr $C$DW$245, DW_AT_low_pc(0x00)
    2661                      .dwattr $C$DW$245, DW_AT_name("_USB_setFullSpeedMode")
    2662                      .dwattr $C$DW$245, DW_AT_TI_call
    2663 000852 6C00          CALL #_USB_setFullSpeedMode ; |150| 
         000854 0000!
    2664                                                      ; call occurs [#_USB_setFullSpeedMode] ; |150| 
    2665                      .dwpsn  file "../c5535_bsl_revc/ezdsp5535_v1/c55xx_csl/src/csl_msc.c",line 151,column 2,is_stmt
    2666 000856 4A03          B $C$L50  ; |151| 
    2667                                                      ; branch occurs ; |151| 
    2668 000858       $C$L49:    
    2669                      .dwpsn  file "../c5535_bsl_revc/ezdsp5535_v1/c55xx_csl/src/csl_msc.c",line 154,column 3,is_stmt
    2670 000858 E604          MOV #-5, *SP(#2) ; |154| 
         00085a FB   
    2671 00085b       $C$L50:    
    2672                      .dwpsn  file "../c5535_bsl_revc/ezdsp5535_v1/c55xx_csl/src/csl_msc.c",line 157,column 2,is_stmt
    2673 00085b A404          MOV *SP(#2), T0 ; |157| 
    2674                      .dwpsn  file "../c5535_bsl_revc/ezdsp5535_v1/c55xx_csl/src/csl_msc.c",line 158,column 1,is_stmt
    2675 00085d 4E03          AADD #3, SP
    2676                      .dwcfi  cfa_offset, 1
    2677              $C$DW$246       .dwtag  DW_TAG_TI_branch
    2678                      .dwattr $C$DW$246, DW_AT_low_pc(0x00)
    2679                      .dwattr $C$DW$246, DW_AT_TI_return
    2680 00085f 4804          RET
    2681                                                      ; return occurs
    2682                      .dwattr $C$DW$240, DW_AT_TI_end_file("../c5535_bsl_revc/ezdsp5535_v1/c55xx_csl/src/csl_msc.c")
    2683                      .dwattr $C$DW$240, DW_AT_TI_end_line(0x9e)
    2684                      .dwattr $C$DW$240, DW_AT_TI_end_column(0x01)
    2685                      .dwendentry
    2686                      .dwendtag $C$DW$240
    2687              
    2688 000861               .sect   ".text"
TMS320C55x Assembler PC v4.4.1 Tue Oct 02 02:33:20 2018

Tools Copyright (c) 1996-2012 Texas Instruments Incorporated
csl_msc.asm                                                          PAGE   60

    2689                      .align 4
    2690              
    2691              $C$DW$247       .dwtag  DW_TAG_subprogram, DW_AT_name("MSC_Setup")
    2692                      .dwattr $C$DW$247, DW_AT_low_pc(_MSC_Setup)
    2693                      .dwattr $C$DW$247, DW_AT_high_pc(0x00)
    2694                      .dwattr $C$DW$247, DW_AT_TI_symbol_name("_MSC_Setup")
    2695                      .dwattr $C$DW$247, DW_AT_type(*$C$DW$T$89)
    2696                      .dwattr $C$DW$247, DW_AT_TI_begin_file("../c5535_bsl_revc/ezdsp5535_v1/c55xx_csl/src/csl_msc.c")
    2697                      .dwattr $C$DW$247, DW_AT_TI_begin_line(0xd0)
    2698                      .dwattr $C$DW$247, DW_AT_TI_begin_column(0x13)
    2699                      .dwattr $C$DW$247, DW_AT_TI_max_frame_size(0x0c)
    2700                      .dwpsn  file "../c5535_bsl_revc/ezdsp5535_v1/c55xx_csl/src/csl_msc.c",line 210,column 1,is_stmt,addre
    2701              
    2702                      .dwfde $C$DW$CIE, _MSC_Setup
    2703              $C$DW$248       .dwtag  DW_TAG_formal_parameter, DW_AT_name("pAppClassHandle")
    2704                      .dwattr $C$DW$248, DW_AT_TI_symbol_name("_pAppClassHandle")
    2705                      .dwattr $C$DW$248, DW_AT_type(*$C$DW$T$102)
    2706                      .dwattr $C$DW$248, DW_AT_location[DW_OP_reg17]
    2707              $C$DW$249       .dwtag  DW_TAG_formal_parameter, DW_AT_name("usbSpeedCfg")
    2708                      .dwattr $C$DW$249, DW_AT_TI_symbol_name("_usbSpeedCfg")
    2709                      .dwattr $C$DW$249, DW_AT_type(*$C$DW$T$46)
    2710                      .dwattr $C$DW$249, DW_AT_location[DW_OP_reg12]
    2711              ;*******************************************************************************
    2712              ;* FUNCTION NAME: MSC_Setup                                                    *
    2713              ;*                                                                             *
    2714              ;*   Function Uses Regs : AC0,AC0,AC1,AC1,AC2,AC2,T0,T1,AR0,XAR0,AR1,AR2,XAR2, *
    2715              ;*                        AR3,XAR3,SP,CARRY,TC1,M40,SATA,SATD,RDM,FRCT,SMUL    *
    2716              ;*   Stack Frame        : Compact (No Frame Pointer, w/ debug)                 *
    2717              ;*   Total Frame Size   : 12 words                                             *
    2718              ;*                        (1 return address/alignment)                         *
    2719              ;*                        (11 local values)                                    *
    2720              ;*   Min System Stack   : 1 word                                               *
    2721              ;*******************************************************************************
    2722 000864       _MSC_Setup:
    2723                      .dwcfi  cfa_offset, 1
    2724                      .dwcfi  save_reg_to_mem, 91, -1
    2725 000864 4EF5          AADD #-11, SP
    2726                      .dwcfi  cfa_offset, 12
    2727              $C$DW$250       .dwtag  DW_TAG_variable, DW_AT_name("pAppClassHandle")
    2728                      .dwattr $C$DW$250, DW_AT_TI_symbol_name("_pAppClassHandle")
    2729                      .dwattr $C$DW$250, DW_AT_type(*$C$DW$T$102)
    2730                      .dwattr $C$DW$250, DW_AT_location[DW_OP_bregx 0x24 0]
    2731              $C$DW$251       .dwtag  DW_TAG_variable, DW_AT_name("usbSpeedCfg")
    2732                      .dwattr $C$DW$251, DW_AT_TI_symbol_name("_usbSpeedCfg")
    2733                      .dwattr $C$DW$251, DW_AT_type(*$C$DW$T$46)
    2734                      .dwattr $C$DW$251, DW_AT_location[DW_OP_bregx 0x24 2]
    2735              $C$DW$252       .dwtag  DW_TAG_variable, DW_AT_name("pHandle")
    2736                      .dwattr $C$DW$252, DW_AT_TI_symbol_name("_pHandle")
    2737                      .dwattr $C$DW$252, DW_AT_type(*$C$DW$T$98)
    2738                      .dwattr $C$DW$252, DW_AT_location[DW_OP_bregx 0x24 4]
    2739              $C$DW$253       .dwtag  DW_TAG_variable, DW_AT_name("mediaStatus")
    2740                      .dwattr $C$DW$253, DW_AT_TI_symbol_name("_mediaStatus")
    2741                      .dwattr $C$DW$253, DW_AT_type(*$C$DW$T$52)
    2742                      .dwattr $C$DW$253, DW_AT_location[DW_OP_bregx 0x24 6]
    2743              $C$DW$254       .dwtag  DW_TAG_variable, DW_AT_name("status")
TMS320C55x Assembler PC v4.4.1 Tue Oct 02 02:33:20 2018

Tools Copyright (c) 1996-2012 Texas Instruments Incorporated
csl_msc.asm                                                          PAGE   61

    2744                      .dwattr $C$DW$254, DW_AT_TI_symbol_name("_status")
    2745                      .dwattr $C$DW$254, DW_AT_type(*$C$DW$T$89)
    2746                      .dwattr $C$DW$254, DW_AT_location[DW_OP_bregx 0x24 7]
    2747              $C$DW$255       .dwtag  DW_TAG_variable, DW_AT_name("initLun")
    2748                      .dwattr $C$DW$255, DW_AT_TI_symbol_name("_initLun")
    2749                      .dwattr $C$DW$255, DW_AT_type(*$C$DW$T$25)
    2750                      .dwattr $C$DW$255, DW_AT_location[DW_OP_bregx 0x24 8]
    2751              $C$DW$256       .dwtag  DW_TAG_variable, DW_AT_name("eventMask")
    2752                      .dwattr $C$DW$256, DW_AT_TI_symbol_name("_eventMask")
    2753                      .dwattr $C$DW$256, DW_AT_type(*$C$DW$T$25)
    2754                      .dwattr $C$DW$256, DW_AT_location[DW_OP_bregx 0x24 9]
    2755              $C$DW$257       .dwtag  DW_TAG_variable, DW_AT_name("maxPktSize")
    2756                      .dwattr $C$DW$257, DW_AT_TI_symbol_name("_maxPktSize")
    2757                      .dwattr $C$DW$257, DW_AT_type(*$C$DW$T$25)
    2758                      .dwattr $C$DW$257, DW_AT_location[DW_OP_bregx 0x24 10]
    2759 000866 C404          MOV T0, *SP(#2) ; |210| 
    2760 000868 EB00          MOV XAR0, dbl(*SP(#0))
         00086a 85   
    2761                      .dwpsn  file "../c5535_bsl_revc/ezdsp5535_v1/c55xx_csl/src/csl_msc.c",line 218,column 2,is_stmt
    2762 00086b E60E          MOV #0, *SP(#7) ; |218| 
         00086d 00   
    2763                      .dwpsn  file "../c5535_bsl_revc/ezdsp5535_v1/c55xx_csl/src/csl_msc.c",line 219,column 2,is_stmt
    2764 00086e ED00          MOV dbl(*SP(#0)), XAR3
         000870 BF   
    2765 000871 ED61          MOV dbl(*AR3), XAR3
         000873 BF   
    2766 000874 EB08          MOV XAR3, dbl(*SP(#4))
         000876 B5   
    2767                      .dwpsn  file "../c5535_bsl_revc/ezdsp5535_v1/c55xx_csl/src/csl_msc.c",line 221,column 2,is_stmt
    2768 000877 ED00          MOV dbl(*SP(#0)), XAR3
         000879 BF   
    2769 00087a 90B0          MOV XAR3, AC0
    2770 00087c 6D00          BCC $C$L60,AC0 == #0 ; |221| 
         00087e 030D 
    2771                                                      ; branchcc occurs ; |221| 
    2772                      .dwpsn  file "../c5535_bsl_revc/ezdsp5535_v1/c55xx_csl/src/csl_msc.c",line 224,column 3,is_stmt
    2773 000880 A979          MOV *AR3(short(#4)), AR1 ; |224| 
    2774 000882 6589          BCC $C$L51,AR1 == #0 ; |224| 
    2775                                                      ; branchcc occurs ; |224| 
    2776                      .dwpsn  file "../c5535_bsl_revc/ezdsp5535_v1/c55xx_csl/src/csl_msc.c",line 226,column 4,is_stmt
    2777 000884 A979          MOV *AR3(short(#4)), AR1 ; |226| 
    2778 000886 ED08          MOV dbl(*SP(#4)), XAR3
         000888 BF   
    2779 000889 4219          SUB #1, AR1 ; |226| 
    2780 00088b C96D          MOV AR1, *AR3(#536) ; |226| 
         00088d 0218 
    2781 00088f       $C$L51:    
    2782                      .dwpsn  file "../c5535_bsl_revc/ezdsp5535_v1/c55xx_csl/src/csl_msc.c",line 228,column 3,is_stmt
    2783 00088f ED08          MOV dbl(*SP(#4)), XAR3
         000891 BF   
    2784 000892 E66D          MOV #0, *AR3(#20) ; |228| 
         000894 0000 
         000896 14   
    2785                      .dwpsn  file "../c5535_bsl_revc/ezdsp5535_v1/c55xx_csl/src/csl_msc.c",line 231,column 3,is_stmt
    2786 000897 ED08          MOV dbl(*SP(#4)), XAR3
TMS320C55x Assembler PC v4.4.1 Tue Oct 02 02:33:20 2018

Tools Copyright (c) 1996-2012 Texas Instruments Incorporated
csl_msc.asm                                                          PAGE   62

         000899 BF   
    2787 00089a E66D          MOV #0, *AR3(#42) ; |231| 
         00089c 0000 
         00089e 2A   
    2788                      .dwpsn  file "../c5535_bsl_revc/ezdsp5535_v1/c55xx_csl/src/csl_msc.c",line 232,column 3,is_stmt
    2789 00089f ED08          MOV dbl(*SP(#4)), XAR3
         0008a1 BF   
    2790 0008a2 E66D          MOV #0, *AR3(#150) ; |232| 
         0008a4 0000 
         0008a6 96   
    2791                      .dwpsn  file "../c5535_bsl_revc/ezdsp5535_v1/c55xx_csl/src/csl_msc.c",line 235,column 3,is_stmt
    2792 0008a7 ED08          MOV dbl(*SP(#4)), XAR3
         0008a9 BF   
    2793 0008aa ED08          MOV dbl(*SP(#4)), XAR2
         0008ac AF   
    2794 0008ad 1416          AADD #22, AR3 ; |235| 
         0008af B4   
    2795 0008b0 EB4D          MOV XAR3, dbl(*AR2(#44))
         0008b2 B500 
         0008b4 2C   
    2796                      .dwpsn  file "../c5535_bsl_revc/ezdsp5535_v1/c55xx_csl/src/csl_msc.c",line 236,column 3,is_stmt
    2797 0008b5 ED08          MOV dbl(*SP(#4)), XAR2
         0008b7 AF   
    2798 0008b8 ED08          MOV dbl(*SP(#4)), XAR3
         0008ba BF   
    2799 0008bb EB4D          MOV XAR3, dbl(*AR2(#46))
         0008bd B500 
         0008bf 2E   
    2800                      .dwpsn  file "../c5535_bsl_revc/ezdsp5535_v1/c55xx_csl/src/csl_msc.c",line 237,column 3,is_stmt
    2801 0008c0 ED08          MOV dbl(*SP(#4)), XAR3
         0008c2 BF   
    2802 0008c3 ED08          MOV dbl(*SP(#4)), XAR2
         0008c5 AF   
    2803 0008c6 B46F          AMAR *+AR3(#516) ; |237| 
         0008c8 0204 
    2804 0008ca EB4D          MOV XAR3, dbl(*AR2(#48))
         0008cc B500 
         0008ce 30   
    2805                      .dwpsn  file "../c5535_bsl_revc/ezdsp5535_v1/c55xx_csl/src/csl_msc.c",line 238,column 3,is_stmt
    2806 0008cf ED08          MOV dbl(*SP(#4)), XAR3
         0008d1 BF   
    2807 0008d2 ED08          MOV dbl(*SP(#4)), XAR2
         0008d4 AF   
    2808 0008d5 B46F          AMAR *+AR3(#496) ; |238| 
         0008d7 01F0 
    2809 0008d9 EB4D          MOV XAR3, dbl(*AR2(#50))
         0008db B500 
         0008dd 32   
    2810                      .dwpsn  file "../c5535_bsl_revc/ezdsp5535_v1/c55xx_csl/src/csl_msc.c",line 239,column 3,is_stmt
    2811 0008de ED08          MOV dbl(*SP(#4)), XAR3
         0008e0 BF   
    2812 0008e1 3C00          MOV #0, AC0 ; |239| 
    2813 0008e3 EB6D          MOV AC0, dbl(*AR3(#52))
         0008e5 0800 
         0008e7 34   
TMS320C55x Assembler PC v4.4.1 Tue Oct 02 02:33:20 2018

Tools Copyright (c) 1996-2012 Texas Instruments Incorporated
csl_msc.asm                                                          PAGE   63

    2814                      .dwpsn  file "../c5535_bsl_revc/ezdsp5535_v1/c55xx_csl/src/csl_msc.c",line 242,column 3,is_stmt
    2815 0008e8 ED00          MOV dbl(*SP(#0)), XAR3
         0008ea BF   
    2816 0008eb ED08          MOV dbl(*SP(#4)), XAR2
         0008ed AF   
    2817 0008ee ED7D          MOV dbl(*AR3(short(#6))), XAR3
         0008f0 BF   
    2818 0008f1 B44F          AMAR *+AR2(#146) ; |242| 
         0008f3 0092 
    2819 0008f5 EB61          MOV XAR2, dbl(*AR3)
         0008f7 A5   
    2820                      .dwpsn  file "../c5535_bsl_revc/ezdsp5535_v1/c55xx_csl/src/csl_msc.c",line 245,column 3,is_stmt
    2821 0008f8 ED00          MOV dbl(*SP(#0)), XAR3
         0008fa BF   
    2822 0008fb ED08          MOV dbl(*SP(#4)), XAR2
         0008fd AF   
    2823 0008fe ED7D          MOV dbl(*AR3(short(#6))), XAR3
         000900 BF   
    2824 000901 EB4D          MOV XAR3, dbl(*AR2(#170))
         000903 B500 
         000905 AA   
    2825                      .dwpsn  file "../c5535_bsl_revc/ezdsp5535_v1/c55xx_csl/src/csl_msc.c",line 246,column 3,is_stmt
    2826 000906 ED00          MOV dbl(*SP(#0)), XAR3
         000908 BF   
    2827 000909 ED08          MOV dbl(*SP(#4)), XAR2
         00090b AF   
    2828 00090c ED6D          MOV dbl(*AR3(#10)), XAR3
         00090e BF00 
         000910 0A   
    2829 000911 EB4D          MOV XAR3, dbl(*AR2(#172))
         000913 B500 
         000915 AC   
    2830                      .dwpsn  file "../c5535_bsl_revc/ezdsp5535_v1/c55xx_csl/src/csl_msc.c",line 247,column 3,is_stmt
    2831 000916 ED08          MOV dbl(*SP(#4)), XAR3
         000918 BF   
    2832 000919 A904          MOV *SP(#2), AR1 ; |247| 
    2833 00091b C96D          MOV AR1, *AR3(#176) ; |247| 
         00091d 00B0 
    2834                      .dwpsn  file "../c5535_bsl_revc/ezdsp5535_v1/c55xx_csl/src/csl_msc.c",line 250,column 3,is_stmt
    2835 00091f ED08          MOV dbl(*SP(#4)), XAR0
         000921 8F   
    2836              $C$DW$258       .dwtag  DW_TAG_TI_branch
    2837                      .dwattr $C$DW$258, DW_AT_low_pc(0x00)
    2838                      .dwattr $C$DW$258, DW_AT_name("_MSC_initCtrlDesc")
    2839                      .dwattr $C$DW$258, DW_AT_TI_call
    2840 000922 0808          CALL #_MSC_initCtrlDesc ; |250| 
         000924 67   
    2841                                                      ; call occurs [#_MSC_initCtrlDesc] ; |250| 
    2842 000925 C40E          MOV T0, *SP(#7) ; |250| 
    2843                      .dwpsn  file "../c5535_bsl_revc/ezdsp5535_v1/c55xx_csl/src/csl_msc.c",line 251,column 3,is_stmt
    2844 000927 2249          MOV T0, AR1
    2845 000929 6D19          BCC $C$L62,AR1 != #0 ; |251| 
         00092b 0265 
    2846                                                      ; branchcc occurs ; |251| 
    2847                      .dwpsn  file "../c5535_bsl_revc/ezdsp5535_v1/c55xx_csl/src/csl_msc.c",line 253,column 4,is_stmt
TMS320C55x Assembler PC v4.4.1 Tue Oct 02 02:33:20 2018

Tools Copyright (c) 1996-2012 Texas Instruments Incorporated
csl_msc.asm                                                          PAGE   64

    2848                      .dwpsn  file "../c5535_bsl_revc/ezdsp5535_v1/c55xx_csl/src/csl_msc.c",line 257,column 3,is_stmt
    2849 00092d ED00          MOV dbl(*SP(#0)), XAR3
         00092f BF   
    2850 000930 A977          MOV *AR3(short(#3)), AR1 ; |257| 
    2851 000932 ED08          MOV dbl(*SP(#4)), XAR3
         000934 BF   
    2852 000935 C96D          MOV AR1, *AR3(#99) ; |257| 
         000937 0063 
    2853                      .dwpsn  file "../c5535_bsl_revc/ezdsp5535_v1/c55xx_csl/src/csl_msc.c",line 258,column 3,is_stmt
    2854 000939 ED00          MOV dbl(*SP(#0)), XAR3
         00093b BF   
    2855 00093c A975          MOV *AR3(short(#2)), AR1 ; |258| 
    2856 00093e ED08          MOV dbl(*SP(#4)), XAR3
         000940 BF   
    2857 000941 C96D          MOV AR1, *AR3(#100) ; |258| 
         000943 0064 
    2858                      .dwpsn  file "../c5535_bsl_revc/ezdsp5535_v1/c55xx_csl/src/csl_msc.c",line 261,column 3,is_stmt
    2859 000945 ED00          MOV dbl(*SP(#0)), XAR3
         000947 BF   
    2860 000948 ED08          MOV dbl(*SP(#4)), XAR2
         00094a AF   
    2861 00094b ED6D          MOV dbl(*AR3(#8)), XAR3
         00094d BF00 
         00094f 08   
    2862 000950 EB4D          MOV XAR3, dbl(*AR2(#196))
         000952 B500 
         000954 C4   
    2863                      .dwpsn  file "../c5535_bsl_revc/ezdsp5535_v1/c55xx_csl/src/csl_msc.c",line 262,column 3,is_stmt
    2864 000955 ED00          MOV dbl(*SP(#0)), XAR3
         000957 BF   
    2865 000958 7600          MOV #182, T0 ; |262| 
         00095a B648 
    2866 00095c ED08          MOV dbl(*SP(#4)), XAR2
         00095e AF   
    2867 00095f 1410          AADD #16, AR3 ; |262| 
         000961 B4   
    2868 000962 8061          MOV dbl(*AR3), dbl(*AR2(T0)) ; |262| 
         000964 70   
    2869                      .dwpsn  file "../c5535_bsl_revc/ezdsp5535_v1/c55xx_csl/src/csl_msc.c",line 263,column 3,is_stmt
    2870 000965 ED00          MOV dbl(*SP(#0)), XAR3
         000967 BF   
    2871 000968 7600          MOV #184, T0 ; |263| 
         00096a B848 
    2872 00096c ED08          MOV dbl(*SP(#4)), XAR2
         00096e AF   
    2873 00096f 1412          AADD #18, AR3 ; |263| 
         000971 B4   
    2874 000972 8061          MOV dbl(*AR3), dbl(*AR2(T0)) ; |263| 
         000974 70   
    2875                      .dwpsn  file "../c5535_bsl_revc/ezdsp5535_v1/c55xx_csl/src/csl_msc.c",line 264,column 3,is_stmt
    2876 000975 ED00          MOV dbl(*SP(#0)), XAR3
         000977 BF   
    2877 000978 7600          MOV #186, T0 ; |264| 
         00097a BA48 
    2878 00097c ED08          MOV dbl(*SP(#4)), XAR2
TMS320C55x Assembler PC v4.4.1 Tue Oct 02 02:33:20 2018

Tools Copyright (c) 1996-2012 Texas Instruments Incorporated
csl_msc.asm                                                          PAGE   65

         00097e AF   
    2879 00097f 1414          AADD #20, AR3 ; |264| 
         000981 B4   
    2880 000982 8061          MOV dbl(*AR3), dbl(*AR2(T0)) ; |264| 
         000984 70   
    2881                      .dwpsn  file "../c5535_bsl_revc/ezdsp5535_v1/c55xx_csl/src/csl_msc.c",line 266,column 3,is_stmt
    2882 000985 ED00          MOV dbl(*SP(#0)), XAR3
         000987 BF   
    2883 000988 7600          MOV #188, T0 ; |266| 
         00098a BC48 
    2884 00098c ED08          MOV dbl(*SP(#4)), XAR2
         00098e AF   
    2885 00098f 1416          AADD #22, AR3 ; |266| 
         000991 B4   
    2886 000992 8061          MOV dbl(*AR3), dbl(*AR2(T0)) ; |266| 
         000994 70   
    2887                      .dwpsn  file "../c5535_bsl_revc/ezdsp5535_v1/c55xx_csl/src/csl_msc.c",line 267,column 3,is_stmt
    2888 000995 ED00          MOV dbl(*SP(#0)), XAR3
         000997 BF   
    2889 000998 7600          MOV #190, T0 ; |267| 
         00099a BE48 
    2890 00099c ED08          MOV dbl(*SP(#4)), XAR2
         00099e AF   
    2891 00099f 1418          AADD #24, AR3 ; |267| 
         0009a1 B4   
    2892 0009a2 8061          MOV dbl(*AR3), dbl(*AR2(T0)) ; |267| 
         0009a4 70   
    2893                      .dwpsn  file "../c5535_bsl_revc/ezdsp5535_v1/c55xx_csl/src/csl_msc.c",line 268,column 3,is_stmt
    2894 0009a5 ED00          MOV dbl(*SP(#0)), XAR3
         0009a7 BF   
    2895 0009a8 7600          MOV #192, T0 ; |268| 
         0009aa C048 
    2896 0009ac ED08          MOV dbl(*SP(#4)), XAR2
         0009ae AF   
    2897 0009af 141A          AADD #26, AR3 ; |268| 
         0009b1 B4   
    2898 0009b2 8061          MOV dbl(*AR3), dbl(*AR2(T0)) ; |268| 
         0009b4 70   
    2899                      .dwpsn  file "../c5535_bsl_revc/ezdsp5535_v1/c55xx_csl/src/csl_msc.c",line 269,column 3,is_stmt
    2900 0009b5 ED00          MOV dbl(*SP(#0)), XAR3
         0009b7 BF   
    2901 0009b8 7600          MOV #194, T0 ; |269| 
         0009ba C248 
    2902 0009bc ED08          MOV dbl(*SP(#4)), XAR2
         0009be AF   
    2903 0009bf 141C          AADD #28, AR3 ; |269| 
         0009c1 B4   
    2904 0009c2 8061          MOV dbl(*AR3), dbl(*AR2(T0)) ; |269| 
         0009c4 70   
    2905                      .dwpsn  file "../c5535_bsl_revc/ezdsp5535_v1/c55xx_csl/src/csl_msc.c",line 272,column 3,is_stmt
    2906 0009c5 ED08          MOV dbl(*SP(#4)), XAR0
         0009c7 8F   
    2907 0009c8 B40F          AMAR *+AR0(#182) ; |272| 
         0009ca 00B6 
    2908              $C$DW$259       .dwtag  DW_TAG_TI_branch
TMS320C55x Assembler PC v4.4.1 Tue Oct 02 02:33:20 2018

Tools Copyright (c) 1996-2012 Texas Instruments Incorporated
csl_msc.asm                                                          PAGE   66

    2909                      .dwattr $C$DW$259, DW_AT_low_pc(0x00)
    2910                      .dwattr $C$DW$259, DW_AT_name("_MSC_initMscVal")
    2911                      .dwattr $C$DW$259, DW_AT_TI_call
    2912 0009cc 080B          CALL #_MSC_initMscVal ; |272| 
         0009ce 5D   
    2913                                                      ; call occurs [#_MSC_initMscVal] ; |272| 
    2914 0009cf C40E          MOV T0, *SP(#7) ; |272| 
    2915                      .dwpsn  file "../c5535_bsl_revc/ezdsp5535_v1/c55xx_csl/src/csl_msc.c",line 273,column 3,is_stmt
    2916 0009d1 2249          MOV T0, AR1
    2917 0009d3 6D19          BCC $C$L62,AR1 != #0 ; |273| 
         0009d5 01BB 
    2918                                                      ; branchcc occurs ; |273| 
    2919                      .dwpsn  file "../c5535_bsl_revc/ezdsp5535_v1/c55xx_csl/src/csl_msc.c",line 275,column 4,is_stmt
    2920                      .dwpsn  file "../c5535_bsl_revc/ezdsp5535_v1/c55xx_csl/src/csl_msc.c",line 279,column 3,is_stmt
    2921 0009d7 E612          MOV #61, *SP(#9) ; |279| 
         0009d9 3D   
    2922                      .dwpsn  file "../c5535_bsl_revc/ezdsp5535_v1/c55xx_csl/src/csl_msc.c",line 283,column 3,is_stmt
    2923 0009da F004          CMP *SP(#2) == #1, TC1 ; |283| 
         0009dc 0001 
    2924 0009de 6374          BCC $C$L52,!TC1 ; |283| 
    2925                                                      ; branchcc occurs ; |283| 
    2926                      .dwpsn  file "../c5535_bsl_revc/ezdsp5535_v1/c55xx_csl/src/csl_msc.c",line 285,column 4,is_stmt
    2927 0009e0 FB14          MOV #512, *SP(#10) ; |285| 
         0009e2 0200 
    2928                      .dwpsn  file "../c5535_bsl_revc/ezdsp5535_v1/c55xx_csl/src/csl_msc.c",line 286,column 3,is_stmt
    2929 0009e4 4A03          B $C$L53  ; |286| 
    2930                                                      ; branch occurs ; |286| 
    2931 0009e6       $C$L52:    
    2932                      .dwpsn  file "../c5535_bsl_revc/ezdsp5535_v1/c55xx_csl/src/csl_msc.c",line 289,column 4,is_stmt
    2933 0009e6 E614          MOV #64, *SP(#10) ; |289| 
         0009e8 40   
    2934 0009e9       $C$L53:    
    2935                      .dwpsn  file "../c5535_bsl_revc/ezdsp5535_v1/c55xx_csl/src/csl_msc.c",line 292,column 3,is_stmt
    2936 0009e9 ED08          MOV dbl(*SP(#4)), XAR3
         0009eb BF   
    2937 0009ec A46D          MOV *AR3(#20), T0 ; |292| 
         0009ee 0014 
    2938 0009f0 ED00          MOV dbl(*SP(#0)), XAR3
         0009f2 BF   
    2939 0009f3 ED08          MOV dbl(*SP(#4)), XAR0
         0009f5 8F   
    2940              
    2941 0009fa 3D05          MOV #0, T1
    2942 0009f6 7600  ||      MOV #64, AR2 ; |292| 
         0009f8 40A8 
    2943              
    2944 0009fc ED6D          MOV dbl(*AR3(#14)), AC0 ; |292| 
         0009fe 0800 
         000a00 0E   
    2945              
    2946 000a01 8A12          MOV *SP(#9), AR3 ; |292| 
         000a03 8B1C 
         000a05 16   
    2947              ||      AADD #22, AR0 ; |292| 
    2948              
TMS320C55x Assembler PC v4.4.1 Tue Oct 02 02:33:20 2018

Tools Copyright (c) 1996-2012 Texas Instruments Incorporated
csl_msc.asm                                                          PAGE   67

    2949              $C$DW$260       .dwtag  DW_TAG_TI_branch
    2950                      .dwattr $C$DW$260, DW_AT_low_pc(0x00)
    2951                      .dwattr $C$DW$260, DW_AT_name("_USB_initEndptObj")
    2952                      .dwattr $C$DW$260, DW_AT_TI_call
    2953              
    2954 000a06 6C00          CALL #_USB_initEndptObj ; |292| 
         000a08 0000!
    2955 000a0a 3D09  ||      MOV #0, AR1
    2956              
    2957                                                      ; call occurs [#_USB_initEndptObj] ; |292| 
    2958 000a0c C40E          MOV T0, *SP(#7) ; |292| 
    2959                      .dwpsn  file "../c5535_bsl_revc/ezdsp5535_v1/c55xx_csl/src/csl_msc.c",line 299,column 3,is_stmt
    2960 000a0e 2249          MOV T0, AR1
    2961 000a10 6D19          BCC $C$L62,AR1 != #0 ; |299| 
         000a12 017E 
    2962                                                      ; branchcc occurs ; |299| 
    2963                      .dwpsn  file "../c5535_bsl_revc/ezdsp5535_v1/c55xx_csl/src/csl_msc.c",line 301,column 4,is_stmt
    2964                      .dwpsn  file "../c5535_bsl_revc/ezdsp5535_v1/c55xx_csl/src/csl_msc.c",line 305,column 3,is_stmt
    2965 000a14 ED08          MOV dbl(*SP(#4)), XAR3
         000a16 BF   
    2966 000a17 A46D          MOV *AR3(#20), T0 ; |305| 
         000a19 0014 
    2967 000a1b ED00          MOV dbl(*SP(#0)), XAR3
         000a1d BF   
    2968 000a1e ED08          MOV dbl(*SP(#4)), XAR0
         000a20 8F   
    2969 000a21 7600          MOV #64, AR2 ; |305| 
         000a23 40A8 
    2970 000a25 ED6D          MOV dbl(*AR3(#14)), AC0 ; |305| 
         000a27 0800 
         000a29 0E   
    2971              
    2972 000a2a 7600          MOV #32, AR3 ; |305| 
         000a2c 20B8 
    2973 000a2e 3D85  ||      MOV #8, T1
    2974              
    2975              $C$DW$261       .dwtag  DW_TAG_TI_branch
    2976                      .dwattr $C$DW$261, DW_AT_low_pc(0x00)
    2977                      .dwattr $C$DW$261, DW_AT_name("_USB_initEndptObj")
    2978                      .dwattr $C$DW$261, DW_AT_TI_call
    2979              
    2980 000a30 6C00          CALL #_USB_initEndptObj ; |305| 
         000a32 0000!
    2981 000a34 3D09  ||      MOV #0, AR1
    2982              
    2983                                                      ; call occurs [#_USB_initEndptObj] ; |305| 
    2984 000a36 C40E          MOV T0, *SP(#7) ; |305| 
    2985                      .dwpsn  file "../c5535_bsl_revc/ezdsp5535_v1/c55xx_csl/src/csl_msc.c",line 312,column 3,is_stmt
    2986 000a38 2249          MOV T0, AR1
    2987 000a3a 6D19          BCC $C$L62,AR1 != #0 ; |312| 
         000a3c 0154 
    2988                                                      ; branchcc occurs ; |312| 
    2989                      .dwpsn  file "../c5535_bsl_revc/ezdsp5535_v1/c55xx_csl/src/csl_msc.c",line 314,column 4,is_stmt
    2990                      .dwpsn  file "../c5535_bsl_revc/ezdsp5535_v1/c55xx_csl/src/csl_msc.c",line 318,column 3,is_stmt
    2991 000a3e E612          MOV #33, *SP(#9) ; |318| 
TMS320C55x Assembler PC v4.4.1 Tue Oct 02 02:33:20 2018

Tools Copyright (c) 1996-2012 Texas Instruments Incorporated
csl_msc.asm                                                          PAGE   68

         000a40 21   
    2992                      .dwpsn  file "../c5535_bsl_revc/ezdsp5535_v1/c55xx_csl/src/csl_msc.c",line 319,column 3,is_stmt
    2993 000a41 ED08          MOV dbl(*SP(#4)), XAR3
         000a43 BF   
    2994 000a44 ED08          MOV dbl(*SP(#4)), XAR0
         000a46 8F   
    2995 000a47 A46D          MOV *AR3(#20), T0 ; |319| 
         000a49 0014 
    2996 000a4b ED00          MOV dbl(*SP(#0)), XAR3
         000a4d BF   
    2997 000a4e AA14          MOV *SP(#10), AR2 ; |319| 
    2998 000a50 B40F          AMAR *+AR0(#496) ; |319| 
         000a52 01F0 
    2999 000a54 ED6D          MOV dbl(*AR3(#12)), AC0 ; |319| 
         000a56 0800 
         000a58 0C   
    3000              
    3001 000a59 AB12          MOV *SP(#9), AR3 ; |319| 
    3002 000a5b 3D95  ||      MOV #9, T1
    3003              
    3004              $C$DW$262       .dwtag  DW_TAG_TI_branch
    3005                      .dwattr $C$DW$262, DW_AT_low_pc(0x00)
