TMS320C55x Assembler PC v4.4.1 Tue Oct 02 02:33:01 2018

Tools Copyright (c) 1996-2012 Texas Instruments Incorporated
csl_lcdc.asm                                                         PAGE    1

    2656              ; Temporary Registers Used: None
       1              ;*******************************************************************************
       2              ;* TMS320C55x C/C++ Codegen                                          PC v4.4.1 *
       3              ;* Date/Time created: Tue Oct 02 02:32:59 2018                                 *
       4              ;*******************************************************************************
       5                      .compiler_opts --hll_source=on --mem_model:code=flat --mem_model:data=large --object_format=coff --si
       6                      .mmregs
       7                      .cpl_on
       8                      .arms_on
       9                      .c54cm_off
      10                      .asg AR6, FP
      11                      .asg XAR6, XFP
      12                      .asg DPH, MDP
      13                      .model call=c55_std
      14                      .model mem=large
      15                      .noremark 5002  ; code respects overwrite rules
      16              ;*******************************************************************************
      17              ;* GLOBAL FILE PARAMETERS                                                      *
      18              ;*                                                                             *
      19              ;*   Architecture       : TMS320C55x                                           *
      20              ;*   Optimizing for     : Speed                                                *
      21              ;*   Memory             : Large Model (23-Bit Data Pointers)                   *
      22              ;*   Calls              : Normal Library ASM calls                             *
      23              ;*   Debug Info         : Standard TI Debug Information                        *
      24              ;*******************************************************************************
      25              
      26              $C$DW$CU        .dwtag  DW_TAG_compile_unit
      27                      .dwattr $C$DW$CU, DW_AT_name("../c5535_bsl_revc/ezdsp5535_v1/c55xx_csl/src/csl_lcdc.c")
      28                      .dwattr $C$DW$CU, DW_AT_producer("TMS320C55x C/C++ Codegen PC v4.4.1 Copyright (c) 1996-2012 Texas In
      29                      .dwattr $C$DW$CU, DW_AT_TI_version(0x01)
      30                      .dwattr $C$DW$CU, DW_AT_comp_dir("F:\eZdsp-DBG-sim\tmp1\c55x-sim2\foo\Debug")
      31              ;       F:\t\cc5p5\ccsv5\tools\compiler\c5500_4.4.1\bin\acp55.exe -@f:\\AppData\\Local\\Temp\\2542812 
      32 000000               .sect   ".text"
      33                      .align 4
      34                      .global _LCD_init
      35              
      36              $C$DW$1 .dwtag  DW_TAG_subprogram, DW_AT_name("LCD_init")
      37                      .dwattr $C$DW$1, DW_AT_low_pc(_LCD_init)
      38                      .dwattr $C$DW$1, DW_AT_high_pc(0x00)
      39                      .dwattr $C$DW$1, DW_AT_TI_symbol_name("_LCD_init")
      40                      .dwattr $C$DW$1, DW_AT_external
      41                      .dwattr $C$DW$1, DW_AT_type(*$C$DW$T$72)
      42                      .dwattr $C$DW$1, DW_AT_TI_begin_file("../c5535_bsl_revc/ezdsp5535_v1/c55xx_csl/src/csl_lcdc.c")
      43                      .dwattr $C$DW$1, DW_AT_TI_begin_line(0x40)
      44                      .dwattr $C$DW$1, DW_AT_TI_begin_column(0x0c)
      45                      .dwattr $C$DW$1, DW_AT_TI_max_frame_size(0x01)
      46                      .dwpsn  file "../c5535_bsl_revc/ezdsp5535_v1/c55xx_csl/src/csl_lcdc.c",line 65,column 1,is_stmt,addre
      47              
      48                      .dwfde $C$DW$CIE, _LCD_init
      49              ;*******************************************************************************
      50              ;* FUNCTION NAME: LCD_init                                                     *
      51              ;*                                                                             *
      52              ;*   Function Uses Regs : AC0,AC0,T0,AR1,SP,M40,SATA,SATD,RDM,FRCT,SMUL        *
      53              ;*   Stack Frame        : Compact (No Frame Pointer, w/ debug)                 *
      54              ;*   Total Frame Size   : 1 word                                               *
TMS320C55x Assembler PC v4.4.1 Tue Oct 02 02:33:01 2018

Tools Copyright (c) 1996-2012 Texas Instruments Incorporated
csl_lcdc.asm                                                         PAGE    2

      55              ;*                        (1 return address/alignment)                         *
      56              ;*   Min System Stack   : 1 word                                               *
      57              ;*******************************************************************************
      58 000000       _LCD_init:
      59                      .dwcfi  cfa_offset, 1
      60                      .dwcfi  save_reg_to_mem, 91, -1
      61                      .dwpsn  file "../c5535_bsl_revc/ezdsp5535_v1/c55xx_csl/src/csl_lcdc.c",line 67,column 5,is_stmt
      62 000000 F451          AND #0xfffe, *port(#7171) ; |67| 
         000002 FFFE 
         000004 1C03 
      63                      .dwpsn  file "../c5535_bsl_revc/ezdsp5535_v1/c55xx_csl/src/csl_lcdc.c",line 69,column 2,is_stmt
      64 000006 3C00          MOV #0, AC0 ; |69| 
      65 000008 A951          MOV *port(#7172), AR1 ; |69| 
         00000a 1C04 
      66 00000c EC0A          BSET @#5, AC0 ; |69| 
         00000e 00   
      67 00000f C051          MOV AC0, *port(#7172) ; |69| 
         000011 1C04 
      68                      .dwpsn  file "../c5535_bsl_revc/ezdsp5535_v1/c55xx_csl/src/csl_lcdc.c",line 71,column 5,is_stmt
      69 000013 A951          MOV *port(#7173), AR1 ; |71| 
         000015 1C05 
      70 000017 EC0E          BCLR @#7, AR1 ; |71| 
         000019 92   
      71 00001a EC0E          BSET @#7, AR1 ; |71| 
         00001c 90   
      72 00001d C951          MOV AR1, *port(#7173) ; |71| 
         00001f 1C05 
      73                      .dwpsn  file "../c5535_bsl_revc/ezdsp5535_v1/c55xx_csl/src/csl_lcdc.c",line 73,column 5,is_stmt
      74 000021 3C04          MOV #0, T0
      75                      .dwpsn  file "../c5535_bsl_revc/ezdsp5535_v1/c55xx_csl/src/csl_lcdc.c",line 74,column 1,is_stmt
      76              $C$DW$2 .dwtag  DW_TAG_TI_branch
      77                      .dwattr $C$DW$2, DW_AT_low_pc(0x00)
      78                      .dwattr $C$DW$2, DW_AT_TI_return
      79 000023 4804          RET
      80                                                      ; return occurs
      81                      .dwattr $C$DW$1, DW_AT_TI_end_file("../c5535_bsl_revc/ezdsp5535_v1/c55xx_csl/src/csl_lcdc.c")
      82                      .dwattr $C$DW$1, DW_AT_TI_end_line(0x4a)
      83                      .dwattr $C$DW$1, DW_AT_TI_end_column(0x01)
      84                      .dwendentry
      85                      .dwendtag $C$DW$1
      86              
      87 000025               .sect   ".text"
      88                      .align 4
      89                      .global _LCD_open
      90              
      91              $C$DW$3 .dwtag  DW_TAG_subprogram, DW_AT_name("LCD_open")
      92                      .dwattr $C$DW$3, DW_AT_low_pc(_LCD_open)
      93                      .dwattr $C$DW$3, DW_AT_high_pc(0x00)
      94                      .dwattr $C$DW$3, DW_AT_TI_symbol_name("_LCD_open")
      95                      .dwattr $C$DW$3, DW_AT_external
      96                      .dwattr $C$DW$3, DW_AT_type(*$C$DW$T$71)
      97                      .dwattr $C$DW$3, DW_AT_TI_begin_file("../c5535_bsl_revc/ezdsp5535_v1/c55xx_csl/src/csl_lcdc.c")
      98                      .dwattr $C$DW$3, DW_AT_TI_begin_line(0x7a)
      99                      .dwattr $C$DW$3, DW_AT_TI_begin_column(0x10)
     100                      .dwattr $C$DW$3, DW_AT_TI_max_frame_size(0x0a)
TMS320C55x Assembler PC v4.4.1 Tue Oct 02 02:33:01 2018

Tools Copyright (c) 1996-2012 Texas Instruments Incorporated
csl_lcdc.asm                                                         PAGE    3

     101                      .dwpsn  file "../c5535_bsl_revc/ezdsp5535_v1/c55xx_csl/src/csl_lcdc.c",line 126,column 1,is_stmt,addr
     102              
     103                      .dwfde $C$DW$CIE, _LCD_open
     104              $C$DW$4 .dwtag  DW_TAG_formal_parameter, DW_AT_name("instanceNum")
     105                      .dwattr $C$DW$4, DW_AT_TI_symbol_name("_instanceNum")
     106                      .dwattr $C$DW$4, DW_AT_type(*$C$DW$T$19)
     107                      .dwattr $C$DW$4, DW_AT_location[DW_OP_reg12]
     108              $C$DW$5 .dwtag  DW_TAG_formal_parameter, DW_AT_name("pLcdcObj")
     109                      .dwattr $C$DW$5, DW_AT_TI_symbol_name("_pLcdcObj")
     110                      .dwattr $C$DW$5, DW_AT_type(*$C$DW$T$70)
     111                      .dwattr $C$DW$5, DW_AT_location[DW_OP_reg17]
     112              $C$DW$6 .dwtag  DW_TAG_formal_parameter, DW_AT_name("status")
     113                      .dwattr $C$DW$6, DW_AT_TI_symbol_name("_status")
     114                      .dwattr $C$DW$6, DW_AT_type(*$C$DW$T$73)
     115                      .dwattr $C$DW$6, DW_AT_location[DW_OP_reg19]
     116              ;*******************************************************************************
     117              ;* FUNCTION NAME: LCD_open                                                     *
     118              ;*                                                                             *
     119              ;*   Function Uses Regs : AC0,AC0,T0,AR0,XAR0,AR1,XAR1,AR3,XAR3,SP,M40,SATA,   *
     120              ;*                        SATD,RDM,FRCT,SMUL                                   *
     121              ;*   Stack Frame        : Compact (No Frame Pointer, w/ debug)                 *
     122              ;*   Total Frame Size   : 10 words                                             *
     123              ;*                        (2 return address/alignment)                         *
     124              ;*                        (8 local values)                                     *
     125              ;*   Min System Stack   : 1 word                                               *
     126              ;*******************************************************************************
     127 000028       _LCD_open:
     128                      .dwcfi  cfa_offset, 1
     129                      .dwcfi  save_reg_to_mem, 91, -1
     130 000028 4EF7          AADD #-9, SP
     131                      .dwcfi  cfa_offset, 10
     132              $C$DW$7 .dwtag  DW_TAG_variable, DW_AT_name("instanceNum")
     133                      .dwattr $C$DW$7, DW_AT_TI_symbol_name("_instanceNum")
     134                      .dwattr $C$DW$7, DW_AT_type(*$C$DW$T$19)
     135                      .dwattr $C$DW$7, DW_AT_location[DW_OP_bregx 0x24 0]
     136              $C$DW$8 .dwtag  DW_TAG_variable, DW_AT_name("pLcdcObj")
     137                      .dwattr $C$DW$8, DW_AT_TI_symbol_name("_pLcdcObj")
     138                      .dwattr $C$DW$8, DW_AT_type(*$C$DW$T$70)
     139                      .dwattr $C$DW$8, DW_AT_location[DW_OP_bregx 0x24 2]
     140              $C$DW$9 .dwtag  DW_TAG_variable, DW_AT_name("status")
     141                      .dwattr $C$DW$9, DW_AT_TI_symbol_name("_status")
     142                      .dwattr $C$DW$9, DW_AT_type(*$C$DW$T$73)
     143                      .dwattr $C$DW$9, DW_AT_location[DW_OP_bregx 0x24 4]
     144              $C$DW$10        .dwtag  DW_TAG_variable, DW_AT_name("hLcdc")
     145                      .dwattr $C$DW$10, DW_AT_TI_symbol_name("_hLcdc")
     146                      .dwattr $C$DW$10, DW_AT_type(*$C$DW$T$71)
     147                      .dwattr $C$DW$10, DW_AT_location[DW_OP_bregx 0x24 6]
     148 00002a EB08          MOV XAR1, dbl(*SP(#4))
         00002c 95   
     149 00002d EB04          MOV XAR0, dbl(*SP(#2))
         00002f 85   
     150 000030 C400          MOV T0, *SP(#0) ; |126| 
     151                      .dwpsn  file "../c5535_bsl_revc/ezdsp5535_v1/c55xx_csl/src/csl_lcdc.c",line 129,column 5,is_stmt
     152 000032 2249          MOV T0, AR1
     153 000034 0419          BCC $C$L1,AR1 != #0 ; |129| 
TMS320C55x Assembler PC v4.4.1 Tue Oct 02 02:33:01 2018

Tools Copyright (c) 1996-2012 Texas Instruments Incorporated
csl_lcdc.asm                                                         PAGE    4

         000036 21   
     154                                                      ; branchcc occurs ; |129| 
     155 000037 ED04          MOV dbl(*SP(#2)), XAR3
         000039 BF   
     156 00003a 90B0          MOV XAR3, AC0
     157 00003c 0400          BCC $C$L1,AC0 == #0 ; |129| 
         00003e 19   
     158                                                      ; branchcc occurs ; |129| 
     159                      .dwpsn  file "../c5535_bsl_revc/ezdsp5535_v1/c55xx_csl/src/csl_lcdc.c",line 131,column 9,is_stmt
     160 00003f A900          MOV *SP(#0), AR1 ; |131| 
     161 000041 C973          MOV AR1, *AR3(short(#1)) ; |131| 
     162                      .dwpsn  file "../c5535_bsl_revc/ezdsp5535_v1/c55xx_csl/src/csl_lcdc.c",line 132,column 9,is_stmt
     163 000043 ED04          MOV dbl(*SP(#2)), XAR3
         000045 BF   
     164 000046 FB61          MOV #11776, *AR3 ; |132| 
         000048 2E00 
     165                      .dwpsn  file "../c5535_bsl_revc/ezdsp5535_v1/c55xx_csl/src/csl_lcdc.c",line 133,column 9,is_stmt
     166 00004a ED04          MOV dbl(*SP(#2)), XAR3
         00004c BF   
     167 00004d EB0C          MOV XAR3, dbl(*SP(#6))
         00004f B5   
     168                      .dwpsn  file "../c5535_bsl_revc/ezdsp5535_v1/c55xx_csl/src/csl_lcdc.c",line 134,column 9,is_stmt
     169 000050 ED08          MOV dbl(*SP(#4)), XAR3
         000052 BF   
     170 000053 E661          MOV #0, *AR3 ; |134| 
         000055 00   
     171                      .dwpsn  file "../c5535_bsl_revc/ezdsp5535_v1/c55xx_csl/src/csl_lcdc.c",line 135,column 5,is_stmt
     172 000056 4A0B          B $C$L2   ; |135| 
     173                                                      ; branch occurs ; |135| 
     174 000058       $C$L1:    
     175                      .dwpsn  file "../c5535_bsl_revc/ezdsp5535_v1/c55xx_csl/src/csl_lcdc.c",line 138,column 9,is_stmt
     176 000058 3C00          MOV #0, AC0 ; |138| 
     177 00005a EB0C          MOV AC0, dbl(*SP(#6))
         00005c 08   
     178                      .dwpsn  file "../c5535_bsl_revc/ezdsp5535_v1/c55xx_csl/src/csl_lcdc.c",line 139,column 9,is_stmt
     179 00005d ED08          MOV dbl(*SP(#4)), XAR3
         00005f BF   
     180 000060 E661          MOV #-6, *AR3 ; |139| 
         000062 FA   
     181 000063       $C$L2:    
     182                      .dwpsn  file "../c5535_bsl_revc/ezdsp5535_v1/c55xx_csl/src/csl_lcdc.c",line 141,column 5,is_stmt
     183 000063 ED0C          MOV dbl(*SP(#6)), XAR0
         000065 8F   
     184                      .dwpsn  file "../c5535_bsl_revc/ezdsp5535_v1/c55xx_csl/src/csl_lcdc.c",line 142,column 1,is_stmt
     185 000066 4E09          AADD #9, SP
     186                      .dwcfi  cfa_offset, 1
     187              $C$DW$11        .dwtag  DW_TAG_TI_branch
     188                      .dwattr $C$DW$11, DW_AT_low_pc(0x00)
     189                      .dwattr $C$DW$11, DW_AT_TI_return
     190 000068 4804          RET
     191                                                      ; return occurs
     192                      .dwattr $C$DW$3, DW_AT_TI_end_file("../c5535_bsl_revc/ezdsp5535_v1/c55xx_csl/src/csl_lcdc.c")
     193                      .dwattr $C$DW$3, DW_AT_TI_end_line(0x8e)
     194                      .dwattr $C$DW$3, DW_AT_TI_end_column(0x01)
     195                      .dwendentry
TMS320C55x Assembler PC v4.4.1 Tue Oct 02 02:33:01 2018

Tools Copyright (c) 1996-2012 Texas Instruments Incorporated
csl_lcdc.asm                                                         PAGE    5

     196                      .dwendtag $C$DW$3
     197              
     198 00006a               .sect   ".text"
     199                      .align 4
     200                      .global _LCD_setup
     201              
     202              $C$DW$12        .dwtag  DW_TAG_subprogram, DW_AT_name("LCD_setup")
     203                      .dwattr $C$DW$12, DW_AT_low_pc(_LCD_setup)
     204                      .dwattr $C$DW$12, DW_AT_high_pc(0x00)
     205                      .dwattr $C$DW$12, DW_AT_TI_symbol_name("_LCD_setup")
     206                      .dwattr $C$DW$12, DW_AT_external
     207                      .dwattr $C$DW$12, DW_AT_type(*$C$DW$T$72)
     208                      .dwattr $C$DW$12, DW_AT_TI_begin_file("../c5535_bsl_revc/ezdsp5535_v1/c55xx_csl/src/csl_lcdc.c")
     209                      .dwattr $C$DW$12, DW_AT_TI_begin_line(0xe0)
     210                      .dwattr $C$DW$12, DW_AT_TI_begin_column(0x0c)
     211                      .dwattr $C$DW$12, DW_AT_TI_max_frame_size(0x06)
     212                      .dwpsn  file "../c5535_bsl_revc/ezdsp5535_v1/c55xx_csl/src/csl_lcdc.c",line 227,column 1,is_stmt,addr
     213              
     214                      .dwfde $C$DW$CIE, _LCD_setup
     215              $C$DW$13        .dwtag  DW_TAG_formal_parameter, DW_AT_name("hLcdc")
     216                      .dwattr $C$DW$13, DW_AT_TI_symbol_name("_hLcdc")
     217                      .dwattr $C$DW$13, DW_AT_type(*$C$DW$T$71)
     218                      .dwattr $C$DW$13, DW_AT_location[DW_OP_reg17]
     219              $C$DW$14        .dwtag  DW_TAG_formal_parameter, DW_AT_name("setup")
     220                      .dwattr $C$DW$14, DW_AT_TI_symbol_name("_setup")
     221                      .dwattr $C$DW$14, DW_AT_type(*$C$DW$T$62)
     222                      .dwattr $C$DW$14, DW_AT_location[DW_OP_reg19]
     223              ;*******************************************************************************
     224              ;* FUNCTION NAME: LCD_setup                                                    *
     225              ;*                                                                             *
     226              ;*   Function Uses Regs : AC0,AC0,AC1,T0,AR0,XAR0,AR1,XAR1,AR2,AR3,XAR3,SP,    *
     227              ;*                        CARRY,TC1,M40,SATA,SATD,RDM,FRCT,SMUL                *
     228              ;*   Stack Frame        : Compact (No Frame Pointer, w/ debug)                 *
     229              ;*   Total Frame Size   : 6 words                                              *
     230              ;*                        (1 return address/alignment)                         *
     231              ;*                        (5 local values)                                     *
     232              ;*   Min System Stack   : 1 word                                               *
     233              ;*******************************************************************************
     234 00006c       _LCD_setup:
     235                      .dwcfi  cfa_offset, 1
     236                      .dwcfi  save_reg_to_mem, 91, -1
     237 00006c 4EFB          AADD #-5, SP
     238                      .dwcfi  cfa_offset, 6
     239              $C$DW$15        .dwtag  DW_TAG_variable, DW_AT_name("hLcdc")
     240                      .dwattr $C$DW$15, DW_AT_TI_symbol_name("_hLcdc")
     241                      .dwattr $C$DW$15, DW_AT_type(*$C$DW$T$71)
     242                      .dwattr $C$DW$15, DW_AT_location[DW_OP_bregx 0x24 0]
     243              $C$DW$16        .dwtag  DW_TAG_variable, DW_AT_name("setup")
     244                      .dwattr $C$DW$16, DW_AT_TI_symbol_name("_setup")
     245                      .dwattr $C$DW$16, DW_AT_type(*$C$DW$T$62)
     246                      .dwattr $C$DW$16, DW_AT_location[DW_OP_bregx 0x24 2]
     247              $C$DW$17        .dwtag  DW_TAG_variable, DW_AT_name("tempVar")
     248                      .dwattr $C$DW$17, DW_AT_TI_symbol_name("_tempVar")
     249                      .dwattr $C$DW$17, DW_AT_type(*$C$DW$T$19)
     250                      .dwattr $C$DW$17, DW_AT_location[DW_OP_bregx 0x24 4]
TMS320C55x Assembler PC v4.4.1 Tue Oct 02 02:33:01 2018

Tools Copyright (c) 1996-2012 Texas Instruments Incorporated
csl_lcdc.asm                                                         PAGE    6

     251 00006e EB04          MOV XAR1, dbl(*SP(#2))
         000070 95   
     252 000071 EB00          MOV XAR0, dbl(*SP(#0))
         000073 85   
     253                      .dwpsn  file "../c5535_bsl_revc/ezdsp5535_v1/c55xx_csl/src/csl_lcdc.c",line 230,column 5,is_stmt
     254 000074 ED00          MOV dbl(*SP(#0)), XAR3
         000076 BF   
     255 000077 90B0          MOV XAR3, AC0
     256 000079 6400          BCC $C$L3,AC0 == #0 ; |230| 
     257                                                      ; branchcc occurs ; |230| 
     258 00007b ED04          MOV dbl(*SP(#2)), XAR3
         00007d BF   
     259 00007e 90B0          MOV XAR3, AC0
     260 000080 0410          BCC $C$L5,AC0 != #0 ; |230| 
         000082 11   
     261                                                      ; branchcc occurs ; |230| 
     262                      .dwpsn  file "../c5535_bsl_revc/ezdsp5535_v1/c55xx_csl/src/csl_lcdc.c",line 233,column 5,is_stmt
     263 000083       $C$L3:    
     264                      .dwpsn  file "../c5535_bsl_revc/ezdsp5535_v1/c55xx_csl/src/csl_lcdc.c",line 236,column 9,is_stmt
     265 000083 ED00          MOV dbl(*SP(#0)), XAR3
         000085 BF   
     266 000086 90B0          MOV XAR3, AC0
     267 000088 6290          BCC $C$L4,AC0 != #0 ; |236| 
     268                                                      ; branchcc occurs ; |236| 
     269                      .dwpsn  file "../c5535_bsl_revc/ezdsp5535_v1/c55xx_csl/src/csl_lcdc.c",line 238,column 13,is_stmt
     270 00008a 3E54          MOV #-5, T0
     271 00008c 0604          B $C$L12  ; |238| 
         00008e 45   
     272                                                      ; branch occurs ; |238| 
     273 00008f       $C$L4:    
     274                      .dwpsn  file "../c5535_bsl_revc/ezdsp5535_v1/c55xx_csl/src/csl_lcdc.c",line 242,column 13,is_stmt
     275 00008f 3E64          MOV #-6, T0
     276 000091 0604          B $C$L12  ; |242| 
         000093 40   
     277                                                      ; branch occurs ; |242| 
     278 000094       $C$L5:    
     279                      .dwpsn  file "../c5535_bsl_revc/ezdsp5535_v1/c55xx_csl/src/csl_lcdc.c",line 247,column 5,is_stmt
     280 000094 ED00          MOV dbl(*SP(#0)), XAR3
         000096 BF   
     281 000097 AB61          MOV *AR3, AR3 ; |247| 
     282 000099 1408          AMOV #8, T0
         00009b 45   
     283 00009c A96B          MOV port(*AR3(T0)), AR1 ; |247| 
         00009e 99   
     284 00009f ED00          MOV dbl(*SP(#0)), XAR3
         0000a1 BF   
     285 0000a2 AB61          MOV *AR3, AR3 ; |247| 
     286 0000a4 EC12          BCLR @#9, AR1 ; |247| 
         0000a6 92   
     287 0000a7 EC12          BSET @#9, AR1 ; |247| 
         0000a9 90   
     288 0000aa C96B          MOV AR1, port(*AR3(T0)) ; |247| 
         0000ac 9A   
     289                      .dwpsn  file "../c5535_bsl_revc/ezdsp5535_v1/c55xx_csl/src/csl_lcdc.c",line 248,column 2,is_stmt
     290 0000ad ED00          MOV dbl(*SP(#0)), XAR3
TMS320C55x Assembler PC v4.4.1 Tue Oct 02 02:33:01 2018

Tools Copyright (c) 1996-2012 Texas Instruments Incorporated
csl_lcdc.asm                                                         PAGE    7

         0000af BF   
     291 0000b0 AB61          MOV *AR3, AR3 ; |248| 
     292 0000b2 A96B          MOV port(*AR3(T0)), AR1 ; |248| 
         0000b4 99   
     293 0000b5 ED00          MOV dbl(*SP(#0)), XAR3
         0000b7 BF   
     294 0000b8 AB61          MOV *AR3, AR3 ; |248| 
     295 0000ba EC10          BCLR @#8, AR1 ; |248| 
         0000bc 92   
     296 0000bd EC10          BSET @#8, AR1 ; |248| 
         0000bf 90   
     297 0000c0 C96B          MOV AR1, port(*AR3(T0)) ; |248| 
         0000c2 9A   
     298                      .dwpsn  file "../c5535_bsl_revc/ezdsp5535_v1/c55xx_csl/src/csl_lcdc.c",line 249,column 2,is_stmt
     299 0000c3 ED00          MOV dbl(*SP(#0)), XAR3
         0000c5 BF   
     300 0000c6 AB61          MOV *AR3, AR3 ; |249| 
     301 0000c8 A96B          MOV port(*AR3(T0)), AR1 ; |249| 
         0000ca 99   
     302 0000cb ED00          MOV dbl(*SP(#0)), XAR3
         0000cd BF   
     303 0000ce AB61          MOV *AR3, AR3 ; |249| 
     304 0000d0 EC0C          BCLR @#6, AR1 ; |249| 
         0000d2 92   
     305 0000d3 EC0C          BSET @#6, AR1 ; |249| 
         0000d5 90   
     306 0000d6 C96B          MOV AR1, port(*AR3(T0)) ; |249| 
         0000d8 9A   
     307                      .dwpsn  file "../c5535_bsl_revc/ezdsp5535_v1/c55xx_csl/src/csl_lcdc.c",line 250,column 2,is_stmt
     308 0000d9 ED00          MOV dbl(*SP(#0)), XAR3
         0000db BF   
     309 0000dc AB61          MOV *AR3, AR3 ; |250| 
     310 0000de A96B          MOV port(*AR3(T0)), AR1 ; |250| 
         0000e0 99   
     311 0000e1 ED00          MOV dbl(*SP(#0)), XAR3
         0000e3 BF   
     312 0000e4 AB61          MOV *AR3, AR3 ; |250| 
     313 0000e6 EC0A          BCLR @#5, AR1 ; |250| 
         0000e8 92   
     314 0000e9 EC0A          BSET @#5, AR1 ; |250| 
         0000eb 90   
     315 0000ec C96B          MOV AR1, port(*AR3(T0)) ; |250| 
         0000ee 9A   
     316                      .dwpsn  file "../c5535_bsl_revc/ezdsp5535_v1/c55xx_csl/src/csl_lcdc.c",line 251,column 2,is_stmt
     317 0000ef ED00          MOV dbl(*SP(#0)), XAR3
         0000f1 BF   
     318 0000f2 AB61          MOV *AR3, AR3 ; |251| 
     319 0000f4 A96B          MOV port(*AR3(T0)), AR1 ; |251| 
         0000f6 99   
     320 0000f7 ED00          MOV dbl(*SP(#0)), XAR3
         0000f9 BF   
     321 0000fa AB61          MOV *AR3, AR3 ; |251| 
     322 0000fc EC06          BCLR @#3, AR1 ; |251| 
         0000fe 92   
     323 0000ff EC06          BSET @#3, AR1 ; |251| 
TMS320C55x Assembler PC v4.4.1 Tue Oct 02 02:33:01 2018

Tools Copyright (c) 1996-2012 Texas Instruments Incorporated
csl_lcdc.asm                                                         PAGE    8

         000101 90   
     324 000102 C96B          MOV AR1, port(*AR3(T0)) ; |251| 
         000104 9A   
     325                      .dwpsn  file "../c5535_bsl_revc/ezdsp5535_v1/c55xx_csl/src/csl_lcdc.c",line 252,column 2,is_stmt
     326 000105 ED00          MOV dbl(*SP(#0)), XAR3
         000107 BF   
     327 000108 AB61          MOV *AR3, AR3 ; |252| 
     328 00010a A96B          MOV port(*AR3(T0)), AR1 ; |252| 
         00010c 99   
     329 00010d ED00          MOV dbl(*SP(#0)), XAR3
         00010f BF   
     330 000110 AB61          MOV *AR3, AR3 ; |252| 
     331 000112 EC04          BCLR @#2, AR1 ; |252| 
         000114 92   
     332 000115 EC04          BSET @#2, AR1 ; |252| 
         000117 90   
     333 000118 C96B          MOV AR1, port(*AR3(T0)) ; |252| 
         00011a 9A   
     334                      .dwpsn  file "../c5535_bsl_revc/ezdsp5535_v1/c55xx_csl/src/csl_lcdc.c",line 253,column 2,is_stmt
     335 00011b ED00          MOV dbl(*SP(#0)), XAR3
         00011d BF   
     336 00011e AB61          MOV *AR3, AR3 ; |253| 
     337 000120 A96B          MOV port(*AR3(T0)), AR1 ; |253| 
         000122 99   
     338 000123 ED00          MOV dbl(*SP(#0)), XAR3
         000125 BF   
     339 000126 AB61          MOV *AR3, AR3 ; |253| 
     340 000128 EC00          BCLR @#0, AR1 ; |253| 
         00012a 92   
     341 00012b EC00          BSET @#0, AR1 ; |253| 
         00012d 90   
     342 00012e C96B          MOV AR1, port(*AR3(T0)) ; |253| 
         000130 9A   
     343                      .dwpsn  file "../c5535_bsl_revc/ezdsp5535_v1/c55xx_csl/src/csl_lcdc.c",line 256,column 5,is_stmt
     344 000131 ED00          MOV dbl(*SP(#0)), XAR3
         000133 BF   
     345 000134 AB61          MOV *AR3, AR3 ; |256| 
     346 000136 A979          MOV port(*AR3(short(#4))), AR1 ; |256| 
         000138 99   
     347 000139 ED00          MOV dbl(*SP(#0)), XAR3
         00013b BF   
     348 00013c AB61          MOV *AR3, AR3 ; |256| 
     349 00013e EC00          BCLR @#0, AR1 ; |256| 
         000140 92   
     350 000141 C979          MOV AR1, port(*AR3(short(#4))) ; |256| 
         000143 9A   
     351                      .dwpsn  file "../c5535_bsl_revc/ezdsp5535_v1/c55xx_csl/src/csl_lcdc.c",line 262,column 9,is_stmt
     352 000144 ED04          MOV dbl(*SP(#2)), XAR3
         000146 BF   
     353 000147 A97D          MOV *AR3(short(#6)), AR1 ; |262| 
     354 000149 C908          MOV AR1, *SP(#4) ; |262| 
     355                      .dwpsn  file "../c5535_bsl_revc/ezdsp5535_v1/c55xx_csl/src/csl_lcdc.c",line 263,column 9,is_stmt
     356 00014b ED00          MOV dbl(*SP(#0)), XAR3
         00014d BF   
     357 00014e AB61          MOV *AR3, AR3 ; |263| 
TMS320C55x Assembler PC v4.4.1 Tue Oct 02 02:33:01 2018

Tools Copyright (c) 1996-2012 Texas Instruments Incorporated
csl_lcdc.asm                                                         PAGE    9

     358 000150 140C          AMOV #12, T0
         000152 45   
     359 000153 A96B          MOV port(*AR3(T0)), AR1 ; |263| 
         000155 99   
     360 000156 ED04          MOV dbl(*SP(#2)), XAR3
         000158 BF   
     361 000159 F977          MOV *AR3(short(#3)) << #10, AC0 ; |263| 
         00015b 0A08 
     362 00015d ED00          MOV dbl(*SP(#0)), XAR3
         00015f BF   
     363 000160 AB61          MOV *AR3, AR3 ; |263| 
     364 000162 EC14          BCLR @#10, AR1 ; |263| 
         000164 92   
     365 000165 7D04          AND #0x0400, AC0, AR2 ; |263| 
         000167 00A0 
     366 000169 2A9A          OR AR1, AR2 ; |263| 
     367 00016b CA6B          MOV AR2, port(*AR3(T0)) ; |263| 
         00016d 9A   
     368                      .dwpsn  file "../c5535_bsl_revc/ezdsp5535_v1/c55xx_csl/src/csl_lcdc.c",line 266,column 9,is_stmt
     369 00016e ED00          MOV dbl(*SP(#0)), XAR3
         000170 BF   
     370 000171 AB61          MOV *AR3, AR3 ; |266| 
     371 000173 A96B          MOV port(*AR3(T0)), AR1 ; |266| 
         000175 99   
     372 000176 ED04          MOV dbl(*SP(#2)), XAR3
         000178 BF   
     373 000179 7DFF          AND #0xfff8, AR1, AR2 ; |266| 
         00017b F8A9 
     374 00017d A97F          MOV *AR3(short(#7)), AR1 ; |266| 
     375 00017f ED00          MOV dbl(*SP(#0)), XAR3
         000181 BF   
     376 000182 AB61          MOV *AR3, AR3 ; |266| 
     377 000184 1807          AND #0x0007, AR1, AR1 ; |266| 
         000186 99   
     378 000187 2AA9          OR AR2, AR1 ; |266| 
     379 000189 C96B          MOV AR1, port(*AR3(T0)) ; |266| 
         00018b 9A   
     380                      .dwpsn  file "../c5535_bsl_revc/ezdsp5535_v1/c55xx_csl/src/csl_lcdc.c",line 269,column 9,is_stmt
     381 00018c ED00          MOV dbl(*SP(#0)), XAR3
         00018e BF   
     382 00018f AB61          MOV *AR3, AR3 ; |269| 
     383 000191 DF79          MOV uns(low_byte(port(*AR3(short(#4))))), AR1 ; |269| 
         000193 93   
         000194 99   
     384 000195 ED04          MOV dbl(*SP(#2)), XAR3
         000197 BF   
     385 000198 A075          MOV *AR3(short(#2)), AC0 ; |269| 
     386 00019a ED00          MOV dbl(*SP(#0)), XAR3
         00019c BF   
     387 00019d AB61          MOV *AR3, AR3 ; |269| 
     388 00019f 1007          SFTL AC0, #8, AC0 ; |269| 
         0001a1 08   
     389 0001a2 7DFF          AND #0xff00, AC0, AR2 ; |269| 
         0001a4 00A0 
     390 0001a6 2A9A          OR AR1, AR2 ; |269| 
TMS320C55x Assembler PC v4.4.1 Tue Oct 02 02:33:01 2018

Tools Copyright (c) 1996-2012 Texas Instruments Incorporated
csl_lcdc.asm                                                         PAGE   10

     391 0001a8 CA79          MOV AR2, port(*AR3(short(#4))) ; |269| 
         0001aa 9A   
     392                      .dwpsn  file "../c5535_bsl_revc/ezdsp5535_v1/c55xx_csl/src/csl_lcdc.c",line 272,column 9,is_stmt
     393 0001ab ED00          MOV dbl(*SP(#0)), XAR3
         0001ad BF   
     394 0001ae AB61          MOV *AR3, AR3 ; |272| 
     395 0001b0 A96B          MOV port(*AR3(T0)), AR1 ; |272| 
         0001b2 99   
     396 0001b3 ED04          MOV dbl(*SP(#2)), XAR3
         0001b5 BF   
     397 0001b6 F979          MOV *AR3(short(#4)) << #9, AC0 ; |272| 
         0001b8 0908 
     398 0001ba ED00          MOV dbl(*SP(#0)), XAR3
         0001bc BF   
     399 0001bd AB61          MOV *AR3, AR3 ; |272| 
     400 0001bf EC12          BCLR @#9, AR1 ; |272| 
         0001c1 92   
     401 0001c2 7D02          AND #0x0200, AC0, AR2 ; |272| 
         0001c4 00A0 
     402 0001c6 2A9A          OR AR1, AR2 ; |272| 
     403 0001c8 CA6B          MOV AR2, port(*AR3(T0)) ; |272| 
         0001ca 9A   
     404                      .dwpsn  file "../c5535_bsl_revc/ezdsp5535_v1/c55xx_csl/src/csl_lcdc.c",line 275,column 9,is_stmt
     405 0001cb ED00          MOV dbl(*SP(#0)), XAR3
         0001cd BF   
     406 0001ce 3CC9          MOV #12, AR1
     407 0001d0 D661          ADD *AR3, AR1, AR3 ; |275| 
         0001d2 B9   
     408 0001d3 F461          AND #0xff7f, port(*AR3) ; |275| 
         0001d5 FF7F 
         0001d7 9A   
     409                      .dwpsn  file "../c5535_bsl_revc/ezdsp5535_v1/c55xx_csl/src/csl_lcdc.c",line 276,column 9,is_stmt
     410 0001d8 ED00          MOV dbl(*SP(#0)), XAR3
         0001da BF   
     411 0001db D661          ADD *AR3, AR1, AR3 ; |276| 
         0001dd B9   
     412 0001de F461          AND #0xffbf, port(*AR3) ; |276| 
         0001e0 FFBF 
         0001e2 9A   
     413                      .dwpsn  file "../c5535_bsl_revc/ezdsp5535_v1/c55xx_csl/src/csl_lcdc.c",line 277,column 9,is_stmt
     414 0001e3 ED00          MOV dbl(*SP(#0)), XAR3
         0001e5 BF   
     415 0001e6 D661          ADD *AR3, AR1, AR3 ; |277| 
         0001e8 B9   
     416 0001e9 F461          AND #0xffdf, port(*AR3) ; |277| 
         0001eb FFDF 
         0001ed 9A   
     417                      .dwpsn  file "../c5535_bsl_revc/ezdsp5535_v1/c55xx_csl/src/csl_lcdc.c",line 278,column 9,is_stmt
     418 0001ee ED00          MOV dbl(*SP(#0)), XAR3
         0001f0 BF   
     419 0001f1 D661          ADD *AR3, AR1, AR3 ; |278| 
         0001f3 B9   
     420 0001f4 F461          AND #0xffef, port(*AR3) ; |278| 
         0001f6 FFEF 
         0001f8 9A   
TMS320C55x Assembler PC v4.4.1 Tue Oct 02 02:33:01 2018

Tools Copyright (c) 1996-2012 Texas Instruments Incorporated
csl_lcdc.asm                                                         PAGE   11

     421                      .dwpsn  file "../c5535_bsl_revc/ezdsp5535_v1/c55xx_csl/src/csl_lcdc.c",line 279,column 9,is_stmt
     422 0001f9 ED00          MOV dbl(*SP(#0)), XAR3
         0001fb BF   
     423 0001fc D661          ADD *AR3, AR1, AR3 ; |279| 
         0001fe B9   
     424 0001ff F461          AND #0xfff7, port(*AR3) ; |279| 
         000201 FFF7 
         000203 9A   
     425                      .dwpsn  file "../c5535_bsl_revc/ezdsp5535_v1/c55xx_csl/src/csl_lcdc.c",line 280,column 9,is_stmt
     426 000204 ED00          MOV dbl(*SP(#0)), XAR3
         000206 BF   
     427 000207 D661          ADD *AR3, AR1, AR3 ; |280| 
         000209 B9   
     428 00020a A108          MOV *SP(#4), AC1 ; |280| 
     429 00020c A061          MOV port(*AR3), AC0 ; |280| 
         00020e 99   
     430 00020f 1011          OR AC1 << #3, AC0 ; |280| 
         000211 03   
     431 000212 C061          MOV AC0, port(*AR3) ; |280| 
         000214 9A   
     432                      .dwpsn  file "../c5535_bsl_revc/ezdsp5535_v1/c55xx_csl/src/csl_lcdc.c",line 283,column 9,is_stmt
     433 000215 ED00          MOV dbl(*SP(#0)), XAR3
         000217 BF   
     434 000218 AB61          MOV *AR3, AR3 ; |283| 
     435 00021a A96B          MOV port(*AR3(T0)), AR1 ; |283| 
         00021c 99   
     436 00021d ED04          MOV dbl(*SP(#2)), XAR3
         00021f BF   
     437 000220 F97B          MOV *AR3(short(#5)) << #8, AC0 ; |283| 
         000222 0808 
     438 000224 ED00          MOV dbl(*SP(#0)), XAR3
         000226 BF   
     439 000227 AB61          MOV *AR3, AR3 ; |283| 
     440 000229 EC10          BCLR @#8, AR1 ; |283| 
         00022b 92   
     441 00022c 7D01          AND #0x0100, AC0, AR2 ; |283| 
         00022e 00A0 
     442 000230 2A9A          OR AR1, AR2 ; |283| 
     443 000232 CA6B          MOV AR2, port(*AR3(T0)) ; |283| 
         000234 9A   
     444                      .dwpsn  file "../c5535_bsl_revc/ezdsp5535_v1/c55xx_csl/src/csl_lcdc.c",line 287,column 9,is_stmt
     445 000235 ED04          MOV dbl(*SP(#2)), XAR3
         000237 BF   
     446 000238 3C0A          MOV #0, AR2
     447 00023a A96D          MOV *AR3(#15), AR1 ; |287| 
         00023c 000F 
     448 00023e 12AC          CMP AR2 != AR1, TC1 ; |287| 
         000240 90   
     449 000241 6D64          BCC $C$L8,TC1 ; |287| 
         000243 0148 
     450                                                      ; branchcc occurs ; |287| 
     451                      .dwpsn  file "../c5535_bsl_revc/ezdsp5535_v1/c55xx_csl/src/csl_lcdc.c",line 290,column 13,is_stmt
     452 000245 A96D          MOV *AR3(#11), AR1 ; |290| 
         000247 000B 
     453 000249 C908          MOV AR1, *SP(#4) ; |290| 
TMS320C55x Assembler PC v4.4.1 Tue Oct 02 02:33:01 2018

Tools Copyright (c) 1996-2012 Texas Instruments Incorporated
csl_lcdc.asm                                                         PAGE   12

     454                      .dwpsn  file "../c5535_bsl_revc/ezdsp5535_v1/c55xx_csl/src/csl_lcdc.c",line 292,column 13,is_stmt
     455 00024b ED00          MOV dbl(*SP(#0)), XAR3
         00024d BF   
     456 00024e 7600          MOV #16, T0 ; |292| 
         000250 1048 
     457 000252 AB61          MOV *AR3, AR3 ; |292| 
     458 000254 A96B          MOV port(*AR3(T0)), AR1 ; |292| 
         000256 99   
     459 000257 ED04          MOV dbl(*SP(#2)), XAR3
         000259 BF   
     460 00025a A06D          MOV *AR3(#12), AC0 ; |292| 
         00025c 000C 
     461 00025e ED00          MOV dbl(*SP(#0)), XAR3
         000260 BF   
     462 000261 AB61          MOV *AR3, AR3 ; |292| 
     463              
     464 000263 7DF0          AND #0xf03f, AR1, AR2 ; |292| 
         000265 3FA9 
     465 000267 1107  ||      SFTL AC0, #6, AC0 ; |292| 
         000269 06   
     466              
     467 00026a 7D0F          AND #0x0fc0, AC0, AR1 ; |292| 
         00026c C090 
     468 00026e 2AA9          OR AR2, AR1 ; |292| 
     469 000270 C96B          MOV AR1, port(*AR3(T0)) ; |292| 
         000272 9A   
     470                      .dwpsn  file "../c5535_bsl_revc/ezdsp5535_v1/c55xx_csl/src/csl_lcdc.c",line 296,column 13,is_stmt
     471 000273 ED00          MOV dbl(*SP(#0)), XAR3
         000275 BF   
     472 000276 AB61          MOV *AR3, AR3 ; |296| 
     473 000278 A96B          MOV port(*AR3(T0)), AR1 ; |296| 
         00027a 99   
     474 00027b ED04          MOV dbl(*SP(#2)), XAR3
         00027d BF   
     475 00027e A06D          MOV *AR3(#13), AC0 ; |296| 
         000280 000D 
     476 000282 ED00          MOV dbl(*SP(#0)), XAR3
         000284 BF   
     477 000285 AB61          MOV *AR3, AR3 ; |296| 
     478              
     479 000287 7DFF          AND #0xffc3, AR1, AR2 ; |296| 
         000289 C3A9 
     480 00028b 1107  ||      SFTL AC0, #2, AC0 ; |296| 
         00028d 02   
     481              
     482 00028e 183C          AND #0x003c, AC0, AR1 ; |296| 
         000290 90   
     483 000291 2AA9          OR AR2, AR1 ; |296| 
     484 000293 C96B          MOV AR1, port(*AR3(T0)) ; |296| 
         000295 9A   
     485                      .dwpsn  file "../c5535_bsl_revc/ezdsp5535_v1/c55xx_csl/src/csl_lcdc.c",line 300,column 13,is_stmt
     486 000296 ED00          MOV dbl(*SP(#0)), XAR3
         000298 BF   
     487 000299 AB61          MOV *AR3, AR3 ; |300| 
     488 00029b A96B          MOV port(*AR3(T0)), AR1 ; |300| 
TMS320C55x Assembler PC v4.4.1 Tue Oct 02 02:33:01 2018

Tools Copyright (c) 1996-2012 Texas Instruments Incorporated
csl_lcdc.asm                                                         PAGE   13

         00029d 99   
     489 00029e ED04          MOV dbl(*SP(#2)), XAR3
         0002a0 BF   
     490 0002a1 7DFF          AND #0xfffc, AR1, AR2 ; |300| 
         0002a3 FCA9 
     491 0002a5 A96D          MOV *AR3(#14), AR1 ; |300| 
         0002a7 000E 
     492 0002a9 ED00          MOV dbl(*SP(#0)), XAR3
         0002ab BF   
     493 0002ac AB61          MOV *AR3, AR3 ; |300| 
     494 0002ae 1803          AND #0x0003, AR1, AR1 ; |300| 
         0002b0 99   
     495 0002b1 2AA9          OR AR2, AR1 ; |300| 
     496 0002b3 C96B          MOV AR1, port(*AR3(T0)) ; |300| 
         0002b5 9A   
     497                      .dwpsn  file "../c5535_bsl_revc/ezdsp5535_v1/c55xx_csl/src/csl_lcdc.c",line 303,column 13,is_stmt
     498 0002b6 7600          MOV #16, AR2 ; |303| 
         0002b8 10A8 
     499 0002ba A908          MOV *SP(#4), AR1 ; |303| 
     500 0002bc 1294          CMPU AR1 < AR2, TC1 ; |303| 
         0002be A4   
     501 0002bf 0464          BCC $C$L6,TC1 ; |303| 
         0002c1 3B   
     502                                                      ; branchcc occurs ; |303| 
     503                      .dwpsn  file "../c5535_bsl_revc/ezdsp5535_v1/c55xx_csl/src/csl_lcdc.c",line 305,column 17,is_stmt
     504 0002c2 F708          SUB #15, *SP(#4) ; |305| 
         0002c4 FFF1 
     505                      .dwpsn  file "../c5535_bsl_revc/ezdsp5535_v1/c55xx_csl/src/csl_lcdc.c",line 306,column 5,is_stmt
     506 0002c6 DF08          MOV uns(*SP(#4)), AC0 ; |306| 
         0002c8 05   
     507 0002c9 1005          SFTS AC0, #-4, AC0 ; |306| 
         0002cb 3C   
     508 0002cc C008          MOV AC0, *SP(#4) ; |306| 
     509                      .dwpsn  file "../c5535_bsl_revc/ezdsp5535_v1/c55xx_csl/src/csl_lcdc.c",line 307,column 17,is_stmt
     510 0002ce ED00          MOV dbl(*SP(#0)), XAR3
         0002d0 BF   
     511 0002d1 7600          MOV #16, AR1 ; |307| 
         0002d3 1098 
     512 0002d5 D661          ADD *AR3, AR1, AR3 ; |307| 
         0002d7 B9   
     513 0002d8 F561          OR #0xf000, port(*AR3) ; |307| 
         0002da F000 
         0002dc 9A   
     514                      .dwpsn  file "../c5535_bsl_revc/ezdsp5535_v1/c55xx_csl/src/csl_lcdc.c",line 310,column 17,is_stmt
     515 0002dd ED00          MOV dbl(*SP(#0)), XAR3
         0002df BF   
     516 0002e0 7600          MOV #17, T0 ; |310| 
         0002e2 1148 
     517 0002e4 AB61          MOV *AR3, AR3 ; |310| 
     518 0002e6 AA6B          MOV port(*AR3(T0)), AR2 ; |310| 
         0002e8 99   
     519 0002e9 ED00          MOV dbl(*SP(#0)), XAR3
         0002eb BF   
     520 0002ec AB61          MOV *AR3, AR3 ; |310| 
     521 0002ee A908          MOV *SP(#4), AR1 ; |310| 
TMS320C55x Assembler PC v4.4.1 Tue Oct 02 02:33:01 2018

Tools Copyright (c) 1996-2012 Texas Instruments Incorporated
csl_lcdc.asm                                                         PAGE   14

     522 0002f0 1801          AND #0x0001, AR1, AR1 ; |310| 
         0002f2 99   
     523 0002f3 EC00          BCLR @#0, AR2 ; |310| 
         0002f5 A2   
     524 0002f6 2AA9          OR AR2, AR1 ; |310| 
     525 0002f8 C96B          MOV AR1, port(*AR3(T0)) ; |310| 
         0002fa 9A   
     526                      .dwpsn  file "../c5535_bsl_revc/ezdsp5535_v1/c55xx_csl/src/csl_lcdc.c",line 312,column 13,is_stmt
     527 0002fb 4A1F          B $C$L7   ; |312| 
     528                                                      ; branch occurs ; |312| 
     529 0002fd       $C$L6:    
     530                      .dwpsn  file "../c5535_bsl_revc/ezdsp5535_v1/c55xx_csl/src/csl_lcdc.c",line 315,column 17,is_stmt
     531 0002fd ED00          MOV dbl(*SP(#0)), XAR3
         0002ff BF   
     532 000300 AB61          MOV *AR3, AR3 ; |315| 
     533 000302 A96B          MOV port(*AR3(T0)), AR1 ; |315| 
         000304 99   
     534 000305 ED00          MOV dbl(*SP(#0)), XAR3
         000307 BF   
     535 000308 AB61          MOV *AR3, AR3 ; |315| 
     536 00030a A008          MOV *SP(#4), AC0 ; |315| 
     537              
     538 00030c 7D0F          AND #0x0fff, AR1, AR2 ; |315| 
         00030e FFA9 
     539 000310 1107  ||      SFTL AC0, #12, AC0 ; |315| 
         000312 0C   
     540              
     541 000313 7DF0          AND #0xf000, AC0, AR1 ; |315| 
         000315 0090 
     542 000317 2AA9          OR AR2, AR1 ; |315| 
     543 000319 C96B          MOV AR1, port(*AR3(T0)) ; |315| 
         00031b 9A   
     544 00031c       $C$L7:    
     545                      .dwpsn  file "../c5535_bsl_revc/ezdsp5535_v1/c55xx_csl/src/csl_lcdc.c",line 318,column 13,is_stmt
     546 00031c ED00          MOV dbl(*SP(#0)), XAR3
         00031e BF   
     547 00031f 7600          MOV #17, T0 ; |318| 
         000321 1148 
     548 000323 AB61          MOV *AR3, AR3 ; |318| 
     549 000325 A96B          MOV port(*AR3(T0)), AR1 ; |318| 
         000327 99   
     550 000328 ED04          MOV dbl(*SP(#2)), XAR3
         00032a BF   
     551 00032b A06D          MOV *AR3(#8), AC0 ; |318| 
         00032d 0008 
     552 00032f ED00          MOV dbl(*SP(#0)), XAR3
         000331 BF   
     553 000332 AB61          MOV *AR3, AR3 ; |318| 
     554              
     555 000334 7D07          AND #0x07ff, AR1, AR2 ; |318| 
         000336 FFA9 
     556 000338 1107  ||      SFTL AC0, #11, AC0 ; |318| 
         00033a 0B   
     557              
     558 00033b 7DF8          AND #0xf800, AC0, AR1 ; |318| 
TMS320C55x Assembler PC v4.4.1 Tue Oct 02 02:33:01 2018

Tools Copyright (c) 1996-2012 Texas Instruments Incorporated
csl_lcdc.asm                                                         PAGE   15

         00033d 0090 
     559 00033f 2AA9          OR AR2, AR1 ; |318| 
     560 000341 C96B          MOV AR1, port(*AR3(T0)) ; |318| 
         000343 9A   
     561                      .dwpsn  file "../c5535_bsl_revc/ezdsp5535_v1/c55xx_csl/src/csl_lcdc.c",line 322,column 13,is_stmt
     562 000344 ED00          MOV dbl(*SP(#0)), XAR3
         000346 BF   
     563 000347 AB61          MOV *AR3, AR3 ; |322| 
     564 000349 A96B          MOV port(*AR3(T0)), AR1 ; |322| 
         00034b 99   
     565 00034c ED04          MOV dbl(*SP(#2)), XAR3
         00034e BF   
     566 00034f A06D          MOV *AR3(#9), AC0 ; |322| 
         000351 0009 
     567 000353 ED00          MOV dbl(*SP(#0)), XAR3
         000355 BF   
     568 000356 AB61          MOV *AR3, AR3 ; |322| 
     569              
     570 000358 7DF8          AND #0xf81f, AR1, AR2 ; |322| 
         00035a 1FA9 
     571 00035c 1107  ||      SFTL AC0, #5, AC0 ; |322| 
         00035e 05   
     572              
     573 00035f 7D07          AND #0x07e0, AC0, AR1 ; |322| 
         000361 E090 
     574 000363 2AA9          OR AR2, AR1 ; |322| 
     575 000365 C96B          MOV AR1, port(*AR3(T0)) ; |322| 
         000367 9A   
     576                      .dwpsn  file "../c5535_bsl_revc/ezdsp5535_v1/c55xx_csl/src/csl_lcdc.c",line 326,column 13,is_stmt
     577 000368 ED00          MOV dbl(*SP(#0)), XAR3
         00036a BF   
     578 00036b AB61          MOV *AR3, AR3 ; |326| 
     579 00036d A96B          MOV port(*AR3(T0)), AR1 ; |326| 
         00036f 99   
     580 000370 ED04          MOV dbl(*SP(#2)), XAR3
         000372 BF   
     581 000373 7DFF          AND #0xffe1, AR1, AR2 ; |326| 
         000375 E1A9 
     582 000377 A96D          MOV *AR3(#10), AR1 ; |326| 
         000379 000A 
     583 00037b ED00          MOV dbl(*SP(#0)), XAR3
         00037d BF   
     584 00037e AB61          MOV *AR3, AR3 ; |326| 
     585 000380 5090          SFTL AR1, #1 ; |326| 
     586 000382 181E          AND #0x001e, AR1, AR1 ; |326| 
         000384 99   
     587 000385 2AA9          OR AR2, AR1 ; |326| 
     588 000387 C96B          MOV AR1, port(*AR3(T0)) ; |326| 
         000389 9A   
     589                      .dwpsn  file "../c5535_bsl_revc/ezdsp5535_v1/c55xx_csl/src/csl_lcdc.c",line 329,column 9,is_stmt
     590 00038a 0601          B $C$L11  ; |329| 
         00038c 45   
     591                                                      ; branch occurs ; |329| 
     592 00038d       $C$L8:    
     593                      .dwpsn  file "../c5535_bsl_revc/ezdsp5535_v1/c55xx_csl/src/csl_lcdc.c",line 333,column 13,is_stmt
TMS320C55x Assembler PC v4.4.1 Tue Oct 02 02:33:01 2018

Tools Copyright (c) 1996-2012 Texas Instruments Incorporated
csl_lcdc.asm                                                         PAGE   16

     594 00038d A96D          MOV *AR3(#19), AR1 ; |333| 
         00038f 0013 
     595 000391 C908          MOV AR1, *SP(#4) ; |333| 
     596                      .dwpsn  file "../c5535_bsl_revc/ezdsp5535_v1/c55xx_csl/src/csl_lcdc.c",line 334,column 13,is_stmt
     597 000393 ED00          MOV dbl(*SP(#0)), XAR3
         000395 BF   
     598 000396 7600          MOV #28, T0 ; |334| 
         000398 1C48 
     599 00039a AB61          MOV *AR3, AR3 ; |334| 
     600 00039c A96B          MOV port(*AR3(T0)), AR1 ; |334| 
         00039e 99   
     601 00039f ED04          MOV dbl(*SP(#2)), XAR3
         0003a1 BF   
     602 0003a2 A06D          MOV *AR3(#20), AC0 ; |334| 
         0003a4 0014 
     603 0003a6 ED00          MOV dbl(*SP(#0)), XAR3
         0003a8 BF   
     604 0003a9 AB61          MOV *AR3, AR3 ; |334| 
     605              
     606 0003ab 7DF0          AND #0xf03f, AR1, AR2 ; |334| 
         0003ad 3FA9 
     607 0003af 1107  ||      SFTL AC0, #6, AC0 ; |334| 
         0003b1 06   
     608              
     609 0003b2 7D0F          AND #0x0fc0, AC0, AR1 ; |334| 
         0003b4 C090 
     610 0003b6 2AA9          OR AR2, AR1 ; |334| 
     611 0003b8 C96B          MOV AR1, port(*AR3(T0)) ; |334| 
         0003ba 9A   
     612                      .dwpsn  file "../c5535_bsl_revc/ezdsp5535_v1/c55xx_csl/src/csl_lcdc.c",line 338,column 13,is_stmt
     613 0003bb ED00          MOV dbl(*SP(#0)), XAR3
         0003bd BF   
     614 0003be AB61          MOV *AR3, AR3 ; |338| 
     615 0003c0 A96B          MOV port(*AR3(T0)), AR1 ; |338| 
         0003c2 99   
     616 0003c3 ED04          MOV dbl(*SP(#2)), XAR3
         0003c5 BF   
     617 0003c6 A06D          MOV *AR3(#21), AC0 ; |338| 
         0003c8 0015 
     618 0003ca ED00          MOV dbl(*SP(#0)), XAR3
         0003cc BF   
     619 0003cd AB61          MOV *AR3, AR3 ; |338| 
     620              
     621 0003cf 7DFF          AND #0xffc3, AR1, AR2 ; |338| 
         0003d1 C3A9 
     622 0003d3 1107  ||      SFTL AC0, #2, AC0 ; |338| 
         0003d5 02   
     623              
     624 0003d6 183C          AND #0x003c, AC0, AR1 ; |338| 
         0003d8 90   
     625 0003d9 2AA9          OR AR2, AR1 ; |338| 
     626 0003db C96B          MOV AR1, port(*AR3(T0)) ; |338| 
         0003dd 9A   
     627                      .dwpsn  file "../c5535_bsl_revc/ezdsp5535_v1/c55xx_csl/src/csl_lcdc.c",line 342,column 13,is_stmt
     628 0003de ED00          MOV dbl(*SP(#0)), XAR3
TMS320C55x Assembler PC v4.4.1 Tue Oct 02 02:33:01 2018

Tools Copyright (c) 1996-2012 Texas Instruments Incorporated
csl_lcdc.asm                                                         PAGE   17

         0003e0 BF   
     629 0003e1 AB61          MOV *AR3, AR3 ; |342| 
     630 0003e3 A96B          MOV port(*AR3(T0)), AR1 ; |342| 
         0003e5 99   
     631 0003e6 ED04          MOV dbl(*SP(#2)), XAR3
         0003e8 BF   
     632 0003e9 7DFF          AND #0xfffc, AR1, AR2 ; |342| 
         0003eb FCA9 
     633 0003ed A96D          MOV *AR3(#22), AR1 ; |342| 
         0003ef 0016 
     634 0003f1 ED00          MOV dbl(*SP(#0)), XAR3
         0003f3 BF   
     635 0003f4 AB61          MOV *AR3, AR3 ; |342| 
     636 0003f6 1803          AND #0x0003, AR1, AR1 ; |342| 
         0003f8 99   
     637 0003f9 2AA9          OR AR2, AR1 ; |342| 
     638 0003fb C96B          MOV AR1, port(*AR3(T0)) ; |342| 
         0003fd 9A   
     639                      .dwpsn  file "../c5535_bsl_revc/ezdsp5535_v1/c55xx_csl/src/csl_lcdc.c",line 345,column 13,is_stmt
     640 0003fe 7600          MOV #16, AR2 ; |345| 
         000400 10A8 
     641 000402 A908          MOV *SP(#4), AR1 ; |345| 
     642 000404 1294          CMPU AR1 < AR2, TC1 ; |345| 
         000406 A4   
     643 000407 0464          BCC $C$L9,TC1 ; |345| 
         000409 3B   
     644                                                      ; branchcc occurs ; |345| 
     645                      .dwpsn  file "../c5535_bsl_revc/ezdsp5535_v1/c55xx_csl/src/csl_lcdc.c",line 347,column 17,is_stmt
     646 00040a F708          SUB #15, *SP(#4) ; |347| 
         00040c FFF1 
     647                      .dwpsn  file "../c5535_bsl_revc/ezdsp5535_v1/c55xx_csl/src/csl_lcdc.c",line 348,column 5,is_stmt
     648 00040e DF08          MOV uns(*SP(#4)), AC0 ; |348| 
         000410 05   
     649 000411 1005          SFTS AC0, #-4, AC0 ; |348| 
         000413 3C   
     650 000414 C008          MOV AC0, *SP(#4) ; |348| 
     651                      .dwpsn  file "../c5535_bsl_revc/ezdsp5535_v1/c55xx_csl/src/csl_lcdc.c",line 349,column 17,is_stmt
     652 000416 ED00          MOV dbl(*SP(#0)), XAR3
         000418 BF   
     653 000419 7600          MOV #28, AR1 ; |349| 
         00041b 1C98 
     654 00041d D661          ADD *AR3, AR1, AR3 ; |349| 
         00041f B9   
     655 000420 F561          OR #0xf000, port(*AR3) ; |349| 
         000422 F000 
         000424 9A   
     656                      .dwpsn  file "../c5535_bsl_revc/ezdsp5535_v1/c55xx_csl/src/csl_lcdc.c",line 352,column 17,is_stmt
     657 000425 ED00          MOV dbl(*SP(#0)), XAR3
         000427 BF   
     658 000428 7600          MOV #29, T0 ; |352| 
         00042a 1D48 
     659 00042c AB61          MOV *AR3, AR3 ; |352| 
     660 00042e AA6B          MOV port(*AR3(T0)), AR2 ; |352| 
         000430 99   
     661 000431 ED00          MOV dbl(*SP(#0)), XAR3
TMS320C55x Assembler PC v4.4.1 Tue Oct 02 02:33:01 2018

Tools Copyright (c) 1996-2012 Texas Instruments Incorporated
csl_lcdc.asm                                                         PAGE   18

         000433 BF   
     662 000434 AB61          MOV *AR3, AR3 ; |352| 
     663 000436 A908          MOV *SP(#4), AR1 ; |352| 
     664 000438 1801          AND #0x0001, AR1, AR1 ; |352| 
         00043a 99   
     665 00043b EC00          BCLR @#0, AR2 ; |352| 
         00043d A2   
     666 00043e 2AA9          OR AR2, AR1 ; |352| 
     667 000440 C96B          MOV AR1, port(*AR3(T0)) ; |352| 
         000442 9A   
     668                      .dwpsn  file "../c5535_bsl_revc/ezdsp5535_v1/c55xx_csl/src/csl_lcdc.c",line 354,column 13,is_stmt
     669 000443 4A1F          B $C$L10  ; |354| 
     670                                                      ; branch occurs ; |354| 
     671 000445       $C$L9:    
     672                      .dwpsn  file "../c5535_bsl_revc/ezdsp5535_v1/c55xx_csl/src/csl_lcdc.c",line 357,column 17,is_stmt
     673 000445 ED00          MOV dbl(*SP(#0)), XAR3
         000447 BF   
     674 000448 AB61          MOV *AR3, AR3 ; |357| 
     675 00044a A96B          MOV port(*AR3(T0)), AR1 ; |357| 
         00044c 99   
     676 00044d ED00          MOV dbl(*SP(#0)), XAR3
         00044f BF   
     677 000450 AB61          MOV *AR3, AR3 ; |357| 
     678 000452 A008          MOV *SP(#4), AC0 ; |357| 
     679              
     680 000454 7D0F          AND #0x0fff, AR1, AR2 ; |357| 
         000456 FFA9 
     681 000458 1107  ||      SFTL AC0, #12, AC0 ; |357| 
         00045a 0C   
     682              
     683 00045b 7DF0          AND #0xf000, AC0, AR1 ; |357| 
         00045d 0090 
     684 00045f 2AA9          OR AR2, AR1 ; |357| 
     685 000461 C96B          MOV AR1, port(*AR3(T0)) ; |357| 
         000463 9A   
     686 000464       $C$L10:    
     687                      .dwpsn  file "../c5535_bsl_revc/ezdsp5535_v1/c55xx_csl/src/csl_lcdc.c",line 360,column 13,is_stmt
     688 000464 ED00          MOV dbl(*SP(#0)), XAR3
         000466 BF   
     689 000467 7600          MOV #29, T0 ; |360| 
         000469 1D48 
     690 00046b AB61          MOV *AR3, AR3 ; |360| 
     691 00046d A96B          MOV port(*AR3(T0)), AR1 ; |360| 
         00046f 99   
     692 000470 ED04          MOV dbl(*SP(#2)), XAR3
         000472 BF   
     693 000473 A06D          MOV *AR3(#16), AC0 ; |360| 
         000475 0010 
     694 000477 ED00          MOV dbl(*SP(#0)), XAR3
         000479 BF   
     695 00047a AB61          MOV *AR3, AR3 ; |360| 
     696              
     697 00047c 7D07          AND #0x07ff, AR1, AR2 ; |360| 
         00047e FFA9 
     698 000480 1107  ||      SFTL AC0, #11, AC0 ; |360| 
TMS320C55x Assembler PC v4.4.1 Tue Oct 02 02:33:01 2018

Tools Copyright (c) 1996-2012 Texas Instruments Incorporated
csl_lcdc.asm                                                         PAGE   19

         000482 0B   
     699              
     700 000483 7DF8          AND #0xf800, AC0, AR1 ; |360| 
         000485 0090 
     701 000487 2AA9          OR AR2, AR1 ; |360| 
     702 000489 C96B          MOV AR1, port(*AR3(T0)) ; |360| 
         00048b 9A   
     703                      .dwpsn  file "../c5535_bsl_revc/ezdsp5535_v1/c55xx_csl/src/csl_lcdc.c",line 364,column 13,is_stmt
     704 00048c ED00          MOV dbl(*SP(#0)), XAR3
         00048e BF   
     705 00048f AB61          MOV *AR3, AR3 ; |364| 
     706 000491 A96B          MOV port(*AR3(T0)), AR1 ; |364| 
         000493 99   
     707 000494 ED04          MOV dbl(*SP(#2)), XAR3
         000496 BF   
     708 000497 A06D          MOV *AR3(#17), AC0 ; |364| 
         000499 0011 
     709 00049b ED00          MOV dbl(*SP(#0)), XAR3
         00049d BF   
     710 00049e AB61          MOV *AR3, AR3 ; |364| 
     711              
     712 0004a0 7DF8          AND #0xf81f, AR1, AR2 ; |364| 
         0004a2 1FA9 
     713 0004a4 1107  ||      SFTL AC0, #5, AC0 ; |364| 
         0004a6 05   
     714              
     715 0004a7 7D07          AND #0x07e0, AC0, AR1 ; |364| 
         0004a9 E090 
     716 0004ab 2AA9          OR AR2, AR1 ; |364| 
     717 0004ad C96B          MOV AR1, port(*AR3(T0)) ; |364| 
         0004af 9A   
     718                      .dwpsn  file "../c5535_bsl_revc/ezdsp5535_v1/c55xx_csl/src/csl_lcdc.c",line 368,column 13,is_stmt
     719 0004b0 ED00          MOV dbl(*SP(#0)), XAR3
         0004b2 BF   
     720 0004b3 AB61          MOV *AR3, AR3 ; |368| 
     721 0004b5 A96B          MOV port(*AR3(T0)), AR1 ; |368| 
         0004b7 99   
     722 0004b8 ED04          MOV dbl(*SP(#2)), XAR3
         0004ba BF   
     723 0004bb 7DFF          AND #0xffe1, AR1, AR2 ; |368| 
         0004bd E1A9 
     724 0004bf A96D          MOV *AR3(#18), AR1 ; |368| 
         0004c1 0012 
     725 0004c3 ED00          MOV dbl(*SP(#0)), XAR3
         0004c5 BF   
     726 0004c6 AB61          MOV *AR3, AR3 ; |368| 
     727 0004c8 5090          SFTL AR1, #1 ; |368| 
     728 0004ca 181E          AND #0x001e, AR1, AR1 ; |368| 
         0004cc 99   
     729 0004cd 2AA9          OR AR2, AR1 ; |368| 
     730 0004cf C96B          MOV AR1, port(*AR3(T0)) ; |368| 
         0004d1 9A   
     731 0004d2       $C$L11:    
     732                      .dwpsn  file "../c5535_bsl_revc/ezdsp5535_v1/c55xx_csl/src/csl_lcdc.c",line 373,column 5,is_stmt
     733 0004d2 3C04          MOV #0, T0
TMS320C55x Assembler PC v4.4.1 Tue Oct 02 02:33:01 2018

Tools Copyright (c) 1996-2012 Texas Instruments Incorporated
csl_lcdc.asm                                                         PAGE   20

     734 0004d4       $C$L12:    
     735                      .dwpsn  file "../c5535_bsl_revc/ezdsp5535_v1/c55xx_csl/src/csl_lcdc.c",line 374,column 1,is_stmt
     736 0004d4 4E05          AADD #5, SP
     737                      .dwcfi  cfa_offset, 1
     738              $C$DW$18        .dwtag  DW_TAG_TI_branch
     739                      .dwattr $C$DW$18, DW_AT_low_pc(0x00)
     740                      .dwattr $C$DW$18, DW_AT_TI_return
     741 0004d6 4804          RET
     742                                                      ; return occurs
     743                      .dwattr $C$DW$12, DW_AT_TI_end_file("../c5535_bsl_revc/ezdsp5535_v1/c55xx_csl/src/csl_lcdc.c")
     744                      .dwattr $C$DW$12, DW_AT_TI_end_line(0x176)
     745                      .dwattr $C$DW$12, DW_AT_TI_end_column(0x01)
     746                      .dwendentry
     747                      .dwendtag $C$DW$12
     748              
     749 0004d8               .sect   ".text"
     750                      .align 4
     751                      .global _LCD_configDMA
     752              
     753              $C$DW$19        .dwtag  DW_TAG_subprogram, DW_AT_name("LCD_configDMA")
     754                      .dwattr $C$DW$19, DW_AT_low_pc(_LCD_configDMA)
     755                      .dwattr $C$DW$19, DW_AT_high_pc(0x00)
     756                      .dwattr $C$DW$19, DW_AT_TI_symbol_name("_LCD_configDMA")
     757                      .dwattr $C$DW$19, DW_AT_external
     758                      .dwattr $C$DW$19, DW_AT_type(*$C$DW$T$72)
     759                      .dwattr $C$DW$19, DW_AT_TI_begin_file("../c5535_bsl_revc/ezdsp5535_v1/c55xx_csl/src/csl_lcdc.c")
     760                      .dwattr $C$DW$19, DW_AT_TI_begin_line(0x1dd)
     761                      .dwattr $C$DW$19, DW_AT_TI_begin_column(0x0c)
     762                      .dwattr $C$DW$19, DW_AT_TI_max_frame_size(0x0c)
     763                      .dwpsn  file "../c5535_bsl_revc/ezdsp5535_v1/c55xx_csl/src/csl_lcdc.c",line 480,column 1,is_stmt,addr
     764              
     765                      .dwfde $C$DW$CIE, _LCD_configDMA
     766              $C$DW$20        .dwtag  DW_TAG_formal_parameter, DW_AT_name("hLcdc")
     767                      .dwattr $C$DW$20, DW_AT_TI_symbol_name("_hLcdc")
     768                      .dwattr $C$DW$20, DW_AT_type(*$C$DW$T$71)
     769                      .dwattr $C$DW$20, DW_AT_location[DW_OP_reg17]
     770              $C$DW$21        .dwtag  DW_TAG_formal_parameter, DW_AT_name("pconfigDma")
     771                      .dwattr $C$DW$21, DW_AT_TI_symbol_name("_pconfigDma")
     772                      .dwattr $C$DW$21, DW_AT_type(*$C$DW$T$64)
     773                      .dwattr $C$DW$21, DW_AT_location[DW_OP_reg19]
     774              ;*******************************************************************************
     775              ;* FUNCTION NAME: LCD_configDMA                                                *
     776              ;*                                                                             *
     777              ;*   Function Uses Regs : AC0,AC0,AC1,AC1,T0,AR0,XAR0,AR1,XAR1,AR2,AR3,XAR3,SP,*
     778              ;*                        CARRY,TC1,M40,SATA,SATD,RDM,FRCT,SMUL                *
     779              ;*   Stack Frame        : Compact (No Frame Pointer, w/ debug)                 *
     780              ;*   Total Frame Size   : 12 words                                             *
     781              ;*                        (2 return address/alignment)                         *
     782              ;*                        (10 local values)                                    *
     783              ;*   Min System Stack   : 1 word                                               *
     784              ;*******************************************************************************
     785 0004d8       _LCD_configDMA:
     786                      .dwcfi  cfa_offset, 1
     787                      .dwcfi  save_reg_to_mem, 91, -1
     788 0004d8 4EF5          AADD #-11, SP
TMS320C55x Assembler PC v4.4.1 Tue Oct 02 02:33:01 2018

Tools Copyright (c) 1996-2012 Texas Instruments Incorporated
csl_lcdc.asm                                                         PAGE   21

     789                      .dwcfi  cfa_offset, 12
     790              $C$DW$22        .dwtag  DW_TAG_variable, DW_AT_name("hLcdc")
     791                      .dwattr $C$DW$22, DW_AT_TI_symbol_name("_hLcdc")
     792                      .dwattr $C$DW$22, DW_AT_type(*$C$DW$T$71)
     793                      .dwattr $C$DW$22, DW_AT_location[DW_OP_bregx 0x24 0]
     794              $C$DW$23        .dwtag  DW_TAG_variable, DW_AT_name("pconfigDma")
     795                      .dwattr $C$DW$23, DW_AT_TI_symbol_name("_pconfigDma")
     796                      .dwattr $C$DW$23, DW_AT_type(*$C$DW$T$64)
     797                      .dwattr $C$DW$23, DW_AT_location[DW_OP_bregx 0x24 2]
     798              $C$DW$24        .dwtag  DW_TAG_variable, DW_AT_name("tmpAddrBase")
     799                      .dwattr $C$DW$24, DW_AT_TI_symbol_name("_tmpAddrBase")
     800                      .dwattr $C$DW$24, DW_AT_type(*$C$DW$T$49)
     801                      .dwattr $C$DW$24, DW_AT_location[DW_OP_bregx 0x24 4]
     802              $C$DW$25        .dwtag  DW_TAG_variable, DW_AT_name("tmpAddrCeil")
     803                      .dwattr $C$DW$25, DW_AT_TI_symbol_name("_tmpAddrCeil")
     804                      .dwattr $C$DW$25, DW_AT_type(*$C$DW$T$49)
     805                      .dwattr $C$DW$25, DW_AT_location[DW_OP_bregx 0x24 6]
     806              $C$DW$26        .dwtag  DW_TAG_variable, DW_AT_name("tmpAddrLSB")
     807                      .dwattr $C$DW$26, DW_AT_TI_symbol_name("_tmpAddrLSB")
     808                      .dwattr $C$DW$26, DW_AT_type(*$C$DW$T$19)
     809                      .dwattr $C$DW$26, DW_AT_location[DW_OP_bregx 0x24 8]
     810              $C$DW$27        .dwtag  DW_TAG_variable, DW_AT_name("tmpAddrMSB")
     811                      .dwattr $C$DW$27, DW_AT_TI_symbol_name("_tmpAddrMSB")
     812                      .dwattr $C$DW$27, DW_AT_type(*$C$DW$T$19)
     813                      .dwattr $C$DW$27, DW_AT_location[DW_OP_bregx 0x24 9]
     814 0004da EB04          MOV XAR1, dbl(*SP(#2))
         0004dc 95   
     815 0004dd EB00          MOV XAR0, dbl(*SP(#0))
         0004df 85   
     816                      .dwpsn  file "../c5535_bsl_revc/ezdsp5535_v1/c55xx_csl/src/csl_lcdc.c",line 486,column 5,is_stmt
     817 0004e0 ED00          MOV dbl(*SP(#0)), XAR3
         0004e2 BF   
     818 0004e3 90B0          MOV XAR3, AC0
     819 0004e5 6400          BCC $C$L13,AC0 == #0 ; |486| 
     820                                                      ; branchcc occurs ; |486| 
     821 0004e7 ED04          MOV dbl(*SP(#2)), XAR3
         0004e9 BF   
     822 0004ea 90B0          MOV XAR3, AC0
     823 0004ec 0410          BCC $C$L15,AC0 != #0 ; |486| 
         0004ee 11   
     824                                                      ; branchcc occurs ; |486| 
     825                      .dwpsn  file "../c5535_bsl_revc/ezdsp5535_v1/c55xx_csl/src/csl_lcdc.c",line 489,column 5,is_stmt
     826 0004ef       $C$L13:    
     827                      .dwpsn  file "../c5535_bsl_revc/ezdsp5535_v1/c55xx_csl/src/csl_lcdc.c",line 492,column 9,is_stmt
     828 0004ef ED00          MOV dbl(*SP(#0)), XAR3
         0004f1 BF   
     829 0004f2 90B0          MOV XAR3, AC0
     830 0004f4 6290          BCC $C$L14,AC0 != #0 ; |492| 
     831                                                      ; branchcc occurs ; |492| 
     832                      .dwpsn  file "../c5535_bsl_revc/ezdsp5535_v1/c55xx_csl/src/csl_lcdc.c",line 494,column 13,is_stmt
     833 0004f6 3E54          MOV #-5, T0
     834 0004f8 0603          B $C$L30  ; |494| 
         0004fa 29   
     835                                                      ; branch occurs ; |494| 
     836 0004fb       $C$L14:    
TMS320C55x Assembler PC v4.4.1 Tue Oct 02 02:33:01 2018

Tools Copyright (c) 1996-2012 Texas Instruments Incorporated
csl_lcdc.asm                                                         PAGE   22

     837                      .dwpsn  file "../c5535_bsl_revc/ezdsp5535_v1/c55xx_csl/src/csl_lcdc.c",line 498,column 13,is_stmt
     838 0004fb 3E64          MOV #-6, T0
     839 0004fd 0603          B $C$L30  ; |498| 
         0004ff 24   
     840                                                      ; branch occurs ; |498| 
     841 000500       $C$L15:    
     842                      .dwpsn  file "../c5535_bsl_revc/ezdsp5535_v1/c55xx_csl/src/csl_lcdc.c",line 502,column 5,is_stmt
     843 000500 ED00          MOV dbl(*SP(#0)), XAR3
         000502 BF   
     844 000503 7600          MOV #64, T0 ; |502| 
         000505 4048 
     845 000507 AB61          MOV *AR3, AR3 ; |502| 
     846 000509 A96B          MOV port(*AR3(T0)), AR1 ; |502| 
         00050b 99   
     847 00050c ED04          MOV dbl(*SP(#2)), XAR3
         00050e BF   
     848 00050f F961          MOV *AR3 << #4, AC0 ; |502| 
         000511 0408 
     849 000513 ED00          MOV dbl(*SP(#0)), XAR3
         000515 BF   
     850 000516 AB61          MOV *AR3, AR3 ; |502| 
     851 000518 7DFF          AND #0xff8f, AR1, AR2 ; |502| 
         00051a 8FA9 
     852 00051c 1870          AND #0x0070, AC0, AR1 ; |502| 
         00051e 90   
     853 00051f 2AA9          OR AR2, AR1 ; |502| 
     854 000521 C96B          MOV AR1, port(*AR3(T0)) ; |502| 
         000523 9A   
     855                      .dwpsn  file "../c5535_bsl_revc/ezdsp5535_v1/c55xx_csl/src/csl_lcdc.c",line 505,column 5,is_stmt
     856 000524 ED00          MOV dbl(*SP(#0)), XAR3
         000526 BF   
     857 000527 AB61          MOV *AR3, AR3 ; |505| 
     858 000529 A96B          MOV port(*AR3(T0)), AR1 ; |505| 
         00052b 99   
     859 00052c ED04          MOV dbl(*SP(#2)), XAR3
         00052e BF   
     860 00052f F973          MOV *AR3(short(#1)) << #2, AC0 ; |505| 
         000531 0208 
     861 000533 ED00          MOV dbl(*SP(#0)), XAR3
         000535 BF   
     862 000536 AB61          MOV *AR3, AR3 ; |505| 
     863 000538 EC04          BCLR @#2, AR1 ; |505| 
         00053a 92   
     864 00053b 1804          AND #0x0004, AC0, AR2 ; |505| 
         00053d A0   
     865 00053e 2A9A          OR AR1, AR2 ; |505| 
     866 000540 CA6B          MOV AR2, port(*AR3(T0)) ; |505| 
         000542 9A   
     867                      .dwpsn  file "../c5535_bsl_revc/ezdsp5535_v1/c55xx_csl/src/csl_lcdc.c",line 508,column 5,is_stmt
     868 000543 ED00          MOV dbl(*SP(#0)), XAR3
         000545 BF   
     869 000546 AB61          MOV *AR3, AR3 ; |508| 
     870 000548 AA6B          MOV port(*AR3(T0)), AR2 ; |508| 
         00054a 99   
     871 00054b ED04          MOV dbl(*SP(#2)), XAR3
TMS320C55x Assembler PC v4.4.1 Tue Oct 02 02:33:01 2018

Tools Copyright (c) 1996-2012 Texas Instruments Incorporated
csl_lcdc.asm                                                         PAGE   23

         00054d BF   
     872 00054e A975          MOV *AR3(short(#2)), AR1 ; |508| 
     873 000550 ED00          MOV dbl(*SP(#0)), XAR3
         000552 BF   
     874 000553 AB61          MOV *AR3, AR3 ; |508| 
     875 000555 5090          SFTL AR1, #1 ; |508| 
     876 000557 EC02          BCLR @#1, AR2 ; |508| 
         000559 A2   
     877 00055a 1802          AND #0x0002, AR1, AR1 ; |508| 
         00055c 99   
     878 00055d 2AA9          OR AR2, AR1 ; |508| 
     879 00055f C96B          MOV AR1, port(*AR3(T0)) ; |508| 
         000561 9A   
     880                      .dwpsn  file "../c5535_bsl_revc/ezdsp5535_v1/c55xx_csl/src/csl_lcdc.c",line 511,column 5,is_stmt
     881 000562 ED00          MOV dbl(*SP(#0)), XAR3
         000564 BF   
     882 000565 AB61          MOV *AR3, AR3 ; |511| 
     883 000567 AA6B          MOV port(*AR3(T0)), AR2 ; |511| 
         000569 99   
     884 00056a ED04          MOV dbl(*SP(#2)), XAR3
         00056c BF   
     885 00056d A977          MOV *AR3(short(#3)), AR1 ; |511| 
     886 00056f ED00          MOV dbl(*SP(#0)), XAR3
         000571 BF   
     887 000572 AB61          MOV *AR3, AR3 ; |511| 
     888 000574 EC00          BCLR @#0, AR2 ; |511| 
         000576 A2   
     889 000577 1801          AND #0x0001, AR1, AR1 ; |511| 
         000579 99   
     890 00057a 2AA9          OR AR2, AR1 ; |511| 
     891 00057c C96B          MOV AR1, port(*AR3(T0)) ; |511| 
         00057e 9A   
     892                      .dwpsn  file "../c5535_bsl_revc/ezdsp5535_v1/c55xx_csl/src/csl_lcdc.c",line 514,column 5,is_stmt
     893 00057f ED00          MOV dbl(*SP(#0)), XAR3
         000581 BF   
     894 000582 AB61          MOV *AR3, AR3 ; |514| 
     895 000584 A96B          MOV port(*AR3(T0)), AR1 ; |514| 
         000586 99   
     896              
     897 000587 1801          AND #0x0001, AR1, AR1 ; |514| 
         000589 99   
     898 00058a 3D0A  ||      MOV #0, AR2
     899              
     900 00058c 12AC          CMPU AR2 != AR1, TC1 ; |514| 
         00058e 94   
     901 00058f 6D64          BCC $C$L20,TC1 ; |514| 
         000591 00DB 
     902                                                      ; branchcc occurs ; |514| 
     903                      .dwpsn  file "../c5535_bsl_revc/ezdsp5535_v1/c55xx_csl/src/csl_lcdc.c",line 518,column 9,is_stmt
     904 000593 ED04          MOV dbl(*SP(#2)), XAR3
         000595 BF   
     905 000596 ED79          MOV dbl(*AR3(short(#4))), AC0 ; |518| 
         000598 08   
     906 000599 EB08          MOV AC0, dbl(*SP(#4)) ; |518| 
         00059b 08   
TMS320C55x Assembler PC v4.4.1 Tue Oct 02 02:33:01 2018

Tools Copyright (c) 1996-2012 Texas Instruments Incorporated
csl_lcdc.asm                                                         PAGE   24

     907                      .dwpsn  file "../c5535_bsl_revc/ezdsp5535_v1/c55xx_csl/src/csl_lcdc.c",line 519,column 9,is_stmt
     908 00059c ED04          MOV dbl(*SP(#2)), XAR3
         00059e BF   
     909 00059f ED7D          MOV dbl(*AR3(short(#6))), AC0 ; |519| 
         0005a1 08   
     910 0005a2 EB0C          MOV AC0, dbl(*SP(#6)) ; |519| 
         0005a4 08   
     911                      .dwpsn  file "../c5535_bsl_revc/ezdsp5535_v1/c55xx_csl/src/csl_lcdc.c",line 521,column 9,is_stmt
     912              
     913 0005a8 3D00          MOV #0, AC0 ; |521| 
     914 0005a5 ED08  ||      MOV dbl(*SP(#4)), AC1 ; |521| 
         0005a7 18   
     915              
     916 0005aa 7E80          OR #0x8000, AC0, AC0 ; |521| 
         0005ac 0000 
     917 0005ae 1214          CMPU AC1 < AC0, TC1 ; |521| 
         0005b0 04   
     918 0005b1 0464          BCC $C$L16,TC1 ; |521| 
         0005b3 25   
     919                                                      ; branchcc occurs ; |521| 
     920 0005b4 EC31          AMOV #163839, XAR3 ; |521| 
         0005b6 BE02 
         0005b8 7FFF 
     921 0005ba ED08          MOV dbl(*SP(#4)), AC1 ; |521| 
         0005bc 18   
     922 0005bd 90B0          MOV XAR3, AC0
     923 0005bf 1204          CMPU AC1 > AC0, TC1 ; |521| 
         0005c1 14   
     924 0005c2 0464          BCC $C$L16,TC1 ; |521| 
         0005c4 14   
     925                                                      ; branchcc occurs ; |521| 
     926                      .dwpsn  file "../c5535_bsl_revc/ezdsp5535_v1/c55xx_csl/src/csl_lcdc.c",line 524,column 13,is_stmt
     927 0005c5 EC31          AMOV #524288, XAR3 ; |524| 
         0005c7 BE08 
         0005c9 0000 
     928 0005cb ED08          MOV dbl(*SP(#4)), AC1 ; |524| 
         0005cd 18   
     929              
     930 0005d0 5110          SFTL AC1, #1 ; |524| 
     931 0005ce 90B0  ||      MOV XAR3, AC0
     932              
     933 0005d2 2410          ADD AC1, AC0 ; |524| 
     934 0005d4 EB08          MOV AC0, dbl(*SP(#4)) ; |524| 
         0005d6 08   
     935                      .dwpsn  file "../c5535_bsl_revc/ezdsp5535_v1/c55xx_csl/src/csl_lcdc.c",line 526,column 9,is_stmt
     936 0005d7 4A05          B $C$L17  ; |526| 
     937                                                      ; branch occurs ; |526| 
     938 0005d9       $C$L16:    
     939                      .dwpsn  file "../c5535_bsl_revc/ezdsp5535_v1/c55xx_csl/src/csl_lcdc.c",line 529,column 13,is_stmt
     940 0005d9 3E94          MOV #-9, T0
     941 0005db 0602          B $C$L30  ; |529| 
         0005dd 46   
     942                                                      ; branch occurs ; |529| 
     943 0005de       $C$L17:    
     944                      .dwpsn  file "../c5535_bsl_revc/ezdsp5535_v1/c55xx_csl/src/csl_lcdc.c",line 533,column 9,is_stmt
TMS320C55x Assembler PC v4.4.1 Tue Oct 02 02:33:01 2018

Tools Copyright (c) 1996-2012 Texas Instruments Incorporated
csl_lcdc.asm                                                         PAGE   25

     945              
     946 0005de ED0C          MOV dbl(*SP(#6)), AC1 ; |533| 
         0005e0 18   
     947 0005e1 3D00  ||      MOV #0, AC0 ; |533| 
     948              
     949 0005e3 7E80          OR #0x8000, AC0, AC0 ; |533| 
         0005e5 0000 
     950 0005e7 1214          CMPU AC1 < AC0, TC1 ; |533| 
         0005e9 04   
     951 0005ea 0464          BCC $C$L18,TC1 ; |533| 
         0005ec 25   
     952                                                      ; branchcc occurs ; |533| 
     953 0005ed EC31          AMOV #163839, XAR3 ; |533| 
         0005ef BE02 
         0005f1 7FFF 
     954 0005f3 ED0C          MOV dbl(*SP(#6)), AC1 ; |533| 
         0005f5 18   
     955 0005f6 90B0          MOV XAR3, AC0
     956 0005f8 1204          CMPU AC1 > AC0, TC1 ; |533| 
         0005fa 14   
     957 0005fb 0464          BCC $C$L18,TC1 ; |533| 
         0005fd 14   
     958                                                      ; branchcc occurs ; |533| 
     959                      .dwpsn  file "../c5535_bsl_revc/ezdsp5535_v1/c55xx_csl/src/csl_lcdc.c",line 536,column 13,is_stmt
     960 0005fe EC31          AMOV #524288, XAR3 ; |536| 
         000600 BE08 
         000602 0000 
     961 000604 ED0C          MOV dbl(*SP(#6)), AC1 ; |536| 
         000606 18   
     962              
     963 000609 5110          SFTL AC1, #1 ; |536| 
     964 000607 90B0  ||      MOV XAR3, AC0
     965              
     966 00060b 2410          ADD AC1, AC0 ; |536| 
     967 00060d EB0C          MOV AC0, dbl(*SP(#6)) ; |536| 
         00060f 08   
     968                      .dwpsn  file "../c5535_bsl_revc/ezdsp5535_v1/c55xx_csl/src/csl_lcdc.c",line 538,column 9,is_stmt
     969 000610 4A05          B $C$L19  ; |538| 
     970                                                      ; branch occurs ; |538| 
     971 000612       $C$L18:    
     972                      .dwpsn  file "../c5535_bsl_revc/ezdsp5535_v1/c55xx_csl/src/csl_lcdc.c",line 541,column 13,is_stmt
     973 000612 3E94          MOV #-9, T0
     974 000614 0602          B $C$L30  ; |541| 
         000616 0D   
     975                                                      ; branch occurs ; |541| 
     976 000617       $C$L19:    
     977                      .dwpsn  file "../c5535_bsl_revc/ezdsp5535_v1/c55xx_csl/src/csl_lcdc.c",line 544,column 9,is_stmt
     978 000617 ED08          MOV dbl(*SP(#4)), AC0 ; |544| 
         000619 08   
     979 00061a 7DFF          AND #0xffff, AC0, AC0 ; |544| 
         00061c FF00 
     980 00061e C010          MOV AC0, *SP(#8) ; |544| 
     981                      .dwpsn  file "../c5535_bsl_revc/ezdsp5535_v1/c55xx_csl/src/csl_lcdc.c",line 545,column 9,is_stmt
     982 000620 ED08          MOV dbl(*SP(#4)), AC0 ; |545| 
         000622 08   
TMS320C55x Assembler PC v4.4.1 Tue Oct 02 02:33:01 2018

Tools Copyright (c) 1996-2012 Texas Instruments Incorporated
csl_lcdc.asm                                                         PAGE   26

     983 000623 BC12          MOV HI(AC0), *SP(#9) ; |545| 
     984                      .dwpsn  file "../c5535_bsl_revc/ezdsp5535_v1/c55xx_csl/src/csl_lcdc.c",line 546,column 9,is_stmt
     985 000625 ED00          MOV dbl(*SP(#0)), XAR3
         000627 BF   
     986 000628 7600          MOV #68, T0 ; |546| 
         00062a 4448 
     987 00062c AB61          MOV *AR3, AR3 ; |546| 
     988 00062e A910          MOV *SP(#8), AR1 ; |546| 
     989 000630 C96B          MOV AR1, port(*AR3(T0)) ; |546| 
         000632 9A   
     990                      .dwpsn  file "../c5535_bsl_revc/ezdsp5535_v1/c55xx_csl/src/csl_lcdc.c",line 547,column 9,is_stmt
     991 000633 ED00          MOV dbl(*SP(#0)), XAR3
         000635 BF   
     992 000636 7600          MOV #69, T0 ; |547| 
         000638 4548 
     993 00063a AB61          MOV *AR3, AR3 ; |547| 
     994 00063c A912          MOV *SP(#9), AR1 ; |547| 
     995 00063e C96B          MOV AR1, port(*AR3(T0)) ; |547| 
         000640 9A   
     996                      .dwpsn  file "../c5535_bsl_revc/ezdsp5535_v1/c55xx_csl/src/csl_lcdc.c",line 549,column 9,is_stmt
     997 000641 ED0C          MOV dbl(*SP(#6)), AC0 ; |549| 
         000643 08   
     998 000644 7DFF          AND #0xffff, AC0, AC0 ; |549| 
         000646 FF00 
     999 000648 C010          MOV AC0, *SP(#8) ; |549| 
    1000                      .dwpsn  file "../c5535_bsl_revc/ezdsp5535_v1/c55xx_csl/src/csl_lcdc.c",line 550,column 9,is_stmt
    1001 00064a ED0C          MOV dbl(*SP(#6)), AC0 ; |550| 
         00064c 08   
    1002 00064d BC12          MOV HI(AC0), *SP(#9) ; |550| 
    1003                      .dwpsn  file "../c5535_bsl_revc/ezdsp5535_v1/c55xx_csl/src/csl_lcdc.c",line 551,column 9,is_stmt
    1004 00064f ED00          MOV dbl(*SP(#0)), XAR3
         000651 BF   
    1005 000652 7600          MOV #72, T0 ; |551| 
         000654 4848 
    1006 000656 AB61          MOV *AR3, AR3 ; |551| 
    1007 000658 A910          MOV *SP(#8), AR1 ; |551| 
    1008 00065a C96B          MOV AR1, port(*AR3(T0)) ; |551| 
         00065c 9A   
    1009                      .dwpsn  file "../c5535_bsl_revc/ezdsp5535_v1/c55xx_csl/src/csl_lcdc.c",line 552,column 9,is_stmt
    1010 00065d ED00          MOV dbl(*SP(#0)), XAR3
         00065f BF   
    1011 000660 7600          MOV #73, T0 ; |552| 
         000662 4948 
    1012 000664 AB61          MOV *AR3, AR3 ; |552| 
    1013 000666 A912          MOV *SP(#9), AR1 ; |552| 
    1014 000668 C96B          MOV AR1, port(*AR3(T0)) ; |552| 
         00066a 9A   
    1015                      .dwpsn  file "../c5535_bsl_revc/ezdsp5535_v1/c55xx_csl/src/csl_lcdc.c",line 553,column 5,is_stmt
    1016 00066b 0601          B $C$L29  ; |553| 
         00066d B4   
    1017                                                      ; branch occurs ; |553| 
    1018 00066e       $C$L20:    
    1019                      .dwpsn  file "../c5535_bsl_revc/ezdsp5535_v1/c55xx_csl/src/csl_lcdc.c",line 557,column 9,is_stmt
    1020 00066e ED04          MOV dbl(*SP(#2)), XAR3
         000670 BF   
TMS320C55x Assembler PC v4.4.1 Tue Oct 02 02:33:01 2018

Tools Copyright (c) 1996-2012 Texas Instruments Incorporated
csl_lcdc.asm                                                         PAGE   27

    1021 000671 ED79          MOV dbl(*AR3(short(#4))), AC0 ; |557| 
         000673 08   
    1022 000674 EB08          MOV AC0, dbl(*SP(#4)) ; |557| 
         000676 08   
    1023                      .dwpsn  file "../c5535_bsl_revc/ezdsp5535_v1/c55xx_csl/src/csl_lcdc.c",line 558,column 9,is_stmt
    1024 000677 ED04          MOV dbl(*SP(#2)), XAR3
         000679 BF   
    1025 00067a ED7D          MOV dbl(*AR3(short(#6))), AC0 ; |558| 
         00067c 08   
    1026 00067d EB0C          MOV AC0, dbl(*SP(#6)) ; |558| 
         00067f 08   
    1027                      .dwpsn  file "../c5535_bsl_revc/ezdsp5535_v1/c55xx_csl/src/csl_lcdc.c",line 560,column 9,is_stmt
    1028              
    1029 000683 3D00          MOV #0, AC0 ; |560| 
    1030 000680 ED08  ||      MOV dbl(*SP(#4)), AC1 ; |560| 
         000682 18   
    1031              
    1032 000685 7E80          OR #0x8000, AC0, AC0 ; |560| 
         000687 0000 
    1033 000689 1214          CMPU AC1 < AC0, TC1 ; |560| 
         00068b 04   
    1034 00068c 0464          BCC $C$L21,TC1 ; |560| 
         00068e 25   
    1035                                                      ; branchcc occurs ; |560| 
    1036 00068f EC31          AMOV #163839, XAR3 ; |560| 
         000691 BE02 
         000693 7FFF 
    1037 000695 ED08          MOV dbl(*SP(#4)), AC1 ; |560| 
         000697 18   
    1038 000698 90B0          MOV XAR3, AC0
    1039 00069a 1204          CMPU AC1 > AC0, TC1 ; |560| 
         00069c 14   
    1040 00069d 0464          BCC $C$L21,TC1 ; |560| 
         00069f 14   
    1041                                                      ; branchcc occurs ; |560| 
    1042                      .dwpsn  file "../c5535_bsl_revc/ezdsp5535_v1/c55xx_csl/src/csl_lcdc.c",line 563,column 13,is_stmt
    1043 0006a0 EC31          AMOV #524288, XAR3 ; |563| 
         0006a2 BE08 
         0006a4 0000 
    1044 0006a6 ED08          MOV dbl(*SP(#4)), AC1 ; |563| 
         0006a8 18   
    1045              
    1046 0006ab 5110          SFTL AC1, #1 ; |563| 
    1047 0006a9 90B0  ||      MOV XAR3, AC0
    1048              
    1049 0006ad 2410          ADD AC1, AC0 ; |563| 
    1050 0006af EB08          MOV AC0, dbl(*SP(#4)) ; |563| 
         0006b1 08   
    1051                      .dwpsn  file "../c5535_bsl_revc/ezdsp5535_v1/c55xx_csl/src/csl_lcdc.c",line 565,column 9,is_stmt
    1052 0006b2 4A05          B $C$L22  ; |565| 
    1053                                                      ; branch occurs ; |565| 
    1054 0006b4       $C$L21:    
    1055                      .dwpsn  file "../c5535_bsl_revc/ezdsp5535_v1/c55xx_csl/src/csl_lcdc.c",line 568,column 13,is_stmt
    1056 0006b4 3E94          MOV #-9, T0
    1057 0006b6 0601          B $C$L30  ; |568| 
TMS320C55x Assembler PC v4.4.1 Tue Oct 02 02:33:01 2018

Tools Copyright (c) 1996-2012 Texas Instruments Incorporated
csl_lcdc.asm                                                         PAGE   28

         0006b8 6B   
    1058                                                      ; branch occurs ; |568| 
    1059 0006b9       $C$L22:    
    1060                      .dwpsn  file "../c5535_bsl_revc/ezdsp5535_v1/c55xx_csl/src/csl_lcdc.c",line 572,column 9,is_stmt
    1061              
    1062 0006b9 ED0C          MOV dbl(*SP(#6)), AC1 ; |572| 
         0006bb 18   
    1063 0006bc 3D00  ||      MOV #0, AC0 ; |572| 
    1064              
    1065 0006be 7E80          OR #0x8000, AC0, AC0 ; |572| 
         0006c0 0000 
    1066 0006c2 1214          CMPU AC1 < AC0, TC1 ; |572| 
         0006c4 04   
    1067 0006c5 0464          BCC $C$L23,TC1 ; |572| 
         0006c7 25   
    1068                                                      ; branchcc occurs ; |572| 
    1069 0006c8 EC31          AMOV #163839, XAR3 ; |572| 
         0006ca BE02 
         0006cc 7FFF 
    1070 0006ce ED0C          MOV dbl(*SP(#6)), AC1 ; |572| 
         0006d0 18   
    1071 0006d1 90B0          MOV XAR3, AC0
    1072 0006d3 1204          CMPU AC1 > AC0, TC1 ; |572| 
         0006d5 14   
    1073 0006d6 0464          BCC $C$L23,TC1 ; |572| 
         0006d8 14   
    1074                                                      ; branchcc occurs ; |572| 
    1075                      .dwpsn  file "../c5535_bsl_revc/ezdsp5535_v1/c55xx_csl/src/csl_lcdc.c",line 575,column 13,is_stmt
    1076 0006d9 EC31          AMOV #524288, XAR3 ; |575| 
         0006db BE08 
         0006dd 0000 
    1077 0006df ED0C          MOV dbl(*SP(#6)), AC1 ; |575| 
         0006e1 18   
    1078              
    1079 0006e4 5110          SFTL AC1, #1 ; |575| 
    1080 0006e2 90B0  ||      MOV XAR3, AC0
    1081              
    1082 0006e6 2410          ADD AC1, AC0 ; |575| 
    1083 0006e8 EB0C          MOV AC0, dbl(*SP(#6)) ; |575| 
         0006ea 08   
    1084                      .dwpsn  file "../c5535_bsl_revc/ezdsp5535_v1/c55xx_csl/src/csl_lcdc.c",line 577,column 9,is_stmt
    1085 0006eb 4A05          B $C$L24  ; |577| 
    1086                                                      ; branch occurs ; |577| 
    1087 0006ed       $C$L23:    
    1088                      .dwpsn  file "../c5535_bsl_revc/ezdsp5535_v1/c55xx_csl/src/csl_lcdc.c",line 580,column 13,is_stmt
    1089 0006ed 3E94          MOV #-9, T0
    1090 0006ef 0601          B $C$L30  ; |580| 
         0006f1 32   
    1091                                                      ; branch occurs ; |580| 
    1092 0006f2       $C$L24:    
    1093                      .dwpsn  file "../c5535_bsl_revc/ezdsp5535_v1/c55xx_csl/src/csl_lcdc.c",line 583,column 9,is_stmt
    1094 0006f2 ED08          MOV dbl(*SP(#4)), AC0 ; |583| 
         0006f4 08   
    1095 0006f5 7DFF          AND #0xffff, AC0, AC0 ; |583| 
         0006f7 FF00 
TMS320C55x Assembler PC v4.4.1 Tue Oct 02 02:33:01 2018

Tools Copyright (c) 1996-2012 Texas Instruments Incorporated
csl_lcdc.asm                                                         PAGE   29

    1096 0006f9 C010          MOV AC0, *SP(#8) ; |583| 
    1097                      .dwpsn  file "../c5535_bsl_revc/ezdsp5535_v1/c55xx_csl/src/csl_lcdc.c",line 584,column 9,is_stmt
    1098 0006fb ED08          MOV dbl(*SP(#4)), AC0 ; |584| 
         0006fd 08   
    1099 0006fe BC12          MOV HI(AC0), *SP(#9) ; |584| 
    1100                      .dwpsn  file "../c5535_bsl_revc/ezdsp5535_v1/c55xx_csl/src/csl_lcdc.c",line 585,column 9,is_stmt
    1101 000700 ED00          MOV dbl(*SP(#0)), XAR3
         000702 BF   
    1102 000703 7600          MOV #68, T0 ; |585| 
         000705 4448 
    1103 000707 AB61          MOV *AR3, AR3 ; |585| 
    1104 000709 A910          MOV *SP(#8), AR1 ; |585| 
    1105 00070b C96B          MOV AR1, port(*AR3(T0)) ; |585| 
         00070d 9A   
    1106                      .dwpsn  file "../c5535_bsl_revc/ezdsp5535_v1/c55xx_csl/src/csl_lcdc.c",line 586,column 9,is_stmt
    1107 00070e ED00          MOV dbl(*SP(#0)), XAR3
         000710 BF   
    1108 000711 7600          MOV #69, T0 ; |586| 
         000713 4548 
    1109 000715 AB61          MOV *AR3, AR3 ; |586| 
    1110 000717 A912          MOV *SP(#9), AR1 ; |586| 
    1111 000719 C96B          MOV AR1, port(*AR3(T0)) ; |586| 
         00071b 9A   
    1112                      .dwpsn  file "../c5535_bsl_revc/ezdsp5535_v1/c55xx_csl/src/csl_lcdc.c",line 588,column 9,is_stmt
    1113 00071c ED0C          MOV dbl(*SP(#6)), AC0 ; |588| 
         00071e 08   
    1114 00071f 7DFF          AND #0xffff, AC0, AC0 ; |588| 
         000721 FF00 
    1115 000723 C010          MOV AC0, *SP(#8) ; |588| 
    1116                      .dwpsn  file "../c5535_bsl_revc/ezdsp5535_v1/c55xx_csl/src/csl_lcdc.c",line 589,column 9,is_stmt
    1117 000725 ED0C          MOV dbl(*SP(#6)), AC0 ; |589| 
         000727 08   
    1118 000728 BC12          MOV HI(AC0), *SP(#9) ; |589| 
    1119                      .dwpsn  file "../c5535_bsl_revc/ezdsp5535_v1/c55xx_csl/src/csl_lcdc.c",line 590,column 9,is_stmt
    1120 00072a ED00          MOV dbl(*SP(#0)), XAR3
         00072c BF   
    1121 00072d 7600          MOV #72, T0 ; |590| 
         00072f 4848 
    1122 000731 AB61          MOV *AR3, AR3 ; |590| 
    1123 000733 A910          MOV *SP(#8), AR1 ; |590| 
    1124 000735 C96B          MOV AR1, port(*AR3(T0)) ; |590| 
         000737 9A   
    1125                      .dwpsn  file "../c5535_bsl_revc/ezdsp5535_v1/c55xx_csl/src/csl_lcdc.c",line 591,column 9,is_stmt
    1126 000738 ED00          MOV dbl(*SP(#0)), XAR3
         00073a BF   
    1127 00073b 7600          MOV #73, T0 ; |591| 
         00073d 4948 
    1128 00073f AB61          MOV *AR3, AR3 ; |591| 
    1129 000741 A912          MOV *SP(#9), AR1 ; |591| 
    1130 000743 C96B          MOV AR1, port(*AR3(T0)) ; |591| 
         000745 9A   
    1131                      .dwpsn  file "../c5535_bsl_revc/ezdsp5535_v1/c55xx_csl/src/csl_lcdc.c",line 594,column 9,is_stmt
    1132 000746 ED04          MOV dbl(*SP(#2)), XAR3
         000748 BF   
    1133 000749 ED6D          MOV dbl(*AR3(#8)), AC0 ; |594| 
TMS320C55x Assembler PC v4.4.1 Tue Oct 02 02:33:01 2018

Tools Copyright (c) 1996-2012 Texas Instruments Incorporated
csl_lcdc.asm                                                         PAGE   30

         00074b 0800 
         00074d 08   
    1134 00074e EB08          MOV AC0, dbl(*SP(#4)) ; |594| 
         000750 08   
    1135                      .dwpsn  file "../c5535_bsl_revc/ezdsp5535_v1/c55xx_csl/src/csl_lcdc.c",line 595,column 9,is_stmt
    1136 000751 ED04          MOV dbl(*SP(#2)), XAR3
         000753 BF   
    1137 000754 ED6D          MOV dbl(*AR3(#10)), AC0 ; |595| 
         000756 0800 
         000758 0A   
    1138 000759 EB0C          MOV AC0, dbl(*SP(#6)) ; |595| 
         00075b 08   
    1139                      .dwpsn  file "../c5535_bsl_revc/ezdsp5535_v1/c55xx_csl/src/csl_lcdc.c",line 597,column 9,is_stmt
    1140 00075c 3C00          MOV #0, AC0 ; |597| 
    1141 00075e 7E80          OR #0x8000, AC0, AC0 ; |597| 
         000760 0000 
    1142 000762 ED08          MOV dbl(*SP(#4)), AC1 ; |597| 
         000764 18   
    1143 000765 1214          CMPU AC1 < AC0, TC1 ; |597| 
         000767 04   
    1144 000768 0464          BCC $C$L25,TC1 ; |597| 
         00076a 25   
    1145                                                      ; branchcc occurs ; |597| 
    1146 00076b EC31          AMOV #163839, XAR3 ; |597| 
         00076d BE02 
         00076f 7FFF 
    1147 000771 ED08          MOV dbl(*SP(#4)), AC1 ; |597| 
         000773 18   
    1148 000774 90B0          MOV XAR3, AC0
    1149 000776 1204          CMPU AC1 > AC0, TC1 ; |597| 
         000778 14   
    1150 000779 0464          BCC $C$L25,TC1 ; |597| 
         00077b 14   
    1151                                                      ; branchcc occurs ; |597| 
    1152                      .dwpsn  file "../c5535_bsl_revc/ezdsp5535_v1/c55xx_csl/src/csl_lcdc.c",line 600,column 13,is_stmt
    1153 00077c EC31          AMOV #524288, XAR3 ; |600| 
         00077e BE08 
         000780 0000 
    1154 000782 ED08          MOV dbl(*SP(#4)), AC1 ; |600| 
         000784 18   
    1155              
    1156 000787 5110          SFTL AC1, #1 ; |600| 
    1157 000785 90B0  ||      MOV XAR3, AC0
    1158              
    1159 000789 2410          ADD AC1, AC0 ; |600| 
    1160 00078b EB08          MOV AC0, dbl(*SP(#4)) ; |600| 
         00078d 08   
    1161                      .dwpsn  file "../c5535_bsl_revc/ezdsp5535_v1/c55xx_csl/src/csl_lcdc.c",line 602,column 9,is_stmt
    1162 00078e 4A05          B $C$L26  ; |602| 
    1163                                                      ; branch occurs ; |602| 
    1164 000790       $C$L25:    
    1165                      .dwpsn  file "../c5535_bsl_revc/ezdsp5535_v1/c55xx_csl/src/csl_lcdc.c",line 605,column 13,is_stmt
    1166 000790 3E94          MOV #-9, T0
    1167 000792 0600          B $C$L30  ; |605| 
         000794 8F   
TMS320C55x Assembler PC v4.4.1 Tue Oct 02 02:33:01 2018

Tools Copyright (c) 1996-2012 Texas Instruments Incorporated
csl_lcdc.asm                                                         PAGE   31

    1168                                                      ; branch occurs ; |605| 
    1169 000795       $C$L26:    
    1170                      .dwpsn  file "../c5535_bsl_revc/ezdsp5535_v1/c55xx_csl/src/csl_lcdc.c",line 609,column 9,is_stmt
    1171              
    1172 000795 ED0C          MOV dbl(*SP(#6)), AC1 ; |609| 
         000797 18   
    1173 000798 3D00  ||      MOV #0, AC0 ; |609| 
    1174              
    1175 00079a 7E80          OR #0x8000, AC0, AC0 ; |609| 
         00079c 0000 
    1176 00079e 1214          CMPU AC1 < AC0, TC1 ; |609| 
         0007a0 04   
    1177 0007a1 0464          BCC $C$L27,TC1 ; |609| 
         0007a3 25   
    1178                                                      ; branchcc occurs ; |609| 
    1179 0007a4 EC31          AMOV #163839, XAR3 ; |609| 
         0007a6 BE02 
         0007a8 7FFF 
    1180 0007aa ED0C          MOV dbl(*SP(#6)), AC1 ; |609| 
         0007ac 18   
    1181 0007ad 90B0          MOV XAR3, AC0
    1182 0007af 1204          CMPU AC1 > AC0, TC1 ; |609| 
         0007b1 14   
    1183 0007b2 0464          BCC $C$L27,TC1 ; |609| 
         0007b4 14   
    1184                                                      ; branchcc occurs ; |609| 
    1185                      .dwpsn  file "../c5535_bsl_revc/ezdsp5535_v1/c55xx_csl/src/csl_lcdc.c",line 612,column 13,is_stmt
    1186 0007b5 EC31          AMOV #524288, XAR3 ; |612| 
         0007b7 BE08 
         0007b9 0000 
    1187 0007bb ED0C          MOV dbl(*SP(#6)), AC1 ; |612| 
         0007bd 18   
    1188              
    1189 0007c0 5110          SFTL AC1, #1 ; |612| 
    1190 0007be 90B0  ||      MOV XAR3, AC0
    1191              
    1192 0007c2 2410          ADD AC1, AC0 ; |612| 
    1193 0007c4 EB0C          MOV AC0, dbl(*SP(#6)) ; |612| 
         0007c6 08   
    1194                      .dwpsn  file "../c5535_bsl_revc/ezdsp5535_v1/c55xx_csl/src/csl_lcdc.c",line 614,column 9,is_stmt
    1195 0007c7 4A05          B $C$L28  ; |614| 
    1196                                                      ; branch occurs ; |614| 
    1197 0007c9       $C$L27:    
    1198                      .dwpsn  file "../c5535_bsl_revc/ezdsp5535_v1/c55xx_csl/src/csl_lcdc.c",line 617,column 13,is_stmt
    1199 0007c9 3E94          MOV #-9, T0
    1200 0007cb 0600          B $C$L30  ; |617| 
         0007cd 56   
    1201                                                      ; branch occurs ; |617| 
    1202 0007ce       $C$L28:    
    1203                      .dwpsn  file "../c5535_bsl_revc/ezdsp5535_v1/c55xx_csl/src/csl_lcdc.c",line 620,column 9,is_stmt
    1204 0007ce ED08          MOV dbl(*SP(#4)), AC0 ; |620| 
         0007d0 08   
    1205 0007d1 7DFF          AND #0xffff, AC0, AC0 ; |620| 
         0007d3 FF00 
    1206 0007d5 C010          MOV AC0, *SP(#8) ; |620| 
TMS320C55x Assembler PC v4.4.1 Tue Oct 02 02:33:01 2018

Tools Copyright (c) 1996-2012 Texas Instruments Incorporated
csl_lcdc.asm                                                         PAGE   32

    1207                      .dwpsn  file "../c5535_bsl_revc/ezdsp5535_v1/c55xx_csl/src/csl_lcdc.c",line 621,column 9,is_stmt
    1208 0007d7 ED08          MOV dbl(*SP(#4)), AC0 ; |621| 
         0007d9 08   
    1209 0007da BC12          MOV HI(AC0), *SP(#9) ; |621| 
    1210                      .dwpsn  file "../c5535_bsl_revc/ezdsp5535_v1/c55xx_csl/src/csl_lcdc.c",line 622,column 9,is_stmt
    1211 0007dc ED00          MOV dbl(*SP(#0)), XAR3
         0007de BF   
    1212 0007df 7600          MOV #76, T0 ; |622| 
         0007e1 4C48 
    1213 0007e3 AB61          MOV *AR3, AR3 ; |622| 
    1214 0007e5 A910          MOV *SP(#8), AR1 ; |622| 
    1215 0007e7 C96B          MOV AR1, port(*AR3(T0)) ; |622| 
         0007e9 9A   
    1216                      .dwpsn  file "../c5535_bsl_revc/ezdsp5535_v1/c55xx_csl/src/csl_lcdc.c",line 623,column 9,is_stmt
    1217 0007ea ED00          MOV dbl(*SP(#0)), XAR3
         0007ec BF   
    1218 0007ed 7600          MOV #77, T0 ; |623| 
         0007ef 4D48 
    1219 0007f1 AB61          MOV *AR3, AR3 ; |623| 
    1220 0007f3 A912          MOV *SP(#9), AR1 ; |623| 
    1221 0007f5 C96B          MOV AR1, port(*AR3(T0)) ; |623| 
         0007f7 9A   
    1222                      .dwpsn  file "../c5535_bsl_revc/ezdsp5535_v1/c55xx_csl/src/csl_lcdc.c",line 625,column 9,is_stmt
    1223 0007f8 ED0C          MOV dbl(*SP(#6)), AC0 ; |625| 
         0007fa 08   
    1224 0007fb 7DFF          AND #0xffff, AC0, AC0 ; |625| 
         0007fd FF00 
    1225 0007ff C010          MOV AC0, *SP(#8) ; |625| 
    1226                      .dwpsn  file "../c5535_bsl_revc/ezdsp5535_v1/c55xx_csl/src/csl_lcdc.c",line 626,column 9,is_stmt
    1227 000801 ED0C          MOV dbl(*SP(#6)), AC0 ; |626| 
         000803 08   
    1228 000804 BC12          MOV HI(AC0), *SP(#9) ; |626| 
    1229                      .dwpsn  file "../c5535_bsl_revc/ezdsp5535_v1/c55xx_csl/src/csl_lcdc.c",line 627,column 9,is_stmt
    1230 000806 ED00          MOV dbl(*SP(#0)), XAR3
         000808 BF   
    1231 000809 7600          MOV #80, T0 ; |627| 
         00080b 5048 
    1232 00080d AB61          MOV *AR3, AR3 ; |627| 
    1233 00080f A910          MOV *SP(#8), AR1 ; |627| 
    1234 000811 C96B          MOV AR1, port(*AR3(T0)) ; |627| 
         000813 9A   
    1235                      .dwpsn  file "../c5535_bsl_revc/ezdsp5535_v1/c55xx_csl/src/csl_lcdc.c",line 628,column 9,is_stmt
    1236 000814 ED00          MOV dbl(*SP(#0)), XAR3
         000816 BF   
    1237 000817 7600          MOV #81, T0 ; |628| 
         000819 5148 
    1238 00081b AB61          MOV *AR3, AR3 ; |628| 
    1239 00081d A912          MOV *SP(#9), AR1 ; |628| 
    1240 00081f C96B          MOV AR1, port(*AR3(T0)) ; |628| 
         000821 9A   
    1241 000822       $C$L29:    
    1242                      .dwpsn  file "../c5535_bsl_revc/ezdsp5535_v1/c55xx_csl/src/csl_lcdc.c",line 630,column 5,is_stmt
    1243 000822 3C04          MOV #0, T0
    1244 000824       $C$L30:    
    1245                      .dwpsn  file "../c5535_bsl_revc/ezdsp5535_v1/c55xx_csl/src/csl_lcdc.c",line 631,column 1,is_stmt
TMS320C55x Assembler PC v4.4.1 Tue Oct 02 02:33:01 2018

Tools Copyright (c) 1996-2012 Texas Instruments Incorporated
csl_lcdc.asm                                                         PAGE   33

    1246 000824 4E0B          AADD #11, SP
    1247                      .dwcfi  cfa_offset, 1
    1248              $C$DW$28        .dwtag  DW_TAG_TI_branch
    1249                      .dwattr $C$DW$28, DW_AT_low_pc(0x00)
    1250                      .dwattr $C$DW$28, DW_AT_TI_return
    1251 000826 4804          RET
    1252                                                      ; return occurs
    1253                      .dwattr $C$DW$19, DW_AT_TI_end_file("../c5535_bsl_revc/ezdsp5535_v1/c55xx_csl/src/csl_lcdc.c")
    1254                      .dwattr $C$DW$19, DW_AT_TI_end_line(0x277)
    1255                      .dwattr $C$DW$19, DW_AT_TI_end_column(0x01)
    1256                      .dwendentry
    1257                      .dwendtag $C$DW$19
    1258              
    1259 000828               .sect   ".text"
    1260                      .align 4
    1261                      .global _LCD_close
    1262              
    1263              $C$DW$29        .dwtag  DW_TAG_subprogram, DW_AT_name("LCD_close")
    1264                      .dwattr $C$DW$29, DW_AT_low_pc(_LCD_close)
    1265                      .dwattr $C$DW$29, DW_AT_high_pc(0x00)
    1266                      .dwattr $C$DW$29, DW_AT_TI_symbol_name("_LCD_close")
    1267                      .dwattr $C$DW$29, DW_AT_external
    1268                      .dwattr $C$DW$29, DW_AT_type(*$C$DW$T$72)
    1269                      .dwattr $C$DW$29, DW_AT_TI_begin_file("../c5535_bsl_revc/ezdsp5535_v1/c55xx_csl/src/csl_lcdc.c")
    1270                      .dwattr $C$DW$29, DW_AT_TI_begin_line(0x2a0)
    1271                      .dwattr $C$DW$29, DW_AT_TI_begin_column(0x0c)
    1272                      .dwattr $C$DW$29, DW_AT_TI_max_frame_size(0x04)
    1273                      .dwpsn  file "../c5535_bsl_revc/ezdsp5535_v1/c55xx_csl/src/csl_lcdc.c",line 674,column 1,is_stmt,addr
    1274              
    1275                      .dwfde $C$DW$CIE, _LCD_close
    1276              $C$DW$30        .dwtag  DW_TAG_formal_parameter, DW_AT_name("hLcdc")
    1277                      .dwattr $C$DW$30, DW_AT_TI_symbol_name("_hLcdc")
    1278                      .dwattr $C$DW$30, DW_AT_type(*$C$DW$T$71)
    1279                      .dwattr $C$DW$30, DW_AT_location[DW_OP_reg17]
    1280              ;*******************************************************************************
    1281              ;* FUNCTION NAME: LCD_close                                                    *
    1282              ;*                                                                             *
    1283              ;*   Function Uses Regs : AC0,AC0,T0,AR0,XAR0,AR3,XAR3,SP,M40,SATA,SATD,RDM,   *
    1284              ;*                        FRCT,SMUL                                            *
    1285              ;*   Stack Frame        : Compact (No Frame Pointer, w/ debug)                 *
    1286              ;*   Total Frame Size   : 4 words                                              *
    1287              ;*                        (2 return address/alignment)                         *
    1288              ;*                        (2 local values)                                     *
    1289              ;*   Min System Stack   : 1 word                                               *
    1290              ;*******************************************************************************
    1291 000828       _LCD_close:
    1292                      .dwcfi  cfa_offset, 1
    1293                      .dwcfi  save_reg_to_mem, 91, -1
    1294 000828 4EFD          AADD #-3, SP
    1295                      .dwcfi  cfa_offset, 4
    1296              $C$DW$31        .dwtag  DW_TAG_variable, DW_AT_name("hLcdc")
    1297                      .dwattr $C$DW$31, DW_AT_TI_symbol_name("_hLcdc")
    1298                      .dwattr $C$DW$31, DW_AT_type(*$C$DW$T$71)
    1299                      .dwattr $C$DW$31, DW_AT_location[DW_OP_bregx 0x24 0]
    1300 00082a EB00          MOV XAR0, dbl(*SP(#0))
TMS320C55x Assembler PC v4.4.1 Tue Oct 02 02:33:01 2018

Tools Copyright (c) 1996-2012 Texas Instruments Incorporated
csl_lcdc.asm                                                         PAGE   34

         00082c 85   
    1301                      .dwpsn  file "../c5535_bsl_revc/ezdsp5535_v1/c55xx_csl/src/csl_lcdc.c",line 675,column 5,is_stmt
    1302 00082d ED00          MOV dbl(*SP(#0)), XAR3
         00082f BF   
    1303 000830 90B0          MOV XAR3, AC0
    1304 000832 6210          BCC $C$L31,AC0 != #0 ; |675| 
    1305                                                      ; branchcc occurs ; |675| 
    1306                      .dwpsn  file "../c5535_bsl_revc/ezdsp5535_v1/c55xx_csl/src/csl_lcdc.c",line 677,column 9,is_stmt
    1307 000834 3E54          MOV #-5, T0
    1308 000836 4A0C          B $C$L32  ; |677| 
    1309                                                      ; branch occurs ; |677| 
    1310 000838       $C$L31:    
    1311                      .dwpsn  file "../c5535_bsl_revc/ezdsp5535_v1/c55xx_csl/src/csl_lcdc.c",line 681,column 3,is_stmt
    1312 000838 FB73          MOV #255, *AR3(short(#1)) ; |681| 
         00083a 00FF 
    1313                      .dwpsn  file "../c5535_bsl_revc/ezdsp5535_v1/c55xx_csl/src/csl_lcdc.c",line 682,column 3,is_stmt
    1314 00083c ED00          MOV dbl(*SP(#0)), XAR3
         00083e BF   
    1315 00083f E661          MOV #0, *AR3 ; |682| 
         000841 00   
    1316                      .dwpsn  file "../c5535_bsl_revc/ezdsp5535_v1/c55xx_csl/src/csl_lcdc.c",line 683,column 3,is_stmt
    1317 000842 3C04          MOV #0, T0
    1318 000844       $C$L32:    
    1319                      .dwpsn  file "../c5535_bsl_revc/ezdsp5535_v1/c55xx_csl/src/csl_lcdc.c",line 685,column 1,is_stmt
    1320 000844 4E03          AADD #3, SP
    1321                      .dwcfi  cfa_offset, 1
    1322              $C$DW$32        .dwtag  DW_TAG_TI_branch
    1323                      .dwattr $C$DW$32, DW_AT_low_pc(0x00)
    1324                      .dwattr $C$DW$32, DW_AT_TI_return
    1325 000846 4804          RET
    1326                                                      ; return occurs
    1327                      .dwattr $C$DW$29, DW_AT_TI_end_file("../c5535_bsl_revc/ezdsp5535_v1/c55xx_csl/src/csl_lcdc.c")
    1328                      .dwattr $C$DW$29, DW_AT_TI_end_line(0x2ad)
    1329                      .dwattr $C$DW$29, DW_AT_TI_end_column(0x01)
    1330                      .dwendentry
    1331                      .dwendtag $C$DW$29
    1332              
    1333              
    1334              ;*******************************************************************************
    1335              ;* TYPE INFORMATION                                                            *
    1336              ;*******************************************************************************
    1337              
    1338              $C$DW$T$25      .dwtag  DW_TAG_enumeration_type
    1339                      .dwattr $C$DW$T$25, DW_AT_byte_size(0x01)
    1340              $C$DW$33        .dwtag  DW_TAG_enumerator, DW_AT_name("CSL_LCDC_LIDD_FDONE_DISABLE"), DW_AT_const_value(0x00)
    1341              $C$DW$34        .dwtag  DW_TAG_enumerator, DW_AT_name("CSL_LCDC_LIDD_FDONE_ENABLE"), DW_AT_const_value(0x01)
    1342                      .dwendtag $C$DW$T$25
    1343              
    1344              $C$DW$T$26      .dwtag  DW_TAG_typedef, DW_AT_name("CSL_LcdcFdoneCtl")
    1345                      .dwattr $C$DW$T$26, DW_AT_type(*$C$DW$T$25)
    1346                      .dwattr $C$DW$T$26, DW_AT_language(DW_LANG_C)
    1347              
    1348              $C$DW$T$27      .dwtag  DW_TAG_enumeration_type
    1349                      .dwattr $C$DW$T$27, DW_AT_byte_size(0x01)
    1350              $C$DW$35        .dwtag  DW_TAG_enumerator, DW_AT_name("CSL_LCDC_LIDD_CS0"), DW_AT_const_value(0x00)
TMS320C55x Assembler PC v4.4.1 Tue Oct 02 02:33:01 2018

Tools Copyright (c) 1996-2012 Texas Instruments Incorporated
csl_lcdc.asm                                                         PAGE   35

    1351              $C$DW$36        .dwtag  DW_TAG_enumerator, DW_AT_name("CSL_LCDC_LIDD_CS1"), DW_AT_const_value(0x01)
    1352                      .dwendtag $C$DW$T$27
    1353              
    1354              $C$DW$T$28      .dwtag  DW_TAG_typedef, DW_AT_name("CSL_LcdcChipSelect")
    1355                      .dwattr $C$DW$T$28, DW_AT_type(*$C$DW$T$27)
    1356                      .dwattr $C$DW$T$28, DW_AT_language(DW_LANG_C)
    1357              
    1358              $C$DW$T$29      .dwtag  DW_TAG_enumeration_type
    1359                      .dwattr $C$DW$T$29, DW_AT_byte_size(0x01)
    1360              $C$DW$37        .dwtag  DW_TAG_enumerator, DW_AT_name("CSL_LCDC_LIDD_DMA_DISABLE"), DW_AT_const_value(0x00)
    1361              $C$DW$38        .dwtag  DW_TAG_enumerator, DW_AT_name("CSL_LCDC_LIDD_DMA_ENABLE"), DW_AT_const_value(0x01)
    1362                      .dwendtag $C$DW$T$29
    1363              
    1364              $C$DW$T$30      .dwtag  DW_TAG_typedef, DW_AT_name("CSL_LcdcDmaCtl")
    1365                      .dwattr $C$DW$T$30, DW_AT_type(*$C$DW$T$29)
    1366                      .dwattr $C$DW$T$30, DW_AT_language(DW_LANG_C)
    1367              
    1368              $C$DW$T$32      .dwtag  DW_TAG_enumeration_type
    1369                      .dwattr $C$DW$T$32, DW_AT_byte_size(0x01)
    1370              $C$DW$39        .dwtag  DW_TAG_enumerator, DW_AT_name("CSL_LCDC_LIDD_SYNC_MPU68"), DW_AT_const_value(0x00)
    1371              $C$DW$40        .dwtag  DW_TAG_enumerator, DW_AT_name("CSL_LCDC_LIDD_ASYNC_MPU68"), DW_AT_const_value(0x01)
    1372              $C$DW$41        .dwtag  DW_TAG_enumerator, DW_AT_name("CSL_LCDC_LIDD_SYNC_MPU80"), DW_AT_const_value(0x02)
    1373              $C$DW$42        .dwtag  DW_TAG_enumerator, DW_AT_name("CSL_LCDC_LIDD_ASYNC_MPU80"), DW_AT_const_value(0x03)
    1374              $C$DW$43        .dwtag  DW_TAG_enumerator, DW_AT_name("CSL_LCDC_LIDD_ASYNC_HITACHI"), DW_AT_const_value(0x04)
    1375                      .dwendtag $C$DW$T$32
    1376              
    1377              $C$DW$T$33      .dwtag  DW_TAG_typedef, DW_AT_name("CSL_LcdcLiddMode")
    1378                      .dwattr $C$DW$T$33, DW_AT_type(*$C$DW$T$32)
    1379                      .dwattr $C$DW$T$33, DW_AT_language(DW_LANG_C)
    1380              
    1381              $C$DW$T$38      .dwtag  DW_TAG_enumeration_type
    1382                      .dwattr $C$DW$T$38, DW_AT_byte_size(0x01)
    1383              $C$DW$44        .dwtag  DW_TAG_enumerator, DW_AT_name("CSL_LCDC_LIDD_NOT_USE_CS1"), DW_AT_const_value(0x00)
    1384              $C$DW$45        .dwtag  DW_TAG_enumerator, DW_AT_name("CSL_LCDC_LIDD_USE_CS1"), DW_AT_const_value(0x01)
    1385                      .dwendtag $C$DW$T$38
    1386              
    1387              $C$DW$T$39      .dwtag  DW_TAG_typedef, DW_AT_name("CSL_LcdcCs1Status")
    1388                      .dwattr $C$DW$T$39, DW_AT_type(*$C$DW$T$38)
    1389                      .dwattr $C$DW$T$39, DW_AT_language(DW_LANG_C)
    1390              
    1391              $C$DW$T$41      .dwtag  DW_TAG_enumeration_type
    1392                      .dwattr $C$DW$T$41, DW_AT_byte_size(0x01)
    1393              $C$DW$46        .dwtag  DW_TAG_enumerator, DW_AT_name("CSL_LCDC_DMA_BURST1"), DW_AT_const_value(0x00)
    1394              $C$DW$47        .dwtag  DW_TAG_enumerator, DW_AT_name("CSL_LCDC_DMA_BURST2"), DW_AT_const_value(0x01)
    1395              $C$DW$48        .dwtag  DW_TAG_enumerator, DW_AT_name("CSL_LCDC_DMA_BURST4"), DW_AT_const_value(0x02)
    1396              $C$DW$49        .dwtag  DW_TAG_enumerator, DW_AT_name("CSL_LCDC_DMA_BURST8"), DW_AT_const_value(0x03)
    1397              $C$DW$50        .dwtag  DW_TAG_enumerator, DW_AT_name("CSL_LCDC_DMA_BURST16"), DW_AT_const_value(0x04)
    1398                      .dwendtag $C$DW$T$41
    1399              
    1400              $C$DW$T$42      .dwtag  DW_TAG_typedef, DW_AT_name("CSL_LcdcDmaBurst")
    1401                      .dwattr $C$DW$T$42, DW_AT_type(*$C$DW$T$41)
    1402                      .dwattr $C$DW$T$42, DW_AT_language(DW_LANG_C)
    1403              
    1404              $C$DW$T$43      .dwtag  DW_TAG_enumeration_type
    1405                      .dwattr $C$DW$T$43, DW_AT_byte_size(0x01)
TMS320C55x Assembler PC v4.4.1 Tue Oct 02 02:33:01 2018

Tools Copyright (c) 1996-2012 Texas Instruments Incorporated
csl_lcdc.asm                                                         PAGE   36

    1406              $C$DW$51        .dwtag  DW_TAG_enumerator, DW_AT_name("CSL_LCDC_EOFINT_DISABLE"), DW_AT_const_value(0x00)
    1407              $C$DW$52        .dwtag  DW_TAG_enumerator, DW_AT_name("CSL_LCDC_EOFINT_ENABLE"), DW_AT_const_value(0x01)
    1408                      .dwendtag $C$DW$T$43
    1409              
    1410              $C$DW$T$44      .dwtag  DW_TAG_typedef, DW_AT_name("CSL_LcdcEofIntCtl")
    1411                      .dwattr $C$DW$T$44, DW_AT_type(*$C$DW$T$43)
    1412                      .dwattr $C$DW$T$44, DW_AT_language(DW_LANG_C)
    1413              
    1414              $C$DW$T$45      .dwtag  DW_TAG_enumeration_type
    1415                      .dwattr $C$DW$T$45, DW_AT_byte_size(0x01)
    1416              $C$DW$53        .dwtag  DW_TAG_enumerator, DW_AT_name("CSL_LCDC_ENDIANESS_LITTLE"), DW_AT_const_value(0x00)
    1417              $C$DW$54        .dwtag  DW_TAG_enumerator, DW_AT_name("CSL_LCDC_ENDIANESS_BIG"), DW_AT_const_value(0x01)
    1418                      .dwendtag $C$DW$T$45
    1419              
    1420              $C$DW$T$46      .dwtag  DW_TAG_typedef, DW_AT_name("CSL_LcdcEndianess")
    1421                      .dwattr $C$DW$T$46, DW_AT_type(*$C$DW$T$45)
    1422                      .dwattr $C$DW$T$46, DW_AT_language(DW_LANG_C)
    1423              
    1424              $C$DW$T$47      .dwtag  DW_TAG_enumeration_type
    1425                      .dwattr $C$DW$T$47, DW_AT_byte_size(0x01)
    1426              $C$DW$55        .dwtag  DW_TAG_enumerator, DW_AT_name("CSL_LCDC_FBMODE_SINGLE"), DW_AT_const_value(0x00)
    1427              $C$DW$56        .dwtag  DW_TAG_enumerator, DW_AT_name("CSL_LCDC_FBMODE_DOUBLE"), DW_AT_const_value(0x01)
    1428                      .dwendtag $C$DW$T$47
    1429              
    1430              $C$DW$T$48      .dwtag  DW_TAG_typedef, DW_AT_name("CSL_LcdcFrameMode")
    1431                      .dwattr $C$DW$T$48, DW_AT_type(*$C$DW$T$47)
    1432                      .dwattr $C$DW$T$48, DW_AT_language(DW_LANG_C)
    1433              
    1434              $C$DW$T$24      .dwtag  DW_TAG_structure_type
    1435                      .dwattr $C$DW$T$24, DW_AT_byte_size(0x52)
    1436              $C$DW$57        .dwtag  DW_TAG_member
    1437                      .dwattr $C$DW$57, DW_AT_type(*$C$DW$T$20)
    1438                      .dwattr $C$DW$57, DW_AT_name("LCDREVMIN")
    1439                      .dwattr $C$DW$57, DW_AT_TI_symbol_name("_LCDREVMIN")
    1440                      .dwattr $C$DW$57, DW_AT_data_member_location[DW_OP_plus_uconst 0x0]
    1441                      .dwattr $C$DW$57, DW_AT_accessibility(DW_ACCESS_public)
    1442              $C$DW$58        .dwtag  DW_TAG_member
    1443                      .dwattr $C$DW$58, DW_AT_type(*$C$DW$T$20)
    1444                      .dwattr $C$DW$58, DW_AT_name("LCDREVMAJ")
    1445                      .dwattr $C$DW$58, DW_AT_TI_symbol_name("_LCDREVMAJ")
    1446                      .dwattr $C$DW$58, DW_AT_data_member_location[DW_OP_plus_uconst 0x1]
    1447                      .dwattr $C$DW$58, DW_AT_accessibility(DW_ACCESS_public)
    1448              $C$DW$59        .dwtag  DW_TAG_member
    1449                      .dwattr $C$DW$59, DW_AT_type(*$C$DW$T$21)
    1450                      .dwattr $C$DW$59, DW_AT_name("RSVD0")
    1451                      .dwattr $C$DW$59, DW_AT_TI_symbol_name("_RSVD0")
    1452                      .dwattr $C$DW$59, DW_AT_data_member_location[DW_OP_plus_uconst 0x2]
    1453                      .dwattr $C$DW$59, DW_AT_accessibility(DW_ACCESS_public)
    1454              $C$DW$60        .dwtag  DW_TAG_member
    1455                      .dwattr $C$DW$60, DW_AT_type(*$C$DW$T$20)
    1456                      .dwattr $C$DW$60, DW_AT_name("LCDCR")
    1457                      .dwattr $C$DW$60, DW_AT_TI_symbol_name("_LCDCR")
    1458                      .dwattr $C$DW$60, DW_AT_data_member_location[DW_OP_plus_uconst 0x4]
    1459                      .dwattr $C$DW$60, DW_AT_accessibility(DW_ACCESS_public)
    1460              $C$DW$61        .dwtag  DW_TAG_member
TMS320C55x Assembler PC v4.4.1 Tue Oct 02 02:33:01 2018

Tools Copyright (c) 1996-2012 Texas Instruments Incorporated
csl_lcdc.asm                                                         PAGE   37

    1461                      .dwattr $C$DW$61, DW_AT_type(*$C$DW$T$22)
    1462                      .dwattr $C$DW$61, DW_AT_name("RSVD1")
    1463                      .dwattr $C$DW$61, DW_AT_TI_symbol_name("_RSVD1")
    1464                      .dwattr $C$DW$61, DW_AT_data_member_location[DW_OP_plus_uconst 0x5]
    1465                      .dwattr $C$DW$61, DW_AT_accessibility(DW_ACCESS_public)
    1466              $C$DW$62        .dwtag  DW_TAG_member
    1467                      .dwattr $C$DW$62, DW_AT_type(*$C$DW$T$20)
    1468                      .dwattr $C$DW$62, DW_AT_name("LCDSR")
    1469                      .dwattr $C$DW$62, DW_AT_TI_symbol_name("_LCDSR")
    1470                      .dwattr $C$DW$62, DW_AT_data_member_location[DW_OP_plus_uconst 0x8]
    1471                      .dwattr $C$DW$62, DW_AT_accessibility(DW_ACCESS_public)
    1472              $C$DW$63        .dwtag  DW_TAG_member
    1473                      .dwattr $C$DW$63, DW_AT_type(*$C$DW$T$22)
    1474                      .dwattr $C$DW$63, DW_AT_name("RSVD2")
    1475                      .dwattr $C$DW$63, DW_AT_TI_symbol_name("_RSVD2")
    1476                      .dwattr $C$DW$63, DW_AT_data_member_location[DW_OP_plus_uconst 0x9]
    1477                      .dwattr $C$DW$63, DW_AT_accessibility(DW_ACCESS_public)
    1478              $C$DW$64        .dwtag  DW_TAG_member
    1479                      .dwattr $C$DW$64, DW_AT_type(*$C$DW$T$20)
    1480                      .dwattr $C$DW$64, DW_AT_name("LCDLIDDCR")
    1481                      .dwattr $C$DW$64, DW_AT_TI_symbol_name("_LCDLIDDCR")
    1482                      .dwattr $C$DW$64, DW_AT_data_member_location[DW_OP_plus_uconst 0xc]
    1483                      .dwattr $C$DW$64, DW_AT_accessibility(DW_ACCESS_public)
    1484              $C$DW$65        .dwtag  DW_TAG_member
    1485                      .dwattr $C$DW$65, DW_AT_type(*$C$DW$T$22)
    1486                      .dwattr $C$DW$65, DW_AT_name("RSVD3")
    1487                      .dwattr $C$DW$65, DW_AT_TI_symbol_name("_RSVD3")
    1488                      .dwattr $C$DW$65, DW_AT_data_member_location[DW_OP_plus_uconst 0xd]
    1489                      .dwattr $C$DW$65, DW_AT_accessibility(DW_ACCESS_public)
    1490              $C$DW$66        .dwtag  DW_TAG_member
    1491                      .dwattr $C$DW$66, DW_AT_type(*$C$DW$T$20)
    1492                      .dwattr $C$DW$66, DW_AT_name("LCDLIDDCS0CONFIG0")
    1493                      .dwattr $C$DW$66, DW_AT_TI_symbol_name("_LCDLIDDCS0CONFIG0")
    1494                      .dwattr $C$DW$66, DW_AT_data_member_location[DW_OP_plus_uconst 0x10]
    1495                      .dwattr $C$DW$66, DW_AT_accessibility(DW_ACCESS_public)
    1496              $C$DW$67        .dwtag  DW_TAG_member
    1497                      .dwattr $C$DW$67, DW_AT_type(*$C$DW$T$20)
    1498                      .dwattr $C$DW$67, DW_AT_name("LCDLIDDCS0CONFIG1")
    1499                      .dwattr $C$DW$67, DW_AT_TI_symbol_name("_LCDLIDDCS0CONFIG1")
    1500                      .dwattr $C$DW$67, DW_AT_data_member_location[DW_OP_plus_uconst 0x11]
    1501                      .dwattr $C$DW$67, DW_AT_accessibility(DW_ACCESS_public)
    1502              $C$DW$68        .dwtag  DW_TAG_member
    1503                      .dwattr $C$DW$68, DW_AT_type(*$C$DW$T$21)
    1504                      .dwattr $C$DW$68, DW_AT_name("RSVD4")
    1505                      .dwattr $C$DW$68, DW_AT_TI_symbol_name("_RSVD4")
    1506                      .dwattr $C$DW$68, DW_AT_data_member_location[DW_OP_plus_uconst 0x12]
    1507                      .dwattr $C$DW$68, DW_AT_accessibility(DW_ACCESS_public)
    1508              $C$DW$69        .dwtag  DW_TAG_member
    1509                      .dwattr $C$DW$69, DW_AT_type(*$C$DW$T$20)
    1510                      .dwattr $C$DW$69, DW_AT_name("LCDLIDDCS0ADDR")
    1511                      .dwattr $C$DW$69, DW_AT_TI_symbol_name("_LCDLIDDCS0ADDR")
    1512                      .dwattr $C$DW$69, DW_AT_data_member_location[DW_OP_plus_uconst 0x14]
    1513                      .dwattr $C$DW$69, DW_AT_accessibility(DW_ACCESS_public)
    1514              $C$DW$70        .dwtag  DW_TAG_member
    1515                      .dwattr $C$DW$70, DW_AT_type(*$C$DW$T$22)
TMS320C55x Assembler PC v4.4.1 Tue Oct 02 02:33:01 2018

Tools Copyright (c) 1996-2012 Texas Instruments Incorporated
csl_lcdc.asm                                                         PAGE   38

    1516                      .dwattr $C$DW$70, DW_AT_name("RSVD5")
    1517                      .dwattr $C$DW$70, DW_AT_TI_symbol_name("_RSVD5")
    1518                      .dwattr $C$DW$70, DW_AT_data_member_location[DW_OP_plus_uconst 0x15]
    1519                      .dwattr $C$DW$70, DW_AT_accessibility(DW_ACCESS_public)
    1520              $C$DW$71        .dwtag  DW_TAG_member
    1521                      .dwattr $C$DW$71, DW_AT_type(*$C$DW$T$20)
    1522                      .dwattr $C$DW$71, DW_AT_name("LCDLIDDCS0DATA")
    1523                      .dwattr $C$DW$71, DW_AT_TI_symbol_name("_LCDLIDDCS0DATA")
    1524                      .dwattr $C$DW$71, DW_AT_data_member_location[DW_OP_plus_uconst 0x18]
    1525                      .dwattr $C$DW$71, DW_AT_accessibility(DW_ACCESS_public)
    1526              $C$DW$72        .dwtag  DW_TAG_member
    1527                      .dwattr $C$DW$72, DW_AT_type(*$C$DW$T$22)
    1528                      .dwattr $C$DW$72, DW_AT_name("RSVD6")
    1529                      .dwattr $C$DW$72, DW_AT_TI_symbol_name("_RSVD6")
    1530                      .dwattr $C$DW$72, DW_AT_data_member_location[DW_OP_plus_uconst 0x19]
    1531                      .dwattr $C$DW$72, DW_AT_accessibility(DW_ACCESS_public)
    1532              $C$DW$73        .dwtag  DW_TAG_member
    1533                      .dwattr $C$DW$73, DW_AT_type(*$C$DW$T$20)
    1534                      .dwattr $C$DW$73, DW_AT_name("LCDLIDDCS1CONFIG0")
    1535                      .dwattr $C$DW$73, DW_AT_TI_symbol_name("_LCDLIDDCS1CONFIG0")
    1536                      .dwattr $C$DW$73, DW_AT_data_member_location[DW_OP_plus_uconst 0x1c]
    1537                      .dwattr $C$DW$73, DW_AT_accessibility(DW_ACCESS_public)
    1538              $C$DW$74        .dwtag  DW_TAG_member
    1539                      .dwattr $C$DW$74, DW_AT_type(*$C$DW$T$20)
    1540                      .dwattr $C$DW$74, DW_AT_name("LCDLIDDCS1CONFIG1")
    1541                      .dwattr $C$DW$74, DW_AT_TI_symbol_name("_LCDLIDDCS1CONFIG1")
    1542                      .dwattr $C$DW$74, DW_AT_data_member_location[DW_OP_plus_uconst 0x1d]
    1543                      .dwattr $C$DW$74, DW_AT_accessibility(DW_ACCESS_public)
    1544              $C$DW$75        .dwtag  DW_TAG_member
    1545                      .dwattr $C$DW$75, DW_AT_type(*$C$DW$T$21)
    1546                      .dwattr $C$DW$75, DW_AT_name("RSVD7")
    1547                      .dwattr $C$DW$75, DW_AT_TI_symbol_name("_RSVD7")
    1548                      .dwattr $C$DW$75, DW_AT_data_member_location[DW_OP_plus_uconst 0x1e]
    1549                      .dwattr $C$DW$75, DW_AT_accessibility(DW_ACCESS_public)
    1550              $C$DW$76        .dwtag  DW_TAG_member
    1551                      .dwattr $C$DW$76, DW_AT_type(*$C$DW$T$20)
    1552                      .dwattr $C$DW$76, DW_AT_name("LCDLIDDCS1ADDR")
    1553                      .dwattr $C$DW$76, DW_AT_TI_symbol_name("_LCDLIDDCS1ADDR")
    1554                      .dwattr $C$DW$76, DW_AT_data_member_location[DW_OP_plus_uconst 0x20]
    1555                      .dwattr $C$DW$76, DW_AT_accessibility(DW_ACCESS_public)
    1556              $C$DW$77        .dwtag  DW_TAG_member
    1557                      .dwattr $C$DW$77, DW_AT_type(*$C$DW$T$22)
    1558                      .dwattr $C$DW$77, DW_AT_name("RSVD8")
    1559                      .dwattr $C$DW$77, DW_AT_TI_symbol_name("_RSVD8")
    1560                      .dwattr $C$DW$77, DW_AT_data_member_location[DW_OP_plus_uconst 0x21]
    1561                      .dwattr $C$DW$77, DW_AT_accessibility(DW_ACCESS_public)
    1562              $C$DW$78        .dwtag  DW_TAG_member
    1563                      .dwattr $C$DW$78, DW_AT_type(*$C$DW$T$20)
    1564                      .dwattr $C$DW$78, DW_AT_name("LCDLIDDCS1DATA")
    1565                      .dwattr $C$DW$78, DW_AT_TI_symbol_name("_LCDLIDDCS1DATA")
    1566                      .dwattr $C$DW$78, DW_AT_data_member_location[DW_OP_plus_uconst 0x24]
    1567                      .dwattr $C$DW$78, DW_AT_accessibility(DW_ACCESS_public)
    1568              $C$DW$79        .dwtag  DW_TAG_member
    1569                      .dwattr $C$DW$79, DW_AT_type(*$C$DW$T$23)
    1570                      .dwattr $C$DW$79, DW_AT_name("RSVD9")
TMS320C55x Assembler PC v4.4.1 Tue Oct 02 02:33:01 2018

Tools Copyright (c) 1996-2012 Texas Instruments Incorporated
csl_lcdc.asm                                                         PAGE   39

    1571                      .dwattr $C$DW$79, DW_AT_TI_symbol_name("_RSVD9")
    1572                      .dwattr $C$DW$79, DW_AT_data_member_location[DW_OP_plus_uconst 0x25]
    1573                      .dwattr $C$DW$79, DW_AT_accessibility(DW_ACCESS_public)
    1574              $C$DW$80        .dwtag  DW_TAG_member
    1575                      .dwattr $C$DW$80, DW_AT_type(*$C$DW$T$20)
    1576                      .dwattr $C$DW$80, DW_AT_name("LCDDMACR")
    1577                      .dwattr $C$DW$80, DW_AT_TI_symbol_name("_LCDDMACR")
    1578                      .dwattr $C$DW$80, DW_AT_data_member_location[DW_OP_plus_uconst 0x40]
    1579                      .dwattr $C$DW$80, DW_AT_accessibility(DW_ACCESS_public)
    1580              $C$DW$81        .dwtag  DW_TAG_member
    1581                      .dwattr $C$DW$81, DW_AT_type(*$C$DW$T$22)
    1582                      .dwattr $C$DW$81, DW_AT_name("RSVD10")
    1583                      .dwattr $C$DW$81, DW_AT_TI_symbol_name("_RSVD10")
    1584                      .dwattr $C$DW$81, DW_AT_data_member_location[DW_OP_plus_uconst 0x41]
    1585                      .dwattr $C$DW$81, DW_AT_accessibility(DW_ACCESS_public)
    1586              $C$DW$82        .dwtag  DW_TAG_member
    1587                      .dwattr $C$DW$82, DW_AT_type(*$C$DW$T$20)
    1588                      .dwattr $C$DW$82, DW_AT_name("LCDDMAFB0BAR0")
    1589                      .dwattr $C$DW$82, DW_AT_TI_symbol_name("_LCDDMAFB0BAR0")
    1590                      .dwattr $C$DW$82, DW_AT_data_member_location[DW_OP_plus_uconst 0x44]
    1591                      .dwattr $C$DW$82, DW_AT_accessibility(DW_ACCESS_public)
    1592              $C$DW$83        .dwtag  DW_TAG_member
    1593                      .dwattr $C$DW$83, DW_AT_type(*$C$DW$T$20)
    1594                      .dwattr $C$DW$83, DW_AT_name("LCDDMAFB0BAR1")
    1595                      .dwattr $C$DW$83, DW_AT_TI_symbol_name("_LCDDMAFB0BAR1")
    1596                      .dwattr $C$DW$83, DW_AT_data_member_location[DW_OP_plus_uconst 0x45]
    1597                      .dwattr $C$DW$83, DW_AT_accessibility(DW_ACCESS_public)
    1598              $C$DW$84        .dwtag  DW_TAG_member
    1599                      .dwattr $C$DW$84, DW_AT_type(*$C$DW$T$21)
    1600                      .dwattr $C$DW$84, DW_AT_name("RSVD11")
    1601                      .dwattr $C$DW$84, DW_AT_TI_symbol_name("_RSVD11")
    1602                      .dwattr $C$DW$84, DW_AT_data_member_location[DW_OP_plus_uconst 0x46]
    1603                      .dwattr $C$DW$84, DW_AT_accessibility(DW_ACCESS_public)
    1604              $C$DW$85        .dwtag  DW_TAG_member
    1605                      .dwattr $C$DW$85, DW_AT_type(*$C$DW$T$20)
    1606                      .dwattr $C$DW$85, DW_AT_name("LCDDMAFB0CAR0")
    1607                      .dwattr $C$DW$85, DW_AT_TI_symbol_name("_LCDDMAFB0CAR0")
    1608                      .dwattr $C$DW$85, DW_AT_data_member_location[DW_OP_plus_uconst 0x48]
    1609                      .dwattr $C$DW$85, DW_AT_accessibility(DW_ACCESS_public)
    1610              $C$DW$86        .dwtag  DW_TAG_member
    1611                      .dwattr $C$DW$86, DW_AT_type(*$C$DW$T$20)
    1612                      .dwattr $C$DW$86, DW_AT_name("LCDDMAFB0CAR1")
    1613                      .dwattr $C$DW$86, DW_AT_TI_symbol_name("_LCDDMAFB0CAR1")
    1614                      .dwattr $C$DW$86, DW_AT_data_member_location[DW_OP_plus_uconst 0x49]
    1615                      .dwattr $C$DW$86, DW_AT_accessibility(DW_ACCESS_public)
    1616              $C$DW$87        .dwtag  DW_TAG_member
    1617                      .dwattr $C$DW$87, DW_AT_type(*$C$DW$T$21)
    1618                      .dwattr $C$DW$87, DW_AT_name("RSVD12")
    1619                      .dwattr $C$DW$87, DW_AT_TI_symbol_name("_RSVD12")
    1620                      .dwattr $C$DW$87, DW_AT_data_member_location[DW_OP_plus_uconst 0x4a]
    1621                      .dwattr $C$DW$87, DW_AT_accessibility(DW_ACCESS_public)
    1622              $C$DW$88        .dwtag  DW_TAG_member
    1623                      .dwattr $C$DW$88, DW_AT_type(*$C$DW$T$20)
    1624                      .dwattr $C$DW$88, DW_AT_name("LCDDMAFB1BAR0")
    1625                      .dwattr $C$DW$88, DW_AT_TI_symbol_name("_LCDDMAFB1BAR0")
TMS320C55x Assembler PC v4.4.1 Tue Oct 02 02:33:01 2018

Tools Copyright (c) 1996-2012 Texas Instruments Incorporated
csl_lcdc.asm                                                         PAGE   40

    1626                      .dwattr $C$DW$88, DW_AT_data_member_location[DW_OP_plus_uconst 0x4c]
    1627                      .dwattr $C$DW$88, DW_AT_accessibility(DW_ACCESS_public)
    1628              $C$DW$89        .dwtag  DW_TAG_member
    1629                      .dwattr $C$DW$89, DW_AT_type(*$C$DW$T$20)
    1630                      .dwattr $C$DW$89, DW_AT_name("LCDDMAFB1BAR1")
    1631                      .dwattr $C$DW$89, DW_AT_TI_symbol_name("_LCDDMAFB1BAR1")
    1632                      .dwattr $C$DW$89, DW_AT_data_member_location[DW_OP_plus_uconst 0x4d]
    1633                      .dwattr $C$DW$89, DW_AT_accessibility(DW_ACCESS_public)
    1634              $C$DW$90        .dwtag  DW_TAG_member
    1635                      .dwattr $C$DW$90, DW_AT_type(*$C$DW$T$21)
    1636                      .dwattr $C$DW$90, DW_AT_name("RSVD13")
    1637                      .dwattr $C$DW$90, DW_AT_TI_symbol_name("_RSVD13")
    1638                      .dwattr $C$DW$90, DW_AT_data_member_location[DW_OP_plus_uconst 0x4e]
    1639                      .dwattr $C$DW$90, DW_AT_accessibility(DW_ACCESS_public)
    1640              $C$DW$91        .dwtag  DW_TAG_member
    1641                      .dwattr $C$DW$91, DW_AT_type(*$C$DW$T$20)
    1642                      .dwattr $C$DW$91, DW_AT_name("LCDDMAFB1CAR0")
    1643                      .dwattr $C$DW$91, DW_AT_TI_symbol_name("_LCDDMAFB1CAR0")
    1644                      .dwattr $C$DW$91, DW_AT_data_member_location[DW_OP_plus_uconst 0x50]
    1645                      .dwattr $C$DW$91, DW_AT_accessibility(DW_ACCESS_public)
    1646              $C$DW$92        .dwtag  DW_TAG_member
    1647                      .dwattr $C$DW$92, DW_AT_type(*$C$DW$T$20)
    1648                      .dwattr $C$DW$92, DW_AT_name("LCDDMAFB1CAR1")
    1649                      .dwattr $C$DW$92, DW_AT_TI_symbol_name("_LCDDMAFB1CAR1")
    1650                      .dwattr $C$DW$92, DW_AT_data_member_location[DW_OP_plus_uconst 0x51]
    1651                      .dwattr $C$DW$92, DW_AT_accessibility(DW_ACCESS_public)
    1652                      .dwendtag $C$DW$T$24
    1653              
    1654              $C$DW$T$54      .dwtag  DW_TAG_typedef, DW_AT_name("CSL_LcdcRegs")
    1655                      .dwattr $C$DW$T$54, DW_AT_type(*$C$DW$T$24)
    1656                      .dwattr $C$DW$T$54, DW_AT_language(DW_LANG_C)
    1657              $C$DW$93        .dwtag  DW_TAG_TI_far_type
    1658                      .dwattr $C$DW$93, DW_AT_type(*$C$DW$T$54)
    1659              $C$DW$94        .dwtag  DW_TAG_TI_ioport_type
    1660                      .dwattr $C$DW$94, DW_AT_type(*$C$DW$93)
    1661              $C$DW$T$55      .dwtag  DW_TAG_volatile_type
    1662                      .dwattr $C$DW$T$55, DW_AT_type(*$C$DW$94)
    1663              $C$DW$T$56      .dwtag  DW_TAG_pointer_type
    1664                      .dwattr $C$DW$T$56, DW_AT_type(*$C$DW$T$55)
    1665                      .dwattr $C$DW$T$56, DW_AT_address_class(0x10)
    1666              $C$DW$T$57      .dwtag  DW_TAG_typedef, DW_AT_name("CSL_LcdcRegsOvly")
    1667                      .dwattr $C$DW$T$57, DW_AT_type(*$C$DW$T$56)
    1668                      .dwattr $C$DW$T$57, DW_AT_language(DW_LANG_C)
    1669              
    1670              $C$DW$T$34      .dwtag  DW_TAG_structure_type
    1671                      .dwattr $C$DW$T$34, DW_AT_byte_size(0x06)
    1672              $C$DW$95        .dwtag  DW_TAG_member
    1673                      .dwattr $C$DW$95, DW_AT_type(*$C$DW$T$19)
    1674                      .dwattr $C$DW$95, DW_AT_name("clkDiv")
    1675                      .dwattr $C$DW$95, DW_AT_TI_symbol_name("_clkDiv")
    1676                      .dwattr $C$DW$95, DW_AT_data_member_location[DW_OP_plus_uconst 0x0]
    1677                      .dwattr $C$DW$95, DW_AT_accessibility(DW_ACCESS_public)
    1678              $C$DW$96        .dwtag  DW_TAG_member
    1679                      .dwattr $C$DW$96, DW_AT_type(*$C$DW$T$26)
    1680                      .dwattr $C$DW$96, DW_AT_name("fdoneIntEn")
TMS320C55x Assembler PC v4.4.1 Tue Oct 02 02:33:01 2018

Tools Copyright (c) 1996-2012 Texas Instruments Incorporated
csl_lcdc.asm                                                         PAGE   41

    1681                      .dwattr $C$DW$96, DW_AT_TI_symbol_name("_fdoneIntEn")
    1682                      .dwattr $C$DW$96, DW_AT_data_member_location[DW_OP_plus_uconst 0x1]
    1683                      .dwattr $C$DW$96, DW_AT_accessibility(DW_ACCESS_public)
    1684              $C$DW$97        .dwtag  DW_TAG_member
    1685                      .dwattr $C$DW$97, DW_AT_type(*$C$DW$T$28)
    1686                      .dwattr $C$DW$97, DW_AT_name("dmaCs0Cs1")
    1687                      .dwattr $C$DW$97, DW_AT_TI_symbol_name("_dmaCs0Cs1")
    1688                      .dwattr $C$DW$97, DW_AT_data_member_location[DW_OP_plus_uconst 0x2]
    1689                      .dwattr $C$DW$97, DW_AT_accessibility(DW_ACCESS_public)
    1690              $C$DW$98        .dwtag  DW_TAG_member
    1691                      .dwattr $C$DW$98, DW_AT_type(*$C$DW$T$30)
    1692                      .dwattr $C$DW$98, DW_AT_name("dmaEnable")
    1693                      .dwattr $C$DW$98, DW_AT_TI_symbol_name("_dmaEnable")
    1694                      .dwattr $C$DW$98, DW_AT_data_member_location[DW_OP_plus_uconst 0x3]
    1695                      .dwattr $C$DW$98, DW_AT_accessibility(DW_ACCESS_public)
    1696              $C$DW$99        .dwtag  DW_TAG_member
    1697                      .dwattr $C$DW$99, DW_AT_type(*$C$DW$T$31)
    1698                      .dwattr $C$DW$99, DW_AT_name("polControl")
    1699                      .dwattr $C$DW$99, DW_AT_TI_symbol_name("_polControl")
    1700                      .dwattr $C$DW$99, DW_AT_data_member_location[DW_OP_plus_uconst 0x4]
    1701                      .dwattr $C$DW$99, DW_AT_accessibility(DW_ACCESS_public)
    1702              $C$DW$100       .dwtag  DW_TAG_member
    1703                      .dwattr $C$DW$100, DW_AT_type(*$C$DW$T$33)
    1704                      .dwattr $C$DW$100, DW_AT_name("modeSel")
    1705                      .dwattr $C$DW$100, DW_AT_TI_symbol_name("_modeSel")
    1706                      .dwattr $C$DW$100, DW_AT_data_member_location[DW_OP_plus_uconst 0x5]
    1707                      .dwattr $C$DW$100, DW_AT_accessibility(DW_ACCESS_public)
    1708                      .dwendtag $C$DW$T$34
    1709              
    1710              $C$DW$T$36      .dwtag  DW_TAG_typedef, DW_AT_name("CSL_LcdcConfigLidd")
    1711                      .dwattr $C$DW$T$36, DW_AT_type(*$C$DW$T$34)
    1712                      .dwattr $C$DW$T$36, DW_AT_language(DW_LANG_C)
    1713              
    1714              $C$DW$T$35      .dwtag  DW_TAG_structure_type
    1715                      .dwattr $C$DW$T$35, DW_AT_byte_size(0x07)
    1716              $C$DW$101       .dwtag  DW_TAG_member
    1717                      .dwattr $C$DW$101, DW_AT_type(*$C$DW$T$19)
    1718                      .dwattr $C$DW$101, DW_AT_name("wSu")
    1719                      .dwattr $C$DW$101, DW_AT_TI_symbol_name("_wSu")
    1720                      .dwattr $C$DW$101, DW_AT_data_member_location[DW_OP_plus_uconst 0x0]
    1721                      .dwattr $C$DW$101, DW_AT_accessibility(DW_ACCESS_public)
    1722              $C$DW$102       .dwtag  DW_TAG_member
    1723                      .dwattr $C$DW$102, DW_AT_type(*$C$DW$T$19)
    1724                      .dwattr $C$DW$102, DW_AT_name("wStrobe")
    1725                      .dwattr $C$DW$102, DW_AT_TI_symbol_name("_wStrobe")
    1726                      .dwattr $C$DW$102, DW_AT_data_member_location[DW_OP_plus_uconst 0x1]
    1727                      .dwattr $C$DW$102, DW_AT_accessibility(DW_ACCESS_public)
    1728              $C$DW$103       .dwtag  DW_TAG_member
    1729                      .dwattr $C$DW$103, DW_AT_type(*$C$DW$T$19)
    1730                      .dwattr $C$DW$103, DW_AT_name("wHold")
    1731                      .dwattr $C$DW$103, DW_AT_TI_symbol_name("_wHold")
    1732                      .dwattr $C$DW$103, DW_AT_data_member_location[DW_OP_plus_uconst 0x2]
    1733                      .dwattr $C$DW$103, DW_AT_accessibility(DW_ACCESS_public)
    1734              $C$DW$104       .dwtag  DW_TAG_member
    1735                      .dwattr $C$DW$104, DW_AT_type(*$C$DW$T$19)
TMS320C55x Assembler PC v4.4.1 Tue Oct 02 02:33:01 2018

Tools Copyright (c) 1996-2012 Texas Instruments Incorporated
csl_lcdc.asm                                                         PAGE   42

    1736                      .dwattr $C$DW$104, DW_AT_name("rSu")
    1737                      .dwattr $C$DW$104, DW_AT_TI_symbol_name("_rSu")
    1738                      .dwattr $C$DW$104, DW_AT_data_member_location[DW_OP_plus_uconst 0x3]
    1739                      .dwattr $C$DW$104, DW_AT_accessibility(DW_ACCESS_public)
    1740              $C$DW$105       .dwtag  DW_TAG_member
    1741                      .dwattr $C$DW$105, DW_AT_type(*$C$DW$T$19)
    1742                      .dwattr $C$DW$105, DW_AT_name("rStrobe")
    1743                      .dwattr $C$DW$105, DW_AT_TI_symbol_name("_rStrobe")
    1744                      .dwattr $C$DW$105, DW_AT_data_member_location[DW_OP_plus_uconst 0x4]
    1745                      .dwattr $C$DW$105, DW_AT_accessibility(DW_ACCESS_public)
    1746              $C$DW$106       .dwtag  DW_TAG_member
    1747                      .dwattr $C$DW$106, DW_AT_type(*$C$DW$T$19)
    1748                      .dwattr $C$DW$106, DW_AT_name("rHold")
    1749                      .dwattr $C$DW$106, DW_AT_TI_symbol_name("_rHold")
    1750                      .dwattr $C$DW$106, DW_AT_data_member_location[DW_OP_plus_uconst 0x5]
    1751                      .dwattr $C$DW$106, DW_AT_accessibility(DW_ACCESS_public)
    1752              $C$DW$107       .dwtag  DW_TAG_member
    1753                      .dwattr $C$DW$107, DW_AT_type(*$C$DW$T$19)
    1754                      .dwattr $C$DW$107, DW_AT_name("ta")
    1755                      .dwattr $C$DW$107, DW_AT_TI_symbol_name("_ta")
    1756                      .dwattr $C$DW$107, DW_AT_data_member_location[DW_OP_plus_uconst 0x6]
    1757                      .dwattr $C$DW$107, DW_AT_accessibility(DW_ACCESS_public)
    1758                      .dwendtag $C$DW$T$35
    1759              
    1760              $C$DW$T$37      .dwtag  DW_TAG_typedef, DW_AT_name("CSL_LcdcLiddTiming")
    1761                      .dwattr $C$DW$T$37, DW_AT_type(*$C$DW$T$35)
    1762                      .dwattr $C$DW$T$37, DW_AT_language(DW_LANG_C)
    1763              
    1764              $C$DW$T$40      .dwtag  DW_TAG_structure_type
    1765                      .dwattr $C$DW$T$40, DW_AT_byte_size(0x18)
    1766              $C$DW$108       .dwtag  DW_TAG_member
    1767                      .dwattr $C$DW$108, DW_AT_type(*$C$DW$T$3)
    1768                      .dwattr $C$DW$108, DW_AT_name("extendSetup")
    1769                      .dwattr $C$DW$108, DW_AT_TI_symbol_name("_extendSetup")
    1770                      .dwattr $C$DW$108, DW_AT_data_member_location[DW_OP_plus_uconst 0x0]
    1771                      .dwattr $C$DW$108, DW_AT_accessibility(DW_ACCESS_public)
    1772              $C$DW$109       .dwtag  DW_TAG_member
    1773                      .dwattr $C$DW$109, DW_AT_type(*$C$DW$T$36)
    1774                      .dwattr $C$DW$109, DW_AT_name("config")
    1775                      .dwattr $C$DW$109, DW_AT_TI_symbol_name("_config")
    1776                      .dwattr $C$DW$109, DW_AT_data_member_location[DW_OP_plus_uconst 0x2]
    1777                      .dwattr $C$DW$109, DW_AT_accessibility(DW_ACCESS_public)
    1778              $C$DW$110       .dwtag  DW_TAG_member
    1779                      .dwattr $C$DW$110, DW_AT_type(*$C$DW$T$37)
    1780                      .dwattr $C$DW$110, DW_AT_name("timingCs0")
    1781                      .dwattr $C$DW$110, DW_AT_TI_symbol_name("_timingCs0")
    1782                      .dwattr $C$DW$110, DW_AT_data_member_location[DW_OP_plus_uconst 0x8]
    1783                      .dwattr $C$DW$110, DW_AT_accessibility(DW_ACCESS_public)
    1784              $C$DW$111       .dwtag  DW_TAG_member
    1785                      .dwattr $C$DW$111, DW_AT_type(*$C$DW$T$39)
    1786                      .dwattr $C$DW$111, DW_AT_name("useCs1")
    1787                      .dwattr $C$DW$111, DW_AT_TI_symbol_name("_useCs1")
    1788                      .dwattr $C$DW$111, DW_AT_data_member_location[DW_OP_plus_uconst 0xf]
    1789                      .dwattr $C$DW$111, DW_AT_accessibility(DW_ACCESS_public)
    1790              $C$DW$112       .dwtag  DW_TAG_member
TMS320C55x Assembler PC v4.4.1 Tue Oct 02 02:33:01 2018

Tools Copyright (c) 1996-2012 Texas Instruments Incorporated
csl_lcdc.asm                                                         PAGE   43

    1791                      .dwattr $C$DW$112, DW_AT_type(*$C$DW$T$37)
    1792                      .dwattr $C$DW$112, DW_AT_name("timingCs1")
    1793                      .dwattr $C$DW$112, DW_AT_TI_symbol_name("_timingCs1")
    1794                      .dwattr $C$DW$112, DW_AT_data_member_location[DW_OP_plus_uconst 0x10]
    1795                      .dwattr $C$DW$112, DW_AT_accessibility(DW_ACCESS_public)
    1796                      .dwendtag $C$DW$T$40
    1797              
    1798              $C$DW$T$61      .dwtag  DW_TAG_typedef, DW_AT_name("CSL_LcdcHwSetup")
    1799                      .dwattr $C$DW$T$61, DW_AT_type(*$C$DW$T$40)
    1800                      .dwattr $C$DW$T$61, DW_AT_language(DW_LANG_C)
    1801              $C$DW$T$62      .dwtag  DW_TAG_pointer_type
    1802                      .dwattr $C$DW$T$62, DW_AT_type(*$C$DW$T$61)
    1803                      .dwattr $C$DW$T$62, DW_AT_address_class(0x17)
    1804              
    1805              $C$DW$T$50      .dwtag  DW_TAG_structure_type
    1806                      .dwattr $C$DW$T$50, DW_AT_byte_size(0x0c)
    1807              $C$DW$113       .dwtag  DW_TAG_member
    1808                      .dwattr $C$DW$113, DW_AT_type(*$C$DW$T$42)
    1809                      .dwattr $C$DW$113, DW_AT_name("burstSize")
    1810                      .dwattr $C$DW$113, DW_AT_TI_symbol_name("_burstSize")
    1811                      .dwattr $C$DW$113, DW_AT_data_member_location[DW_OP_plus_uconst 0x0]
    1812                      .dwattr $C$DW$113, DW_AT_accessibility(DW_ACCESS_public)
    1813              $C$DW$114       .dwtag  DW_TAG_member
    1814                      .dwattr $C$DW$114, DW_AT_type(*$C$DW$T$44)
    1815                      .dwattr $C$DW$114, DW_AT_name("eofIntEn")
    1816                      .dwattr $C$DW$114, DW_AT_TI_symbol_name("_eofIntEn")
    1817                      .dwattr $C$DW$114, DW_AT_data_member_location[DW_OP_plus_uconst 0x1]
    1818                      .dwattr $C$DW$114, DW_AT_accessibility(DW_ACCESS_public)
    1819              $C$DW$115       .dwtag  DW_TAG_member
    1820                      .dwattr $C$DW$115, DW_AT_type(*$C$DW$T$46)
    1821                      .dwattr $C$DW$115, DW_AT_name("bigEndian")
    1822                      .dwattr $C$DW$115, DW_AT_TI_symbol_name("_bigEndian")
    1823                      .dwattr $C$DW$115, DW_AT_data_member_location[DW_OP_plus_uconst 0x2]
    1824                      .dwattr $C$DW$115, DW_AT_accessibility(DW_ACCESS_public)
    1825              $C$DW$116       .dwtag  DW_TAG_member
    1826                      .dwattr $C$DW$116, DW_AT_type(*$C$DW$T$48)
    1827                      .dwattr $C$DW$116, DW_AT_name("frameMode")
    1828                      .dwattr $C$DW$116, DW_AT_TI_symbol_name("_frameMode")
    1829                      .dwattr $C$DW$116, DW_AT_data_member_location[DW_OP_plus_uconst 0x3]
    1830                      .dwattr $C$DW$116, DW_AT_accessibility(DW_ACCESS_public)
    1831              $C$DW$117       .dwtag  DW_TAG_member
    1832                      .dwattr $C$DW$117, DW_AT_type(*$C$DW$T$49)
    1833                      .dwattr $C$DW$117, DW_AT_name("fb0Base")
    1834                      .dwattr $C$DW$117, DW_AT_TI_symbol_name("_fb0Base")
    1835                      .dwattr $C$DW$117, DW_AT_data_member_location[DW_OP_plus_uconst 0x4]
    1836                      .dwattr $C$DW$117, DW_AT_accessibility(DW_ACCESS_public)
    1837              $C$DW$118       .dwtag  DW_TAG_member
    1838                      .dwattr $C$DW$118, DW_AT_type(*$C$DW$T$49)
    1839                      .dwattr $C$DW$118, DW_AT_name("fb0Ceil")
    1840                      .dwattr $C$DW$118, DW_AT_TI_symbol_name("_fb0Ceil")
    1841                      .dwattr $C$DW$118, DW_AT_data_member_location[DW_OP_plus_uconst 0x6]
    1842                      .dwattr $C$DW$118, DW_AT_accessibility(DW_ACCESS_public)
    1843              $C$DW$119       .dwtag  DW_TAG_member
    1844                      .dwattr $C$DW$119, DW_AT_type(*$C$DW$T$49)
    1845                      .dwattr $C$DW$119, DW_AT_name("fb1Base")
TMS320C55x Assembler PC v4.4.1 Tue Oct 02 02:33:01 2018

Tools Copyright (c) 1996-2012 Texas Instruments Incorporated
csl_lcdc.asm                                                         PAGE   44

    1846                      .dwattr $C$DW$119, DW_AT_TI_symbol_name("_fb1Base")
    1847                      .dwattr $C$DW$119, DW_AT_data_member_location[DW_OP_plus_uconst 0x8]
    1848                      .dwattr $C$DW$119, DW_AT_accessibility(DW_ACCESS_public)
    1849              $C$DW$120       .dwtag  DW_TAG_member
    1850                      .dwattr $C$DW$120, DW_AT_type(*$C$DW$T$49)
    1851                      .dwattr $C$DW$120, DW_AT_name("fb1Ceil")
    1852                      .dwattr $C$DW$120, DW_AT_TI_symbol_name("_fb1Ceil")
    1853                      .dwattr $C$DW$120, DW_AT_data_member_location[DW_OP_plus_uconst 0xa]
    1854                      .dwattr $C$DW$120, DW_AT_accessibility(DW_ACCESS_public)
    1855                      .dwendtag $C$DW$T$50
    1856              
    1857              $C$DW$T$63      .dwtag  DW_TAG_typedef, DW_AT_name("CSL_LcdcConfigDma")
    1858                      .dwattr $C$DW$T$63, DW_AT_type(*$C$DW$T$50)
    1859                      .dwattr $C$DW$T$63, DW_AT_language(DW_LANG_C)
    1860              $C$DW$T$64      .dwtag  DW_TAG_pointer_type
    1861                      .dwattr $C$DW$T$64, DW_AT_type(*$C$DW$T$63)
    1862                      .dwattr $C$DW$T$64, DW_AT_address_class(0x17)
    1863              
    1864              $C$DW$T$53      .dwtag  DW_TAG_structure_type
    1865                      .dwattr $C$DW$T$53, DW_AT_byte_size(0x48)
    1866              $C$DW$121       .dwtag  DW_TAG_member
    1867                      .dwattr $C$DW$121, DW_AT_type(*$C$DW$T$20)
    1868                      .dwattr $C$DW$121, DW_AT_name("EBSR")
    1869                      .dwattr $C$DW$121, DW_AT_TI_symbol_name("_EBSR")
    1870                      .dwattr $C$DW$121, DW_AT_data_member_location[DW_OP_plus_uconst 0x0]
    1871                      .dwattr $C$DW$121, DW_AT_accessibility(DW_ACCESS_public)
    1872              $C$DW$122       .dwtag  DW_TAG_member
    1873                      .dwattr $C$DW$122, DW_AT_type(*$C$DW$T$20)
    1874                      .dwattr $C$DW$122, DW_AT_name("RSVD0")
    1875                      .dwattr $C$DW$122, DW_AT_TI_symbol_name("_RSVD0")
    1876                      .dwattr $C$DW$122, DW_AT_data_member_location[DW_OP_plus_uconst 0x1]
    1877                      .dwattr $C$DW$122, DW_AT_accessibility(DW_ACCESS_public)
    1878              $C$DW$123       .dwtag  DW_TAG_member
    1879                      .dwattr $C$DW$123, DW_AT_type(*$C$DW$T$20)
    1880                      .dwattr $C$DW$123, DW_AT_name("PCGCR1")
    1881                      .dwattr $C$DW$123, DW_AT_TI_symbol_name("_PCGCR1")
    1882                      .dwattr $C$DW$123, DW_AT_data_member_location[DW_OP_plus_uconst 0x2]
    1883                      .dwattr $C$DW$123, DW_AT_accessibility(DW_ACCESS_public)
    1884              $C$DW$124       .dwtag  DW_TAG_member
    1885                      .dwattr $C$DW$124, DW_AT_type(*$C$DW$T$20)
    1886                      .dwattr $C$DW$124, DW_AT_name("PCGCR2")
    1887                      .dwattr $C$DW$124, DW_AT_TI_symbol_name("_PCGCR2")
    1888                      .dwattr $C$DW$124, DW_AT_data_member_location[DW_OP_plus_uconst 0x3]
    1889                      .dwattr $C$DW$124, DW_AT_accessibility(DW_ACCESS_public)
    1890              $C$DW$125       .dwtag  DW_TAG_member
    1891                      .dwattr $C$DW$125, DW_AT_type(*$C$DW$T$20)
    1892                      .dwattr $C$DW$125, DW_AT_name("PSRCR")
    1893                      .dwattr $C$DW$125, DW_AT_TI_symbol_name("_PSRCR")
    1894                      .dwattr $C$DW$125, DW_AT_data_member_location[DW_OP_plus_uconst 0x4]
    1895                      .dwattr $C$DW$125, DW_AT_accessibility(DW_ACCESS_public)
    1896              $C$DW$126       .dwtag  DW_TAG_member
    1897                      .dwattr $C$DW$126, DW_AT_type(*$C$DW$T$20)
    1898                      .dwattr $C$DW$126, DW_AT_name("PRCR")
    1899                      .dwattr $C$DW$126, DW_AT_TI_symbol_name("_PRCR")
    1900                      .dwattr $C$DW$126, DW_AT_data_member_location[DW_OP_plus_uconst 0x5]
TMS320C55x Assembler PC v4.4.1 Tue Oct 02 02:33:01 2018

Tools Copyright (c) 1996-2012 Texas Instruments Incorporated
csl_lcdc.asm                                                         PAGE   45

    1901                      .dwattr $C$DW$126, DW_AT_accessibility(DW_ACCESS_public)
    1902              $C$DW$127       .dwtag  DW_TAG_member
    1903                      .dwattr $C$DW$127, DW_AT_type(*$C$DW$T$51)
    1904                      .dwattr $C$DW$127, DW_AT_name("RSVD1")
    1905                      .dwattr $C$DW$127, DW_AT_TI_symbol_name("_RSVD1")
    1906                      .dwattr $C$DW$127, DW_AT_data_member_location[DW_OP_plus_uconst 0x6]
    1907                      .dwattr $C$DW$127, DW_AT_accessibility(DW_ACCESS_public)
    1908              $C$DW$128       .dwtag  DW_TAG_member
    1909                      .dwattr $C$DW$128, DW_AT_type(*$C$DW$T$20)
    1910                      .dwattr $C$DW$128, DW_AT_name("TIAFR")
    1911                      .dwattr $C$DW$128, DW_AT_TI_symbol_name("_TIAFR")
    1912                      .dwattr $C$DW$128, DW_AT_data_member_location[DW_OP_plus_uconst 0x14]
    1913                      .dwattr $C$DW$128, DW_AT_accessibility(DW_ACCESS_public)
    1914              $C$DW$129       .dwtag  DW_TAG_member
    1915                      .dwattr $C$DW$129, DW_AT_type(*$C$DW$T$20)
    1916                      .dwattr $C$DW$129, DW_AT_name("RSVD2")
    1917                      .dwattr $C$DW$129, DW_AT_TI_symbol_name("_RSVD2")
    1918                      .dwattr $C$DW$129, DW_AT_data_member_location[DW_OP_plus_uconst 0x15]
    1919                      .dwattr $C$DW$129, DW_AT_accessibility(DW_ACCESS_public)
    1920              $C$DW$130       .dwtag  DW_TAG_member
    1921                      .dwattr $C$DW$130, DW_AT_type(*$C$DW$T$20)
    1922                      .dwattr $C$DW$130, DW_AT_name("ODSCR")
    1923                      .dwattr $C$DW$130, DW_AT_TI_symbol_name("_ODSCR")
    1924                      .dwattr $C$DW$130, DW_AT_data_member_location[DW_OP_plus_uconst 0x16]
    1925                      .dwattr $C$DW$130, DW_AT_accessibility(DW_ACCESS_public)
    1926              $C$DW$131       .dwtag  DW_TAG_member
    1927                      .dwattr $C$DW$131, DW_AT_type(*$C$DW$T$20)
    1928                      .dwattr $C$DW$131, DW_AT_name("PDINHIBR1")
    1929                      .dwattr $C$DW$131, DW_AT_TI_symbol_name("_PDINHIBR1")
    1930                      .dwattr $C$DW$131, DW_AT_data_member_location[DW_OP_plus_uconst 0x17]
    1931                      .dwattr $C$DW$131, DW_AT_accessibility(DW_ACCESS_public)
    1932              $C$DW$132       .dwtag  DW_TAG_member
    1933                      .dwattr $C$DW$132, DW_AT_type(*$C$DW$T$20)
    1934                      .dwattr $C$DW$132, DW_AT_name("PDINHIBR2")
    1935                      .dwattr $C$DW$132, DW_AT_TI_symbol_name("_PDINHIBR2")
    1936                      .dwattr $C$DW$132, DW_AT_data_member_location[DW_OP_plus_uconst 0x18]
    1937                      .dwattr $C$DW$132, DW_AT_accessibility(DW_ACCESS_public)
    1938              $C$DW$133       .dwtag  DW_TAG_member
    1939                      .dwattr $C$DW$133, DW_AT_type(*$C$DW$T$20)
    1940                      .dwattr $C$DW$133, DW_AT_name("PDINHIBR3")
    1941                      .dwattr $C$DW$133, DW_AT_TI_symbol_name("_PDINHIBR3")
    1942                      .dwattr $C$DW$133, DW_AT_data_member_location[DW_OP_plus_uconst 0x19]
    1943                      .dwattr $C$DW$133, DW_AT_accessibility(DW_ACCESS_public)
    1944              $C$DW$134       .dwtag  DW_TAG_member
    1945                      .dwattr $C$DW$134, DW_AT_type(*$C$DW$T$20)
    1946                      .dwattr $C$DW$134, DW_AT_name("DMA0CESR1")
    1947                      .dwattr $C$DW$134, DW_AT_TI_symbol_name("_DMA0CESR1")
    1948                      .dwattr $C$DW$134, DW_AT_data_member_location[DW_OP_plus_uconst 0x1a]
    1949                      .dwattr $C$DW$134, DW_AT_accessibility(DW_ACCESS_public)
    1950              $C$DW$135       .dwtag  DW_TAG_member
    1951                      .dwattr $C$DW$135, DW_AT_type(*$C$DW$T$20)
    1952                      .dwattr $C$DW$135, DW_AT_name("DMA0CESR2")
    1953                      .dwattr $C$DW$135, DW_AT_TI_symbol_name("_DMA0CESR2")
    1954                      .dwattr $C$DW$135, DW_AT_data_member_location[DW_OP_plus_uconst 0x1b]
    1955                      .dwattr $C$DW$135, DW_AT_accessibility(DW_ACCESS_public)
TMS320C55x Assembler PC v4.4.1 Tue Oct 02 02:33:01 2018

Tools Copyright (c) 1996-2012 Texas Instruments Incorporated
csl_lcdc.asm                                                         PAGE   46

    1956              $C$DW$136       .dwtag  DW_TAG_member
    1957                      .dwattr $C$DW$136, DW_AT_type(*$C$DW$T$20)
    1958                      .dwattr $C$DW$136, DW_AT_name("DMA1CESR1")
    1959                      .dwattr $C$DW$136, DW_AT_TI_symbol_name("_DMA1CESR1")
    1960                      .dwattr $C$DW$136, DW_AT_data_member_location[DW_OP_plus_uconst 0x1c]
    1961                      .dwattr $C$DW$136, DW_AT_accessibility(DW_ACCESS_public)
    1962              $C$DW$137       .dwtag  DW_TAG_member
    1963                      .dwattr $C$DW$137, DW_AT_type(*$C$DW$T$20)
    1964                      .dwattr $C$DW$137, DW_AT_name("DMA1CESR2")
    1965                      .dwattr $C$DW$137, DW_AT_TI_symbol_name("_DMA1CESR2")
    1966                      .dwattr $C$DW$137, DW_AT_data_member_location[DW_OP_plus_uconst 0x1d]
    1967                      .dwattr $C$DW$137, DW_AT_accessibility(DW_ACCESS_public)
    1968              $C$DW$138       .dwtag  DW_TAG_member
    1969                      .dwattr $C$DW$138, DW_AT_type(*$C$DW$T$20)
    1970                      .dwattr $C$DW$138, DW_AT_name("SDRAMCCR")
    1971                      .dwattr $C$DW$138, DW_AT_TI_symbol_name("_SDRAMCCR")
    1972                      .dwattr $C$DW$138, DW_AT_data_member_location[DW_OP_plus_uconst 0x1e]
    1973                      .dwattr $C$DW$138, DW_AT_accessibility(DW_ACCESS_public)
    1974              $C$DW$139       .dwtag  DW_TAG_member
    1975                      .dwattr $C$DW$139, DW_AT_type(*$C$DW$T$20)
    1976                      .dwattr $C$DW$139, DW_AT_name("CCR2")
    1977                      .dwattr $C$DW$139, DW_AT_TI_symbol_name("_CCR2")
    1978                      .dwattr $C$DW$139, DW_AT_data_member_location[DW_OP_plus_uconst 0x1f]
    1979                      .dwattr $C$DW$139, DW_AT_accessibility(DW_ACCESS_public)
    1980              $C$DW$140       .dwtag  DW_TAG_member
    1981                      .dwattr $C$DW$140, DW_AT_type(*$C$DW$T$20)
    1982                      .dwattr $C$DW$140, DW_AT_name("CGCR1")
    1983                      .dwattr $C$DW$140, DW_AT_TI_symbol_name("_CGCR1")
    1984                      .dwattr $C$DW$140, DW_AT_data_member_location[DW_OP_plus_uconst 0x20]
    1985                      .dwattr $C$DW$140, DW_AT_accessibility(DW_ACCESS_public)
    1986              $C$DW$141       .dwtag  DW_TAG_member
    1987                      .dwattr $C$DW$141, DW_AT_type(*$C$DW$T$20)
    1988                      .dwattr $C$DW$141, DW_AT_name("CGICR")
    1989                      .dwattr $C$DW$141, DW_AT_TI_symbol_name("_CGICR")
    1990                      .dwattr $C$DW$141, DW_AT_data_member_location[DW_OP_plus_uconst 0x21]
    1991                      .dwattr $C$DW$141, DW_AT_accessibility(DW_ACCESS_public)
    1992              $C$DW$142       .dwtag  DW_TAG_member
    1993                      .dwattr $C$DW$142, DW_AT_type(*$C$DW$T$20)
    1994                      .dwattr $C$DW$142, DW_AT_name("CGCR2")
    1995                      .dwattr $C$DW$142, DW_AT_TI_symbol_name("_CGCR2")
    1996                      .dwattr $C$DW$142, DW_AT_data_member_location[DW_OP_plus_uconst 0x22]
    1997                      .dwattr $C$DW$142, DW_AT_accessibility(DW_ACCESS_public)
    1998              $C$DW$143       .dwtag  DW_TAG_member
    1999                      .dwattr $C$DW$143, DW_AT_type(*$C$DW$T$20)
    2000                      .dwattr $C$DW$143, DW_AT_name("CGOCR")
    2001                      .dwattr $C$DW$143, DW_AT_TI_symbol_name("_CGOCR")
    2002                      .dwattr $C$DW$143, DW_AT_data_member_location[DW_OP_plus_uconst 0x23]
    2003                      .dwattr $C$DW$143, DW_AT_accessibility(DW_ACCESS_public)
    2004              $C$DW$144       .dwtag  DW_TAG_member
    2005                      .dwattr $C$DW$144, DW_AT_type(*$C$DW$T$20)
    2006                      .dwattr $C$DW$144, DW_AT_name("CCSSR")
    2007                      .dwattr $C$DW$144, DW_AT_TI_symbol_name("_CCSSR")
    2008                      .dwattr $C$DW$144, DW_AT_data_member_location[DW_OP_plus_uconst 0x24]
    2009                      .dwattr $C$DW$144, DW_AT_accessibility(DW_ACCESS_public)
    2010              $C$DW$145       .dwtag  DW_TAG_member
TMS320C55x Assembler PC v4.4.1 Tue Oct 02 02:33:01 2018

Tools Copyright (c) 1996-2012 Texas Instruments Incorporated
csl_lcdc.asm                                                         PAGE   47

    2011                      .dwattr $C$DW$145, DW_AT_type(*$C$DW$T$20)
    2012                      .dwattr $C$DW$145, DW_AT_name("RSVD3")
    2013                      .dwattr $C$DW$145, DW_AT_TI_symbol_name("_RSVD3")
    2014                      .dwattr $C$DW$145, DW_AT_data_member_location[DW_OP_plus_uconst 0x25]
    2015                      .dwattr $C$DW$145, DW_AT_accessibility(DW_ACCESS_public)
    2016              $C$DW$146       .dwtag  DW_TAG_member
    2017                      .dwattr $C$DW$146, DW_AT_type(*$C$DW$T$20)
    2018                      .dwattr $C$DW$146, DW_AT_name("ECDR")
    2019                      .dwattr $C$DW$146, DW_AT_TI_symbol_name("_ECDR")
    2020                      .dwattr $C$DW$146, DW_AT_data_member_location[DW_OP_plus_uconst 0x26]
    2021                      .dwattr $C$DW$146, DW_AT_accessibility(DW_ACCESS_public)
    2022              $C$DW$147       .dwtag  DW_TAG_member
    2023                      .dwattr $C$DW$147, DW_AT_type(*$C$DW$T$20)
    2024                      .dwattr $C$DW$147, DW_AT_name("RSVD4")
    2025                      .dwattr $C$DW$147, DW_AT_TI_symbol_name("_RSVD4")
    2026                      .dwattr $C$DW$147, DW_AT_data_member_location[DW_OP_plus_uconst 0x27]
    2027                      .dwattr $C$DW$147, DW_AT_accessibility(DW_ACCESS_public)
    2028              $C$DW$148       .dwtag  DW_TAG_member
    2029                      .dwattr $C$DW$148, DW_AT_type(*$C$DW$T$20)
    2030                      .dwattr $C$DW$148, DW_AT_name("RAMSLPMDCNTLR1")
    2031                      .dwattr $C$DW$148, DW_AT_TI_symbol_name("_RAMSLPMDCNTLR1")
    2032                      .dwattr $C$DW$148, DW_AT_data_member_location[DW_OP_plus_uconst 0x28]
    2033                      .dwattr $C$DW$148, DW_AT_accessibility(DW_ACCESS_public)
    2034              $C$DW$149       .dwtag  DW_TAG_member
    2035                      .dwattr $C$DW$149, DW_AT_type(*$C$DW$T$20)
    2036                      .dwattr $C$DW$149, DW_AT_name("RSVD5")
    2037                      .dwattr $C$DW$149, DW_AT_TI_symbol_name("_RSVD5")
    2038                      .dwattr $C$DW$149, DW_AT_data_member_location[DW_OP_plus_uconst 0x29]
    2039                      .dwattr $C$DW$149, DW_AT_accessibility(DW_ACCESS_public)
    2040              $C$DW$150       .dwtag  DW_TAG_member
    2041                      .dwattr $C$DW$150, DW_AT_type(*$C$DW$T$20)
    2042                      .dwattr $C$DW$150, DW_AT_name("RAMSLPMDCNTLR2")
    2043                      .dwattr $C$DW$150, DW_AT_TI_symbol_name("_RAMSLPMDCNTLR2")
    2044                      .dwattr $C$DW$150, DW_AT_data_member_location[DW_OP_plus_uconst 0x2a]
    2045                      .dwattr $C$DW$150, DW_AT_accessibility(DW_ACCESS_public)
    2046              $C$DW$151       .dwtag  DW_TAG_member
    2047                      .dwattr $C$DW$151, DW_AT_type(*$C$DW$T$20)
    2048                      .dwattr $C$DW$151, DW_AT_name("RAMSLPMDCNTLR3")
    2049                      .dwattr $C$DW$151, DW_AT_TI_symbol_name("_RAMSLPMDCNTLR3")
    2050                      .dwattr $C$DW$151, DW_AT_data_member_location[DW_OP_plus_uconst 0x2b]
    2051                      .dwattr $C$DW$151, DW_AT_accessibility(DW_ACCESS_public)
    2052              $C$DW$152       .dwtag  DW_TAG_member
    2053                      .dwattr $C$DW$152, DW_AT_type(*$C$DW$T$20)
    2054                      .dwattr $C$DW$152, DW_AT_name("RAMSLPMDCNTLR4")
    2055                      .dwattr $C$DW$152, DW_AT_TI_symbol_name("_RAMSLPMDCNTLR4")
    2056                      .dwattr $C$DW$152, DW_AT_data_member_location[DW_OP_plus_uconst 0x2c]
    2057                      .dwattr $C$DW$152, DW_AT_accessibility(DW_ACCESS_public)
    2058              $C$DW$153       .dwtag  DW_TAG_member
    2059                      .dwattr $C$DW$153, DW_AT_type(*$C$DW$T$20)
    2060                      .dwattr $C$DW$153, DW_AT_name("RAMSLPMDCNTLR5")
    2061                      .dwattr $C$DW$153, DW_AT_TI_symbol_name("_RAMSLPMDCNTLR5")
    2062                      .dwattr $C$DW$153, DW_AT_data_member_location[DW_OP_plus_uconst 0x2d]
    2063                      .dwattr $C$DW$153, DW_AT_accessibility(DW_ACCESS_public)
    2064              $C$DW$154       .dwtag  DW_TAG_member
    2065                      .dwattr $C$DW$154, DW_AT_type(*$C$DW$T$21)
TMS320C55x Assembler PC v4.4.1 Tue Oct 02 02:33:01 2018

Tools Copyright (c) 1996-2012 Texas Instruments Incorporated
csl_lcdc.asm                                                         PAGE   48

    2066                      .dwattr $C$DW$154, DW_AT_name("RSVD6")
    2067                      .dwattr $C$DW$154, DW_AT_TI_symbol_name("_RSVD6")
    2068                      .dwattr $C$DW$154, DW_AT_data_member_location[DW_OP_plus_uconst 0x2e]
    2069                      .dwattr $C$DW$154, DW_AT_accessibility(DW_ACCESS_public)
    2070              $C$DW$155       .dwtag  DW_TAG_member
    2071                      .dwattr $C$DW$155, DW_AT_type(*$C$DW$T$20)
    2072                      .dwattr $C$DW$155, DW_AT_name("DMAIFR")
    2073                      .dwattr $C$DW$155, DW_AT_TI_symbol_name("_DMAIFR")
    2074                      .dwattr $C$DW$155, DW_AT_data_member_location[DW_OP_plus_uconst 0x30]
    2075                      .dwattr $C$DW$155, DW_AT_accessibility(DW_ACCESS_public)
    2076              $C$DW$156       .dwtag  DW_TAG_member
    2077                      .dwattr $C$DW$156, DW_AT_type(*$C$DW$T$20)
    2078                      .dwattr $C$DW$156, DW_AT_name("DMAIER")
    2079                      .dwattr $C$DW$156, DW_AT_TI_symbol_name("_DMAIER")
    2080                      .dwattr $C$DW$156, DW_AT_data_member_location[DW_OP_plus_uconst 0x31]
    2081                      .dwattr $C$DW$156, DW_AT_accessibility(DW_ACCESS_public)
    2082              $C$DW$157       .dwtag  DW_TAG_member
    2083                      .dwattr $C$DW$157, DW_AT_type(*$C$DW$T$20)
    2084                      .dwattr $C$DW$157, DW_AT_name("USBSCR")
    2085                      .dwattr $C$DW$157, DW_AT_TI_symbol_name("_USBSCR")
    2086                      .dwattr $C$DW$157, DW_AT_data_member_location[DW_OP_plus_uconst 0x32]
    2087                      .dwattr $C$DW$157, DW_AT_accessibility(DW_ACCESS_public)
    2088              $C$DW$158       .dwtag  DW_TAG_member
    2089                      .dwattr $C$DW$158, DW_AT_type(*$C$DW$T$20)
    2090                      .dwattr $C$DW$158, DW_AT_name("ESCR")
    2091                      .dwattr $C$DW$158, DW_AT_TI_symbol_name("_ESCR")
    2092                      .dwattr $C$DW$158, DW_AT_data_member_location[DW_OP_plus_uconst 0x33]
    2093                      .dwattr $C$DW$158, DW_AT_accessibility(DW_ACCESS_public)
    2094              $C$DW$159       .dwtag  DW_TAG_member
    2095                      .dwattr $C$DW$159, DW_AT_type(*$C$DW$T$21)
    2096                      .dwattr $C$DW$159, DW_AT_name("RSVD7")
    2097                      .dwattr $C$DW$159, DW_AT_TI_symbol_name("_RSVD7")
    2098                      .dwattr $C$DW$159, DW_AT_data_member_location[DW_OP_plus_uconst 0x34]
    2099                      .dwattr $C$DW$159, DW_AT_accessibility(DW_ACCESS_public)
    2100              $C$DW$160       .dwtag  DW_TAG_member
    2101                      .dwattr $C$DW$160, DW_AT_type(*$C$DW$T$20)
    2102                      .dwattr $C$DW$160, DW_AT_name("DMA2CESR1")
    2103                      .dwattr $C$DW$160, DW_AT_TI_symbol_name("_DMA2CESR1")
    2104                      .dwattr $C$DW$160, DW_AT_data_member_location[DW_OP_plus_uconst 0x36]
    2105                      .dwattr $C$DW$160, DW_AT_accessibility(DW_ACCESS_public)
    2106              $C$DW$161       .dwtag  DW_TAG_member
    2107                      .dwattr $C$DW$161, DW_AT_type(*$C$DW$T$20)
    2108                      .dwattr $C$DW$161, DW_AT_name("DMA2CESR2")
    2109                      .dwattr $C$DW$161, DW_AT_TI_symbol_name("_DMA2CESR2")
    2110                      .dwattr $C$DW$161, DW_AT_data_member_location[DW_OP_plus_uconst 0x37]
    2111                      .dwattr $C$DW$161, DW_AT_accessibility(DW_ACCESS_public)
    2112              $C$DW$162       .dwtag  DW_TAG_member
    2113                      .dwattr $C$DW$162, DW_AT_type(*$C$DW$T$20)
    2114                      .dwattr $C$DW$162, DW_AT_name("DMA3CESR1")
    2115                      .dwattr $C$DW$162, DW_AT_TI_symbol_name("_DMA3CESR1")
    2116                      .dwattr $C$DW$162, DW_AT_data_member_location[DW_OP_plus_uconst 0x38]
    2117                      .dwattr $C$DW$162, DW_AT_accessibility(DW_ACCESS_public)
    2118              $C$DW$163       .dwtag  DW_TAG_member
    2119                      .dwattr $C$DW$163, DW_AT_type(*$C$DW$T$20)
    2120                      .dwattr $C$DW$163, DW_AT_name("DMA3CESR2")
TMS320C55x Assembler PC v4.4.1 Tue Oct 02 02:33:01 2018

Tools Copyright (c) 1996-2012 Texas Instruments Incorporated
csl_lcdc.asm                                                         PAGE   49

    2121                      .dwattr $C$DW$163, DW_AT_TI_symbol_name("_DMA3CESR2")
    2122                      .dwattr $C$DW$163, DW_AT_data_member_location[DW_OP_plus_uconst 0x39]
    2123                      .dwattr $C$DW$163, DW_AT_accessibility(DW_ACCESS_public)
    2124              $C$DW$164       .dwtag  DW_TAG_member
    2125                      .dwattr $C$DW$164, DW_AT_type(*$C$DW$T$20)
    2126                      .dwattr $C$DW$164, DW_AT_name("CLKSTOP")
    2127                      .dwattr $C$DW$164, DW_AT_TI_symbol_name("_CLKSTOP")
    2128                      .dwattr $C$DW$164, DW_AT_data_member_location[DW_OP_plus_uconst 0x3a]
    2129                      .dwattr $C$DW$164, DW_AT_accessibility(DW_ACCESS_public)
    2130              $C$DW$165       .dwtag  DW_TAG_member
    2131                      .dwattr $C$DW$165, DW_AT_type(*$C$DW$T$52)
    2132                      .dwattr $C$DW$165, DW_AT_name("RSVD8")
    2133                      .dwattr $C$DW$165, DW_AT_TI_symbol_name("_RSVD8")
    2134                      .dwattr $C$DW$165, DW_AT_data_member_location[DW_OP_plus_uconst 0x3b]
    2135                      .dwattr $C$DW$165, DW_AT_accessibility(DW_ACCESS_public)
    2136              $C$DW$166       .dwtag  DW_TAG_member
    2137                      .dwattr $C$DW$166, DW_AT_type(*$C$DW$T$20)
    2138                      .dwattr $C$DW$166, DW_AT_name("DIEIDR0")
    2139                      .dwattr $C$DW$166, DW_AT_TI_symbol_name("_DIEIDR0")
    2140                      .dwattr $C$DW$166, DW_AT_data_member_location[DW_OP_plus_uconst 0x40]
    2141                      .dwattr $C$DW$166, DW_AT_accessibility(DW_ACCESS_public)
    2142              $C$DW$167       .dwtag  DW_TAG_member
    2143                      .dwattr $C$DW$167, DW_AT_type(*$C$DW$T$20)
    2144                      .dwattr $C$DW$167, DW_AT_name("DIEIDR1")
    2145                      .dwattr $C$DW$167, DW_AT_TI_symbol_name("_DIEIDR1")
    2146                      .dwattr $C$DW$167, DW_AT_data_member_location[DW_OP_plus_uconst 0x41]
    2147                      .dwattr $C$DW$167, DW_AT_accessibility(DW_ACCESS_public)
    2148              $C$DW$168       .dwtag  DW_TAG_member
    2149                      .dwattr $C$DW$168, DW_AT_type(*$C$DW$T$20)
    2150                      .dwattr $C$DW$168, DW_AT_name("DIEIDR2")
    2151                      .dwattr $C$DW$168, DW_AT_TI_symbol_name("_DIEIDR2")
    2152                      .dwattr $C$DW$168, DW_AT_data_member_location[DW_OP_plus_uconst 0x42]
    2153                      .dwattr $C$DW$168, DW_AT_accessibility(DW_ACCESS_public)
    2154              $C$DW$169       .dwtag  DW_TAG_member
    2155                      .dwattr $C$DW$169, DW_AT_type(*$C$DW$T$20)
    2156                      .dwattr $C$DW$169, DW_AT_name("DIEIDR3")
    2157                      .dwattr $C$DW$169, DW_AT_TI_symbol_name("_DIEIDR3")
    2158                      .dwattr $C$DW$169, DW_AT_data_member_location[DW_OP_plus_uconst 0x43]
    2159                      .dwattr $C$DW$169, DW_AT_accessibility(DW_ACCESS_public)
    2160              $C$DW$170       .dwtag  DW_TAG_member
    2161                      .dwattr $C$DW$170, DW_AT_type(*$C$DW$T$20)
    2162                      .dwattr $C$DW$170, DW_AT_name("DIEIDR4")
    2163                      .dwattr $C$DW$170, DW_AT_TI_symbol_name("_DIEIDR4")
    2164                      .dwattr $C$DW$170, DW_AT_data_member_location[DW_OP_plus_uconst 0x44]
    2165                      .dwattr $C$DW$170, DW_AT_accessibility(DW_ACCESS_public)
    2166              $C$DW$171       .dwtag  DW_TAG_member
    2167                      .dwattr $C$DW$171, DW_AT_type(*$C$DW$T$20)
    2168                      .dwattr $C$DW$171, DW_AT_name("DIEIDR5")
    2169                      .dwattr $C$DW$171, DW_AT_TI_symbol_name("_DIEIDR5")
    2170                      .dwattr $C$DW$171, DW_AT_data_member_location[DW_OP_plus_uconst 0x45]
    2171                      .dwattr $C$DW$171, DW_AT_accessibility(DW_ACCESS_public)
    2172              $C$DW$172       .dwtag  DW_TAG_member
    2173                      .dwattr $C$DW$172, DW_AT_type(*$C$DW$T$20)
    2174                      .dwattr $C$DW$172, DW_AT_name("DIEIDR6")
    2175                      .dwattr $C$DW$172, DW_AT_TI_symbol_name("_DIEIDR6")
TMS320C55x Assembler PC v4.4.1 Tue Oct 02 02:33:01 2018

Tools Copyright (c) 1996-2012 Texas Instruments Incorporated
csl_lcdc.asm                                                         PAGE   50

    2176                      .dwattr $C$DW$172, DW_AT_data_member_location[DW_OP_plus_uconst 0x46]
    2177                      .dwattr $C$DW$172, DW_AT_accessibility(DW_ACCESS_public)
    2178              $C$DW$173       .dwtag  DW_TAG_member
    2179                      .dwattr $C$DW$173, DW_AT_type(*$C$DW$T$20)
    2180                      .dwattr $C$DW$173, DW_AT_name("DIEIDR7")
    2181                      .dwattr $C$DW$173, DW_AT_TI_symbol_name("_DIEIDR7")
    2182                      .dwattr $C$DW$173, DW_AT_data_member_location[DW_OP_plus_uconst 0x47]
    2183                      .dwattr $C$DW$173, DW_AT_accessibility(DW_ACCESS_public)
    2184                      .dwendtag $C$DW$T$53
    2185              
    2186              $C$DW$T$65      .dwtag  DW_TAG_typedef, DW_AT_name("CSL_SysRegs")
    2187                      .dwattr $C$DW$T$65, DW_AT_type(*$C$DW$T$53)
    2188                      .dwattr $C$DW$T$65, DW_AT_language(DW_LANG_C)
    2189              $C$DW$174       .dwtag  DW_TAG_TI_far_type
    2190                      .dwattr $C$DW$174, DW_AT_type(*$C$DW$T$65)
    2191              $C$DW$175       .dwtag  DW_TAG_TI_ioport_type
    2192                      .dwattr $C$DW$175, DW_AT_type(*$C$DW$174)
    2193              $C$DW$T$66      .dwtag  DW_TAG_volatile_type
    2194                      .dwattr $C$DW$T$66, DW_AT_type(*$C$DW$175)
    2195              $C$DW$T$67      .dwtag  DW_TAG_pointer_type
    2196                      .dwattr $C$DW$T$67, DW_AT_type(*$C$DW$T$66)
    2197                      .dwattr $C$DW$T$67, DW_AT_address_class(0x10)
    2198              $C$DW$T$68      .dwtag  DW_TAG_typedef, DW_AT_name("CSL_SysRegsOvly")
    2199                      .dwattr $C$DW$T$68, DW_AT_type(*$C$DW$T$67)
    2200                      .dwattr $C$DW$T$68, DW_AT_language(DW_LANG_C)
    2201              
    2202              $C$DW$T$60      .dwtag  DW_TAG_structure_type
    2203                      .dwattr $C$DW$T$60, DW_AT_name("CSL_LcdcObj")
    2204                      .dwattr $C$DW$T$60, DW_AT_byte_size(0x02)
    2205              $C$DW$176       .dwtag  DW_TAG_member
    2206                      .dwattr $C$DW$176, DW_AT_type(*$C$DW$T$57)
    2207                      .dwattr $C$DW$176, DW_AT_name("regs")
    2208                      .dwattr $C$DW$176, DW_AT_TI_symbol_name("_regs")
    2209                      .dwattr $C$DW$176, DW_AT_data_member_location[DW_OP_plus_uconst 0x0]
    2210                      .dwattr $C$DW$176, DW_AT_accessibility(DW_ACCESS_public)
    2211              $C$DW$177       .dwtag  DW_TAG_member
    2212                      .dwattr $C$DW$177, DW_AT_type(*$C$DW$T$59)
    2213                      .dwattr $C$DW$177, DW_AT_name("perNum")
    2214                      .dwattr $C$DW$177, DW_AT_TI_symbol_name("_perNum")
    2215                      .dwattr $C$DW$177, DW_AT_data_member_location[DW_OP_plus_uconst 0x1]
    2216                      .dwattr $C$DW$177, DW_AT_accessibility(DW_ACCESS_public)
    2217                      .dwendtag $C$DW$T$60
    2218              
    2219              $C$DW$T$69      .dwtag  DW_TAG_typedef, DW_AT_name("CSL_LcdcObj")
    2220                      .dwattr $C$DW$T$69, DW_AT_type(*$C$DW$T$60)
    2221                      .dwattr $C$DW$T$69, DW_AT_language(DW_LANG_C)
    2222              $C$DW$T$70      .dwtag  DW_TAG_pointer_type
    2223                      .dwattr $C$DW$T$70, DW_AT_type(*$C$DW$T$69)
    2224                      .dwattr $C$DW$T$70, DW_AT_address_class(0x17)
    2225              $C$DW$T$71      .dwtag  DW_TAG_typedef, DW_AT_name("CSL_LcdcHandle")
    2226                      .dwattr $C$DW$T$71, DW_AT_type(*$C$DW$T$70)
    2227                      .dwattr $C$DW$T$71, DW_AT_language(DW_LANG_C)
    2228              $C$DW$T$3       .dwtag  DW_TAG_pointer_type
    2229                      .dwattr $C$DW$T$3, DW_AT_address_class(0x17)
    2230              $C$DW$T$4       .dwtag  DW_TAG_base_type
TMS320C55x Assembler PC v4.4.1 Tue Oct 02 02:33:01 2018

Tools Copyright (c) 1996-2012 Texas Instruments Incorporated
csl_lcdc.asm                                                         PAGE   51

    2231                      .dwattr $C$DW$T$4, DW_AT_encoding(DW_ATE_boolean)
    2232                      .dwattr $C$DW$T$4, DW_AT_name("bool")
    2233                      .dwattr $C$DW$T$4, DW_AT_byte_size(0x01)
    2234              $C$DW$T$5       .dwtag  DW_TAG_base_type
    2235                      .dwattr $C$DW$T$5, DW_AT_encoding(DW_ATE_signed_char)
    2236                      .dwattr $C$DW$T$5, DW_AT_name("signed char")
    2237                      .dwattr $C$DW$T$5, DW_AT_byte_size(0x01)
    2238              $C$DW$T$6       .dwtag  DW_TAG_base_type
    2239                      .dwattr $C$DW$T$6, DW_AT_encoding(DW_ATE_unsigned_char)
    2240                      .dwattr $C$DW$T$6, DW_AT_name("unsigned char")
    2241                      .dwattr $C$DW$T$6, DW_AT_byte_size(0x01)
    2242              $C$DW$T$7       .dwtag  DW_TAG_base_type
    2243                      .dwattr $C$DW$T$7, DW_AT_encoding(DW_ATE_signed_char)
    2244                      .dwattr $C$DW$T$7, DW_AT_name("wchar_t")
    2245                      .dwattr $C$DW$T$7, DW_AT_byte_size(0x01)
    2246              $C$DW$T$8       .dwtag  DW_TAG_base_type
    2247                      .dwattr $C$DW$T$8, DW_AT_encoding(DW_ATE_signed)
    2248                      .dwattr $C$DW$T$8, DW_AT_name("short")
    2249                      .dwattr $C$DW$T$8, DW_AT_byte_size(0x01)
    2250              $C$DW$T$58      .dwtag  DW_TAG_typedef, DW_AT_name("Int16")
    2251                      .dwattr $C$DW$T$58, DW_AT_type(*$C$DW$T$8)
    2252                      .dwattr $C$DW$T$58, DW_AT_language(DW_LANG_C)
    2253              $C$DW$T$59      .dwtag  DW_TAG_typedef, DW_AT_name("CSL_InstNum")
    2254                      .dwattr $C$DW$T$59, DW_AT_type(*$C$DW$T$58)
    2255                      .dwattr $C$DW$T$59, DW_AT_language(DW_LANG_C)
    2256              $C$DW$T$72      .dwtag  DW_TAG_typedef, DW_AT_name("CSL_Status")
    2257                      .dwattr $C$DW$T$72, DW_AT_type(*$C$DW$T$58)
    2258                      .dwattr $C$DW$T$72, DW_AT_language(DW_LANG_C)
    2259              $C$DW$T$73      .dwtag  DW_TAG_pointer_type
    2260                      .dwattr $C$DW$T$73, DW_AT_type(*$C$DW$T$72)
    2261                      .dwattr $C$DW$T$73, DW_AT_address_class(0x17)
    2262              $C$DW$T$9       .dwtag  DW_TAG_base_type
    2263                      .dwattr $C$DW$T$9, DW_AT_encoding(DW_ATE_unsigned)
    2264                      .dwattr $C$DW$T$9, DW_AT_name("unsigned short")
    2265                      .dwattr $C$DW$T$9, DW_AT_byte_size(0x01)
    2266              $C$DW$T$19      .dwtag  DW_TAG_typedef, DW_AT_name("Uint16")
    2267                      .dwattr $C$DW$T$19, DW_AT_type(*$C$DW$T$9)
    2268                      .dwattr $C$DW$T$19, DW_AT_language(DW_LANG_C)
    2269              $C$DW$T$31      .dwtag  DW_TAG_typedef, DW_AT_name("CSL_BitMask16")
    2270                      .dwattr $C$DW$T$31, DW_AT_type(*$C$DW$T$19)
    2271                      .dwattr $C$DW$T$31, DW_AT_language(DW_LANG_C)
    2272              $C$DW$178       .dwtag  DW_TAG_TI_far_type
    2273                      .dwattr $C$DW$178, DW_AT_type(*$C$DW$T$19)
    2274              $C$DW$T$20      .dwtag  DW_TAG_volatile_type
    2275                      .dwattr $C$DW$T$20, DW_AT_type(*$C$DW$178)
    2276              
    2277              $C$DW$T$21      .dwtag  DW_TAG_array_type
    2278                      .dwattr $C$DW$T$21, DW_AT_type(*$C$DW$T$20)
    2279                      .dwattr $C$DW$T$21, DW_AT_language(DW_LANG_C)
    2280                      .dwattr $C$DW$T$21, DW_AT_byte_size(0x02)
    2281              $C$DW$179       .dwtag  DW_TAG_subrange_type
    2282                      .dwattr $C$DW$179, DW_AT_upper_bound(0x01)
    2283                      .dwendtag $C$DW$T$21
    2284              
    2285              
TMS320C55x Assembler PC v4.4.1 Tue Oct 02 02:33:01 2018

Tools Copyright (c) 1996-2012 Texas Instruments Incorporated
csl_lcdc.asm                                                         PAGE   52

    2286              $C$DW$T$22      .dwtag  DW_TAG_array_type
    2287                      .dwattr $C$DW$T$22, DW_AT_type(*$C$DW$T$20)
    2288                      .dwattr $C$DW$T$22, DW_AT_language(DW_LANG_C)
    2289                      .dwattr $C$DW$T$22, DW_AT_byte_size(0x03)
    2290              $C$DW$180       .dwtag  DW_TAG_subrange_type
    2291                      .dwattr $C$DW$180, DW_AT_upper_bound(0x02)
    2292                      .dwendtag $C$DW$T$22
    2293              
    2294              
    2295              $C$DW$T$23      .dwtag  DW_TAG_array_type
    2296                      .dwattr $C$DW$T$23, DW_AT_type(*$C$DW$T$20)
    2297                      .dwattr $C$DW$T$23, DW_AT_language(DW_LANG_C)
    2298                      .dwattr $C$DW$T$23, DW_AT_byte_size(0x1b)
    2299              $C$DW$181       .dwtag  DW_TAG_subrange_type
    2300                      .dwattr $C$DW$181, DW_AT_upper_bound(0x1a)
    2301                      .dwendtag $C$DW$T$23
    2302              
    2303              
    2304              $C$DW$T$51      .dwtag  DW_TAG_array_type
    2305                      .dwattr $C$DW$T$51, DW_AT_type(*$C$DW$T$20)
    2306                      .dwattr $C$DW$T$51, DW_AT_language(DW_LANG_C)
    2307                      .dwattr $C$DW$T$51, DW_AT_byte_size(0x0e)
    2308              $C$DW$182       .dwtag  DW_TAG_subrange_type
    2309                      .dwattr $C$DW$182, DW_AT_upper_bound(0x0d)
    2310                      .dwendtag $C$DW$T$51
    2311              
    2312              
    2313              $C$DW$T$52      .dwtag  DW_TAG_array_type
    2314                      .dwattr $C$DW$T$52, DW_AT_type(*$C$DW$T$20)
    2315                      .dwattr $C$DW$T$52, DW_AT_language(DW_LANG_C)
    2316                      .dwattr $C$DW$T$52, DW_AT_byte_size(0x05)
    2317              $C$DW$183       .dwtag  DW_TAG_subrange_type
    2318                      .dwattr $C$DW$183, DW_AT_upper_bound(0x04)
    2319                      .dwendtag $C$DW$T$52
    2320              
    2321              $C$DW$T$10      .dwtag  DW_TAG_base_type
    2322                      .dwattr $C$DW$T$10, DW_AT_encoding(DW_ATE_signed)
    2323                      .dwattr $C$DW$T$10, DW_AT_name("int")
    2324                      .dwattr $C$DW$T$10, DW_AT_byte_size(0x01)
    2325              $C$DW$T$11      .dwtag  DW_TAG_base_type
    2326                      .dwattr $C$DW$T$11, DW_AT_encoding(DW_ATE_unsigned)
    2327                      .dwattr $C$DW$T$11, DW_AT_name("unsigned int")
    2328                      .dwattr $C$DW$T$11, DW_AT_byte_size(0x01)
    2329              $C$DW$T$12      .dwtag  DW_TAG_base_type
    2330                      .dwattr $C$DW$T$12, DW_AT_encoding(DW_ATE_signed)
    2331                      .dwattr $C$DW$T$12, DW_AT_name("long")
    2332                      .dwattr $C$DW$T$12, DW_AT_byte_size(0x02)
    2333              $C$DW$T$13      .dwtag  DW_TAG_base_type
    2334                      .dwattr $C$DW$T$13, DW_AT_encoding(DW_ATE_unsigned)
    2335                      .dwattr $C$DW$T$13, DW_AT_name("unsigned long")
    2336                      .dwattr $C$DW$T$13, DW_AT_byte_size(0x02)
    2337              $C$DW$T$49      .dwtag  DW_TAG_typedef, DW_AT_name("Uint32")
    2338                      .dwattr $C$DW$T$49, DW_AT_type(*$C$DW$T$13)
    2339                      .dwattr $C$DW$T$49, DW_AT_language(DW_LANG_C)
    2340              $C$DW$T$14      .dwtag  DW_TAG_base_type
TMS320C55x Assembler PC v4.4.1 Tue Oct 02 02:33:01 2018

Tools Copyright (c) 1996-2012 Texas Instruments Incorporated
csl_lcdc.asm                                                         PAGE   53

    2341                      .dwattr $C$DW$T$14, DW_AT_encoding(DW_ATE_signed)
    2342                      .dwattr $C$DW$T$14, DW_AT_name("long long")
    2343                      .dwattr $C$DW$T$14, DW_AT_byte_size(0x04)
    2344                      .dwattr $C$DW$T$14, DW_AT_bit_size(0x28)
    2345                      .dwattr $C$DW$T$14, DW_AT_bit_offset(0x18)
    2346              $C$DW$T$15      .dwtag  DW_TAG_base_type
    2347                      .dwattr $C$DW$T$15, DW_AT_encoding(DW_ATE_unsigned)
    2348                      .dwattr $C$DW$T$15, DW_AT_name("unsigned long long")
    2349                      .dwattr $C$DW$T$15, DW_AT_byte_size(0x04)
    2350                      .dwattr $C$DW$T$15, DW_AT_bit_size(0x28)
    2351                      .dwattr $C$DW$T$15, DW_AT_bit_offset(0x18)
    2352              $C$DW$T$16      .dwtag  DW_TAG_base_type
    2353                      .dwattr $C$DW$T$16, DW_AT_encoding(DW_ATE_float)
    2354                      .dwattr $C$DW$T$16, DW_AT_name("float")
    2355                      .dwattr $C$DW$T$16, DW_AT_byte_size(0x02)
    2356              $C$DW$T$17      .dwtag  DW_TAG_base_type
    2357                      .dwattr $C$DW$T$17, DW_AT_encoding(DW_ATE_float)
    2358                      .dwattr $C$DW$T$17, DW_AT_name("double")
    2359                      .dwattr $C$DW$T$17, DW_AT_byte_size(0x02)
    2360              $C$DW$T$18      .dwtag  DW_TAG_base_type
    2361                      .dwattr $C$DW$T$18, DW_AT_encoding(DW_ATE_float)
    2362                      .dwattr $C$DW$T$18, DW_AT_name("long double")
    2363                      .dwattr $C$DW$T$18, DW_AT_byte_size(0x02)
    2364                      .dwattr $C$DW$CU, DW_AT_language(DW_LANG_C)
    2365              
    2366              ;***************************************************************
    2367              ;* DWARF CIE ENTRIES                                           *
    2368              ;***************************************************************
    2369              
    2370              $C$DW$CIE       .dwcie 91
    2371                      .dwcfi  cfa_register, 36
    2372                      .dwcfi  cfa_offset, 0
    2373                      .dwcfi  undefined, 0
    2374                      .dwcfi  undefined, 1
    2375                      .dwcfi  undefined, 2
    2376                      .dwcfi  undefined, 3
    2377                      .dwcfi  undefined, 4
    2378                      .dwcfi  undefined, 5
    2379                      .dwcfi  undefined, 6
    2380                      .dwcfi  undefined, 7
    2381                      .dwcfi  undefined, 8
    2382                      .dwcfi  undefined, 9
    2383                      .dwcfi  undefined, 10
    2384                      .dwcfi  undefined, 11
    2385                      .dwcfi  undefined, 12
    2386                      .dwcfi  undefined, 13
    2387                      .dwcfi  same_value, 14
    2388                      .dwcfi  same_value, 15
    2389                      .dwcfi  undefined, 16
    2390                      .dwcfi  undefined, 17
    2391                      .dwcfi  undefined, 18
    2392                      .dwcfi  undefined, 19
    2393                      .dwcfi  undefined, 20
    2394                      .dwcfi  undefined, 21
    2395                      .dwcfi  undefined, 22
TMS320C55x Assembler PC v4.4.1 Tue Oct 02 02:33:01 2018

Tools Copyright (c) 1996-2012 Texas Instruments Incorporated
csl_lcdc.asm                                                         PAGE   54

    2396                      .dwcfi  undefined, 23
    2397                      .dwcfi  undefined, 24
    2398                      .dwcfi  undefined, 25
    2399                      .dwcfi  same_value, 26
    2400                      .dwcfi  same_value, 27
    2401                      .dwcfi  same_value, 28
    2402                      .dwcfi  same_value, 29
    2403                      .dwcfi  same_value, 30
    2404                      .dwcfi  same_value, 31
    2405                      .dwcfi  undefined, 32
    2406                      .dwcfi  undefined, 33
    2407                      .dwcfi  undefined, 34
    2408                      .dwcfi  undefined, 35
    2409                      .dwcfi  undefined, 36
    2410                      .dwcfi  undefined, 37
    2411                      .dwcfi  undefined, 38
    2412                      .dwcfi  undefined, 39
    2413                      .dwcfi  undefined, 40
    2414                      .dwcfi  undefined, 41
    2415                      .dwcfi  undefined, 42
    2416                      .dwcfi  undefined, 43
    2417                      .dwcfi  undefined, 44
    2418                      .dwcfi  undefined, 45
    2419                      .dwcfi  undefined, 46
    2420                      .dwcfi  undefined, 47
    2421                      .dwcfi  undefined, 48
    2422                      .dwcfi  undefined, 49
    2423                      .dwcfi  undefined, 50
    2424                      .dwcfi  undefined, 51
    2425                      .dwcfi  undefined, 52
    2426                      .dwcfi  undefined, 53
    2427                      .dwcfi  undefined, 54
    2428                      .dwcfi  undefined, 55
    2429                      .dwcfi  undefined, 56
    2430                      .dwcfi  undefined, 57
    2431                      .dwcfi  undefined, 58
    2432                      .dwcfi  undefined, 59
    2433                      .dwcfi  undefined, 60
    2434                      .dwcfi  undefined, 61
    2435                      .dwcfi  undefined, 62
    2436                      .dwcfi  undefined, 63
    2437                      .dwcfi  undefined, 64
    2438                      .dwcfi  undefined, 65
    2439                      .dwcfi  undefined, 66
    2440                      .dwcfi  undefined, 67
    2441                      .dwcfi  undefined, 68
    2442                      .dwcfi  undefined, 69
    2443                      .dwcfi  undefined, 70
    2444                      .dwcfi  undefined, 71
    2445                      .dwcfi  undefined, 72
    2446                      .dwcfi  undefined, 73
    2447                      .dwcfi  undefined, 74
    2448                      .dwcfi  undefined, 75
    2449                      .dwcfi  undefined, 76
    2450                      .dwcfi  undefined, 77
TMS320C55x Assembler PC v4.4.1 Tue Oct 02 02:33:01 2018

Tools Copyright (c) 1996-2012 Texas Instruments Incorporated
csl_lcdc.asm                                                         PAGE   55

    2451                      .dwcfi  undefined, 78
    2452                      .dwcfi  undefined, 79
    2453                      .dwcfi  undefined, 80
    2454                      .dwcfi  undefined, 81
    2455                      .dwcfi  undefined, 82
    2456                      .dwcfi  undefined, 83
    2457                      .dwcfi  undefined, 84
    2458                      .dwcfi  undefined, 85
    2459                      .dwcfi  undefined, 86
    2460                      .dwcfi  undefined, 87
    2461                      .dwcfi  undefined, 88
    2462                      .dwcfi  undefined, 89
    2463                      .dwcfi  undefined, 90
    2464                      .dwcfi  undefined, 91
    2465                      .dwendentry
    2466              
    2467              ;***************************************************************
    2468              ;* DWARF REGISTER MAP                                          *
    2469              ;***************************************************************
    2470              
    2471              $C$DW$184       .dwtag  DW_TAG_TI_assign_register, DW_AT_name("AC0")
    2472                      .dwattr $C$DW$184, DW_AT_location[DW_OP_reg0]
    2473              $C$DW$185       .dwtag  DW_TAG_TI_assign_register, DW_AT_name("AC0")
    2474                      .dwattr $C$DW$185, DW_AT_location[DW_OP_reg1]
    2475              $C$DW$186       .dwtag  DW_TAG_TI_assign_register, DW_AT_name("AC0_G")
    2476                      .dwattr $C$DW$186, DW_AT_location[DW_OP_reg2]
    2477              $C$DW$187       .dwtag  DW_TAG_TI_assign_register, DW_AT_name("AC1")
    2478                      .dwattr $C$DW$187, DW_AT_location[DW_OP_reg3]
    2479              $C$DW$188       .dwtag  DW_TAG_TI_assign_register, DW_AT_name("AC1")
    2480                      .dwattr $C$DW$188, DW_AT_location[DW_OP_reg4]
    2481              $C$DW$189       .dwtag  DW_TAG_TI_assign_register, DW_AT_name("AC1_G")
    2482                      .dwattr $C$DW$189, DW_AT_location[DW_OP_reg5]
    2483              $C$DW$190       .dwtag  DW_TAG_TI_assign_register, DW_AT_name("AC2")
    2484                      .dwattr $C$DW$190, DW_AT_location[DW_OP_reg6]
    2485              $C$DW$191       .dwtag  DW_TAG_TI_assign_register, DW_AT_name("AC2")
    2486                      .dwattr $C$DW$191, DW_AT_location[DW_OP_reg7]
    2487              $C$DW$192       .dwtag  DW_TAG_TI_assign_register, DW_AT_name("AC2_G")
    2488                      .dwattr $C$DW$192, DW_AT_location[DW_OP_reg8]
    2489              $C$DW$193       .dwtag  DW_TAG_TI_assign_register, DW_AT_name("AC3")
    2490                      .dwattr $C$DW$193, DW_AT_location[DW_OP_reg9]
    2491              $C$DW$194       .dwtag  DW_TAG_TI_assign_register, DW_AT_name("AC3")
    2492                      .dwattr $C$DW$194, DW_AT_location[DW_OP_reg10]
    2493              $C$DW$195       .dwtag  DW_TAG_TI_assign_register, DW_AT_name("AC3_G")
    2494                      .dwattr $C$DW$195, DW_AT_location[DW_OP_reg11]
    2495              $C$DW$196       .dwtag  DW_TAG_TI_assign_register, DW_AT_name("T0")
    2496                      .dwattr $C$DW$196, DW_AT_location[DW_OP_reg12]
    2497              $C$DW$197       .dwtag  DW_TAG_TI_assign_register, DW_AT_name("T1")
    2498                      .dwattr $C$DW$197, DW_AT_location[DW_OP_reg13]
    2499              $C$DW$198       .dwtag  DW_TAG_TI_assign_register, DW_AT_name("T2")
    2500                      .dwattr $C$DW$198, DW_AT_location[DW_OP_reg14]
    2501              $C$DW$199       .dwtag  DW_TAG_TI_assign_register, DW_AT_name("T3")
    2502                      .dwattr $C$DW$199, DW_AT_location[DW_OP_reg15]
    2503              $C$DW$200       .dwtag  DW_TAG_TI_assign_register, DW_AT_name("AR0")
    2504                      .dwattr $C$DW$200, DW_AT_location[DW_OP_reg16]
    2505              $C$DW$201       .dwtag  DW_TAG_TI_assign_register, DW_AT_name("XAR0")
TMS320C55x Assembler PC v4.4.1 Tue Oct 02 02:33:01 2018

Tools Copyright (c) 1996-2012 Texas Instruments Incorporated
csl_lcdc.asm                                                         PAGE   56

    2506                      .dwattr $C$DW$201, DW_AT_location[DW_OP_reg17]
    2507              $C$DW$202       .dwtag  DW_TAG_TI_assign_register, DW_AT_name("AR1")
    2508                      .dwattr $C$DW$202, DW_AT_location[DW_OP_reg18]
    2509              $C$DW$203       .dwtag  DW_TAG_TI_assign_register, DW_AT_name("XAR1")
    2510                      .dwattr $C$DW$203, DW_AT_location[DW_OP_reg19]
    2511              $C$DW$204       .dwtag  DW_TAG_TI_assign_register, DW_AT_name("AR2")
    2512                      .dwattr $C$DW$204, DW_AT_location[DW_OP_reg20]
    2513              $C$DW$205       .dwtag  DW_TAG_TI_assign_register, DW_AT_name("XAR2")
    2514                      .dwattr $C$DW$205, DW_AT_location[DW_OP_reg21]
    2515              $C$DW$206       .dwtag  DW_TAG_TI_assign_register, DW_AT_name("AR3")
    2516                      .dwattr $C$DW$206, DW_AT_location[DW_OP_reg22]
    2517              $C$DW$207       .dwtag  DW_TAG_TI_assign_register, DW_AT_name("XAR3")
    2518                      .dwattr $C$DW$207, DW_AT_location[DW_OP_reg23]
    2519              $C$DW$208       .dwtag  DW_TAG_TI_assign_register, DW_AT_name("AR4")
    2520                      .dwattr $C$DW$208, DW_AT_location[DW_OP_reg24]
    2521              $C$DW$209       .dwtag  DW_TAG_TI_assign_register, DW_AT_name("XAR4")
    2522                      .dwattr $C$DW$209, DW_AT_location[DW_OP_reg25]
    2523              $C$DW$210       .dwtag  DW_TAG_TI_assign_register, DW_AT_name("AR5")
    2524                      .dwattr $C$DW$210, DW_AT_location[DW_OP_reg26]
    2525              $C$DW$211       .dwtag  DW_TAG_TI_assign_register, DW_AT_name("XAR5")
    2526                      .dwattr $C$DW$211, DW_AT_location[DW_OP_reg27]
    2527              $C$DW$212       .dwtag  DW_TAG_TI_assign_register, DW_AT_name("AR6")
    2528                      .dwattr $C$DW$212, DW_AT_location[DW_OP_reg28]
    2529              $C$DW$213       .dwtag  DW_TAG_TI_assign_register, DW_AT_name("XAR6")
    2530                      .dwattr $C$DW$213, DW_AT_location[DW_OP_reg29]
    2531              $C$DW$214       .dwtag  DW_TAG_TI_assign_register, DW_AT_name("AR7")
    2532                      .dwattr $C$DW$214, DW_AT_location[DW_OP_reg30]
    2533              $C$DW$215       .dwtag  DW_TAG_TI_assign_register, DW_AT_name("XAR7")
    2534                      .dwattr $C$DW$215, DW_AT_location[DW_OP_reg31]
    2535              $C$DW$216       .dwtag  DW_TAG_TI_assign_register, DW_AT_name("FP")
    2536                      .dwattr $C$DW$216, DW_AT_location[DW_OP_regx 0x20]
    2537              $C$DW$217       .dwtag  DW_TAG_TI_assign_register, DW_AT_name("XFP")
    2538                      .dwattr $C$DW$217, DW_AT_location[DW_OP_regx 0x21]
    2539              $C$DW$218       .dwtag  DW_TAG_TI_assign_register, DW_AT_name("PC")
    2540                      .dwattr $C$DW$218, DW_AT_location[DW_OP_regx 0x22]
    2541              $C$DW$219       .dwtag  DW_TAG_TI_assign_register, DW_AT_name("SP")
    2542                      .dwattr $C$DW$219, DW_AT_location[DW_OP_regx 0x23]
    2543              $C$DW$220       .dwtag  DW_TAG_TI_assign_register, DW_AT_name("XSP")
    2544                      .dwattr $C$DW$220, DW_AT_location[DW_OP_regx 0x24]
    2545              $C$DW$221       .dwtag  DW_TAG_TI_assign_register, DW_AT_name("BKC")
    2546                      .dwattr $C$DW$221, DW_AT_location[DW_OP_regx 0x25]
    2547              $C$DW$222       .dwtag  DW_TAG_TI_assign_register, DW_AT_name("BK03")
    2548                      .dwattr $C$DW$222, DW_AT_location[DW_OP_regx 0x26]
    2549              $C$DW$223       .dwtag  DW_TAG_TI_assign_register, DW_AT_name("BK47")
    2550                      .dwattr $C$DW$223, DW_AT_location[DW_OP_regx 0x27]
    2551              $C$DW$224       .dwtag  DW_TAG_TI_assign_register, DW_AT_name("ST0")
    2552                      .dwattr $C$DW$224, DW_AT_location[DW_OP_regx 0x28]
    2553              $C$DW$225       .dwtag  DW_TAG_TI_assign_register, DW_AT_name("ST1")
    2554                      .dwattr $C$DW$225, DW_AT_location[DW_OP_regx 0x29]
    2555              $C$DW$226       .dwtag  DW_TAG_TI_assign_register, DW_AT_name("ST2")
    2556                      .dwattr $C$DW$226, DW_AT_location[DW_OP_regx 0x2a]
    2557              $C$DW$227       .dwtag  DW_TAG_TI_assign_register, DW_AT_name("ST3")
    2558                      .dwattr $C$DW$227, DW_AT_location[DW_OP_regx 0x2b]
    2559              $C$DW$228       .dwtag  DW_TAG_TI_assign_register, DW_AT_name("MDP")
    2560                      .dwattr $C$DW$228, DW_AT_location[DW_OP_regx 0x2c]
TMS320C55x Assembler PC v4.4.1 Tue Oct 02 02:33:01 2018

Tools Copyright (c) 1996-2012 Texas Instruments Incorporated
csl_lcdc.asm                                                         PAGE   57

    2561              $C$DW$229       .dwtag  DW_TAG_TI_assign_register, DW_AT_name("MDP05")
    2562                      .dwattr $C$DW$229, DW_AT_location[DW_OP_regx 0x2d]
    2563              $C$DW$230       .dwtag  DW_TAG_TI_assign_register, DW_AT_name("MDP67")
    2564                      .dwattr $C$DW$230, DW_AT_location[DW_OP_regx 0x2e]
    2565              $C$DW$231       .dwtag  DW_TAG_TI_assign_register, DW_AT_name("BRC0")
    2566                      .dwattr $C$DW$231, DW_AT_location[DW_OP_regx 0x2f]
    2567              $C$DW$232       .dwtag  DW_TAG_TI_assign_register, DW_AT_name("RSA0")
    2568                      .dwattr $C$DW$232, DW_AT_location[DW_OP_regx 0x30]
    2569              $C$DW$233       .dwtag  DW_TAG_TI_assign_register, DW_AT_name("RSA0_H")
    2570                      .dwattr $C$DW$233, DW_AT_location[DW_OP_regx 0x31]
    2571              $C$DW$234       .dwtag  DW_TAG_TI_assign_register, DW_AT_name("REA0")
    2572                      .dwattr $C$DW$234, DW_AT_location[DW_OP_regx 0x32]
    2573              $C$DW$235       .dwtag  DW_TAG_TI_assign_register, DW_AT_name("REA0_H")
    2574                      .dwattr $C$DW$235, DW_AT_location[DW_OP_regx 0x33]
    2575              $C$DW$236       .dwtag  DW_TAG_TI_assign_register, DW_AT_name("BRS1")
    2576                      .dwattr $C$DW$236, DW_AT_location[DW_OP_regx 0x34]
    2577              $C$DW$237       .dwtag  DW_TAG_TI_assign_register, DW_AT_name("BRC1")
    2578                      .dwattr $C$DW$237, DW_AT_location[DW_OP_regx 0x35]
    2579              $C$DW$238       .dwtag  DW_TAG_TI_assign_register, DW_AT_name("RSA1")
    2580                      .dwattr $C$DW$238, DW_AT_location[DW_OP_regx 0x36]
    2581              $C$DW$239       .dwtag  DW_TAG_TI_assign_register, DW_AT_name("RSA1_H")
    2582                      .dwattr $C$DW$239, DW_AT_location[DW_OP_regx 0x37]
    2583              $C$DW$240       .dwtag  DW_TAG_TI_assign_register, DW_AT_name("REA1")
    2584                      .dwattr $C$DW$240, DW_AT_location[DW_OP_regx 0x38]
    2585              $C$DW$241       .dwtag  DW_TAG_TI_assign_register, DW_AT_name("REA1_H")
    2586                      .dwattr $C$DW$241, DW_AT_location[DW_OP_regx 0x39]
    2587              $C$DW$242       .dwtag  DW_TAG_TI_assign_register, DW_AT_name("CSR")
    2588                      .dwattr $C$DW$242, DW_AT_location[DW_OP_regx 0x3a]
    2589              $C$DW$243       .dwtag  DW_TAG_TI_assign_register, DW_AT_name("RPTC")
    2590                      .dwattr $C$DW$243, DW_AT_location[DW_OP_regx 0x3b]
    2591              $C$DW$244       .dwtag  DW_TAG_TI_assign_register, DW_AT_name("CDP")
    2592                      .dwattr $C$DW$244, DW_AT_location[DW_OP_regx 0x3c]
    2593              $C$DW$245       .dwtag  DW_TAG_TI_assign_register, DW_AT_name("XCDP")
    2594                      .dwattr $C$DW$245, DW_AT_location[DW_OP_regx 0x3d]
    2595              $C$DW$246       .dwtag  DW_TAG_TI_assign_register, DW_AT_name("TRN0")
    2596                      .dwattr $C$DW$246, DW_AT_location[DW_OP_regx 0x3e]
    2597              $C$DW$247       .dwtag  DW_TAG_TI_assign_register, DW_AT_name("TRN1")
    2598                      .dwattr $C$DW$247, DW_AT_location[DW_OP_regx 0x3f]
    2599              $C$DW$248       .dwtag  DW_TAG_TI_assign_register, DW_AT_name("BSA01")
    2600                      .dwattr $C$DW$248, DW_AT_location[DW_OP_regx 0x40]
    2601              $C$DW$249       .dwtag  DW_TAG_TI_assign_register, DW_AT_name("BSA23")
    2602                      .dwattr $C$DW$249, DW_AT_location[DW_OP_regx 0x41]
    2603              $C$DW$250       .dwtag  DW_TAG_TI_assign_register, DW_AT_name("BSA45")
    2604                      .dwattr $C$DW$250, DW_AT_location[DW_OP_regx 0x42]
    2605              $C$DW$251       .dwtag  DW_TAG_TI_assign_register, DW_AT_name("BSA67")
    2606                      .dwattr $C$DW$251, DW_AT_location[DW_OP_regx 0x43]
    2607              $C$DW$252       .dwtag  DW_TAG_TI_assign_register, DW_AT_name("BSAC")
    2608                      .dwattr $C$DW$252, DW_AT_location[DW_OP_regx 0x44]
    2609              $C$DW$253       .dwtag  DW_TAG_TI_assign_register, DW_AT_name("CARRY")
    2610                      .dwattr $C$DW$253, DW_AT_location[DW_OP_regx 0x45]
    2611              $C$DW$254       .dwtag  DW_TAG_TI_assign_register, DW_AT_name("TC1")
    2612                      .dwattr $C$DW$254, DW_AT_location[DW_OP_regx 0x46]
    2613              $C$DW$255       .dwtag  DW_TAG_TI_assign_register, DW_AT_name("TC2")
    2614                      .dwattr $C$DW$255, DW_AT_location[DW_OP_regx 0x47]
    2615              $C$DW$256       .dwtag  DW_TAG_TI_assign_register, DW_AT_name("M40")
TMS320C55x Assembler PC v4.4.1 Tue Oct 02 02:33:01 2018

Tools Copyright (c) 1996-2012 Texas Instruments Incorporated
csl_lcdc.asm                                                         PAGE   58

    2616                      .dwattr $C$DW$256, DW_AT_location[DW_OP_regx 0x48]
    2617              $C$DW$257       .dwtag  DW_TAG_TI_assign_register, DW_AT_name("SXMD")
    2618                      .dwattr $C$DW$257, DW_AT_location[DW_OP_regx 0x49]
    2619              $C$DW$258       .dwtag  DW_TAG_TI_assign_register, DW_AT_name("ARMS")
    2620                      .dwattr $C$DW$258, DW_AT_location[DW_OP_regx 0x4a]
    2621              $C$DW$259       .dwtag  DW_TAG_TI_assign_register, DW_AT_name("C54CM")
    2622                      .dwattr $C$DW$259, DW_AT_location[DW_OP_regx 0x4b]
    2623              $C$DW$260       .dwtag  DW_TAG_TI_assign_register, DW_AT_name("SATA")
    2624                      .dwattr $C$DW$260, DW_AT_location[DW_OP_regx 0x4c]
    2625              $C$DW$261       .dwtag  DW_TAG_TI_assign_register, DW_AT_name("SATD")
    2626                      .dwattr $C$DW$261, DW_AT_location[DW_OP_regx 0x4d]
    2627              $C$DW$262       .dwtag  DW_TAG_TI_assign_register, DW_AT_name("RDM")
    2628                      .dwattr $C$DW$262, DW_AT_location[DW_OP_regx 0x4e]
    2629              $C$DW$263       .dwtag  DW_TAG_TI_assign_register, DW_AT_name("FRCT")
    2630                      .dwattr $C$DW$263, DW_AT_location[DW_OP_regx 0x4f]
    2631              $C$DW$264       .dwtag  DW_TAG_TI_assign_register, DW_AT_name("SMUL")
    2632                      .dwattr $C$DW$264, DW_AT_location[DW_OP_regx 0x50]
    2633              $C$DW$265       .dwtag  DW_TAG_TI_assign_register, DW_AT_name("INTM")
    2634                      .dwattr $C$DW$265, DW_AT_location[DW_OP_regx 0x51]
    2635              $C$DW$266       .dwtag  DW_TAG_TI_assign_register, DW_AT_name("AR0LC")
    2636                      .dwattr $C$DW$266, DW_AT_location[DW_OP_regx 0x52]
    2637              $C$DW$267       .dwtag  DW_TAG_TI_assign_register, DW_AT_name("AR1LC")
    2638                      .dwattr $C$DW$267, DW_AT_location[DW_OP_regx 0x53]
    2639              $C$DW$268       .dwtag  DW_TAG_TI_assign_register, DW_AT_name("AR2LC")
    2640                      .dwattr $C$DW$268, DW_AT_location[DW_OP_regx 0x54]
    2641              $C$DW$269       .dwtag  DW_TAG_TI_assign_register, DW_AT_name("AR3LC")
    2642                      .dwattr $C$DW$269, DW_AT_location[DW_OP_regx 0x55]
    2643              $C$DW$270       .dwtag  DW_TAG_TI_assign_register, DW_AT_name("AR4LC")
    2644                      .dwattr $C$DW$270, DW_AT_location[DW_OP_regx 0x56]
    2645              $C$DW$271       .dwtag  DW_TAG_TI_assign_register, DW_AT_name("AR5LC")
    2646                      .dwattr $C$DW$271, DW_AT_location[DW_OP_regx 0x57]
    2647              $C$DW$272       .dwtag  DW_TAG_TI_assign_register, DW_AT_name("AR6LC")
    2648                      .dwattr $C$DW$272, DW_AT_location[DW_OP_regx 0x58]
    2649              $C$DW$273       .dwtag  DW_TAG_TI_assign_register, DW_AT_name("AR7LC")
    2650                      .dwattr $C$DW$273, DW_AT_location[DW_OP_regx 0x59]
    2651              $C$DW$274       .dwtag  DW_TAG_TI_assign_register, DW_AT_name("CDPLC")
    2652                      .dwattr $C$DW$274, DW_AT_location[DW_OP_regx 0x5a]
    2653              $C$DW$275       .dwtag  DW_TAG_TI_assign_register, DW_AT_name("CIE_RETA")
    2654                      .dwattr $C$DW$275, DW_AT_location[DW_OP_regx 0x5b]
    2655                      .dwendtag $C$DW$CU
    2656              
    2656              
    2656              

No Assembly Errors, No Assembly Warnings
