TMS320C55x Assembler PC v4.4.1 Sat Sep 29 23:08:36 2018

Tools Copyright (c) 1996-2012 Texas Instruments Incorporated
csl_usb_intc_example.asm                                             PAGE    1

    8312              ; Temporary Registers Used: None
       1              ;*******************************************************************************
       2              ;* TMS320C55x C/C++ Codegen                                          PC v4.4.1 *
       3              ;* Date/Time created: Sat Sep 29 23:08:34 2018                                 *
       4              ;*******************************************************************************
       5                      .compiler_opts --hll_source=on --mem_model:code=flat --mem_model:data=large --object_format=coff --si
       6                      .mmregs
       7                      .cpl_on
       8                      .arms_on
       9                      .c54cm_off
      10                      .asg AR6, FP
      11                      .asg XAR6, XFP
      12                      .asg DPH, MDP
      13                      .model call=c55_std
      14                      .model mem=large
      15                      .noremark 5002  ; code respects overwrite rules
      16              ;*******************************************************************************
      17              ;* GLOBAL FILE PARAMETERS                                                      *
      18              ;*                                                                             *
      19              ;*   Architecture       : TMS320C55x                                           *
      20              ;*   Optimizing for     : Speed                                                *
      21              ;*   Memory             : Large Model (23-Bit Data Pointers)                   *
      22              ;*   Calls              : Normal Library ASM calls                             *
      23              ;*   Debug Info         : Standard TI Debug Information                        *
      24              ;*******************************************************************************
      25              
      26              $C$DW$CU        .dwtag  DW_TAG_compile_unit
      27                      .dwattr $C$DW$CU, DW_AT_name("../c5535_bsl_revc/ezdsp5535_v1/c55xx_csl/ccs_v4.0_examples/usb/CSL_USB_
      28                      .dwattr $C$DW$CU, DW_AT_producer("TMS320C55x C/C++ Codegen PC v4.4.1 Copyright (c) 1996-2012 Texas In
      29                      .dwattr $C$DW$CU, DW_AT_TI_version(0x01)
      30                      .dwattr $C$DW$CU, DW_AT_comp_dir("F:\eZdsp_DBG\tmp1\c55x-sim2\foo\Debug")
      31              ;******************************************************************************
      32              ;* CINIT RECORDS                                                              *
      33              ;******************************************************************************
      34 000000               .sect   ".cinit"
      35                      .align  1
      36 000000 0002          .field          2,16
      37 000001 0000-         .field          _pContext+0,24
         000002 7600 
      38 000002 7600          .field          0,8
      39 000003 0000!         .field  _gUsbContext,32         ; _pContext @ 0
         000004 0000 
      40              
      41 000005               .sect   ".cinit"
      42                      .align  1
      43 000005 0001          .field          1,16
      44 000006 0001-         .field          _stopRunning+0,24
         000007 8200 
      45 000007 8200          .field          0,8
      46 000008 0000          .field  0,16                    ; _stopRunning @ 0
      47              
      48 000009               .sect   ".cinit"
      49                      .align  1
      50 000009 0001          .field          1,16
      51 00000a 0001-         .field          _usbDevDisconnect+0,24
TMS320C55x Assembler PC v4.4.1 Sat Sep 29 23:08:36 2018

Tools Copyright (c) 1996-2012 Texas Instruments Incorporated
csl_usb_intc_example.asm                                             PAGE    2

         00000b 8300 
      52 00000b 8300          .field          0,8
      53 00000c 0001          .field  1,16                    ; _usbDevDisconnect @ 0
      54              
      55 00000d               .sect   ".cinit"
      56                      .align  1
      57 00000d 0009          .field          $C$IR_1,16
      58 00000e 0001-         .field          _deviceDesc+0,24
         00000f 8400 
      59 00000f 8400          .field          0,8
      60 000010 0112          .field  274,16                  ; _deviceDesc[0] @ 0
      61 000011 0200          .field  512,16                  ; _deviceDesc[1] @ 16
      62 000012 0000          .field  0,16                    ; _deviceDesc[2] @ 32
      63 000013 4000          .field  16384,16                        ; _deviceDesc[3] @ 48
      64 000014 0451          .field  1105,16                 ; _deviceDesc[4] @ 64
      65 000015 9010          .field  36880,16                        ; _deviceDesc[5] @ 80
      66 000016 0100          .field  256,16                  ; _deviceDesc[6] @ 96
      67 000017 0201          .field  513,16                  ; _deviceDesc[7] @ 112
      68 000018 0103          .field  259,16                  ; _deviceDesc[8] @ 128
      69              $C$IR_1:        .set    9
      70              
      71 000019               .sect   ".cinit"
      72                      .align  1
      73 000019 0025          .field          $C$IR_2,16
      74 00001a 0001-         .field          _cfgDesc+0,24
         00001b 8D00 
      75 00001b 8D00          .field          0,8
      76 00001c 0209          .field  521,16                  ; _cfgDesc[0] @ 0
      77 00001d 003C          .field  60,16                   ; _cfgDesc[1] @ 16
      78 00001e 0101          .field  257,16                  ; _cfgDesc[2] @ 32
      79 00001f C001          .field  49153,16                        ; _cfgDesc[3] @ 48
      80 000020 0928          .field  2344,16                 ; _cfgDesc[4] @ 64
      81 000021 0004          .field  4,16                    ; _cfgDesc[5] @ 80
      82 000022 0600          .field  1536,16                 ; _cfgDesc[6] @ 96
      83 000023 0000          .field  0,16                    ; _cfgDesc[7] @ 112
      84 000024 0000          .field  0,16                    ; _cfgDesc[8] @ 128
      85 000025 0507          .field  1287,16                 ; _cfgDesc[9] @ 144
      86 000026 0281          .field  641,16                  ; _cfgDesc[10] @ 160
      87 000027 0040          .field  64,16                   ; _cfgDesc[11] @ 176
      88 000028 0700          .field  1792,16                 ; _cfgDesc[12] @ 192
      89 000029 0105          .field  261,16                  ; _cfgDesc[13] @ 208
      90 00002a 4002          .field  16386,16                        ; _cfgDesc[14] @ 224
      91 00002b 0000          .field  0,16                    ; _cfgDesc[15] @ 240
      92 00002c 0507          .field  1287,16                 ; _cfgDesc[16] @ 256
      93 00002d 0282          .field  642,16                  ; _cfgDesc[17] @ 272
      94 00002e 0040          .field  64,16                   ; _cfgDesc[18] @ 288
      95 00002f 0700          .field  1792,16                 ; _cfgDesc[19] @ 304
      96 000030 0205          .field  517,16                  ; _cfgDesc[20] @ 320
      97 000031 4002          .field  16386,16                        ; _cfgDesc[21] @ 336
      98 000032 0000          .field  0,16                    ; _cfgDesc[22] @ 352
      99 000033 0507          .field  1287,16                 ; _cfgDesc[23] @ 368
     100 000034 0283          .field  643,16                  ; _cfgDesc[24] @ 384
     101 000035 0040          .field  64,16                   ; _cfgDesc[25] @ 400
     102 000036 0700          .field  1792,16                 ; _cfgDesc[26] @ 416
     103 000037 0305          .field  773,16                  ; _cfgDesc[27] @ 432
TMS320C55x Assembler PC v4.4.1 Sat Sep 29 23:08:36 2018

Tools Copyright (c) 1996-2012 Texas Instruments Incorporated
csl_usb_intc_example.asm                                             PAGE    3

     104 000038 4002          .field  16386,16                        ; _cfgDesc[28] @ 448
     105 000039 0000          .field  0,16                    ; _cfgDesc[29] @ 464
     106 00003a 0507          .field  1287,16                 ; _cfgDesc[30] @ 480
     107 00003b 0284          .field  644,16                  ; _cfgDesc[31] @ 496
     108 00003c 0040          .field  64,16                   ; _cfgDesc[32] @ 512
     109 00003d 0700          .field  1792,16                 ; _cfgDesc[33] @ 528
     110 00003e 0405          .field  1029,16                 ; _cfgDesc[34] @ 544
     111 00003f 4002          .field  16386,16                        ; _cfgDesc[35] @ 560
     112 000040 0000          .field  0,16                    ; _cfgDesc[36] @ 576
     113              $C$IR_2:        .set    37
     114              
     115 000041               .sect   ".cinit"
     116                      .align  1
     117 000041 0002          .field          $C$IR_3,16
     118 000042 0001-         .field          _strDesc+0,24
         000043 B500 
     119 000043 B500          .field          0,8
     120 000044 0304          .field  772,16                  ; _strDesc[0][0] @ 0
     121 000045 0409          .field  1033,16                 ; _strDesc[0][1] @ 16
     122              $C$IR_3:        .set    2
     123              
     124 000046               .sect   ".cinit"
     125                      .align  1
     126 000046 002E          .field          $C$IR_4,16
     127 000047 0001-         .field          _strDesc+20,24
         000048 C900 
     128 000048 C900          .field          0,8
     129 000049 0324          .field  804,16                  ; _strDesc[1][0] @ 320
     130 00004a 0045          .field  69,16                   ; _strDesc[1][1] @ 336
     131 00004b 0054          .field  84,16                   ; _strDesc[1][2] @ 352
     132 00004c 0041          .field  65,16                   ; _strDesc[1][3] @ 368
     133 00004d 0058          .field  88,16                   ; _strDesc[1][4] @ 384
     134 00004e 0020          .field  32,16                   ; _strDesc[1][5] @ 400
     135 00004f 0053          .field  83,16                   ; _strDesc[1][6] @ 416
     136 000050 004E          .field  78,16                   ; _strDesc[1][7] @ 432
     137 000051 0049          .field  73,16                   ; _strDesc[1][8] @ 448
     138 000052 0054          .field  84,16                   ; _strDesc[1][9] @ 464
     139 000053 0053          .field  83,16                   ; _strDesc[1][10] @ 480
     140 000054 0055          .field  85,16                   ; _strDesc[1][11] @ 496
     141 000055 0052          .field  82,16                   ; _strDesc[1][12] @ 512
     142 000056 0045          .field  69,16                   ; _strDesc[1][13] @ 528
     143 000057 004D          .field  77,16                   ; _strDesc[1][14] @ 544
     144 000058 0054          .field  84,16                   ; _strDesc[1][15] @ 560
     145 000059 004E          .field  78,16                   ; _strDesc[1][16] @ 576
     146 00005a 0053          .field  83,16                   ; _strDesc[1][17] @ 592
     147 00005b               .space  32
     148 00005d 030C          .field  780,16                  ; _strDesc[2][0] @ 640
     149 00005e 0043          .field  67,16                   ; _strDesc[2][1] @ 656
     150 00005f 0035          .field  53,16                   ; _strDesc[2][2] @ 672
     151 000060 0035          .field  53,16                   ; _strDesc[2][3] @ 688
     152 000061 0031          .field  49,16                   ; _strDesc[2][4] @ 704
     153 000062 0035          .field  53,16                   ; _strDesc[2][5] @ 720
     154 000063               .space  224
     155 000071 030C          .field  780,16                  ; _strDesc[3][0] @ 960
     156 000072 0030          .field  48,16                   ; _strDesc[3][1] @ 976
TMS320C55x Assembler PC v4.4.1 Sat Sep 29 23:08:36 2018

Tools Copyright (c) 1996-2012 Texas Instruments Incorporated
csl_usb_intc_example.asm                                             PAGE    4

     157 000073 0030          .field  48,16                   ; _strDesc[3][2] @ 992
     158 000074 0030          .field  48,16                   ; _strDesc[3][3] @ 1008
     159 000075 0030          .field  48,16                   ; _strDesc[3][4] @ 1024
     160 000076 0031          .field  49,16                   ; _strDesc[3][5] @ 1040
     161              $C$IR_4:        .set    46
     162              
     163 000077               .sect   ".cinit"
     164                      .align  1
     165 000077 0001          .field          1,16
     166 000078 0002-         .field          _PaSs_StAtE+0,24
         000079 0500 
     167 000079 0500          .field          0,8
     168 00007a 0001          .field  1,16                    ; _PaSs_StAtE @ 0
     169              
     170 00007b               .sect   ".cinit"
     171                      .align  1
     172 00007b 0001          .field          1,16
     173 00007c 0002-         .field          _PaSs+0,24
         00007d 0600 
     174 00007d 0600          .field          0,8
     175 00007e 0000          .field  0,16                    ; _PaSs @ 0
     176              
     177              
     178              $C$DW$1 .dwtag  DW_TAG_subprogram, DW_AT_name("memcpy")
     179                      .dwattr $C$DW$1, DW_AT_TI_symbol_name("_memcpy")
     180                      .dwattr $C$DW$1, DW_AT_type(*$C$DW$T$3)
     181                      .dwattr $C$DW$1, DW_AT_declaration
     182                      .dwattr $C$DW$1, DW_AT_external
     183              $C$DW$2 .dwtag  DW_TAG_formal_parameter
     184                      .dwattr $C$DW$2, DW_AT_type(*$C$DW$T$3)
     185              $C$DW$3 .dwtag  DW_TAG_formal_parameter
     186                      .dwattr $C$DW$3, DW_AT_type(*$C$DW$T$154)
     187              $C$DW$4 .dwtag  DW_TAG_formal_parameter
     188                      .dwattr $C$DW$4, DW_AT_type(*$C$DW$T$11)
     189                      .dwendtag $C$DW$1
     190              
     191              
     192              $C$DW$5 .dwtag  DW_TAG_subprogram, DW_AT_name("printf")
     193                      .dwattr $C$DW$5, DW_AT_TI_symbol_name("_printf")
     194                      .dwattr $C$DW$5, DW_AT_type(*$C$DW$T$10)
     195                      .dwattr $C$DW$5, DW_AT_declaration
     196                      .dwattr $C$DW$5, DW_AT_external
     197              $C$DW$6 .dwtag  DW_TAG_formal_parameter
     198                      .dwattr $C$DW$6, DW_AT_type(*$C$DW$T$213)
     199              $C$DW$7 .dwtag  DW_TAG_unspecified_parameters
     200                      .dwendtag $C$DW$5
     201              
     202              
     203              $C$DW$8 .dwtag  DW_TAG_subprogram, DW_AT_name("USB_init")
     204                      .dwattr $C$DW$8, DW_AT_TI_symbol_name("_USB_init")
     205                      .dwattr $C$DW$8, DW_AT_type(*$C$DW$T$80)
     206                      .dwattr $C$DW$8, DW_AT_declaration
     207                      .dwattr $C$DW$8, DW_AT_external
     208              $C$DW$9 .dwtag  DW_TAG_formal_parameter
     209                      .dwattr $C$DW$9, DW_AT_type(*$C$DW$T$143)
TMS320C55x Assembler PC v4.4.1 Sat Sep 29 23:08:36 2018

Tools Copyright (c) 1996-2012 Texas Instruments Incorporated
csl_usb_intc_example.asm                                             PAGE    5

     210                      .dwendtag $C$DW$8
     211              
     212              
     213              $C$DW$10        .dwtag  DW_TAG_subprogram, DW_AT_name("USB_resetDev")
     214                      .dwattr $C$DW$10, DW_AT_TI_symbol_name("_USB_resetDev")
     215                      .dwattr $C$DW$10, DW_AT_type(*$C$DW$T$80)
     216                      .dwattr $C$DW$10, DW_AT_declaration
     217                      .dwattr $C$DW$10, DW_AT_external
     218              $C$DW$11        .dwtag  DW_TAG_formal_parameter
     219                      .dwattr $C$DW$11, DW_AT_type(*$C$DW$T$73)
     220                      .dwendtag $C$DW$10
     221              
     222              
     223              $C$DW$12        .dwtag  DW_TAG_subprogram, DW_AT_name("USB_initEndptObj")
     224                      .dwattr $C$DW$12, DW_AT_TI_symbol_name("_USB_initEndptObj")
     225                      .dwattr $C$DW$12, DW_AT_type(*$C$DW$T$80)
     226                      .dwattr $C$DW$12, DW_AT_declaration
     227                      .dwattr $C$DW$12, DW_AT_external
     228              $C$DW$13        .dwtag  DW_TAG_formal_parameter
     229                      .dwattr $C$DW$13, DW_AT_type(*$C$DW$T$73)
     230              $C$DW$14        .dwtag  DW_TAG_formal_parameter
     231                      .dwattr $C$DW$14, DW_AT_type(*$C$DW$T$106)
     232              $C$DW$15        .dwtag  DW_TAG_formal_parameter
     233                      .dwattr $C$DW$15, DW_AT_type(*$C$DW$T$112)
     234              $C$DW$16        .dwtag  DW_TAG_formal_parameter
     235                      .dwattr $C$DW$16, DW_AT_type(*$C$DW$T$114)
     236              $C$DW$17        .dwtag  DW_TAG_formal_parameter
     237                      .dwattr $C$DW$17, DW_AT_type(*$C$DW$T$19)
     238              $C$DW$18        .dwtag  DW_TAG_formal_parameter
     239                      .dwattr $C$DW$18, DW_AT_type(*$C$DW$T$19)
     240              $C$DW$19        .dwtag  DW_TAG_formal_parameter
     241                      .dwattr $C$DW$19, DW_AT_type(*$C$DW$T$117)
     242                      .dwendtag $C$DW$12
     243              
     244              
     245              $C$DW$20        .dwtag  DW_TAG_subprogram, DW_AT_name("USB_getSetupPacket")
     246                      .dwattr $C$DW$20, DW_AT_TI_symbol_name("_USB_getSetupPacket")
     247                      .dwattr $C$DW$20, DW_AT_type(*$C$DW$T$80)
     248                      .dwattr $C$DW$20, DW_AT_declaration
     249                      .dwattr $C$DW$20, DW_AT_external
     250              $C$DW$21        .dwtag  DW_TAG_formal_parameter
     251                      .dwattr $C$DW$21, DW_AT_type(*$C$DW$T$73)
     252              $C$DW$22        .dwtag  DW_TAG_formal_parameter
     253                      .dwattr $C$DW$22, DW_AT_type(*$C$DW$T$151)
     254              $C$DW$23        .dwtag  DW_TAG_formal_parameter
     255                      .dwattr $C$DW$23, DW_AT_type(*$C$DW$T$86)
     256                      .dwendtag $C$DW$20
     257              
     258              
     259              $C$DW$24        .dwtag  DW_TAG_subprogram, DW_AT_name("USB_postTransaction")
     260                      .dwattr $C$DW$24, DW_AT_TI_symbol_name("_USB_postTransaction")
     261                      .dwattr $C$DW$24, DW_AT_type(*$C$DW$T$80)
     262                      .dwattr $C$DW$24, DW_AT_declaration
     263                      .dwattr $C$DW$24, DW_AT_external
     264              $C$DW$25        .dwtag  DW_TAG_formal_parameter
TMS320C55x Assembler PC v4.4.1 Sat Sep 29 23:08:36 2018

Tools Copyright (c) 1996-2012 Texas Instruments Incorporated
csl_usb_intc_example.asm                                             PAGE    6

     265                      .dwattr $C$DW$25, DW_AT_type(*$C$DW$T$106)
     266              $C$DW$26        .dwtag  DW_TAG_formal_parameter
     267                      .dwattr $C$DW$26, DW_AT_type(*$C$DW$T$19)
     268              $C$DW$27        .dwtag  DW_TAG_formal_parameter
     269                      .dwattr $C$DW$27, DW_AT_type(*$C$DW$T$3)
     270              $C$DW$28        .dwtag  DW_TAG_formal_parameter
     271                      .dwattr $C$DW$28, DW_AT_type(*$C$DW$T$126)
     272                      .dwendtag $C$DW$24
     273              
     274              
     275              $C$DW$29        .dwtag  DW_TAG_subprogram, DW_AT_name("USB_isTransactionDone")
     276                      .dwattr $C$DW$29, DW_AT_TI_symbol_name("_USB_isTransactionDone")
     277                      .dwattr $C$DW$29, DW_AT_type(*$C$DW$T$92)
     278                      .dwattr $C$DW$29, DW_AT_declaration
     279                      .dwattr $C$DW$29, DW_AT_external
     280              $C$DW$30        .dwtag  DW_TAG_formal_parameter
     281                      .dwattr $C$DW$30, DW_AT_type(*$C$DW$T$106)
     282              $C$DW$31        .dwtag  DW_TAG_formal_parameter
     283                      .dwattr $C$DW$31, DW_AT_type(*$C$DW$T$128)
     284                      .dwendtag $C$DW$29
     285              
     286              
     287              $C$DW$32        .dwtag  DW_TAG_subprogram, DW_AT_name("USB_bytesRemaining")
     288                      .dwattr $C$DW$32, DW_AT_TI_symbol_name("_USB_bytesRemaining")
     289                      .dwattr $C$DW$32, DW_AT_type(*$C$DW$T$191)
     290                      .dwattr $C$DW$32, DW_AT_declaration
     291                      .dwattr $C$DW$32, DW_AT_external
     292              $C$DW$33        .dwtag  DW_TAG_formal_parameter
     293                      .dwattr $C$DW$33, DW_AT_type(*$C$DW$T$106)
     294              $C$DW$34        .dwtag  DW_TAG_formal_parameter
     295                      .dwattr $C$DW$34, DW_AT_type(*$C$DW$T$128)
     296                      .dwendtag $C$DW$32
     297              
     298              
     299              $C$DW$35        .dwtag  DW_TAG_subprogram, DW_AT_name("USB_stallEndpt")
     300                      .dwattr $C$DW$35, DW_AT_TI_symbol_name("_USB_stallEndpt")
     301                      .dwattr $C$DW$35, DW_AT_type(*$C$DW$T$80)
     302                      .dwattr $C$DW$35, DW_AT_declaration
     303                      .dwattr $C$DW$35, DW_AT_external
     304              $C$DW$36        .dwtag  DW_TAG_formal_parameter
     305                      .dwattr $C$DW$36, DW_AT_type(*$C$DW$T$106)
     306                      .dwendtag $C$DW$35
     307              
     308              
     309              $C$DW$37        .dwtag  DW_TAG_subprogram, DW_AT_name("USB_clearEndptStall")
     310                      .dwattr $C$DW$37, DW_AT_TI_symbol_name("_USB_clearEndptStall")
     311                      .dwattr $C$DW$37, DW_AT_type(*$C$DW$T$80)
     312                      .dwattr $C$DW$37, DW_AT_declaration
     313                      .dwattr $C$DW$37, DW_AT_external
     314              $C$DW$38        .dwtag  DW_TAG_formal_parameter
     315                      .dwattr $C$DW$38, DW_AT_type(*$C$DW$T$106)
     316                      .dwendtag $C$DW$37
     317              
     318              
     319              $C$DW$39        .dwtag  DW_TAG_subprogram, DW_AT_name("USB_getEndptStall")
TMS320C55x Assembler PC v4.4.1 Sat Sep 29 23:08:36 2018

Tools Copyright (c) 1996-2012 Texas Instruments Incorporated
csl_usb_intc_example.asm                                             PAGE    7

     320                      .dwattr $C$DW$39, DW_AT_TI_symbol_name("_USB_getEndptStall")
     321                      .dwattr $C$DW$39, DW_AT_type(*$C$DW$T$92)
     322                      .dwattr $C$DW$39, DW_AT_declaration
     323                      .dwattr $C$DW$39, DW_AT_external
     324              $C$DW$40        .dwtag  DW_TAG_formal_parameter
     325                      .dwattr $C$DW$40, DW_AT_type(*$C$DW$T$106)
     326              $C$DW$41        .dwtag  DW_TAG_formal_parameter
     327                      .dwattr $C$DW$41, DW_AT_type(*$C$DW$T$128)
     328                      .dwendtag $C$DW$39
     329              
     330              
     331              $C$DW$42        .dwtag  DW_TAG_subprogram, DW_AT_name("USB_epNumToHandle")
     332                      .dwattr $C$DW$42, DW_AT_TI_symbol_name("_USB_epNumToHandle")
     333                      .dwattr $C$DW$42, DW_AT_type(*$C$DW$T$106)
     334                      .dwattr $C$DW$42, DW_AT_declaration
     335                      .dwattr $C$DW$42, DW_AT_external
     336              $C$DW$43        .dwtag  DW_TAG_formal_parameter
     337                      .dwattr $C$DW$43, DW_AT_type(*$C$DW$T$73)
     338              $C$DW$44        .dwtag  DW_TAG_formal_parameter
     339                      .dwattr $C$DW$44, DW_AT_type(*$C$DW$T$19)
     340                      .dwendtag $C$DW$42
     341              
     342              
     343              $C$DW$45        .dwtag  DW_TAG_subprogram, DW_AT_name("USB_connectDev")
     344                      .dwattr $C$DW$45, DW_AT_TI_symbol_name("_USB_connectDev")
     345                      .dwattr $C$DW$45, DW_AT_type(*$C$DW$T$80)
     346                      .dwattr $C$DW$45, DW_AT_declaration
     347                      .dwattr $C$DW$45, DW_AT_external
     348              $C$DW$46        .dwtag  DW_TAG_formal_parameter
     349                      .dwattr $C$DW$46, DW_AT_type(*$C$DW$T$73)
     350                      .dwendtag $C$DW$45
     351              
     352              
     353              $C$DW$47        .dwtag  DW_TAG_subprogram, DW_AT_name("USB_disconnectDev")
     354                      .dwattr $C$DW$47, DW_AT_TI_symbol_name("_USB_disconnectDev")
     355                      .dwattr $C$DW$47, DW_AT_type(*$C$DW$T$80)
     356                      .dwattr $C$DW$47, DW_AT_declaration
     357                      .dwattr $C$DW$47, DW_AT_external
     358              $C$DW$48        .dwtag  DW_TAG_formal_parameter
     359                      .dwattr $C$DW$48, DW_AT_type(*$C$DW$T$73)
     360                      .dwendtag $C$DW$47
     361              
     362              
     363              $C$DW$49        .dwtag  DW_TAG_subprogram, DW_AT_name("USB_setRemoteWakeup")
     364                      .dwattr $C$DW$49, DW_AT_TI_symbol_name("_USB_setRemoteWakeup")
     365                      .dwattr $C$DW$49, DW_AT_type(*$C$DW$T$80)
     366                      .dwattr $C$DW$49, DW_AT_declaration
     367                      .dwattr $C$DW$49, DW_AT_external
     368              $C$DW$50        .dwtag  DW_TAG_formal_parameter
     369                      .dwattr $C$DW$50, DW_AT_type(*$C$DW$T$73)
     370              $C$DW$51        .dwtag  DW_TAG_formal_parameter
     371                      .dwattr $C$DW$51, DW_AT_type(*$C$DW$T$92)
     372                      .dwendtag $C$DW$49
     373              
     374              
TMS320C55x Assembler PC v4.4.1 Sat Sep 29 23:08:36 2018

Tools Copyright (c) 1996-2012 Texas Instruments Incorporated
csl_usb_intc_example.asm                                             PAGE    8

     375              $C$DW$52        .dwtag  DW_TAG_subprogram, DW_AT_name("USB_getRemoteWakeupStat")
     376                      .dwattr $C$DW$52, DW_AT_TI_symbol_name("_USB_getRemoteWakeupStat")
     377                      .dwattr $C$DW$52, DW_AT_type(*$C$DW$T$92)
     378                      .dwattr $C$DW$52, DW_AT_declaration
     379                      .dwattr $C$DW$52, DW_AT_external
     380              $C$DW$53        .dwtag  DW_TAG_formal_parameter
     381                      .dwattr $C$DW$53, DW_AT_type(*$C$DW$T$73)
     382                      .dwendtag $C$DW$52
     383              
     384              
     385              $C$DW$54        .dwtag  DW_TAG_subprogram, DW_AT_name("USB_issueRemoteWakeup")
     386                      .dwattr $C$DW$54, DW_AT_TI_symbol_name("_USB_issueRemoteWakeup")
     387                      .dwattr $C$DW$54, DW_AT_type(*$C$DW$T$80)
     388                      .dwattr $C$DW$54, DW_AT_declaration
     389                      .dwattr $C$DW$54, DW_AT_external
     390              $C$DW$55        .dwtag  DW_TAG_formal_parameter
     391                      .dwattr $C$DW$55, DW_AT_type(*$C$DW$T$73)
     392              $C$DW$56        .dwtag  DW_TAG_formal_parameter
     393                      .dwattr $C$DW$56, DW_AT_type(*$C$DW$T$86)
     394                      .dwendtag $C$DW$54
     395              
     396              
     397              $C$DW$57        .dwtag  DW_TAG_subprogram, DW_AT_name("USB_setDevAddr")
     398                      .dwattr $C$DW$57, DW_AT_TI_symbol_name("_USB_setDevAddr")
     399                      .dwattr $C$DW$57, DW_AT_type(*$C$DW$T$80)
     400                      .dwattr $C$DW$57, DW_AT_declaration
     401                      .dwattr $C$DW$57, DW_AT_external
     402              $C$DW$58        .dwtag  DW_TAG_formal_parameter
     403                      .dwattr $C$DW$58, DW_AT_type(*$C$DW$T$73)
     404              $C$DW$59        .dwtag  DW_TAG_formal_parameter
     405                      .dwattr $C$DW$59, DW_AT_type(*$C$DW$T$19)
     406                      .dwendtag $C$DW$57
     407              
     408              
     409              $C$DW$60        .dwtag  DW_TAG_subprogram, DW_AT_name("USB_suspendDevice")
     410                      .dwattr $C$DW$60, DW_AT_TI_symbol_name("_USB_suspendDevice")
     411                      .dwattr $C$DW$60, DW_AT_type(*$C$DW$T$80)
     412                      .dwattr $C$DW$60, DW_AT_declaration
     413                      .dwattr $C$DW$60, DW_AT_external
     414              $C$DW$61        .dwtag  DW_TAG_formal_parameter
     415                      .dwattr $C$DW$61, DW_AT_type(*$C$DW$T$73)
     416                      .dwendtag $C$DW$60
     417              
     418              
     419              $C$DW$62        .dwtag  DW_TAG_subprogram, DW_AT_name("USB_setParams")
     420                      .dwattr $C$DW$62, DW_AT_TI_symbol_name("_USB_setParams")
     421                      .dwattr $C$DW$62, DW_AT_type(*$C$DW$T$80)
     422                      .dwattr $C$DW$62, DW_AT_declaration
     423                      .dwattr $C$DW$62, DW_AT_external
     424              $C$DW$63        .dwtag  DW_TAG_formal_parameter
     425                      .dwattr $C$DW$63, DW_AT_type(*$C$DW$T$73)
     426              $C$DW$64        .dwtag  DW_TAG_formal_parameter
     427                      .dwattr $C$DW$64, DW_AT_type(*$C$DW$T$149)
     428              $C$DW$65        .dwtag  DW_TAG_formal_parameter
     429                      .dwattr $C$DW$65, DW_AT_type(*$C$DW$T$19)
TMS320C55x Assembler PC v4.4.1 Sat Sep 29 23:08:36 2018

Tools Copyright (c) 1996-2012 Texas Instruments Incorporated
csl_usb_intc_example.asm                                             PAGE    9

     430                      .dwendtag $C$DW$62
     431              
     432              
     433              $C$DW$66        .dwtag  DW_TAG_subprogram, DW_AT_name("USB_getDataCountReadFromFifo")
     434                      .dwattr $C$DW$66, DW_AT_TI_symbol_name("_USB_getDataCountReadFromFifo")
     435                      .dwattr $C$DW$66, DW_AT_type(*$C$DW$T$19)
     436                      .dwattr $C$DW$66, DW_AT_declaration
     437                      .dwattr $C$DW$66, DW_AT_external
     438              $C$DW$67        .dwtag  DW_TAG_formal_parameter
     439                      .dwattr $C$DW$67, DW_AT_type(*$C$DW$T$106)
     440                      .dwendtag $C$DW$66
     441              
     442              
     443              $C$DW$68        .dwtag  DW_TAG_subprogram, DW_AT_name("IRQ_plug")
     444                      .dwattr $C$DW$68, DW_AT_TI_symbol_name("_IRQ_plug")
     445                      .dwattr $C$DW$68, DW_AT_type(*$C$DW$T$10)
     446                      .dwattr $C$DW$68, DW_AT_declaration
     447                      .dwattr $C$DW$68, DW_AT_external
     448              $C$DW$69        .dwtag  DW_TAG_formal_parameter
     449                      .dwattr $C$DW$69, DW_AT_type(*$C$DW$T$19)
     450              $C$DW$70        .dwtag  DW_TAG_formal_parameter
     451                      .dwattr $C$DW$70, DW_AT_type(*$C$DW$T$69)
     452                      .dwendtag $C$DW$68
     453              
     454              
     455              $C$DW$71        .dwtag  DW_TAG_subprogram, DW_AT_name("IRQ_enable")
     456                      .dwattr $C$DW$71, DW_AT_TI_symbol_name("_IRQ_enable")
     457                      .dwattr $C$DW$71, DW_AT_type(*$C$DW$T$10)
     458                      .dwattr $C$DW$71, DW_AT_declaration
     459                      .dwattr $C$DW$71, DW_AT_external
     460              $C$DW$72        .dwtag  DW_TAG_formal_parameter
     461                      .dwattr $C$DW$72, DW_AT_type(*$C$DW$T$19)
     462                      .dwendtag $C$DW$71
     463              
     464              
     465              $C$DW$73        .dwtag  DW_TAG_subprogram, DW_AT_name("IRQ_setVecs")
     466                      .dwattr $C$DW$73, DW_AT_TI_symbol_name("_IRQ_setVecs")
     467                      .dwattr $C$DW$73, DW_AT_type(*$C$DW$T$80)
     468                      .dwattr $C$DW$73, DW_AT_declaration
     469                      .dwattr $C$DW$73, DW_AT_external
     470              $C$DW$74        .dwtag  DW_TAG_formal_parameter
     471                      .dwattr $C$DW$74, DW_AT_type(*$C$DW$T$70)
     472                      .dwendtag $C$DW$73
     473              
     474              
     475              $C$DW$75        .dwtag  DW_TAG_subprogram, DW_AT_name("IRQ_globalEnable")
     476                      .dwattr $C$DW$75, DW_AT_TI_symbol_name("_IRQ_globalEnable")
     477                      .dwattr $C$DW$75, DW_AT_type(*$C$DW$T$86)
     478                      .dwattr $C$DW$75, DW_AT_declaration
     479                      .dwattr $C$DW$75, DW_AT_external
     480              
     481              $C$DW$76        .dwtag  DW_TAG_subprogram, DW_AT_name("VECSTART")
     482                      .dwattr $C$DW$76, DW_AT_TI_symbol_name("_VECSTART")
     483                      .dwattr $C$DW$76, DW_AT_declaration
     484                      .dwattr $C$DW$76, DW_AT_external
TMS320C55x Assembler PC v4.4.1 Sat Sep 29 23:08:36 2018

Tools Copyright (c) 1996-2012 Texas Instruments Incorporated
csl_usb_intc_example.asm                                             PAGE   10

     485              $C$DW$77        .dwtag  DW_TAG_variable, DW_AT_name("usbRegisters")
     486                      .dwattr $C$DW$77, DW_AT_TI_symbol_name("_usbRegisters")
     487                      .dwattr $C$DW$77, DW_AT_type(*$C$DW$T$136)
     488                      .dwattr $C$DW$77, DW_AT_declaration
     489                      .dwattr $C$DW$77, DW_AT_external
     490              $C$DW$78        .dwtag  DW_TAG_variable, DW_AT_name("sysCtrlRegs")
     491                      .dwattr $C$DW$78, DW_AT_TI_symbol_name("_sysCtrlRegs")
     492                      .dwattr $C$DW$78, DW_AT_type(*$C$DW$T$140)
     493                      .dwattr $C$DW$78, DW_AT_declaration
     494                      .dwattr $C$DW$78, DW_AT_external
     495              $C$DW$79        .dwtag  DW_TAG_variable, DW_AT_name("gUsbContext")
     496                      .dwattr $C$DW$79, DW_AT_TI_symbol_name("_gUsbContext")
     497                      .dwattr $C$DW$79, DW_AT_type(*$C$DW$T$144)
     498                      .dwattr $C$DW$79, DW_AT_declaration
     499                      .dwattr $C$DW$79, DW_AT_external
     500                      .global _hEpObjArray
     501 000000               .bss    _hEpObjArray,16,0,2
     502              $C$DW$80        .dwtag  DW_TAG_variable, DW_AT_name("hEpObjArray")
     503                      .dwattr $C$DW$80, DW_AT_TI_symbol_name("_hEpObjArray")
     504                      .dwattr $C$DW$80, DW_AT_location[DW_OP_addr _hEpObjArray]
     505                      .dwattr $C$DW$80, DW_AT_type(*$C$DW$T$107)
     506                      .dwattr $C$DW$80, DW_AT_external
     507                      .global _hEPx
     508 000010               .bss    _hEPx,2,0,2
     509              $C$DW$81        .dwtag  DW_TAG_variable, DW_AT_name("hEPx")
     510                      .dwattr $C$DW$81, DW_AT_TI_symbol_name("_hEPx")
     511                      .dwattr $C$DW$81, DW_AT_location[DW_OP_addr _hEPx]
     512                      .dwattr $C$DW$81, DW_AT_type(*$C$DW$T$106)
     513                      .dwattr $C$DW$81, DW_AT_external
     514                      .global _usbCtrlOutEpObj
     515 000012               .bss    _usbCtrlOutEpObj,20,0,2
     516              $C$DW$82        .dwtag  DW_TAG_variable, DW_AT_name("usbCtrlOutEpObj")
     517                      .dwattr $C$DW$82, DW_AT_TI_symbol_name("_usbCtrlOutEpObj")
     518                      .dwattr $C$DW$82, DW_AT_location[DW_OP_addr _usbCtrlOutEpObj]
     519                      .dwattr $C$DW$82, DW_AT_type(*$C$DW$T$104)
     520                      .dwattr $C$DW$82, DW_AT_external
     521                      .global _usbCtrlInEpObj
     522 000026               .bss    _usbCtrlInEpObj,20,0,2
     523              $C$DW$83        .dwtag  DW_TAG_variable, DW_AT_name("usbCtrlInEpObj")
     524                      .dwattr $C$DW$83, DW_AT_TI_symbol_name("_usbCtrlInEpObj")
     525                      .dwattr $C$DW$83, DW_AT_location[DW_OP_addr _usbCtrlInEpObj]
     526                      .dwattr $C$DW$83, DW_AT_type(*$C$DW$T$104)
     527                      .dwattr $C$DW$83, DW_AT_external
     528                      .global _usbBulkOutEpObj
     529 00003a               .bss    _usbBulkOutEpObj,20,0,2
     530              $C$DW$84        .dwtag  DW_TAG_variable, DW_AT_name("usbBulkOutEpObj")
     531                      .dwattr $C$DW$84, DW_AT_TI_symbol_name("_usbBulkOutEpObj")
     532                      .dwattr $C$DW$84, DW_AT_location[DW_OP_addr _usbBulkOutEpObj]
     533                      .dwattr $C$DW$84, DW_AT_type(*$C$DW$T$104)
     534                      .dwattr $C$DW$84, DW_AT_external
     535                      .global _usbBulkInEpObj
     536 00004e               .bss    _usbBulkInEpObj,20,0,2
     537              $C$DW$85        .dwtag  DW_TAG_variable, DW_AT_name("usbBulkInEpObj")
     538                      .dwattr $C$DW$85, DW_AT_TI_symbol_name("_usbBulkInEpObj")
     539                      .dwattr $C$DW$85, DW_AT_location[DW_OP_addr _usbBulkInEpObj]
TMS320C55x Assembler PC v4.4.1 Sat Sep 29 23:08:36 2018

Tools Copyright (c) 1996-2012 Texas Instruments Incorporated
csl_usb_intc_example.asm                                             PAGE   11

     540                      .dwattr $C$DW$85, DW_AT_type(*$C$DW$T$104)
     541                      .dwattr $C$DW$85, DW_AT_external
     542                      .global _usbConfig
     543 000062               .bss    _usbConfig,12,0,2
     544              $C$DW$86        .dwtag  DW_TAG_variable, DW_AT_name("usbConfig")
     545                      .dwattr $C$DW$86, DW_AT_TI_symbol_name("_usbConfig")
     546                      .dwattr $C$DW$86, DW_AT_location[DW_OP_addr _usbConfig]
     547                      .dwattr $C$DW$86, DW_AT_type(*$C$DW$T$142)
     548                      .dwattr $C$DW$86, DW_AT_external
     549                      .global _usbSetup
     550 00006e               .bss    _usbSetup,6,0,0
     551              $C$DW$87        .dwtag  DW_TAG_variable, DW_AT_name("usbSetup")
     552                      .dwattr $C$DW$87, DW_AT_TI_symbol_name("_usbSetup")
     553                      .dwattr $C$DW$87, DW_AT_location[DW_OP_addr _usbSetup]
     554                      .dwattr $C$DW$87, DW_AT_type(*$C$DW$T$101)
     555                      .dwattr $C$DW$87, DW_AT_external
     556                      .global _txRxStatus
     557 000074               .bss    _txRxStatus,1,0,0
     558              $C$DW$88        .dwtag  DW_TAG_variable, DW_AT_name("txRxStatus")
     559                      .dwattr $C$DW$88, DW_AT_TI_symbol_name("_txRxStatus")
     560                      .dwattr $C$DW$88, DW_AT_location[DW_OP_addr _txRxStatus]
     561                      .dwattr $C$DW$88, DW_AT_type(*$C$DW$T$92)
     562                      .dwattr $C$DW$88, DW_AT_external
     563                      .global _status
     564 000075               .bss    _status,1,0,0
     565              $C$DW$89        .dwtag  DW_TAG_variable, DW_AT_name("status")
     566                      .dwattr $C$DW$89, DW_AT_TI_symbol_name("_status")
     567                      .dwattr $C$DW$89, DW_AT_location[DW_OP_addr _status]
     568                      .dwattr $C$DW$89, DW_AT_type(*$C$DW$T$80)
     569                      .dwattr $C$DW$89, DW_AT_external
     570                      .global _pContext
     571 000076               .bss    _pContext,2,0,2
     572              $C$DW$90        .dwtag  DW_TAG_variable, DW_AT_name("pContext")
     573                      .dwattr $C$DW$90, DW_AT_TI_symbol_name("_pContext")
     574                      .dwattr $C$DW$90, DW_AT_location[DW_OP_addr _pContext]
     575                      .dwattr $C$DW$90, DW_AT_type(*$C$DW$T$146)
     576                      .dwattr $C$DW$90, DW_AT_external
     577                      .global _usbDataBuffer
     578 000078               .bss    _usbDataBuffer,256,0,0
     579              $C$DW$91        .dwtag  DW_TAG_variable, DW_AT_name("usbDataBuffer")
     580                      .dwattr $C$DW$91, DW_AT_TI_symbol_name("_usbDataBuffer")
     581                      .dwattr $C$DW$91, DW_AT_location[DW_OP_addr _usbDataBuffer]
     582                      .dwattr $C$DW$91, DW_AT_type(*$C$DW$T$199)
     583                      .dwattr $C$DW$91, DW_AT_external
     584                      .global _deviceDescPtr
     585 000178               .bss    _deviceDescPtr,2,0,2
     586              $C$DW$92        .dwtag  DW_TAG_variable, DW_AT_name("deviceDescPtr")
     587                      .dwattr $C$DW$92, DW_AT_TI_symbol_name("_deviceDescPtr")
     588                      .dwattr $C$DW$92, DW_AT_location[DW_OP_addr _deviceDescPtr]
     589                      .dwattr $C$DW$92, DW_AT_type(*$C$DW$T$102)
     590                      .dwattr $C$DW$92, DW_AT_external
     591                      .global _cfgDescPtr
     592 00017a               .bss    _cfgDescPtr,2,0,2
     593              $C$DW$93        .dwtag  DW_TAG_variable, DW_AT_name("cfgDescPtr")
     594                      .dwattr $C$DW$93, DW_AT_TI_symbol_name("_cfgDescPtr")
TMS320C55x Assembler PC v4.4.1 Sat Sep 29 23:08:36 2018

Tools Copyright (c) 1996-2012 Texas Instruments Incorporated
csl_usb_intc_example.asm                                             PAGE   12

     595                      .dwattr $C$DW$93, DW_AT_location[DW_OP_addr _cfgDescPtr]
     596                      .dwattr $C$DW$93, DW_AT_type(*$C$DW$T$102)
     597                      .dwattr $C$DW$93, DW_AT_external
     598                      .global _strDescPtr
     599 00017c               .bss    _strDescPtr,2,0,2
     600              $C$DW$94        .dwtag  DW_TAG_variable, DW_AT_name("strDescPtr")
     601                      .dwattr $C$DW$94, DW_AT_TI_symbol_name("_strDescPtr")
     602                      .dwattr $C$DW$94, DW_AT_location[DW_OP_addr _strDescPtr]
     603                      .dwattr $C$DW$94, DW_AT_type(*$C$DW$T$102)
     604                      .dwattr $C$DW$94, DW_AT_external
     605                      .global _bytesRem
     606 00017e               .bss    _bytesRem,1,0,0
     607              $C$DW$95        .dwtag  DW_TAG_variable, DW_AT_name("bytesRem")
     608                      .dwattr $C$DW$95, DW_AT_TI_symbol_name("_bytesRem")
     609                      .dwattr $C$DW$95, DW_AT_location[DW_OP_addr _bytesRem]
     610                      .dwattr $C$DW$95, DW_AT_type(*$C$DW$T$19)
     611                      .dwattr $C$DW$95, DW_AT_external
     612                      .global _devAddr
     613 00017f               .bss    _devAddr,1,0,0
     614              $C$DW$96        .dwtag  DW_TAG_variable, DW_AT_name("devAddr")
     615                      .dwattr $C$DW$96, DW_AT_TI_symbol_name("_devAddr")
     616                      .dwattr $C$DW$96, DW_AT_location[DW_OP_addr _devAddr]
     617                      .dwattr $C$DW$96, DW_AT_type(*$C$DW$T$19)
     618                      .dwattr $C$DW$96, DW_AT_external
     619                      .global _saveIndex
     620 000180               .bss    _saveIndex,1,0,0
     621              $C$DW$97        .dwtag  DW_TAG_variable, DW_AT_name("saveIndex")
     622                      .dwattr $C$DW$97, DW_AT_TI_symbol_name("_saveIndex")
     623                      .dwattr $C$DW$97, DW_AT_location[DW_OP_addr _saveIndex]
     624                      .dwattr $C$DW$97, DW_AT_type(*$C$DW$T$19)
     625                      .dwattr $C$DW$97, DW_AT_external
     626                      .global _endpt
     627 000181               .bss    _endpt,1,0,0
     628              $C$DW$98        .dwtag  DW_TAG_variable, DW_AT_name("endpt")
     629                      .dwattr $C$DW$98, DW_AT_TI_symbol_name("_endpt")
     630                      .dwattr $C$DW$98, DW_AT_location[DW_OP_addr _endpt]
     631                      .dwattr $C$DW$98, DW_AT_type(*$C$DW$T$19)
     632                      .dwattr $C$DW$98, DW_AT_external
     633                      .global _stopRunning
     634 000182               .bss    _stopRunning,1,0,0
     635              $C$DW$99        .dwtag  DW_TAG_variable, DW_AT_name("stopRunning")
     636                      .dwattr $C$DW$99, DW_AT_TI_symbol_name("_stopRunning")
     637                      .dwattr $C$DW$99, DW_AT_location[DW_OP_addr _stopRunning]
     638                      .dwattr $C$DW$99, DW_AT_type(*$C$DW$T$206)
     639                      .dwattr $C$DW$99, DW_AT_external
     640                      .global _usbDevDisconnect
     641 000183               .bss    _usbDevDisconnect,1,0,0
     642              $C$DW$100       .dwtag  DW_TAG_variable, DW_AT_name("usbDevDisconnect")
     643                      .dwattr $C$DW$100, DW_AT_TI_symbol_name("_usbDevDisconnect")
     644                      .dwattr $C$DW$100, DW_AT_location[DW_OP_addr _usbDevDisconnect]
     645                      .dwattr $C$DW$100, DW_AT_type(*$C$DW$T$86)
     646                      .dwattr $C$DW$100, DW_AT_external
     647                      .global _deviceDesc
     648 000184               .bss    _deviceDesc,9,0,0
     649              $C$DW$101       .dwtag  DW_TAG_variable, DW_AT_name("deviceDesc")
TMS320C55x Assembler PC v4.4.1 Sat Sep 29 23:08:36 2018

Tools Copyright (c) 1996-2012 Texas Instruments Incorporated
csl_usb_intc_example.asm                                             PAGE   13

     650                      .dwattr $C$DW$101, DW_AT_TI_symbol_name("_deviceDesc")
     651                      .dwattr $C$DW$101, DW_AT_location[DW_OP_addr _deviceDesc]
     652                      .dwattr $C$DW$101, DW_AT_type(*$C$DW$T$201)
     653                      .dwattr $C$DW$101, DW_AT_external
     654                      .global _cfgDesc
     655 00018d               .bss    _cfgDesc,40,0,0
     656              $C$DW$102       .dwtag  DW_TAG_variable, DW_AT_name("cfgDesc")
     657                      .dwattr $C$DW$102, DW_AT_TI_symbol_name("_cfgDesc")
     658                      .dwattr $C$DW$102, DW_AT_location[DW_OP_addr _cfgDesc]
     659                      .dwattr $C$DW$102, DW_AT_type(*$C$DW$T$202)
     660                      .dwattr $C$DW$102, DW_AT_external
     661                      .global _strDesc
     662 0001b5               .bss    _strDesc,80,0,0
     663              $C$DW$103       .dwtag  DW_TAG_variable, DW_AT_name("strDesc")
     664                      .dwattr $C$DW$103, DW_AT_TI_symbol_name("_strDesc")
     665                      .dwattr $C$DW$103, DW_AT_location[DW_OP_addr _strDesc]
     666                      .dwattr $C$DW$103, DW_AT_type(*$C$DW$T$204)
     667                      .dwattr $C$DW$103, DW_AT_external
     668                      .global _PaSs_StAtE
     669 000205               .bss    _PaSs_StAtE,1,0,0
     670              $C$DW$104       .dwtag  DW_TAG_variable, DW_AT_name("PaSs_StAtE")
     671                      .dwattr $C$DW$104, DW_AT_TI_symbol_name("_PaSs_StAtE")
     672                      .dwattr $C$DW$104, DW_AT_location[DW_OP_addr _PaSs_StAtE]
     673                      .dwattr $C$DW$104, DW_AT_type(*$C$DW$T$190)
     674                      .dwattr $C$DW$104, DW_AT_external
     675                      .global _PaSs
     676 000206               .bss    _PaSs,1,0,0
     677              $C$DW$105       .dwtag  DW_TAG_variable, DW_AT_name("PaSs")
     678                      .dwattr $C$DW$105, DW_AT_TI_symbol_name("_PaSs")
     679                      .dwattr $C$DW$105, DW_AT_location[DW_OP_addr _PaSs]
     680                      .dwattr $C$DW$105, DW_AT_type(*$C$DW$T$190)
     681                      .dwattr $C$DW$105, DW_AT_external
     682                      .global _usb_income_num_bytes
     683 000207               .bss    _usb_income_num_bytes,1,0,0
     684              $C$DW$106       .dwtag  DW_TAG_variable, DW_AT_name("usb_income_num_bytes")
     685                      .dwattr $C$DW$106, DW_AT_TI_symbol_name("_usb_income_num_bytes")
     686                      .dwattr $C$DW$106, DW_AT_location[DW_OP_addr _usb_income_num_bytes]
     687                      .dwattr $C$DW$106, DW_AT_type(*$C$DW$T$19)
     688                      .dwattr $C$DW$106, DW_AT_external
     689              ;       F:\t\cc5p5\ccsv5\tools\compiler\c5500_4.4.1\bin\acp55.exe -@f:\\AppData\\Local\\Temp\\2685612 
     690 000000               .sect   ".text"
     691                      .align 4
     692              
     693              $C$DW$107       .dwtag  DW_TAG_subprogram, DW_AT_name("USB_dmaRxStart")
     694                      .dwattr $C$DW$107, DW_AT_low_pc(_USB_dmaRxStart)
     695                      .dwattr $C$DW$107, DW_AT_high_pc(0x00)
     696                      .dwattr $C$DW$107, DW_AT_TI_symbol_name("_USB_dmaRxStart")
     697                      .dwattr $C$DW$107, DW_AT_TI_begin_file("F:/eZdsp_DBG/tmp1/c55x-sim2/foo/c5535_bsl_revc/ezdsp5535_v1/c
     698                      .dwattr $C$DW$107, DW_AT_TI_begin_line(0x180)
     699                      .dwattr $C$DW$107, DW_AT_TI_begin_column(0x06)
     700                      .dwattr $C$DW$107, DW_AT_TI_max_frame_size(0x04)
     701                      .dwpsn  file "F:/eZdsp_DBG/tmp1/c55x-sim2/foo/c5535_bsl_revc/ezdsp5535_v1/c55xx_csl/inc/csl_usbAux.h"
     702              
     703                      .dwfde $C$DW$CIE, _USB_dmaRxStart
     704              $C$DW$108       .dwtag  DW_TAG_formal_parameter, DW_AT_name("dwEndpoint")
TMS320C55x Assembler PC v4.4.1 Sat Sep 29 23:08:36 2018

Tools Copyright (c) 1996-2012 Texas Instruments Incorporated
csl_usb_intc_example.asm                                             PAGE   14

     705                      .dwattr $C$DW$108, DW_AT_TI_symbol_name("_dwEndpoint")
     706                      .dwattr $C$DW$108, DW_AT_type(*$C$DW$T$88)
     707                      .dwattr $C$DW$108, DW_AT_location[DW_OP_reg0]
     708              ;*******************************************************************************
     709              ;* FUNCTION NAME: USB_dmaRxStart                                               *
     710              ;*                                                                             *
     711              ;*   Function Uses Regs : AC0,AC0,T0,AR1,AR3,SP,M40,SATA,SATD,RDM,FRCT,SMUL    *
     712              ;*   Stack Frame        : Compact (No Frame Pointer, w/ debug)                 *
     713              ;*   Total Frame Size   : 4 words                                              *
     714              ;*                        (1 return address/alignment)                         *
     715              ;*                        (3 local values)                                     *
     716              ;*   Min System Stack   : 1 word                                               *
     717              ;*******************************************************************************
     718 000000       _USB_dmaRxStart:
     719                      .dwcfi  cfa_offset, 1
     720                      .dwcfi  save_reg_to_mem, 91, -1
     721 000000 4EFD          AADD #-3, SP
     722                      .dwcfi  cfa_offset, 4
     723              $C$DW$109       .dwtag  DW_TAG_variable, DW_AT_name("dwEndpoint")
     724                      .dwattr $C$DW$109, DW_AT_TI_symbol_name("_dwEndpoint")
     725                      .dwattr $C$DW$109, DW_AT_type(*$C$DW$T$88)
     726                      .dwattr $C$DW$109, DW_AT_location[DW_OP_bregx 0x24 0]
     727              $C$DW$110       .dwtag  DW_TAG_variable, DW_AT_name("saveIndex")
     728                      .dwattr $C$DW$110, DW_AT_TI_symbol_name("_saveIndex")
     729                      .dwattr $C$DW$110, DW_AT_type(*$C$DW$T$19)
     730                      .dwattr $C$DW$110, DW_AT_location[DW_OP_bregx 0x24 2]
     731 000002 EB00          MOV AC0, dbl(*SP(#0)) ; |385| 
         000004 08   
     732                      .dwpsn  file "F:/eZdsp_DBG/tmp1/c55x-sim2/foo/c5535_bsl_revc/ezdsp5535_v1/c55xx_csl/inc/csl_usbAux.h"
     733 000005 7604          MOV #1038, T0 ; |389| 
         000007 0E48 
     734 000009 AB31          MOV *(#_usbRegisters), AR3 ; |389| 
         00000b 0000 
         00000d 00!  
     735 00000e A96B          MOV port(*AR3(T0)), AR1 ; |389| 
         000010 99   
     736 000011 C904          MOV AR1, *SP(#2) ; |389| 
     737                      .dwpsn  file "F:/eZdsp_DBG/tmp1/c55x-sim2/foo/c5535_bsl_revc/ezdsp5535_v1/c55xx_csl/inc/csl_usbAux.h"
     738 000013 F46B          AND #0xfff0, port(*AR3(T0)) ; |392| 
         000015 FFF0 
         000017 9A   
     739                      .dwpsn  file "F:/eZdsp_DBG/tmp1/c55x-sim2/foo/c5535_bsl_revc/ezdsp5535_v1/c55xx_csl/inc/csl_usbAux.h"
     740 000018 AB31          MOV *(#_usbRegisters), AR3 ; |393| 
         00001a 0000 
         00001c 00!  
     741 00001d ED00          MOV dbl(*SP(#0)), AC0 ; |393| 
         00001f 08   
     742 000020 DA6B          OR port(*AR3(T0)), AC0, AC0 ; |393| 
         000022 00   
         000023 99   
     743 000024 C06B          MOV AC0, port(*AR3(T0)) ; |393| 
         000026 9A   
     744                      .dwpsn  file "F:/eZdsp_DBG/tmp1/c55x-sim2/foo/c5535_bsl_revc/ezdsp5535_v1/c55xx_csl/inc/csl_usbAux.h"
     745 000027 7604          MOV #1046, T0 ; |396| 
         000029 1648 
TMS320C55x Assembler PC v4.4.1 Sat Sep 29 23:08:36 2018

Tools Copyright (c) 1996-2012 Texas Instruments Incorporated
csl_usb_intc_example.asm                                             PAGE   15

     746 00002b AB31          MOV *(#_usbRegisters), AR3 ; |396| 
         00002d 0000 
         00002f 00!  
     747 000030 F46B          AND #0x6fff, port(*AR3(T0)) ; |396| 
         000032 6FFF 
         000034 9A   
     748                      .dwpsn  file "F:/eZdsp_DBG/tmp1/c55x-sim2/foo/c5535_bsl_revc/ezdsp5535_v1/c55xx_csl/inc/csl_usbAux.h"
     749 000035 AB31          MOV *(#_usbRegisters), AR3 ; |399| 
         000037 0000 
         000039 00!  
     750 00003a F56B          OR #0x2000, port(*AR3(T0)) ; |399| 
         00003c 2000 
         00003e 9A   
     751                      .dwpsn  file "F:/eZdsp_DBG/tmp1/c55x-sim2/foo/c5535_bsl_revc/ezdsp5535_v1/c55xx_csl/inc/csl_usbAux.h"
     752 00003f 7604          MOV #1038, T0 ; |402| 
         000041 0E48 
     753 000043 AB31          MOV *(#_usbRegisters), AR3 ; |402| 
         000045 0000 
         000047 00!  
     754 000048 A904          MOV *SP(#2), AR1 ; |402| 
     755 00004a C96B          MOV AR1, port(*AR3(T0)) ; |402| 
         00004c 9A   
     756                      .dwpsn  file "F:/eZdsp_DBG/tmp1/c55x-sim2/foo/c5535_bsl_revc/ezdsp5535_v1/c55xx_csl/inc/csl_usbAux.h"
     757 00004d 4E03          AADD #3, SP
     758                      .dwcfi  cfa_offset, 1
     759              $C$DW$111       .dwtag  DW_TAG_TI_branch
     760                      .dwattr $C$DW$111, DW_AT_low_pc(0x00)
     761                      .dwattr $C$DW$111, DW_AT_TI_return
     762 00004f 4804          RET
     763                                                      ; return occurs
     764                      .dwattr $C$DW$107, DW_AT_TI_end_file("F:/eZdsp_DBG/tmp1/c55x-sim2/foo/c5535_bsl_revc/ezdsp5535_v1/c55
     765                      .dwattr $C$DW$107, DW_AT_TI_end_line(0x193)
     766                      .dwattr $C$DW$107, DW_AT_TI_end_column(0x01)
     767                      .dwendentry
     768                      .dwendtag $C$DW$107
     769              
     770 000051               .sect   ".text"
     771                      .align 4
     772              
     773              $C$DW$112       .dwtag  DW_TAG_subprogram, DW_AT_name("USB_dmaTxStart")
     774                      .dwattr $C$DW$112, DW_AT_low_pc(_USB_dmaTxStart)
     775                      .dwattr $C$DW$112, DW_AT_high_pc(0x00)
     776                      .dwattr $C$DW$112, DW_AT_TI_symbol_name("_USB_dmaTxStart")
     777                      .dwattr $C$DW$112, DW_AT_TI_begin_file("F:/eZdsp_DBG/tmp1/c55x-sim2/foo/c5535_bsl_revc/ezdsp5535_v1/c
     778                      .dwattr $C$DW$112, DW_AT_TI_begin_line(0x2da)
     779                      .dwattr $C$DW$112, DW_AT_TI_begin_column(0x06)
     780                      .dwattr $C$DW$112, DW_AT_TI_max_frame_size(0x04)
     781                      .dwpsn  file "F:/eZdsp_DBG/tmp1/c55x-sim2/foo/c5535_bsl_revc/ezdsp5535_v1/c55xx_csl/inc/csl_usbAux.h"
     782              
     783                      .dwfde $C$DW$CIE, _USB_dmaTxStart
     784              $C$DW$113       .dwtag  DW_TAG_formal_parameter, DW_AT_name("dwEndpoint")
     785                      .dwattr $C$DW$113, DW_AT_TI_symbol_name("_dwEndpoint")
     786                      .dwattr $C$DW$113, DW_AT_type(*$C$DW$T$88)
     787                      .dwattr $C$DW$113, DW_AT_location[DW_OP_reg0]
     788              ;*******************************************************************************
TMS320C55x Assembler PC v4.4.1 Sat Sep 29 23:08:36 2018

Tools Copyright (c) 1996-2012 Texas Instruments Incorporated
csl_usb_intc_example.asm                                             PAGE   16

     789              ;* FUNCTION NAME: USB_dmaTxStart                                               *
     790              ;*                                                                             *
     791              ;*   Function Uses Regs : AC0,AC0,T0,AR1,AR3,SP,M40,SATA,SATD,RDM,FRCT,SMUL    *
     792              ;*   Stack Frame        : Compact (No Frame Pointer, w/ debug)                 *
     793              ;*   Total Frame Size   : 4 words                                              *
     794              ;*                        (1 return address/alignment)                         *
     795              ;*                        (3 local values)                                     *
     796              ;*   Min System Stack   : 1 word                                               *
     797              ;*******************************************************************************
     798 000054       _USB_dmaTxStart:
     799                      .dwcfi  cfa_offset, 1
     800                      .dwcfi  save_reg_to_mem, 91, -1
     801 000054 4EFD          AADD #-3, SP
     802                      .dwcfi  cfa_offset, 4
     803              $C$DW$114       .dwtag  DW_TAG_variable, DW_AT_name("dwEndpoint")
     804                      .dwattr $C$DW$114, DW_AT_TI_symbol_name("_dwEndpoint")
     805                      .dwattr $C$DW$114, DW_AT_type(*$C$DW$T$88)
     806                      .dwattr $C$DW$114, DW_AT_location[DW_OP_bregx 0x24 0]
     807              $C$DW$115       .dwtag  DW_TAG_variable, DW_AT_name("saveIndex")
     808                      .dwattr $C$DW$115, DW_AT_TI_symbol_name("_saveIndex")
     809                      .dwattr $C$DW$115, DW_AT_type(*$C$DW$T$19)
     810                      .dwattr $C$DW$115, DW_AT_location[DW_OP_bregx 0x24 2]
     811 000056 EB00          MOV AC0, dbl(*SP(#0)) ; |731| 
         000058 08   
     812                      .dwpsn  file "F:/eZdsp_DBG/tmp1/c55x-sim2/foo/c5535_bsl_revc/ezdsp5535_v1/c55xx_csl/inc/csl_usbAux.h"
     813 000059 7604          MOV #1038, T0 ; |735| 
         00005b 0E48 
     814 00005d AB31          MOV *(#_usbRegisters), AR3 ; |735| 
         00005f 0000 
         000061 00!  
     815 000062 A96B          MOV port(*AR3(T0)), AR1 ; |735| 
         000064 99   
     816 000065 C904          MOV AR1, *SP(#2) ; |735| 
     817                      .dwpsn  file "F:/eZdsp_DBG/tmp1/c55x-sim2/foo/c5535_bsl_revc/ezdsp5535_v1/c55xx_csl/inc/csl_usbAux.h"
     818 000067 F46B          AND #0xfff0, port(*AR3(T0)) ; |738| 
         000069 FFF0 
         00006b 9A   
     819                      .dwpsn  file "F:/eZdsp_DBG/tmp1/c55x-sim2/foo/c5535_bsl_revc/ezdsp5535_v1/c55xx_csl/inc/csl_usbAux.h"
     820 00006c AB31          MOV *(#_usbRegisters), AR3 ; |739| 
         00006e 0000 
         000070 00!  
     821 000071 ED00          MOV dbl(*SP(#0)), AC0 ; |739| 
         000073 08   
     822 000074 DA6B          OR port(*AR3(T0)), AC0, AC0 ; |739| 
         000076 00   
         000077 99   
     823 000078 C06B          MOV AC0, port(*AR3(T0)) ; |739| 
         00007a 9A   
     824                      .dwpsn  file "F:/eZdsp_DBG/tmp1/c55x-sim2/foo/c5535_bsl_revc/ezdsp5535_v1/c55xx_csl/inc/csl_usbAux.h"
     825 00007b 7604          MOV #1042, T0 ; |742| 
         00007d 1248 
     826 00007f AB31          MOV *(#_usbRegisters), AR3 ; |742| 
         000081 0000 
         000083 00!  
     827 000084 A96B          MOV port(*AR3(T0)), AR1 ; |742| 
TMS320C55x Assembler PC v4.4.1 Sat Sep 29 23:08:36 2018

Tools Copyright (c) 1996-2012 Texas Instruments Incorporated
csl_usb_intc_example.asm                                             PAGE   17

         000086 99   
     828 000087 EC06          BCLR @#3, AR1 ; |742| 
         000089 92   
     829 00008a EC06          BSET @#3, AR1 ; |742| 
         00008c 90   
     830 00008d C96B          MOV AR1, port(*AR3(T0)) ; |742| 
         00008f 9A   
     831                      .dwpsn  file "F:/eZdsp_DBG/tmp1/c55x-sim2/foo/c5535_bsl_revc/ezdsp5535_v1/c55xx_csl/inc/csl_usbAux.h"
     832 000090 AB31          MOV *(#_usbRegisters), AR3 ; |745| 
         000092 0000 
         000094 00!  
     833 000095 F46B          AND #0x7fff, port(*AR3(T0)) ; |745| 
         000097 7FFF 
         000099 9A   
     834                      .dwpsn  file "F:/eZdsp_DBG/tmp1/c55x-sim2/foo/c5535_bsl_revc/ezdsp5535_v1/c55xx_csl/inc/csl_usbAux.h"
     835 00009a AB31          MOV *(#_usbRegisters), AR3 ; |746| 
         00009c 0000 
         00009e 00!  
     836 00009f F56B          OR #0x1000, port(*AR3(T0)) ; |746| 
         0000a1 1000 
         0000a3 9A   
     837                      .dwpsn  file "F:/eZdsp_DBG/tmp1/c55x-sim2/foo/c5535_bsl_revc/ezdsp5535_v1/c55xx_csl/inc/csl_usbAux.h"
     838 0000a4 AB31          MOV *(#_usbRegisters), AR3 ; |749| 
         0000a6 0000 
         0000a8 00!  
     839 0000a9 F56B          OR #0x1000, port(*AR3(T0)) ; |749| 
         0000ab 1000 
         0000ad 9A   
     840                      .dwpsn  file "F:/eZdsp_DBG/tmp1/c55x-sim2/foo/c5535_bsl_revc/ezdsp5535_v1/c55xx_csl/inc/csl_usbAux.h"
     841 0000ae 7604          MOV #1038, T0 ; |752| 
         0000b0 0E48 
     842 0000b2 AB31          MOV *(#_usbRegisters), AR3 ; |752| 
         0000b4 0000 
         0000b6 00!  
     843 0000b7 A904          MOV *SP(#2), AR1 ; |752| 
     844 0000b9 C96B          MOV AR1, port(*AR3(T0)) ; |752| 
         0000bb 9A   
     845                      .dwpsn  file "F:/eZdsp_DBG/tmp1/c55x-sim2/foo/c5535_bsl_revc/ezdsp5535_v1/c55xx_csl/inc/csl_usbAux.h"
     846 0000bc 4E03          AADD #3, SP
     847                      .dwcfi  cfa_offset, 1
     848              $C$DW$116       .dwtag  DW_TAG_TI_branch
     849                      .dwattr $C$DW$116, DW_AT_low_pc(0x00)
     850                      .dwattr $C$DW$116, DW_AT_TI_return
     851 0000be 4804          RET
     852                                                      ; return occurs
     853                      .dwattr $C$DW$112, DW_AT_TI_end_file("F:/eZdsp_DBG/tmp1/c55x-sim2/foo/c5535_bsl_revc/ezdsp5535_v1/c55
     854                      .dwattr $C$DW$112, DW_AT_TI_end_line(0x2f1)
     855                      .dwattr $C$DW$112, DW_AT_TI_end_column(0x01)
     856                      .dwendentry
     857                      .dwendtag $C$DW$112
     858              
     859 0000c0               .sect   ".text"
     860                      .align 4
     861              
     862              $C$DW$117       .dwtag  DW_TAG_subprogram, DW_AT_name("USB_processEP0Out")
TMS320C55x Assembler PC v4.4.1 Sat Sep 29 23:08:36 2018

Tools Copyright (c) 1996-2012 Texas Instruments Incorporated
csl_usb_intc_example.asm                                             PAGE   18

     863                      .dwattr $C$DW$117, DW_AT_low_pc(_USB_processEP0Out)
     864                      .dwattr $C$DW$117, DW_AT_high_pc(0x00)
     865                      .dwattr $C$DW$117, DW_AT_TI_symbol_name("_USB_processEP0Out")
     866                      .dwattr $C$DW$117, DW_AT_type(*$C$DW$T$80)
     867                      .dwattr $C$DW$117, DW_AT_TI_begin_file("F:/eZdsp_DBG/tmp1/c55x-sim2/foo/c5535_bsl_revc/ezdsp5535_v1/c
     868                      .dwattr $C$DW$117, DW_AT_TI_begin_line(0x511)
     869                      .dwattr $C$DW$117, DW_AT_TI_begin_column(0x0c)
     870                      .dwattr $C$DW$117, DW_AT_TI_max_frame_size(0x0a)
     871                      .dwpsn  file "F:/eZdsp_DBG/tmp1/c55x-sim2/foo/c5535_bsl_revc/ezdsp5535_v1/c55xx_csl/inc/csl_usbAux.h"
     872              
     873                      .dwfde $C$DW$CIE, _USB_processEP0Out
     874              $C$DW$118       .dwtag  DW_TAG_formal_parameter, DW_AT_name("pContext")
     875                      .dwattr $C$DW$118, DW_AT_TI_symbol_name("_pContext")
     876                      .dwattr $C$DW$118, DW_AT_type(*$C$DW$T$146)
     877                      .dwattr $C$DW$118, DW_AT_location[DW_OP_reg17]
     878              ;*******************************************************************************
     879              ;* FUNCTION NAME: USB_processEP0Out                                            *
     880              ;*                                                                             *
     881              ;*   Function Uses Regs : AC0,AC0,AC1,AC1,T0,AR0,XAR0,AR1,XAR1,AR2,XAR2,AR3,   *
     882              ;*                        XAR3,SP,CARRY,TC1,M40,SATA,SATD,RDM,FRCT,SMUL        *
     883              ;*   Stack Frame        : Compact (No Frame Pointer, w/ debug)                 *
     884              ;*   Total Frame Size   : 10 words                                             *
     885              ;*                        (1 return address/alignment)                         *
     886              ;*                        (9 local values)                                     *
     887              ;*   Min System Stack   : 1 word                                               *
     888              ;*******************************************************************************
     889 0000c0       _USB_processEP0Out:
     890                      .dwcfi  cfa_offset, 1
     891                      .dwcfi  save_reg_to_mem, 91, -1
     892 0000c0 4EF7          AADD #-9, SP
     893                      .dwcfi  cfa_offset, 10
     894              $C$DW$119       .dwtag  DW_TAG_variable, DW_AT_name("pContext")
     895                      .dwattr $C$DW$119, DW_AT_TI_symbol_name("_pContext")
     896                      .dwattr $C$DW$119, DW_AT_type(*$C$DW$T$146)
     897                      .dwattr $C$DW$119, DW_AT_location[DW_OP_bregx 0x24 0]
     898              $C$DW$120       .dwtag  DW_TAG_variable, DW_AT_name("peps")
     899                      .dwattr $C$DW$120, DW_AT_TI_symbol_name("_peps")
     900                      .dwattr $C$DW$120, DW_AT_type(*$C$DW$T$150)
     901                      .dwattr $C$DW$120, DW_AT_location[DW_OP_bregx 0x24 2]
     902              $C$DW$121       .dwtag  DW_TAG_variable, DW_AT_name("pTransfer")
     903                      .dwattr $C$DW$121, DW_AT_TI_symbol_name("_pTransfer")
     904                      .dwattr $C$DW$121, DW_AT_type(*$C$DW$T$152)
     905                      .dwattr $C$DW$121, DW_AT_location[DW_OP_bregx 0x24 4]
     906              $C$DW$122       .dwtag  DW_TAG_variable, DW_AT_name("pwBuffer")
     907                      .dwattr $C$DW$122, DW_AT_TI_symbol_name("_pwBuffer")
     908                      .dwattr $C$DW$122, DW_AT_type(*$C$DW$T$87)
     909                      .dwattr $C$DW$122, DW_AT_location[DW_OP_bregx 0x24 6]
     910              $C$DW$123       .dwtag  DW_TAG_variable, DW_AT_name("status")
     911                      .dwattr $C$DW$123, DW_AT_TI_symbol_name("_status")
     912                      .dwattr $C$DW$123, DW_AT_type(*$C$DW$T$80)
     913                      .dwattr $C$DW$123, DW_AT_location[DW_OP_bregx 0x24 8]
     914 0000c2 EB00          MOV XAR0, dbl(*SP(#0))
         0000c4 85   
     915                      .dwpsn  file "F:/eZdsp_DBG/tmp1/c55x-sim2/foo/c5535_bsl_revc/ezdsp5535_v1/c55xx_csl/inc/csl_usbAux.h"
     916 0000c5 E610          MOV #0, *SP(#8) ; |1304| 
TMS320C55x Assembler PC v4.4.1 Sat Sep 29 23:08:36 2018

Tools Copyright (c) 1996-2012 Texas Instruments Incorporated
csl_usb_intc_example.asm                                             PAGE   19

         0000c7 00   
     917                      .dwpsn  file "F:/eZdsp_DBG/tmp1/c55x-sim2/foo/c5535_bsl_revc/ezdsp5535_v1/c55xx_csl/inc/csl_usbAux.h"
     918 0000c8 ED00          MOV dbl(*SP(#0)), XAR3
         0000ca BF   
     919 0000cb 90B0          MOV XAR3, AC0
     920 0000cd 6D00          BCC $C$L4,AC0 == #0 ; |1306| 
         0000cf 00A9 
     921                                                      ; branchcc occurs ; |1306| 
     922                      .dwpsn  file "F:/eZdsp_DBG/tmp1/c55x-sim2/foo/c5535_bsl_revc/ezdsp5535_v1/c55xx_csl/inc/csl_usbAux.h"
     923 0000d1 ED6D          MOV dbl(*AR3(#98)), XAR3
         0000d3 BF00 
         0000d5 62   
     924 0000d6 EB04          MOV XAR3, dbl(*SP(#2))
         0000d8 B5   
     925                      .dwpsn  file "F:/eZdsp_DBG/tmp1/c55x-sim2/foo/c5535_bsl_revc/ezdsp5535_v1/c55xx_csl/inc/csl_usbAux.h"
     926 0000d9 ED6D          MOV dbl(*AR3(#10)), XAR3
         0000db BF00 
         0000dd 0A   
     927 0000de EB08          MOV XAR3, dbl(*SP(#4))
         0000e0 B5   
     928                      .dwpsn  file "F:/eZdsp_DBG/tmp1/c55x-sim2/foo/c5535_bsl_revc/ezdsp5535_v1/c55xx_csl/inc/csl_usbAux.h"
     929 0000e1 90B0          MOV XAR3, AC0
     930 0000e3 6D00          BCC $C$L3,AC0 == #0 ; |1311| 
         0000e5 008E 
     931                                                      ; branchcc occurs ; |1311| 
     932 0000e7 A96D          MOV *AR3(#12), AR1 ; |1311| 
         0000e9 000C 
     933 0000eb 6D19          BCC $C$L3,AR1 != #0 ; |1311| 
         0000ed 0086 
     934                                                      ; branchcc occurs ; |1311| 
     935                      .dwpsn  file "F:/eZdsp_DBG/tmp1/c55x-sim2/foo/c5535_bsl_revc/ezdsp5535_v1/c55xx_csl/inc/csl_usbAux.h"
     936 0000ef ED6D          MOV dbl(*AR3(#8)), AC0 ; |1314| 
         0000f1 0800 
         0000f3 08   
     937 0000f4 ED79          MOV dbl(*AR3(short(#4))), XAR3
         0000f6 BF   
     938 0000f7 5001          SFTL AC0, #-1 ; |1314| 
     939 0000f9 2209          MOV AC0, AR1 ; |1314| 
     940              
     941 0000fb 8E0C          MOV XAR3, dbl(*SP(#6))
         0000fd BB10 
         0000ff B590 
     942              ||      AADD AR1, AR3 ; |1314| 
     943              
     944                      .dwpsn  file "F:/eZdsp_DBG/tmp1/c55x-sim2/foo/c5535_bsl_revc/ezdsp5535_v1/c55xx_csl/inc/csl_usbAux.h"
     945 000101 ED08          MOV dbl(*SP(#4)), XAR3
         000103 BF   
     946 000104 ED7D          MOV dbl(*AR3(short(#6))), AC0 ; |1323| 
         000106 08   
     947 000107 ED00          MOV dbl(*SP(#0)), XAR3
         000109 BF   
     948 00010a DF6D          MOV uns(*AR3(#24)), AC1 ; |1323| 
         00010c 1500 
         00010e 18   
     949 00010f 1218          CMPU AC1 >= AC0, TC1 ; |1323| 
TMS320C55x Assembler PC v4.4.1 Sat Sep 29 23:08:36 2018

Tools Copyright (c) 1996-2012 Texas Instruments Incorporated
csl_usb_intc_example.asm                                             PAGE   20

         000111 04   
     950 000112 63E4          BCC $C$L1,TC1 ; |1323| 
     951                                                      ; branchcc occurs ; |1323| 
     952 000114 DF6D          MOV uns(*AR3(#24)), AC0 ; |1323| 
         000116 0500 
         000118 18   
     953 000119 4A06          B $C$L2   ; |1323| 
     954                                                      ; branch occurs ; |1323| 
     955 00011b       $C$L1:    
     956 00011b ED08          MOV dbl(*SP(#4)), XAR3
         00011d BF   
     957 00011e ED7D          MOV dbl(*AR3(short(#6))), AC0 ; |1323| 
         000120 08   
     958 000121       $C$L2:    
     959 000121 ED08          MOV dbl(*SP(#4)), XAR3
         000123 BF   
     960 000124 EB6D          MOV AC0, dbl(*AR3(#8)) ; |1323| 
         000126 0800 
         000128 08   
     961                      .dwpsn  file "F:/eZdsp_DBG/tmp1/c55x-sim2/foo/c5535_bsl_revc/ezdsp5535_v1/c55xx_csl/inc/csl_usbAux.h"
     962 000129 ED08          MOV dbl(*SP(#4)), XAR3
         00012b BF   
     963 00012c ED00          MOV dbl(*SP(#0)), XAR1
         00012e 9F   
     964 00012f ED0C          MOV dbl(*SP(#6)), XAR0
         000131 8F   
     965 000132 ED6D          MOV dbl(*AR3(#8)), AC0 ; |1326| 
         000134 0800 
         000136 08   
     966 000137 4010          ADD #1, AC0 ; |1326| 
     967              
     968 00013c 5101          SFTL AC0, #-1 ; |1326| 
     969 000139 141A  ||      AADD #26, AR1 ; |1326| 
         00013b 94   
     970              
     971              $C$DW$124       .dwtag  DW_TAG_TI_branch
     972                      .dwattr $C$DW$124, DW_AT_low_pc(0x00)
     973                      .dwattr $C$DW$124, DW_AT_name("_memcpy")
     974                      .dwattr $C$DW$124, DW_AT_TI_call
     975              
     976 00013e 6C00          CALL #_memcpy ; |1326| 
         000140 0000!
     977 000142 2304  ||      MOV AC0, T0 ; |1326| 
     978              
     979                                                      ; call occurs [#_memcpy] ; |1326| 
     980                      .dwpsn  file "F:/eZdsp_DBG/tmp1/c55x-sim2/foo/c5535_bsl_revc/ezdsp5535_v1/c55xx_csl/inc/csl_usbAux.h"
     981 000144 ED00          MOV dbl(*SP(#0)), XAR3
         000146 BF   
     982 000147 E679          MOV #0, *AR3(short(#4)) ; |1329| 
         000149 00   
     983                      .dwpsn  file "F:/eZdsp_DBG/tmp1/c55x-sim2/foo/c5535_bsl_revc/ezdsp5535_v1/c55xx_csl/inc/csl_usbAux.h"
     984 00014a ED08          MOV dbl(*SP(#4)), XAR3
         00014c BF   
     985 00014d E66D          MOV #1, *AR3(#12) ; |1330| 
         00014f 0100 
TMS320C55x Assembler PC v4.4.1 Sat Sep 29 23:08:36 2018

Tools Copyright (c) 1996-2012 Texas Instruments Incorporated
csl_usb_intc_example.asm                                             PAGE   21

         000151 0C   
     986                      .dwpsn  file "F:/eZdsp_DBG/tmp1/c55x-sim2/foo/c5535_bsl_revc/ezdsp5535_v1/c55xx_csl/inc/csl_usbAux.h"
     987 000152 ED08          MOV dbl(*SP(#4)), XAR2
         000154 AF   
     988 000155 ED08          MOV dbl(*SP(#4)), XAR3
         000157 BF   
     989              
     990 000158 1408          AADD #8, AR3 ; |1331| 
         00015a B4   
     991 00015b 150A  ||      AADD #10, AR2 ; |1331| 
         00015d AC   
     992              
     993 00015e 8061          MOV dbl(*AR3), dbl(*AR2) ; |1331| 
         000160 00   
     994                      .dwpsn  file "F:/eZdsp_DBG/tmp1/c55x-sim2/foo/c5535_bsl_revc/ezdsp5535_v1/c55xx_csl/inc/csl_usbAux.h"
     995 000161 ED00          MOV dbl(*SP(#0)), XAR3
         000163 BF   
     996 000164 ED00          MOV dbl(*SP(#0)), XAR0
         000166 8F   
     997 000167 ED04          MOV dbl(*SP(#2)), XAR1
         000169 9F   
     998 00016a ED6D          MOV dbl(*AR3(#116)), AC0 ; |1337| 
         00016c 0800 
         00016e 74   
     999              $C$DW$125       .dwtag  DW_TAG_TI_branch
    1000                      .dwattr $C$DW$125, DW_AT_low_pc(0x00)
    1001                      .dwattr $C$DW$125, DW_AT_TI_call
    1002                      .dwattr $C$DW$125, DW_AT_TI_indirect
    1003 00016f 9200          CALL AC0  ; |1337| 
    1004                                                      ; call occurs [AC0] ; |1337| 
    1005 000171 C410          MOV T0, *SP(#8) ; |1337| 
    1006                      .dwpsn  file "F:/eZdsp_DBG/tmp1/c55x-sim2/foo/c5535_bsl_revc/ezdsp5535_v1/c55xx_csl/inc/csl_usbAux.h"
    1007 000173 4A08          B $C$L5   ; |1338| 
    1008                                                      ; branch occurs ; |1338| 
    1009 000175       $C$L3:    
    1010                      .dwpsn  file "F:/eZdsp_DBG/tmp1/c55x-sim2/foo/c5535_bsl_revc/ezdsp5535_v1/c55xx_csl/inc/csl_usbAux.h"
    1011 000175 E610          MOV #-6, *SP(#8) ; |1341| 
         000177 FA   
    1012                      .dwpsn  file "F:/eZdsp_DBG/tmp1/c55x-sim2/foo/c5535_bsl_revc/ezdsp5535_v1/c55xx_csl/inc/csl_usbAux.h"
    1013 000178 4A03          B $C$L5   ; |1343| 
    1014                                                      ; branch occurs ; |1343| 
    1015 00017a       $C$L4:    
    1016                      .dwpsn  file "F:/eZdsp_DBG/tmp1/c55x-sim2/foo/c5535_bsl_revc/ezdsp5535_v1/c55xx_csl/inc/csl_usbAux.h"
    1017 00017a E610          MOV #-6, *SP(#8) ; |1346| 
         00017c FA   
    1018 00017d       $C$L5:    
    1019                      .dwpsn  file "F:/eZdsp_DBG/tmp1/c55x-sim2/foo/c5535_bsl_revc/ezdsp5535_v1/c55xx_csl/inc/csl_usbAux.h"
    1020 00017d A410          MOV *SP(#8), T0 ; |1348| 
    1021                      .dwpsn  file "F:/eZdsp_DBG/tmp1/c55x-sim2/foo/c5535_bsl_revc/ezdsp5535_v1/c55xx_csl/inc/csl_usbAux.h"
    1022 00017f 4E09          AADD #9, SP
    1023                      .dwcfi  cfa_offset, 1
    1024              $C$DW$126       .dwtag  DW_TAG_TI_branch
    1025                      .dwattr $C$DW$126, DW_AT_low_pc(0x00)
    1026                      .dwattr $C$DW$126, DW_AT_TI_return
    1027 000181 4804          RET
TMS320C55x Assembler PC v4.4.1 Sat Sep 29 23:08:36 2018

Tools Copyright (c) 1996-2012 Texas Instruments Incorporated
csl_usb_intc_example.asm                                             PAGE   22

    1028                                                      ; return occurs
    1029                      .dwattr $C$DW$117, DW_AT_TI_end_file("F:/eZdsp_DBG/tmp1/c55x-sim2/foo/c5535_bsl_revc/ezdsp5535_v1/c55
    1030                      .dwattr $C$DW$117, DW_AT_TI_end_line(0x545)
    1031                      .dwattr $C$DW$117, DW_AT_TI_end_column(0x01)
    1032                      .dwendentry
    1033                      .dwendtag $C$DW$117
    1034              
    1035 000183               .sect   ".text"
    1036                      .align 4
    1037              
    1038              $C$DW$127       .dwtag  DW_TAG_subprogram, DW_AT_name("USB_processEP0In")
    1039                      .dwattr $C$DW$127, DW_AT_low_pc(_USB_processEP0In)
    1040                      .dwattr $C$DW$127, DW_AT_high_pc(0x00)
    1041                      .dwattr $C$DW$127, DW_AT_TI_symbol_name("_USB_processEP0In")
    1042                      .dwattr $C$DW$127, DW_AT_type(*$C$DW$T$80)
    1043                      .dwattr $C$DW$127, DW_AT_TI_begin_file("F:/eZdsp_DBG/tmp1/c55x-sim2/foo/c5535_bsl_revc/ezdsp5535_v1/c
    1044                      .dwattr $C$DW$127, DW_AT_TI_begin_line(0x576)
    1045                      .dwattr $C$DW$127, DW_AT_TI_begin_column(0x0c)
    1046                      .dwattr $C$DW$127, DW_AT_TI_max_frame_size(0x12)
    1047                      .dwpsn  file "F:/eZdsp_DBG/tmp1/c55x-sim2/foo/c5535_bsl_revc/ezdsp5535_v1/c55xx_csl/inc/csl_usbAux.h"
    1048              
    1049                      .dwfde $C$DW$CIE, _USB_processEP0In
    1050              $C$DW$128       .dwtag  DW_TAG_formal_parameter, DW_AT_name("pContext")
    1051                      .dwattr $C$DW$128, DW_AT_TI_symbol_name("_pContext")
    1052                      .dwattr $C$DW$128, DW_AT_type(*$C$DW$T$146)
    1053                      .dwattr $C$DW$128, DW_AT_location[DW_OP_reg17]
    1054              ;*******************************************************************************
    1055              ;* FUNCTION NAME: USB_processEP0In                                             *
    1056              ;*                                                                             *
    1057              ;*   Function Uses Regs : AC0,AC0,AC1,AC1,T0,AR0,XAR0,AR1,XAR1,AR2,AR3,XAR3,   *
    1058              ;*                        AR4,SP,CARRY,TC1,M40,SATA,SATD,RDM,FRCT,SMUL         *
    1059              ;*   Stack Frame        : Compact (No Frame Pointer, w/ debug)                 *
    1060              ;*   Total Frame Size   : 18 words                                             *
    1061              ;*                        (2 return address/alignment)                         *
    1062              ;*                        (16 local values)                                    *
    1063              ;*   Min System Stack   : 1 word                                               *
    1064              ;*******************************************************************************
    1065 000184       _USB_processEP0In:
    1066                      .dwcfi  cfa_offset, 1
    1067                      .dwcfi  save_reg_to_mem, 91, -1
    1068 000184 4EEF          AADD #-17, SP
    1069                      .dwcfi  cfa_offset, 18
    1070              $C$DW$129       .dwtag  DW_TAG_variable, DW_AT_name("pContext")
    1071                      .dwattr $C$DW$129, DW_AT_TI_symbol_name("_pContext")
    1072                      .dwattr $C$DW$129, DW_AT_type(*$C$DW$T$146)
    1073                      .dwattr $C$DW$129, DW_AT_location[DW_OP_bregx 0x24 0]
    1074              $C$DW$130       .dwtag  DW_TAG_variable, DW_AT_name("peps")
    1075                      .dwattr $C$DW$130, DW_AT_TI_symbol_name("_peps")
    1076                      .dwattr $C$DW$130, DW_AT_type(*$C$DW$T$150)
    1077                      .dwattr $C$DW$130, DW_AT_location[DW_OP_bregx 0x24 2]
    1078              $C$DW$131       .dwtag  DW_TAG_variable, DW_AT_name("pTransfer")
    1079                      .dwattr $C$DW$131, DW_AT_TI_symbol_name("_pTransfer")
    1080                      .dwattr $C$DW$131, DW_AT_type(*$C$DW$T$152)
    1081                      .dwattr $C$DW$131, DW_AT_location[DW_OP_bregx 0x24 4]
    1082              $C$DW$132       .dwtag  DW_TAG_variable, DW_AT_name("status")
TMS320C55x Assembler PC v4.4.1 Sat Sep 29 23:08:36 2018

Tools Copyright (c) 1996-2012 Texas Instruments Incorporated
csl_usb_intc_example.asm                                             PAGE   23

    1083                      .dwattr $C$DW$132, DW_AT_TI_symbol_name("_status")
    1084                      .dwattr $C$DW$132, DW_AT_type(*$C$DW$T$80)
    1085                      .dwattr $C$DW$132, DW_AT_location[DW_OP_bregx 0x24 6]
    1086              $C$DW$133       .dwtag  DW_TAG_variable, DW_AT_name("pwBuffer")
    1087                      .dwattr $C$DW$133, DW_AT_TI_symbol_name("_pwBuffer")
    1088                      .dwattr $C$DW$133, DW_AT_type(*$C$DW$T$196)
    1089                      .dwattr $C$DW$133, DW_AT_location[DW_OP_bregx 0x24 8]
    1090              $C$DW$134       .dwtag  DW_TAG_variable, DW_AT_name("cbBuffer")
    1091                      .dwattr $C$DW$134, DW_AT_TI_symbol_name("_cbBuffer")
    1092                      .dwattr $C$DW$134, DW_AT_type(*$C$DW$T$88)
    1093                      .dwattr $C$DW$134, DW_AT_location[DW_OP_bregx 0x24 10]
    1094              $C$DW$135       .dwtag  DW_TAG_variable, DW_AT_name("cbToWrite")
    1095                      .dwattr $C$DW$135, DW_AT_TI_symbol_name("_cbToWrite")
    1096                      .dwattr $C$DW$135, DW_AT_type(*$C$DW$T$85)
    1097                      .dwattr $C$DW$135, DW_AT_location[DW_OP_bregx 0x24 12]
    1098              $C$DW$136       .dwtag  DW_TAG_variable, DW_AT_name("count")
    1099                      .dwattr $C$DW$136, DW_AT_TI_symbol_name("_count")
    1100                      .dwattr $C$DW$136, DW_AT_type(*$C$DW$T$19)
    1101                      .dwattr $C$DW$136, DW_AT_location[DW_OP_bregx 0x24 13]
    1102              $C$DW$137       .dwtag  DW_TAG_variable, DW_AT_name("flag")
    1103                      .dwattr $C$DW$137, DW_AT_TI_symbol_name("_flag")
    1104                      .dwattr $C$DW$137, DW_AT_type(*$C$DW$T$19)
    1105                      .dwattr $C$DW$137, DW_AT_location[DW_OP_bregx 0x24 14]
    1106              $C$DW$138       .dwtag  DW_TAG_variable, DW_AT_name("saveIndex")
    1107                      .dwattr $C$DW$138, DW_AT_TI_symbol_name("_saveIndex")
    1108                      .dwattr $C$DW$138, DW_AT_type(*$C$DW$T$19)
    1109                      .dwattr $C$DW$138, DW_AT_location[DW_OP_bregx 0x24 15]
    1110 000186 EB00          MOV XAR0, dbl(*SP(#0))
         000188 85   
    1111                      .dwpsn  file "F:/eZdsp_DBG/tmp1/c55x-sim2/foo/c5535_bsl_revc/ezdsp5535_v1/c55xx_csl/inc/csl_usbAux.h"
    1112 000189 E61C          MOV #0, *SP(#14) ; |1410| 
         00018b 00   
    1113                      .dwpsn  file "F:/eZdsp_DBG/tmp1/c55x-sim2/foo/c5535_bsl_revc/ezdsp5535_v1/c55xx_csl/inc/csl_usbAux.h"
    1114 00018c E60C          MOV #0, *SP(#6) ; |1411| 
         00018e 00   
    1115                      .dwpsn  file "F:/eZdsp_DBG/tmp1/c55x-sim2/foo/c5535_bsl_revc/ezdsp5535_v1/c55xx_csl/inc/csl_usbAux.h"
    1116 00018f ED00          MOV dbl(*SP(#0)), XAR3
         000191 BF   
    1117 000192 90B0          MOV XAR3, AC0
    1118 000194 6D00          BCC $C$L18,AC0 == #0 ; |1413| 
         000196 01BF 
    1119                                                      ; branchcc occurs ; |1413| 
    1120                      .dwpsn  file "F:/eZdsp_DBG/tmp1/c55x-sim2/foo/c5535_bsl_revc/ezdsp5535_v1/c55xx_csl/inc/csl_usbAux.h"
    1121 000198 ED6D          MOV dbl(*AR3(#98)), XAR3
         00019a BF00 
         00019c 62   
    1122 00019d EB04          MOV XAR3, dbl(*SP(#2))
         00019f B5   
    1123                      .dwpsn  file "F:/eZdsp_DBG/tmp1/c55x-sim2/foo/c5535_bsl_revc/ezdsp5535_v1/c55xx_csl/inc/csl_usbAux.h"
    1124 0001a0 ED6D          MOV dbl(*AR3(#10)), XAR3
         0001a2 BF00 
         0001a4 0A   
    1125 0001a5 EB08          MOV XAR3, dbl(*SP(#4))
         0001a7 B5   
    1126                      .dwpsn  file "F:/eZdsp_DBG/tmp1/c55x-sim2/foo/c5535_bsl_revc/ezdsp5535_v1/c55xx_csl/inc/csl_usbAux.h"
TMS320C55x Assembler PC v4.4.1 Sat Sep 29 23:08:36 2018

Tools Copyright (c) 1996-2012 Texas Instruments Incorporated
csl_usb_intc_example.asm                                             PAGE   24

    1127 0001a8 90B0          MOV XAR3, AC0
    1128 0001aa 6D00          BCC $C$L17,AC0 == #0 ; |1418| 
         0001ac 01A4 
    1129                                                      ; branchcc occurs ; |1418| 
    1130 0001ae A96D          MOV *AR3(#12), AR1 ; |1418| 
         0001b0 000C 
    1131 0001b2 6D19          BCC $C$L17,AR1 != #0 ; |1418| 
         0001b4 019C 
    1132                                                      ; branchcc occurs ; |1418| 
    1133                      .dwpsn  file "F:/eZdsp_DBG/tmp1/c55x-sim2/foo/c5535_bsl_revc/ezdsp5535_v1/c55xx_csl/inc/csl_usbAux.h"
    1134 0001b6 ED6D          MOV dbl(*AR3(#8)), AC0 ; |1421| 
         0001b8 0800 
         0001ba 08   
    1135 0001bb ED79          MOV dbl(*AR3(short(#4))), XAR3
         0001bd BF   
    1136 0001be 5001          SFTL AC0, #-1 ; |1421| 
    1137 0001c0 2209          MOV AC0, AR1 ; |1421| 
    1138              
    1139 0001c2 8E10          MOV XAR3, dbl(*SP(#8))
         0001c4 BB10 
         0001c6 B590 
    1140              ||      AADD AR1, AR3 ; |1421| 
    1141              
    1142                      .dwpsn  file "F:/eZdsp_DBG/tmp1/c55x-sim2/foo/c5535_bsl_revc/ezdsp5535_v1/c55xx_csl/inc/csl_usbAux.h"
    1143 0001c8 ED08          MOV dbl(*SP(#4)), XAR3
         0001ca BF   
    1144 0001cb ED6D          MOV dbl(*AR3(#8)), AC0 ; |1422| 
         0001cd 0800 
         0001cf 08   
    1145 0001d0 ED7D          SUB AC0, dbl(*AR3(short(#6))), AC0 ; |1422| 
         0001d2 04   
    1146 0001d3 EB14          MOV AC0, dbl(*SP(#10)) ; |1422| 
         0001d5 08   
    1147                      .dwpsn  file "F:/eZdsp_DBG/tmp1/c55x-sim2/foo/c5535_bsl_revc/ezdsp5535_v1/c55xx_csl/inc/csl_usbAux.h"
    1148 0001d6 ED04          MOV dbl(*SP(#2)), XAR3
         0001d8 BF   
    1149 0001d9 ED14          MOV dbl(*SP(#10)), AC1 ; |1430| 
         0001db 18   
    1150 0001dc ED79          MOV dbl(*AR3(short(#4))), AC0 ; |1430| 
         0001de 08   
    1151 0001df 1218          CMPU AC1 >= AC0, TC1 ; |1430| 
         0001e1 04   
    1152 0001e2 62E4          BCC $C$L6,TC1 ; |1430| 
    1153                                                      ; branchcc occurs ; |1430| 
    1154 0001e4 ED14          MOV dbl(*SP(#10)), AC0 ; |1430| 
         0001e6 08   
    1155 0001e7 4A03          B $C$L7   ; |1430| 
    1156                                                      ; branch occurs ; |1430| 
    1157 0001e9       $C$L6:    
    1158 0001e9 ED79          MOV dbl(*AR3(short(#4))), AC0 ; |1430| 
         0001eb 08   
    1159 0001ec       $C$L7:    
    1160 0001ec 7600          MOV #64, AR1 ; |1451| 
         0001ee 4098 
    1161              
TMS320C55x Assembler PC v4.4.1 Sat Sep 29 23:08:36 2018

Tools Copyright (c) 1996-2012 Texas Instruments Incorporated
csl_usb_intc_example.asm                                             PAGE   25

    1162 0001f0 C018          MOV AC0, *SP(#12) ; |1430| 
    1163 0001f2 3D1A  ||      MOV #1, AR2
    1164              
    1165                      .dwpsn  file "F:/eZdsp_DBG/tmp1/c55x-sim2/foo/c5535_bsl_revc/ezdsp5535_v1/c55xx_csl/inc/csl_usbAux.h"
    1166 0001f4       $C$L8:    
    1167 0001f4       $C$DW$L$_USB_processEP0In$8$B:
    1168                      .dwpsn  file "F:/eZdsp_DBG/tmp1/c55x-sim2/foo/c5535_bsl_revc/ezdsp5535_v1/c55xx_csl/inc/csl_usbAux.h"
    1169 0001f4 E61A          MOV #0, *SP(#13) ; |1435| 
         0001f6 00   
    1170                      .dwpsn  file "F:/eZdsp_DBG/tmp1/c55x-sim2/foo/c5535_bsl_revc/ezdsp5535_v1/c55xx_csl/inc/csl_usbAux.h"
    1171 0001f7 AB18          MOV *SP(#12), AR3 ; |1435| 
    1172              
    1173 0001fb 51B1          SFTL AR3, #-1 ; |1435| 
    1174 0001f9 AC1A  ||      MOV *SP(#13), AR4 ; |1435| 
    1175              
    1176 0001fd 12C8          CMPU AR4 >= AR3, TC1 ; |1435| 
         0001ff B4   
    1177 000200 0464          BCC $C$L10,TC1 ; |1435| 
         000202 29   
    1178                                                      ; branchcc occurs ; |1435| 
    1179 000203       $C$DW$L$_USB_processEP0In$8$E:
    1180 000203       $C$L9:    
    1181 000203       $C$DW$L$_USB_processEP0In$9$B:
    1182                      .dwpsn  file "F:/eZdsp_DBG/tmp1/c55x-sim2/foo/c5535_bsl_revc/ezdsp5535_v1/c55xx_csl/inc/csl_usbAux.h"
    1183 000203 ED10          MOV dbl(*SP(#8)), XAR3
         000205 BF   
    1184 000206 7604          MOV #1057, T0 ; |1437| 
         000208 2148 
    1185 00020a AC61          MOV *AR3, AR4 ; |1437| 
    1186 00020c AB31          MOV *(#_usbRegisters), AR3 ; |1437| 
         00020e 0000 
         000210 00!  
    1187 000211 CC6B          MOV AR4, port(*AR3(T0)) ; |1437| 
         000213 9A   
    1188                      .dwpsn  file "F:/eZdsp_DBG/tmp1/c55x-sim2/foo/c5535_bsl_revc/ezdsp5535_v1/c55xx_csl/inc/csl_usbAux.h"
    1189 000214 ED10          MOV dbl(*SP(#8)), XAR3
         000216 BF   
    1190 000217 B463          AMAR *AR3+
    1191 000219 EB10          MOV XAR3, dbl(*SP(#8))
         00021b B5   
    1192                      .dwpsn  file "F:/eZdsp_DBG/tmp1/c55x-sim2/foo/c5535_bsl_revc/ezdsp5535_v1/c55xx_csl/inc/csl_usbAux.h"
    1193 00021c F71A          ADD #1, *SP(#13) ; |1435| 
         00021e 0001 
    1194                      .dwpsn  file "F:/eZdsp_DBG/tmp1/c55x-sim2/foo/c5535_bsl_revc/ezdsp5535_v1/c55xx_csl/inc/csl_usbAux.h"
    1195 000220 AB18          MOV *SP(#12), AR3 ; |1435| 
    1196              
    1197 000224 51B1          SFTL AR3, #-1 ; |1435| 
    1198 000222 AC1A  ||      MOV *SP(#13), AR4 ; |1435| 
    1199              
    1200 000226 12C4          CMPU AR4 < AR3, TC1 ; |1435| 
         000228 B4   
    1201 000229 0464          BCC $C$L9,TC1 ; |1435| 
         00022b D7   
    1202                                                      ; branchcc occurs ; |1435| 
    1203 00022c       $C$DW$L$_USB_processEP0In$9$E:
TMS320C55x Assembler PC v4.4.1 Sat Sep 29 23:08:36 2018

Tools Copyright (c) 1996-2012 Texas Instruments Incorporated
csl_usb_intc_example.asm                                             PAGE   26

    1204 00022c       $C$L10:    
    1205 00022c       $C$DW$L$_USB_processEP0In$10$B:
    1206                      .dwpsn  file "F:/eZdsp_DBG/tmp1/c55x-sim2/foo/c5535_bsl_revc/ezdsp5535_v1/c55xx_csl/inc/csl_usbAux.h"
    1207 00022c AB18          MOV *SP(#12), AR3 ; |1441| 
    1208 00022e 1801          AND #0x0001, AR3, AR3 ; |1441| 
         000230 BB   
    1209 000231 12BC          CMPU AR3 != AR2, TC1 ; |1441| 
         000233 A4   
    1210 000234 0464          BCC $C$L11,TC1 ; |1441| 
         000236 44   
    1211                                                      ; branchcc occurs ; |1441| 
    1212 000237       $C$DW$L$_USB_processEP0In$10$E:
    1213 000237       $C$DW$L$_USB_processEP0In$11$B:
    1214                      .dwpsn  file "F:/eZdsp_DBG/tmp1/c55x-sim2/foo/c5535_bsl_revc/ezdsp5535_v1/c55xx_csl/inc/csl_usbAux.h"
    1215 000237 7600          MOV #50, T0 ; |1444| 
         000239 3248 
    1216 00023b AB31          MOV *(#_sysCtrlRegs), AR3 ; |1444| 
         00023d 0000 
         00023f 00!  
    1217 000240 AB6B          MOV port(*AR3(T0)), AR3 ; |1444| 
         000242 99   
    1218 000243 7DFF          AND #0xfffc, AR3, AC0 ; |1444| 
         000245 FC0B 
    1219 000247 AB31          MOV *(#_sysCtrlRegs), AR3 ; |1444| 
         000249 0000 
         00024b 00!  
    1220 00024c EC02          BSET @#1, AC0 ; |1444| 
         00024e 00   
    1221 00024f C06B          MOV AC0, port(*AR3(T0)) ; |1444| 
         000251 9A   
    1222                      .dwpsn  file "F:/eZdsp_DBG/tmp1/c55x-sim2/foo/c5535_bsl_revc/ezdsp5535_v1/c55xx_csl/inc/csl_usbAux.h"
    1223 000252 ED10          MOV dbl(*SP(#8)), XAR3
         000254 BF   
    1224 000255 7604          MOV #1057, T0 ; |1445| 
         000257 2148 
    1225 000259 AC61          MOV *AR3, AR4 ; |1445| 
    1226 00025b AB31          MOV *(#_usbRegisters), AR3 ; |1445| 
         00025d 0000 
         00025f 00!  
    1227 000260 CC6B          MOV AR4, port(*AR3(T0)) ; |1445| 
         000262 9A   
    1228                      .dwpsn  file "F:/eZdsp_DBG/tmp1/c55x-sim2/foo/c5535_bsl_revc/ezdsp5535_v1/c55xx_csl/inc/csl_usbAux.h"
    1229 000263 7600          MOV #50, T0 ; |1447| 
         000265 3248 
    1230 000267 AB31          MOV *(#_sysCtrlRegs), AR3 ; |1447| 
         000269 0000 
         00026b 00!  
    1231 00026c AB6B          MOV port(*AR3(T0)), AR3 ; |1447| 
         00026e 99   
    1232 00026f 7DFF          AND #0xfffc, AR3, AC0 ; |1447| 
         000271 FC0B 
    1233 000273 AB31          MOV *(#_sysCtrlRegs), AR3 ; |1447| 
         000275 0000 
         000277 00!  
    1234 000278 C06B          MOV AC0, port(*AR3(T0)) ; |1447| 
TMS320C55x Assembler PC v4.4.1 Sat Sep 29 23:08:36 2018

Tools Copyright (c) 1996-2012 Texas Instruments Incorporated
csl_usb_intc_example.asm                                             PAGE   27

         00027a 9A   
    1235 00027b       $C$DW$L$_USB_processEP0In$11$E:
    1236 00027b       $C$L11:    
    1237 00027b       $C$DW$L$_USB_processEP0In$12$B:
    1238                      .dwpsn  file "F:/eZdsp_DBG/tmp1/c55x-sim2/foo/c5535_bsl_revc/ezdsp5535_v1/c55xx_csl/inc/csl_usbAux.h"
    1239 00027b AB18          MOV *SP(#12), AR3 ; |1451| 
    1240 00027d 1294          CMPU AR3 > AR1, TC1 ; |1451| 
         00027f B4   
    1241 000280 6164          BCC $C$L12,TC1 ; |1451| 
    1242                                                      ; branchcc occurs ; |1451| 
    1243 000282       $C$DW$L$_USB_processEP0In$12$E:
    1244                      .dwpsn  file "F:/eZdsp_DBG/tmp1/c55x-sim2/foo/c5535_bsl_revc/ezdsp5535_v1/c55xx_csl/inc/csl_usbAux.h"
    1245 000282 4A07          B $C$L13  ; |1453| 
    1246                                                      ; branch occurs ; |1453| 
    1247 000284       $C$L12:    
    1248 000284       $C$DW$L$_USB_processEP0In$15$B:
    1249                      .dwpsn  file "F:/eZdsp_DBG/tmp1/c55x-sim2/foo/c5535_bsl_revc/ezdsp5535_v1/c55xx_csl/inc/csl_usbAux.h"
    1250 000284 F718          SUB #64, *SP(#12) ; |1457| 
         000286 FFC0 
    1251                      .dwpsn  file "F:/eZdsp_DBG/tmp1/c55x-sim2/foo/c5535_bsl_revc/ezdsp5535_v1/c55xx_csl/inc/csl_usbAux.h"
    1252 000288 06FF          B $C$L8   ; |1432| 
         00028a 69   
    1253                                                      ; branch occurs ; |1432| 
    1254 00028b       $C$DW$L$_USB_processEP0In$15$E:
    1255 00028b       $C$L13:    
    1256                      .dwpsn  file "F:/eZdsp_DBG/tmp1/c55x-sim2/foo/c5535_bsl_revc/ezdsp5535_v1/c55xx_csl/inc/csl_usbAux.h"
    1257 00028b ED00          MOV dbl(*SP(#0)), XAR3
         00028d BF   
    1258 00028e E66D          MOV #0, *AR3(#90) ; |1461| 
         000290 0000 
         000292 5A   
    1259                      .dwpsn  file "F:/eZdsp_DBG/tmp1/c55x-sim2/foo/c5535_bsl_revc/ezdsp5535_v1/c55xx_csl/inc/csl_usbAux.h"
    1260 000293 ED08          MOV dbl(*SP(#4)), XAR3
         000295 BF   
    1261 000296 DF18          MOV uns(*SP(#12)), AC0 ; |1463| 
         000298 05   
    1262 000299 ED6D          ADD dbl(*AR3(#8)), AC0, AC0 ; |1463| 
         00029b 0000 
         00029d 08   
    1263 00029e EB6D          MOV AC0, dbl(*AR3(#8)) ; |1463| 
         0002a0 0800 
         0002a2 08   
    1264                      .dwpsn  file "F:/eZdsp_DBG/tmp1/c55x-sim2/foo/c5535_bsl_revc/ezdsp5535_v1/c55xx_csl/inc/csl_usbAux.h"
    1265 0002a3 ED08          MOV dbl(*SP(#4)), XAR3
         0002a5 BF   
    1266 0002a6 DF18          MOV uns(*SP(#12)), AC0 ; |1464| 
         0002a8 05   
    1267 0002a9 EB6D          MOV AC0, dbl(*AR3(#10)) ; |1464| 
         0002ab 0800 
         0002ad 0A   
    1268                      .dwpsn  file "F:/eZdsp_DBG/tmp1/c55x-sim2/foo/c5535_bsl_revc/ezdsp5535_v1/c55xx_csl/inc/csl_usbAux.h"
    1269 0002ae ED08          MOV dbl(*SP(#4)), XAR3
         0002b0 BF   
    1270 0002b1 ED6D          MOV dbl(*AR3(#8)), AC1 ; |1465| 
         0002b3 1800 
TMS320C55x Assembler PC v4.4.1 Sat Sep 29 23:08:36 2018

Tools Copyright (c) 1996-2012 Texas Instruments Incorporated
csl_usb_intc_example.asm                                             PAGE   28

         0002b5 08   
    1271 0002b6 ED7D          MOV dbl(*AR3(short(#6))), AC0 ; |1465| 
         0002b8 08   
    1272 0002b9 121C          CMPU AC1 != AC0, TC1 ; |1465| 
         0002bb 04   
    1273 0002bc 62E4          BCC $C$L14,TC1 ; |1465| 
    1274                                                      ; branchcc occurs ; |1465| 
    1275                      .dwpsn  file "F:/eZdsp_DBG/tmp1/c55x-sim2/foo/c5535_bsl_revc/ezdsp5535_v1/c55xx_csl/inc/csl_usbAux.h"
    1276 0002be E66D          MOV #1, *AR3(#12) ; |1467| 
         0002c0 0100 
         0002c2 0C   
    1277 0002c3       $C$L14:    
    1278                      .dwpsn  file "F:/eZdsp_DBG/tmp1/c55x-sim2/foo/c5535_bsl_revc/ezdsp5535_v1/c55xx_csl/inc/csl_usbAux.h"
    1279 0002c3 7604          MOV #1038, T0 ; |1471| 
         0002c5 0E48 
    1280 0002c7 AB31          MOV *(#_usbRegisters), AR3 ; |1471| 
         0002c9 0000 
         0002cb 00!  
    1281 0002cc A96B          MOV port(*AR3(T0)), AR1 ; |1471| 
         0002ce 99   
    1282 0002cf C91E          MOV AR1, *SP(#15) ; |1471| 
    1283                      .dwpsn  file "F:/eZdsp_DBG/tmp1/c55x-sim2/foo/c5535_bsl_revc/ezdsp5535_v1/c55xx_csl/inc/csl_usbAux.h"
    1284 0002d1 A96B          MOV port(*AR3(T0)), AR1 ; |1474| 
         0002d3 99   
    1285 0002d4 7DFF          AND #0xfff0, AR1, AC0 ; |1474| 
         0002d6 F009 
    1286 0002d8 C06B          MOV AC0, port(*AR3(T0)) ; |1474| 
         0002da 9A   
    1287                      .dwpsn  file "F:/eZdsp_DBG/tmp1/c55x-sim2/foo/c5535_bsl_revc/ezdsp5535_v1/c55xx_csl/inc/csl_usbAux.h"
    1288 0002db AB31          MOV *(#_usbRegisters), AR3 ; |1479| 
         0002dd 0000 
         0002df 00!  
    1289 0002e0 A96B          MOV port(*AR3(T0)), AR1 ; |1479| 
         0002e2 99   
    1290 0002e3 7DFF          AND #0xfff0, AR1, AC0 ; |1479| 
         0002e5 F009 
    1291 0002e7 C06B          MOV AC0, port(*AR3(T0)) ; |1479| 
         0002e9 9A   
    1292                      .dwpsn  file "F:/eZdsp_DBG/tmp1/c55x-sim2/foo/c5535_bsl_revc/ezdsp5535_v1/c55xx_csl/inc/csl_usbAux.h"
    1293 0002ea ED08          MOV dbl(*SP(#4)), XAR3
         0002ec BF   
    1294 0002ed F06D          CMP *AR3(#12) == #1, TC1 ; |1483| 
         0002ef 0001 
         0002f1 000C 
    1295 0002f3 0474          BCC $C$L15,!TC1 ; |1483| 
         0002f5 37   
    1296                                                      ; branchcc occurs ; |1483| 
    1297                      .dwpsn  file "F:/eZdsp_DBG/tmp1/c55x-sim2/foo/c5535_bsl_revc/ezdsp5535_v1/c55xx_csl/inc/csl_usbAux.h"
    1298 0002f6 ED00          MOV dbl(*SP(#0)), XAR3
         0002f8 BF   
    1299 0002f9 E67F          MOV #0, *AR3(short(#7)) ; |1485| 
         0002fb 00   
    1300                      .dwpsn  file "F:/eZdsp_DBG/tmp1/c55x-sim2/foo/c5535_bsl_revc/ezdsp5535_v1/c55xx_csl/inc/csl_usbAux.h"
    1301 0002fc E61C          MOV #10, *SP(#14) ; |1488| 
         0002fe 0A   
TMS320C55x Assembler PC v4.4.1 Sat Sep 29 23:08:36 2018

Tools Copyright (c) 1996-2012 Texas Instruments Incorporated
csl_usb_intc_example.asm                                             PAGE   29

    1302                      .dwpsn  file "F:/eZdsp_DBG/tmp1/c55x-sim2/foo/c5535_bsl_revc/ezdsp5535_v1/c55xx_csl/inc/csl_usbAux.h"
    1303 0002ff ED00          MOV dbl(*SP(#0)), XAR3
         000301 BF   
    1304 000302 E66D          MOV #0, *AR3(#101) ; |1491| 
         000304 0000 
         000306 65   
    1305                      .dwpsn  file "F:/eZdsp_DBG/tmp1/c55x-sim2/foo/c5535_bsl_revc/ezdsp5535_v1/c55xx_csl/inc/csl_usbAux.h"
    1306 000307 7604          MOV #1042, T0 ; |1493| 
         000309 1248 
    1307 00030b AB31          MOV *(#_usbRegisters), AR3 ; |1493| 
         00030d 0000 
         00030f 00!  
    1308 000310 A91C          MOV *SP(#14), AR1 ; |1493| 
    1309 000312 DA6B          OR port(*AR3(T0)), AR1, AR1 ; |1493| 
         000314 99   
         000315 99   
    1310 000316 C96B          MOV AR1, port(*AR3(T0)) ; |1493| 
         000318 9A   
    1311                      .dwpsn  file "F:/eZdsp_DBG/tmp1/c55x-sim2/foo/c5535_bsl_revc/ezdsp5535_v1/c55xx_csl/inc/csl_usbAux.h"
    1312 000319 ED00          MOV dbl(*SP(#0)), XAR3
         00031b BF   
    1313 00031c ED00          MOV dbl(*SP(#0)), XAR0
         00031e 8F   
    1314 00031f ED04          MOV dbl(*SP(#2)), XAR1
         000321 9F   
    1315 000322 ED6D          MOV dbl(*AR3(#116)), AC0 ; |1495| 
         000324 0800 
         000326 74   
    1316              $C$DW$139       .dwtag  DW_TAG_TI_branch
    1317                      .dwattr $C$DW$139, DW_AT_low_pc(0x00)
    1318                      .dwattr $C$DW$139, DW_AT_TI_call
    1319                      .dwattr $C$DW$139, DW_AT_TI_indirect
    1320 000327 9200          CALL AC0  ; |1495| 
    1321                                                      ; call occurs [AC0] ; |1495| 
    1322 000329 C40C          MOV T0, *SP(#6) ; |1495| 
    1323                      .dwpsn  file "F:/eZdsp_DBG/tmp1/c55x-sim2/foo/c5535_bsl_revc/ezdsp5535_v1/c55xx_csl/inc/csl_usbAux.h"
    1324 00032b 4A15          B $C$L16  ; |1496| 
    1325                                                      ; branch occurs ; |1496| 
    1326 00032d       $C$L15:    
    1327                      .dwpsn  file "F:/eZdsp_DBG/tmp1/c55x-sim2/foo/c5535_bsl_revc/ezdsp5535_v1/c55xx_csl/inc/csl_usbAux.h"
    1328 00032d E61C          MOV #2, *SP(#14) ; |1500| 
         00032f 02   
    1329                      .dwpsn  file "F:/eZdsp_DBG/tmp1/c55x-sim2/foo/c5535_bsl_revc/ezdsp5535_v1/c55xx_csl/inc/csl_usbAux.h"
    1330 000330 7604          MOV #1042, T0 ; |1503| 
         000332 1248 
    1331 000334 AB31          MOV *(#_usbRegisters), AR3 ; |1503| 
         000336 0000 
         000338 00!  
    1332 000339 A91C          MOV *SP(#14), AR1 ; |1503| 
    1333 00033b DA6B          OR port(*AR3(T0)), AR1, AR1 ; |1503| 
         00033d 99   
         00033e 99   
    1334 00033f C96B          MOV AR1, port(*AR3(T0)) ; |1503| 
         000341 9A   
    1335 000342       $C$L16:    
TMS320C55x Assembler PC v4.4.1 Sat Sep 29 23:08:36 2018

Tools Copyright (c) 1996-2012 Texas Instruments Incorporated
csl_usb_intc_example.asm                                             PAGE   30

    1336                      .dwpsn  file "F:/eZdsp_DBG/tmp1/c55x-sim2/foo/c5535_bsl_revc/ezdsp5535_v1/c55xx_csl/inc/csl_usbAux.h"
    1337 000342 AB31          MOV *(#_usbRegisters), AR3 ; |1507| 
         000344 0000 
         000346 00!  
    1338 000347 7604          MOV #1038, T0 ; |1507| 
         000349 0E48 
    1339 00034b A91E          MOV *SP(#15), AR1 ; |1507| 
    1340 00034d C96B          MOV AR1, port(*AR3(T0)) ; |1507| 
         00034f 9A   
    1341                      .dwpsn  file "F:/eZdsp_DBG/tmp1/c55x-sim2/foo/c5535_bsl_revc/ezdsp5535_v1/c55xx_csl/inc/csl_usbAux.h"
    1342 000350 4A08          B $C$L19  ; |1508| 
    1343                                                      ; branch occurs ; |1508| 
    1344 000352       $C$L17:    
    1345                      .dwpsn  file "F:/eZdsp_DBG/tmp1/c55x-sim2/foo/c5535_bsl_revc/ezdsp5535_v1/c55xx_csl/inc/csl_usbAux.h"
    1346 000352 E60C          MOV #-6, *SP(#6) ; |1511| 
         000354 FA   
    1347                      .dwpsn  file "F:/eZdsp_DBG/tmp1/c55x-sim2/foo/c5535_bsl_revc/ezdsp5535_v1/c55xx_csl/inc/csl_usbAux.h"
    1348 000355 4A03          B $C$L19  ; |1513| 
    1349                                                      ; branch occurs ; |1513| 
    1350 000357       $C$L18:    
    1351                      .dwpsn  file "F:/eZdsp_DBG/tmp1/c55x-sim2/foo/c5535_bsl_revc/ezdsp5535_v1/c55xx_csl/inc/csl_usbAux.h"
    1352 000357 E60C          MOV #-6, *SP(#6) ; |1516| 
         000359 FA   
    1353 00035a       $C$L19:    
    1354                      .dwpsn  file "F:/eZdsp_DBG/tmp1/c55x-sim2/foo/c5535_bsl_revc/ezdsp5535_v1/c55xx_csl/inc/csl_usbAux.h"
    1355 00035a A40C          MOV *SP(#6), T0 ; |1519| 
    1356                      .dwpsn  file "F:/eZdsp_DBG/tmp1/c55x-sim2/foo/c5535_bsl_revc/ezdsp5535_v1/c55xx_csl/inc/csl_usbAux.h"
    1357 00035c 4E11          AADD #17, SP
    1358                      .dwcfi  cfa_offset, 1
    1359              $C$DW$140       .dwtag  DW_TAG_TI_branch
    1360                      .dwattr $C$DW$140, DW_AT_low_pc(0x00)
    1361                      .dwattr $C$DW$140, DW_AT_TI_return
    1362 00035e 4804          RET
    1363                                                      ; return occurs
    1364              
    1365              $C$DW$141       .dwtag  DW_TAG_TI_loop
    1366                      .dwattr $C$DW$141, DW_AT_name("F:\eZdsp_DBG\tmp1\c55x-sim2\foo\Debug\csl_usb_intc_example.asm:$C$L8:1
    1367                      .dwattr $C$DW$141, DW_AT_TI_begin_file("F:/eZdsp_DBG/tmp1/c55x-sim2/foo/c5535_bsl_revc/ezdsp5535_v1/c
    1368                      .dwattr $C$DW$141, DW_AT_TI_begin_line(0x598)
    1369                      .dwattr $C$DW$141, DW_AT_TI_end_line(0x5b3)
    1370              $C$DW$142       .dwtag  DW_TAG_TI_loop_range
    1371                      .dwattr $C$DW$142, DW_AT_low_pc($C$DW$L$_USB_processEP0In$8$B)
    1372                      .dwattr $C$DW$142, DW_AT_high_pc($C$DW$L$_USB_processEP0In$8$E)
    1373              $C$DW$143       .dwtag  DW_TAG_TI_loop_range
    1374                      .dwattr $C$DW$143, DW_AT_low_pc($C$DW$L$_USB_processEP0In$10$B)
    1375                      .dwattr $C$DW$143, DW_AT_high_pc($C$DW$L$_USB_processEP0In$10$E)
    1376              $C$DW$144       .dwtag  DW_TAG_TI_loop_range
    1377                      .dwattr $C$DW$144, DW_AT_low_pc($C$DW$L$_USB_processEP0In$11$B)
    1378                      .dwattr $C$DW$144, DW_AT_high_pc($C$DW$L$_USB_processEP0In$11$E)
    1379              $C$DW$145       .dwtag  DW_TAG_TI_loop_range
    1380                      .dwattr $C$DW$145, DW_AT_low_pc($C$DW$L$_USB_processEP0In$12$B)
    1381                      .dwattr $C$DW$145, DW_AT_high_pc($C$DW$L$_USB_processEP0In$12$E)
    1382              $C$DW$146       .dwtag  DW_TAG_TI_loop_range
    1383                      .dwattr $C$DW$146, DW_AT_low_pc($C$DW$L$_USB_processEP0In$15$B)
    1384                      .dwattr $C$DW$146, DW_AT_high_pc($C$DW$L$_USB_processEP0In$15$E)
TMS320C55x Assembler PC v4.4.1 Sat Sep 29 23:08:36 2018

Tools Copyright (c) 1996-2012 Texas Instruments Incorporated
csl_usb_intc_example.asm                                             PAGE   31

    1385              
    1386              $C$DW$147       .dwtag  DW_TAG_TI_loop
    1387                      .dwattr $C$DW$147, DW_AT_name("F:\eZdsp_DBG\tmp1\c55x-sim2\foo\Debug\csl_usb_intc_example.asm:$C$L9:2
    1388                      .dwattr $C$DW$147, DW_AT_TI_begin_file("F:/eZdsp_DBG/tmp1/c55x-sim2/foo/c5535_bsl_revc/ezdsp5535_v1/c
    1389                      .dwattr $C$DW$147, DW_AT_TI_begin_line(0x59b)
    1390                      .dwattr $C$DW$147, DW_AT_TI_end_line(0x59f)
    1391              $C$DW$148       .dwtag  DW_TAG_TI_loop_range
    1392                      .dwattr $C$DW$148, DW_AT_low_pc($C$DW$L$_USB_processEP0In$9$B)
    1393                      .dwattr $C$DW$148, DW_AT_high_pc($C$DW$L$_USB_processEP0In$9$E)
    1394                      .dwendtag $C$DW$147
    1395              
    1396                      .dwendtag $C$DW$141
    1397              
    1398                      .dwattr $C$DW$127, DW_AT_TI_end_file("F:/eZdsp_DBG/tmp1/c55x-sim2/foo/c5535_bsl_revc/ezdsp5535_v1/c55
    1399                      .dwattr $C$DW$127, DW_AT_TI_end_line(0x5f0)
    1400                      .dwattr $C$DW$127, DW_AT_TI_end_column(0x01)
    1401                      .dwendentry
    1402                      .dwendtag $C$DW$127
    1403              
    1404 000360               .sect   ".text"
    1405                      .align 4
    1406              
    1407              $C$DW$149       .dwtag  DW_TAG_subprogram, DW_AT_name("USB_isValidDataInFifoOut")
    1408                      .dwattr $C$DW$149, DW_AT_low_pc(_USB_isValidDataInFifoOut)
    1409                      .dwattr $C$DW$149, DW_AT_high_pc(0x00)
    1410                      .dwattr $C$DW$149, DW_AT_TI_symbol_name("_USB_isValidDataInFifoOut")
    1411                      .dwattr $C$DW$149, DW_AT_type(*$C$DW$T$86)
    1412                      .dwattr $C$DW$149, DW_AT_TI_begin_file("F:/eZdsp_DBG/tmp1/c55x-sim2/foo/c5535_bsl_revc/ezdsp5535_v1/c
    1413                      .dwattr $C$DW$149, DW_AT_TI_begin_line(0x80d)
    1414                      .dwattr $C$DW$149, DW_AT_TI_begin_column(0x06)
    1415                      .dwattr $C$DW$149, DW_AT_TI_max_frame_size(0x06)
    1416                      .dwpsn  file "F:/eZdsp_DBG/tmp1/c55x-sim2/foo/c5535_bsl_revc/ezdsp5535_v1/c55xx_csl/inc/csl_usbAux.h"
    1417              
    1418                      .dwfde $C$DW$CIE, _USB_isValidDataInFifoOut
    1419              $C$DW$150       .dwtag  DW_TAG_formal_parameter, DW_AT_name("peps")
    1420                      .dwattr $C$DW$150, DW_AT_TI_symbol_name("_peps")
    1421                      .dwattr $C$DW$150, DW_AT_type(*$C$DW$T$150)
    1422                      .dwattr $C$DW$150, DW_AT_location[DW_OP_reg17]
    1423              ;*******************************************************************************
    1424              ;* FUNCTION NAME: USB_isValidDataInFifoOut                                     *
    1425              ;*                                                                             *
    1426              ;*   Function Uses Regs : AC0,AC0,AC1,AC1,T0,AR0,XAR0,AR1,AR2,AR3,XAR3,SP,TC1, *
    1427              ;*                        M40,SATA,SATD,RDM,FRCT,SMUL                          *
    1428              ;*   Stack Frame        : Compact (No Frame Pointer, w/ debug)                 *
    1429              ;*   Total Frame Size   : 6 words                                              *
    1430              ;*                        (1 return address/alignment)                         *
    1431              ;*                        (5 local values)                                     *
    1432              ;*   Min System Stack   : 1 word                                               *
    1433              ;*******************************************************************************
    1434 000360       _USB_isValidDataInFifoOut:
    1435                      .dwcfi  cfa_offset, 1
    1436                      .dwcfi  save_reg_to_mem, 91, -1
    1437 000360 4EFB          AADD #-5, SP
    1438                      .dwcfi  cfa_offset, 6
    1439              $C$DW$151       .dwtag  DW_TAG_variable, DW_AT_name("peps")
TMS320C55x Assembler PC v4.4.1 Sat Sep 29 23:08:36 2018

Tools Copyright (c) 1996-2012 Texas Instruments Incorporated
csl_usb_intc_example.asm                                             PAGE   32

    1440                      .dwattr $C$DW$151, DW_AT_TI_symbol_name("_peps")
    1441                      .dwattr $C$DW$151, DW_AT_type(*$C$DW$T$150)
    1442                      .dwattr $C$DW$151, DW_AT_location[DW_OP_bregx 0x24 0]
    1443              $C$DW$152       .dwtag  DW_TAG_variable, DW_AT_name("saveIndex")
    1444                      .dwattr $C$DW$152, DW_AT_TI_symbol_name("_saveIndex")
    1445                      .dwattr $C$DW$152, DW_AT_type(*$C$DW$T$19)
    1446                      .dwattr $C$DW$152, DW_AT_location[DW_OP_bregx 0x24 2]
    1447              $C$DW$153       .dwtag  DW_TAG_variable, DW_AT_name("wByteCount")
    1448                      .dwattr $C$DW$153, DW_AT_TI_symbol_name("_wByteCount")
    1449                      .dwattr $C$DW$153, DW_AT_type(*$C$DW$T$19)
    1450                      .dwattr $C$DW$153, DW_AT_location[DW_OP_bregx 0x24 3]
    1451              $C$DW$154       .dwtag  DW_TAG_variable, DW_AT_name("flag")
    1452                      .dwattr $C$DW$154, DW_AT_TI_symbol_name("_flag")
    1453                      .dwattr $C$DW$154, DW_AT_type(*$C$DW$T$19)
    1454                      .dwattr $C$DW$154, DW_AT_location[DW_OP_bregx 0x24 4]
    1455 000362 EB00          MOV XAR0, dbl(*SP(#0))
         000364 85   
    1456                      .dwpsn  file "F:/eZdsp_DBG/tmp1/c55x-sim2/foo/c5535_bsl_revc/ezdsp5535_v1/c55xx_csl/inc/csl_usbAux.h"
    1457 000365 E604          MOV #0, *SP(#2) ; |2067| 
         000367 00   
    1458                      .dwpsn  file "F:/eZdsp_DBG/tmp1/c55x-sim2/foo/c5535_bsl_revc/ezdsp5535_v1/c55xx_csl/inc/csl_usbAux.h"
    1459 000368 E606          MOV #0, *SP(#3) ; |2068| 
         00036a 00   
    1460                      .dwpsn  file "F:/eZdsp_DBG/tmp1/c55x-sim2/foo/c5535_bsl_revc/ezdsp5535_v1/c55xx_csl/inc/csl_usbAux.h"
    1461 00036b E608          MOV #0, *SP(#4) ; |2069| 
         00036d 00   
    1462                      .dwpsn  file "F:/eZdsp_DBG/tmp1/c55x-sim2/foo/c5535_bsl_revc/ezdsp5535_v1/c55xx_csl/inc/csl_usbAux.h"
    1463 00036e ED00          MOV dbl(*SP(#0)), XAR3
         000370 BF   
    1464              
    1465 000371 ED61          MOV dbl(*AR3), AC0 ; |2071| 
         000373 08   
    1466 000374 3D21  ||      MOV #2, AC1 ; |2071| 
    1467              
    1468 000376 121C          CMPU AC1 != AC0, TC1 ; |2071| 
         000378 04   
    1469 000379 0464          BCC $C$L22,TC1 ; |2071| 
         00037b 70   
    1470                                                      ; branchcc occurs ; |2071| 
    1471                      .dwpsn  file "F:/eZdsp_DBG/tmp1/c55x-sim2/foo/c5535_bsl_revc/ezdsp5535_v1/c55xx_csl/inc/csl_usbAux.h"
    1472 00037c 7604          MOV #1038, T0 ; |2074| 
         00037e 0E48 
    1473 000380 AB31          MOV *(#_usbRegisters), AR3 ; |2074| 
         000382 0000 
         000384 00!  
    1474 000385 A96B          MOV port(*AR3(T0)), AR1 ; |2074| 
         000387 99   
    1475 000388 C904          MOV AR1, *SP(#2) ; |2074| 
    1476                      .dwpsn  file "F:/eZdsp_DBG/tmp1/c55x-sim2/foo/c5535_bsl_revc/ezdsp5535_v1/c55xx_csl/inc/csl_usbAux.h"
    1477 00038a F46B          AND #0xfff0, port(*AR3(T0)) ; |2076| 
         00038c FFF0 
         00038e 9A   
    1478                      .dwpsn  file "F:/eZdsp_DBG/tmp1/c55x-sim2/foo/c5535_bsl_revc/ezdsp5535_v1/c55xx_csl/inc/csl_usbAux.h"
    1479 00038f AB31          MOV *(#_usbRegisters), AR3 ; |2077| 
         000391 0000 
TMS320C55x Assembler PC v4.4.1 Sat Sep 29 23:08:36 2018

Tools Copyright (c) 1996-2012 Texas Instruments Incorporated
csl_usb_intc_example.asm                                             PAGE   33

         000393 00!  
    1480 000394 F56B          OR #0x0002, port(*AR3(T0)) ; |2077| 
         000396 0002 
         000398 9A   
    1481                      .dwpsn  file "F:/eZdsp_DBG/tmp1/c55x-sim2/foo/c5535_bsl_revc/ezdsp5535_v1/c55xx_csl/inc/csl_usbAux.h"
    1482 000399 7604          MOV #1046, T0 ; |2080| 
         00039b 1648 
    1483 00039d AB31          MOV *(#_usbRegisters), AR3 ; |2080| 
         00039f 0000 
         0003a1 00!  
    1484 0003a2 A96B          MOV port(*AR3(T0)), AR1 ; |2080| 
         0003a4 99   
    1485              
    1486 0003a5 1801          AND #0x0001, AR1, AR1 ; |2080| 
         0003a7 99   
    1487 0003a8 3D1A  ||      MOV #1, AR2
    1488              
    1489 0003aa 129C          CMPU AR1 != AR2, TC1 ; |2080| 
         0003ac A4   
    1490 0003ad 0464          BCC $C$L21,TC1 ; |2080| 
         0003af 2E   
    1491                                                      ; branchcc occurs ; |2080| 
    1492                      .dwpsn  file "F:/eZdsp_DBG/tmp1/c55x-sim2/foo/c5535_bsl_revc/ezdsp5535_v1/c55xx_csl/inc/csl_usbAux.h"
    1493 0003b0 7604          MOV #1049, T0 ; |2083| 
         0003b2 1948 
    1494 0003b4 DF6B          MOV uns(low_byte(port(*AR3(T0)))), AR1 ; |2083| 
         0003b6 93   
         0003b7 99   
    1495 0003b8 C906          MOV AR1, *SP(#3) ; |2083| 
    1496                      .dwpsn  file "F:/eZdsp_DBG/tmp1/c55x-sim2/foo/c5535_bsl_revc/ezdsp5535_v1/c55xx_csl/inc/csl_usbAux.h"
    1497 0003ba ED00          MOV dbl(*SP(#0)), XAR3
         0003bc BF   
    1498 0003bd C96D          MOV AR1, *AR3(#13) ; |2084| 
         0003bf 000D 
    1499                      .dwpsn  file "F:/eZdsp_DBG/tmp1/c55x-sim2/foo/c5535_bsl_revc/ezdsp5535_v1/c55xx_csl/inc/csl_usbAux.h"
    1500 0003c1 ED00          MOV dbl(*SP(#0)), XAR3
         0003c3 BF   
    1501 0003c4 F075          CMP *AR3(short(#2)) == #3, TC1 ; |2086| 
         0003c6 0003 
    1502 0003c8 0464          BCC $C$L20,TC1 ; |2086| 
         0003ca 10   
    1503                                                      ; branchcc occurs ; |2086| 
    1504                      .dwpsn  file "F:/eZdsp_DBG/tmp1/c55x-sim2/foo/c5535_bsl_revc/ezdsp5535_v1/c55xx_csl/inc/csl_usbAux.h"
    1505 0003cb ED79          MOV dbl(*AR3(short(#4))), AC0 ; |2088| 
         0003cd 08   
    1506 0003ce DF06          MOV uns(*SP(#3)), AC1 ; |2088| 
         0003d0 15   
    1507 0003d1 1204          CMPU AC1 > AC0, TC1 ; |2088| 
         0003d3 14   
    1508 0003d4 6464          BCC $C$L21,TC1 ; |2088| 
    1509                                                      ; branchcc occurs ; |2088| 
    1510                      .dwpsn  file "F:/eZdsp_DBG/tmp1/c55x-sim2/foo/c5535_bsl_revc/ezdsp5535_v1/c55xx_csl/inc/csl_usbAux.h"
    1511 0003d6 E608          MOV #1, *SP(#4) ; |2092| 
         0003d8 01   
    1512                      .dwpsn  file "F:/eZdsp_DBG/tmp1/c55x-sim2/foo/c5535_bsl_revc/ezdsp5535_v1/c55xx_csl/inc/csl_usbAux.h"
TMS320C55x Assembler PC v4.4.1 Sat Sep 29 23:08:36 2018

Tools Copyright (c) 1996-2012 Texas Instruments Incorporated
csl_usb_intc_example.asm                                             PAGE   34

    1513 0003d9 4A03          B $C$L21  ; |2094| 
    1514                                                      ; branch occurs ; |2094| 
    1515 0003db       $C$L20:    
    1516                      .dwpsn  file "F:/eZdsp_DBG/tmp1/c55x-sim2/foo/c5535_bsl_revc/ezdsp5535_v1/c55xx_csl/inc/csl_usbAux.h"
    1517 0003db E608          MOV #1, *SP(#4) ; |2097| 
         0003dd 01   
    1518 0003de       $C$L21:    
    1519                      .dwpsn  file "F:/eZdsp_DBG/tmp1/c55x-sim2/foo/c5535_bsl_revc/ezdsp5535_v1/c55xx_csl/inc/csl_usbAux.h"
    1520 0003de AB31          MOV *(#_usbRegisters), AR3 ; |2102| 
         0003e0 0000 
         0003e2 00!  
    1521 0003e3 7604          MOV #1038, T0 ; |2102| 
         0003e5 0E48 
    1522 0003e7 A904          MOV *SP(#2), AR1 ; |2102| 
    1523 0003e9 C96B          MOV AR1, port(*AR3(T0)) ; |2102| 
         0003eb 9A   
    1524 0003ec       $C$L22:    
    1525                      .dwpsn  file "F:/eZdsp_DBG/tmp1/c55x-sim2/foo/c5535_bsl_revc/ezdsp5535_v1/c55xx_csl/inc/csl_usbAux.h"
    1526 0003ec A408          MOV *SP(#4), T0 ; |2105| 
    1527                      .dwpsn  file "F:/eZdsp_DBG/tmp1/c55x-sim2/foo/c5535_bsl_revc/ezdsp5535_v1/c55xx_csl/inc/csl_usbAux.h"
    1528 0003ee 4E05          AADD #5, SP
    1529                      .dwcfi  cfa_offset, 1
    1530              $C$DW$155       .dwtag  DW_TAG_TI_branch
    1531                      .dwattr $C$DW$155, DW_AT_low_pc(0x00)
    1532                      .dwattr $C$DW$155, DW_AT_TI_return
    1533 0003f0 4804          RET
    1534                                                      ; return occurs
    1535                      .dwattr $C$DW$149, DW_AT_TI_end_file("F:/eZdsp_DBG/tmp1/c55x-sim2/foo/c5535_bsl_revc/ezdsp5535_v1/c55
    1536                      .dwattr $C$DW$149, DW_AT_TI_end_line(0x83a)
    1537                      .dwattr $C$DW$149, DW_AT_TI_end_column(0x01)
    1538                      .dwendentry
    1539                      .dwendtag $C$DW$149
    1540              
    1541 0003f2               .sect   ".text"
    1542                      .align 4
    1543              
    1544              $C$DW$156       .dwtag  DW_TAG_subprogram, DW_AT_name("USB_handleTx")
    1545                      .dwattr $C$DW$156, DW_AT_low_pc(_USB_handleTx)
    1546                      .dwattr $C$DW$156, DW_AT_high_pc(0x00)
    1547                      .dwattr $C$DW$156, DW_AT_TI_symbol_name("_USB_handleTx")
    1548                      .dwattr $C$DW$156, DW_AT_type(*$C$DW$T$80)
    1549                      .dwattr $C$DW$156, DW_AT_TI_begin_file("F:/eZdsp_DBG/tmp1/c55x-sim2/foo/c5535_bsl_revc/ezdsp5535_v1/c
    1550                      .dwattr $C$DW$156, DW_AT_TI_begin_line(0x371)
    1551                      .dwattr $C$DW$156, DW_AT_TI_begin_column(0x0c)
    1552                      .dwattr $C$DW$156, DW_AT_TI_max_frame_size(0x16)
    1553                      .dwpsn  file "F:/eZdsp_DBG/tmp1/c55x-sim2/foo/c5535_bsl_revc/ezdsp5535_v1/c55xx_csl/inc/csl_usbAux.h"
    1554              
    1555                      .dwfde $C$DW$CIE, _USB_handleTx
    1556              $C$DW$157       .dwtag  DW_TAG_formal_parameter, DW_AT_name("pContext")
    1557                      .dwattr $C$DW$157, DW_AT_TI_symbol_name("_pContext")
    1558                      .dwattr $C$DW$157, DW_AT_type(*$C$DW$T$146)
    1559                      .dwattr $C$DW$157, DW_AT_location[DW_OP_reg17]
    1560              $C$DW$158       .dwtag  DW_TAG_formal_parameter, DW_AT_name("dwEndpoint")
    1561                      .dwattr $C$DW$158, DW_AT_TI_symbol_name("_dwEndpoint")
    1562                      .dwattr $C$DW$158, DW_AT_type(*$C$DW$T$88)
TMS320C55x Assembler PC v4.4.1 Sat Sep 29 23:08:36 2018

Tools Copyright (c) 1996-2012 Texas Instruments Incorporated
csl_usb_intc_example.asm                                             PAGE   35

    1563                      .dwattr $C$DW$158, DW_AT_location[DW_OP_reg0]
    1564              ;*******************************************************************************
    1565              ;* FUNCTION NAME: USB_handleTx                                                 *
    1566              ;*                                                                             *
    1567              ;*   Function Uses Regs : AC0,AC0,AC1,AC1,T0,AR0,XAR0,AR1,XAR1,AR3,XAR3,SP,    *
    1568              ;*                        CARRY,TC1,M40,SATA,SATD,RDM,FRCT,SMUL                *
    1569              ;*   Stack Frame        : Compact (No Frame Pointer, w/ debug)                 *
    1570              ;*   Total Frame Size   : 22 words                                             *
    1571              ;*                        (1 return address/alignment)                         *
    1572              ;*                        (21 local values)                                    *
    1573              ;*   Min System Stack   : 1 word                                               *
    1574              ;*******************************************************************************
    1575 0003f4       _USB_handleTx:
    1576                      .dwcfi  cfa_offset, 1
    1577                      .dwcfi  save_reg_to_mem, 91, -1
    1578 0003f4 4EEB          AADD #-21, SP
    1579                      .dwcfi  cfa_offset, 22
    1580              $C$DW$159       .dwtag  DW_TAG_variable, DW_AT_name("pContext")
    1581                      .dwattr $C$DW$159, DW_AT_TI_symbol_name("_pContext")
    1582                      .dwattr $C$DW$159, DW_AT_type(*$C$DW$T$146)
    1583                      .dwattr $C$DW$159, DW_AT_location[DW_OP_bregx 0x24 0]
    1584              $C$DW$160       .dwtag  DW_TAG_variable, DW_AT_name("dwEndpoint")
    1585                      .dwattr $C$DW$160, DW_AT_TI_symbol_name("_dwEndpoint")
    1586                      .dwattr $C$DW$160, DW_AT_type(*$C$DW$T$88)
    1587                      .dwattr $C$DW$160, DW_AT_location[DW_OP_bregx 0x24 2]
    1588              $C$DW$161       .dwtag  DW_TAG_variable, DW_AT_name("cbToWrite")
    1589                      .dwattr $C$DW$161, DW_AT_TI_symbol_name("_cbToWrite")
    1590                      .dwattr $C$DW$161, DW_AT_type(*$C$DW$T$88)
    1591                      .dwattr $C$DW$161, DW_AT_location[DW_OP_bregx 0x24 4]
    1592              $C$DW$162       .dwtag  DW_TAG_variable, DW_AT_name("pwBuffer")
    1593                      .dwattr $C$DW$162, DW_AT_TI_symbol_name("_pwBuffer")
    1594                      .dwattr $C$DW$162, DW_AT_type(*$C$DW$T$87)
    1595                      .dwattr $C$DW$162, DW_AT_location[DW_OP_bregx 0x24 6]
    1596              $C$DW$163       .dwtag  DW_TAG_variable, DW_AT_name("cbBuffer")
    1597                      .dwattr $C$DW$163, DW_AT_TI_symbol_name("_cbBuffer")
    1598                      .dwattr $C$DW$163, DW_AT_type(*$C$DW$T$88)
    1599                      .dwattr $C$DW$163, DW_AT_location[DW_OP_bregx 0x24 8]
    1600              $C$DW$164       .dwtag  DW_TAG_variable, DW_AT_name("cbWritten")
    1601                      .dwattr $C$DW$164, DW_AT_TI_symbol_name("_cbWritten")
    1602                      .dwattr $C$DW$164, DW_AT_type(*$C$DW$T$88)
    1603                      .dwattr $C$DW$164, DW_AT_location[DW_OP_bregx 0x24 10]
    1604              $C$DW$165       .dwtag  DW_TAG_variable, DW_AT_name("count")
    1605                      .dwattr $C$DW$165, DW_AT_TI_symbol_name("_count")
    1606                      .dwattr $C$DW$165, DW_AT_type(*$C$DW$T$19)
    1607                      .dwattr $C$DW$165, DW_AT_location[DW_OP_bregx 0x24 12]
    1608              $C$DW$166       .dwtag  DW_TAG_variable, DW_AT_name("saveIndex")
    1609                      .dwattr $C$DW$166, DW_AT_TI_symbol_name("_saveIndex")
    1610                      .dwattr $C$DW$166, DW_AT_type(*$C$DW$T$19)
    1611                      .dwattr $C$DW$166, DW_AT_location[DW_OP_bregx 0x24 13]
    1612              $C$DW$167       .dwtag  DW_TAG_variable, DW_AT_name("status")
    1613                      .dwattr $C$DW$167, DW_AT_TI_symbol_name("_status")
    1614                      .dwattr $C$DW$167, DW_AT_type(*$C$DW$T$80)
    1615                      .dwattr $C$DW$167, DW_AT_location[DW_OP_bregx 0x24 14]
    1616              $C$DW$168       .dwtag  DW_TAG_variable, DW_AT_name("peps")
    1617                      .dwattr $C$DW$168, DW_AT_TI_symbol_name("_peps")
TMS320C55x Assembler PC v4.4.1 Sat Sep 29 23:08:36 2018

Tools Copyright (c) 1996-2012 Texas Instruments Incorporated
csl_usb_intc_example.asm                                             PAGE   36

    1618                      .dwattr $C$DW$168, DW_AT_type(*$C$DW$T$150)
    1619                      .dwattr $C$DW$168, DW_AT_location[DW_OP_bregx 0x24 16]
    1620              $C$DW$169       .dwtag  DW_TAG_variable, DW_AT_name("pTransfer")
    1621                      .dwattr $C$DW$169, DW_AT_TI_symbol_name("_pTransfer")
    1622                      .dwattr $C$DW$169, DW_AT_type(*$C$DW$T$152)
    1623                      .dwattr $C$DW$169, DW_AT_location[DW_OP_bregx 0x24 18]
    1624              $C$DW$170       .dwtag  DW_TAG_variable, DW_AT_name("pFifoAddr")
    1625                      .dwattr $C$DW$170, DW_AT_TI_symbol_name("_pFifoAddr")
    1626                      .dwattr $C$DW$170, DW_AT_type(*$C$DW$T$195)
    1627                      .dwattr $C$DW$170, DW_AT_location[DW_OP_bregx 0x24 20]
    1628 0003f6 EB04          MOV AC0, dbl(*SP(#2)) ; |883| 
         0003f8 08   
    1629 0003f9 EB00          MOV XAR0, dbl(*SP(#0))
         0003fb 85   
    1630                      .dwpsn  file "F:/eZdsp_DBG/tmp1/c55x-sim2/foo/c5535_bsl_revc/ezdsp5535_v1/c55xx_csl/inc/csl_usbAux.h"
    1631 0003fc E61C          MOV #0, *SP(#14) ; |896| 
         0003fe 00   
    1632                      .dwpsn  file "F:/eZdsp_DBG/tmp1/c55x-sim2/foo/c5535_bsl_revc/ezdsp5535_v1/c55xx_csl/inc/csl_usbAux.h"
    1633 0003ff E618          MOV #0, *SP(#12) ; |897| 
         000401 00   
    1634                      .dwpsn  file "F:/eZdsp_DBG/tmp1/c55x-sim2/foo/c5535_bsl_revc/ezdsp5535_v1/c55xx_csl/inc/csl_usbAux.h"
    1635 000402 E61A          MOV #0, *SP(#13) ; |898| 
         000404 00   
    1636                      .dwpsn  file "F:/eZdsp_DBG/tmp1/c55x-sim2/foo/c5535_bsl_revc/ezdsp5535_v1/c55xx_csl/inc/csl_usbAux.h"
    1637 000405 3C00          MOV #0, AC0 ; |899| 
    1638 000407 EB14          MOV AC0, dbl(*SP(#10)) ; |899| 
         000409 08   
    1639                      .dwpsn  file "F:/eZdsp_DBG/tmp1/c55x-sim2/foo/c5535_bsl_revc/ezdsp5535_v1/c55xx_csl/inc/csl_usbAux.h"
    1640 00040a ED00          MOV dbl(*SP(#0)), XAR3
         00040c BF   
    1641 00040d 90B0          MOV XAR3, AC0
    1642 00040f 6D00          BCC $C$L37,AC0 == #0 ; |901| 
         000411 0258 
    1643                                                      ; branchcc occurs ; |901| 
    1644                      .dwpsn  file "F:/eZdsp_DBG/tmp1/c55x-sim2/foo/c5535_bsl_revc/ezdsp5535_v1/c55xx_csl/inc/csl_usbAux.h"
    1645 000413 ED6D          MOV dbl(*AR3(#98)), XAR3
         000415 BF00 
         000417 62   
    1646 000418 F806          MPYMK *SP(#3), #18, AC0 ; |903| 
         00041a 1200 
    1647 00041c 2209          MOV AC0, AR1 ; |903| 
    1648              
    1649 00041e 8E20          MOV XAR3, dbl(*SP(#16))
         000420 BB10 
         000422 B590 
    1650              ||      AADD AR1, AR3 ; |903| 
    1651              
    1652                      .dwpsn  file "F:/eZdsp_DBG/tmp1/c55x-sim2/foo/c5535_bsl_revc/ezdsp5535_v1/c55xx_csl/inc/csl_usbAux.h"
    1653 000424 ED6D          MOV dbl(*AR3(#10)), XAR3
         000426 BF00 
         000428 0A   
    1654 000429 EB24          MOV XAR3, dbl(*SP(#18))
         00042b B5   
    1655                      .dwpsn  file "F:/eZdsp_DBG/tmp1/c55x-sim2/foo/c5535_bsl_revc/ezdsp5535_v1/c55xx_csl/inc/csl_usbAux.h"
    1656 00042c 90B0          MOV XAR3, AC0
TMS320C55x Assembler PC v4.4.1 Sat Sep 29 23:08:36 2018

Tools Copyright (c) 1996-2012 Texas Instruments Incorporated
csl_usb_intc_example.asm                                             PAGE   37

    1657 00042e 6D00          BCC $C$L36,AC0 == #0 ; |906| 
         000430 0234 
    1658                                                      ; branchcc occurs ; |906| 
    1659 000432 A96D          MOV *AR3(#12), AR1 ; |906| 
         000434 000C 
    1660 000436 6D19          BCC $C$L36,AR1 != #0 ; |906| 
         000438 022C 
    1661                                                      ; branchcc occurs ; |906| 
    1662                      .dwpsn  file "F:/eZdsp_DBG/tmp1/c55x-sim2/foo/c5535_bsl_revc/ezdsp5535_v1/c55xx_csl/inc/csl_usbAux.h"
    1663 00043a ED6D          MOV dbl(*AR3(#8)), AC0 ; |908| 
         00043c 0800 
         00043e 08   
    1664 00043f ED79          MOV dbl(*AR3(short(#4))), XAR3
         000441 BF   
    1665 000442 5001          SFTL AC0, #-1 ; |908| 
    1666 000444 2209          MOV AC0, AR1 ; |908| 
    1667              
    1668 000446 8E0C          MOV XAR3, dbl(*SP(#6))
         000448 BB10 
         00044a B590 
    1669              ||      AADD AR1, AR3 ; |908| 
    1670              
    1671                      .dwpsn  file "F:/eZdsp_DBG/tmp1/c55x-sim2/foo/c5535_bsl_revc/ezdsp5535_v1/c55xx_csl/inc/csl_usbAux.h"
    1672 00044c ED24          MOV dbl(*SP(#18)), XAR3
         00044e BF   
    1673 00044f ED6D          MOV dbl(*AR3(#8)), AC0 ; |909| 
         000451 0800 
         000453 08   
    1674 000454 ED7D          SUB AC0, dbl(*AR3(short(#6))), AC0 ; |909| 
         000456 04   
    1675 000457 EB10          MOV AC0, dbl(*SP(#8)) ; |909| 
         000459 08   
    1676                      .dwpsn  file "F:/eZdsp_DBG/tmp1/c55x-sim2/foo/c5535_bsl_revc/ezdsp5535_v1/c55xx_csl/inc/csl_usbAux.h"
    1677 00045a ED20          MOV dbl(*SP(#16)), XAR3
         00045c BF   
    1678 00045d A96D          MOV *AR3(#9), AR1 ; |910| 
         00045f 0009 
    1679 000461 C928          MOV AR1, *SP(#20) ; |910| 
    1680                      .dwpsn  file "F:/eZdsp_DBG/tmp1/c55x-sim2/foo/c5535_bsl_revc/ezdsp5535_v1/c55xx_csl/inc/csl_usbAux.h"
    1681 000463 ED20          MOV dbl(*SP(#16)), XAR3
         000465 BF   
    1682 000466 ED10          MOV dbl(*SP(#8)), AC1 ; |913| 
         000468 18   
    1683 000469 ED79          MOV dbl(*AR3(short(#4))), AC0 ; |913| 
         00046b 08   
    1684 00046c 1218          CMPU AC1 >= AC0, TC1 ; |913| 
         00046e 04   
    1685 00046f 62E4          BCC $C$L23,TC1 ; |913| 
    1686                                                      ; branchcc occurs ; |913| 
    1687 000471 ED10          MOV dbl(*SP(#8)), AC0 ; |913| 
         000473 08   
    1688 000474 4A03          B $C$L24  ; |913| 
    1689                                                      ; branch occurs ; |913| 
    1690 000476       $C$L23:    
    1691 000476 ED79          MOV dbl(*AR3(short(#4))), AC0 ; |913| 
TMS320C55x Assembler PC v4.4.1 Sat Sep 29 23:08:36 2018

Tools Copyright (c) 1996-2012 Texas Instruments Incorporated
csl_usb_intc_example.asm                                             PAGE   38

         000478 08   
    1692 000479       $C$L24:    
    1693 000479 EB08          MOV AC0, dbl(*SP(#4)) ; |913| 
         00047b 08   
    1694                      .dwpsn  file "F:/eZdsp_DBG/tmp1/c55x-sim2/foo/c5535_bsl_revc/ezdsp5535_v1/c55xx_csl/inc/csl_usbAux.h"
    1695 00047c ED24          MOV dbl(*SP(#18)), XAR3
         00047e BF   
    1696 00047f F06D          CMP *AR3(#13) == #32, TC1 ; |916| 
         000481 0020 
         000483 000D 
    1697 000485 6474          BCC $C$L25,!TC1 ; |916| 
    1698                                                      ; branchcc occurs ; |916| 
    1699                      .dwpsn  file "F:/eZdsp_DBG/tmp1/c55x-sim2/foo/c5535_bsl_revc/ezdsp5535_v1/c55xx_csl/inc/csl_usbAux.h"
    1700 000487 E66D          MOV #1, *AR3(#12) ; |918| 
         000489 0100 
         00048b 0C   
    1701                      .dwpsn  file "F:/eZdsp_DBG/tmp1/c55x-sim2/foo/c5535_bsl_revc/ezdsp5535_v1/c55xx_csl/inc/csl_usbAux.h"
    1702 00048c 0601          B $C$L35  ; |919| 
         00048e B3   
    1703                                                      ; branch occurs ; |919| 
    1704 00048f       $C$L25:    
    1705                      .dwpsn  file "F:/eZdsp_DBG/tmp1/c55x-sim2/foo/c5535_bsl_revc/ezdsp5535_v1/c55xx_csl/inc/csl_usbAux.h"
    1706 00048f ED20          MOV dbl(*SP(#16)), XAR3
         000491 BF   
    1707 000492 F06D          CMP *AR3(#16) == #1, TC1 ; |922| 
         000494 0001 
         000496 0010 
    1708 000498 6D64          BCC $C$L35,TC1 ; |922| 
         00049a 01A6 
    1709                                                      ; branchcc occurs ; |922| 
    1710                      .dwpsn  file "F:/eZdsp_DBG/tmp1/c55x-sim2/foo/c5535_bsl_revc/ezdsp5535_v1/c55xx_csl/inc/csl_usbAux.h"
    1711 00049c 7602          MOV #512, AC0 ; |925| 
         00049e 0008 
    1712 0004a0 ED08          MOV dbl(*SP(#4)), AC1 ; |925| 
         0004a2 18   
    1713 0004a3 1210          CMPU AC1 == AC0, TC1 ; |925| 
         0004a5 04   
    1714 0004a6 66E4          BCC $C$L26,TC1 ; |925| 
    1715                                                      ; branchcc occurs ; |925| 
    1716 0004a8 7600          MOV #64, AC0 ; |925| 
         0004aa 4008 
    1717 0004ac ED08          MOV dbl(*SP(#4)), AC1 ; |925| 
         0004ae 18   
    1718 0004af 121C          CMPU AC1 != AC0, TC1 ; |925| 
         0004b1 04   
    1719 0004b2 0464          BCC $C$L29,TC1 ; |925| 
         0004b4 5E   
    1720                                                      ; branchcc occurs ; |925| 
    1721 0004b5       $C$L26:    
    1722 0004b5 ED00          MOV dbl(*SP(#0)), XAR3
         0004b7 BF   
    1723 0004b8 F061          CMP *AR3 == #1, TC1 ; |925| 
         0004ba 0001 
    1724 0004bc 63E4          BCC $C$L27,TC1 ; |925| 
    1725                                                      ; branchcc occurs ; |925| 
TMS320C55x Assembler PC v4.4.1 Sat Sep 29 23:08:36 2018

Tools Copyright (c) 1996-2012 Texas Instruments Incorporated
csl_usb_intc_example.asm                                             PAGE   39

    1726 0004be F061          CMP *AR3 == #2, TC1 ; |925| 
         0004c0 0002 
    1727 0004c2 0474          BCC $C$L29,!TC1 ; |925| 
         0004c4 4E   
    1728                                                      ; branchcc occurs ; |925| 
    1729 0004c5       $C$L27:    
    1730                      .dwpsn  file "F:/eZdsp_DBG/tmp1/c55x-sim2/foo/c5535_bsl_revc/ezdsp5535_v1/c55xx_csl/inc/csl_usbAux.h"
    1731 0004c5 ED24          MOV dbl(*SP(#18)), XAR3
         0004c7 BF   
    1732 0004c8 ED08          MOV dbl(*SP(#4)), AC0 ; |929| 
         0004ca 08   
    1733 0004cb ED6D          ADD dbl(*AR3(#8)), AC0, AC0 ; |929| 
         0004cd 0000 
         0004cf 08   
    1734 0004d0 EB6D          MOV AC0, dbl(*AR3(#8)) ; |929| 
         0004d2 0800 
         0004d4 08   
    1735                      .dwpsn  file "F:/eZdsp_DBG/tmp1/c55x-sim2/foo/c5535_bsl_revc/ezdsp5535_v1/c55xx_csl/inc/csl_usbAux.h"
    1736 0004d5 ED24          MOV dbl(*SP(#18)), XAR3
         0004d7 BF   
    1737 0004d8 ED08          MOV dbl(*SP(#4)), AC0 ; |930| 
         0004da 08   
    1738 0004db EB6D          MOV AC0, dbl(*AR3(#10)) ; |930| 
         0004dd 0800 
         0004df 0A   
    1739                      .dwpsn  file "F:/eZdsp_DBG/tmp1/c55x-sim2/foo/c5535_bsl_revc/ezdsp5535_v1/c55xx_csl/inc/csl_usbAux.h"
    1740 0004e0 ED04          MOV dbl(*SP(#2)), AC0 ; |932| 
         0004e2 08   
    1741              $C$DW$171       .dwtag  DW_TAG_TI_branch
    1742                      .dwattr $C$DW$171, DW_AT_low_pc(0x00)
    1743                      .dwattr $C$DW$171, DW_AT_name("_USB_dmaTxStart")
    1744                      .dwattr $C$DW$171, DW_AT_TI_call
    1745 0004e3 08FB          CALL #_USB_dmaTxStart ; |932| 
         0004e5 6E   
    1746                                                      ; call occurs [#_USB_dmaTxStart] ; |932| 
    1747                      .dwpsn  file "F:/eZdsp_DBG/tmp1/c55x-sim2/foo/c5535_bsl_revc/ezdsp5535_v1/c55xx_csl/inc/csl_usbAux.h"
    1748 0004e6 ED24          MOV dbl(*SP(#18)), XAR3
         0004e8 BF   
    1749 0004e9 ED6D          MOV dbl(*AR3(#8)), AC1 ; |934| 
         0004eb 1800 
         0004ed 08   
    1750 0004ee ED7D          MOV dbl(*AR3(short(#6))), AC0 ; |934| 
         0004f0 08   
    1751 0004f1 121C          CMPU AC1 != AC0, TC1 ; |934| 
         0004f3 04   
    1752 0004f4 6464          BCC $C$L28,TC1 ; |934| 
    1753                                                      ; branchcc occurs ; |934| 
    1754                      .dwpsn  file "F:/eZdsp_DBG/tmp1/c55x-sim2/foo/c5535_bsl_revc/ezdsp5535_v1/c55xx_csl/inc/csl_usbAux.h"
    1755 0004f6 E66D          MOV #1, *AR3(#12) ; |936| 
         0004f8 0100 
         0004fa 0C   
    1756                      .dwpsn  file "F:/eZdsp_DBG/tmp1/c55x-sim2/foo/c5535_bsl_revc/ezdsp5535_v1/c55xx_csl/inc/csl_usbAux.h"
    1757 0004fb 0601          B $C$L35  ; |937| 
         0004fd 44   
    1758                                                      ; branch occurs ; |937| 
TMS320C55x Assembler PC v4.4.1 Sat Sep 29 23:08:36 2018

Tools Copyright (c) 1996-2012 Texas Instruments Incorporated
csl_usb_intc_example.asm                                             PAGE   40

    1759 0004fe       $C$L28:    
    1760                      .dwpsn  file "F:/eZdsp_DBG/tmp1/c55x-sim2/foo/c5535_bsl_revc/ezdsp5535_v1/c55xx_csl/inc/csl_usbAux.h"
    1761 0004fe ED00          MOV dbl(*SP(#0)), XAR3
         000500 BF   
    1762 000501 ED00          MOV dbl(*SP(#0)), XAR0
         000503 8F   
    1763 000504 ED20          MOV dbl(*SP(#16)), XAR1
         000506 9F   
    1764 000507 ED6D          MOV dbl(*AR3(#116)), AC0 ; |940| 
         000509 0800 
         00050b 74   
    1765              $C$DW$172       .dwtag  DW_TAG_TI_branch
    1766                      .dwattr $C$DW$172, DW_AT_low_pc(0x00)
    1767                      .dwattr $C$DW$172, DW_AT_TI_call
    1768                      .dwattr $C$DW$172, DW_AT_TI_indirect
    1769 00050c 9200          CALL AC0  ; |940| 
    1770                                                      ; call occurs [AC0] ; |940| 
    1771 00050e C41C          MOV T0, *SP(#14) ; |940| 
    1772                      .dwpsn  file "F:/eZdsp_DBG/tmp1/c55x-sim2/foo/c5535_bsl_revc/ezdsp5535_v1/c55xx_csl/inc/csl_usbAux.h"
    1773 000510 0601          B $C$L35  ; |942| 
         000512 2F   
    1774                                                      ; branch occurs ; |942| 
    1775 000513       $C$L29:    
    1776                      .dwpsn  file "F:/eZdsp_DBG/tmp1/c55x-sim2/foo/c5535_bsl_revc/ezdsp5535_v1/c55xx_csl/inc/csl_usbAux.h"
    1777 000513 7604          MOV #1038, T0 ; |957| 
         000515 0E48 
    1778 000517 AB31          MOV *(#_usbRegisters), AR3 ; |957| 
         000519 0000 
         00051b 00!  
    1779 00051c A96B          MOV port(*AR3(T0)), AR1 ; |957| 
         00051e 99   
    1780 00051f C91A          MOV AR1, *SP(#13) ; |957| 
    1781                      .dwpsn  file "F:/eZdsp_DBG/tmp1/c55x-sim2/foo/c5535_bsl_revc/ezdsp5535_v1/c55xx_csl/inc/csl_usbAux.h"
    1782 000521 A96B          MOV port(*AR3(T0)), AR1 ; |960| 
         000523 99   
    1783 000524 7DFF          AND #0xfff0, AR1, AC0 ; |960| 
         000526 F009 
    1784 000528 C06B          MOV AC0, port(*AR3(T0)) ; |960| 
         00052a 9A   
    1785                      .dwpsn  file "F:/eZdsp_DBG/tmp1/c55x-sim2/foo/c5535_bsl_revc/ezdsp5535_v1/c55xx_csl/inc/csl_usbAux.h"
    1786 00052b AB31          MOV *(#_usbRegisters), AR3 ; |964| 
         00052d 0000 
         00052f 00!  
    1787 000530 ED04          MOV dbl(*SP(#2)), AC0 ; |964| 
         000532 08   
    1788 000533 180F          AND #0x000f, AC0, AC0 ; |964| 
         000535 00   
    1789 000536 A96B          MOV port(*AR3(T0)), AR1 ; |964| 
         000538 99   
    1790 000539 7DFF          AND #0xfff0, AR1, AC1 ; |964| 
         00053b F019 
    1791 00053d 2A10          OR AC1, AC0 ; |964| 
    1792 00053f C06B          MOV AC0, port(*AR3(T0)) ; |964| 
         000541 9A   
    1793                      .dwpsn  file "F:/eZdsp_DBG/tmp1/c55x-sim2/foo/c5535_bsl_revc/ezdsp5535_v1/c55xx_csl/inc/csl_usbAux.h"
TMS320C55x Assembler PC v4.4.1 Sat Sep 29 23:08:36 2018

Tools Copyright (c) 1996-2012 Texas Instruments Incorporated
csl_usb_intc_example.asm                                             PAGE   41

    1794 000542 7604          MOV #1042, T0 ; |969| 
         000544 1248 
    1795 000546 AB31          MOV *(#_usbRegisters), AR3 ; |969| 
         000548 0000 
         00054a 00!  
    1796 00054b A96B          MOV port(*AR3(T0)), AR1 ; |969| 
         00054d 99   
    1797 00054e EC06          BCLR @#3, AR1 ; |969| 
         000550 92   
    1798 000551 EC06          BSET @#3, AR1 ; |969| 
         000553 90   
    1799 000554 C96B          MOV AR1, port(*AR3(T0)) ; |969| 
         000556 9A   
    1800                      .dwpsn  file "F:/eZdsp_DBG/tmp1/c55x-sim2/foo/c5535_bsl_revc/ezdsp5535_v1/c55xx_csl/inc/csl_usbAux.h"
    1801 000557 ED08          MOV dbl(*SP(#4)), AC0 ; |972| 
         000559 08   
    1802 00055a 0400          BCC $C$L32,AC0 == #0 ; |972| 
         00055c 76   
    1803                                                      ; branchcc occurs ; |972| 
    1804                      .dwpsn  file "F:/eZdsp_DBG/tmp1/c55x-sim2/foo/c5535_bsl_revc/ezdsp5535_v1/c55xx_csl/inc/csl_usbAux.h"
    1805 00055d ED08          MOV dbl(*SP(#4)), AC0 ; |975| 
         00055f 08   
    1806 000560 EB14          MOV AC0, dbl(*SP(#10)) ; |975| 
         000562 08   
    1807                      .dwpsn  file "F:/eZdsp_DBG/tmp1/c55x-sim2/foo/c5535_bsl_revc/ezdsp5535_v1/c55xx_csl/inc/csl_usbAux.h"
    1808 000563 E618          MOV #0, *SP(#12) ; |977| 
         000565 00   
    1809                      .dwpsn  file "F:/eZdsp_DBG/tmp1/c55x-sim2/foo/c5535_bsl_revc/ezdsp5535_v1/c55xx_csl/inc/csl_usbAux.h"
    1810 000566 ED08          MOV dbl(*SP(#4)), AC0 ; |977| 
         000568 08   
    1811              
    1812 00056c 5101          SFTL AC0, #-1 ; |977| 
    1813 000569 DF18  ||      MOV uns(*SP(#12)), AC1 ; |977| 
         00056b 15   
    1814              
    1815 00056e 1218          CMPU AC1 >= AC0, TC1 ; |977| 
         000570 04   
    1816 000571 0464          BCC $C$L31,TC1 ; |977| 
         000573 1F   
    1817                                                      ; branchcc occurs ; |977| 
    1818 000574       $C$L30:    
    1819 000574       $C$DW$L$_USB_handleTx$19$B:
    1820                      .dwpsn  file "F:/eZdsp_DBG/tmp1/c55x-sim2/foo/c5535_bsl_revc/ezdsp5535_v1/c55xx_csl/inc/csl_usbAux.h"
    1821 000574 ED0C          MOV dbl(*SP(#6)), XAR3
         000576 BF   
    1822 000577 A963          MOV *AR3+, AR1 ; |979| 
    1823 000579 EB0C          MOV XAR3, dbl(*SP(#6))
         00057b B5   
    1824 00057c AB28          MOV *SP(#20), AR3 ; |979| 
    1825 00057e C961          MOV AR1, port(*AR3) ; |979| 
         000580 9A   
    1826                      .dwpsn  file "F:/eZdsp_DBG/tmp1/c55x-sim2/foo/c5535_bsl_revc/ezdsp5535_v1/c55xx_csl/inc/csl_usbAux.h"
    1827 000581 F718          ADD #1, *SP(#12) ; |977| 
         000583 0001 
    1828                      .dwpsn  file "F:/eZdsp_DBG/tmp1/c55x-sim2/foo/c5535_bsl_revc/ezdsp5535_v1/c55xx_csl/inc/csl_usbAux.h"
TMS320C55x Assembler PC v4.4.1 Sat Sep 29 23:08:36 2018

Tools Copyright (c) 1996-2012 Texas Instruments Incorporated
csl_usb_intc_example.asm                                             PAGE   42

    1829 000585 ED08          MOV dbl(*SP(#4)), AC0 ; |977| 
         000587 08   
    1830              
    1831 00058b 5101          SFTL AC0, #-1 ; |977| 
    1832 000588 DF18  ||      MOV uns(*SP(#12)), AC1 ; |977| 
         00058a 15   
    1833              
    1834 00058d 1214          CMPU AC1 < AC0, TC1 ; |977| 
         00058f 04   
    1835 000590 0464          BCC $C$L30,TC1 ; |977| 
         000592 E1   
    1836                                                      ; branchcc occurs ; |977| 
    1837 000593       $C$DW$L$_USB_handleTx$19$E:
    1838 000593       $C$L31:    
    1839                      .dwpsn  file "F:/eZdsp_DBG/tmp1/c55x-sim2/foo/c5535_bsl_revc/ezdsp5535_v1/c55xx_csl/inc/csl_usbAux.h"
    1840 000593 ED08          MOV dbl(*SP(#4)), AC0 ; |982| 
         000595 08   
    1841 000596 1801          AND #0x0001, AC0, AC0 ; |982| 
         000598 00   
    1842 000599 0400          BCC $C$L32,AC0 == #0 ; |982| 
         00059b 37   
    1843                                                      ; branchcc occurs ; |982| 
    1844                      .dwpsn  file "F:/eZdsp_DBG/tmp1/c55x-sim2/foo/c5535_bsl_revc/ezdsp5535_v1/c55xx_csl/inc/csl_usbAux.h"
    1845 00059c 7600          MOV #50, T0 ; |985| 
         00059e 3248 
    1846 0005a0 AB31          MOV *(#_sysCtrlRegs), AR3 ; |985| 
         0005a2 0000 
         0005a4 00!  
    1847 0005a5 A96B          MOV port(*AR3(T0)), AR1 ; |985| 
         0005a7 99   
    1848 0005a8 7DFF          AND #0xfffc, AR1, AC0 ; |985| 
         0005aa FC09 
    1849 0005ac EC02          BSET @#1, AC0 ; |985| 
         0005ae 00   
    1850 0005af C06B          MOV AC0, port(*AR3(T0)) ; |985| 
         0005b1 9A   
    1851                      .dwpsn  file "F:/eZdsp_DBG/tmp1/c55x-sim2/foo/c5535_bsl_revc/ezdsp5535_v1/c55xx_csl/inc/csl_usbAux.h"
    1852 0005b2 AB28          MOV *SP(#20), AR3 ; |987| 
    1853 0005b4 A961          MOV port(*AR3), AR1 ; |987| 
         0005b6 99   
    1854 0005b7 ED0C          MOV dbl(*SP(#6)), XAR3
         0005b9 BF   
    1855 0005ba A961          MOV *AR3, AR1 ; |987| 
    1856 0005bc AB28          MOV *SP(#20), AR3 ; |987| 
    1857 0005be 1A00          OR #0x0000, AR1, AR1 ; |987| 
         0005c0 99   
    1858 0005c1 C961          MOV AR1, port(*AR3) ; |987| 
         0005c3 9A   
    1859                      .dwpsn  file "F:/eZdsp_DBG/tmp1/c55x-sim2/foo/c5535_bsl_revc/ezdsp5535_v1/c55xx_csl/inc/csl_usbAux.h"
    1860 0005c4 AB31          MOV *(#_sysCtrlRegs), AR3 ; |990| 
         0005c6 0000 
         0005c8 00!  
    1861 0005c9 A96B          MOV port(*AR3(T0)), AR1 ; |990| 
         0005cb 99   
    1862 0005cc 7DFF          AND #0xfffc, AR1, AC0 ; |990| 
TMS320C55x Assembler PC v4.4.1 Sat Sep 29 23:08:36 2018

Tools Copyright (c) 1996-2012 Texas Instruments Incorporated
csl_usb_intc_example.asm                                             PAGE   43

         0005ce FC09 
    1863 0005d0 C06B          MOV AC0, port(*AR3(T0)) ; |990| 
         0005d2 9A   
    1864 0005d3       $C$L32:    
    1865                      .dwpsn  file "F:/eZdsp_DBG/tmp1/c55x-sim2/foo/c5535_bsl_revc/ezdsp5535_v1/c55xx_csl/inc/csl_usbAux.h"
    1866 0005d3 ED20          MOV dbl(*SP(#16)), XAR3
         0005d5 BF   
    1867 0005d6 F075          CMP *AR3(short(#2)) == #3, TC1 ; |995| 
         0005d8 0003 
    1868 0005da 6774          BCC $C$L33,!TC1 ; |995| 
    1869                                                      ; branchcc occurs ; |995| 
    1870                      .dwpsn  file "F:/eZdsp_DBG/tmp1/c55x-sim2/foo/c5535_bsl_revc/ezdsp5535_v1/c55xx_csl/inc/csl_usbAux.h"
    1871 0005dc 7604          MOV #1042, T0 ; |997| 
         0005de 1248 
    1872 0005e0 AB31          MOV *(#_usbRegisters), AR3 ; |997| 
         0005e2 0000 
         0005e4 00!  
    1873 0005e5 F56B          OR #0x0040, port(*AR3(T0)) ; |997| 
         0005e7 0040 
         0005e9 9A   
    1874 0005ea       $C$L33:    
    1875                      .dwpsn  file "F:/eZdsp_DBG/tmp1/c55x-sim2/foo/c5535_bsl_revc/ezdsp5535_v1/c55xx_csl/inc/csl_usbAux.h"
    1876 0005ea 7604          MOV #1042, T0 ; |1002| 
         0005ec 1248 
    1877 0005ee AB31          MOV *(#_usbRegisters), AR3 ; |1002| 
         0005f0 0000 
         0005f2 00!  
    1878 0005f3 A96B          MOV port(*AR3(T0)), AR1 ; |1002| 
         0005f5 99   
    1879 0005f6 EC00          BCLR @#0, AR1 ; |1002| 
         0005f8 92   
    1880 0005f9 EC00          BSET @#0, AR1 ; |1002| 
         0005fb 90   
    1881 0005fc C96B          MOV AR1, port(*AR3(T0)) ; |1002| 
         0005fe 9A   
    1882                      .dwpsn  file "F:/eZdsp_DBG/tmp1/c55x-sim2/foo/c5535_bsl_revc/ezdsp5535_v1/c55xx_csl/inc/csl_usbAux.h"
    1883 0005ff 7604          MOV #1038, T0 ; |1006| 
         000601 0E48 
    1884 000603 AB31          MOV *(#_usbRegisters), AR3 ; |1006| 
         000605 0000 
         000607 00!  
    1885 000608 A91A          MOV *SP(#13), AR1 ; |1006| 
    1886 00060a C96B          MOV AR1, port(*AR3(T0)) ; |1006| 
         00060c 9A   
    1887                      .dwpsn  file "F:/eZdsp_DBG/tmp1/c55x-sim2/foo/c5535_bsl_revc/ezdsp5535_v1/c55xx_csl/inc/csl_usbAux.h"
    1888 00060d ED24          MOV dbl(*SP(#18)), XAR3
         00060f BF   
    1889 000610 ED14          MOV dbl(*SP(#10)), AC0 ; |1009| 
         000612 08   
    1890 000613 ED6D          ADD dbl(*AR3(#8)), AC0, AC0 ; |1009| 
         000615 0000 
         000617 08   
    1891 000618 EB6D          MOV AC0, dbl(*AR3(#8)) ; |1009| 
         00061a 0800 
         00061c 08   
TMS320C55x Assembler PC v4.4.1 Sat Sep 29 23:08:36 2018

Tools Copyright (c) 1996-2012 Texas Instruments Incorporated
csl_usb_intc_example.asm                                             PAGE   44

    1892                      .dwpsn  file "F:/eZdsp_DBG/tmp1/c55x-sim2/foo/c5535_bsl_revc/ezdsp5535_v1/c55xx_csl/inc/csl_usbAux.h"
    1893 00061d ED24          MOV dbl(*SP(#18)), XAR3
         00061f BF   
    1894 000620 ED14          MOV dbl(*SP(#10)), AC0 ; |1010| 
         000622 08   
    1895 000623 EB6D          MOV AC0, dbl(*AR3(#10)) ; |1010| 
         000625 0800 
         000627 0A   
    1896                      .dwpsn  file "F:/eZdsp_DBG/tmp1/c55x-sim2/foo/c5535_bsl_revc/ezdsp5535_v1/c55xx_csl/inc/csl_usbAux.h"
    1897 000628 ED24          MOV dbl(*SP(#18)), XAR3
         00062a BF   
    1898 00062b ED6D          MOV dbl(*AR3(#8)), AC1 ; |1012| 
         00062d 1800 
         00062f 08   
    1899 000630 ED7D          MOV dbl(*AR3(short(#6))), AC0 ; |1012| 
         000632 08   
    1900 000633 1210          CMPU AC1 == AC0, TC1 ; |1012| 
         000635 04   
    1901 000636 62E4          BCC $C$L34,TC1 ; |1012| 
    1902                                                      ; branchcc occurs ; |1012| 
    1903 000638 ED14          MOV dbl(*SP(#10)), AC0 ; |1012| 
         00063a 08   
    1904 00063b 6290          BCC $C$L35,AC0 != #0 ; |1012| 
    1905                                                      ; branchcc occurs ; |1012| 
    1906 00063d       $C$L34:    
    1907                      .dwpsn  file "F:/eZdsp_DBG/tmp1/c55x-sim2/foo/c5535_bsl_revc/ezdsp5535_v1/c55xx_csl/inc/csl_usbAux.h"
    1908 00063d E66D          MOV #1, *AR3(#12) ; |1015| 
         00063f 0100 
         000641 0C   
    1909 000642       $C$L35:    
    1910                      .dwpsn  file "F:/eZdsp_DBG/tmp1/c55x-sim2/foo/c5535_bsl_revc/ezdsp5535_v1/c55xx_csl/inc/csl_usbAux.h"
    1911 000642 ED24          MOV dbl(*SP(#18)), XAR3
         000644 BF   
    1912 000645 A96D          MOV *AR3(#12), AR1 ; |1021| 
         000647 000C 
    1913 000649 0409          BCC $C$L38,AR1 == #0 ; |1021| 
         00064b 22   
    1914                                                      ; branchcc occurs ; |1021| 
    1915                      .dwpsn  file "F:/eZdsp_DBG/tmp1/c55x-sim2/foo/c5535_bsl_revc/ezdsp5535_v1/c55xx_csl/inc/csl_usbAux.h"
    1916 00064c ED00          MOV dbl(*SP(#0)), XAR3
         00064e BF   
    1917 00064f E67B          MOV #0, *AR3(short(#5)) ; |1023| 
         000651 00   
    1918                      .dwpsn  file "F:/eZdsp_DBG/tmp1/c55x-sim2/foo/c5535_bsl_revc/ezdsp5535_v1/c55xx_csl/inc/csl_usbAux.h"
    1919 000652 ED00          MOV dbl(*SP(#0)), XAR3
         000654 BF   
    1920 000655 ED00          MOV dbl(*SP(#0)), XAR0
         000657 8F   
    1921 000658 ED20          MOV dbl(*SP(#16)), XAR1
         00065a 9F   
    1922 00065b ED6D          MOV dbl(*AR3(#116)), AC0 ; |1024| 
         00065d 0800 
         00065f 74   
    1923              $C$DW$173       .dwtag  DW_TAG_TI_branch
    1924                      .dwattr $C$DW$173, DW_AT_low_pc(0x00)
TMS320C55x Assembler PC v4.4.1 Sat Sep 29 23:08:36 2018

Tools Copyright (c) 1996-2012 Texas Instruments Incorporated
csl_usb_intc_example.asm                                             PAGE   45

    1925                      .dwattr $C$DW$173, DW_AT_TI_call
    1926                      .dwattr $C$DW$173, DW_AT_TI_indirect
    1927 000660 9200          CALL AC0  ; |1024| 
    1928                                                      ; call occurs [AC0] ; |1024| 
    1929 000662 C41C          MOV T0, *SP(#14) ; |1024| 
    1930                      .dwpsn  file "F:/eZdsp_DBG/tmp1/c55x-sim2/foo/c5535_bsl_revc/ezdsp5535_v1/c55xx_csl/inc/csl_usbAux.h"
    1931 000664 4A08          B $C$L38  ; |1026| 
    1932                                                      ; branch occurs ; |1026| 
    1933 000666       $C$L36:    
    1934                      .dwpsn  file "F:/eZdsp_DBG/tmp1/c55x-sim2/foo/c5535_bsl_revc/ezdsp5535_v1/c55xx_csl/inc/csl_usbAux.h"
    1935 000666 E61C          MOV #-6, *SP(#14) ; |1029| 
         000668 FA   
    1936                      .dwpsn  file "F:/eZdsp_DBG/tmp1/c55x-sim2/foo/c5535_bsl_revc/ezdsp5535_v1/c55xx_csl/inc/csl_usbAux.h"
    1937 000669 4A03          B $C$L38  ; |1031| 
    1938                                                      ; branch occurs ; |1031| 
    1939 00066b       $C$L37:    
    1940                      .dwpsn  file "F:/eZdsp_DBG/tmp1/c55x-sim2/foo/c5535_bsl_revc/ezdsp5535_v1/c55xx_csl/inc/csl_usbAux.h"
    1941 00066b E61C          MOV #-6, *SP(#14) ; |1034| 
         00066d FA   
    1942 00066e       $C$L38:    
    1943                      .dwpsn  file "F:/eZdsp_DBG/tmp1/c55x-sim2/foo/c5535_bsl_revc/ezdsp5535_v1/c55xx_csl/inc/csl_usbAux.h"
    1944 00066e A41C          MOV *SP(#14), T0 ; |1037| 
    1945                      .dwpsn  file "F:/eZdsp_DBG/tmp1/c55x-sim2/foo/c5535_bsl_revc/ezdsp5535_v1/c55xx_csl/inc/csl_usbAux.h"
    1946 000670 4E15          AADD #21, SP
    1947                      .dwcfi  cfa_offset, 1
    1948              $C$DW$174       .dwtag  DW_TAG_TI_branch
    1949                      .dwattr $C$DW$174, DW_AT_low_pc(0x00)
    1950                      .dwattr $C$DW$174, DW_AT_TI_return
    1951 000672 4804          RET
    1952                                                      ; return occurs
    1953              
    1954              $C$DW$175       .dwtag  DW_TAG_TI_loop
    1955                      .dwattr $C$DW$175, DW_AT_name("F:\eZdsp_DBG\tmp1\c55x-sim2\foo\Debug\csl_usb_intc_example.asm:$C$L30:
    1956                      .dwattr $C$DW$175, DW_AT_TI_begin_file("F:/eZdsp_DBG/tmp1/c55x-sim2/foo/c5535_bsl_revc/ezdsp5535_v1/c
    1957                      .dwattr $C$DW$175, DW_AT_TI_begin_line(0x3d1)
    1958                      .dwattr $C$DW$175, DW_AT_TI_end_line(0x3d4)
    1959              $C$DW$176       .dwtag  DW_TAG_TI_loop_range
    1960                      .dwattr $C$DW$176, DW_AT_low_pc($C$DW$L$_USB_handleTx$19$B)
    1961                      .dwattr $C$DW$176, DW_AT_high_pc($C$DW$L$_USB_handleTx$19$E)
    1962                      .dwendtag $C$DW$175
    1963              
    1964                      .dwattr $C$DW$156, DW_AT_TI_end_file("F:/eZdsp_DBG/tmp1/c55x-sim2/foo/c5535_bsl_revc/ezdsp5535_v1/c55
    1965                      .dwattr $C$DW$156, DW_AT_TI_end_line(0x40e)
    1966                      .dwattr $C$DW$156, DW_AT_TI_end_column(0x01)
    1967                      .dwendentry
    1968                      .dwendtag $C$DW$156
    1969              
    1970 000674               .sect   ".text"
    1971                      .align 4
    1972              
    1973              $C$DW$177       .dwtag  DW_TAG_subprogram, DW_AT_name("USB_handleRx")
    1974                      .dwattr $C$DW$177, DW_AT_low_pc(_USB_handleRx)
    1975                      .dwattr $C$DW$177, DW_AT_high_pc(0x00)
    1976                      .dwattr $C$DW$177, DW_AT_TI_symbol_name("_USB_handleRx")
    1977                      .dwattr $C$DW$177, DW_AT_type(*$C$DW$T$80)
TMS320C55x Assembler PC v4.4.1 Sat Sep 29 23:08:36 2018

Tools Copyright (c) 1996-2012 Texas Instruments Incorporated
csl_usb_intc_example.asm                                             PAGE   46

    1978                      .dwattr $C$DW$177, DW_AT_TI_begin_file("F:/eZdsp_DBG/tmp1/c55x-sim2/foo/c5535_bsl_revc/ezdsp5535_v1/c
    1979                      .dwattr $C$DW$177, DW_AT_TI_begin_line(0x453)
    1980                      .dwattr $C$DW$177, DW_AT_TI_begin_column(0x0c)
    1981                      .dwattr $C$DW$177, DW_AT_TI_max_frame_size(0x16)
    1982                      .dwpsn  file "F:/eZdsp_DBG/tmp1/c55x-sim2/foo/c5535_bsl_revc/ezdsp5535_v1/c55xx_csl/inc/csl_usbAux.h"
    1983              
    1984                      .dwfde $C$DW$CIE, _USB_handleRx
    1985              $C$DW$178       .dwtag  DW_TAG_formal_parameter, DW_AT_name("pContext")
    1986                      .dwattr $C$DW$178, DW_AT_TI_symbol_name("_pContext")
    1987                      .dwattr $C$DW$178, DW_AT_type(*$C$DW$T$146)
    1988                      .dwattr $C$DW$178, DW_AT_location[DW_OP_reg17]
    1989              $C$DW$179       .dwtag  DW_TAG_formal_parameter, DW_AT_name("dwEndpoint")
    1990                      .dwattr $C$DW$179, DW_AT_TI_symbol_name("_dwEndpoint")
    1991                      .dwattr $C$DW$179, DW_AT_type(*$C$DW$T$88)
    1992                      .dwattr $C$DW$179, DW_AT_location[DW_OP_reg0]
    1993              ;*******************************************************************************
    1994              ;* FUNCTION NAME: USB_handleRx                                                 *
    1995              ;*                                                                             *
    1996              ;*   Function Uses Regs : AC0,AC0,AC1,AC1,T0,AR0,XAR0,AR1,XAR1,AR2,XAR2,AR3,   *
    1997              ;*                        XAR3,SP,CARRY,TC1,M40,SATA,SATD,RDM,FRCT,SMUL        *
    1998              ;*   Stack Frame        : Compact (No Frame Pointer, w/ debug)                 *
    1999              ;*   Total Frame Size   : 22 words                                             *
    2000              ;*                        (2 return address/alignment)                         *
    2001              ;*                        (20 local values)                                    *
    2002              ;*   Min System Stack   : 1 word                                               *
    2003              ;*******************************************************************************
    2004 000674       _USB_handleRx:
    2005                      .dwcfi  cfa_offset, 1
    2006                      .dwcfi  save_reg_to_mem, 91, -1
    2007 000674 4EEB          AADD #-21, SP
    2008                      .dwcfi  cfa_offset, 22
    2009              $C$DW$180       .dwtag  DW_TAG_variable, DW_AT_name("pContext")
    2010                      .dwattr $C$DW$180, DW_AT_TI_symbol_name("_pContext")
    2011                      .dwattr $C$DW$180, DW_AT_type(*$C$DW$T$146)
    2012                      .dwattr $C$DW$180, DW_AT_location[DW_OP_bregx 0x24 0]
    2013              $C$DW$181       .dwtag  DW_TAG_variable, DW_AT_name("dwEndpoint")
    2014                      .dwattr $C$DW$181, DW_AT_TI_symbol_name("_dwEndpoint")
    2015                      .dwattr $C$DW$181, DW_AT_type(*$C$DW$T$88)
    2016                      .dwattr $C$DW$181, DW_AT_location[DW_OP_bregx 0x24 2]
    2017              $C$DW$182       .dwtag  DW_TAG_variable, DW_AT_name("cbToRead")
    2018                      .dwattr $C$DW$182, DW_AT_TI_symbol_name("_cbToRead")
    2019                      .dwattr $C$DW$182, DW_AT_type(*$C$DW$T$88)
    2020                      .dwattr $C$DW$182, DW_AT_location[DW_OP_bregx 0x24 4]
    2021              $C$DW$183       .dwtag  DW_TAG_variable, DW_AT_name("cbBuffer")
    2022                      .dwattr $C$DW$183, DW_AT_TI_symbol_name("_cbBuffer")
    2023                      .dwattr $C$DW$183, DW_AT_type(*$C$DW$T$88)
    2024                      .dwattr $C$DW$183, DW_AT_location[DW_OP_bregx 0x24 6]
    2025              $C$DW$184       .dwtag  DW_TAG_variable, DW_AT_name("dwBytesRead")
    2026                      .dwattr $C$DW$184, DW_AT_TI_symbol_name("_dwBytesRead")
    2027                      .dwattr $C$DW$184, DW_AT_type(*$C$DW$T$88)
    2028                      .dwattr $C$DW$184, DW_AT_location[DW_OP_bregx 0x24 8]
    2029              $C$DW$185       .dwtag  DW_TAG_variable, DW_AT_name("pwBuffer")
    2030                      .dwattr $C$DW$185, DW_AT_TI_symbol_name("_pwBuffer")
    2031                      .dwattr $C$DW$185, DW_AT_type(*$C$DW$T$87)
    2032                      .dwattr $C$DW$185, DW_AT_location[DW_OP_bregx 0x24 10]
TMS320C55x Assembler PC v4.4.1 Sat Sep 29 23:08:36 2018

Tools Copyright (c) 1996-2012 Texas Instruments Incorporated
csl_usb_intc_example.asm                                             PAGE   47

    2033              $C$DW$186       .dwtag  DW_TAG_variable, DW_AT_name("pTransfer")
    2034                      .dwattr $C$DW$186, DW_AT_TI_symbol_name("_pTransfer")
    2035                      .dwattr $C$DW$186, DW_AT_type(*$C$DW$T$152)
    2036                      .dwattr $C$DW$186, DW_AT_location[DW_OP_bregx 0x24 12]
    2037              $C$DW$187       .dwtag  DW_TAG_variable, DW_AT_name("status")
    2038                      .dwattr $C$DW$187, DW_AT_TI_symbol_name("_status")
    2039                      .dwattr $C$DW$187, DW_AT_type(*$C$DW$T$80)
    2040                      .dwattr $C$DW$187, DW_AT_location[DW_OP_bregx 0x24 14]
    2041              $C$DW$188       .dwtag  DW_TAG_variable, DW_AT_name("saveIndex")
    2042                      .dwattr $C$DW$188, DW_AT_TI_symbol_name("_saveIndex")
    2043                      .dwattr $C$DW$188, DW_AT_type(*$C$DW$T$19)
    2044                      .dwattr $C$DW$188, DW_AT_location[DW_OP_bregx 0x24 15]
    2045              $C$DW$189       .dwtag  DW_TAG_variable, DW_AT_name("peps")
    2046                      .dwattr $C$DW$189, DW_AT_TI_symbol_name("_peps")
    2047                      .dwattr $C$DW$189, DW_AT_type(*$C$DW$T$150)
    2048                      .dwattr $C$DW$189, DW_AT_location[DW_OP_bregx 0x24 16]
    2049              $C$DW$190       .dwtag  DW_TAG_variable, DW_AT_name("count")
    2050                      .dwattr $C$DW$190, DW_AT_TI_symbol_name("_count")
    2051                      .dwattr $C$DW$190, DW_AT_type(*$C$DW$T$20)
    2052                      .dwattr $C$DW$190, DW_AT_location[DW_OP_bregx 0x24 18]
    2053              $C$DW$191       .dwtag  DW_TAG_variable, DW_AT_name("pFifoAddr")
    2054                      .dwattr $C$DW$191, DW_AT_TI_symbol_name("_pFifoAddr")
    2055                      .dwattr $C$DW$191, DW_AT_type(*$C$DW$T$195)
    2056                      .dwattr $C$DW$191, DW_AT_location[DW_OP_bregx 0x24 19]
    2057 000676 EB04          MOV AC0, dbl(*SP(#2)) ; |1109| 
         000678 08   
    2058 000679 EB00          MOV XAR0, dbl(*SP(#0))
         00067b 85   
    2059                      .dwpsn  file "F:/eZdsp_DBG/tmp1/c55x-sim2/foo/c5535_bsl_revc/ezdsp5535_v1/c55xx_csl/inc/csl_usbAux.h"
    2060 00067c E61C          MOV #0, *SP(#14) ; |1121| 
         00067e 00   
    2061                      .dwpsn  file "F:/eZdsp_DBG/tmp1/c55x-sim2/foo/c5535_bsl_revc/ezdsp5535_v1/c55xx_csl/inc/csl_usbAux.h"
    2062 00067f 3C00          MOV #0, AC0 ; |1122| 
    2063 000681 EB10          MOV AC0, dbl(*SP(#8)) ; |1122| 
         000683 08   
    2064                      .dwpsn  file "F:/eZdsp_DBG/tmp1/c55x-sim2/foo/c5535_bsl_revc/ezdsp5535_v1/c55xx_csl/inc/csl_usbAux.h"
    2065 000684 ED00          MOV dbl(*SP(#0)), XAR3
         000686 BF   
    2066 000687 90B0          MOV XAR3, AC0
    2067 000689 6D00          BCC $C$L51,AC0 == #0 ; |1124| 
         00068b 0221 
    2068                                                      ; branchcc occurs ; |1124| 
    2069                      .dwpsn  file "F:/eZdsp_DBG/tmp1/c55x-sim2/foo/c5535_bsl_revc/ezdsp5535_v1/c55xx_csl/inc/csl_usbAux.h"
    2070 00068d ED6D          MOV dbl(*AR3(#98)), XAR3
         00068f BF00 
         000691 62   
    2071 000692 F806          MPYMK *SP(#3), #18, AC0 ; |1126| 
         000694 1200 
    2072 000696 2209          MOV AC0, AR1 ; |1126| 
    2073              
    2074 000698 8E20          MOV XAR3, dbl(*SP(#16))
         00069a BB10 
         00069c B590 
    2075              ||      AADD AR1, AR3 ; |1126| 
    2076              
TMS320C55x Assembler PC v4.4.1 Sat Sep 29 23:08:36 2018

Tools Copyright (c) 1996-2012 Texas Instruments Incorporated
csl_usb_intc_example.asm                                             PAGE   48

    2077                      .dwpsn  file "F:/eZdsp_DBG/tmp1/c55x-sim2/foo/c5535_bsl_revc/ezdsp5535_v1/c55xx_csl/inc/csl_usbAux.h"
    2078 00069e ED6D          MOV dbl(*AR3(#10)), XAR3
         0006a0 BF00 
         0006a2 0A   
    2079 0006a3 EB18          MOV XAR3, dbl(*SP(#12))
         0006a5 B5   
    2080                      .dwpsn  file "F:/eZdsp_DBG/tmp1/c55x-sim2/foo/c5535_bsl_revc/ezdsp5535_v1/c55xx_csl/inc/csl_usbAux.h"
    2081 0006a6 90B0          MOV XAR3, AC0
    2082 0006a8 6D00          BCC $C$L50,AC0 == #0 ; |1129| 
         0006aa 01FD 
    2083                                                      ; branchcc occurs ; |1129| 
    2084 0006ac A96D          MOV *AR3(#12), AR1 ; |1129| 
         0006ae 000C 
    2085 0006b0 6D19          BCC $C$L50,AR1 != #0 ; |1129| 
         0006b2 01F5 
    2086                                                      ; branchcc occurs ; |1129| 
    2087                      .dwpsn  file "F:/eZdsp_DBG/tmp1/c55x-sim2/foo/c5535_bsl_revc/ezdsp5535_v1/c55xx_csl/inc/csl_usbAux.h"
    2088 0006b4 ED6D          MOV dbl(*AR3(#8)), AC0 ; |1131| 
         0006b6 0800 
         0006b8 08   
    2089 0006b9 ED7D          SUB AC0, dbl(*AR3(short(#6))), AC0 ; |1131| 
         0006bb 04   
    2090 0006bc EB0C          MOV AC0, dbl(*SP(#6)) ; |1131| 
         0006be 08   
    2091                      .dwpsn  file "F:/eZdsp_DBG/tmp1/c55x-sim2/foo/c5535_bsl_revc/ezdsp5535_v1/c55xx_csl/inc/csl_usbAux.h"
    2092 0006bf ED18          MOV dbl(*SP(#12)), XAR3
         0006c1 BF   
    2093 0006c2 ED6D          MOV dbl(*AR3(#8)), AC0 ; |1132| 
         0006c4 0800 
         0006c6 08   
    2094 0006c7 5001          SFTL AC0, #-1 ; |1132| 
    2095 0006c9 2209          MOV AC0, AR1 ; |1132| 
    2096 0006cb ED79          MOV dbl(*AR3(short(#4))), XAR3
         0006cd BF   
    2097              
    2098 0006ce 8E14          MOV XAR3, dbl(*SP(#10))
         0006d0 BB10 
         0006d2 B590 
    2099              ||      AADD AR1, AR3 ; |1132| 
    2100              
    2101                      .dwpsn  file "F:/eZdsp_DBG/tmp1/c55x-sim2/foo/c5535_bsl_revc/ezdsp5535_v1/c55xx_csl/inc/csl_usbAux.h"
    2102 0006d4 ED20          MOV dbl(*SP(#16)), XAR3
         0006d6 BF   
    2103 0006d7 A96D          MOV *AR3(#9), AR1 ; |1133| 
         0006d9 0009 
    2104 0006db C926          MOV AR1, *SP(#19) ; |1133| 
    2105                      .dwpsn  file "F:/eZdsp_DBG/tmp1/c55x-sim2/foo/c5535_bsl_revc/ezdsp5535_v1/c55xx_csl/inc/csl_usbAux.h"
    2106 0006dd ED20          MOV dbl(*SP(#16)), XAR3
         0006df BF   
    2107 0006e0 ED0C          MOV dbl(*SP(#6)), AC1 ; |1136| 
         0006e2 18   
    2108 0006e3 ED79          MOV dbl(*AR3(short(#4))), AC0 ; |1136| 
         0006e5 08   
    2109 0006e6 1218          CMPU AC1 >= AC0, TC1 ; |1136| 
         0006e8 04   
TMS320C55x Assembler PC v4.4.1 Sat Sep 29 23:08:36 2018

Tools Copyright (c) 1996-2012 Texas Instruments Incorporated
csl_usb_intc_example.asm                                             PAGE   49

    2110 0006e9 62E4          BCC $C$L39,TC1 ; |1136| 
    2111                                                      ; branchcc occurs ; |1136| 
    2112 0006eb ED0C          MOV dbl(*SP(#6)), AC0 ; |1136| 
         0006ed 08   
    2113 0006ee 4A03          B $C$L40  ; |1136| 
    2114                                                      ; branch occurs ; |1136| 
    2115 0006f0       $C$L39:    
    2116 0006f0 ED79          MOV dbl(*AR3(short(#4))), AC0 ; |1136| 
         0006f2 08   
    2117 0006f3       $C$L40:    
    2118 0006f3 EB08          MOV AC0, dbl(*SP(#4)) ; |1136| 
         0006f5 08   
    2119                      .dwpsn  file "F:/eZdsp_DBG/tmp1/c55x-sim2/foo/c5535_bsl_revc/ezdsp5535_v1/c55xx_csl/inc/csl_usbAux.h"
    2120 0006f6 7602          MOV #512, AC0 ; |1138| 
         0006f8 0008 
    2121 0006fa ED08          MOV dbl(*SP(#4)), AC1 ; |1138| 
         0006fc 18   
    2122 0006fd 1210          CMPU AC1 == AC0, TC1 ; |1138| 
         0006ff 04   
    2123 000700 66E4          BCC $C$L41,TC1 ; |1138| 
    2124                                                      ; branchcc occurs ; |1138| 
    2125 000702 7600          MOV #64, AC0 ; |1138| 
         000704 4008 
    2126 000706 ED08          MOV dbl(*SP(#4)), AC1 ; |1138| 
         000708 18   
    2127 000709 121C          CMPU AC1 != AC0, TC1 ; |1138| 
         00070b 04   
    2128 00070c 0464          BCC $C$L43,TC1 ; |1138| 
         00070e 5B   
    2129                                                      ; branchcc occurs ; |1138| 
    2130 00070f       $C$L41:    
    2131 00070f ED00          MOV dbl(*SP(#0)), XAR3
         000711 BF   
    2132 000712 F061          CMP *AR3 == #1, TC1 ; |1138| 
         000714 0001 
    2133 000716 0474          BCC $C$L43,!TC1 ; |1138| 
         000718 51   
    2134                                                      ; branchcc occurs ; |1138| 
    2135                      .dwpsn  file "F:/eZdsp_DBG/tmp1/c55x-sim2/foo/c5535_bsl_revc/ezdsp5535_v1/c55xx_csl/inc/csl_usbAux.h"
    2136 000719 ED18          MOV dbl(*SP(#12)), XAR3
         00071b BF   
    2137 00071c ED08          MOV dbl(*SP(#4)), AC0 ; |1141| 
         00071e 08   
    2138 00071f ED6D          ADD dbl(*AR3(#8)), AC0, AC0 ; |1141| 
         000721 0000 
         000723 08   
    2139 000724 EB6D          MOV AC0, dbl(*AR3(#8)) ; |1141| 
         000726 0800 
         000728 08   
    2140                      .dwpsn  file "F:/eZdsp_DBG/tmp1/c55x-sim2/foo/c5535_bsl_revc/ezdsp5535_v1/c55xx_csl/inc/csl_usbAux.h"
    2141 000729 ED18          MOV dbl(*SP(#12)), XAR3
         00072b BF   
    2142 00072c ED08          MOV dbl(*SP(#4)), AC0 ; |1142| 
         00072e 08   
    2143 00072f EB6D          MOV AC0, dbl(*AR3(#10)) ; |1142| 
TMS320C55x Assembler PC v4.4.1 Sat Sep 29 23:08:36 2018

Tools Copyright (c) 1996-2012 Texas Instruments Incorporated
csl_usb_intc_example.asm                                             PAGE   50

         000731 0800 
         000733 0A   
    2144                      .dwpsn  file "F:/eZdsp_DBG/tmp1/c55x-sim2/foo/c5535_bsl_revc/ezdsp5535_v1/c55xx_csl/inc/csl_usbAux.h"
    2145 000734 ED04          MOV dbl(*SP(#2)), AC0 ; |1144| 
         000736 08   
    2146              $C$DW$192       .dwtag  DW_TAG_TI_branch
    2147                      .dwattr $C$DW$192, DW_AT_low_pc(0x00)
    2148                      .dwattr $C$DW$192, DW_AT_name("_USB_dmaRxStart")
    2149                      .dwattr $C$DW$192, DW_AT_TI_call
    2150 000737 08F8          CALL #_USB_dmaRxStart ; |1144| 
         000739 C6   
    2151                                                      ; call occurs [#_USB_dmaRxStart] ; |1144| 
    2152                      .dwpsn  file "F:/eZdsp_DBG/tmp1/c55x-sim2/foo/c5535_bsl_revc/ezdsp5535_v1/c55xx_csl/inc/csl_usbAux.h"
    2153 00073a ED18          MOV dbl(*SP(#12)), XAR3
         00073c BF   
    2154 00073d ED6D          MOV dbl(*AR3(#8)), AC1 ; |1146| 
         00073f 1800 
         000741 08   
    2155 000742 ED7D          MOV dbl(*AR3(short(#6))), AC0 ; |1146| 
         000744 08   
    2156 000745 121C          CMPU AC1 != AC0, TC1 ; |1146| 
         000747 04   
    2157 000748 65E4          BCC $C$L42,TC1 ; |1146| 
    2158                                                      ; branchcc occurs ; |1146| 
    2159                      .dwpsn  file "F:/eZdsp_DBG/tmp1/c55x-sim2/foo/c5535_bsl_revc/ezdsp5535_v1/c55xx_csl/inc/csl_usbAux.h"
    2160 00074a E66D          MOV #1, *AR3(#12) ; |1148| 
         00074c 0100 
         00074e 0C   
    2161                      .dwpsn  file "F:/eZdsp_DBG/tmp1/c55x-sim2/foo/c5535_bsl_revc/ezdsp5535_v1/c55xx_csl/inc/csl_usbAux.h"
    2162 00074f ED00          MOV dbl(*SP(#0)), XAR3
         000751 BF   
    2163 000752 E67D          MOV #0, *AR3(short(#6)) ; |1149| 
         000754 00   
    2164 000755       $C$L42:    
    2165                      .dwpsn  file "F:/eZdsp_DBG/tmp1/c55x-sim2/foo/c5535_bsl_revc/ezdsp5535_v1/c55xx_csl/inc/csl_usbAux.h"
    2166 000755 ED00          MOV dbl(*SP(#0)), XAR3
         000757 BF   
    2167 000758 ED00          MOV dbl(*SP(#0)), XAR0
         00075a 8F   
    2168 00075b ED20          MOV dbl(*SP(#16)), XAR1
         00075d 9F   
    2169 00075e ED6D          MOV dbl(*AR3(#116)), AC0 ; |1152| 
         000760 0800 
         000762 74   
    2170              $C$DW$193       .dwtag  DW_TAG_TI_branch
    2171                      .dwattr $C$DW$193, DW_AT_low_pc(0x00)
    2172                      .dwattr $C$DW$193, DW_AT_TI_call
    2173                      .dwattr $C$DW$193, DW_AT_TI_indirect
    2174 000763 9200          CALL AC0  ; |1152| 
    2175                                                      ; call occurs [AC0] ; |1152| 
    2176 000765 C41C          MOV T0, *SP(#14) ; |1152| 
    2177                      .dwpsn  file "F:/eZdsp_DBG/tmp1/c55x-sim2/foo/c5535_bsl_revc/ezdsp5535_v1/c55xx_csl/inc/csl_usbAux.h"
    2178 000767 0601          B $C$L52  ; |1153| 
         000769 47   
    2179                                                      ; branch occurs ; |1153| 
TMS320C55x Assembler PC v4.4.1 Sat Sep 29 23:08:36 2018

Tools Copyright (c) 1996-2012 Texas Instruments Incorporated
csl_usb_intc_example.asm                                             PAGE   51

    2180 00076a       $C$L43:    
    2181                      .dwpsn  file "F:/eZdsp_DBG/tmp1/c55x-sim2/foo/c5535_bsl_revc/ezdsp5535_v1/c55xx_csl/inc/csl_usbAux.h"
    2182 00076a ED08          MOV dbl(*SP(#4)), AC0 ; |1166| 
         00076c 08   
    2183 00076d 0400          BCC $C$L46,AC0 == #0 ; |1166| 
         00076f 78   
    2184                                                      ; branchcc occurs ; |1166| 
    2185                      .dwpsn  file "F:/eZdsp_DBG/tmp1/c55x-sim2/foo/c5535_bsl_revc/ezdsp5535_v1/c55xx_csl/inc/csl_usbAux.h"
    2186 000770 ED08          MOV dbl(*SP(#4)), AC0 ; |1169| 
         000772 08   
    2187 000773 EB10          MOV AC0, dbl(*SP(#8)) ; |1169| 
         000775 08   
    2188                      .dwpsn  file "F:/eZdsp_DBG/tmp1/c55x-sim2/foo/c5535_bsl_revc/ezdsp5535_v1/c55xx_csl/inc/csl_usbAux.h"
    2189 000776 E624          MOV #0, *SP(#18) ; |1171| 
         000778 00   
    2190 000779 20            NOP
    2191 00077a 20            NOP
    2192                      .dwpsn  file "F:/eZdsp_DBG/tmp1/c55x-sim2/foo/c5535_bsl_revc/ezdsp5535_v1/c55xx_csl/inc/csl_usbAux.h"
    2193 00077b ED08          MOV dbl(*SP(#4)), AC0 ; |1171| 
         00077d 08   
    2194              
    2195 000781 5101          SFTL AC0, #-1 ; |1171| 
    2196 00077e DF24  ||      MOV uns(*SP(#18)), AC1 ; |1171| 
         000780 15   
    2197              
    2198 000783 1218          CMPU AC1 >= AC0, TC1 ; |1171| 
         000785 04   
    2199 000786 0464          BCC $C$L45,TC1 ; |1171| 
         000788 26   
    2200                                                      ; branchcc occurs ; |1171| 
    2201 000789       $C$L44:    
    2202 000789       $C$DW$L$_USB_handleRx$15$B:
    2203                      .dwpsn  file "F:/eZdsp_DBG/tmp1/c55x-sim2/foo/c5535_bsl_revc/ezdsp5535_v1/c55xx_csl/inc/csl_usbAux.h"
    2204 000789 ED14          MOV dbl(*SP(#10)), XAR2
         00078b AF   
    2205 00078c EC41          AMAR *AR2, XAR3
         00078e BE   
    2206 00078f B463          AMAR *AR3+
    2207 000791 EB14          MOV XAR3, dbl(*SP(#10))
         000793 B5   
    2208 000794 AB26          MOV *SP(#19), AR3 ; |1173| 
    2209 000796 A961          MOV port(*AR3), AR1 ; |1173| 
         000798 99   
    2210 000799 C941          MOV AR1, *AR2 ; |1173| 
    2211                      .dwpsn  file "F:/eZdsp_DBG/tmp1/c55x-sim2/foo/c5535_bsl_revc/ezdsp5535_v1/c55xx_csl/inc/csl_usbAux.h"
    2212 00079b F724          ADD #1, *SP(#18) ; |1171| 
         00079d 0001 
    2213 00079f 20            NOP
    2214 0007a0 20            NOP
    2215                      .dwpsn  file "F:/eZdsp_DBG/tmp1/c55x-sim2/foo/c5535_bsl_revc/ezdsp5535_v1/c55xx_csl/inc/csl_usbAux.h"
    2216 0007a1 ED08          MOV dbl(*SP(#4)), AC0 ; |1171| 
         0007a3 08   
    2217              
    2218 0007a7 5101          SFTL AC0, #-1 ; |1171| 
    2219 0007a4 DF24  ||      MOV uns(*SP(#18)), AC1 ; |1171| 
TMS320C55x Assembler PC v4.4.1 Sat Sep 29 23:08:36 2018

Tools Copyright (c) 1996-2012 Texas Instruments Incorporated
csl_usb_intc_example.asm                                             PAGE   52

         0007a6 15   
    2220              
    2221 0007a9 1214          CMPU AC1 < AC0, TC1 ; |1171| 
         0007ab 04   
    2222 0007ac 0464          BCC $C$L44,TC1 ; |1171| 
         0007ae DA   
    2223                                                      ; branchcc occurs ; |1171| 
    2224 0007af       $C$DW$L$_USB_handleRx$15$E:
    2225 0007af       $C$L45:    
    2226                      .dwpsn  file "F:/eZdsp_DBG/tmp1/c55x-sim2/foo/c5535_bsl_revc/ezdsp5535_v1/c55xx_csl/inc/csl_usbAux.h"
    2227 0007af ED08          MOV dbl(*SP(#4)), AC0 ; |1176| 
         0007b1 08   
    2228 0007b2 1801          AND #0x0001, AC0, AC0 ; |1176| 
         0007b4 00   
    2229 0007b5 0400          BCC $C$L46,AC0 == #0 ; |1176| 
         0007b7 30   
    2230                                                      ; branchcc occurs ; |1176| 
    2231                      .dwpsn  file "F:/eZdsp_DBG/tmp1/c55x-sim2/foo/c5535_bsl_revc/ezdsp5535_v1/c55xx_csl/inc/csl_usbAux.h"
    2232 0007b8 7600          MOV #50, T0 ; |1179| 
         0007ba 3248 
    2233 0007bc AB31          MOV *(#_sysCtrlRegs), AR3 ; |1179| 
         0007be 0000 
         0007c0 00!  
    2234 0007c1 A96B          MOV port(*AR3(T0)), AR1 ; |1179| 
         0007c3 99   
    2235 0007c4 7DFF          AND #0xfffc, AR1, AC0 ; |1179| 
         0007c6 FC09 
    2236 0007c8 EC02          BSET @#1, AC0 ; |1179| 
         0007ca 00   
    2237 0007cb C06B          MOV AC0, port(*AR3(T0)) ; |1179| 
         0007cd 9A   
    2238                      .dwpsn  file "F:/eZdsp_DBG/tmp1/c55x-sim2/foo/c5535_bsl_revc/ezdsp5535_v1/c55xx_csl/inc/csl_usbAux.h"
    2239 0007ce AB26          MOV *SP(#19), AR3 ; |1181| 
    2240 0007d0 ED14          MOV dbl(*SP(#10)), XAR2
         0007d2 AF   
    2241 0007d3 DF61          MOV uns(low_byte(port(*AR3))), AR1 ; |1181| 
         0007d5 93   
         0007d6 99   
    2242 0007d7 C941          MOV AR1, *AR2 ; |1181| 
    2243                      .dwpsn  file "F:/eZdsp_DBG/tmp1/c55x-sim2/foo/c5535_bsl_revc/ezdsp5535_v1/c55xx_csl/inc/csl_usbAux.h"
    2244 0007d9 AB31          MOV *(#_sysCtrlRegs), AR3 ; |1184| 
         0007db 0000 
         0007dd 00!  
    2245 0007de A96B          MOV port(*AR3(T0)), AR1 ; |1184| 
         0007e0 99   
    2246 0007e1 7DFF          AND #0xfffc, AR1, AC0 ; |1184| 
         0007e3 FC09 
    2247 0007e5 C06B          MOV AC0, port(*AR3(T0)) ; |1184| 
         0007e7 9A   
    2248 0007e8       $C$L46:    
    2249                      .dwpsn  file "F:/eZdsp_DBG/tmp1/c55x-sim2/foo/c5535_bsl_revc/ezdsp5535_v1/c55xx_csl/inc/csl_usbAux.h"
    2250 0007e8 ED18          MOV dbl(*SP(#12)), XAR3
         0007ea BF   
    2251 0007eb ED10          MOV dbl(*SP(#8)), AC0 ; |1189| 
         0007ed 08   
TMS320C55x Assembler PC v4.4.1 Sat Sep 29 23:08:36 2018

Tools Copyright (c) 1996-2012 Texas Instruments Incorporated
csl_usb_intc_example.asm                                             PAGE   53

    2252 0007ee ED6D          ADD dbl(*AR3(#8)), AC0, AC0 ; |1189| 
         0007f0 0000 
         0007f2 08   
    2253 0007f3 EB6D          MOV AC0, dbl(*AR3(#8)) ; |1189| 
         0007f5 0800 
         0007f7 08   
    2254                      .dwpsn  file "F:/eZdsp_DBG/tmp1/c55x-sim2/foo/c5535_bsl_revc/ezdsp5535_v1/c55xx_csl/inc/csl_usbAux.h"
    2255 0007f8 ED18          MOV dbl(*SP(#12)), XAR3
         0007fa BF   
    2256 0007fb ED10          MOV dbl(*SP(#8)), AC0 ; |1190| 
         0007fd 08   
    2257 0007fe EB6D          MOV AC0, dbl(*AR3(#10)) ; |1190| 
         000800 0800 
         000802 0A   
    2258                      .dwpsn  file "F:/eZdsp_DBG/tmp1/c55x-sim2/foo/c5535_bsl_revc/ezdsp5535_v1/c55xx_csl/inc/csl_usbAux.h"
    2259 000803 ED18          MOV dbl(*SP(#12)), XAR3
         000805 BF   
    2260 000806 ED6D          MOV dbl(*AR3(#8)), AC1 ; |1192| 
         000808 1800 
         00080a 08   
    2261 00080b ED7D          MOV dbl(*AR3(short(#6))), AC0 ; |1192| 
         00080d 08   
    2262 00080e 1210          CMPU AC1 == AC0, TC1 ; |1192| 
         000810 04   
    2263 000811 62E4          BCC $C$L47,TC1 ; |1192| 
    2264                                                      ; branchcc occurs ; |1192| 
    2265 000813 ED10          MOV dbl(*SP(#8)), AC0 ; |1192| 
         000815 08   
    2266 000816 6290          BCC $C$L48,AC0 != #0 ; |1192| 
    2267                                                      ; branchcc occurs ; |1192| 
    2268 000818       $C$L47:    
    2269                      .dwpsn  file "F:/eZdsp_DBG/tmp1/c55x-sim2/foo/c5535_bsl_revc/ezdsp5535_v1/c55xx_csl/inc/csl_usbAux.h"
    2270 000818 E66D          MOV #1, *AR3(#12) ; |1195| 
         00081a 0100 
         00081c 0C   
    2271 00081d       $C$L48:    
    2272                      .dwpsn  file "F:/eZdsp_DBG/tmp1/c55x-sim2/foo/c5535_bsl_revc/ezdsp5535_v1/c55xx_csl/inc/csl_usbAux.h"
    2273 00081d 7604          MOV #1038, T0 ; |1199| 
         00081f 0E48 
    2274 000821 AB31          MOV *(#_usbRegisters), AR3 ; |1199| 
         000823 0000 
         000825 00!  
    2275 000826 A96B          MOV port(*AR3(T0)), AR1 ; |1199| 
         000828 99   
    2276 000829 C91E          MOV AR1, *SP(#15) ; |1199| 
    2277                      .dwpsn  file "F:/eZdsp_DBG/tmp1/c55x-sim2/foo/c5535_bsl_revc/ezdsp5535_v1/c55xx_csl/inc/csl_usbAux.h"
    2278 00082b A96B          MOV port(*AR3(T0)), AR1 ; |1201| 
         00082d 99   
    2279 00082e 7DFF          AND #0xfff0, AR1, AC0 ; |1201| 
         000830 F009 
    2280 000832 C06B          MOV AC0, port(*AR3(T0)) ; |1201| 
         000834 9A   
    2281                      .dwpsn  file "F:/eZdsp_DBG/tmp1/c55x-sim2/foo/c5535_bsl_revc/ezdsp5535_v1/c55xx_csl/inc/csl_usbAux.h"
    2282 000835 AB31          MOV *(#_usbRegisters), AR3 ; |1205| 
         000837 0000 
TMS320C55x Assembler PC v4.4.1 Sat Sep 29 23:08:36 2018

Tools Copyright (c) 1996-2012 Texas Instruments Incorporated
csl_usb_intc_example.asm                                             PAGE   54

         000839 00!  
    2283 00083a ED04          MOV dbl(*SP(#2)), AC0 ; |1205| 
         00083c 08   
    2284 00083d 180F          AND #0x000f, AC0, AC0 ; |1205| 
         00083f 00   
    2285 000840 A96B          MOV port(*AR3(T0)), AR1 ; |1205| 
         000842 99   
    2286 000843 7DFF          AND #0xfff0, AR1, AC1 ; |1205| 
         000845 F019 
    2287 000847 2A10          OR AC1, AC0 ; |1205| 
    2288 000849 C06B          MOV AC0, port(*AR3(T0)) ; |1205| 
         00084b 9A   
    2289                      .dwpsn  file "F:/eZdsp_DBG/tmp1/c55x-sim2/foo/c5535_bsl_revc/ezdsp5535_v1/c55xx_csl/inc/csl_usbAux.h"
    2290 00084c ED20          MOV dbl(*SP(#16)), XAR3
         00084e BF   
    2291 00084f F075          CMP *AR3(short(#2)) == #3, TC1 ; |1208| 
         000851 0003 
    2292 000853 6774          BCC $C$L49,!TC1 ; |1208| 
    2293                                                      ; branchcc occurs ; |1208| 
    2294                      .dwpsn  file "F:/eZdsp_DBG/tmp1/c55x-sim2/foo/c5535_bsl_revc/ezdsp5535_v1/c55xx_csl/inc/csl_usbAux.h"
    2295 000855 7604          MOV #1046, T0 ; |1211| 
         000857 1648 
    2296 000859 AB31          MOV *(#_usbRegisters), AR3 ; |1211| 
         00085b 0000 
         00085d 00!  
    2297 00085e F56B          OR #0x0080, port(*AR3(T0)) ; |1211| 
         000860 0080 
         000862 9A   
    2298 000863       $C$L49:    
    2299                      .dwpsn  file "F:/eZdsp_DBG/tmp1/c55x-sim2/foo/c5535_bsl_revc/ezdsp5535_v1/c55xx_csl/inc/csl_usbAux.h"
    2300 000863 7604          MOV #1046, T0 ; |1215| 
         000865 1648 
    2301 000867 AB31          MOV *(#_usbRegisters), AR3 ; |1215| 
         000869 0000 
         00086b 00!  
    2302 00086c A96B          MOV port(*AR3(T0)), AR1 ; |1215| 
         00086e 99   
    2303 00086f EC00          BCLR @#0, AR1 ; |1215| 
         000871 92   
    2304 000872 C96B          MOV AR1, port(*AR3(T0)) ; |1215| 
         000874 9A   
    2305                      .dwpsn  file "F:/eZdsp_DBG/tmp1/c55x-sim2/foo/c5535_bsl_revc/ezdsp5535_v1/c55xx_csl/inc/csl_usbAux.h"
    2306 000875 7604          MOV #1038, T0 ; |1219| 
         000877 0E48 
    2307 000879 AB31          MOV *(#_usbRegisters), AR3 ; |1219| 
         00087b 0000 
         00087d 00!  
    2308 00087e A91E          MOV *SP(#15), AR1 ; |1219| 
    2309 000880 C96B          MOV AR1, port(*AR3(T0)) ; |1219| 
         000882 9A   
    2310                      .dwpsn  file "F:/eZdsp_DBG/tmp1/c55x-sim2/foo/c5535_bsl_revc/ezdsp5535_v1/c55xx_csl/inc/csl_usbAux.h"
    2311 000883 ED18          MOV dbl(*SP(#12)), XAR3
         000885 BF   
    2312 000886 F06D          CMP *AR3(#12) == #1, TC1 ; |1221| 
         000888 0001 
TMS320C55x Assembler PC v4.4.1 Sat Sep 29 23:08:36 2018

Tools Copyright (c) 1996-2012 Texas Instruments Incorporated
csl_usb_intc_example.asm                                             PAGE   55

         00088a 000C 
    2313 00088c 0474          BCC $C$L52,!TC1 ; |1221| 
         00088e 22   
    2314                                                      ; branchcc occurs ; |1221| 
    2315                      .dwpsn  file "F:/eZdsp_DBG/tmp1/c55x-sim2/foo/c5535_bsl_revc/ezdsp5535_v1/c55xx_csl/inc/csl_usbAux.h"
    2316 00088f ED00          MOV dbl(*SP(#0)), XAR3
         000891 BF   
    2317 000892 E67D          MOV #0, *AR3(short(#6)) ; |1223| 
         000894 00   
    2318                      .dwpsn  file "F:/eZdsp_DBG/tmp1/c55x-sim2/foo/c5535_bsl_revc/ezdsp5535_v1/c55xx_csl/inc/csl_usbAux.h"
    2319 000895 ED00          MOV dbl(*SP(#0)), XAR3
         000897 BF   
    2320 000898 ED00          MOV dbl(*SP(#0)), XAR0
         00089a 8F   
    2321 00089b ED20          MOV dbl(*SP(#16)), XAR1
         00089d 9F   
    2322 00089e ED6D          MOV dbl(*AR3(#116)), AC0 ; |1234| 
         0008a0 0800 
         0008a2 74   
    2323              $C$DW$194       .dwtag  DW_TAG_TI_branch
    2324                      .dwattr $C$DW$194, DW_AT_low_pc(0x00)
    2325                      .dwattr $C$DW$194, DW_AT_TI_call
    2326                      .dwattr $C$DW$194, DW_AT_TI_indirect
    2327 0008a3 9200          CALL AC0  ; |1234| 
    2328                                                      ; call occurs [AC0] ; |1234| 
    2329 0008a5 C41C          MOV T0, *SP(#14) ; |1234| 
    2330                      .dwpsn  file "F:/eZdsp_DBG/tmp1/c55x-sim2/foo/c5535_bsl_revc/ezdsp5535_v1/c55xx_csl/inc/csl_usbAux.h"
    2331 0008a7 4A08          B $C$L52  ; |1237| 
    2332                                                      ; branch occurs ; |1237| 
    2333 0008a9       $C$L50:    
    2334                      .dwpsn  file "F:/eZdsp_DBG/tmp1/c55x-sim2/foo/c5535_bsl_revc/ezdsp5535_v1/c55xx_csl/inc/csl_usbAux.h"
    2335 0008a9 E61C          MOV #-6, *SP(#14) ; |1240| 
         0008ab FA   
    2336                      .dwpsn  file "F:/eZdsp_DBG/tmp1/c55x-sim2/foo/c5535_bsl_revc/ezdsp5535_v1/c55xx_csl/inc/csl_usbAux.h"
    2337 0008ac 4A03          B $C$L52  ; |1242| 
    2338                                                      ; branch occurs ; |1242| 
    2339 0008ae       $C$L51:    
    2340                      .dwpsn  file "F:/eZdsp_DBG/tmp1/c55x-sim2/foo/c5535_bsl_revc/ezdsp5535_v1/c55xx_csl/inc/csl_usbAux.h"
    2341 0008ae E61C          MOV #-6, *SP(#14) ; |1245| 
         0008b0 FA   
    2342 0008b1       $C$L52:    
    2343                      .dwpsn  file "F:/eZdsp_DBG/tmp1/c55x-sim2/foo/c5535_bsl_revc/ezdsp5535_v1/c55xx_csl/inc/csl_usbAux.h"
    2344 0008b1 A41C          MOV *SP(#14), T0 ; |1248| 
    2345                      .dwpsn  file "F:/eZdsp_DBG/tmp1/c55x-sim2/foo/c5535_bsl_revc/ezdsp5535_v1/c55xx_csl/inc/csl_usbAux.h"
    2346 0008b3 4E15          AADD #21, SP
    2347                      .dwcfi  cfa_offset, 1
    2348              $C$DW$195       .dwtag  DW_TAG_TI_branch
    2349                      .dwattr $C$DW$195, DW_AT_low_pc(0x00)
    2350                      .dwattr $C$DW$195, DW_AT_TI_return
    2351 0008b5 4804          RET
    2352                                                      ; return occurs
    2353              
    2354              $C$DW$196       .dwtag  DW_TAG_TI_loop
    2355                      .dwattr $C$DW$196, DW_AT_name("F:\eZdsp_DBG\tmp1\c55x-sim2\foo\Debug\csl_usb_intc_example.asm:$C$L44:
    2356                      .dwattr $C$DW$196, DW_AT_TI_begin_file("F:/eZdsp_DBG/tmp1/c55x-sim2/foo/c5535_bsl_revc/ezdsp5535_v1/c
TMS320C55x Assembler PC v4.4.1 Sat Sep 29 23:08:36 2018

Tools Copyright (c) 1996-2012 Texas Instruments Incorporated
csl_usb_intc_example.asm                                             PAGE   56

    2357                      .dwattr $C$DW$196, DW_AT_TI_begin_line(0x493)
    2358                      .dwattr $C$DW$196, DW_AT_TI_end_line(0x496)
    2359              $C$DW$197       .dwtag  DW_TAG_TI_loop_range
    2360                      .dwattr $C$DW$197, DW_AT_low_pc($C$DW$L$_USB_handleRx$15$B)
    2361                      .dwattr $C$DW$197, DW_AT_high_pc($C$DW$L$_USB_handleRx$15$E)
    2362                      .dwendtag $C$DW$196
    2363              
    2364                      .dwattr $C$DW$177, DW_AT_TI_end_file("F:/eZdsp_DBG/tmp1/c55x-sim2/foo/c5535_bsl_revc/ezdsp5535_v1/c55
    2365                      .dwattr $C$DW$177, DW_AT_TI_end_line(0x4e1)
    2366                      .dwattr $C$DW$177, DW_AT_TI_end_column(0x01)
    2367                      .dwendentry
    2368                      .dwendtag $C$DW$177
    2369              
    2370 0008b7               .sect   ".text"
    2371                      .align 4
    2372                      .global _main
    2373              
    2374              $C$DW$198       .dwtag  DW_TAG_subprogram, DW_AT_name("main")
    2375                      .dwattr $C$DW$198, DW_AT_low_pc(_main)
    2376                      .dwattr $C$DW$198, DW_AT_high_pc(0x00)
    2377                      .dwattr $C$DW$198, DW_AT_TI_symbol_name("_main")
    2378                      .dwattr $C$DW$198, DW_AT_external
    2379                      .dwattr $C$DW$198, DW_AT_TI_begin_file("../c5535_bsl_revc/ezdsp5535_v1/c55xx_csl/ccs_v4.0_examples/us
    2380                      .dwattr $C$DW$198, DW_AT_TI_begin_line(0xd3)
    2381                      .dwattr $C$DW$198, DW_AT_TI_begin_column(0x06)
    2382                      .dwattr $C$DW$198, DW_AT_TI_max_frame_size(0x04)
    2383                      .dwpsn  file "../c5535_bsl_revc/ezdsp5535_v1/c55xx_csl/ccs_v4.0_examples/usb/CSL_USB_IntcExample/csl_
    2384              
    2385                      .dwfde $C$DW$CIE, _main
    2386              ;*******************************************************************************
    2387              ;* FUNCTION NAME: main                                                         *
    2388              ;*                                                                             *
    2389              ;*   Function Uses Regs : T0,AR1,AR3,XAR3,SP,M40,SATA,SATD,RDM,FRCT,SMUL       *
    2390              ;*   Stack Frame        : Compact (No Frame Pointer, w/ debug)                 *
    2391              ;*   Total Frame Size   : 4 words                                              *
    2392              ;*                        (1 return address/alignment)                         *
    2393              ;*                        (2 function parameters)                              *
    2394              ;*                        (1 local values)                                     *
    2395              ;*   Min System Stack   : 1 word                                               *
    2396              ;*******************************************************************************
    2397 0008b8       _main:
    2398                      .dwcfi  cfa_offset, 1
    2399                      .dwcfi  save_reg_to_mem, 91, -1
    2400 0008b8 4EFD          AADD #-3, SP
    2401                      .dwcfi  cfa_offset, 4
    2402              $C$DW$199       .dwtag  DW_TAG_variable, DW_AT_name("result")
    2403                      .dwattr $C$DW$199, DW_AT_TI_symbol_name("_result")
    2404                      .dwattr $C$DW$199, DW_AT_type(*$C$DW$T$80)
    2405                      .dwattr $C$DW$199, DW_AT_location[DW_OP_bregx 0x24 2]
    2406                      .dwpsn  file "../c5535_bsl_revc/ezdsp5535_v1/c55xx_csl/ccs_v4.0_examples/usb/CSL_USB_IntcExample/csl_
    2407 0008ba EC31          AMOV #$C$FSL1, XAR3 ; |215| 
         0008bc BE00 
         0008be 0000+
    2408 0008c0 EB00          MOV XAR3, dbl(*SP(#0))
         0008c2 B5   
TMS320C55x Assembler PC v4.4.1 Sat Sep 29 23:08:36 2018

Tools Copyright (c) 1996-2012 Texas Instruments Incorporated
csl_usb_intc_example.asm                                             PAGE   57

    2409              $C$DW$200       .dwtag  DW_TAG_TI_branch
    2410                      .dwattr $C$DW$200, DW_AT_low_pc(0x00)
    2411                      .dwattr $C$DW$200, DW_AT_name("_printf")
    2412                      .dwattr $C$DW$200, DW_AT_TI_call
    2413 0008c3 6C00          CALL #_printf ; |215| 
         0008c5 0000!
    2414                                                      ; call occurs [#_printf] ; |215| 
    2415                      .dwpsn  file "../c5535_bsl_revc/ezdsp5535_v1/c55xx_csl/ccs_v4.0_examples/usb/CSL_USB_IntcExample/csl_
    2416              $C$DW$201       .dwtag  DW_TAG_TI_branch
    2417                      .dwattr $C$DW$201, DW_AT_low_pc(0x00)
    2418                      .dwattr $C$DW$201, DW_AT_name("_CSL_usbIntcTest")
    2419                      .dwattr $C$DW$201, DW_AT_TI_call
    2420 0008c7 0800          CALL #_CSL_usbIntcTest ; |217| 
         0008c9 36   
    2421                                                      ; call occurs [#_CSL_usbIntcTest] ; |217| 
    2422 0008ca C404          MOV T0, *SP(#2) ; |217| 
    2423                      .dwpsn  file "../c5535_bsl_revc/ezdsp5535_v1/c55xx_csl/ccs_v4.0_examples/usb/CSL_USB_IntcExample/csl_
    2424 0008cc 2249          MOV T0, AR1
    2425 0008ce 6799          BCC $C$L53,AR1 != #0 ; |219| 
    2426                                                      ; branchcc occurs ; |219| 
    2427                      .dwpsn  file "../c5535_bsl_revc/ezdsp5535_v1/c55xx_csl/ccs_v4.0_examples/usb/CSL_USB_IntcExample/csl_
    2428 0008d0 EC31          AMOV #$C$FSL2, XAR3 ; |221| 
         0008d2 BE00 
         0008d4 0016+
    2429 0008d6 EB00          MOV XAR3, dbl(*SP(#0))
         0008d8 B5   
    2430              $C$DW$202       .dwtag  DW_TAG_TI_branch
    2431                      .dwattr $C$DW$202, DW_AT_low_pc(0x00)
    2432                      .dwattr $C$DW$202, DW_AT_name("_printf")
    2433                      .dwattr $C$DW$202, DW_AT_TI_call
    2434 0008d9 6C00          CALL #_printf ; |221| 
         0008db 0000!
    2435                                                      ; call occurs [#_printf] ; |221| 
    2436                      .dwpsn  file "../c5535_bsl_revc/ezdsp5535_v1/c55xx_csl/ccs_v4.0_examples/usb/CSL_USB_IntcExample/csl_
    2437 0008dd 4A13          B $C$L54  ; |222| 
    2438                                                      ; branch occurs ; |222| 
    2439 0008df       $C$L53:    
    2440                      .dwpsn  file "../c5535_bsl_revc/ezdsp5535_v1/c55xx_csl/ccs_v4.0_examples/usb/CSL_USB_IntcExample/csl_
    2441 0008df EC31          AMOV #$C$FSL3, XAR3 ; |225| 
         0008e1 BE00 
         0008e3 002A+
    2442 0008e5 EB00          MOV XAR3, dbl(*SP(#0))
         0008e7 B5   
    2443              $C$DW$203       .dwtag  DW_TAG_TI_branch
    2444                      .dwattr $C$DW$203, DW_AT_low_pc(0x00)
    2445                      .dwattr $C$DW$203, DW_AT_name("_printf")
    2446                      .dwattr $C$DW$203, DW_AT_TI_call
    2447 0008e8 6C00          CALL #_printf ; |225| 
         0008ea 0000!
    2448                                                      ; call occurs [#_printf] ; |225| 
    2449                      .dwpsn  file "../c5535_bsl_revc/ezdsp5535_v1/c55xx_csl/ccs_v4.0_examples/usb/CSL_USB_IntcExample/csl_
    2450 0008ec E631          MOV #0, *(#_PaSs_StAtE) ; |228| 
         0008ee 0000 
         0008f0 0205-
    2451 0008f2       $C$L54:    
TMS320C55x Assembler PC v4.4.1 Sat Sep 29 23:08:36 2018

Tools Copyright (c) 1996-2012 Texas Instruments Incorporated
csl_usb_intc_example.asm                                             PAGE   58

    2452                      .dwpsn  file "../c5535_bsl_revc/ezdsp5535_v1/c55xx_csl/ccs_v4.0_examples/usb/CSL_USB_IntcExample/csl_
    2453 0008f2 A931          MOV *(#_PaSs_StAtE), AR1 ; |233| 
         0008f4 0002 
         0008f6 05-  
    2454 0008f7 C931          MOV AR1, *(#_PaSs) ; |233| 
         0008f9 0002 
         0008fb 06-  
    2455                      .dwpsn  file "../c5535_bsl_revc/ezdsp5535_v1/c55xx_csl/ccs_v4.0_examples/usb/CSL_USB_IntcExample/csl_
    2456 0008fc 4E03          AADD #3, SP
    2457                      .dwcfi  cfa_offset, 1
    2458              $C$DW$204       .dwtag  DW_TAG_TI_branch
    2459                      .dwattr $C$DW$204, DW_AT_low_pc(0x00)
    2460                      .dwattr $C$DW$204, DW_AT_TI_return
    2461 0008fe 4804          RET
    2462                                                      ; return occurs
    2463                      .dwattr $C$DW$198, DW_AT_TI_end_file("../c5535_bsl_revc/ezdsp5535_v1/c55xx_csl/ccs_v4.0_examples/usb/
    2464                      .dwattr $C$DW$198, DW_AT_TI_end_line(0xee)
    2465                      .dwattr $C$DW$198, DW_AT_TI_end_column(0x01)
    2466                      .dwendentry
    2467                      .dwendtag $C$DW$198
    2468              
    2469 000900               .sect   ".text"
    2470                      .align 4
    2471                      .global _CSL_usbIntcTest
    2472              
    2473              $C$DW$205       .dwtag  DW_TAG_subprogram, DW_AT_name("CSL_usbIntcTest")
    2474                      .dwattr $C$DW$205, DW_AT_low_pc(_CSL_usbIntcTest)
    2475                      .dwattr $C$DW$205, DW_AT_high_pc(0x00)
    2476                      .dwattr $C$DW$205, DW_AT_TI_symbol_name("_CSL_usbIntcTest")
    2477                      .dwattr $C$DW$205, DW_AT_external
    2478                      .dwattr $C$DW$205, DW_AT_type(*$C$DW$T$80)
    2479                      .dwattr $C$DW$205, DW_AT_TI_begin_file("../c5535_bsl_revc/ezdsp5535_v1/c55xx_csl/ccs_v4.0_examples/us
    2480                      .dwattr $C$DW$205, DW_AT_TI_begin_line(0xf7)
    2481                      .dwattr $C$DW$205, DW_AT_TI_begin_column(0x0c)
    2482                      .dwattr $C$DW$205, DW_AT_TI_max_frame_size(0x0e)
    2483                      .dwpsn  file "../c5535_bsl_revc/ezdsp5535_v1/c55xx_csl/ccs_v4.0_examples/usb/CSL_USB_IntcExample/csl_
    2484              
    2485                      .dwfde $C$DW$CIE, _CSL_usbIntcTest
    2486              ;*******************************************************************************
    2487              ;* FUNCTION NAME: CSL_usbIntcTest                                              *
    2488              ;*                                                                             *
    2489              ;*   Function Uses Regs : AC0,AC0,T0,T1,AR0,XAR0,AR1,AR2,AR3,XAR3,SP,TC1,M40,  *
    2490              ;*                        SATA,SATD,RDM,FRCT,SMUL                              *
    2491              ;*   Stack Frame        : Compact (No Frame Pointer, w/ debug)                 *
    2492              ;*   Total Frame Size   : 14 words                                             *
    2493              ;*                        (2 return address/alignment)                         *
    2494              ;*                        (2 function parameters)                              *
    2495              ;*                        (10 local values)                                    *
    2496              ;*   Min System Stack   : 1 word                                               *
    2497              ;*******************************************************************************
    2498 000900       _CSL_usbIntcTest:
    2499                      .dwcfi  cfa_offset, 1
    2500                      .dwcfi  save_reg_to_mem, 91, -1
    2501 000900 4EF3          AADD #-13, SP
    2502                      .dwcfi  cfa_offset, 14
TMS320C55x Assembler PC v4.4.1 Sat Sep 29 23:08:36 2018

Tools Copyright (c) 1996-2012 Texas Instruments Incorporated
csl_usb_intc_example.asm                                             PAGE   59

    2503              $C$DW$206       .dwtag  DW_TAG_variable, DW_AT_name("config")
    2504                      .dwattr $C$DW$206, DW_AT_TI_symbol_name("_config")
    2505                      .dwattr $C$DW$206, DW_AT_type(*$C$DW$T$141)
    2506                      .dwattr $C$DW$206, DW_AT_location[DW_OP_bregx 0x24 2]
    2507              $C$DW$207       .dwtag  DW_TAG_variable, DW_AT_name("result")
    2508                      .dwattr $C$DW$207, DW_AT_TI_symbol_name("_result")
    2509                      .dwattr $C$DW$207, DW_AT_type(*$C$DW$T$80)
    2510                      .dwattr $C$DW$207, DW_AT_location[DW_OP_bregx 0x24 10]
    2511              $C$DW$208       .dwtag  DW_TAG_variable, DW_AT_name("eventMask")
    2512                      .dwattr $C$DW$208, DW_AT_TI_symbol_name("_eventMask")
    2513                      .dwattr $C$DW$208, DW_AT_type(*$C$DW$T$19)
    2514                      .dwattr $C$DW$208, DW_AT_location[DW_OP_bregx 0x24 11]
    2515                      .dwpsn  file "../c5535_bsl_revc/ezdsp5535_v1/c55xx_csl/ccs_v4.0_examples/usb/CSL_USB_IntcExample/csl_
    2516 000902 E614          MOV #1, *SP(#10) ; |253| 
         000904 01   
    2517                      .dwpsn  file "../c5535_bsl_revc/ezdsp5535_v1/c55xx_csl/ccs_v4.0_examples/usb/CSL_USB_IntcExample/csl_
    2518 000905 E631          MOV #0, *(#(_usbConfig+1)) ; |255| 
         000907 0000 
         000909 0063-
    2519                      .dwpsn  file "../c5535_bsl_revc/ezdsp5535_v1/c55xx_csl/ccs_v4.0_examples/usb/CSL_USB_IntcExample/csl_
    2520 00090b E631          MOV #0, *(#_usbConfig) ; |256| 
         00090d 0000 
         00090f 0062-
    2521                      .dwpsn  file "../c5535_bsl_revc/ezdsp5535_v1/c55xx_csl/ccs_v4.0_examples/usb/CSL_USB_IntcExample/csl_
    2522 000911 E631          MOV #50, *(#(_usbConfig+2)) ; |257| 
         000913 3200 
         000915 0064-
    2523                      .dwpsn  file "../c5535_bsl_revc/ezdsp5535_v1/c55xx_csl/ccs_v4.0_examples/usb/CSL_USB_IntcExample/csl_
    2524 000917 7A00          MOV #(_CSL_suspendCallBack >> 16) << #16, AC0 ; |258| 
         000919 000A%
    2525 00091b 7E00          OR #(_CSL_suspendCallBack & 0xffff), AC0, AC0 ; |258| 
         00091d 0000%
    2526 00091f EB31          MOV AC0, dbl(*(#(_usbConfig+4))) ; |258| 
         000921 0800 
         000923 0066-
    2527                      .dwpsn  file "../c5535_bsl_revc/ezdsp5535_v1/c55xx_csl/ccs_v4.0_examples/usb/CSL_USB_IntcExample/csl_
    2528 000925 7A00          MOV #(_CSL_selfWakeupCallBack >> 16) << #16, AC0 ; |259| 
         000927 000A%
    2529 000929 7E00          OR #(_CSL_selfWakeupCallBack & 0xffff), AC0, AC0 ; |259| 
         00092b 0000%
    2530 00092d EB31          MOV AC0, dbl(*(#(_usbConfig+6))) ; |259| 
         00092f 0800 
         000931 0068-
    2531                      .dwpsn  file "../c5535_bsl_revc/ezdsp5535_v1/c55xx_csl/ccs_v4.0_examples/usb/CSL_USB_IntcExample/csl_
    2532 000933 7A00          MOV #(_CSL_startTransferCallback >> 16) << #16, AC0 ; |260| 
         000935 000A%
    2533 000937 7E00          OR #(_CSL_startTransferCallback & 0xffff), AC0, AC0 ; |260| 
         000939 0000%
    2534 00093b EB31          MOV AC0, dbl(*(#(_usbConfig+8))) ; |260| 
         00093d 0800 
         00093f 006A-
    2535                      .dwpsn  file "../c5535_bsl_revc/ezdsp5535_v1/c55xx_csl/ccs_v4.0_examples/usb/CSL_USB_IntcExample/csl_
    2536 000941 7A00          MOV #(_CSL_completeTransferCallback >> 16) << #16, AC0 ; |261| 
         000943 000A%
    2537 000945 7E00          OR #(_CSL_completeTransferCallback & 0xffff), AC0, AC0 ; |261| 
TMS320C55x Assembler PC v4.4.1 Sat Sep 29 23:08:36 2018

Tools Copyright (c) 1996-2012 Texas Instruments Incorporated
csl_usb_intc_example.asm                                             PAGE   60

         000947 0000%
    2538 000949 EB31          MOV AC0, dbl(*(#(_usbConfig+10))) ; |261| 
         00094b 0800 
         00094d 006C-
    2539                      .dwpsn  file "../c5535_bsl_revc/ezdsp5535_v1/c55xx_csl/ccs_v4.0_examples/usb/CSL_USB_IntcExample/csl_
    2540 00094f EC31          AMOV #_usbCtrlOutEpObj, XAR3 ; |263| 
         000951 BE00 
         000953 0012-
    2541 000955 EB31          MOV XAR3, dbl(*(#_hEpObjArray))
         000957 B500 
         000959 0000-
    2542                      .dwpsn  file "../c5535_bsl_revc/ezdsp5535_v1/c55xx_csl/ccs_v4.0_examples/usb/CSL_USB_IntcExample/csl_
    2543 00095b EC31          AMOV #_usbCtrlInEpObj, XAR3 ; |264| 
         00095d BE00 
         00095f 0026-
    2544 000961 EB31          MOV XAR3, dbl(*(#(_hEpObjArray+2)))
         000963 B500 
         000965 0002-
    2545                      .dwpsn  file "../c5535_bsl_revc/ezdsp5535_v1/c55xx_csl/ccs_v4.0_examples/usb/CSL_USB_IntcExample/csl_
    2546 000967 EC31          AMOV #_usbBulkOutEpObj, XAR3 ; |265| 
         000969 BE00 
         00096b 003A-
    2547 00096d EB31          MOV XAR3, dbl(*(#(_hEpObjArray+4)))
         00096f B500 
         000971 0004-
    2548                      .dwpsn  file "../c5535_bsl_revc/ezdsp5535_v1/c55xx_csl/ccs_v4.0_examples/usb/CSL_USB_IntcExample/csl_
    2549 000973 EC31          AMOV #_usbBulkInEpObj, XAR3 ; |266| 
         000975 BE00 
         000977 004E-
    2550 000979 EB31          MOV XAR3, dbl(*(#(_hEpObjArray+6)))
         00097b B500 
         00097d 0006-
    2551                      .dwpsn  file "../c5535_bsl_revc/ezdsp5535_v1/c55xx_csl/ccs_v4.0_examples/usb/CSL_USB_IntcExample/csl_
    2552 00097f 7A00          MOV #(_VECSTART >> 16) << #16, AC0 ; |269| 
         000981 000A%
    2553 000983 7E00          OR #(_VECSTART & 0xffff), AC0, AC0 ; |269| 
         000985 0000%
    2554              $C$DW$209       .dwtag  DW_TAG_TI_branch
    2555                      .dwattr $C$DW$209, DW_AT_low_pc(0x00)
    2556                      .dwattr $C$DW$209, DW_AT_name("_IRQ_setVecs")
    2557                      .dwattr $C$DW$209, DW_AT_TI_call
    2558 000987 6C00          CALL #_IRQ_setVecs ; |269| 
         000989 0000!
    2559                                                      ; call occurs [#_IRQ_setVecs] ; |269| 
    2560                      .dwpsn  file "../c5535_bsl_revc/ezdsp5535_v1/c55xx_csl/ccs_v4.0_examples/usb/CSL_USB_IntcExample/csl_
    2561 00098b 7A00          MOV #(_usb_isr >> 16) << #16, AC0 ; |272| 
         00098d 000A%
    2562 00098f 7E00          OR #(_usb_isr & 0xffff), AC0, AC0 ; |272| 
         000991 0000%
    2563 000993 EB04          MOV AC0, dbl(*SP(#2)) ; |272| 
         000995 08   
    2564                      .dwpsn  file "../c5535_bsl_revc/ezdsp5535_v1/c55xx_csl/ccs_v4.0_examples/usb/CSL_USB_IntcExample/csl_
    2565 000996 7600          MOV #20, T0 ; |273| 
         000998 1448 
    2566 00099a ED04          MOV dbl(*SP(#2)), AC0 ; |273| 
TMS320C55x Assembler PC v4.4.1 Sat Sep 29 23:08:36 2018

Tools Copyright (c) 1996-2012 Texas Instruments Incorporated
csl_usb_intc_example.asm                                             PAGE   61

         00099c 08   
    2567              $C$DW$210       .dwtag  DW_TAG_TI_branch
    2568                      .dwattr $C$DW$210, DW_AT_low_pc(0x00)
    2569                      .dwattr $C$DW$210, DW_AT_name("_IRQ_plug")
    2570                      .dwattr $C$DW$210, DW_AT_TI_call
    2571 00099d 6C00          CALL #_IRQ_plug ; |273| 
         00099f 0000!
    2572                                                      ; call occurs [#_IRQ_plug] ; |273| 
    2573                      .dwpsn  file "../c5535_bsl_revc/ezdsp5535_v1/c55xx_csl/ccs_v4.0_examples/usb/CSL_USB_IntcExample/csl_
    2574 0009a1 7600          MOV #20, T0 ; |276| 
         0009a3 1448 
    2575              $C$DW$211       .dwtag  DW_TAG_TI_branch
    2576                      .dwattr $C$DW$211, DW_AT_low_pc(0x00)
    2577                      .dwattr $C$DW$211, DW_AT_name("_IRQ_enable")
    2578                      .dwattr $C$DW$211, DW_AT_TI_call
    2579 0009a5 6C00          CALL #_IRQ_enable ; |276| 
         0009a7 0000!
    2580                                                      ; call occurs [#_IRQ_enable] ; |276| 
    2581                      .dwpsn  file "../c5535_bsl_revc/ezdsp5535_v1/c55xx_csl/ccs_v4.0_examples/usb/CSL_USB_IntcExample/csl_
    2582              $C$DW$212       .dwtag  DW_TAG_TI_branch
    2583                      .dwattr $C$DW$212, DW_AT_low_pc(0x00)
    2584                      .dwattr $C$DW$212, DW_AT_name("_IRQ_globalEnable")
    2585                      .dwattr $C$DW$212, DW_AT_TI_call
    2586 0009a9 6C00          CALL #_IRQ_globalEnable ; |278| 
         0009ab 0000!
    2587                                                      ; call occurs [#_IRQ_globalEnable] ; |278| 
    2588                      .dwpsn  file "../c5535_bsl_revc/ezdsp5535_v1/c55xx_csl/ccs_v4.0_examples/usb/CSL_USB_IntcExample/csl_
    2589 0009ad EC31          AMOV #_usbConfig, XAR0 ; |281| 
         0009af 8E00 
         0009b1 0062-
    2590              $C$DW$213       .dwtag  DW_TAG_TI_branch
    2591                      .dwattr $C$DW$213, DW_AT_low_pc(0x00)
    2592                      .dwattr $C$DW$213, DW_AT_name("_USB_init")
    2593                      .dwattr $C$DW$213, DW_AT_TI_call
    2594 0009b3 6C00          CALL #_USB_init ; |281| 
         0009b5 0000!
    2595                                                      ; call occurs [#_USB_init] ; |281| 
    2596 0009b7 C431          MOV T0, *(#_status) ; |281| 
         0009b9 0000 
         0009bb 75-  
    2597                      .dwpsn  file "../c5535_bsl_revc/ezdsp5535_v1/c55xx_csl/ccs_v4.0_examples/usb/CSL_USB_IntcExample/csl_
    2598 0009bc 2249          MOV T0, AR1
    2599 0009be 0409          BCC $C$L55,AR1 == #0 ; |282| 
         0009c0 12   
    2600                                                      ; branchcc occurs ; |282| 
    2601                      .dwpsn  file "../c5535_bsl_revc/ezdsp5535_v1/c55xx_csl/ccs_v4.0_examples/usb/CSL_USB_IntcExample/csl_
    2602 0009c1 EC31          AMOV #$C$FSL4, XAR3 ; |284| 
         0009c3 BE00 
         0009c5 003E+
    2603 0009c7 EB00          MOV XAR3, dbl(*SP(#0))
         0009c9 B5   
    2604              $C$DW$214       .dwtag  DW_TAG_TI_branch
    2605                      .dwattr $C$DW$214, DW_AT_low_pc(0x00)
    2606                      .dwattr $C$DW$214, DW_AT_name("_printf")
    2607                      .dwattr $C$DW$214, DW_AT_TI_call
TMS320C55x Assembler PC v4.4.1 Sat Sep 29 23:08:36 2018

Tools Copyright (c) 1996-2012 Texas Instruments Incorporated
csl_usb_intc_example.asm                                             PAGE   62

    2608 0009ca 6C00          CALL #_printf ; |284| 
         0009cc 0000!
    2609                                                      ; call occurs [#_printf] ; |284| 
    2610                      .dwpsn  file "../c5535_bsl_revc/ezdsp5535_v1/c55xx_csl/ccs_v4.0_examples/usb/CSL_USB_IntcExample/csl_
    2611 0009ce A414          MOV *SP(#10), T0 ; |285| 
    2612 0009d0 0601          B $C$L67  ; |285| 
         0009d2 EB   
    2613                                                      ; branch occurs ; |285| 
    2614 0009d3       $C$L55:    
    2615                      .dwpsn  file "../c5535_bsl_revc/ezdsp5535_v1/c55xx_csl/ccs_v4.0_examples/usb/CSL_USB_IntcExample/csl_
    2616              $C$DW$215       .dwtag  DW_TAG_TI_branch
    2617                      .dwattr $C$DW$215, DW_AT_low_pc(0x00)
    2618                      .dwattr $C$DW$215, DW_AT_name("_USB_resetDev")
    2619                      .dwattr $C$DW$215, DW_AT_TI_call
    2620              
    2621 0009d3 6C00          CALL #_USB_resetDev ; |289| 
         0009d5 0000!
    2622 0009d7 3D04  ||      MOV #0, T0
    2623              
    2624                                                      ; call occurs [#_USB_resetDev] ; |289| 
    2625 0009d9 C431          MOV T0, *(#_status) ; |289| 
         0009db 0000 
         0009dd 75-  
    2626                      .dwpsn  file "../c5535_bsl_revc/ezdsp5535_v1/c55xx_csl/ccs_v4.0_examples/usb/CSL_USB_IntcExample/csl_
    2627 0009de 2249          MOV T0, AR1
    2628 0009e0 0409          BCC $C$L56,AR1 == #0 ; |290| 
         0009e2 12   
    2629                                                      ; branchcc occurs ; |290| 
    2630                      .dwpsn  file "../c5535_bsl_revc/ezdsp5535_v1/c55xx_csl/ccs_v4.0_examples/usb/CSL_USB_IntcExample/csl_
    2631 0009e3 EC31          AMOV #$C$FSL5, XAR3 ; |292| 
         0009e5 BE00 
         0009e7 0050+
    2632 0009e9 EB00          MOV XAR3, dbl(*SP(#0))
         0009eb B5   
    2633              $C$DW$216       .dwtag  DW_TAG_TI_branch
    2634                      .dwattr $C$DW$216, DW_AT_low_pc(0x00)
    2635                      .dwattr $C$DW$216, DW_AT_name("_printf")
    2636                      .dwattr $C$DW$216, DW_AT_TI_call
    2637 0009ec 6C00          CALL #_printf ; |292| 
         0009ee 0000!
    2638                                                      ; call occurs [#_printf] ; |292| 
    2639                      .dwpsn  file "../c5535_bsl_revc/ezdsp5535_v1/c55xx_csl/ccs_v4.0_examples/usb/CSL_USB_IntcExample/csl_
    2640 0009f0 A414          MOV *SP(#10), T0 ; |293| 
    2641 0009f2 0601          B $C$L67  ; |293| 
         0009f4 C9   
    2642                                                      ; branch occurs ; |293| 
    2643 0009f5       $C$L56:    
    2644                      .dwpsn  file "../c5535_bsl_revc/ezdsp5535_v1/c55xx_csl/ccs_v4.0_examples/usb/CSL_USB_IntcExample/csl_
    2645 0009f5 E616          MOV #61, *SP(#11) ; |297| 
         0009f7 3D   
    2646                      .dwpsn  file "../c5535_bsl_revc/ezdsp5535_v1/c55xx_csl/ccs_v4.0_examples/usb/CSL_USB_IntcExample/csl_
    2647 0009f8 ED31          MOV dbl(*(#_hEpObjArray)), XAR0
         0009fa 8F00 
         0009fc 0000-
    2648 0009fe 3C05          MOV #0, T1
TMS320C55x Assembler PC v4.4.1 Sat Sep 29 23:08:36 2018

Tools Copyright (c) 1996-2012 Texas Instruments Incorporated
csl_usb_intc_example.asm                                             PAGE   63

    2649              
    2650 000a04 3D04          MOV #0, T0
    2651 000a00 7600  ||      MOV #64, AR2 ; |301| 
         000a02 40A8 
    2652              
    2653 000a06 AB16          MOV *SP(#11), AR3 ; |301| 
    2654 000a08 3D09  ||      MOV #0, AR1
    2655              
    2656              $C$DW$217       .dwtag  DW_TAG_TI_branch
    2657                      .dwattr $C$DW$217, DW_AT_low_pc(0x00)
    2658                      .dwattr $C$DW$217, DW_AT_name("_USB_initEndptObj")
    2659                      .dwattr $C$DW$217, DW_AT_TI_call
    2660              
    2661 000a0a 6C00          CALL #_USB_initEndptObj ; |301| 
         000a0c 0000!
    2662 000a0e 3D00  ||      MOV #0, AC0 ; |301| 
    2663              
    2664                                                      ; call occurs [#_USB_initEndptObj] ; |301| 
    2665 000a10 C431          MOV T0, *(#_status) ; |301| 
         000a12 0000 
         000a14 75-  
    2666                      .dwpsn  file "../c5535_bsl_revc/ezdsp5535_v1/c55xx_csl/ccs_v4.0_examples/usb/CSL_USB_IntcExample/csl_
    2667 000a15 2249          MOV T0, AR1
    2668 000a17 0409          BCC $C$L57,AR1 == #0 ; |304| 
         000a19 12   
    2669                                                      ; branchcc occurs ; |304| 
    2670                      .dwpsn  file "../c5535_bsl_revc/ezdsp5535_v1/c55xx_csl/ccs_v4.0_examples/usb/CSL_USB_IntcExample/csl_
    2671 000a1a EC31          AMOV #$C$FSL6, XAR3 ; |306| 
         000a1c BE00 
         000a1e 0062+
    2672 000a20 EB00          MOV XAR3, dbl(*SP(#0))
         000a22 B5   
    2673              $C$DW$218       .dwtag  DW_TAG_TI_branch
    2674                      .dwattr $C$DW$218, DW_AT_low_pc(0x00)
    2675                      .dwattr $C$DW$218, DW_AT_name("_printf")
    2676                      .dwattr $C$DW$218, DW_AT_TI_call
    2677 000a23 6C00          CALL #_printf ; |306| 
         000a25 0000!
    2678                                                      ; call occurs [#_printf] ; |306| 
    2679                      .dwpsn  file "../c5535_bsl_revc/ezdsp5535_v1/c55xx_csl/ccs_v4.0_examples/usb/CSL_USB_IntcExample/csl_
    2680 000a27 A414          MOV *SP(#10), T0 ; |307| 
    2681 000a29 0601          B $C$L67  ; |307| 
         000a2b 92   
    2682                                                      ; branch occurs ; |307| 
    2683 000a2c       $C$L57:    
    2684                      .dwpsn  file "../c5535_bsl_revc/ezdsp5535_v1/c55xx_csl/ccs_v4.0_examples/usb/CSL_USB_IntcExample/csl_
    2685 000a2c ED31          MOV dbl(*(#(_hEpObjArray+2))), XAR0
         000a2e 8F00 
         000a30 0002-
    2686 000a32 3C09          MOV #0, AR1
    2687              
    2688 000a38 3D85          MOV #8, T1
    2689 000a34 7600  ||      MOV #64, AR2 ; |311| 
         000a36 40A8 
    2690              
TMS320C55x Assembler PC v4.4.1 Sat Sep 29 23:08:36 2018

Tools Copyright (c) 1996-2012 Texas Instruments Incorporated
csl_usb_intc_example.asm                                             PAGE   64

    2691 000a3e 3D04          MOV #0, T0
    2692 000a3a 7600  ||      MOV #32, AR3 ; |311| 
         000a3c 20B8 
    2693              
    2694              $C$DW$219       .dwtag  DW_TAG_TI_branch
    2695                      .dwattr $C$DW$219, DW_AT_low_pc(0x00)
    2696                      .dwattr $C$DW$219, DW_AT_name("_USB_initEndptObj")
    2697                      .dwattr $C$DW$219, DW_AT_TI_call
    2698              
    2699 000a40 6C00          CALL #_USB_initEndptObj ; |311| 
         000a42 0000!
    2700 000a44 3D00  ||      MOV #0, AC0 ; |311| 
    2701              
    2702                                                      ; call occurs [#_USB_initEndptObj] ; |311| 
    2703 000a46 C431          MOV T0, *(#_status) ; |311| 
         000a48 0000 
         000a4a 75-  
    2704                      .dwpsn  file "../c5535_bsl_revc/ezdsp5535_v1/c55xx_csl/ccs_v4.0_examples/usb/CSL_USB_IntcExample/csl_
    2705 000a4b 2249          MOV T0, AR1
    2706 000a4d 0409          BCC $C$L58,AR1 == #0 ; |314| 
         000a4f 12   
    2707                                                      ; branchcc occurs ; |314| 
    2708                      .dwpsn  file "../c5535_bsl_revc/ezdsp5535_v1/c55xx_csl/ccs_v4.0_examples/usb/CSL_USB_IntcExample/csl_
    2709 000a50 EC31          AMOV #$C$FSL6, XAR3 ; |316| 
         000a52 BE00 
         000a54 0062+
    2710 000a56 EB00          MOV XAR3, dbl(*SP(#0))
         000a58 B5   
    2711              $C$DW$220       .dwtag  DW_TAG_TI_branch
    2712                      .dwattr $C$DW$220, DW_AT_low_pc(0x00)
    2713                      .dwattr $C$DW$220, DW_AT_name("_printf")
    2714                      .dwattr $C$DW$220, DW_AT_TI_call
    2715 000a59 6C00          CALL #_printf ; |316| 
         000a5b 0000!
    2716                                                      ; call occurs [#_printf] ; |316| 
    2717                      .dwpsn  file "../c5535_bsl_revc/ezdsp5535_v1/c55xx_csl/ccs_v4.0_examples/usb/CSL_USB_IntcExample/csl_
    2718 000a5d A414          MOV *SP(#10), T0 ; |317| 
    2719 000a5f 0601          B $C$L67  ; |317| 
         000a61 5C   
    2720                                                      ; branch occurs ; |317| 
    2721 000a62       $C$L58:    
    2722                      .dwpsn  file "../c5535_bsl_revc/ezdsp5535_v1/c55xx_csl/ccs_v4.0_examples/usb/CSL_USB_IntcExample/csl_
    2723 000a62 E616          MOV #33, *SP(#11) ; |321| 
         000a64 21   
    2724                      .dwpsn  file "../c5535_bsl_revc/ezdsp5535_v1/c55xx_csl/ccs_v4.0_examples/usb/CSL_USB_IntcExample/csl_
    2725 000a65 ED31          MOV dbl(*(#(_hEpObjArray+4))), XAR0
         000a67 8F00 
         000a69 0004-
    2726 000a6b 3C95          MOV #9, T1
    2727              
    2728 000a71 3D04          MOV #0, T0
    2729 000a6d 7600  ||      MOV #64, AR2 ; |322| 
         000a6f 40A8 
    2730              
    2731 000a73 AB16          MOV *SP(#11), AR3 ; |322| 
TMS320C55x Assembler PC v4.4.1 Sat Sep 29 23:08:36 2018

Tools Copyright (c) 1996-2012 Texas Instruments Incorporated
csl_usb_intc_example.asm                                             PAGE   65

    2732 000a75 3D19  ||      MOV #1, AR1
    2733              
    2734              $C$DW$221       .dwtag  DW_TAG_TI_branch
    2735                      .dwattr $C$DW$221, DW_AT_low_pc(0x00)
    2736                      .dwattr $C$DW$221, DW_AT_name("_USB_initEndptObj")
    2737                      .dwattr $C$DW$221, DW_AT_TI_call
    2738              
    2739 000a77 6C00          CALL #_USB_initEndptObj ; |322| 
         000a79 0000!
    2740 000a7b 3D00  ||      MOV #0, AC0 ; |322| 
    2741              
    2742                                                      ; call occurs [#_USB_initEndptObj] ; |322| 
    2743 000a7d C431          MOV T0, *(#_status) ; |322| 
         000a7f 0000 
         000a81 75-  
    2744                      .dwpsn  file "../c5535_bsl_revc/ezdsp5535_v1/c55xx_csl/ccs_v4.0_examples/usb/CSL_USB_IntcExample/csl_
    2745 000a82 2249          MOV T0, AR1
    2746 000a84 0409          BCC $C$L59,AR1 == #0 ; |325| 
         000a86 12   
    2747                                                      ; branchcc occurs ; |325| 
    2748                      .dwpsn  file "../c5535_bsl_revc/ezdsp5535_v1/c55xx_csl/ccs_v4.0_examples/usb/CSL_USB_IntcExample/csl_
    2749 000a87 EC31          AMOV #$C$FSL6, XAR3 ; |327| 
         000a89 BE00 
         000a8b 0062+
    2750 000a8d EB00          MOV XAR3, dbl(*SP(#0))
         000a8f B5   
    2751              $C$DW$222       .dwtag  DW_TAG_TI_branch
    2752                      .dwattr $C$DW$222, DW_AT_low_pc(0x00)
    2753                      .dwattr $C$DW$222, DW_AT_name("_printf")
    2754                      .dwattr $C$DW$222, DW_AT_TI_call
    2755 000a90 6C00          CALL #_printf ; |327| 
         000a92 0000!
    2756                                                      ; call occurs [#_printf] ; |327| 
    2757                      .dwpsn  file "../c5535_bsl_revc/ezdsp5535_v1/c55xx_csl/ccs_v4.0_examples/usb/CSL_USB_IntcExample/csl_
    2758 000a94 A414          MOV *SP(#10), T0 ; |328| 
    2759 000a96 0601          B $C$L67  ; |328| 
         000a98 25   
    2760                                                      ; branch occurs ; |328| 
    2761 000a99       $C$L59:    
    2762                      .dwpsn  file "../c5535_bsl_revc/ezdsp5535_v1/c55xx_csl/ccs_v4.0_examples/usb/CSL_USB_IntcExample/csl_
    2763 000a99 ED31          MOV dbl(*(#(_hEpObjArray+6))), XAR0
         000a9b 8F00 
         000a9d 0006-
    2764 000a9f 3C19          MOV #1, AR1
    2765              
    2766 000aa5 3D25          MOV #2, T1
    2767 000aa1 7600  ||      MOV #64, AR2 ; |332| 
         000aa3 40A8 
    2768              
    2769 000aab 3D04          MOV #0, T0
    2770 000aa7 7600  ||      MOV #32, AR3 ; |332| 
         000aa9 20B8 
    2771              
    2772              $C$DW$223       .dwtag  DW_TAG_TI_branch
    2773                      .dwattr $C$DW$223, DW_AT_low_pc(0x00)
TMS320C55x Assembler PC v4.4.1 Sat Sep 29 23:08:36 2018

Tools Copyright (c) 1996-2012 Texas Instruments Incorporated
csl_usb_intc_example.asm                                             PAGE   66

    2774                      .dwattr $C$DW$223, DW_AT_name("_USB_initEndptObj")
    2775                      .dwattr $C$DW$223, DW_AT_TI_call
    2776              
    2777 000aad 6C00          CALL #_USB_initEndptObj ; |332| 
         000aaf 0000!
    2778 000ab1 3D00  ||      MOV #0, AC0 ; |332| 
    2779              
    2780                                                      ; call occurs [#_USB_initEndptObj] ; |332| 
    2781 000ab3 C431          MOV T0, *(#_status) ; |332| 
         000ab5 0000 
         000ab7 75-  
    2782                      .dwpsn  file "../c5535_bsl_revc/ezdsp5535_v1/c55xx_csl/ccs_v4.0_examples/usb/CSL_USB_IntcExample/csl_
    2783 000ab8 2249          MOV T0, AR1
    2784 000aba 0409          BCC $C$L60,AR1 == #0 ; |335| 
         000abc 12   
    2785                                                      ; branchcc occurs ; |335| 
    2786                      .dwpsn  file "../c5535_bsl_revc/ezdsp5535_v1/c55xx_csl/ccs_v4.0_examples/usb/CSL_USB_IntcExample/csl_
    2787 000abd EC31          AMOV #$C$FSL6, XAR3 ; |337| 
         000abf BE00 
         000ac1 0062+
    2788 000ac3 EB00          MOV XAR3, dbl(*SP(#0))
         000ac5 B5   
    2789              $C$DW$224       .dwtag  DW_TAG_TI_branch
    2790                      .dwattr $C$DW$224, DW_AT_low_pc(0x00)
    2791                      .dwattr $C$DW$224, DW_AT_name("_printf")
    2792                      .dwattr $C$DW$224, DW_AT_TI_call
    2793 000ac6 6C00          CALL #_printf ; |337| 
         000ac8 0000!
    2794                                                      ; call occurs [#_printf] ; |337| 
    2795                      .dwpsn  file "../c5535_bsl_revc/ezdsp5535_v1/c55xx_csl/ccs_v4.0_examples/usb/CSL_USB_IntcExample/csl_
    2796 000aca A414          MOV *SP(#10), T0 ; |338| 
    2797 000acc 0600          B $C$L67  ; |338| 
         000ace EF   
    2798                                                      ; branch occurs ; |338| 
    2799 000acf       $C$L60:    
    2800                      .dwpsn  file "../c5535_bsl_revc/ezdsp5535_v1/c55xx_csl/ccs_v4.0_examples/usb/CSL_USB_IntcExample/csl_
    2801 000acf EC31          AMOV #_hEpObjArray, XAR0 ; |342| 
         000ad1 8E00 
         000ad3 0000-
    2802 000ad5 3C04          MOV #0, T0
    2803              $C$DW$225       .dwtag  DW_TAG_TI_branch
    2804                      .dwattr $C$DW$225, DW_AT_low_pc(0x00)
    2805                      .dwattr $C$DW$225, DW_AT_name("_USB_setParams")
    2806                      .dwattr $C$DW$225, DW_AT_TI_call
    2807              
    2808 000ad7 6C00          CALL #_USB_setParams ; |342| 
         000ad9 0000!
    2809 000adb 3D05  ||      MOV #0, T1
    2810              
    2811                                                      ; call occurs [#_USB_setParams] ; |342| 
    2812 000add C431          MOV T0, *(#_status) ; |342| 
         000adf 0000 
         000ae1 75-  
    2813                      .dwpsn  file "../c5535_bsl_revc/ezdsp5535_v1/c55xx_csl/ccs_v4.0_examples/usb/CSL_USB_IntcExample/csl_
    2814 000ae2 2249          MOV T0, AR1
TMS320C55x Assembler PC v4.4.1 Sat Sep 29 23:08:36 2018

Tools Copyright (c) 1996-2012 Texas Instruments Incorporated
csl_usb_intc_example.asm                                             PAGE   67

    2815 000ae4 0409          BCC $C$L61,AR1 == #0 ; |343| 
         000ae6 12   
    2816                                                      ; branchcc occurs ; |343| 
    2817                      .dwpsn  file "../c5535_bsl_revc/ezdsp5535_v1/c55xx_csl/ccs_v4.0_examples/usb/CSL_USB_IntcExample/csl_
    2818 000ae7 EC31          AMOV #$C$FSL7, XAR3 ; |345| 
         000ae9 BE00 
         000aeb 007E+
    2819 000aed EB00          MOV XAR3, dbl(*SP(#0))
         000aef B5   
    2820              $C$DW$226       .dwtag  DW_TAG_TI_branch
    2821                      .dwattr $C$DW$226, DW_AT_low_pc(0x00)
    2822                      .dwattr $C$DW$226, DW_AT_name("_printf")
    2823                      .dwattr $C$DW$226, DW_AT_TI_call
    2824 000af0 6C00          CALL #_printf ; |345| 
         000af2 0000!
    2825                                                      ; call occurs [#_printf] ; |345| 
    2826                      .dwpsn  file "../c5535_bsl_revc/ezdsp5535_v1/c55xx_csl/ccs_v4.0_examples/usb/CSL_USB_IntcExample/csl_
    2827 000af4 A414          MOV *SP(#10), T0 ; |346| 
    2828 000af6 0600          B $C$L67  ; |346| 
         000af8 C5   
    2829                                                      ; branch occurs ; |346| 
    2830 000af9       $C$L61:    
    2831                      .dwpsn  file "../c5535_bsl_revc/ezdsp5535_v1/c55xx_csl/ccs_v4.0_examples/usb/CSL_USB_IntcExample/csl_
    2832              $C$DW$227       .dwtag  DW_TAG_TI_branch
    2833                      .dwattr $C$DW$227, DW_AT_low_pc(0x00)
    2834                      .dwattr $C$DW$227, DW_AT_name("_USB_connectDev")
    2835                      .dwattr $C$DW$227, DW_AT_TI_call
    2836              
    2837 000af9 6C00          CALL #_USB_connectDev ; |350| 
         000afb 0000!
    2838 000afd 3D04  ||      MOV #0, T0
    2839              
    2840                                                      ; call occurs [#_USB_connectDev] ; |350| 
    2841 000aff C431          MOV T0, *(#_status) ; |350| 
         000b01 0000 
         000b03 75-  
    2842                      .dwpsn  file "../c5535_bsl_revc/ezdsp5535_v1/c55xx_csl/ccs_v4.0_examples/usb/CSL_USB_IntcExample/csl_
    2843 000b04 2249          MOV T0, AR1
    2844 000b06 0409          BCC $C$L62,AR1 == #0 ; |351| 
         000b08 12   
    2845                                                      ; branchcc occurs ; |351| 
    2846                      .dwpsn  file "../c5535_bsl_revc/ezdsp5535_v1/c55xx_csl/ccs_v4.0_examples/usb/CSL_USB_IntcExample/csl_
    2847 000b09 EC31          AMOV #$C$FSL8, XAR3 ; |353| 
         000b0b BE00 
         000b0d 0096+
    2848 000b0f EB00          MOV XAR3, dbl(*SP(#0))
         000b11 B5   
    2849              $C$DW$228       .dwtag  DW_TAG_TI_branch
    2850                      .dwattr $C$DW$228, DW_AT_low_pc(0x00)
    2851                      .dwattr $C$DW$228, DW_AT_name("_printf")
    2852                      .dwattr $C$DW$228, DW_AT_TI_call
    2853 000b12 6C00          CALL #_printf ; |353| 
         000b14 0000!
    2854                                                      ; call occurs [#_printf] ; |353| 
    2855                      .dwpsn  file "../c5535_bsl_revc/ezdsp5535_v1/c55xx_csl/ccs_v4.0_examples/usb/CSL_USB_IntcExample/csl_
TMS320C55x Assembler PC v4.4.1 Sat Sep 29 23:08:36 2018

Tools Copyright (c) 1996-2012 Texas Instruments Incorporated
csl_usb_intc_example.asm                                             PAGE   68

    2856 000b16 A414          MOV *SP(#10), T0 ; |354| 
    2857 000b18 0600          B $C$L67  ; |354| 
         000b1a A3   
    2858                                                      ; branch occurs ; |354| 
    2859 000b1b       $C$L62:    
    2860                      .dwpsn  file "../c5535_bsl_revc/ezdsp5535_v1/c55xx_csl/ccs_v4.0_examples/usb/CSL_USB_IntcExample/csl_
    2861 000b1b EC31          AMOV #_deviceDesc, XAR3 ; |357| 
         000b1d BE00 
         000b1f 0184-
    2862 000b21 EB31          MOV XAR3, dbl(*(#_deviceDescPtr))
         000b23 B500 
         000b25 0178-
    2863                      .dwpsn  file "../c5535_bsl_revc/ezdsp5535_v1/c55xx_csl/ccs_v4.0_examples/usb/CSL_USB_IntcExample/csl_
    2864 000b27 EC31          AMOV #_cfgDesc, XAR3 ; |358| 
         000b29 BE00 
         000b2b 018D-
    2865 000b2d EB31          MOV XAR3, dbl(*(#_cfgDescPtr))
         000b2f B500 
         000b31 017A-
    2866                      .dwpsn  file "../c5535_bsl_revc/ezdsp5535_v1/c55xx_csl/ccs_v4.0_examples/usb/CSL_USB_IntcExample/csl_
    2867 000b33 EC31          AMOV #_strDesc, XAR3 ; |359| 
         000b35 BE00 
         000b37 01B5-
    2868 000b39 EB31          MOV XAR3, dbl(*(#_strDescPtr))
         000b3b B500 
         000b3d 017C-
    2869                      .dwpsn  file "../c5535_bsl_revc/ezdsp5535_v1/c55xx_csl/ccs_v4.0_examples/usb/CSL_USB_IntcExample/csl_
    2870 000b3f F031          CMP *(#_stopRunning) == #1, TC1 ; |361| 
         000b41 0001 
         000b43 0001 
         000b45 82-  
    2871 000b46 0464          BCC $C$L66,TC1 ; |361| 
         000b48 70   
    2872                                                      ; branchcc occurs ; |361| 
    2873 000b49       $C$L63:    
    2874 000b49       $C$DW$L$_CSL_usbIntcTest$18$B:
    2875                      .dwpsn  file "../c5535_bsl_revc/ezdsp5535_v1/c55xx_csl/ccs_v4.0_examples/usb/CSL_USB_IntcExample/csl_
    2876 000b49 F031          CMP *(#_usbDevDisconnect) == #1, TC1 ; |363| 
         000b4b 0001 
         000b4d 0001 
         000b4f 83-  
    2877 000b50 0474          BCC $C$L65,!TC1 ; |363| 
         000b52 5C   
    2878                                                      ; branchcc occurs ; |363| 
    2879 000b53       $C$DW$L$_CSL_usbIntcTest$18$E:
    2880 000b53       $C$DW$L$_CSL_usbIntcTest$19$B:
    2881 000b53 7604          MOV #1121, T0 ; |363| 
         000b55 6148 
    2882 000b57 AB31          MOV *(#_usbRegisters), AR3 ; |363| 
         000b59 0000 
         000b5b 00!  
    2883 000b5c A96B          MOV port(*AR3(T0)), AR1 ; |363| 
         000b5e 99   
    2884 000b5f 1818          AND #0x0018, AR1, AC0 ; |363| 
         000b61 09   
TMS320C55x Assembler PC v4.4.1 Sat Sep 29 23:08:36 2018

Tools Copyright (c) 1996-2012 Texas Instruments Incorporated
csl_usb_intc_example.asm                                             PAGE   69

    2885              
    2886 000b62 76FF          BFXTR #0xfff8, AC0, AR1 ; |363| 
         000b64 F890 
    2887 000b66 3D3A  ||      MOV #3, AR2
    2888              
    2889 000b68 1290          CMPU AR1 == AR2, TC1 ; |363| 
         000b6a A4   
    2890 000b6b 0464          BCC $C$L65,TC1 ; |363| 
         000b6d 41   
    2891                                                      ; branchcc occurs ; |363| 
    2892 000b6e       $C$DW$L$_CSL_usbIntcTest$19$E:
    2893 000b6e       $C$DW$L$_CSL_usbIntcTest$20$B:
    2894                      .dwpsn  file "../c5535_bsl_revc/ezdsp5535_v1/c55xx_csl/ccs_v4.0_examples/usb/CSL_USB_IntcExample/csl_
    2895 000b6e EC31          AMOV #$C$FSL9, XAR3 ; |367| 
         000b70 BE00 
         000b72 00AA+
    2896 000b74 EB00          MOV XAR3, dbl(*SP(#0))
         000b76 B5   
    2897              $C$DW$229       .dwtag  DW_TAG_TI_branch
    2898                      .dwattr $C$DW$229, DW_AT_low_pc(0x00)
    2899                      .dwattr $C$DW$229, DW_AT_name("_printf")
    2900                      .dwattr $C$DW$229, DW_AT_TI_call
    2901 000b77 6C00          CALL #_printf ; |367| 
         000b79 0000!
    2902                                                      ; call occurs [#_printf] ; |367| 
    2903 000b7b 7604          MOV #1121, T0 ; |369| 
         000b7d 6148 
    2904 000b7f 3C39          MOV #3, AR1
    2905                      .dwpsn  file "../c5535_bsl_revc/ezdsp5535_v1/c55xx_csl/ccs_v4.0_examples/usb/CSL_USB_IntcExample/csl_
    2906 000b81       $C$DW$L$_CSL_usbIntcTest$20$E:
    2907 000b81       $C$L64:    
    2908 000b81       $C$DW$L$_CSL_usbIntcTest$21$B:
    2909                      .dwpsn  file "../c5535_bsl_revc/ezdsp5535_v1/c55xx_csl/ccs_v4.0_examples/usb/CSL_USB_IntcExample/csl_
    2910 000b81 AB31          MOV *(#_usbRegisters), AR3 ; |369| 
         000b83 0000 
         000b85 00!  
    2911 000b86 AA6B          MOV port(*AR3(T0)), AR2 ; |369| 
         000b88 99   
    2912 000b89 1818          AND #0x0018, AR2, AC0 ; |369| 
         000b8b 0A   
    2913 000b8c 76FF          BFXTR #0xfff8, AC0, AR2 ; |369| 
         000b8e F8A0 
    2914 000b90 12AC          CMPU AR2 != AR1, TC1 ; |369| 
         000b92 94   
    2915 000b93 0464          BCC $C$L64,TC1 ; |369| 
         000b95 EB   
    2916                                                      ; branchcc occurs ; |369| 
    2917 000b96       $C$DW$L$_CSL_usbIntcTest$21$E:
    2918 000b96       $C$DW$L$_CSL_usbIntcTest$22$B:
    2919                      .dwpsn  file "../c5535_bsl_revc/ezdsp5535_v1/c55xx_csl/ccs_v4.0_examples/usb/CSL_USB_IntcExample/csl_
    2920 000b96 EC31          AMOV #$C$FSL10, XAR3 ; |372| 
         000b98 BE00 
         000b9a 00C6+
    2921 000b9c EB00          MOV XAR3, dbl(*SP(#0))
         000b9e B5   
TMS320C55x Assembler PC v4.4.1 Sat Sep 29 23:08:36 2018

Tools Copyright (c) 1996-2012 Texas Instruments Incorporated
csl_usb_intc_example.asm                                             PAGE   70

    2922              $C$DW$230       .dwtag  DW_TAG_TI_branch
    2923                      .dwattr $C$DW$230, DW_AT_low_pc(0x00)
    2924                      .dwattr $C$DW$230, DW_AT_name("_printf")
    2925                      .dwattr $C$DW$230, DW_AT_TI_call
    2926 000b9f 6C00          CALL #_printf ; |372| 
         000ba1 0000!
    2927                                                      ; call occurs [#_printf] ; |372| 
    2928                      .dwpsn  file "../c5535_bsl_revc/ezdsp5535_v1/c55xx_csl/ccs_v4.0_examples/usb/CSL_USB_IntcExample/csl_
    2929 000ba3 E631          MOV #0, *(#_usbDevDisconnect) ; |374| 
         000ba5 0000 
         000ba7 0183-
    2930                      .dwpsn  file "../c5535_bsl_revc/ezdsp5535_v1/c55xx_csl/ccs_v4.0_examples/usb/CSL_USB_IntcExample/csl_
    2931              $C$DW$231       .dwtag  DW_TAG_TI_branch
    2932                      .dwattr $C$DW$231, DW_AT_low_pc(0x00)
    2933                      .dwattr $C$DW$231, DW_AT_name("_USB_connectDev")
    2934                      .dwattr $C$DW$231, DW_AT_TI_call
    2935              
    2936 000ba9 6C00          CALL #_USB_connectDev ; |375| 
         000bab 0000!
    2937 000bad 3D04  ||      MOV #0, T0
    2938              
    2939                                                      ; call occurs [#_USB_connectDev] ; |375| 
    2940 000baf       $C$DW$L$_CSL_usbIntcTest$22$E:
    2941 000baf       $C$L65:    
    2942 000baf       $C$DW$L$_CSL_usbIntcTest$23$B:
    2943                      .dwpsn  file "../c5535_bsl_revc/ezdsp5535_v1/c55xx_csl/ccs_v4.0_examples/usb/CSL_USB_IntcExample/csl_
    2944 000baf F031          CMP *(#_stopRunning) == #1, TC1 ; |361| 
         000bb1 0001 
         000bb3 0001 
         000bb5 82-  
    2945 000bb6 0474          BCC $C$L63,!TC1 ; |361| 
         000bb8 90   
    2946                                                      ; branchcc occurs ; |361| 
    2947 000bb9       $C$DW$L$_CSL_usbIntcTest$23$E:
    2948 000bb9       $C$L66:    
    2949                      .dwpsn  file "../c5535_bsl_revc/ezdsp5535_v1/c55xx_csl/ccs_v4.0_examples/usb/CSL_USB_IntcExample/csl_
    2950 000bb9 E614          MOV #0, *SP(#10) ; |379| 
         000bbb 00   
    2951                      .dwpsn  file "../c5535_bsl_revc/ezdsp5535_v1/c55xx_csl/ccs_v4.0_examples/usb/CSL_USB_IntcExample/csl_
    2952 000bbc A414          MOV *SP(#10), T0 ; |380| 
    2953 000bbe       $C$L67:    
    2954                      .dwpsn  file "../c5535_bsl_revc/ezdsp5535_v1/c55xx_csl/ccs_v4.0_examples/usb/CSL_USB_IntcExample/csl_
    2955 000bbe 4E0D          AADD #13, SP
    2956                      .dwcfi  cfa_offset, 1
    2957              $C$DW$232       .dwtag  DW_TAG_TI_branch
    2958                      .dwattr $C$DW$232, DW_AT_low_pc(0x00)
    2959                      .dwattr $C$DW$232, DW_AT_TI_return
    2960 000bc0 4804          RET
    2961                                                      ; return occurs
    2962              
    2963              $C$DW$233       .dwtag  DW_TAG_TI_loop
    2964                      .dwattr $C$DW$233, DW_AT_name("F:\eZdsp_DBG\tmp1\c55x-sim2\foo\Debug\csl_usb_intc_example.asm:$C$L63:
    2965                      .dwattr $C$DW$233, DW_AT_TI_begin_file("../c5535_bsl_revc/ezdsp5535_v1/c55xx_csl/ccs_v4.0_examples/us
    2966                      .dwattr $C$DW$233, DW_AT_TI_begin_line(0x169)
    2967                      .dwattr $C$DW$233, DW_AT_TI_end_line(0x179)
TMS320C55x Assembler PC v4.4.1 Sat Sep 29 23:08:36 2018

Tools Copyright (c) 1996-2012 Texas Instruments Incorporated
csl_usb_intc_example.asm                                             PAGE   71

    2968              $C$DW$234       .dwtag  DW_TAG_TI_loop_range
    2969                      .dwattr $C$DW$234, DW_AT_low_pc($C$DW$L$_CSL_usbIntcTest$18$B)
    2970                      .dwattr $C$DW$234, DW_AT_high_pc($C$DW$L$_CSL_usbIntcTest$18$E)
    2971              $C$DW$235       .dwtag  DW_TAG_TI_loop_range
    2972                      .dwattr $C$DW$235, DW_AT_low_pc($C$DW$L$_CSL_usbIntcTest$20$B)
    2973                      .dwattr $C$DW$235, DW_AT_high_pc($C$DW$L$_CSL_usbIntcTest$20$E)
    2974              $C$DW$236       .dwtag  DW_TAG_TI_loop_range
    2975                      .dwattr $C$DW$236, DW_AT_low_pc($C$DW$L$_CSL_usbIntcTest$19$B)
    2976                      .dwattr $C$DW$236, DW_AT_high_pc($C$DW$L$_CSL_usbIntcTest$19$E)
    2977              $C$DW$237       .dwtag  DW_TAG_TI_loop_range
    2978                      .dwattr $C$DW$237, DW_AT_low_pc($C$DW$L$_CSL_usbIntcTest$22$B)
    2979                      .dwattr $C$DW$237, DW_AT_high_pc($C$DW$L$_CSL_usbIntcTest$22$E)
    2980              $C$DW$238       .dwtag  DW_TAG_TI_loop_range
    2981                      .dwattr $C$DW$238, DW_AT_low_pc($C$DW$L$_CSL_usbIntcTest$23$B)
    2982                      .dwattr $C$DW$238, DW_AT_high_pc($C$DW$L$_CSL_usbIntcTest$23$E)
    2983              
    2984              $C$DW$239       .dwtag  DW_TAG_TI_loop
    2985                      .dwattr $C$DW$239, DW_AT_name("F:\eZdsp_DBG\tmp1\c55x-sim2\foo\Debug\csl_usb_intc_example.asm:$C$L64:
