TMS320C55x Assembler PC v4.4.1 Sat Sep 29 23:08:36 2018

Tools Copyright (c) 1996-2012 Texas Instruments Incorporated
csl_usb_intc_example.asm                                             PAGE    1

    8312              ; Temporary Registers Used: None
       1              ;*******************************************************************************
       2              ;* TMS320C55x C/C++ Codegen                                          PC v4.4.1 *
       3              ;* Date/Time created: Sat Sep 29 23:08:34 2018                                 *
       4              ;*******************************************************************************
       5                      .compiler_opts --hll_source=on --mem_model:code=flat --mem_model:data=large --object_format=coff --si
       6                      .mmregs
       7                      .cpl_on
       8                      .arms_on
       9                      .c54cm_off
      10                      .asg AR6, FP
      11                      .asg XAR6, XFP
      12                      .asg DPH, MDP
      13                      .model call=c55_std
      14                      .model mem=large
      15                      .noremark 5002  ; code respects overwrite rules
      16              ;*******************************************************************************
      17              ;* GLOBAL FILE PARAMETERS                                                      *
      18              ;*                                                                             *
      19              ;*   Architecture       : TMS320C55x                                           *
      20              ;*   Optimizing for     : Speed                                                *
      21              ;*   Memory             : Large Model (23-Bit Data Pointers)                   *
      22              ;*   Calls              : Normal Library ASM calls                             *
      23              ;*   Debug Info         : Standard TI Debug Information                        *
      24              ;*******************************************************************************
      25              
      26              $C$DW$CU        .dwtag  DW_TAG_compile_unit
      27                      .dwattr $C$DW$CU, DW_AT_name("../c5535_bsl_revc/ezdsp5535_v1/c55xx_csl/ccs_v4.0_examples/usb/CSL_USB_
      28                      .dwattr $C$DW$CU, DW_AT_producer("TMS320C55x C/C++ Codegen PC v4.4.1 Copyright (c) 1996-2012 Texas In
      29                      .dwattr $C$DW$CU, DW_AT_TI_version(0x01)
      30                      .dwattr $C$DW$CU, DW_AT_comp_dir("F:\eZdsp_DBG\tmp1\c55x-sim2\foo\Debug")
      31              ;******************************************************************************
      32              ;* CINIT RECORDS                                                              *
      33              ;******************************************************************************
      34 000000               .sect   ".cinit"
      35                      .align  1
      36 000000 0002          .field          2,16
      37 000001 0000-         .field          _pContext+0,24
         000002 7600 
      38 000002 7600          .field          0,8
      39 000003 0000!         .field  _gUsbContext,32         ; _pContext @ 0
         000004 0000 
      40              
      41 000005               .sect   ".cinit"
      42                      .align  1
      43 000005 0001          .field          1,16
      44 000006 0001-         .field          _stopRunning+0,24
         000007 8200 
      45 000007 8200          .field          0,8
      46 000008 0000          .field  0,16                    ; _stopRunning @ 0
      47              
      48 000009               .sect   ".cinit"
      49                      .align  1
      50 000009 0001          .field          1,16
      51 00000a 0001-         .field          _usbDevDisconnect+0,24
TMS320C55x Assembler PC v4.4.1 Sat Sep 29 23:08:36 2018

Tools Copyright (c) 1996-2012 Texas Instruments Incorporated
csl_usb_intc_example.asm                                             PAGE    2

         00000b 8300 
      52 00000b 8300          .field          0,8
      53 00000c 0001          .field  1,16                    ; _usbDevDisconnect @ 0
      54              
      55 00000d               .sect   ".cinit"
      56                      .align  1
      57 00000d 0009          .field          $C$IR_1,16
      58 00000e 0001-         .field          _deviceDesc+0,24
         00000f 8400 
      59 00000f 8400          .field          0,8
      60 000010 0112          .field  274,16                  ; _deviceDesc[0] @ 0
      61 000011 0200          .field  512,16                  ; _deviceDesc[1] @ 16
      62 000012 0000          .field  0,16                    ; _deviceDesc[2] @ 32
      63 000013 4000          .field  16384,16                        ; _deviceDesc[3] @ 48
      64 000014 0451          .field  1105,16                 ; _deviceDesc[4] @ 64
      65 000015 9010          .field  36880,16                        ; _deviceDesc[5] @ 80
      66 000016 0100          .field  256,16                  ; _deviceDesc[6] @ 96
      67 000017 0201          .field  513,16                  ; _deviceDesc[7] @ 112
      68 000018 0103          .field  259,16                  ; _deviceDesc[8] @ 128
      69              $C$IR_1:        .set    9
      70              
      71 000019               .sect   ".cinit"
      72                      .align  1
      73 000019 0025          .field          $C$IR_2,16
      74 00001a 0001-         .field          _cfgDesc+0,24
         00001b 8D00 
      75 00001b 8D00          .field          0,8
      76 00001c 0209          .field  521,16                  ; _cfgDesc[0] @ 0
      77 00001d 003C          .field  60,16                   ; _cfgDesc[1] @ 16
      78 00001e 0101          .field  257,16                  ; _cfgDesc[2] @ 32
      79 00001f C001          .field  49153,16                        ; _cfgDesc[3] @ 48
      80 000020 0928          .field  2344,16                 ; _cfgDesc[4] @ 64
      81 000021 0004          .field  4,16                    ; _cfgDesc[5] @ 80
      82 000022 0600          .field  1536,16                 ; _cfgDesc[6] @ 96
      83 000023 0000          .field  0,16                    ; _cfgDesc[7] @ 112
      84 000024 0000          .field  0,16                    ; _cfgDesc[8] @ 128
      85 000025 0507          .field  1287,16                 ; _cfgDesc[9] @ 144
      86 000026 0281          .field  641,16                  ; _cfgDesc[10] @ 160
      87 000027 0040          .field  64,16                   ; _cfgDesc[11] @ 176
      88 000028 0700          .field  1792,16                 ; _cfgDesc[12] @ 192
      89 000029 0105          .field  261,16                  ; _cfgDesc[13] @ 208
      90 00002a 4002          .field  16386,16                        ; _cfgDesc[14] @ 224
      91 00002b 0000          .field  0,16                    ; _cfgDesc[15] @ 240
      92 00002c 0507          .field  1287,16                 ; _cfgDesc[16] @ 256
      93 00002d 0282          .field  642,16                  ; _cfgDesc[17] @ 272
      94 00002e 0040          .field  64,16                   ; _cfgDesc[18] @ 288
      95 00002f 0700          .field  1792,16                 ; _cfgDesc[19] @ 304
      96 000030 0205          .field  517,16                  ; _cfgDesc[20] @ 320
      97 000031 4002          .field  16386,16                        ; _cfgDesc[21] @ 336
      98 000032 0000          .field  0,16                    ; _cfgDesc[22] @ 352
      99 000033 0507          .field  1287,16                 ; _cfgDesc[23] @ 368
     100 000034 0283          .field  643,16                  ; _cfgDesc[24] @ 384
     101 000035 0040          .field  64,16                   ; _cfgDesc[25] @ 400
     102 000036 0700          .field  1792,16                 ; _cfgDesc[26] @ 416
     103 000037 0305          .field  773,16                  ; _cfgDesc[27] @ 432
TMS320C55x Assembler PC v4.4.1 Sat Sep 29 23:08:36 2018

Tools Copyright (c) 1996-2012 Texas Instruments Incorporated
csl_usb_intc_example.asm                                             PAGE    3

     104 000038 4002          .field  16386,16                        ; _cfgDesc[28] @ 448
     105 000039 0000          .field  0,16                    ; _cfgDesc[29] @ 464
     106 00003a 0507          .field  1287,16                 ; _cfgDesc[30] @ 480
     107 00003b 0284          .field  644,16                  ; _cfgDesc[31] @ 496
     108 00003c 0040          .field  64,16                   ; _cfgDesc[32] @ 512
     109 00003d 0700          .field  1792,16                 ; _cfgDesc[33] @ 528
     110 00003e 0405          .field  1029,16                 ; _cfgDesc[34] @ 544
     111 00003f 4002          .field  16386,16                        ; _cfgDesc[35] @ 560
     112 000040 0000          .field  0,16                    ; _cfgDesc[36] @ 576
     113              $C$IR_2:        .set    37
     114              
     115 000041               .sect   ".cinit"
     116                      .align  1
     117 000041 0002          .field          $C$IR_3,16
     118 000042 0001-         .field          _strDesc+0,24
         000043 B500 
     119 000043 B500          .field          0,8
     120 000044 0304          .field  772,16                  ; _strDesc[0][0] @ 0
     121 000045 0409          .field  1033,16                 ; _strDesc[0][1] @ 16
     122              $C$IR_3:        .set    2
     123              
     124 000046               .sect   ".cinit"
     125                      .align  1
     126 000046 002E          .field          $C$IR_4,16
     127 000047 0001-         .field          _strDesc+20,24
         000048 C900 
     128 000048 C900          .field          0,8
     129 000049 0324          .field  804,16                  ; _strDesc[1][0] @ 320
     130 00004a 0045          .field  69,16                   ; _strDesc[1][1] @ 336
     131 00004b 0054          .field  84,16                   ; _strDesc[1][2] @ 352
     132 00004c 0041          .field  65,16                   ; _strDesc[1][3] @ 368
     133 00004d 0058          .field  88,16                   ; _strDesc[1][4] @ 384
     134 00004e 0020          .field  32,16                   ; _strDesc[1][5] @ 400
     135 00004f 0053          .field  83,16                   ; _strDesc[1][6] @ 416
     136 000050 004E          .field  78,16                   ; _strDesc[1][7] @ 432
     137 000051 0049          .field  73,16                   ; _strDesc[1][8] @ 448
     138 000052 0054          .field  84,16                   ; _strDesc[1][9] @ 464
     139 000053 0053          .field  83,16                   ; _strDesc[1][10] @ 480
     140 000054 0055          .field  85,16                   ; _strDesc[1][11] @ 496
     141 000055 0052          .field  82,16                   ; _strDesc[1][12] @ 512
     142 000056 0045          .field  69,16                   ; _strDesc[1][13] @ 528
     143 000057 004D          .field  77,16                   ; _strDesc[1][14] @ 544
     144 000058 0054          .field  84,16                   ; _strDesc[1][15] @ 560
     145 000059 004E          .field  78,16                   ; _strDesc[1][16] @ 576
     146 00005a 0053          .field  83,16                   ; _strDesc[1][17] @ 592
     147 00005b               .space  32
     148 00005d 030C          .field  780,16                  ; _strDesc[2][0] @ 640
     149 00005e 0043          .field  67,16                   ; _strDesc[2][1] @ 656
     150 00005f 0035          .field  53,16                   ; _strDesc[2][2] @ 672
     151 000060 0035          .field  53,16                   ; _strDesc[2][3] @ 688
     152 000061 0031          .field  49,16                   ; _strDesc[2][4] @ 704
     153 000062 0035          .field  53,16                   ; _strDesc[2][5] @ 720
     154 000063               .space  224
     155 000071 030C          .field  780,16                  ; _strDesc[3][0] @ 960
     156 000072 0030          .field  48,16                   ; _strDesc[3][1] @ 976
TMS320C55x Assembler PC v4.4.1 Sat Sep 29 23:08:36 2018

Tools Copyright (c) 1996-2012 Texas Instruments Incorporated
csl_usb_intc_example.asm                                             PAGE    4

     157 000073 0030          .field  48,16                   ; _strDesc[3][2] @ 992
     158 000074 0030          .field  48,16                   ; _strDesc[3][3] @ 1008
     159 000075 0030          .field  48,16                   ; _strDesc[3][4] @ 1024
     160 000076 0031          .field  49,16                   ; _strDesc[3][5] @ 1040
     161              $C$IR_4:        .set    46
     162              
     163 000077               .sect   ".cinit"
     164                      .align  1
     165 000077 0001          .field          1,16
     166 000078 0002-         .field          _PaSs_StAtE+0,24
         000079 0500 
     167 000079 0500          .field          0,8
     168 00007a 0001          .field  1,16                    ; _PaSs_StAtE @ 0
     169              
     170 00007b               .sect   ".cinit"
     171                      .align  1
     172 00007b 0001          .field          1,16
     173 00007c 0002-         .field          _PaSs+0,24
         00007d 0600 
     174 00007d 0600          .field          0,8
     175 00007e 0000          .field  0,16                    ; _PaSs @ 0
     176              
     177              
     178              $C$DW$1 .dwtag  DW_TAG_subprogram, DW_AT_name("memcpy")
     179                      .dwattr $C$DW$1, DW_AT_TI_symbol_name("_memcpy")
     180                      .dwattr $C$DW$1, DW_AT_type(*$C$DW$T$3)
     181                      .dwattr $C$DW$1, DW_AT_declaration
     182                      .dwattr $C$DW$1, DW_AT_external
     183              $C$DW$2 .dwtag  DW_TAG_formal_parameter
     184                      .dwattr $C$DW$2, DW_AT_type(*$C$DW$T$3)
     185              $C$DW$3 .dwtag  DW_TAG_formal_parameter
     186                      .dwattr $C$DW$3, DW_AT_type(*$C$DW$T$154)
     187              $C$DW$4 .dwtag  DW_TAG_formal_parameter
     188                      .dwattr $C$DW$4, DW_AT_type(*$C$DW$T$11)
     189                      .dwendtag $C$DW$1
     190              
     191              
     192              $C$DW$5 .dwtag  DW_TAG_subprogram, DW_AT_name("printf")
     193                      .dwattr $C$DW$5, DW_AT_TI_symbol_name("_printf")
     194                      .dwattr $C$DW$5, DW_AT_type(*$C$DW$T$10)
     195                      .dwattr $C$DW$5, DW_AT_declaration
     196                      .dwattr $C$DW$5, DW_AT_external
     197              $C$DW$6 .dwtag  DW_TAG_formal_parameter
     198                      .dwattr $C$DW$6, DW_AT_type(*$C$DW$T$213)
     199              $C$DW$7 .dwtag  DW_TAG_unspecified_parameters
     200                      .dwendtag $C$DW$5
     201              
     202              
     203              $C$DW$8 .dwtag  DW_TAG_subprogram, DW_AT_name("USB_init")
     204                      .dwattr $C$DW$8, DW_AT_TI_symbol_name("_USB_init")
     205                      .dwattr $C$DW$8, DW_AT_type(*$C$DW$T$80)
     206                      .dwattr $C$DW$8, DW_AT_declaration
     207                      .dwattr $C$DW$8, DW_AT_external
     208              $C$DW$9 .dwtag  DW_TAG_formal_parameter
     209                      .dwattr $C$DW$9, DW_AT_type(*$C$DW$T$143)
TMS320C55x Assembler PC v4.4.1 Sat Sep 29 23:08:36 2018

Tools Copyright (c) 1996-2012 Texas Instruments Incorporated
csl_usb_intc_example.asm                                             PAGE    5

     210                      .dwendtag $C$DW$8
     211              
     212              
     213              $C$DW$10        .dwtag  DW_TAG_subprogram, DW_AT_name("USB_resetDev")
     214                      .dwattr $C$DW$10, DW_AT_TI_symbol_name("_USB_resetDev")
     215                      .dwattr $C$DW$10, DW_AT_type(*$C$DW$T$80)
     216                      .dwattr $C$DW$10, DW_AT_declaration
     217                      .dwattr $C$DW$10, DW_AT_external
     218              $C$DW$11        .dwtag  DW_TAG_formal_parameter
     219                      .dwattr $C$DW$11, DW_AT_type(*$C$DW$T$73)
     220                      .dwendtag $C$DW$10
     221              
     222              
     223              $C$DW$12        .dwtag  DW_TAG_subprogram, DW_AT_name("USB_initEndptObj")
     224                      .dwattr $C$DW$12, DW_AT_TI_symbol_name("_USB_initEndptObj")
     225                      .dwattr $C$DW$12, DW_AT_type(*$C$DW$T$80)
     226                      .dwattr $C$DW$12, DW_AT_declaration
     227                      .dwattr $C$DW$12, DW_AT_external
     228              $C$DW$13        .dwtag  DW_TAG_formal_parameter
     229                      .dwattr $C$DW$13, DW_AT_type(*$C$DW$T$73)
     230              $C$DW$14        .dwtag  DW_TAG_formal_parameter
     231                      .dwattr $C$DW$14, DW_AT_type(*$C$DW$T$106)
     232              $C$DW$15        .dwtag  DW_TAG_formal_parameter
     233                      .dwattr $C$DW$15, DW_AT_type(*$C$DW$T$112)
     234              $C$DW$16        .dwtag  DW_TAG_formal_parameter
     235                      .dwattr $C$DW$16, DW_AT_type(*$C$DW$T$114)
     236              $C$DW$17        .dwtag  DW_TAG_formal_parameter
     237                      .dwattr $C$DW$17, DW_AT_type(*$C$DW$T$19)
     238              $C$DW$18        .dwtag  DW_TAG_formal_parameter
     239                      .dwattr $C$DW$18, DW_AT_type(*$C$DW$T$19)
     240              $C$DW$19        .dwtag  DW_TAG_formal_parameter
     241                      .dwattr $C$DW$19, DW_AT_type(*$C$DW$T$117)
     242                      .dwendtag $C$DW$12
     243              
     244              
     245              $C$DW$20        .dwtag  DW_TAG_subprogram, DW_AT_name("USB_getSetupPacket")
     246                      .dwattr $C$DW$20, DW_AT_TI_symbol_name("_USB_getSetupPacket")
     247                      .dwattr $C$DW$20, DW_AT_type(*$C$DW$T$80)
     248                      .dwattr $C$DW$20, DW_AT_declaration
     249                      .dwattr $C$DW$20, DW_AT_external
     250              $C$DW$21        .dwtag  DW_TAG_formal_parameter
     251                      .dwattr $C$DW$21, DW_AT_type(*$C$DW$T$73)
     252              $C$DW$22        .dwtag  DW_TAG_formal_parameter
     253                      .dwattr $C$DW$22, DW_AT_type(*$C$DW$T$151)
     254              $C$DW$23        .dwtag  DW_TAG_formal_parameter
     255                      .dwattr $C$DW$23, DW_AT_type(*$C$DW$T$86)
     256                      .dwendtag $C$DW$20
     257              
     258              
     259              $C$DW$24        .dwtag  DW_TAG_subprogram, DW_AT_name("USB_postTransaction")
     260                      .dwattr $C$DW$24, DW_AT_TI_symbol_name("_USB_postTransaction")
     261                      .dwattr $C$DW$24, DW_AT_type(*$C$DW$T$80)
     262                      .dwattr $C$DW$24, DW_AT_declaration
     263                      .dwattr $C$DW$24, DW_AT_external
     264              $C$DW$25        .dwtag  DW_TAG_formal_parameter
TMS320C55x Assembler PC v4.4.1 Sat Sep 29 23:08:36 2018

Tools Copyright (c) 1996-2012 Texas Instruments Incorporated
csl_usb_intc_example.asm                                             PAGE    6

     265                      .dwattr $C$DW$25, DW_AT_type(*$C$DW$T$106)
     266              $C$DW$26        .dwtag  DW_TAG_formal_parameter
     267                      .dwattr $C$DW$26, DW_AT_type(*$C$DW$T$19)
     268              $C$DW$27        .dwtag  DW_TAG_formal_parameter
     269                      .dwattr $C$DW$27, DW_AT_type(*$C$DW$T$3)
     270              $C$DW$28        .dwtag  DW_TAG_formal_parameter
     271                      .dwattr $C$DW$28, DW_AT_type(*$C$DW$T$126)
     272                      .dwendtag $C$DW$24
     273              
     274              
     275              $C$DW$29        .dwtag  DW_TAG_subprogram, DW_AT_name("USB_isTransactionDone")
     276                      .dwattr $C$DW$29, DW_AT_TI_symbol_name("_USB_isTransactionDone")
     277                      .dwattr $C$DW$29, DW_AT_type(*$C$DW$T$92)
     278                      .dwattr $C$DW$29, DW_AT_declaration
     279                      .dwattr $C$DW$29, DW_AT_external
     280              $C$DW$30        .dwtag  DW_TAG_formal_parameter
     281                      .dwattr $C$DW$30, DW_AT_type(*$C$DW$T$106)
     282              $C$DW$31        .dwtag  DW_TAG_formal_parameter
     283                      .dwattr $C$DW$31, DW_AT_type(*$C$DW$T$128)
     284                      .dwendtag $C$DW$29
     285              
     286              
     287              $C$DW$32        .dwtag  DW_TAG_subprogram, DW_AT_name("USB_bytesRemaining")
     288                      .dwattr $C$DW$32, DW_AT_TI_symbol_name("_USB_bytesRemaining")
     289                      .dwattr $C$DW$32, DW_AT_type(*$C$DW$T$191)
     290                      .dwattr $C$DW$32, DW_AT_declaration
     291                      .dwattr $C$DW$32, DW_AT_external
     292              $C$DW$33        .dwtag  DW_TAG_formal_parameter
     293                      .dwattr $C$DW$33, DW_AT_type(*$C$DW$T$106)
     294              $C$DW$34        .dwtag  DW_TAG_formal_parameter
     295                      .dwattr $C$DW$34, DW_AT_type(*$C$DW$T$128)
     296                      .dwendtag $C$DW$32
     297              
     298              
     299              $C$DW$35        .dwtag  DW_TAG_subprogram, DW_AT_name("USB_stallEndpt")
     300                      .dwattr $C$DW$35, DW_AT_TI_symbol_name("_USB_stallEndpt")
     301                      .dwattr $C$DW$35, DW_AT_type(*$C$DW$T$80)
     302                      .dwattr $C$DW$35, DW_AT_declaration
     303                      .dwattr $C$DW$35, DW_AT_external
     304              $C$DW$36        .dwtag  DW_TAG_formal_parameter
     305                      .dwattr $C$DW$36, DW_AT_type(*$C$DW$T$106)
     306                      .dwendtag $C$DW$35
     307              
     308              
     309              $C$DW$37        .dwtag  DW_TAG_subprogram, DW_AT_name("USB_clearEndptStall")
     310                      .dwattr $C$DW$37, DW_AT_TI_symbol_name("_USB_clearEndptStall")
     311                      .dwattr $C$DW$37, DW_AT_type(*$C$DW$T$80)
     312                      .dwattr $C$DW$37, DW_AT_declaration
     313                      .dwattr $C$DW$37, DW_AT_external
     314              $C$DW$38        .dwtag  DW_TAG_formal_parameter
     315                      .dwattr $C$DW$38, DW_AT_type(*$C$DW$T$106)
     316                      .dwendtag $C$DW$37
     317              
     318              
     319              $C$DW$39        .dwtag  DW_TAG_subprogram, DW_AT_name("USB_getEndptStall")
TMS320C55x Assembler PC v4.4.1 Sat Sep 29 23:08:36 2018

Tools Copyright (c) 1996-2012 Texas Instruments Incorporated
csl_usb_intc_example.asm                                             PAGE    7

     320                      .dwattr $C$DW$39, DW_AT_TI_symbol_name("_USB_getEndptStall")
     321                      .dwattr $C$DW$39, DW_AT_type(*$C$DW$T$92)
     322                      .dwattr $C$DW$39, DW_AT_declaration
     323                      .dwattr $C$DW$39, DW_AT_external
     324              $C$DW$40        .dwtag  DW_TAG_formal_parameter
     325                      .dwattr $C$DW$40, DW_AT_type(*$C$DW$T$106)
     326              $C$DW$41        .dwtag  DW_TAG_formal_parameter
     327                      .dwattr $C$DW$41, DW_AT_type(*$C$DW$T$128)
     328                      .dwendtag $C$DW$39
     329              
     330              
     331              $C$DW$42        .dwtag  DW_TAG_subprogram, DW_AT_name("USB_epNumToHandle")
     332                      .dwattr $C$DW$42, DW_AT_TI_symbol_name("_USB_epNumToHandle")
     333                      .dwattr $C$DW$42, DW_AT_type(*$C$DW$T$106)
     334                      .dwattr $C$DW$42, DW_AT_declaration
     335                      .dwattr $C$DW$42, DW_AT_external
     336              $C$DW$43        .dwtag  DW_TAG_formal_parameter
     337                      .dwattr $C$DW$43, DW_AT_type(*$C$DW$T$73)
     338              $C$DW$44        .dwtag  DW_TAG_formal_parameter
     339                      .dwattr $C$DW$44, DW_AT_type(*$C$DW$T$19)
     340                      .dwendtag $C$DW$42
     341              
     342              
     343              $C$DW$45        .dwtag  DW_TAG_subprogram, DW_AT_name("USB_connectDev")
     344                      .dwattr $C$DW$45, DW_AT_TI_symbol_name("_USB_connectDev")
     345                      .dwattr $C$DW$45, DW_AT_type(*$C$DW$T$80)
     346                      .dwattr $C$DW$45, DW_AT_declaration
     347                      .dwattr $C$DW$45, DW_AT_external
     348              $C$DW$46        .dwtag  DW_TAG_formal_parameter
     349                      .dwattr $C$DW$46, DW_AT_type(*$C$DW$T$73)
     350                      .dwendtag $C$DW$45
     351              
     352              
     353              $C$DW$47        .dwtag  DW_TAG_subprogram, DW_AT_name("USB_disconnectDev")
     354                      .dwattr $C$DW$47, DW_AT_TI_symbol_name("_USB_disconnectDev")
     355                      .dwattr $C$DW$47, DW_AT_type(*$C$DW$T$80)
     356                      .dwattr $C$DW$47, DW_AT_declaration
     357                      .dwattr $C$DW$47, DW_AT_external
     358              $C$DW$48        .dwtag  DW_TAG_formal_parameter
     359                      .dwattr $C$DW$48, DW_AT_type(*$C$DW$T$73)
     360                      .dwendtag $C$DW$47
     361              
     362              
     363              $C$DW$49        .dwtag  DW_TAG_subprogram, DW_AT_name("USB_setRemoteWakeup")
     364                      .dwattr $C$DW$49, DW_AT_TI_symbol_name("_USB_setRemoteWakeup")
     365                      .dwattr $C$DW$49, DW_AT_type(*$C$DW$T$80)
     366                      .dwattr $C$DW$49, DW_AT_declaration
     367                      .dwattr $C$DW$49, DW_AT_external
     368              $C$DW$50        .dwtag  DW_TAG_formal_parameter
     369                      .dwattr $C$DW$50, DW_AT_type(*$C$DW$T$73)
     370              $C$DW$51        .dwtag  DW_TAG_formal_parameter
     371                      .dwattr $C$DW$51, DW_AT_type(*$C$DW$T$92)
     372                      .dwendtag $C$DW$49
     373              
     374              
TMS320C55x Assembler PC v4.4.1 Sat Sep 29 23:08:36 2018

Tools Copyright (c) 1996-2012 Texas Instruments Incorporated
csl_usb_intc_example.asm                                             PAGE    8

     375              $C$DW$52        .dwtag  DW_TAG_subprogram, DW_AT_name("USB_getRemoteWakeupStat")
     376                      .dwattr $C$DW$52, DW_AT_TI_symbol_name("_USB_getRemoteWakeupStat")
     377                      .dwattr $C$DW$52, DW_AT_type(*$C$DW$T$92)
     378                      .dwattr $C$DW$52, DW_AT_declaration
     379                      .dwattr $C$DW$52, DW_AT_external
     380              $C$DW$53        .dwtag  DW_TAG_formal_parameter
     381                      .dwattr $C$DW$53, DW_AT_type(*$C$DW$T$73)
     382                      .dwendtag $C$DW$52
     383              
     384              
     385              $C$DW$54        .dwtag  DW_TAG_subprogram, DW_AT_name("USB_issueRemoteWakeup")
     386                      .dwattr $C$DW$54, DW_AT_TI_symbol_name("_USB_issueRemoteWakeup")
     387                      .dwattr $C$DW$54, DW_AT_type(*$C$DW$T$80)
     388                      .dwattr $C$DW$54, DW_AT_declaration
     389                      .dwattr $C$DW$54, DW_AT_external
     390              $C$DW$55        .dwtag  DW_TAG_formal_parameter
     391                      .dwattr $C$DW$55, DW_AT_type(*$C$DW$T$73)
     392              $C$DW$56        .dwtag  DW_TAG_formal_parameter
     393                      .dwattr $C$DW$56, DW_AT_type(*$C$DW$T$86)
     394                      .dwendtag $C$DW$54
     395              
     396              
     397              $C$DW$57        .dwtag  DW_TAG_subprogram, DW_AT_name("USB_setDevAddr")
     398                      .dwattr $C$DW$57, DW_AT_TI_symbol_name("_USB_setDevAddr")
     399                      .dwattr $C$DW$57, DW_AT_type(*$C$DW$T$80)
     400                      .dwattr $C$DW$57, DW_AT_declaration
     401                      .dwattr $C$DW$57, DW_AT_external
     402              $C$DW$58        .dwtag  DW_TAG_formal_parameter
     403                      .dwattr $C$DW$58, DW_AT_type(*$C$DW$T$73)
     404              $C$DW$59        .dwtag  DW_TAG_formal_parameter
     405                      .dwattr $C$DW$59, DW_AT_type(*$C$DW$T$19)
     406                      .dwendtag $C$DW$57
     407              
     408              
     409              $C$DW$60        .dwtag  DW_TAG_subprogram, DW_AT_name("USB_suspendDevice")
     410                      .dwattr $C$DW$60, DW_AT_TI_symbol_name("_USB_suspendDevice")
     411                      .dwattr $C$DW$60, DW_AT_type(*$C$DW$T$80)
     412                      .dwattr $C$DW$60, DW_AT_declaration
     413                      .dwattr $C$DW$60, DW_AT_external
     414              $C$DW$61        .dwtag  DW_TAG_formal_parameter
     415                      .dwattr $C$DW$61, DW_AT_type(*$C$DW$T$73)
     416                      .dwendtag $C$DW$60
     417              
     418              
     419              $C$DW$62        .dwtag  DW_TAG_subprogram, DW_AT_name("USB_setParams")
     420                      .dwattr $C$DW$62, DW_AT_TI_symbol_name("_USB_setParams")
     421                      .dwattr $C$DW$62, DW_AT_type(*$C$DW$T$80)
     422                      .dwattr $C$DW$62, DW_AT_declaration
     423                      .dwattr $C$DW$62, DW_AT_external
     424              $C$DW$63        .dwtag  DW_TAG_formal_parameter
     425                      .dwattr $C$DW$63, DW_AT_type(*$C$DW$T$73)
     426              $C$DW$64        .dwtag  DW_TAG_formal_parameter
     427                      .dwattr $C$DW$64, DW_AT_type(*$C$DW$T$149)
     428              $C$DW$65        .dwtag  DW_TAG_formal_parameter
     429                      .dwattr $C$DW$65, DW_AT_type(*$C$DW$T$19)
TMS320C55x Assembler PC v4.4.1 Sat Sep 29 23:08:36 2018

Tools Copyright (c) 1996-2012 Texas Instruments Incorporated
csl_usb_intc_example.asm                                             PAGE    9

     430                      .dwendtag $C$DW$62
     431              
     432              
     433              $C$DW$66        .dwtag  DW_TAG_subprogram, DW_AT_name("USB_getDataCountReadFromFifo")
     434                      .dwattr $C$DW$66, DW_AT_TI_symbol_name("_USB_getDataCountReadFromFifo")
     435                      .dwattr $C$DW$66, DW_AT_type(*$C$DW$T$19)
     436                      .dwattr $C$DW$66, DW_AT_declaration
     437                      .dwattr $C$DW$66, DW_AT_external
     438              $C$DW$67        .dwtag  DW_TAG_formal_parameter
     439                      .dwattr $C$DW$67, DW_AT_type(*$C$DW$T$106)
     440                      .dwendtag $C$DW$66
     441              
     442              
     443              $C$DW$68        .dwtag  DW_TAG_subprogram, DW_AT_name("IRQ_plug")
     444                      .dwattr $C$DW$68, DW_AT_TI_symbol_name("_IRQ_plug")
     445                      .dwattr $C$DW$68, DW_AT_type(*$C$DW$T$10)
     446                      .dwattr $C$DW$68, DW_AT_declaration
     447                      .dwattr $C$DW$68, DW_AT_external
     448              $C$DW$69        .dwtag  DW_TAG_formal_parameter
     449                      .dwattr $C$DW$69, DW_AT_type(*$C$DW$T$19)
     450              $C$DW$70        .dwtag  DW_TAG_formal_parameter
     451                      .dwattr $C$DW$70, DW_AT_type(*$C$DW$T$69)
     452                      .dwendtag $C$DW$68
     453              
     454              
     455              $C$DW$71        .dwtag  DW_TAG_subprogram, DW_AT_name("IRQ_enable")
     456                      .dwattr $C$DW$71, DW_AT_TI_symbol_name("_IRQ_enable")
     457                      .dwattr $C$DW$71, DW_AT_type(*$C$DW$T$10)
     458                      .dwattr $C$DW$71, DW_AT_declaration
     459                      .dwattr $C$DW$71, DW_AT_external
     460              $C$DW$72        .dwtag  DW_TAG_formal_parameter
     461                      .dwattr $C$DW$72, DW_AT_type(*$C$DW$T$19)
     462                      .dwendtag $C$DW$71
     463              
     464              
     465              $C$DW$73        .dwtag  DW_TAG_subprogram, DW_AT_name("IRQ_setVecs")
     466                      .dwattr $C$DW$73, DW_AT_TI_symbol_name("_IRQ_setVecs")
     467                      .dwattr $C$DW$73, DW_AT_type(*$C$DW$T$80)
     468                      .dwattr $C$DW$73, DW_AT_declaration
     469                      .dwattr $C$DW$73, DW_AT_external
     470              $C$DW$74        .dwtag  DW_TAG_formal_parameter
     471                      .dwattr $C$DW$74, DW_AT_type(*$C$DW$T$70)
     472                      .dwendtag $C$DW$73
     473              
     474              
     475              $C$DW$75        .dwtag  DW_TAG_subprogram, DW_AT_name("IRQ_globalEnable")
     476                      .dwattr $C$DW$75, DW_AT_TI_symbol_name("_IRQ_globalEnable")
     477                      .dwattr $C$DW$75, DW_AT_type(*$C$DW$T$86)
     478                      .dwattr $C$DW$75, DW_AT_declaration
     479                      .dwattr $C$DW$75, DW_AT_external
     480              
     481              $C$DW$76        .dwtag  DW_TAG_subprogram, DW_AT_name("VECSTART")
     482                      .dwattr $C$DW$76, DW_AT_TI_symbol_name("_VECSTART")
     483                      .dwattr $C$DW$76, DW_AT_declaration
     484                      .dwattr $C$DW$76, DW_AT_external
TMS320C55x Assembler PC v4.4.1 Sat Sep 29 23:08:36 2018

Tools Copyright (c) 1996-2012 Texas Instruments Incorporated
csl_usb_intc_example.asm                                             PAGE   10

     485              $C$DW$77        .dwtag  DW_TAG_variable, DW_AT_name("usbRegisters")
     486                      .dwattr $C$DW$77, DW_AT_TI_symbol_name("_usbRegisters")
     487                      .dwattr $C$DW$77, DW_AT_type(*$C$DW$T$136)
     488                      .dwattr $C$DW$77, DW_AT_declaration
     489                      .dwattr $C$DW$77, DW_AT_external
     490              $C$DW$78        .dwtag  DW_TAG_variable, DW_AT_name("sysCtrlRegs")
     491                      .dwattr $C$DW$78, DW_AT_TI_symbol_name("_sysCtrlRegs")
     492                      .dwattr $C$DW$78, DW_AT_type(*$C$DW$T$140)
     493                      .dwattr $C$DW$78, DW_AT_declaration
     494                      .dwattr $C$DW$78, DW_AT_external
     495              $C$DW$79        .dwtag  DW_TAG_variable, DW_AT_name("gUsbContext")
     496                      .dwattr $C$DW$79, DW_AT_TI_symbol_name("_gUsbContext")
     497                      .dwattr $C$DW$79, DW_AT_type(*$C$DW$T$144)
     498                      .dwattr $C$DW$79, DW_AT_declaration
     499                      .dwattr $C$DW$79, DW_AT_external
     500                      .global _hEpObjArray
     501 000000               .bss    _hEpObjArray,16,0,2
     502              $C$DW$80        .dwtag  DW_TAG_variable, DW_AT_name("hEpObjArray")
     503                      .dwattr $C$DW$80, DW_AT_TI_symbol_name("_hEpObjArray")
     504                      .dwattr $C$DW$80, DW_AT_location[DW_OP_addr _hEpObjArray]
     505                      .dwattr $C$DW$80, DW_AT_type(*$C$DW$T$107)
     506                      .dwattr $C$DW$80, DW_AT_external
     507                      .global _hEPx
     508 000010               .bss    _hEPx,2,0,2
     509              $C$DW$81        .dwtag  DW_TAG_variable, DW_AT_name("hEPx")
     510                      .dwattr $C$DW$81, DW_AT_TI_symbol_name("_hEPx")
     511                      .dwattr $C$DW$81, DW_AT_location[DW_OP_addr _hEPx]
     512                      .dwattr $C$DW$81, DW_AT_type(*$C$DW$T$106)
     513                      .dwattr $C$DW$81, DW_AT_external
     514                      .global _usbCtrlOutEpObj
     515 000012               .bss    _usbCtrlOutEpObj,20,0,2
     516              $C$DW$82        .dwtag  DW_TAG_variable, DW_AT_name("usbCtrlOutEpObj")
     517                      .dwattr $C$DW$82, DW_AT_TI_symbol_name("_usbCtrlOutEpObj")
     518                      .dwattr $C$DW$82, DW_AT_location[DW_OP_addr _usbCtrlOutEpObj]
     519                      .dwattr $C$DW$82, DW_AT_type(*$C$DW$T$104)
     520                      .dwattr $C$DW$82, DW_AT_external
     521                      .global _usbCtrlInEpObj
     522 000026               .bss    _usbCtrlInEpObj,20,0,2
     523              $C$DW$83        .dwtag  DW_TAG_variable, DW_AT_name("usbCtrlInEpObj")
     524                      .dwattr $C$DW$83, DW_AT_TI_symbol_name("_usbCtrlInEpObj")
     525                      .dwattr $C$DW$83, DW_AT_location[DW_OP_addr _usbCtrlInEpObj]
     526                      .dwattr $C$DW$83, DW_AT_type(*$C$DW$T$104)
     527                      .dwattr $C$DW$83, DW_AT_external
     528                      .global _usbBulkOutEpObj
     529 00003a               .bss    _usbBulkOutEpObj,20,0,2
     530              $C$DW$84        .dwtag  DW_TAG_variable, DW_AT_name("usbBulkOutEpObj")
     531                      .dwattr $C$DW$84, DW_AT_TI_symbol_name("_usbBulkOutEpObj")
     532                      .dwattr $C$DW$84, DW_AT_location[DW_OP_addr _usbBulkOutEpObj]
     533                      .dwattr $C$DW$84, DW_AT_type(*$C$DW$T$104)
     534                      .dwattr $C$DW$84, DW_AT_external
     535                      .global _usbBulkInEpObj
     536 00004e               .bss    _usbBulkInEpObj,20,0,2
     537              $C$DW$85        .dwtag  DW_TAG_variable, DW_AT_name("usbBulkInEpObj")
     538                      .dwattr $C$DW$85, DW_AT_TI_symbol_name("_usbBulkInEpObj")
     539                      .dwattr $C$DW$85, DW_AT_location[DW_OP_addr _usbBulkInEpObj]
TMS320C55x Assembler PC v4.4.1 Sat Sep 29 23:08:36 2018

Tools Copyright (c) 1996-2012 Texas Instruments Incorporated
csl_usb_intc_example.asm                                             PAGE   11

     540                      .dwattr $C$DW$85, DW_AT_type(*$C$DW$T$104)
     541                      .dwattr $C$DW$85, DW_AT_external
     542                      .global _usbConfig
     543 000062               .bss    _usbConfig,12,0,2
     544              $C$DW$86        .dwtag  DW_TAG_variable, DW_AT_name("usbConfig")
     545                      .dwattr $C$DW$86, DW_AT_TI_symbol_name("_usbConfig")
     546                      .dwattr $C$DW$86, DW_AT_location[DW_OP_addr _usbConfig]
     547                      .dwattr $C$DW$86, DW_AT_type(*$C$DW$T$142)
     548                      .dwattr $C$DW$86, DW_AT_external
     549                      .global _usbSetup
     550 00006e               .bss    _usbSetup,6,0,0
     551              $C$DW$87        .dwtag  DW_TAG_variable, DW_AT_name("usbSetup")
     552                      .dwattr $C$DW$87, DW_AT_TI_symbol_name("_usbSetup")
     553                      .dwattr $C$DW$87, DW_AT_location[DW_OP_addr _usbSetup]
     554                      .dwattr $C$DW$87, DW_AT_type(*$C$DW$T$101)
     555                      .dwattr $C$DW$87, DW_AT_external
     556                      .global _txRxStatus
     557 000074               .bss    _txRxStatus,1,0,0
     558              $C$DW$88        .dwtag  DW_TAG_variable, DW_AT_name("txRxStatus")
     559                      .dwattr $C$DW$88, DW_AT_TI_symbol_name("_txRxStatus")
     560                      .dwattr $C$DW$88, DW_AT_location[DW_OP_addr _txRxStatus]
     561                      .dwattr $C$DW$88, DW_AT_type(*$C$DW$T$92)
     562                      .dwattr $C$DW$88, DW_AT_external
     563                      .global _status
     564 000075               .bss    _status,1,0,0
     565              $C$DW$89        .dwtag  DW_TAG_variable, DW_AT_name("status")
     566                      .dwattr $C$DW$89, DW_AT_TI_symbol_name("_status")
     567                      .dwattr $C$DW$89, DW_AT_location[DW_OP_addr _status]
     568                      .dwattr $C$DW$89, DW_AT_type(*$C$DW$T$80)
     569                      .dwattr $C$DW$89, DW_AT_external
     570                      .global _pContext
     571 000076               .bss    _pContext,2,0,2
     572              $C$DW$90        .dwtag  DW_TAG_variable, DW_AT_name("pContext")
     573                      .dwattr $C$DW$90, DW_AT_TI_symbol_name("_pContext")
     574                      .dwattr $C$DW$90, DW_AT_location[DW_OP_addr _pContext]
     575                      .dwattr $C$DW$90, DW_AT_type(*$C$DW$T$146)
     576                      .dwattr $C$DW$90, DW_AT_external
     577                      .global _usbDataBuffer
     578 000078               .bss    _usbDataBuffer,256,0,0
     579              $C$DW$91        .dwtag  DW_TAG_variable, DW_AT_name("usbDataBuffer")
     580                      .dwattr $C$DW$91, DW_AT_TI_symbol_name("_usbDataBuffer")
     581                      .dwattr $C$DW$91, DW_AT_location[DW_OP_addr _usbDataBuffer]
     582                      .dwattr $C$DW$91, DW_AT_type(*$C$DW$T$199)
     583                      .dwattr $C$DW$91, DW_AT_external
     584                      .global _deviceDescPtr
     585 000178               .bss    _deviceDescPtr,2,0,2
     586              $C$DW$92        .dwtag  DW_TAG_variable, DW_AT_name("deviceDescPtr")
     587                      .dwattr $C$DW$92, DW_AT_TI_symbol_name("_deviceDescPtr")
     588                      .dwattr $C$DW$92, DW_AT_location[DW_OP_addr _deviceDescPtr]
     589                      .dwattr $C$DW$92, DW_AT_type(*$C$DW$T$102)
     590                      .dwattr $C$DW$92, DW_AT_external
     591                      .global _cfgDescPtr
     592 00017a               .bss    _cfgDescPtr,2,0,2
     593              $C$DW$93        .dwtag  DW_TAG_variable, DW_AT_name("cfgDescPtr")
     594                      .dwattr $C$DW$93, DW_AT_TI_symbol_name("_cfgDescPtr")
TMS320C55x Assembler PC v4.4.1 Sat Sep 29 23:08:36 2018

Tools Copyright (c) 1996-2012 Texas Instruments Incorporated
csl_usb_intc_example.asm                                             PAGE   12

     595                      .dwattr $C$DW$93, DW_AT_location[DW_OP_addr _cfgDescPtr]
     596                      .dwattr $C$DW$93, DW_AT_type(*$C$DW$T$102)
     597                      .dwattr $C$DW$93, DW_AT_external
     598                      .global _strDescPtr
     599 00017c               .bss    _strDescPtr,2,0,2
     600              $C$DW$94        .dwtag  DW_TAG_variable, DW_AT_name("strDescPtr")
     601                      .dwattr $C$DW$94, DW_AT_TI_symbol_name("_strDescPtr")
     602                      .dwattr $C$DW$94, DW_AT_location[DW_OP_addr _strDescPtr]
     603                      .dwattr $C$DW$94, DW_AT_type(*$C$DW$T$102)
     604                      .dwattr $C$DW$94, DW_AT_external
     605                      .global _bytesRem
     606 00017e               .bss    _bytesRem,1,0,0
     607              $C$DW$95        .dwtag  DW_TAG_variable, DW_AT_name("bytesRem")
     608                      .dwattr $C$DW$95, DW_AT_TI_symbol_name("_bytesRem")
     609                      .dwattr $C$DW$95, DW_AT_location[DW_OP_addr _bytesRem]
     610                      .dwattr $C$DW$95, DW_AT_type(*$C$DW$T$19)
     611                      .dwattr $C$DW$95, DW_AT_external
     612                      .global _devAddr
     613 00017f               .bss    _devAddr,1,0,0
     614              $C$DW$96        .dwtag  DW_TAG_variable, DW_AT_name("devAddr")
     615                      .dwattr $C$DW$96, DW_AT_TI_symbol_name("_devAddr")
     616                      .dwattr $C$DW$96, DW_AT_location[DW_OP_addr _devAddr]
     617                      .dwattr $C$DW$96, DW_AT_type(*$C$DW$T$19)
     618                      .dwattr $C$DW$96, DW_AT_external
     619                      .global _saveIndex
     620 000180               .bss    _saveIndex,1,0,0
     621              $C$DW$97        .dwtag  DW_TAG_variable, DW_AT_name("saveIndex")
     622                      .dwattr $C$DW$97, DW_AT_TI_symbol_name("_saveIndex")
     623                      .dwattr $C$DW$97, DW_AT_location[DW_OP_addr _saveIndex]
     624                      .dwattr $C$DW$97, DW_AT_type(*$C$DW$T$19)
     625                      .dwattr $C$DW$97, DW_AT_external
     626                      .global _endpt
     627 000181               .bss    _endpt,1,0,0
     628              $C$DW$98        .dwtag  DW_TAG_variable, DW_AT_name("endpt")
     629                      .dwattr $C$DW$98, DW_AT_TI_symbol_name("_endpt")
     630                      .dwattr $C$DW$98, DW_AT_location[DW_OP_addr _endpt]
     631                      .dwattr $C$DW$98, DW_AT_type(*$C$DW$T$19)
     632                      .dwattr $C$DW$98, DW_AT_external
     633                      .global _stopRunning
     634 000182               .bss    _stopRunning,1,0,0
     635              $C$DW$99        .dwtag  DW_TAG_variable, DW_AT_name("stopRunning")
     636                      .dwattr $C$DW$99, DW_AT_TI_symbol_name("_stopRunning")
     637                      .dwattr $C$DW$99, DW_AT_location[DW_OP_addr _stopRunning]
     638                      .dwattr $C$DW$99, DW_AT_type(*$C$DW$T$206)
     639                      .dwattr $C$DW$99, DW_AT_external
     640                      .global _usbDevDisconnect
     641 000183               .bss    _usbDevDisconnect,1,0,0
     642              $C$DW$100       .dwtag  DW_TAG_variable, DW_AT_name("usbDevDisconnect")
     643                      .dwattr $C$DW$100, DW_AT_TI_symbol_name("_usbDevDisconnect")
     644                      .dwattr $C$DW$100, DW_AT_location[DW_OP_addr _usbDevDisconnect]
     645                      .dwattr $C$DW$100, DW_AT_type(*$C$DW$T$86)
     646                      .dwattr $C$DW$100, DW_AT_external
     647                      .global _deviceDesc
     648 000184               .bss    _deviceDesc,9,0,0
     649              $C$DW$101       .dwtag  DW_TAG_variable, DW_AT_name("deviceDesc")
TMS320C55x Assembler PC v4.4.1 Sat Sep 29 23:08:36 2018

Tools Copyright (c) 1996-2012 Texas Instruments Incorporated
csl_usb_intc_example.asm                                             PAGE   13

     650                      .dwattr $C$DW$101, DW_AT_TI_symbol_name("_deviceDesc")
     651                      .dwattr $C$DW$101, DW_AT_location[DW_OP_addr _deviceDesc]
     652                      .dwattr $C$DW$101, DW_AT_type(*$C$DW$T$201)
     653                      .dwattr $C$DW$101, DW_AT_external
     654                      .global _cfgDesc
     655 00018d               .bss    _cfgDesc,40,0,0
     656              $C$DW$102       .dwtag  DW_TAG_variable, DW_AT_name("cfgDesc")
     657                      .dwattr $C$DW$102, DW_AT_TI_symbol_name("_cfgDesc")
     658                      .dwattr $C$DW$102, DW_AT_location[DW_OP_addr _cfgDesc]
     659                      .dwattr $C$DW$102, DW_AT_type(*$C$DW$T$202)
     660                      .dwattr $C$DW$102, DW_AT_external
     661                      .global _strDesc
     662 0001b5               .bss    _strDesc,80,0,0
     663              $C$DW$103       .dwtag  DW_TAG_variable, DW_AT_name("strDesc")
     664                      .dwattr $C$DW$103, DW_AT_TI_symbol_name("_strDesc")
     665                      .dwattr $C$DW$103, DW_AT_location[DW_OP_addr _strDesc]
     666                      .dwattr $C$DW$103, DW_AT_type(*$C$DW$T$204)
     667                      .dwattr $C$DW$103, DW_AT_external
     668                      .global _PaSs_StAtE
     669 000205               .bss    _PaSs_StAtE,1,0,0
     670              $C$DW$104       .dwtag  DW_TAG_variable, DW_AT_name("PaSs_StAtE")
     671                      .dwattr $C$DW$104, DW_AT_TI_symbol_name("_PaSs_StAtE")
     672                      .dwattr $C$DW$104, DW_AT_location[DW_OP_addr _PaSs_StAtE]
     673                      .dwattr $C$DW$104, DW_AT_type(*$C$DW$T$190)
     674                      .dwattr $C$DW$104, DW_AT_external
     675                      .global _PaSs
     676 000206               .bss    _PaSs,1,0,0
     677              $C$DW$105       .dwtag  DW_TAG_variable, DW_AT_name("PaSs")
     678                      .dwattr $C$DW$105, DW_AT_TI_symbol_name("_PaSs")
     679                      .dwattr $C$DW$105, DW_AT_location[DW_OP_addr _PaSs]
     680                      .dwattr $C$DW$105, DW_AT_type(*$C$DW$T$190)
     681                      .dwattr $C$DW$105, DW_AT_external
     682                      .global _usb_income_num_bytes
     683 000207               .bss    _usb_income_num_bytes,1,0,0
     684              $C$DW$106       .dwtag  DW_TAG_variable, DW_AT_name("usb_income_num_bytes")
     685                      .dwattr $C$DW$106, DW_AT_TI_symbol_name("_usb_income_num_bytes")
     686                      .dwattr $C$DW$106, DW_AT_location[DW_OP_addr _usb_income_num_bytes]
     687                      .dwattr $C$DW$106, DW_AT_type(*$C$DW$T$19)
     688                      .dwattr $C$DW$106, DW_AT_external
     689              ;       F:\t\cc5p5\ccsv5\tools\compiler\c5500_4.4.1\bin\acp55.exe -@f:\\AppData\\Local\\Temp\\2685612 
     690 000000               .sect   ".text"
     691                      .align 4
     692              
     693              $C$DW$107       .dwtag  DW_TAG_subprogram, DW_AT_name("USB_dmaRxStart")
     694                      .dwattr $C$DW$107, DW_AT_low_pc(_USB_dmaRxStart)
     695                      .dwattr $C$DW$107, DW_AT_high_pc(0x00)
     696                      .dwattr $C$DW$107, DW_AT_TI_symbol_name("_USB_dmaRxStart")
     697                      .dwattr $C$DW$107, DW_AT_TI_begin_file("F:/eZdsp_DBG/tmp1/c55x-sim2/foo/c5535_bsl_revc/ezdsp5535_v1/c
     698                      .dwattr $C$DW$107, DW_AT_TI_begin_line(0x180)
     699                      .dwattr $C$DW$107, DW_AT_TI_begin_column(0x06)
     700                      .dwattr $C$DW$107, DW_AT_TI_max_frame_size(0x04)
     701                      .dwpsn  file "F:/eZdsp_DBG/tmp1/c55x-sim2/foo/c5535_bsl_revc/ezdsp5535_v1/c55xx_csl/inc/csl_usbAux.h"
     702              
     703                      .dwfde $C$DW$CIE, _USB_dmaRxStart
     704              $C$DW$108       .dwtag  DW_TAG_formal_parameter, DW_AT_name("dwEndpoint")
TMS320C55x Assembler PC v4.4.1 Sat Sep 29 23:08:36 2018

Tools Copyright (c) 1996-2012 Texas Instruments Incorporated
csl_usb_intc_example.asm                                             PAGE   14

     705                      .dwattr $C$DW$108, DW_AT_TI_symbol_name("_dwEndpoint")
     706                      .dwattr $C$DW$108, DW_AT_type(*$C$DW$T$88)
     707                      .dwattr $C$DW$108, DW_AT_location[DW_OP_reg0]
     708              ;*******************************************************************************
     709              ;* FUNCTION NAME: USB_dmaRxStart                                               *
     710              ;*                                                                             *
     711              ;*   Function Uses Regs : AC0,AC0,T0,AR1,AR3,SP,M40,SATA,SATD,RDM,FRCT,SMUL    *
     712              ;*   Stack Frame        : Compact (No Frame Pointer, w/ debug)                 *
     713              ;*   Total Frame Size   : 4 words                                              *
     714              ;*                        (1 return address/alignment)                         *
     715              ;*                        (3 local values)                                     *
     716              ;*   Min System Stack   : 1 word                                               *
     717              ;*******************************************************************************
     718 000000       _USB_dmaRxStart:
     719                      .dwcfi  cfa_offset, 1
     720                      .dwcfi  save_reg_to_mem, 91, -1
     721 000000 4EFD          AADD #-3, SP
     722                      .dwcfi  cfa_offset, 4
     723              $C$DW$109       .dwtag  DW_TAG_variable, DW_AT_name("dwEndpoint")
     724                      .dwattr $C$DW$109, DW_AT_TI_symbol_name("_dwEndpoint")
     725                      .dwattr $C$DW$109, DW_AT_type(*$C$DW$T$88)
     726                      .dwattr $C$DW$109, DW_AT_location[DW_OP_bregx 0x24 0]
     727              $C$DW$110       .dwtag  DW_TAG_variable, DW_AT_name("saveIndex")
     728                      .dwattr $C$DW$110, DW_AT_TI_symbol_name("_saveIndex")
     729                      .dwattr $C$DW$110, DW_AT_type(*$C$DW$T$19)
     730                      .dwattr $C$DW$110, DW_AT_location[DW_OP_bregx 0x24 2]
     731 000002 EB00          MOV AC0, dbl(*SP(#0)) ; |385| 
         000004 08   
     732                      .dwpsn  file "F:/eZdsp_DBG/tmp1/c55x-sim2/foo/c5535_bsl_revc/ezdsp5535_v1/c55xx_csl/inc/csl_usbAux.h"
     733 000005 7604          MOV #1038, T0 ; |389| 
         000007 0E48 
     734 000009 AB31          MOV *(#_usbRegisters), AR3 ; |389| 
         00000b 0000 
         00000d 00!  
     735 00000e A96B          MOV port(*AR3(T0)), AR1 ; |389| 
         000010 99   
     736 000011 C904          MOV AR1, *SP(#2) ; |389| 
     737                      .dwpsn  file "F:/eZdsp_DBG/tmp1/c55x-sim2/foo/c5535_bsl_revc/ezdsp5535_v1/c55xx_csl/inc/csl_usbAux.h"
     738 000013 F46B          AND #0xfff0, port(*AR3(T0)) ; |392| 
         000015 FFF0 
         000017 9A   
     739                      .dwpsn  file "F:/eZdsp_DBG/tmp1/c55x-sim2/foo/c5535_bsl_revc/ezdsp5535_v1/c55xx_csl/inc/csl_usbAux.h"
     740 000018 AB31          MOV *(#_usbRegisters), AR3 ; |393| 
         00001a 0000 
         00001c 00!  
     741 00001d ED00          MOV dbl(*SP(#0)), AC0 ; |393| 
         00001f 08   
     742 000020 DA6B          OR port(*AR3(T0)), AC0, AC0 ; |393| 
         000022 00   
         000023 99   
     743 000024 C06B          MOV AC0, port(*AR3(T0)) ; |393| 
         000026 9A   
     744                      .dwpsn  file "F:/eZdsp_DBG/tmp1/c55x-sim2/foo/c5535_bsl_revc/ezdsp5535_v1/c55xx_csl/inc/csl_usbAux.h"
     745 000027 7604          MOV #1046, T0 ; |396| 
         000029 1648 
TMS320C55x Assembler PC v4.4.1 Sat Sep 29 23:08:36 2018

Tools Copyright (c) 1996-2012 Texas Instruments Incorporated
csl_usb_intc_example.asm                                             PAGE   15

     746 00002b AB31          MOV *(#_usbRegisters), AR3 ; |396| 
         00002d 0000 
         00002f 00!  
     747 000030 F46B          AND #0x6fff, port(*AR3(T0)) ; |396| 
         000032 6FFF 
         000034 9A   
     748                      .dwpsn  file "F:/eZdsp_DBG/tmp1/c55x-sim2/foo/c5535_bsl_revc/ezdsp5535_v1/c55xx_csl/inc/csl_usbAux.h"
     749 000035 AB31          MOV *(#_usbRegisters), AR3 ; |399| 
         000037 0000 
         000039 00!  
     750 00003a F56B          OR #0x2000, port(*AR3(T0)) ; |399| 
         00003c 2000 
         00003e 9A   
     751                      .dwpsn  file "F:/eZdsp_DBG/tmp1/c55x-sim2/foo/c5535_bsl_revc/ezdsp5535_v1/c55xx_csl/inc/csl_usbAux.h"
     752 00003f 7604          MOV #1038, T0 ; |402| 
         000041 0E48 
     753 000043 AB31          MOV *(#_usbRegisters), AR3 ; |402| 
         000045 0000 
         000047 00!  
     754 000048 A904          MOV *SP(#2), AR1 ; |402| 
     755 00004a C96B          MOV AR1, port(*AR3(T0)) ; |402| 
         00004c 9A   
     756                      .dwpsn  file "F:/eZdsp_DBG/tmp1/c55x-sim2/foo/c5535_bsl_revc/ezdsp5535_v1/c55xx_csl/inc/csl_usbAux.h"
     757 00004d 4E03          AADD #3, SP
     758                      .dwcfi  cfa_offset, 1
     759              $C$DW$111       .dwtag  DW_TAG_TI_branch
     760                      .dwattr $C$DW$111, DW_AT_low_pc(0x00)
     761                      .dwattr $C$DW$111, DW_AT_TI_return
     762 00004f 4804          RET
     763                                                      ; return occurs
     764                      .dwattr $C$DW$107, DW_AT_TI_end_file("F:/eZdsp_DBG/tmp1/c55x-sim2/foo/c5535_bsl_revc/ezdsp5535_v1/c55
     765                      .dwattr $C$DW$107, DW_AT_TI_end_line(0x193)
     766                      .dwattr $C$DW$107, DW_AT_TI_end_column(0x01)
     767                      .dwendentry
     768                      .dwendtag $C$DW$107
     769              
     770 000051               .sect   ".text"
     771                      .align 4
     772              
     773              $C$DW$112       .dwtag  DW_TAG_subprogram, DW_AT_name("USB_dmaTxStart")
     774                      .dwattr $C$DW$112, DW_AT_low_pc(_USB_dmaTxStart)
     775                      .dwattr $C$DW$112, DW_AT_high_pc(0x00)
     776                      .dwattr $C$DW$112, DW_AT_TI_symbol_name("_USB_dmaTxStart")
     777                      .dwattr $C$DW$112, DW_AT_TI_begin_file("F:/eZdsp_DBG/tmp1/c55x-sim2/foo/c5535_bsl_revc/ezdsp5535_v1/c
     778                      .dwattr $C$DW$112, DW_AT_TI_begin_line(0x2da)
     779                      .dwattr $C$DW$112, DW_AT_TI_begin_column(0x06)
     780                      .dwattr $C$DW$112, DW_AT_TI_max_frame_size(0x04)
     781                      .dwpsn  file "F:/eZdsp_DBG/tmp1/c55x-sim2/foo/c5535_bsl_revc/ezdsp5535_v1/c55xx_csl/inc/csl_usbAux.h"
     782              
     783                      .dwfde $C$DW$CIE, _USB_dmaTxStart
     784              $C$DW$113       .dwtag  DW_TAG_formal_parameter, DW_AT_name("dwEndpoint")
     785                      .dwattr $C$DW$113, DW_AT_TI_symbol_name("_dwEndpoint")
     786                      .dwattr $C$DW$113, DW_AT_type(*$C$DW$T$88)
     787                      .dwattr $C$DW$113, DW_AT_location[DW_OP_reg0]
     788              ;*******************************************************************************
TMS320C55x Assembler PC v4.4.1 Sat Sep 29 23:08:36 2018

Tools Copyright (c) 1996-2012 Texas Instruments Incorporated
csl_usb_intc_example.asm                                             PAGE   16

     789              ;* FUNCTION NAME: USB_dmaTxStart                                               *
     790              ;*                                                                             *
     791              ;*   Function Uses Regs : AC0,AC0,T0,AR1,AR3,SP,M40,SATA,SATD,RDM,FRCT,SMUL    *
     792              ;*   Stack Frame        : Compact (No Frame Pointer, w/ debug)                 *
     793              ;*   Total Frame Size   : 4 words                                              *
     794              ;*                        (1 return address/alignment)                         *
     795              ;*                        (3 local values)                                     *
     796              ;*   Min System Stack   : 1 word                                               *
     797              ;*******************************************************************************
     798 000054       _USB_dmaTxStart:
     799                      .dwcfi  cfa_offset, 1
     800                      .dwcfi  save_reg_to_mem, 91, -1
     801 000054 4EFD          AADD #-3, SP
     802                      .dwcfi  cfa_offset, 4
     803              $C$DW$114       .dwtag  DW_TAG_variable, DW_AT_name("dwEndpoint")
     804                      .dwattr $C$DW$114, DW_AT_TI_symbol_name("_dwEndpoint")
     805                      .dwattr $C$DW$114, DW_AT_type(*$C$DW$T$88)
     806                      .dwattr $C$DW$114, DW_AT_location[DW_OP_bregx 0x24 0]
     807              $C$DW$115       .dwtag  DW_TAG_variable, DW_AT_name("saveIndex")
     808                      .dwattr $C$DW$115, DW_AT_TI_symbol_name("_saveIndex")
     809                      .dwattr $C$DW$115, DW_AT_type(*$C$DW$T$19)
     810                      .dwattr $C$DW$115, DW_AT_location[DW_OP_bregx 0x24 2]
     811 000056 EB00          MOV AC0, dbl(*SP(#0)) ; |731| 
         000058 08   
     812                      .dwpsn  file "F:/eZdsp_DBG/tmp1/c55x-sim2/foo/c5535_bsl_revc/ezdsp5535_v1/c55xx_csl/inc/csl_usbAux.h"
     813 000059 7604          MOV #1038, T0 ; |735| 
         00005b 0E48 
     814 00005d AB31          MOV *(#_usbRegisters), AR3 ; |735| 
         00005f 0000 
         000061 00!  
     815 000062 A96B          MOV port(*AR3(T0)), AR1 ; |735| 
         000064 99   
     816 000065 C904          MOV AR1, *SP(#2) ; |735| 
     817                      .dwpsn  file "F:/eZdsp_DBG/tmp1/c55x-sim2/foo/c5535_bsl_revc/ezdsp5535_v1/c55xx_csl/inc/csl_usbAux.h"
     818 000067 F46B          AND #0xfff0, port(*AR3(T0)) ; |738| 
         000069 FFF0 
         00006b 9A   
     819                      .dwpsn  file "F:/eZdsp_DBG/tmp1/c55x-sim2/foo/c5535_bsl_revc/ezdsp5535_v1/c55xx_csl/inc/csl_usbAux.h"
     820 00006c AB31          MOV *(#_usbRegisters), AR3 ; |739| 
         00006e 0000 
         000070 00!  
     821 000071 ED00          MOV dbl(*SP(#0)), AC0 ; |739| 
         000073 08   
     822 000074 DA6B          OR port(*AR3(T0)), AC0, AC0 ; |739| 
         000076 00   
         000077 99   
     823 000078 C06B          MOV AC0, port(*AR3(T0)) ; |739| 
         00007a 9A   
     824                      .dwpsn  file "F:/eZdsp_DBG/tmp1/c55x-sim2/foo/c5535_bsl_revc/ezdsp5535_v1/c55xx_csl/inc/csl_usbAux.h"
     825 00007b 7604          MOV #1042, T0 ; |742| 
         00007d 1248 
     826 00007f AB31          MOV *(#_usbRegisters), AR3 ; |742| 
         000081 0000 
         000083 00!  
     827 000084 A96B          MOV port(*AR3(T0)), AR1 ; |742| 
TMS320C55x Assembler PC v4.4.1 Sat Sep 29 23:08:36 2018

Tools Copyright (c) 1996-2012 Texas Instruments Incorporated
csl_usb_intc_example.asm                                             PAGE   17

         000086 99   
     828 000087 EC06          BCLR @#3, AR1 ; |742| 
         000089 92   
     829 00008a EC06          BSET @#3, AR1 ; |742| 
         00008c 90   
     830 00008d C96B          MOV AR1, port(*AR3(T0)) ; |742| 
         00008f 9A   
     831                      .dwpsn  file "F:/eZdsp_DBG/tmp1/c55x-sim2/foo/c5535_bsl_revc/ezdsp5535_v1/c55xx_csl/inc/csl_usbAux.h"
     832 000090 AB31          MOV *(#_usbRegisters), AR3 ; |745| 
         000092 0000 
         000094 00!  
     833 000095 F46B          AND #0x7fff, port(*AR3(T0)) ; |745| 
         000097 7FFF 
         000099 9A   
     834                      .dwpsn  file "F:/eZdsp_DBG/tmp1/c55x-sim2/foo/c5535_bsl_revc/ezdsp5535_v1/c55xx_csl/inc/csl_usbAux.h"
     835 00009a AB31          MOV *(#_usbRegisters), AR3 ; |746| 
         00009c 0000 
         00009e 00!  
     836 00009f F56B          OR #0x1000, port(*AR3(T0)) ; |746| 
         0000a1 1000 
         0000a3 9A   
     837                      .dwpsn  file "F:/eZdsp_DBG/tmp1/c55x-sim2/foo/c5535_bsl_revc/ezdsp5535_v1/c55xx_csl/inc/csl_usbAux.h"
     838 0000a4 AB31          MOV *(#_usbRegisters), AR3 ; |749| 
         0000a6 0000 
         0000a8 00!  
     839 0000a9 F56B          OR #0x1000, port(*AR3(T0)) ; |749| 
         0000ab 1000 
         0000ad 9A   
     840                      .dwpsn  file "F:/eZdsp_DBG/tmp1/c55x-sim2/foo/c5535_bsl_revc/ezdsp5535_v1/c55xx_csl/inc/csl_usbAux.h"
     841 0000ae 7604          MOV #1038, T0 ; |752| 
         0000b0 0E48 
     842 0000b2 AB31          MOV *(#_usbRegisters), AR3 ; |752| 
         0000b4 0000 
         0000b6 00!  
     843 0000b7 A904          MOV *SP(#2), AR1 ; |752| 
     844 0000b9 C96B          MOV AR1, port(*AR3(T0)) ; |752| 
         0000bb 9A   
     845                      .dwpsn  file "F:/eZdsp_DBG/tmp1/c55x-sim2/foo/c5535_bsl_revc/ezdsp5535_v1/c55xx_csl/inc/csl_usbAux.h"
     846 0000bc 4E03          AADD #3, SP
     847                      .dwcfi  cfa_offset, 1
     848              $C$DW$116       .dwtag  DW_TAG_TI_branch
     849                      .dwattr $C$DW$116, DW_AT_low_pc(0x00)
     850                      .dwattr $C$DW$116, DW_AT_TI_return
     851 0000be 4804          RET
     852                                                      ; return occurs
     853                      .dwattr $C$DW$112, DW_AT_TI_end_file("F:/eZdsp_DBG/tmp1/c55x-sim2/foo/c5535_bsl_revc/ezdsp5535_v1/c55
     854                      .dwattr $C$DW$112, DW_AT_TI_end_line(0x2f1)
     855                      .dwattr $C$DW$112, DW_AT_TI_end_column(0x01)
     856                      .dwendentry
     857                      .dwendtag $C$DW$112
     858              
     859 0000c0               .sect   ".text"
     860                      .align 4
     861              
     862              $C$DW$117       .dwtag  DW_TAG_subprogram, DW_AT_name("USB_processEP0Out")
TMS320C55x Assembler PC v4.4.1 Sat Sep 29 23:08:36 2018

Tools Copyright (c) 1996-2012 Texas Instruments Incorporated
csl_usb_intc_example.asm                                             PAGE   18

     863                      .dwattr $C$DW$117, DW_AT_low_pc(_USB_processEP0Out)
     864                      .dwattr $C$DW$117, DW_AT_high_pc(0x00)
     865                      .dwattr $C$DW$117, DW_AT_TI_symbol_name("_USB_processEP0Out")
     866                      .dwattr $C$DW$117, DW_AT_type(*$C$DW$T$80)
     867                      .dwattr $C$DW$117, DW_AT_TI_begin_file("F:/eZdsp_DBG/tmp1/c55x-sim2/foo/c5535_bsl_revc/ezdsp5535_v1/c
     868                      .dwattr $C$DW$117, DW_AT_TI_begin_line(0x511)
     869                      .dwattr $C$DW$117, DW_AT_TI_begin_column(0x0c)
     870                      .dwattr $C$DW$117, DW_AT_TI_max_frame_size(0x0a)
     871                      .dwpsn  file "F:/eZdsp_DBG/tmp1/c55x-sim2/foo/c5535_bsl_revc/ezdsp5535_v1/c55xx_csl/inc/csl_usbAux.h"
     872              
     873                      .dwfde $C$DW$CIE, _USB_processEP0Out
     874              $C$DW$118       .dwtag  DW_TAG_formal_parameter, DW_AT_name("pContext")
     875                      .dwattr $C$DW$118, DW_AT_TI_symbol_name("_pContext")
     876                      .dwattr $C$DW$118, DW_AT_type(*$C$DW$T$146)
     877                      .dwattr $C$DW$118, DW_AT_location[DW_OP_reg17]
     878              ;*******************************************************************************
     879              ;* FUNCTION NAME: USB_processEP0Out                                            *
     880              ;*                                                                             *
     881              ;*   Function Uses Regs : AC0,AC0,AC1,AC1,T0,AR0,XAR0,AR1,XAR1,AR2,XAR2,AR3,   *
     882              ;*                        XAR3,SP,CARRY,TC1,M40,SATA,SATD,RDM,FRCT,SMUL        *
     883              ;*   Stack Frame        : Compact (No Frame Pointer, w/ debug)                 *
     884              ;*   Total Frame Size   : 10 words                                             *
     885              ;*                        (1 return address/alignment)                         *
     886              ;*                        (9 local values)                                     *
     887              ;*   Min System Stack   : 1 word                                               *
     888              ;*******************************************************************************
     889 0000c0       _USB_processEP0Out:
     890                      .dwcfi  cfa_offset, 1
     891                      .dwcfi  save_reg_to_mem, 91, -1
     892 0000c0 4EF7          AADD #-9, SP
     893                      .dwcfi  cfa_offset, 10
     894              $C$DW$119       .dwtag  DW_TAG_variable, DW_AT_name("pContext")
     895                      .dwattr $C$DW$119, DW_AT_TI_symbol_name("_pContext")
     896                      .dwattr $C$DW$119, DW_AT_type(*$C$DW$T$146)
     897                      .dwattr $C$DW$119, DW_AT_location[DW_OP_bregx 0x24 0]
     898              $C$DW$120       .dwtag  DW_TAG_variable, DW_AT_name("peps")
     899                      .dwattr $C$DW$120, DW_AT_TI_symbol_name("_peps")
     900                      .dwattr $C$DW$120, DW_AT_type(*$C$DW$T$150)
     901                      .dwattr $C$DW$120, DW_AT_location[DW_OP_bregx 0x24 2]
     902              $C$DW$121       .dwtag  DW_TAG_variable, DW_AT_name("pTransfer")
     903                      .dwattr $C$DW$121, DW_AT_TI_symbol_name("_pTransfer")
     904                      .dwattr $C$DW$121, DW_AT_type(*$C$DW$T$152)
     905                      .dwattr $C$DW$121, DW_AT_location[DW_OP_bregx 0x24 4]
     906              $C$DW$122       .dwtag  DW_TAG_variable, DW_AT_name("pwBuffer")
     907                      .dwattr $C$DW$122, DW_AT_TI_symbol_name("_pwBuffer")
     908                      .dwattr $C$DW$122, DW_AT_type(*$C$DW$T$87)
     909                      .dwattr $C$DW$122, DW_AT_location[DW_OP_bregx 0x24 6]
     910              $C$DW$123       .dwtag  DW_TAG_variable, DW_AT_name("status")
     911                      .dwattr $C$DW$123, DW_AT_TI_symbol_name("_status")
     912                      .dwattr $C$DW$123, DW_AT_type(*$C$DW$T$80)
     913                      .dwattr $C$DW$123, DW_AT_location[DW_OP_bregx 0x24 8]
     914 0000c2 EB00          MOV XAR0, dbl(*SP(#0))
         0000c4 85   
     915                      .dwpsn  file "F:/eZdsp_DBG/tmp1/c55x-sim2/foo/c5535_bsl_revc/ezdsp5535_v1/c55xx_csl/inc/csl_usbAux.h"
     916 0000c5 E610          MOV #0, *SP(#8) ; |1304| 
TMS320C55x Assembler PC v4.4.1 Sat Sep 29 23:08:36 2018

Tools Copyright (c) 1996-2012 Texas Instruments Incorporated
csl_usb_intc_example.asm                                             PAGE   19

         0000c7 00   
     917                      .dwpsn  file "F:/eZdsp_DBG/tmp1/c55x-sim2/foo/c5535_bsl_revc/ezdsp5535_v1/c55xx_csl/inc/csl_usbAux.h"
     918 0000c8 ED00          MOV dbl(*SP(#0)), XAR3
         0000ca BF   
     919 0000cb 90B0          MOV XAR3, AC0
     920 0000cd 6D00          BCC $C$L4,AC0 == #0 ; |1306| 
         0000cf 00A9 
     921                                                      ; branchcc occurs ; |1306| 
     922                      .dwpsn  file "F:/eZdsp_DBG/tmp1/c55x-sim2/foo/c5535_bsl_revc/ezdsp5535_v1/c55xx_csl/inc/csl_usbAux.h"
     923 0000d1 ED6D          MOV dbl(*AR3(#98)), XAR3
         0000d3 BF00 
         0000d5 62   
     924 0000d6 EB04          MOV XAR3, dbl(*SP(#2))
         0000d8 B5   
     925                      .dwpsn  file "F:/eZdsp_DBG/tmp1/c55x-sim2/foo/c5535_bsl_revc/ezdsp5535_v1/c55xx_csl/inc/csl_usbAux.h"
     926 0000d9 ED6D          MOV dbl(*AR3(#10)), XAR3
         0000db BF00 
         0000dd 0A   
     927 0000de EB08          MOV XAR3, dbl(*SP(#4))
         0000e0 B5   
     928                      .dwpsn  file "F:/eZdsp_DBG/tmp1/c55x-sim2/foo/c5535_bsl_revc/ezdsp5535_v1/c55xx_csl/inc/csl_usbAux.h"
     929 0000e1 90B0          MOV XAR3, AC0
     930 0000e3 6D00          BCC $C$L3,AC0 == #0 ; |1311| 
         0000e5 008E 
     931                                                      ; branchcc occurs ; |1311| 
     932 0000e7 A96D          MOV *AR3(#12), AR1 ; |1311| 
         0000e9 000C 
     933 0000eb 6D19          BCC $C$L3,AR1 != #0 ; |1311| 
         0000ed 0086 
     934                                                      ; branchcc occurs ; |1311| 
     935                      .dwpsn  file "F:/eZdsp_DBG/tmp1/c55x-sim2/foo/c5535_bsl_revc/ezdsp5535_v1/c55xx_csl/inc/csl_usbAux.h"
     936 0000ef ED6D          MOV dbl(*AR3(#8)), AC0 ; |1314| 
         0000f1 0800 
         0000f3 08   
     937 0000f4 ED79          MOV dbl(*AR3(short(#4))), XAR3
         0000f6 BF   
     938 0000f7 5001          SFTL AC0, #-1 ; |1314| 
     939 0000f9 2209          MOV AC0, AR1 ; |1314| 
     940              
     941 0000fb 8E0C          MOV XAR3, dbl(*SP(#6))
         0000fd BB10 
         0000ff B590 
     942              ||      AADD AR1, AR3 ; |1314| 
     943              
     944                      .dwpsn  file "F:/eZdsp_DBG/tmp1/c55x-sim2/foo/c5535_bsl_revc/ezdsp5535_v1/c55xx_csl/inc/csl_usbAux.h"
     945 000101 ED08          MOV dbl(*SP(#4)), XAR3
         000103 BF   
     946 000104 ED7D          MOV dbl(*AR3(short(#6))), AC0 ; |1323| 
         000106 08   
     947 000107 ED00          MOV dbl(*SP(#0)), XAR3
         000109 BF   
     948 00010a DF6D          MOV uns(*AR3(#24)), AC1 ; |1323| 
         00010c 1500 
         00010e 18   
     949 00010f 1218          CMPU AC1 >= AC0, TC1 ; |1323| 
TMS320C55x Assembler PC v4.4.1 Sat Sep 29 23:08:36 2018

Tools Copyright (c) 1996-2012 Texas Instruments Incorporated
csl_usb_intc_example.asm                                             PAGE   20

         000111 04   
     950 000112 63E4          BCC $C$L1,TC1 ; |1323| 
     951                                                      ; branchcc occurs ; |1323| 
     952 000114 DF6D          MOV uns(*AR3(#24)), AC0 ; |1323| 
         000116 0500 
         000118 18   
     953 000119 4A06          B $C$L2   ; |1323| 
     954                                                      ; branch occurs ; |1323| 
     955 00011b       $C$L1:    
     956 00011b ED08          MOV dbl(*SP(#4)), XAR3
         00011d BF   
     957 00011e ED7D          MOV dbl(*AR3(short(#6))), AC0 ; |1323| 
         000120 08   
     958 000121       $C$L2:    
     959 000121 ED08          MOV dbl(*SP(#4)), XAR3
         000123 BF   
     960 000124 EB6D          MOV AC0, dbl(*AR3(#8)) ; |1323| 
         000126 0800 
         000128 08   
     961                      .dwpsn  file "F:/eZdsp_DBG/tmp1/c55x-sim2/foo/c5535_bsl_revc/ezdsp5535_v1/c55xx_csl/inc/csl_usbAux.h"
     962 000129 ED08          MOV dbl(*SP(#4)), XAR3
         00012b BF   
     963 00012c ED00          MOV dbl(*SP(#0)), XAR1
         00012e 9F   
     964 00012f ED0C          MOV dbl(*SP(#6)), XAR0
         000131 8F   
     965 000132 ED6D          MOV dbl(*AR3(#8)), AC0 ; |1326| 
         000134 0800 
         000136 08   
     966 000137 4010          ADD #1, AC0 ; |1326| 
     967              
     968 00013c 5101          SFTL AC0, #-1 ; |1326| 
     969 000139 141A  ||      AADD #26, AR1 ; |1326| 
         00013b 94   
     970              
     971              $C$DW$124       .dwtag  DW_TAG_TI_branch
     972                      .dwattr $C$DW$124, DW_AT_low_pc(0x00)
     973                      .dwattr $C$DW$124, DW_AT_name("_memcpy")
     974                      .dwattr $C$DW$124, DW_AT_TI_call
     975              
     976 00013e 6C00          CALL #_memcpy ; |1326| 
         000140 0000!
     977 000142 2304  ||      MOV AC0, T0 ; |1326| 
     978              
     979                                                      ; call occurs [#_memcpy] ; |1326| 
     980                      .dwpsn  file "F:/eZdsp_DBG/tmp1/c55x-sim2/foo/c5535_bsl_revc/ezdsp5535_v1/c55xx_csl/inc/csl_usbAux.h"
     981 000144 ED00          MOV dbl(*SP(#0)), XAR3
         000146 BF   
     982 000147 E679          MOV #0, *AR3(short(#4)) ; |1329| 
         000149 00   
     983                      .dwpsn  file "F:/eZdsp_DBG/tmp1/c55x-sim2/foo/c5535_bsl_revc/ezdsp5535_v1/c55xx_csl/inc/csl_usbAux.h"
     984 00014a ED08          MOV dbl(*SP(#4)), XAR3
         00014c BF   
     985 00014d E66D          MOV #1, *AR3(#12) ; |1330| 
         00014f 0100 
TMS320C55x Assembler PC v4.4.1 Sat Sep 29 23:08:36 2018

Tools Copyright (c) 1996-2012 Texas Instruments Incorporated
csl_usb_intc_example.asm                                             PAGE   21

         000151 0C   
     986                      .dwpsn  file "F:/eZdsp_DBG/tmp1/c55x-sim2/foo/c5535_bsl_revc/ezdsp5535_v1/c55xx_csl/inc/csl_usbAux.h"
     987 000152 ED08          MOV dbl(*SP(#4)), XAR2
         000154 AF   
     988 000155 ED08          MOV dbl(*SP(#4)), XAR3
         000157 BF   
     989              
     990 000158 1408          AADD #8, AR3 ; |1331| 
         00015a B4   
     991 00015b 150A  ||      AADD #10, AR2 ; |1331| 
         00015d AC   
     992              
     993 00015e 8061          MOV dbl(*AR3), dbl(*AR2) ; |1331| 
         000160 00   
     994                      .dwpsn  file "F:/eZdsp_DBG/tmp1/c55x-sim2/foo/c5535_bsl_revc/ezdsp5535_v1/c55xx_csl/inc/csl_usbAux.h"
     995 000161 ED00          MOV dbl(*SP(#0)), XAR3
         000163 BF   
     996 000164 ED00          MOV dbl(*SP(#0)), XAR0
         000166 8F   
     997 000167 ED04          MOV dbl(*SP(#2)), XAR1
         000169 9F   
     998 00016a ED6D          MOV dbl(*AR3(#116)), AC0 ; |1337| 
         00016c 0800 
         00016e 74   
     999              $C$DW$125       .dwtag  DW_TAG_TI_branch
    1000                      .dwattr $C$DW$125, DW_AT_low_pc(0x00)
    1001                      .dwattr $C$DW$125, DW_AT_TI_call
    1002                      .dwattr $C$DW$125, DW_AT_TI_indirect
    1003 00016f 9200          CALL AC0  ; |1337| 
    1004                                                      ; call occurs [AC0] ; |1337| 
    1005 000171 C410          MOV T0, *SP(#8) ; |1337| 
    1006                      .dwpsn  file "F:/eZdsp_DBG/tmp1/c55x-sim2/foo/c5535_bsl_revc/ezdsp5535_v1/c55xx_csl/inc/csl_usbAux.h"
    1007 000173 4A08          B $C$L5   ; |1338| 
    1008                                                      ; branch occurs ; |1338| 
    1009 000175       $C$L3:    
    1010                      .dwpsn  file "F:/eZdsp_DBG/tmp1/c55x-sim2/foo/c5535_bsl_revc/ezdsp5535_v1/c55xx_csl/inc/csl_usbAux.h"
    1011 000175 E610          MOV #-6, *SP(#8) ; |1341| 
         000177 FA   
    1012                      .dwpsn  file "F:/eZdsp_DBG/tmp1/c55x-sim2/foo/c5535_bsl_revc/ezdsp5535_v1/c55xx_csl/inc/csl_usbAux.h"
    1013 000178 4A03          B $C$L5   ; |1343| 
    1014                                                      ; branch occurs ; |1343| 
    1015 00017a       $C$L4:    
    1016                      .dwpsn  file "F:/eZdsp_DBG/tmp1/c55x-sim2/foo/c5535_bsl_revc/ezdsp5535_v1/c55xx_csl/inc/csl_usbAux.h"
    1017 00017a E610          MOV #-6, *SP(#8) ; |1346| 
         00017c FA   
    1018 00017d       $C$L5:    
    1019                      .dwpsn  file "F:/eZdsp_DBG/tmp1/c55x-sim2/foo/c5535_bsl_revc/ezdsp5535_v1/c55xx_csl/inc/csl_usbAux.h"
    1020 00017d A410          MOV *SP(#8), T0 ; |1348| 
    1021                      .dwpsn  file "F:/eZdsp_DBG/tmp1/c55x-sim2/foo/c5535_bsl_revc/ezdsp5535_v1/c55xx_csl/inc/csl_usbAux.h"
    1022 00017f 4E09          AADD #9, SP
    1023                      .dwcfi  cfa_offset, 1
    1024              $C$DW$126       .dwtag  DW_TAG_TI_branch
    1025                      .dwattr $C$DW$126, DW_AT_low_pc(0x00)
    1026                      .dwattr $C$DW$126, DW_AT_TI_return
    1027 000181 4804          RET
TMS320C55x Assembler PC v4.4.1 Sat Sep 29 23:08:36 2018

Tools Copyright (c) 1996-2012 Texas Instruments Incorporated
csl_usb_intc_example.asm                                             PAGE   22

    1028                                                      ; return occurs
    1029                      .dwattr $C$DW$117, DW_AT_TI_end_file("F:/eZdsp_DBG/tmp1/c55x-sim2/foo/c5535_bsl_revc/ezdsp5535_v1/c55
    1030                      .dwattr $C$DW$117, DW_AT_TI_end_line(0x545)
    1031                      .dwattr $C$DW$117, DW_AT_TI_end_column(0x01)
    1032                      .dwendentry
    1033                      .dwendtag $C$DW$117
    1034              
    1035 000183               .sect   ".text"
    1036                      .align 4
    1037              
    1038              $C$DW$127       .dwtag  DW_TAG_subprogram, DW_AT_name("USB_processEP0In")
    1039                      .dwattr $C$DW$127, DW_AT_low_pc(_USB_processEP0In)
    1040                      .dwattr $C$DW$127, DW_AT_high_pc(0x00)
    1041                      .dwattr $C$DW$127, DW_AT_TI_symbol_name("_USB_processEP0In")
    1042                      .dwattr $C$DW$127, DW_AT_type(*$C$DW$T$80)
    1043                      .dwattr $C$DW$127, DW_AT_TI_begin_file("F:/eZdsp_DBG/tmp1/c55x-sim2/foo/c5535_bsl_revc/ezdsp5535_v1/c
    1044                      .dwattr $C$DW$127, DW_AT_TI_begin_line(0x576)
    1045                      .dwattr $C$DW$127, DW_AT_TI_begin_column(0x0c)
    1046                      .dwattr $C$DW$127, DW_AT_TI_max_frame_size(0x12)
    1047                      .dwpsn  file "F:/eZdsp_DBG/tmp1/c55x-sim2/foo/c5535_bsl_revc/ezdsp5535_v1/c55xx_csl/inc/csl_usbAux.h"
    1048              
    1049                      .dwfde $C$DW$CIE, _USB_processEP0In
    1050              $C$DW$128       .dwtag  DW_TAG_formal_parameter, DW_AT_name("pContext")
    1051                      .dwattr $C$DW$128, DW_AT_TI_symbol_name("_pContext")
    1052                      .dwattr $C$DW$128, DW_AT_type(*$C$DW$T$146)
    1053                      .dwattr $C$DW$128, DW_AT_location[DW_OP_reg17]
    1054              ;*******************************************************************************
    1055              ;* FUNCTION NAME: USB_processEP0In                                             *
    1056              ;*                                                                             *
    1057              ;*   Function Uses Regs : AC0,AC0,AC1,AC1,T0,AR0,XAR0,AR1,XAR1,AR2,AR3,XAR3,   *
    1058              ;*                        AR4,SP,CARRY,TC1,M40,SATA,SATD,RDM,FRCT,SMUL         *
    1059              ;*   Stack Frame        : Compact (No Frame Pointer, w/ debug)                 *
    1060              ;*   Total Frame Size   : 18 words                                             *
    1061              ;*                        (2 return address/alignment)                         *
    1062              ;*                        (16 local values)                                    *
    1063              ;*   Min System Stack   : 1 word                                               *
    1064              ;*******************************************************************************
    1065 000184       _USB_processEP0In:
    1066                      .dwcfi  cfa_offset, 1
    1067                      .dwcfi  save_reg_to_mem, 91, -1
    1068 000184 4EEF          AADD #-17, SP
    1069                      .dwcfi  cfa_offset, 18
    1070              $C$DW$129       .dwtag  DW_TAG_variable, DW_AT_name("pContext")
    1071                      .dwattr $C$DW$129, DW_AT_TI_symbol_name("_pContext")
    1072                      .dwattr $C$DW$129, DW_AT_type(*$C$DW$T$146)
    1073                      .dwattr $C$DW$129, DW_AT_location[DW_OP_bregx 0x24 0]
    1074              $C$DW$130       .dwtag  DW_TAG_variable, DW_AT_name("peps")
    1075                      .dwattr $C$DW$130, DW_AT_TI_symbol_name("_peps")
    1076                      .dwattr $C$DW$130, DW_AT_type(*$C$DW$T$150)
    1077                      .dwattr $C$DW$130, DW_AT_location[DW_OP_bregx 0x24 2]
    1078              $C$DW$131       .dwtag  DW_TAG_variable, DW_AT_name("pTransfer")
    1079                      .dwattr $C$DW$131, DW_AT_TI_symbol_name("_pTransfer")
    1080                      .dwattr $C$DW$131, DW_AT_type(*$C$DW$T$152)
    1081                      .dwattr $C$DW$131, DW_AT_location[DW_OP_bregx 0x24 4]
    1082              $C$DW$132       .dwtag  DW_TAG_variable, DW_AT_name("status")
TMS320C55x Assembler PC v4.4.1 Sat Sep 29 23:08:36 2018

Tools Copyright (c) 1996-2012 Texas Instruments Incorporated
csl_usb_intc_example.asm                                             PAGE   23

    1083                      .dwattr $C$DW$132, DW_AT_TI_symbol_name("_status")
    1084                      .dwattr $C$DW$132, DW_AT_type(*$C$DW$T$80)
    1085                      .dwattr $C$DW$132, DW_AT_location[DW_OP_bregx 0x24 6]
    1086              $C$DW$133       .dwtag  DW_TAG_variable, DW_AT_name("pwBuffer")
    1087                      .dwattr $C$DW$133, DW_AT_TI_symbol_name("_pwBuffer")
    1088                      .dwattr $C$DW$133, DW_AT_type(*$C$DW$T$196)
    1089                      .dwattr $C$DW$133, DW_AT_location[DW_OP_bregx 0x24 8]
    1090              $C$DW$134       .dwtag  DW_TAG_variable, DW_AT_name("cbBuffer")
    1091                      .dwattr $C$DW$134, DW_AT_TI_symbol_name("_cbBuffer")
    1092                      .dwattr $C$DW$134, DW_AT_type(*$C$DW$T$88)
    1093                      .dwattr $C$DW$134, DW_AT_location[DW_OP_bregx 0x24 10]
    1094              $C$DW$135       .dwtag  DW_TAG_variable, DW_AT_name("cbToWrite")
    1095                      .dwattr $C$DW$135, DW_AT_TI_symbol_name("_cbToWrite")
    1096                      .dwattr $C$DW$135, DW_AT_type(*$C$DW$T$85)
    1097                      .dwattr $C$DW$135, DW_AT_location[DW_OP_bregx 0x24 12]
    1098              $C$DW$136       .dwtag  DW_TAG_variable, DW_AT_name("count")
    1099                      .dwattr $C$DW$136, DW_AT_TI_symbol_name("_count")
    1100                      .dwattr $C$DW$136, DW_AT_type(*$C$DW$T$19)
    1101                      .dwattr $C$DW$136, DW_AT_location[DW_OP_bregx 0x24 13]
    1102              $C$DW$137       .dwtag  DW_TAG_variable, DW_AT_name("flag")
    1103                      .dwattr $C$DW$137, DW_AT_TI_symbol_name("_flag")
    1104                      .dwattr $C$DW$137, DW_AT_type(*$C$DW$T$19)
    1105                      .dwattr $C$DW$137, DW_AT_location[DW_OP_bregx 0x24 14]
    1106              $C$DW$138       .dwtag  DW_TAG_variable, DW_AT_name("saveIndex")
    1107                      .dwattr $C$DW$138, DW_AT_TI_symbol_name("_saveIndex")
    1108                      .dwattr $C$DW$138, DW_AT_type(*$C$DW$T$19)
    1109                      .dwattr $C$DW$138, DW_AT_location[DW_OP_bregx 0x24 15]
    1110 000186 EB00          MOV XAR0, dbl(*SP(#0))
         000188 85   
    1111                      .dwpsn  file "F:/eZdsp_DBG/tmp1/c55x-sim2/foo/c5535_bsl_revc/ezdsp5535_v1/c55xx_csl/inc/csl_usbAux.h"
    1112 000189 E61C          MOV #0, *SP(#14) ; |1410| 
         00018b 00   
    1113                      .dwpsn  file "F:/eZdsp_DBG/tmp1/c55x-sim2/foo/c5535_bsl_revc/ezdsp5535_v1/c55xx_csl/inc/csl_usbAux.h"
    1114 00018c E60C          MOV #0, *SP(#6) ; |1411| 
         00018e 00   
    1115                      .dwpsn  file "F:/eZdsp_DBG/tmp1/c55x-sim2/foo/c5535_bsl_revc/ezdsp5535_v1/c55xx_csl/inc/csl_usbAux.h"
    1116 00018f ED00          MOV dbl(*SP(#0)), XAR3
         000191 BF   
    1117 000192 90B0          MOV XAR3, AC0
    1118 000194 6D00          BCC $C$L18,AC0 == #0 ; |1413| 
         000196 01BF 
    1119                                                      ; branchcc occurs ; |1413| 
    1120                      .dwpsn  file "F:/eZdsp_DBG/tmp1/c55x-sim2/foo/c5535_bsl_revc/ezdsp5535_v1/c55xx_csl/inc/csl_usbAux.h"
    1121 000198 ED6D          MOV dbl(*AR3(#98)), XAR3
         00019a BF00 
         00019c 62   
    1122 00019d EB04          MOV XAR3, dbl(*SP(#2))
         00019f B5   
    1123                      .dwpsn  file "F:/eZdsp_DBG/tmp1/c55x-sim2/foo/c5535_bsl_revc/ezdsp5535_v1/c55xx_csl/inc/csl_usbAux.h"
    1124 0001a0 ED6D          MOV dbl(*AR3(#10)), XAR3
         0001a2 BF00 
         0001a4 0A   
    1125 0001a5 EB08          MOV XAR3, dbl(*SP(#4))
         0001a7 B5   
    1126                      .dwpsn  file "F:/eZdsp_DBG/tmp1/c55x-sim2/foo/c5535_bsl_revc/ezdsp5535_v1/c55xx_csl/inc/csl_usbAux.h"
TMS320C55x Assembler PC v4.4.1 Sat Sep 29 23:08:36 2018

Tools Copyright (c) 1996-2012 Texas Instruments Incorporated
csl_usb_intc_example.asm                                             PAGE   24

    1127 0001a8 90B0          MOV XAR3, AC0
    1128 0001aa 6D00          BCC $C$L17,AC0 == #0 ; |1418| 
         0001ac 01A4 
    1129                                                      ; branchcc occurs ; |1418| 
    1130 0001ae A96D          MOV *AR3(#12), AR1 ; |1418| 
         0001b0 000C 
    1131 0001b2 6D19          BCC $C$L17,AR1 != #0 ; |1418| 
         0001b4 019C 
    1132                                                      ; branchcc occurs ; |1418| 
    1133                      .dwpsn  file "F:/eZdsp_DBG/tmp1/c55x-sim2/foo/c5535_bsl_revc/ezdsp5535_v1/c55xx_csl/inc/csl_usbAux.h"
    1134 0001b6 ED6D          MOV dbl(*AR3(#8)), AC0 ; |1421| 
         0001b8 0800 
         0001ba 08   
    1135 0001bb ED79          MOV dbl(*AR3(short(#4))), XAR3
         0001bd BF   
    1136 0001be 5001          SFTL AC0, #-1 ; |1421| 
    1137 0001c0 2209          MOV AC0, AR1 ; |1421| 
    1138              
    1139 0001c2 8E10          MOV XAR3, dbl(*SP(#8))
         0001c4 BB10 
         0001c6 B590 
    1140              ||      AADD AR1, AR3 ; |1421| 
    1141              
    1142                      .dwpsn  file "F:/eZdsp_DBG/tmp1/c55x-sim2/foo/c5535_bsl_revc/ezdsp5535_v1/c55xx_csl/inc/csl_usbAux.h"
    1143 0001c8 ED08          MOV dbl(*SP(#4)), XAR3
         0001ca BF   
    1144 0001cb ED6D          MOV dbl(*AR3(#8)), AC0 ; |1422| 
         0001cd 0800 
         0001cf 08   
    1145 0001d0 ED7D          SUB AC0, dbl(*AR3(short(#6))), AC0 ; |1422| 
         0001d2 04   
    1146 0001d3 EB14          MOV AC0, dbl(*SP(#10)) ; |1422| 
         0001d5 08   
    1147                      .dwpsn  file "F:/eZdsp_DBG/tmp1/c55x-sim2/foo/c5535_bsl_revc/ezdsp5535_v1/c55xx_csl/inc/csl_usbAux.h"
    1148 0001d6 ED04          MOV dbl(*SP(#2)), XAR3
         0001d8 BF   
    1149 0001d9 ED14          MOV dbl(*SP(#10)), AC1 ; |1430| 
         0001db 18   
    1150 0001dc ED79          MOV dbl(*AR3(short(#4))), AC0 ; |1430| 
         0001de 08   
    1151 0001df 1218          CMPU AC1 >= AC0, TC1 ; |1430| 
         0001e1 04   
    1152 0001e2 62E4          BCC $C$L6,TC1 ; |1430| 
    1153                                                      ; branchcc occurs ; |1430| 
    1154 0001e4 ED14          MOV dbl(*SP(#10)), AC0 ; |1430| 
         0001e6 08   
    1155 0001e7 4A03          B $C$L7   ; |1430| 
    1156                                                      ; branch occurs ; |1430| 
    1157 0001e9       $C$L6:    
    1158 0001e9 ED79          MOV dbl(*AR3(short(#4))), AC0 ; |1430| 
         0001eb 08   
    1159 0001ec       $C$L7:    
    1160 0001ec 7600          MOV #64, AR1 ; |1451| 
         0001ee 4098 
    1161              
TMS320C55x Assembler PC v4.4.1 Sat Sep 29 23:08:36 2018

Tools Copyright (c) 1996-2012 Texas Instruments Incorporated
csl_usb_intc_example.asm                                             PAGE   25

    1162 0001f0 C018          MOV AC0, *SP(#12) ; |1430| 
    1163 0001f2 3D1A  ||      MOV #1, AR2
    1164              
    1165                      .dwpsn  file "F:/eZdsp_DBG/tmp1/c55x-sim2/foo/c5535_bsl_revc/ezdsp5535_v1/c55xx_csl/inc/csl_usbAux.h"
    1166 0001f4       $C$L8:    
    1167 0001f4       $C$DW$L$_USB_processEP0In$8$B:
    1168                      .dwpsn  file "F:/eZdsp_DBG/tmp1/c55x-sim2/foo/c5535_bsl_revc/ezdsp5535_v1/c55xx_csl/inc/csl_usbAux.h"
    1169 0001f4 E61A          MOV #0, *SP(#13) ; |1435| 
         0001f6 00   
    1170                      .dwpsn  file "F:/eZdsp_DBG/tmp1/c55x-sim2/foo/c5535_bsl_revc/ezdsp5535_v1/c55xx_csl/inc/csl_usbAux.h"
    1171 0001f7 AB18          MOV *SP(#12), AR3 ; |1435| 
    1172              
    1173 0001fb 51B1          SFTL AR3, #-1 ; |1435| 
    1174 0001f9 AC1A  ||      MOV *SP(#13), AR4 ; |1435| 
    1175              
    1176 0001fd 12C8          CMPU AR4 >= AR3, TC1 ; |1435| 
         0001ff B4   
    1177 000200 0464          BCC $C$L10,TC1 ; |1435| 
         000202 29   
    1178                                                      ; branchcc occurs ; |1435| 
    1179 000203       $C$DW$L$_USB_processEP0In$8$E:
    1180 000203       $C$L9:    
    1181 000203       $C$DW$L$_USB_processEP0In$9$B:
    1182                      .dwpsn  file "F:/eZdsp_DBG/tmp1/c55x-sim2/foo/c5535_bsl_revc/ezdsp5535_v1/c55xx_csl/inc/csl_usbAux.h"
    1183 000203 ED10          MOV dbl(*SP(#8)), XAR3
         000205 BF   
    1184 000206 7604          MOV #1057, T0 ; |1437| 
         000208 2148 
    1185 00020a AC61          MOV *AR3, AR4 ; |1437| 
    1186 00020c AB31          MOV *(#_usbRegisters), AR3 ; |1437| 
         00020e 0000 
         000210 00!  
    1187 000211 CC6B          MOV AR4, port(*AR3(T0)) ; |1437| 
         000213 9A   
    1188                      .dwpsn  file "F:/eZdsp_DBG/tmp1/c55x-sim2/foo/c5535_bsl_revc/ezdsp5535_v1/c55xx_csl/inc/csl_usbAux.h"
    1189 000214 ED10          MOV dbl(*SP(#8)), XAR3
         000216 BF   
    1190 000217 B463          AMAR *AR3+
    1191 000219 EB10          MOV XAR3, dbl(*SP(#8))
         00021b B5   
    1192                      .dwpsn  file "F:/eZdsp_DBG/tmp1/c55x-sim2/foo/c5535_bsl_revc/ezdsp5535_v1/c55xx_csl/inc/csl_usbAux.h"
    1193 00021c F71A          ADD #1, *SP(#13) ; |1435| 
         00021e 0001 
    1194                      .dwpsn  file "F:/eZdsp_DBG/tmp1/c55x-sim2/foo/c5535_bsl_revc/ezdsp5535_v1/c55xx_csl/inc/csl_usbAux.h"
    1195 000220 AB18          MOV *SP(#12), AR3 ; |1435| 
    1196              
    1197 000224 51B1          SFTL AR3, #-1 ; |1435| 
    1198 000222 AC1A  ||      MOV *SP(#13), AR4 ; |1435| 
    1199              
    1200 000226 12C4          CMPU AR4 < AR3, TC1 ; |1435| 
         000228 B4   
    1201 000229 0464          BCC $C$L9,TC1 ; |1435| 
         00022b D7   
    1202                                                      ; branchcc occurs ; |1435| 
    1203 00022c       $C$DW$L$_USB_processEP0In$9$E:
TMS320C55x Assembler PC v4.4.1 Sat Sep 29 23:08:36 2018

Tools Copyright (c) 1996-2012 Texas Instruments Incorporated
csl_usb_intc_example.asm                                             PAGE   26

    1204 00022c       $C$L10:    
    1205 00022c       $C$DW$L$_USB_processEP0In$10$B:
    1206                      .dwpsn  file "F:/eZdsp_DBG/tmp1/c55x-sim2/foo/c5535_bsl_revc/ezdsp5535_v1/c55xx_csl/inc/csl_usbAux.h"
    1207 00022c AB18          MOV *SP(#12), AR3 ; |1441| 
    1208 00022e 1801          AND #0x0001, AR3, AR3 ; |1441| 
         000230 BB   
    1209 000231 12BC          CMPU AR3 != AR2, TC1 ; |1441| 
         000233 A4   
    1210 000234 0464          BCC $C$L11,TC1 ; |1441| 
         000236 44   
    1211                                                      ; branchcc occurs ; |1441| 
    1212 000237       $C$DW$L$_USB_processEP0In$10$E:
    1213 000237       $C$DW$L$_USB_processEP0In$11$B:
    1214                      .dwpsn  file "F:/eZdsp_DBG/tmp1/c55x-sim2/foo/c5535_bsl_revc/ezdsp5535_v1/c55xx_csl/inc/csl_usbAux.h"
    1215 000237 7600          MOV #50, T0 ; |1444| 
         000239 3248 
    1216 00023b AB31          MOV *(#_sysCtrlRegs), AR3 ; |1444| 
         00023d 0000 
         00023f 00!  
    1217 000240 AB6B          MOV port(*AR3(T0)), AR3 ; |1444| 
         000242 99   
    1218 000243 7DFF          AND #0xfffc, AR3, AC0 ; |1444| 
         000245 FC0B 
    1219 000247 AB31          MOV *(#_sysCtrlRegs), AR3 ; |1444| 
         000249 0000 
         00024b 00!  
    1220 00024c EC02          BSET @#1, AC0 ; |1444| 
         00024e 00   
    1221 00024f C06B          MOV AC0, port(*AR3(T0)) ; |1444| 
         000251 9A   
    1222                      .dwpsn  file "F:/eZdsp_DBG/tmp1/c55x-sim2/foo/c5535_bsl_revc/ezdsp5535_v1/c55xx_csl/inc/csl_usbAux.h"
    1223 000252 ED10          MOV dbl(*SP(#8)), XAR3
         000254 BF   
    1224 000255 7604          MOV #1057, T0 ; |1445| 
         000257 2148 
    1225 000259 AC61          MOV *AR3, AR4 ; |1445| 
    1226 00025b AB31          MOV *(#_usbRegisters), AR3 ; |1445| 
         00025d 0000 
         00025f 00!  
    1227 000260 CC6B          MOV AR4, port(*AR3(T0)) ; |1445| 
         000262 9A   
    1228                      .dwpsn  file "F:/eZdsp_DBG/tmp1/c55x-sim2/foo/c5535_bsl_revc/ezdsp5535_v1/c55xx_csl/inc/csl_usbAux.h"
    1229 000263 7600          MOV #50, T0 ; |1447| 
         000265 3248 
    1230 000267 AB31          MOV *(#_sysCtrlRegs), AR3 ; |1447| 
         000269 0000 
         00026b 00!  
    1231 00026c AB6B          MOV port(*AR3(T0)), AR3 ; |1447| 
         00026e 99   
    1232 00026f 7DFF          AND #0xfffc, AR3, AC0 ; |1447| 
         000271 FC0B 
    1233 000273 AB31          MOV *(#_sysCtrlRegs), AR3 ; |1447| 
         000275 0000 
         000277 00!  
    1234 000278 C06B          MOV AC0, port(*AR3(T0)) ; |1447| 
TMS320C55x Assembler PC v4.4.1 Sat Sep 29 23:08:36 2018

Tools Copyright (c) 1996-2012 Texas Instruments Incorporated
csl_usb_intc_example.asm                                             PAGE   27

         00027a 9A   
    1235 00027b       $C$DW$L$_USB_processEP0In$11$E:
    1236 00027b       $C$L11:    
    1237 00027b       $C$DW$L$_USB_processEP0In$12$B:
    1238                      .dwpsn  file "F:/eZdsp_DBG/tmp1/c55x-sim2/foo/c5535_bsl_revc/ezdsp5535_v1/c55xx_csl/inc/csl_usbAux.h"
    1239 00027b AB18          MOV *SP(#12), AR3 ; |1451| 
    1240 00027d 1294          CMPU AR3 > AR1, TC1 ; |1451| 
         00027f B4   
    1241 000280 6164          BCC $C$L12,TC1 ; |1451| 
    1242                                                      ; branchcc occurs ; |1451| 
    1243 000282       $C$DW$L$_USB_processEP0In$12$E:
    1244                      .dwpsn  file "F:/eZdsp_DBG/tmp1/c55x-sim2/foo/c5535_bsl_revc/ezdsp5535_v1/c55xx_csl/inc/csl_usbAux.h"
    1245 000282 4A07          B $C$L13  ; |1453| 
    1246                                                      ; branch occurs ; |1453| 
    1247 000284       $C$L12:    
    1248 000284       $C$DW$L$_USB_processEP0In$15$B:
    1249                      .dwpsn  file "F:/eZdsp_DBG/tmp1/c55x-sim2/foo/c5535_bsl_revc/ezdsp5535_v1/c55xx_csl/inc/csl_usbAux.h"
    1250 000284 F718          SUB #64, *SP(#12) ; |1457| 
         000286 FFC0 
    1251                      .dwpsn  file "F:/eZdsp_DBG/tmp1/c55x-sim2/foo/c5535_bsl_revc/ezdsp5535_v1/c55xx_csl/inc/csl_usbAux.h"
    1252 000288 06FF          B $C$L8   ; |1432| 
         00028a 69   
    1253                                                      ; branch occurs ; |1432| 
    1254 00028b       $C$DW$L$_USB_processEP0In$15$E:
    1255 00028b       $C$L13:    
    1256                      .dwpsn  file "F:/eZdsp_DBG/tmp1/c55x-sim2/foo/c5535_bsl_revc/ezdsp5535_v1/c55xx_csl/inc/csl_usbAux.h"
    1257 00028b ED00          MOV dbl(*SP(#0)), XAR3
         00028d BF   
    1258 00028e E66D          MOV #0, *AR3(#90) ; |1461| 
         000290 0000 
         000292 5A   
    1259                      .dwpsn  file "F:/eZdsp_DBG/tmp1/c55x-sim2/foo/c5535_bsl_revc/ezdsp5535_v1/c55xx_csl/inc/csl_usbAux.h"
    1260 000293 ED08          MOV dbl(*SP(#4)), XAR3
         000295 BF   
    1261 000296 DF18          MOV uns(*SP(#12)), AC0 ; |1463| 
         000298 05   
    1262 000299 ED6D          ADD dbl(*AR3(#8)), AC0, AC0 ; |1463| 
         00029b 0000 
         00029d 08   
    1263 00029e EB6D          MOV AC0, dbl(*AR3(#8)) ; |1463| 
         0002a0 0800 
         0002a2 08   
    1264                      .dwpsn  file "F:/eZdsp_DBG/tmp1/c55x-sim2/foo/c5535_bsl_revc/ezdsp5535_v1/c55xx_csl/inc/csl_usbAux.h"
    1265 0002a3 ED08          MOV dbl(*SP(#4)), XAR3
         0002a5 BF   
    1266 0002a6 DF18          MOV uns(*SP(#12)), AC0 ; |1464| 
         0002a8 05   
    1267 0002a9 EB6D          MOV AC0, dbl(*AR3(#10)) ; |1464| 
         0002ab 0800 
         0002ad 0A   
    1268                      .dwpsn  file "F:/eZdsp_DBG/tmp1/c55x-sim2/foo/c5535_bsl_revc/ezdsp5535_v1/c55xx_csl/inc/csl_usbAux.h"
    1269 0002ae ED08          MOV dbl(*SP(#4)), XAR3
         0002b0 BF   
    1270 0002b1 ED6D          MOV dbl(*AR3(#8)), AC1 ; |1465| 
         0002b3 1800 
TMS320C55x Assembler PC v4.4.1 Sat Sep 29 23:08:36 2018

Tools Copyright (c) 1996-2012 Texas Instruments Incorporated
csl_usb_intc_example.asm                                             PAGE   28

         0002b5 08   
    1271 0002b6 ED7D          MOV dbl(*AR3(short(#6))), AC0 ; |1465| 
         0002b8 08   
    1272 0002b9 121C          CMPU AC1 != AC0, TC1 ; |1465| 
         0002bb 04   
    1273 0002bc 62E4          BCC $C$L14,TC1 ; |1465| 
    1274                                                      ; branchcc occurs ; |1465| 
    1275                      .dwpsn  file "F:/eZdsp_DBG/tmp1/c55x-sim2/foo/c5535_bsl_revc/ezdsp5535_v1/c55xx_csl/inc/csl_usbAux.h"
    1276 0002be E66D          MOV #1, *AR3(#12) ; |1467| 
         0002c0 0100 
         0002c2 0C   
    1277 0002c3       $C$L14:    
    1278                      .dwpsn  file "F:/eZdsp_DBG/tmp1/c55x-sim2/foo/c5535_bsl_revc/ezdsp5535_v1/c55xx_csl/inc/csl_usbAux.h"
    1279 0002c3 7604          MOV #1038, T0 ; |1471| 
         0002c5 0E48 
    1280 0002c7 AB31          MOV *(#_usbRegisters), AR3 ; |1471| 
         0002c9 0000 
         0002cb 00!  
    1281 0002cc A96B          MOV port(*AR3(T0)), AR1 ; |1471| 
         0002ce 99   
    1282 0002cf C91E          MOV AR1, *SP(#15) ; |1471| 
    1283                      .dwpsn  file "F:/eZdsp_DBG/tmp1/c55x-sim2/foo/c5535_bsl_revc/ezdsp5535_v1/c55xx_csl/inc/csl_usbAux.h"
    1284 0002d1 A96B          MOV port(*AR3(T0)), AR1 ; |1474| 
         0002d3 99   
    1285 0002d4 7DFF          AND #0xfff0, AR1, AC0 ; |1474| 
         0002d6 F009 
    1286 0002d8 C06B          MOV AC0, port(*AR3(T0)) ; |1474| 
         0002da 9A   
    1287                      .dwpsn  file "F:/eZdsp_DBG/tmp1/c55x-sim2/foo/c5535_bsl_revc/ezdsp5535_v1/c55xx_csl/inc/csl_usbAux.h"
    1288 0002db AB31          MOV *(#_usbRegisters), AR3 ; |1479| 
         0002dd 0000 
         0002df 00!  
    1289 0002e0 A96B          MOV port(*AR3(T0)), AR1 ; |1479| 
         0002e2 99   
    1290 0002e3 7DFF          AND #0xfff0, AR1, AC0 ; |1479| 
         0002e5 F009 
    1291 0002e7 C06B          MOV AC0, port(*AR3(T0)) ; |1479| 
         0002e9 9A   
    1292                      .dwpsn  file "F:/eZdsp_DBG/tmp1/c55x-sim2/foo/c5535_bsl_revc/ezdsp5535_v1/c55xx_csl/inc/csl_usbAux.h"
    1293 0002ea ED08          MOV dbl(*SP(#4)), XAR3
         0002ec BF   
    1294 0002ed F06D          CMP *AR3(#12) == #1, TC1 ; |1483| 
         0002ef 0001 
         0002f1 000C 
    1295 0002f3 0474          BCC $C$L15,!TC1 ; |1483| 
         0002f5 37   
    1296                                                      ; branchcc occurs ; |1483| 
    1297                      .dwpsn  file "F:/eZdsp_DBG/tmp1/c55x-sim2/foo/c5535_bsl_revc/ezdsp5535_v1/c55xx_csl/inc/csl_usbAux.h"
    1298 0002f6 ED00          MOV dbl(*SP(#0)), XAR3
         0002f8 BF   
    1299 0002f9 E67F          MOV #0, *AR3(short(#7)) ; |1485| 
         0002fb 00   
    1300                      .dwpsn  file "F:/eZdsp_DBG/tmp1/c55x-sim2/foo/c5535_bsl_revc/ezdsp5535_v1/c55xx_csl/inc/csl_usbAux.h"
    1301 0002fc E61C          MOV #10, *SP(#14) ; |1488| 
         0002fe 0A   
TMS320C55x Assembler PC v4.4.1 Sat Sep 29 23:08:36 2018

Tools Copyright (c) 1996-2012 Texas Instruments Incorporated
csl_usb_intc_example.asm                                             PAGE   29

    1302                      .dwpsn  file "F:/eZdsp_DBG/tmp1/c55x-sim2/foo/c5535_bsl_revc/ezdsp5535_v1/c55xx_csl/inc/csl_usbAux.h"
    1303 0002ff ED00          MOV dbl(*SP(#0)), XAR3
         000301 BF   
    1304 000302 E66D          MOV #0, *AR3(#101) ; |1491| 
         000304 0000 
         000306 65   
    1305                      .dwpsn  file "F:/eZdsp_DBG/tmp1/c55x-sim2/foo/c5535_bsl_revc/ezdsp5535_v1/c55xx_csl/inc/csl_usbAux.h"
    1306 000307 7604          MOV #1042, T0 ; |1493| 
         000309 1248 
    1307 00030b AB31          MOV *(#_usbRegisters), AR3 ; |1493| 
         00030d 0000 
         00030f 00!  
    1308 000310 A91C          MOV *SP(#14), AR1 ; |1493| 
    1309 000312 DA6B          OR port(*AR3(T0)), AR1, AR1 ; |1493| 
         000314 99   
         000315 99   
    1310 000316 C96B          MOV AR1, port(*AR3(T0)) ; |1493| 
         000318 9A   
    1311                      .dwpsn  file "F:/eZdsp_DBG/tmp1/c55x-sim2/foo/c5535_bsl_revc/ezdsp5535_v1/c55xx_csl/inc/csl_usbAux.h"
    1312 000319 ED00          MOV dbl(*SP(#0)), XAR3
         00031b BF   
    1313 00031c ED00          MOV dbl(*SP(#0)), XAR0
         00031e 8F   
    1314 00031f ED04          MOV dbl(*SP(#2)), XAR1
         000321 9F   
    1315 000322 ED6D          MOV dbl(*AR3(#116)), AC0 ; |1495| 
         000324 0800 
         000326 74   
    1316              $C$DW$139       .dwtag  DW_TAG_TI_branch
    1317                      .dwattr $C$DW$139, DW_AT_low_pc(0x00)
    1318                      .dwattr $C$DW$139, DW_AT_TI_call
    1319                      .dwattr $C$DW$139, DW_AT_TI_indirect
    1320 000327 9200          CALL AC0  ; |1495| 
    1321                                                      ; call occurs [AC0] ; |1495| 
    1322 000329 C40C          MOV T0, *SP(#6) ; |1495| 
    1323                      .dwpsn  file "F:/eZdsp_DBG/tmp1/c55x-sim2/foo/c5535_bsl_revc/ezdsp5535_v1/c55xx_csl/inc/csl_usbAux.h"
    1324 00032b 4A15          B $C$L16  ; |1496| 
    1325                                                      ; branch occurs ; |1496| 
    1326 00032d       $C$L15:    
    1327                      .dwpsn  file "F:/eZdsp_DBG/tmp1/c55x-sim2/foo/c5535_bsl_revc/ezdsp5535_v1/c55xx_csl/inc/csl_usbAux.h"
    1328 00032d E61C          MOV #2, *SP(#14) ; |1500| 
         00032f 02   
    1329                      .dwpsn  file "F:/eZdsp_DBG/tmp1/c55x-sim2/foo/c5535_bsl_revc/ezdsp5535_v1/c55xx_csl/inc/csl_usbAux.h"
    1330 000330 7604          MOV #1042, T0 ; |1503| 
         000332 1248 
    1331 000334 AB31          MOV *(#_usbRegisters), AR3 ; |1503| 
         000336 0000 
         000338 00!  
    1332 000339 A91C          MOV *SP(#14), AR1 ; |1503| 
    1333 00033b DA6B          OR port(*AR3(T0)), AR1, AR1 ; |1503| 
         00033d 99   
         00033e 99   
    1334 00033f C96B          MOV AR1, port(*AR3(T0)) ; |1503| 
         000341 9A   
    1335 000342       $C$L16:    
TMS320C55x Assembler PC v4.4.1 Sat Sep 29 23:08:36 2018

Tools Copyright (c) 1996-2012 Texas Instruments Incorporated
csl_usb_intc_example.asm                                             PAGE   30

    1336                      .dwpsn  file "F:/eZdsp_DBG/tmp1/c55x-sim2/foo/c5535_bsl_revc/ezdsp5535_v1/c55xx_csl/inc/csl_usbAux.h"
    1337 000342 AB31          MOV *(#_usbRegisters), AR3 ; |1507| 
         000344 0000 
         000346 00!  
    1338 000347 7604          MOV #1038, T0 ; |1507| 
         000349 0E48 
    1339 00034b A91E          MOV *SP(#15), AR1 ; |1507| 
    1340 00034d C96B          MOV AR1, port(*AR3(T0)) ; |1507| 
         00034f 9A   
    1341                      .dwpsn  file "F:/eZdsp_DBG/tmp1/c55x-sim2/foo/c5535_bsl_revc/ezdsp5535_v1/c55xx_csl/inc/csl_usbAux.h"
    1342 000350 4A08          B $C$L19  ; |1508| 
    1343                                                      ; branch occurs ; |1508| 
    1344 000352       $C$L17:    
    1345                      .dwpsn  file "F:/eZdsp_DBG/tmp1/c55x-sim2/foo/c5535_bsl_revc/ezdsp5535_v1/c55xx_csl/inc/csl_usbAux.h"
    1346 000352 E60C          MOV #-6, *SP(#6) ; |1511| 
         000354 FA   
    1347                      .dwpsn  file "F:/eZdsp_DBG/tmp1/c55x-sim2/foo/c5535_bsl_revc/ezdsp5535_v1/c55xx_csl/inc/csl_usbAux.h"
    1348 000355 4A03          B $C$L19  ; |1513| 
    1349                                                      ; branch occurs ; |1513| 
    1350 000357       $C$L18:    
    1351                      .dwpsn  file "F:/eZdsp_DBG/tmp1/c55x-sim2/foo/c5535_bsl_revc/ezdsp5535_v1/c55xx_csl/inc/csl_usbAux.h"
    1352 000357 E60C          MOV #-6, *SP(#6) ; |1516| 
         000359 FA   
    1353 00035a       $C$L19:    
    1354                      .dwpsn  file "F:/eZdsp_DBG/tmp1/c55x-sim2/foo/c5535_bsl_revc/ezdsp5535_v1/c55xx_csl/inc/csl_usbAux.h"
    1355 00035a A40C          MOV *SP(#6), T0 ; |1519| 
    1356                      .dwpsn  file "F:/eZdsp_DBG/tmp1/c55x-sim2/foo/c5535_bsl_revc/ezdsp5535_v1/c55xx_csl/inc/csl_usbAux.h"
    1357 00035c 4E11          AADD #17, SP
    1358                      .dwcfi  cfa_offset, 1
    1359              $C$DW$140       .dwtag  DW_TAG_TI_branch
    1360                      .dwattr $C$DW$140, DW_AT_low_pc(0x00)
    1361                      .dwattr $C$DW$140, DW_AT_TI_return
    1362 00035e 4804          RET
    1363                                                      ; return occurs
    1364              
    1365              $C$DW$141       .dwtag  DW_TAG_TI_loop
    1366                      .dwattr $C$DW$141, DW_AT_name("F:\eZdsp_DBG\tmp1\c55x-sim2\foo\Debug\csl_usb_intc_example.asm:$C$L8:1
    1367                      .dwattr $C$DW$141, DW_AT_TI_begin_file("F:/eZdsp_DBG/tmp1/c55x-sim2/foo/c5535_bsl_revc/ezdsp5535_v1/c
    1368                      .dwattr $C$DW$141, DW_AT_TI_begin_line(0x598)
    1369                      .dwattr $C$DW$141, DW_AT_TI_end_line(0x5b3)
    1370              $C$DW$142       .dwtag  DW_TAG_TI_loop_range
    1371                      .dwattr $C$DW$142, DW_AT_low_pc($C$DW$L$_USB_processEP0In$8$B)
    1372                      .dwattr $C$DW$142, DW_AT_high_pc($C$DW$L$_USB_processEP0In$8$E)
    1373              $C$DW$143       .dwtag  DW_TAG_TI_loop_range
    1374                      .dwattr $C$DW$143, DW_AT_low_pc($C$DW$L$_USB_processEP0In$10$B)
    1375                      .dwattr $C$DW$143, DW_AT_high_pc($C$DW$L$_USB_processEP0In$10$E)
    1376              $C$DW$144       .dwtag  DW_TAG_TI_loop_range
    1377                      .dwattr $C$DW$144, DW_AT_low_pc($C$DW$L$_USB_processEP0In$11$B)
    1378                      .dwattr $C$DW$144, DW_AT_high_pc($C$DW$L$_USB_processEP0In$11$E)
    1379              $C$DW$145       .dwtag  DW_TAG_TI_loop_range
    1380                      .dwattr $C$DW$145, DW_AT_low_pc($C$DW$L$_USB_processEP0In$12$B)
    1381                      .dwattr $C$DW$145, DW_AT_high_pc($C$DW$L$_USB_processEP0In$12$E)
    1382              $C$DW$146       .dwtag  DW_TAG_TI_loop_range
    1383                      .dwattr $C$DW$146, DW_AT_low_pc($C$DW$L$_USB_processEP0In$15$B)
    1384                      .dwattr $C$DW$146, DW_AT_high_pc($C$DW$L$_USB_processEP0In$15$E)
TMS320C55x Assembler PC v4.4.1 Sat Sep 29 23:08:36 2018

Tools Copyright (c) 1996-2012 Texas Instruments Incorporated
csl_usb_intc_example.asm                                             PAGE   31

    1385              
    1386              $C$DW$147       .dwtag  DW_TAG_TI_loop
    1387                      .dwattr $C$DW$147, DW_AT_name("F:\eZdsp_DBG\tmp1\c55x-sim2\foo\Debug\csl_usb_intc_example.asm:$C$L9:2
    1388                      .dwattr $C$DW$147, DW_AT_TI_begin_file("F:/eZdsp_DBG/tmp1/c55x-sim2/foo/c5535_bsl_revc/ezdsp5535_v1/c
    1389                      .dwattr $C$DW$147, DW_AT_TI_begin_line(0x59b)
    1390                      .dwattr $C$DW$147, DW_AT_TI_end_line(0x59f)
    1391              $C$DW$148       .dwtag  DW_TAG_TI_loop_range
    1392                      .dwattr $C$DW$148, DW_AT_low_pc($C$DW$L$_USB_processEP0In$9$B)
    1393                      .dwattr $C$DW$148, DW_AT_high_pc($C$DW$L$_USB_processEP0In$9$E)
    1394                      .dwendtag $C$DW$147
    1395              
    1396                      .dwendtag $C$DW$141
    1397              
    1398                      .dwattr $C$DW$127, DW_AT_TI_end_file("F:/eZdsp_DBG/tmp1/c55x-sim2/foo/c5535_bsl_revc/ezdsp5535_v1/c55
    1399                      .dwattr $C$DW$127, DW_AT_TI_end_line(0x5f0)
    1400                      .dwattr $C$DW$127, DW_AT_TI_end_column(0x01)
    1401                      .dwendentry
    1402                      .dwendtag $C$DW$127
    1403              
    1404 000360               .sect   ".text"
    1405                      .align 4
    1406              
    1407              $C$DW$149       .dwtag  DW_TAG_subprogram, DW_AT_name("USB_isValidDataInFifoOut")
    1408                      .dwattr $C$DW$149, DW_AT_low_pc(_USB_isValidDataInFifoOut)
    1409                      .dwattr $C$DW$149, DW_AT_high_pc(0x00)
    1410                      .dwattr $C$DW$149, DW_AT_TI_symbol_name("_USB_isValidDataInFifoOut")
    1411                      .dwattr $C$DW$149, DW_AT_type(*$C$DW$T$86)
    1412                      .dwattr $C$DW$149, DW_AT_TI_begin_file("F:/eZdsp_DBG/tmp1/c55x-sim2/foo/c5535_bsl_revc/ezdsp5535_v1/c
    1413                      .dwattr $C$DW$149, DW_AT_TI_begin_line(0x80d)
    1414                      .dwattr $C$DW$149, DW_AT_TI_begin_column(0x06)
    1415                      .dwattr $C$DW$149, DW_AT_TI_max_frame_size(0x06)
    1416                      .dwpsn  file "F:/eZdsp_DBG/tmp1/c55x-sim2/foo/c5535_bsl_revc/ezdsp5535_v1/c55xx_csl/inc/csl_usbAux.h"
    1417              
    1418                      .dwfde $C$DW$CIE, _USB_isValidDataInFifoOut
    1419              $C$DW$150       .dwtag  DW_TAG_formal_parameter, DW_AT_name("peps")
    1420                      .dwattr $C$DW$150, DW_AT_TI_symbol_name("_peps")
    1421                      .dwattr $C$DW$150, DW_AT_type(*$C$DW$T$150)
    1422                      .dwattr $C$DW$150, DW_AT_location[DW_OP_reg17]
    1423              ;*******************************************************************************
    1424              ;* FUNCTION NAME: USB_isValidDataInFifoOut                                     *
    1425              ;*                                                                             *
    1426              ;*   Function Uses Regs : AC0,AC0,AC1,AC1,T0,AR0,XAR0,AR1,AR2,AR3,XAR3,SP,TC1, *
    1427              ;*                        M40,SATA,SATD,RDM,FRCT,SMUL                          *
    1428              ;*   Stack Frame        : Compact (No Frame Pointer, w/ debug)                 *
    1429              ;*   Total Frame Size   : 6 words                                              *
    1430              ;*                        (1 return address/alignment)                         *
    1431              ;*                        (5 local values)                                     *
    1432              ;*   Min System Stack   : 1 word                                               *
    1433              ;*******************************************************************************
    1434 000360       _USB_isValidDataInFifoOut:
    1435                      .dwcfi  cfa_offset, 1
    1436                      .dwcfi  save_reg_to_mem, 91, -1
    1437 000360 4EFB          AADD #-5, SP
    1438                      .dwcfi  cfa_offset, 6
    1439              $C$DW$151       .dwtag  DW_TAG_variable, DW_AT_name("peps")
TMS320C55x Assembler PC v4.4.1 Sat Sep 29 23:08:36 2018

Tools Copyright (c) 1996-2012 Texas Instruments Incorporated
csl_usb_intc_example.asm                                             PAGE   32

    1440                      .dwattr $C$DW$151, DW_AT_TI_symbol_name("_peps")
    1441                      .dwattr $C$DW$151, DW_AT_type(*$C$DW$T$150)
    1442                      .dwattr $C$DW$151, DW_AT_location[DW_OP_bregx 0x24 0]
    1443              $C$DW$152       .dwtag  DW_TAG_variable, DW_AT_name("saveIndex")
    1444                      .dwattr $C$DW$152, DW_AT_TI_symbol_name("_saveIndex")
    1445                      .dwattr $C$DW$152, DW_AT_type(*$C$DW$T$19)
    1446                      .dwattr $C$DW$152, DW_AT_location[DW_OP_bregx 0x24 2]
    1447              $C$DW$153       .dwtag  DW_TAG_variable, DW_AT_name("wByteCount")
    1448                      .dwattr $C$DW$153, DW_AT_TI_symbol_name("_wByteCount")
    1449                      .dwattr $C$DW$153, DW_AT_type(*$C$DW$T$19)
    1450                      .dwattr $C$DW$153, DW_AT_location[DW_OP_bregx 0x24 3]
    1451              $C$DW$154       .dwtag  DW_TAG_variable, DW_AT_name("flag")
    1452                      .dwattr $C$DW$154, DW_AT_TI_symbol_name("_flag")
    1453                      .dwattr $C$DW$154, DW_AT_type(*$C$DW$T$19)
    1454                      .dwattr $C$DW$154, DW_AT_location[DW_OP_bregx 0x24 4]
    1455 000362 EB00          MOV XAR0, dbl(*SP(#0))
         000364 85   
    1456                      .dwpsn  file "F:/eZdsp_DBG/tmp1/c55x-sim2/foo/c5535_bsl_revc/ezdsp5535_v1/c55xx_csl/inc/csl_usbAux.h"
    1457 000365 E604          MOV #0, *SP(#2) ; |2067| 
         000367 00   
    1458                      .dwpsn  file "F:/eZdsp_DBG/tmp1/c55x-sim2/foo/c5535_bsl_revc/ezdsp5535_v1/c55xx_csl/inc/csl_usbAux.h"
    1459 000368 E606          MOV #0, *SP(#3) ; |2068| 
         00036a 00   
    1460                      .dwpsn  file "F:/eZdsp_DBG/tmp1/c55x-sim2/foo/c5535_bsl_revc/ezdsp5535_v1/c55xx_csl/inc/csl_usbAux.h"
    1461 00036b E608          MOV #0, *SP(#4) ; |2069| 
         00036d 00   
    1462                      .dwpsn  file "F:/eZdsp_DBG/tmp1/c55x-sim2/foo/c5535_bsl_revc/ezdsp5535_v1/c55xx_csl/inc/csl_usbAux.h"
    1463 00036e ED00          MOV dbl(*SP(#0)), XAR3
         000370 BF   
    1464              
    1465 000371 ED61          MOV dbl(*AR3), AC0 ; |2071| 
         000373 08   
    1466 000374 3D21  ||      MOV #2, AC1 ; |2071| 
    1467              
    1468 000376 121C          CMPU AC1 != AC0, TC1 ; |2071| 
         000378 04   
    1469 000379 0464          BCC $C$L22,TC1 ; |2071| 
         00037b 70   
    1470                                                      ; branchcc occurs ; |2071| 
    1471                      .dwpsn  file "F:/eZdsp_DBG/tmp1/c55x-sim2/foo/c5535_bsl_revc/ezdsp5535_v1/c55xx_csl/inc/csl_usbAux.h"
    1472 00037c 7604          MOV #1038, T0 ; |2074| 
         00037e 0E48 
    1473 000380 AB31          MOV *(#_usbRegisters), AR3 ; |2074| 
         000382 0000 
         000384 00!  
    1474 000385 A96B          MOV port(*AR3(T0)), AR1 ; |2074| 
         000387 99   
    1475 000388 C904          MOV AR1, *SP(#2) ; |2074| 
    1476                      .dwpsn  file "F:/eZdsp_DBG/tmp1/c55x-sim2/foo/c5535_bsl_revc/ezdsp5535_v1/c55xx_csl/inc/csl_usbAux.h"
    1477 00038a F46B          AND #0xfff0, port(*AR3(T0)) ; |2076| 
         00038c FFF0 
         00038e 9A   
    1478                      .dwpsn  file "F:/eZdsp_DBG/tmp1/c55x-sim2/foo/c5535_bsl_revc/ezdsp5535_v1/c55xx_csl/inc/csl_usbAux.h"
    1479 00038f AB31          MOV *(#_usbRegisters), AR3 ; |2077| 
         000391 0000 
TMS320C55x Assembler PC v4.4.1 Sat Sep 29 23:08:36 2018

Tools Copyright (c) 1996-2012 Texas Instruments Incorporated
csl_usb_intc_example.asm                                             PAGE   33

         000393 00!  
    1480 000394 F56B          OR #0x0002, port(*AR3(T0)) ; |2077| 
         000396 0002 
         000398 9A   
    1481                      .dwpsn  file "F:/eZdsp_DBG/tmp1/c55x-sim2/foo/c5535_bsl_revc/ezdsp5535_v1/c55xx_csl/inc/csl_usbAux.h"
    1482 000399 7604          MOV #1046, T0 ; |2080| 
         00039b 1648 
    1483 00039d AB31          MOV *(#_usbRegisters), AR3 ; |2080| 
         00039f 0000 
         0003a1 00!  
    1484 0003a2 A96B          MOV port(*AR3(T0)), AR1 ; |2080| 
         0003a4 99   
    1485              
    1486 0003a5 1801          AND #0x0001, AR1, AR1 ; |2080| 
         0003a7 99   
    1487 0003a8 3D1A  ||      MOV #1, AR2
    1488              
    1489 0003aa 129C          CMPU AR1 != AR2, TC1 ; |2080| 
         0003ac A4   
    1490 0003ad 0464          BCC $C$L21,TC1 ; |2080| 
         0003af 2E   
    1491                                                      ; branchcc occurs ; |2080| 
    1492                      .dwpsn  file "F:/eZdsp_DBG/tmp1/c55x-sim2/foo/c5535_bsl_revc/ezdsp5535_v1/c55xx_csl/inc/csl_usbAux.h"
    1493 0003b0 7604          MOV #1049, T0 ; |2083| 
         0003b2 1948 
    1494 0003b4 DF6B          MOV uns(low_byte(port(*AR3(T0)))), AR1 ; |2083| 
         0003b6 93   
         0003b7 99   
    1495 0003b8 C906          MOV AR1, *SP(#3) ; |2083| 
    1496                      .dwpsn  file "F:/eZdsp_DBG/tmp1/c55x-sim2/foo/c5535_bsl_revc/ezdsp5535_v1/c55xx_csl/inc/csl_usbAux.h"
    1497 0003ba ED00          MOV dbl(*SP(#0)), XAR3
         0003bc BF   
    1498 0003bd C96D          MOV AR1, *AR3(#13) ; |2084| 
         0003bf 000D 
    1499                      .dwpsn  file "F:/eZdsp_DBG/tmp1/c55x-sim2/foo/c5535_bsl_revc/ezdsp5535_v1/c55xx_csl/inc/csl_usbAux.h"
    1500 0003c1 ED00          MOV dbl(*SP(#0)), XAR3
         0003c3 BF   
    1501 0003c4 F075          CMP *AR3(short(#2)) == #3, TC1 ; |2086| 
         0003c6 0003 
    1502 0003c8 0464          BCC $C$L20,TC1 ; |2086| 
         0003ca 10   
    1503                                                      ; branchcc occurs ; |2086| 
    1504                      .dwpsn  file "F:/eZdsp_DBG/tmp1/c55x-sim2/foo/c5535_bsl_revc/ezdsp5535_v1/c55xx_csl/inc/csl_usbAux.h"
    1505 0003cb ED79          MOV dbl(*AR3(short(#4))), AC0 ; |2088| 
         0003cd 08   
    1506 0003ce DF06          MOV uns(*SP(#3)), AC1 ; |2088| 
         0003d0 15   
    1507 0003d1 1204          CMPU AC1 > AC0, TC1 ; |2088| 
         0003d3 14   
    1508 0003d4 6464          BCC $C$L21,TC1 ; |2088| 
    1509                                                      ; branchcc occurs ; |2088| 
    1510                      .dwpsn  file "F:/eZdsp_DBG/tmp1/c55x-sim2/foo/c5535_bsl_revc/ezdsp5535_v1/c55xx_csl/inc/csl_usbAux.h"
    1511 0003d6 E608          MOV #1, *SP(#4) ; |2092| 
         0003d8 01   
    1512                      .dwpsn  file "F:/eZdsp_DBG/tmp1/c55x-sim2/foo/c5535_bsl_revc/ezdsp5535_v1/c55xx_csl/inc/csl_usbAux.h"
TMS320C55x Assembler PC v4.4.1 Sat Sep 29 23:08:36 2018

Tools Copyright (c) 1996-2012 Texas Instruments Incorporated
csl_usb_intc_example.asm                                             PAGE   34

    1513 0003d9 4A03          B $C$L21  ; |2094| 
    1514                                                      ; branch occurs ; |2094| 
    1515 0003db       $C$L20:    
    1516                      .dwpsn  file "F:/eZdsp_DBG/tmp1/c55x-sim2/foo/c5535_bsl_revc/ezdsp5535_v1/c55xx_csl/inc/csl_usbAux.h"
    1517 0003db E608          MOV #1, *SP(#4) ; |2097| 
         0003dd 01   
    1518 0003de       $C$L21:    
    1519                      .dwpsn  file "F:/eZdsp_DBG/tmp1/c55x-sim2/foo/c5535_bsl_revc/ezdsp5535_v1/c55xx_csl/inc/csl_usbAux.h"
    1520 0003de AB31          MOV *(#_usbRegisters), AR3 ; |2102| 
         0003e0 0000 
         0003e2 00!  
    1521 0003e3 7604          MOV #1038, T0 ; |2102| 
         0003e5 0E48 
    1522 0003e7 A904          MOV *SP(#2), AR1 ; |2102| 
    1523 0003e9 C96B          MOV AR1, port(*AR3(T0)) ; |2102| 
         0003eb 9A   
    1524 0003ec       $C$L22:    
    1525                      .dwpsn  file "F:/eZdsp_DBG/tmp1/c55x-sim2/foo/c5535_bsl_revc/ezdsp5535_v1/c55xx_csl/inc/csl_usbAux.h"
    1526 0003ec A408          MOV *SP(#4), T0 ; |2105| 
    1527                      .dwpsn  file "F:/eZdsp_DBG/tmp1/c55x-sim2/foo/c5535_bsl_revc/ezdsp5535_v1/c55xx_csl/inc/csl_usbAux.h"
    1528 0003ee 4E05          AADD #5, SP
    1529                      .dwcfi  cfa_offset, 1
    1530              $C$DW$155       .dwtag  DW_TAG_TI_branch
    1531                      .dwattr $C$DW$155, DW_AT_low_pc(0x00)
    1532                      .dwattr $C$DW$155, DW_AT_TI_return
    1533 0003f0 4804          RET
    1534                                                      ; return occurs
    1535                      .dwattr $C$DW$149, DW_AT_TI_end_file("F:/eZdsp_DBG/tmp1/c55x-sim2/foo/c5535_bsl_revc/ezdsp5535_v1/c55
    1536                      .dwattr $C$DW$149, DW_AT_TI_end_line(0x83a)
    1537                      .dwattr $C$DW$149, DW_AT_TI_end_column(0x01)
    1538                      .dwendentry
    1539                      .dwendtag $C$DW$149
    1540              
    1541 0003f2               .sect   ".text"
    1542                      .align 4
    1543              
    1544              $C$DW$156       .dwtag  DW_TAG_subprogram, DW_AT_name("USB_handleTx")
    1545                      .dwattr $C$DW$156, DW_AT_low_pc(_USB_handleTx)
    1546                      .dwattr $C$DW$156, DW_AT_high_pc(0x00)
    1547                      .dwattr $C$DW$156, DW_AT_TI_symbol_name("_USB_handleTx")
    1548                      .dwattr $C$DW$156, DW_AT_type(*$C$DW$T$80)
    1549                      .dwattr $C$DW$156, DW_AT_TI_begin_file("F:/eZdsp_DBG/tmp1/c55x-sim2/foo/c5535_bsl_revc/ezdsp5535_v1/c
    1550                      .dwattr $C$DW$156, DW_AT_TI_begin_line(0x371)
    1551                      .dwattr $C$DW$156, DW_AT_TI_begin_column(0x0c)
    1552                      .dwattr $C$DW$156, DW_AT_TI_max_frame_size(0x16)
    1553                      .dwpsn  file "F:/eZdsp_DBG/tmp1/c55x-sim2/foo/c5535_bsl_revc/ezdsp5535_v1/c55xx_csl/inc/csl_usbAux.h"
    1554              
    1555                      .dwfde $C$DW$CIE, _USB_handleTx
    1556              $C$DW$157       .dwtag  DW_TAG_formal_parameter, DW_AT_name("pContext")
    1557                      .dwattr $C$DW$157, DW_AT_TI_symbol_name("_pContext")
    1558                      .dwattr $C$DW$157, DW_AT_type(*$C$DW$T$146)
    1559                      .dwattr $C$DW$157, DW_AT_location[DW_OP_reg17]
    1560              $C$DW$158       .dwtag  DW_TAG_formal_parameter, DW_AT_name("dwEndpoint")
    1561                      .dwattr $C$DW$158, DW_AT_TI_symbol_name("_dwEndpoint")
    1562                      .dwattr $C$DW$158, DW_AT_type(*$C$DW$T$88)
TMS320C55x Assembler PC v4.4.1 Sat Sep 29 23:08:36 2018

Tools Copyright (c) 1996-2012 Texas Instruments Incorporated
csl_usb_intc_example.asm                                             PAGE   35

    1563                      .dwattr $C$DW$158, DW_AT_location[DW_OP_reg0]
    1564              ;*******************************************************************************
    1565              ;* FUNCTION NAME: USB_handleTx                                                 *
    1566              ;*                                                                             *
    1567              ;*   Function Uses Regs : AC0,AC0,AC1,AC1,T0,AR0,XAR0,AR1,XAR1,AR3,XAR3,SP,    *
    1568              ;*                        CARRY,TC1,M40,SATA,SATD,RDM,FRCT,SMUL                *
    1569              ;*   Stack Frame        : Compact (No Frame Pointer, w/ debug)                 *
    1570              ;*   Total Frame Size   : 22 words                                             *
    1571              ;*                        (1 return address/alignment)                         *
    1572              ;*                        (21 local values)                                    *
    1573              ;*   Min System Stack   : 1 word                                               *
    1574              ;*******************************************************************************
    1575 0003f4       _USB_handleTx:
    1576                      .dwcfi  cfa_offset, 1
    1577                      .dwcfi  save_reg_to_mem, 91, -1
    1578 0003f4 4EEB          AADD #-21, SP
    1579                      .dwcfi  cfa_offset, 22
    1580              $C$DW$159       .dwtag  DW_TAG_variable, DW_AT_name("pContext")
    1581                      .dwattr $C$DW$159, DW_AT_TI_symbol_name("_pContext")
    1582                      .dwattr $C$DW$159, DW_AT_type(*$C$DW$T$146)
    1583                      .dwattr $C$DW$159, DW_AT_location[DW_OP_bregx 0x24 0]
    1584              $C$DW$160       .dwtag  DW_TAG_variable, DW_AT_name("dwEndpoint")
    1585                      .dwattr $C$DW$160, DW_AT_TI_symbol_name("_dwEndpoint")
    1586                      .dwattr $C$DW$160, DW_AT_type(*$C$DW$T$88)
    1587                      .dwattr $C$DW$160, DW_AT_location[DW_OP_bregx 0x24 2]
    1588              $C$DW$161       .dwtag  DW_TAG_variable, DW_AT_name("cbToWrite")
    1589                      .dwattr $C$DW$161, DW_AT_TI_symbol_name("_cbToWrite")
    1590                      .dwattr $C$DW$161, DW_AT_type(*$C$DW$T$88)
    1591                      .dwattr $C$DW$161, DW_AT_location[DW_OP_bregx 0x24 4]
    1592              $C$DW$162       .dwtag  DW_TAG_variable, DW_AT_name("pwBuffer")
    1593                      .dwattr $C$DW$162, DW_AT_TI_symbol_name("_pwBuffer")
    1594                      .dwattr $C$DW$162, DW_AT_type(*$C$DW$T$87)
    1595                      .dwattr $C$DW$162, DW_AT_location[DW_OP_bregx 0x24 6]
    1596              $C$DW$163       .dwtag  DW_TAG_variable, DW_AT_name("cbBuffer")
    1597                      .dwattr $C$DW$163, DW_AT_TI_symbol_name("_cbBuffer")
    1598                      .dwattr $C$DW$163, DW_AT_type(*$C$DW$T$88)
    1599                      .dwattr $C$DW$163, DW_AT_location[DW_OP_bregx 0x24 8]
    1600              $C$DW$164       .dwtag  DW_TAG_variable, DW_AT_name("cbWritten")
    1601                      .dwattr $C$DW$164, DW_AT_TI_symbol_name("_cbWritten")
    1602                      .dwattr $C$DW$164, DW_AT_type(*$C$DW$T$88)
    1603                      .dwattr $C$DW$164, DW_AT_location[DW_OP_bregx 0x24 10]
    1604              $C$DW$165       .dwtag  DW_TAG_variable, DW_AT_name("count")
    1605                      .dwattr $C$DW$165, DW_AT_TI_symbol_name("_count")
    1606                      .dwattr $C$DW$165, DW_AT_type(*$C$DW$T$19)
    1607                      .dwattr $C$DW$165, DW_AT_location[DW_OP_bregx 0x24 12]
    1608              $C$DW$166       .dwtag  DW_TAG_variable, DW_AT_name("saveIndex")
    1609                      .dwattr $C$DW$166, DW_AT_TI_symbol_name("_saveIndex")
    1610                      .dwattr $C$DW$166, DW_AT_type(*$C$DW$T$19)
    1611                      .dwattr $C$DW$166, DW_AT_location[DW_OP_bregx 0x24 13]
    1612              $C$DW$167       .dwtag  DW_TAG_variable, DW_AT_name("status")
    1613                      .dwattr $C$DW$167, DW_AT_TI_symbol_name("_status")
    1614                      .dwattr $C$DW$167, DW_AT_type(*$C$DW$T$80)
    1615                      .dwattr $C$DW$167, DW_AT_location[DW_OP_bregx 0x24 14]
    1616              $C$DW$168       .dwtag  DW_TAG_variable, DW_AT_name("peps")
    1617                      .dwattr $C$DW$168, DW_AT_TI_symbol_name("_peps")
TMS320C55x Assembler PC v4.4.1 Sat Sep 29 23:08:36 2018

Tools Copyright (c) 1996-2012 Texas Instruments Incorporated
csl_usb_intc_example.asm                                             PAGE   36

    1618                      .dwattr $C$DW$168, DW_AT_type(*$C$DW$T$150)
    1619                      .dwattr $C$DW$168, DW_AT_location[DW_OP_bregx 0x24 16]
    1620              $C$DW$169       .dwtag  DW_TAG_variable, DW_AT_name("pTransfer")
    1621                      .dwattr $C$DW$169, DW_AT_TI_symbol_name("_pTransfer")
    1622                      .dwattr $C$DW$169, DW_AT_type(*$C$DW$T$152)
    1623                      .dwattr $C$DW$169, DW_AT_location[DW_OP_bregx 0x24 18]
    1624              $C$DW$170       .dwtag  DW_TAG_variable, DW_AT_name("pFifoAddr")
    1625                      .dwattr $C$DW$170, DW_AT_TI_symbol_name("_pFifoAddr")
    1626                      .dwattr $C$DW$170, DW_AT_type(*$C$DW$T$195)
    1627                      .dwattr $C$DW$170, DW_AT_location[DW_OP_bregx 0x24 20]
    1628 0003f6 EB04          MOV AC0, dbl(*SP(#2)) ; |883| 
         0003f8 08   
    1629 0003f9 EB00          MOV XAR0, dbl(*SP(#0))
         0003fb 85   
    1630                      .dwpsn  file "F:/eZdsp_DBG/tmp1/c55x-sim2/foo/c5535_bsl_revc/ezdsp5535_v1/c55xx_csl/inc/csl_usbAux.h"
    1631 0003fc E61C          MOV #0, *SP(#14) ; |896| 
         0003fe 00   
    1632                      .dwpsn  file "F:/eZdsp_DBG/tmp1/c55x-sim2/foo/c5535_bsl_revc/ezdsp5535_v1/c55xx_csl/inc/csl_usbAux.h"
    1633 0003ff E618          MOV #0, *SP(#12) ; |897| 
         000401 00   
    1634                      .dwpsn  file "F:/eZdsp_DBG/tmp1/c55x-sim2/foo/c5535_bsl_revc/ezdsp5535_v1/c55xx_csl/inc/csl_usbAux.h"
    1635 000402 E61A          MOV #0, *SP(#13) ; |898| 
         000404 00   
    1636                      .dwpsn  file "F:/eZdsp_DBG/tmp1/c55x-sim2/foo/c5535_bsl_revc/ezdsp5535_v1/c55xx_csl/inc/csl_usbAux.h"
    1637 000405 3C00          MOV #0, AC0 ; |899| 
    1638 000407 EB14          MOV AC0, dbl(*SP(#10)) ; |899| 
         000409 08   
    1639                      .dwpsn  file "F:/eZdsp_DBG/tmp1/c55x-sim2/foo/c5535_bsl_revc/ezdsp5535_v1/c55xx_csl/inc/csl_usbAux.h"
    1640 00040a ED00          MOV dbl(*SP(#0)), XAR3
         00040c BF   
    1641 00040d 90B0          MOV XAR3, AC0
    1642 00040f 6D00          BCC $C$L37,AC0 == #0 ; |901| 
         000411 0258 
    1643                                                      ; branchcc occurs ; |901| 
    1644                      .dwpsn  file "F:/eZdsp_DBG/tmp1/c55x-sim2/foo/c5535_bsl_revc/ezdsp5535_v1/c55xx_csl/inc/csl_usbAux.h"
    1645 000413 ED6D          MOV dbl(*AR3(#98)), XAR3
         000415 BF00 
         000417 62   
    1646 000418 F806          MPYMK *SP(#3), #18, AC0 ; |903| 
         00041a 1200 
    1647 00041c 2209          MOV AC0, AR1 ; |903| 
    1648              
    1649 00041e 8E20          MOV XAR3, dbl(*SP(#16))
         000420 BB10 
         000422 B590 
    1650              ||      AADD AR1, AR3 ; |903| 
    1651              
    1652                      .dwpsn  file "F:/eZdsp_DBG/tmp1/c55x-sim2/foo/c5535_bsl_revc/ezdsp5535_v1/c55xx_csl/inc/csl_usbAux.h"
    1653 000424 ED6D          MOV dbl(*AR3(#10)), XAR3
         000426 BF00 
         000428 0A   
    1654 000429 EB24          MOV XAR3, dbl(*SP(#18))
         00042b B5   
    1655                      .dwpsn  file "F:/eZdsp_DBG/tmp1/c55x-sim2/foo/c5535_bsl_revc/ezdsp5535_v1/c55xx_csl/inc/csl_usbAux.h"
    1656 00042c 90B0          MOV XAR3, AC0
TMS320C55x Assembler PC v4.4.1 Sat Sep 29 23:08:36 2018

Tools Copyright (c) 1996-2012 Texas Instruments Incorporated
csl_usb_intc_example.asm                                             PAGE   37

    1657 00042e 6D00          BCC $C$L36,AC0 == #0 ; |906| 
         000430 0234 
    1658                                                      ; branchcc occurs ; |906| 
    1659 000432 A96D          MOV *AR3(#12), AR1 ; |906| 
         000434 000C 
    1660 000436 6D19          BCC $C$L36,AR1 != #0 ; |906| 
         000438 022C 
    1661                                                      ; branchcc occurs ; |906| 
    1662                      .dwpsn  file "F:/eZdsp_DBG/tmp1/c55x-sim2/foo/c5535_bsl_revc/ezdsp5535_v1/c55xx_csl/inc/csl_usbAux.h"
    1663 00043a ED6D          MOV dbl(*AR3(#8)), AC0 ; |908| 
         00043c 0800 
         00043e 08   
    1664 00043f ED79          MOV dbl(*AR3(short(#4))), XAR3
         000441 BF   
    1665 000442 5001          SFTL AC0, #-1 ; |908| 
    1666 000444 2209          MOV AC0, AR1 ; |908| 
    1667              
    1668 000446 8E0C          MOV XAR3, dbl(*SP(#6))
         000448 BB10 
         00044a B590 
    1669              ||      AADD AR1, AR3 ; |908| 
    1670              
    1671                      .dwpsn  file "F:/eZdsp_DBG/tmp1/c55x-sim2/foo/c5535_bsl_revc/ezdsp5535_v1/c55xx_csl/inc/csl_usbAux.h"
    1672 00044c ED24          MOV dbl(*SP(#18)), XAR3
         00044e BF   
    1673 00044f ED6D          MOV dbl(*AR3(#8)), AC0 ; |909| 
         000451 0800 
         000453 08   
    1674 000454 ED7D          SUB AC0, dbl(*AR3(short(#6))), AC0 ; |909| 
         000456 04   
    1675 000457 EB10          MOV AC0, dbl(*SP(#8)) ; |909| 
         000459 08   
    1676                      .dwpsn  file "F:/eZdsp_DBG/tmp1/c55x-sim2/foo/c5535_bsl_revc/ezdsp5535_v1/c55xx_csl/inc/csl_usbAux.h"
    1677 00045a ED20          MOV dbl(*SP(#16)), XAR3
         00045c BF   
    1678 00045d A96D          MOV *AR3(#9), AR1 ; |910| 
         00045f 0009 
    1679 000461 C928          MOV AR1, *SP(#20) ; |910| 
    1680                      .dwpsn  file "F:/eZdsp_DBG/tmp1/c55x-sim2/foo/c5535_bsl_revc/ezdsp5535_v1/c55xx_csl/inc/csl_usbAux.h"
    1681 000463 ED20          MOV dbl(*SP(#16)), XAR3
         000465 BF   
    1682 000466 ED10          MOV dbl(*SP(#8)), AC1 ; |913| 
         000468 18   
    1683 000469 ED79          MOV dbl(*AR3(short(#4))), AC0 ; |913| 
         00046b 08   
    1684 00046c 1218          CMPU AC1 >= AC0, TC1 ; |913| 
         00046e 04   
    1685 00046f 62E4          BCC $C$L23,TC1 ; |913| 
    1686                                                      ; branchcc occurs ; |913| 
    1687 000471 ED10          MOV dbl(*SP(#8)), AC0 ; |913| 
         000473 08   
    1688 000474 4A03          B $C$L24  ; |913| 
    1689                                                      ; branch occurs ; |913| 
    1690 000476       $C$L23:    
    1691 000476 ED79          MOV dbl(*AR3(short(#4))), AC0 ; |913| 
TMS320C55x Assembler PC v4.4.1 Sat Sep 29 23:08:36 2018

Tools Copyright (c) 1996-2012 Texas Instruments Incorporated
csl_usb_intc_example.asm                                             PAGE   38

         000478 08   
    1692 000479       $C$L24:    
    1693 000479 EB08          MOV AC0, dbl(*SP(#4)) ; |913| 
         00047b 08   
    1694                      .dwpsn  file "F:/eZdsp_DBG/tmp1/c55x-sim2/foo/c5535_bsl_revc/ezdsp5535_v1/c55xx_csl/inc/csl_usbAux.h"
    1695 00047c ED24          MOV dbl(*SP(#18)), XAR3
         00047e BF   
    1696 00047f F06D          CMP *AR3(#13) == #32, TC1 ; |916| 
         000481 0020 
         000483 000D 
    1697 000485 6474          BCC $C$L25,!TC1 ; |916| 
    1698                                                      ; branchcc occurs ; |916| 
    1699                      .dwpsn  file "F:/eZdsp_DBG/tmp1/c55x-sim2/foo/c5535_bsl_revc/ezdsp5535_v1/c55xx_csl/inc/csl_usbAux.h"
    1700 000487 E66D          MOV #1, *AR3(#12) ; |918| 
         000489 0100 
         00048b 0C   
    1701                      .dwpsn  file "F:/eZdsp_DBG/tmp1/c55x-sim2/foo/c5535_bsl_revc/ezdsp5535_v1/c55xx_csl/inc/csl_usbAux.h"
    1702 00048c 0601          B $C$L35  ; |919| 
         00048e B3   
    1703                                                      ; branch occurs ; |919| 
    1704 00048f       $C$L25:    
    1705                      .dwpsn  file "F:/eZdsp_DBG/tmp1/c55x-sim2/foo/c5535_bsl_revc/ezdsp5535_v1/c55xx_csl/inc/csl_usbAux.h"
    1706 00048f ED20          MOV dbl(*SP(#16)), XAR3
         000491 BF   
    1707 000492 F06D          CMP *AR3(#16) == #1, TC1 ; |922| 
         000494 0001 
         000496 0010 
    1708 000498 6D64          BCC $C$L35,TC1 ; |922| 
         00049a 01A6 
    1709                                                      ; branchcc occurs ; |922| 
    1710                      .dwpsn  file "F:/eZdsp_DBG/tmp1/c55x-sim2/foo/c5535_bsl_revc/ezdsp5535_v1/c55xx_csl/inc/csl_usbAux.h"
    1711 00049c 7602          MOV #512, AC0 ; |925| 
         00049e 0008 
    1712 0004a0 ED08          MOV dbl(*SP(#4)), AC1 ; |925| 
         0004a2 18   
    1713 0004a3 1210          CMPU AC1 == AC0, TC1 ; |925| 
         0004a5 04   
    1714 0004a6 66E4          BCC $C$L26,TC1 ; |925| 
    1715                                                      ; branchcc occurs ; |925| 
    1716 0004a8 7600          MOV #64, AC0 ; |925| 
         0004aa 4008 
    1717 0004ac ED08          MOV dbl(*SP(#4)), AC1 ; |925| 
         0004ae 18   
    1718 0004af 121C          CMPU AC1 != AC0, TC1 ; |925| 
         0004b1 04   
    1719 0004b2 0464          BCC $C$L29,TC1 ; |925| 
         0004b4 5E   
    1720                                                      ; branchcc occurs ; |925| 
    1721 0004b5       $C$L26:    
    1722 0004b5 ED00          MOV dbl(*SP(#0)), XAR3
         0004b7 BF   
    1723 0004b8 F061          CMP *AR3 == #1, TC1 ; |925| 
         0004ba 0001 
    1724 0004bc 63E4          BCC $C$L27,TC1 ; |925| 
    1725                                                      ; branchcc occurs ; |925| 
TMS320C55x Assembler PC v4.4.1 Sat Sep 29 23:08:36 2018

Tools Copyright (c) 1996-2012 Texas Instruments Incorporated
csl_usb_intc_example.asm                                             PAGE   39

    1726 0004be F061          CMP *AR3 == #2, TC1 ; |925| 
         0004c0 0002 
    1727 0004c2 0474          BCC $C$L29,!TC1 ; |925| 
         0004c4 4E   
    1728                                                      ; branchcc occurs ; |925| 
    1729 0004c5       $C$L27:    
    1730                      .dwpsn  file "F:/eZdsp_DBG/tmp1/c55x-sim2/foo/c5535_bsl_revc/ezdsp5535_v1/c55xx_csl/inc/csl_usbAux.h"
    1731 0004c5 ED24          MOV dbl(*SP(#18)), XAR3
         0004c7 BF   
    1732 0004c8 ED08          MOV dbl(*SP(#4)), AC0 ; |929| 
         0004ca 08   
    1733 0004cb ED6D          ADD dbl(*AR3(#8)), AC0, AC0 ; |929| 
         0004cd 0000 
         0004cf 08   
    1734 0004d0 EB6D          MOV AC0, dbl(*AR3(#8)) ; |929| 
         0004d2 0800 
         0004d4 08   
    1735                      .dwpsn  file "F:/eZdsp_DBG/tmp1/c55x-sim2/foo/c5535_bsl_revc/ezdsp5535_v1/c55xx_csl/inc/csl_usbAux.h"
    1736 0004d5 ED24          MOV dbl(*SP(#18)), XAR3
         0004d7 BF   
    1737 0004d8 ED08          MOV dbl(*SP(#4)), AC0 ; |930| 
         0004da 08   
    1738 0004db EB6D          MOV AC0, dbl(*AR3(#10)) ; |930| 
         0004dd 0800 
         0004df 0A   
    1739                      .dwpsn  file "F:/eZdsp_DBG/tmp1/c55x-sim2/foo/c5535_bsl_revc/ezdsp5535_v1/c55xx_csl/inc/csl_usbAux.h"
    1740 0004e0 ED04          MOV dbl(*SP(#2)), AC0 ; |932| 
         0004e2 08   
    1741              $C$DW$171       .dwtag  DW_TAG_TI_branch
    1742                      .dwattr $C$DW$171, DW_AT_low_pc(0x00)
    1743                      .dwattr $C$DW$171, DW_AT_name("_USB_dmaTxStart")
    1744                      .dwattr $C$DW$171, DW_AT_TI_call
    1745 0004e3 08FB          CALL #_USB_dmaTxStart ; |932| 
         0004e5 6E   
    1746                                                      ; call occurs [#_USB_dmaTxStart] ; |932| 
    1747                      .dwpsn  file "F:/eZdsp_DBG/tmp1/c55x-sim2/foo/c5535_bsl_revc/ezdsp5535_v1/c55xx_csl/inc/csl_usbAux.h"
    1748 0004e6 ED24          MOV dbl(*SP(#18)), XAR3
         0004e8 BF   
    1749 0004e9 ED6D          MOV dbl(*AR3(#8)), AC1 ; |934| 
         0004eb 1800 
         0004ed 08   
    1750 0004ee ED7D          MOV dbl(*AR3(short(#6))), AC0 ; |934| 
         0004f0 08   
    1751 0004f1 121C          CMPU AC1 != AC0, TC1 ; |934| 
         0004f3 04   
    1752 0004f4 6464          BCC $C$L28,TC1 ; |934| 
    1753                                                      ; branchcc occurs ; |934| 
    1754                      .dwpsn  file "F:/eZdsp_DBG/tmp1/c55x-sim2/foo/c5535_bsl_revc/ezdsp5535_v1/c55xx_csl/inc/csl_usbAux.h"
    1755 0004f6 E66D          MOV #1, *AR3(#12) ; |936| 
         0004f8 0100 
         0004fa 0C   
    1756                      .dwpsn  file "F:/eZdsp_DBG/tmp1/c55x-sim2/foo/c5535_bsl_revc/ezdsp5535_v1/c55xx_csl/inc/csl_usbAux.h"
    1757 0004fb 0601          B $C$L35  ; |937| 
         0004fd 44   
    1758                                                      ; branch occurs ; |937| 
TMS320C55x Assembler PC v4.4.1 Sat Sep 29 23:08:36 2018

Tools Copyright (c) 1996-2012 Texas Instruments Incorporated
csl_usb_intc_example.asm                                             PAGE   40

    1759 0004fe       $C$L28:    
    1760                      .dwpsn  file "F:/eZdsp_DBG/tmp1/c55x-sim2/foo/c5535_bsl_revc/ezdsp5535_v1/c55xx_csl/inc/csl_usbAux.h"
    1761 0004fe ED00          MOV dbl(*SP(#0)), XAR3
         000500 BF   
    1762 000501 ED00          MOV dbl(*SP(#0)), XAR0
         000503 8F   
    1763 000504 ED20          MOV dbl(*SP(#16)), XAR1
         000506 9F   
    1764 000507 ED6D          MOV dbl(*AR3(#116)), AC0 ; |940| 
         000509 0800 
         00050b 74   
    1765              $C$DW$172       .dwtag  DW_TAG_TI_branch
    1766                      .dwattr $C$DW$172, DW_AT_low_pc(0x00)
    1767                      .dwattr $C$DW$172, DW_AT_TI_call
    1768                      .dwattr $C$DW$172, DW_AT_TI_indirect
    1769 00050c 9200          CALL AC0  ; |940| 
    1770                                                      ; call occurs [AC0] ; |940| 
    1771 00050e C41C          MOV T0, *SP(#14) ; |940| 
    1772                      .dwpsn  file "F:/eZdsp_DBG/tmp1/c55x-sim2/foo/c5535_bsl_revc/ezdsp5535_v1/c55xx_csl/inc/csl_usbAux.h"
    1773 000510 0601          B $C$L35  ; |942| 
         000512 2F   
    1774                                                      ; branch occurs ; |942| 
    1775 000513       $C$L29:    
    1776                      .dwpsn  file "F:/eZdsp_DBG/tmp1/c55x-sim2/foo/c5535_bsl_revc/ezdsp5535_v1/c55xx_csl/inc/csl_usbAux.h"
    1777 000513 7604          MOV #1038, T0 ; |957| 
         000515 0E48 
    1778 000517 AB31          MOV *(#_usbRegisters), AR3 ; |957| 
         000519 0000 
         00051b 00!  
    1779 00051c A96B          MOV port(*AR3(T0)), AR1 ; |957| 
         00051e 99   
    1780 00051f C91A          MOV AR1, *SP(#13) ; |957| 
    1781                      .dwpsn  file "F:/eZdsp_DBG/tmp1/c55x-sim2/foo/c5535_bsl_revc/ezdsp5535_v1/c55xx_csl/inc/csl_usbAux.h"
    1782 000521 A96B          MOV port(*AR3(T0)), AR1 ; |960| 
         000523 99   
    1783 000524 7DFF          AND #0xfff0, AR1, AC0 ; |960| 
         000526 F009 
    1784 000528 C06B          MOV AC0, port(*AR3(T0)) ; |960| 
         00052a 9A   
    1785                      .dwpsn  file "F:/eZdsp_DBG/tmp1/c55x-sim2/foo/c5535_bsl_revc/ezdsp5535_v1/c55xx_csl/inc/csl_usbAux.h"
    1786 00052b AB31          MOV *(#_usbRegisters), AR3 ; |964| 
         00052d 0000 
         00052f 00!  
    1787 000530 ED04          MOV dbl(*SP(#2)), AC0 ; |964| 
         000532 08   
    1788 000533 180F          AND #0x000f, AC0, AC0 ; |964| 
         000535 00   
    1789 000536 A96B          MOV port(*AR3(T0)), AR1 ; |964| 
         000538 99   
    1790 000539 7DFF          AND #0xfff0, AR1, AC1 ; |964| 
         00053b F019 
    1791 00053d 2A10          OR AC1, AC0 ; |964| 
    1792 00053f C06B          MOV AC0, port(*AR3(T0)) ; |964| 
         000541 9A   
    1793                      .dwpsn  file "F:/eZdsp_DBG/tmp1/c55x-sim2/foo/c5535_bsl_revc/ezdsp5535_v1/c55xx_csl/inc/csl_usbAux.h"
TMS320C55x Assembler PC v4.4.1 Sat Sep 29 23:08:36 2018

Tools Copyright (c) 1996-2012 Texas Instruments Incorporated
csl_usb_intc_example.asm                                             PAGE   41

    1794 000542 7604          MOV #1042, T0 ; |969| 
         000544 1248 
    1795 000546 AB31          MOV *(#_usbRegisters), AR3 ; |969| 
         000548 0000 
         00054a 00!  
    1796 00054b A96B          MOV port(*AR3(T0)), AR1 ; |969| 
         00054d 99   
    1797 00054e EC06          BCLR @#3, AR1 ; |969| 
         000550 92   
    1798 000551 EC06          BSET @#3, AR1 ; |969| 
         000553 90   
    1799 000554 C96B          MOV AR1, port(*AR3(T0)) ; |969| 
         000556 9A   
    1800                      .dwpsn  file "F:/eZdsp_DBG/tmp1/c55x-sim2/foo/c5535_bsl_revc/ezdsp5535_v1/c55xx_csl/inc/csl_usbAux.h"
    1801 000557 ED08          MOV dbl(*SP(#4)), AC0 ; |972| 
         000559 08   
    1802 00055a 0400          BCC $C$L32,AC0 == #0 ; |972| 
         00055c 76   
    1803                                                      ; branchcc occurs ; |972| 
    1804                      .dwpsn  file "F:/eZdsp_DBG/tmp1/c55x-sim2/foo/c5535_bsl_revc/ezdsp5535_v1/c55xx_csl/inc/csl_usbAux.h"
    1805 00055d ED08          MOV dbl(*SP(#4)), AC0 ; |975| 
         00055f 08   
    1806 000560 EB14          MOV AC0, dbl(*SP(#10)) ; |975| 
         000562 08   
    1807                      .dwpsn  file "F:/eZdsp_DBG/tmp1/c55x-sim2/foo/c5535_bsl_revc/ezdsp5535_v1/c55xx_csl/inc/csl_usbAux.h"
    1808 000563 E618          MOV #0, *SP(#12) ; |977| 
         000565 00   
    1809                      .dwpsn  file "F:/eZdsp_DBG/tmp1/c55x-sim2/foo/c5535_bsl_revc/ezdsp5535_v1/c55xx_csl/inc/csl_usbAux.h"
    1810 000566 ED08          MOV dbl(*SP(#4)), AC0 ; |977| 
         000568 08   
    1811              
    1812 00056c 5101          SFTL AC0, #-1 ; |977| 
    1813 000569 DF18  ||      MOV uns(*SP(#12)), AC1 ; |977| 
         00056b 15   
    1814              
    1815 00056e 1218          CMPU AC1 >= AC0, TC1 ; |977| 
         000570 04   
    1816 000571 0464          BCC $C$L31,TC1 ; |977| 
         000573 1F   
    1817                                                      ; branchcc occurs ; |977| 
    1818 000574       $C$L30:    
    1819 000574       $C$DW$L$_USB_handleTx$19$B:
    1820                      .dwpsn  file "F:/eZdsp_DBG/tmp1/c55x-sim2/foo/c5535_bsl_revc/ezdsp5535_v1/c55xx_csl/inc/csl_usbAux.h"
    1821 000574 ED0C          MOV dbl(*SP(#6)), XAR3
         000576 BF   
    1822 000577 A963          MOV *AR3+, AR1 ; |979| 
    1823 000579 EB0C          MOV XAR3, dbl(*SP(#6))
         00057b B5   
    1824 00057c AB28          MOV *SP(#20), AR3 ; |979| 
    1825 00057e C961          MOV AR1, port(*AR3) ; |979| 
         000580 9A   
    1826                      .dwpsn  file "F:/eZdsp_DBG/tmp1/c55x-sim2/foo/c5535_bsl_revc/ezdsp5535_v1/c55xx_csl/inc/csl_usbAux.h"
    1827 000581 F718          ADD #1, *SP(#12) ; |977| 
         000583 0001 
    1828                      .dwpsn  file "F:/eZdsp_DBG/tmp1/c55x-sim2/foo/c5535_bsl_revc/ezdsp5535_v1/c55xx_csl/inc/csl_usbAux.h"
TMS320C55x Assembler PC v4.4.1 Sat Sep 29 23:08:36 2018

Tools Copyright (c) 1996-2012 Texas Instruments Incorporated
csl_usb_intc_example.asm                                             PAGE   42

    1829 000585 ED08          MOV dbl(*SP(#4)), AC0 ; |977| 
         000587 08   
    1830              
    1831 00058b 5101          SFTL AC0, #-1 ; |977| 
    1832 000588 DF18  ||      MOV uns(*SP(#12)), AC1 ; |977| 
         00058a 15   
    1833              
    1834 00058d 1214          CMPU AC1 < AC0, TC1 ; |977| 
         00058f 04   
    1835 000590 0464          BCC $C$L30,TC1 ; |977| 
         000592 E1   
    1836                                                      ; branchcc occurs ; |977| 
    1837 000593       $C$DW$L$_USB_handleTx$19$E:
    1838 000593       $C$L31:    
    1839                      .dwpsn  file "F:/eZdsp_DBG/tmp1/c55x-sim2/foo/c5535_bsl_revc/ezdsp5535_v1/c55xx_csl/inc/csl_usbAux.h"
    1840 000593 ED08          MOV dbl(*SP(#4)), AC0 ; |982| 
         000595 08   
    1841 000596 1801          AND #0x0001, AC0, AC0 ; |982| 
         000598 00   
    1842 000599 0400          BCC $C$L32,AC0 == #0 ; |982| 
         00059b 37   
    1843                                                      ; branchcc occurs ; |982| 
    1844                      .dwpsn  file "F:/eZdsp_DBG/tmp1/c55x-sim2/foo/c5535_bsl_revc/ezdsp5535_v1/c55xx_csl/inc/csl_usbAux.h"
    1845 00059c 7600          MOV #50, T0 ; |985| 
         00059e 3248 
    1846 0005a0 AB31          MOV *(#_sysCtrlRegs), AR3 ; |985| 
         0005a2 0000 
         0005a4 00!  
    1847 0005a5 A96B          MOV port(*AR3(T0)), AR1 ; |985| 
         0005a7 99   
    1848 0005a8 7DFF          AND #0xfffc, AR1, AC0 ; |985| 
         0005aa FC09 
    1849 0005ac EC02          BSET @#1, AC0 ; |985| 
         0005ae 00   
    1850 0005af C06B          MOV AC0, port(*AR3(T0)) ; |985| 
         0005b1 9A   
    1851                      .dwpsn  file "F:/eZdsp_DBG/tmp1/c55x-sim2/foo/c5535_bsl_revc/ezdsp5535_v1/c55xx_csl/inc/csl_usbAux.h"
    1852 0005b2 AB28          MOV *SP(#20), AR3 ; |987| 
    1853 0005b4 A961          MOV port(*AR3), AR1 ; |987| 
         0005b6 99   
    1854 0005b7 ED0C          MOV dbl(*SP(#6)), XAR3
         0005b9 BF   
    1855 0005ba A961          MOV *AR3, AR1 ; |987| 
    1856 0005bc AB28          MOV *SP(#20), AR3 ; |987| 
    1857 0005be 1A00          OR #0x0000, AR1, AR1 ; |987| 
         0005c0 99   
    1858 0005c1 C961          MOV AR1, port(*AR3) ; |987| 
         0005c3 9A   
    1859                      .dwpsn  file "F:/eZdsp_DBG/tmp1/c55x-sim2/foo/c5535_bsl_revc/ezdsp5535_v1/c55xx_csl/inc/csl_usbAux.h"
    1860 0005c4 AB31          MOV *(#_sysCtrlRegs), AR3 ; |990| 
         0005c6 0000 
         0005c8 00!  
    1861 0005c9 A96B          MOV port(*AR3(T0)), AR1 ; |990| 
         0005cb 99   
    1862 0005cc 7DFF          AND #0xfffc, AR1, AC0 ; |990| 
TMS320C55x Assembler PC v4.4.1 Sat Sep 29 23:08:36 2018

Tools Copyright (c) 1996-2012 Texas Instruments Incorporated
csl_usb_intc_example.asm                                             PAGE   43

         0005ce FC09 
    1863 0005d0 C06B          MOV AC0, port(*AR3(T0)) ; |990| 
         0005d2 9A   
    1864 0005d3       $C$L32:    
    1865                      .dwpsn  file "F:/eZdsp_DBG/tmp1/c55x-sim2/foo/c5535_bsl_revc/ezdsp5535_v1/c55xx_csl/inc/csl_usbAux.h"
    1866 0005d3 ED20          MOV dbl(*SP(#16)), XAR3
         0005d5 BF   
    1867 0005d6 F075          CMP *AR3(short(#2)) == #3, TC1 ; |995| 
         0005d8 0003 
    1868 0005da 6774          BCC $C$L33,!TC1 ; |995| 
    1869                                                      ; branchcc occurs ; |995| 
    1870                      .dwpsn  file "F:/eZdsp_DBG/tmp1/c55x-sim2/foo/c5535_bsl_revc/ezdsp5535_v1/c55xx_csl/inc/csl_usbAux.h"
    1871 0005dc 7604          MOV #1042, T0 ; |997| 
         0005de 1248 
    1872 0005e0 AB31          MOV *(#_usbRegisters), AR3 ; |997| 
         0005e2 0000 
         0005e4 00!  
    1873 0005e5 F56B          OR #0x0040, port(*AR3(T0)) ; |997| 
         0005e7 0040 
         0005e9 9A   
    1874 0005ea       $C$L33:    
    1875                      .dwpsn  file "F:/eZdsp_DBG/tmp1/c55x-sim2/foo/c5535_bsl_revc/ezdsp5535_v1/c55xx_csl/inc/csl_usbAux.h"
    1876 0005ea 7604          MOV #1042, T0 ; |1002| 
         0005ec 1248 
    1877 0005ee AB31          MOV *(#_usbRegisters), AR3 ; |1002| 
         0005f0 0000 
         0005f2 00!  
    1878 0005f3 A96B          MOV port(*AR3(T0)), AR1 ; |1002| 
         0005f5 99   
    1879 0005f6 EC00          BCLR @#0, AR1 ; |1002| 
         0005f8 92   
    1880 0005f9 EC00          BSET @#0, AR1 ; |1002| 
         0005fb 90   
    1881 0005fc C96B          MOV AR1, port(*AR3(T0)) ; |1002| 
         0005fe 9A   
    1882                      .dwpsn  file "F:/eZdsp_DBG/tmp1/c55x-sim2/foo/c5535_bsl_revc/ezdsp5535_v1/c55xx_csl/inc/csl_usbAux.h"
    1883 0005ff 7604          MOV #1038, T0 ; |1006| 
         000601 0E48 
    1884 000603 AB31          MOV *(#_usbRegisters), AR3 ; |1006| 
         000605 0000 
         000607 00!  
    1885 000608 A91A          MOV *SP(#13), AR1 ; |1006| 
    1886 00060a C96B          MOV AR1, port(*AR3(T0)) ; |1006| 
         00060c 9A   
    1887                      .dwpsn  file "F:/eZdsp_DBG/tmp1/c55x-sim2/foo/c5535_bsl_revc/ezdsp5535_v1/c55xx_csl/inc/csl_usbAux.h"
    1888 00060d ED24          MOV dbl(*SP(#18)), XAR3
         00060f BF   
    1889 000610 ED14          MOV dbl(*SP(#10)), AC0 ; |1009| 
         000612 08   
    1890 000613 ED6D          ADD dbl(*AR3(#8)), AC0, AC0 ; |1009| 
         000615 0000 
         000617 08   
    1891 000618 EB6D          MOV AC0, dbl(*AR3(#8)) ; |1009| 
         00061a 0800 
         00061c 08   
TMS320C55x Assembler PC v4.4.1 Sat Sep 29 23:08:36 2018

Tools Copyright (c) 1996-2012 Texas Instruments Incorporated
csl_usb_intc_example.asm                                             PAGE   44

    1892                      .dwpsn  file "F:/eZdsp_DBG/tmp1/c55x-sim2/foo/c5535_bsl_revc/ezdsp5535_v1/c55xx_csl/inc/csl_usbAux.h"
    1893 00061d ED24          MOV dbl(*SP(#18)), XAR3
         00061f BF   
    1894 000620 ED14          MOV dbl(*SP(#10)), AC0 ; |1010| 
         000622 08   
    1895 000623 EB6D          MOV AC0, dbl(*AR3(#10)) ; |1010| 
         000625 0800 
         000627 0A   
    1896                      .dwpsn  file "F:/eZdsp_DBG/tmp1/c55x-sim2/foo/c5535_bsl_revc/ezdsp5535_v1/c55xx_csl/inc/csl_usbAux.h"
    1897 000628 ED24          MOV dbl(*SP(#18)), XAR3
         00062a BF   
    1898 00062b ED6D          MOV dbl(*AR3(#8)), AC1 ; |1012| 
         00062d 1800 
         00062f 08   
    1899 000630 ED7D          MOV dbl(*AR3(short(#6))), AC0 ; |1012| 
         000632 08   
    1900 000633 1210          CMPU AC1 == AC0, TC1 ; |1012| 
         000635 04   
    1901 000636 62E4          BCC $C$L34,TC1 ; |1012| 
    1902                                                      ; branchcc occurs ; |1012| 
    1903 000638 ED14          MOV dbl(*SP(#10)), AC0 ; |1012| 
         00063a 08   
    1904 00063b 6290          BCC $C$L35,AC0 != #0 ; |1012| 
    1905                                                      ; branchcc occurs ; |1012| 
    1906 00063d       $C$L34:    
    1907                      .dwpsn  file "F:/eZdsp_DBG/tmp1/c55x-sim2/foo/c5535_bsl_revc/ezdsp5535_v1/c55xx_csl/inc/csl_usbAux.h"
    1908 00063d E66D          MOV #1, *AR3(#12) ; |1015| 
         00063f 0100 
         000641 0C   
    1909 000642       $C$L35:    
    1910                      .dwpsn  file "F:/eZdsp_DBG/tmp1/c55x-sim2/foo/c5535_bsl_revc/ezdsp5535_v1/c55xx_csl/inc/csl_usbAux.h"
    1911 000642 ED24          MOV dbl(*SP(#18)), XAR3
         000644 BF   
    1912 000645 A96D          MOV *AR3(#12), AR1 ; |1021| 
         000647 000C 
    1913 000649 0409          BCC $C$L38,AR1 == #0 ; |1021| 
         00064b 22   
    1914                                                      ; branchcc occurs ; |1021| 
    1915                      .dwpsn  file "F:/eZdsp_DBG/tmp1/c55x-sim2/foo/c5535_bsl_revc/ezdsp5535_v1/c55xx_csl/inc/csl_usbAux.h"
    1916 00064c ED00          MOV dbl(*SP(#0)), XAR3
         00064e BF   
    1917 00064f E67B          MOV #0, *AR3(short(#5)) ; |1023| 
         000651 00   
    1918                      .dwpsn  file "F:/eZdsp_DBG/tmp1/c55x-sim2/foo/c5535_bsl_revc/ezdsp5535_v1/c55xx_csl/inc/csl_usbAux.h"
    1919 000652 ED00          MOV dbl(*SP(#0)), XAR3
         000654 BF   
    1920 000655 ED00          MOV dbl(*SP(#0)), XAR0
         000657 8F   
    1921 000658 ED20          MOV dbl(*SP(#16)), XAR1
         00065a 9F   
    1922 00065b ED6D          MOV dbl(*AR3(#116)), AC0 ; |1024| 
         00065d 0800 
         00065f 74   
    1923              $C$DW$173       .dwtag  DW_TAG_TI_branch
    1924                      .dwattr $C$DW$173, DW_AT_low_pc(0x00)
TMS320C55x Assembler PC v4.4.1 Sat Sep 29 23:08:36 2018

Tools Copyright (c) 1996-2012 Texas Instruments Incorporated
csl_usb_intc_example.asm                                             PAGE   45

    1925                      .dwattr $C$DW$173, DW_AT_TI_call
    1926                      .dwattr $C$DW$173, DW_AT_TI_indirect
    1927 000660 9200          CALL AC0  ; |1024| 
    1928                                                      ; call occurs [AC0] ; |1024| 
    1929 000662 C41C          MOV T0, *SP(#14) ; |1024| 
    1930                      .dwpsn  file "F:/eZdsp_DBG/tmp1/c55x-sim2/foo/c5535_bsl_revc/ezdsp5535_v1/c55xx_csl/inc/csl_usbAux.h"
    1931 000664 4A08          B $C$L38  ; |1026| 
    1932                                                      ; branch occurs ; |1026| 
    1933 000666       $C$L36:    
    1934                      .dwpsn  file "F:/eZdsp_DBG/tmp1/c55x-sim2/foo/c5535_bsl_revc/ezdsp5535_v1/c55xx_csl/inc/csl_usbAux.h"
    1935 000666 E61C          MOV #-6, *SP(#14) ; |1029| 
         000668 FA   
    1936                      .dwpsn  file "F:/eZdsp_DBG/tmp1/c55x-sim2/foo/c5535_bsl_revc/ezdsp5535_v1/c55xx_csl/inc/csl_usbAux.h"
    1937 000669 4A03          B $C$L38  ; |1031| 
    1938                                                      ; branch occurs ; |1031| 
    1939 00066b       $C$L37:    
    1940                      .dwpsn  file "F:/eZdsp_DBG/tmp1/c55x-sim2/foo/c5535_bsl_revc/ezdsp5535_v1/c55xx_csl/inc/csl_usbAux.h"
    1941 00066b E61C          MOV #-6, *SP(#14) ; |1034| 
         00066d FA   
    1942 00066e       $C$L38:    
    1943                      .dwpsn  file "F:/eZdsp_DBG/tmp1/c55x-sim2/foo/c5535_bsl_revc/ezdsp5535_v1/c55xx_csl/inc/csl_usbAux.h"
    1944 00066e A41C          MOV *SP(#14), T0 ; |1037| 
    1945                      .dwpsn  file "F:/eZdsp_DBG/tmp1/c55x-sim2/foo/c5535_bsl_revc/ezdsp5535_v1/c55xx_csl/inc/csl_usbAux.h"
    1946 000670 4E15          AADD #21, SP
    1947                      .dwcfi  cfa_offset, 1
    1948              $C$DW$174       .dwtag  DW_TAG_TI_branch
    1949                      .dwattr $C$DW$174, DW_AT_low_pc(0x00)
    1950                      .dwattr $C$DW$174, DW_AT_TI_return
    1951 000672 4804          RET
    1952                                                      ; return occurs
    1953              
    1954              $C$DW$175       .dwtag  DW_TAG_TI_loop
    1955                      .dwattr $C$DW$175, DW_AT_name("F:\eZdsp_DBG\tmp1\c55x-sim2\foo\Debug\csl_usb_intc_example.asm:$C$L30:
    1956                      .dwattr $C$DW$175, DW_AT_TI_begin_file("F:/eZdsp_DBG/tmp1/c55x-sim2/foo/c5535_bsl_revc/ezdsp5535_v1/c
    1957                      .dwattr $C$DW$175, DW_AT_TI_begin_line(0x3d1)
    1958                      .dwattr $C$DW$175, DW_AT_TI_end_line(0x3d4)
    1959              $C$DW$176       .dwtag  DW_TAG_TI_loop_range
    1960                      .dwattr $C$DW$176, DW_AT_low_pc($C$DW$L$_USB_handleTx$19$B)
    1961                      .dwattr $C$DW$176, DW_AT_high_pc($C$DW$L$_USB_handleTx$19$E)
    1962                      .dwendtag $C$DW$175
    1963              
    1964                      .dwattr $C$DW$156, DW_AT_TI_end_file("F:/eZdsp_DBG/tmp1/c55x-sim2/foo/c5535_bsl_revc/ezdsp5535_v1/c55
    1965                      .dwattr $C$DW$156, DW_AT_TI_end_line(0x40e)
    1966                      .dwattr $C$DW$156, DW_AT_TI_end_column(0x01)
    1967                      .dwendentry
    1968                      .dwendtag $C$DW$156
    1969              
    1970 000674               .sect   ".text"
    1971                      .align 4
    1972              
    1973              $C$DW$177       .dwtag  DW_TAG_subprogram, DW_AT_name("USB_handleRx")
    1974                      .dwattr $C$DW$177, DW_AT_low_pc(_USB_handleRx)
    1975                      .dwattr $C$DW$177, DW_AT_high_pc(0x00)
    1976                      .dwattr $C$DW$177, DW_AT_TI_symbol_name("_USB_handleRx")
    1977                      .dwattr $C$DW$177, DW_AT_type(*$C$DW$T$80)
TMS320C55x Assembler PC v4.4.1 Sat Sep 29 23:08:36 2018

Tools Copyright (c) 1996-2012 Texas Instruments Incorporated
csl_usb_intc_example.asm                                             PAGE   46

    1978                      .dwattr $C$DW$177, DW_AT_TI_begin_file("F:/eZdsp_DBG/tmp1/c55x-sim2/foo/c5535_bsl_revc/ezdsp5535_v1/c
    1979                      .dwattr $C$DW$177, DW_AT_TI_begin_line(0x453)
    1980                      .dwattr $C$DW$177, DW_AT_TI_begin_column(0x0c)
    1981                      .dwattr $C$DW$177, DW_AT_TI_max_frame_size(0x16)
    1982                      .dwpsn  file "F:/eZdsp_DBG/tmp1/c55x-sim2/foo/c5535_bsl_revc/ezdsp5535_v1/c55xx_csl/inc/csl_usbAux.h"
    1983              
    1984                      .dwfde $C$DW$CIE, _USB_handleRx
    1985              $C$DW$178       .dwtag  DW_TAG_formal_parameter, DW_AT_name("pContext")
    1986                      .dwattr $C$DW$178, DW_AT_TI_symbol_name("_pContext")
    1987                      .dwattr $C$DW$178, DW_AT_type(*$C$DW$T$146)
    1988                      .dwattr $C$DW$178, DW_AT_location[DW_OP_reg17]
    1989              $C$DW$179       .dwtag  DW_TAG_formal_parameter, DW_AT_name("dwEndpoint")
    1990                      .dwattr $C$DW$179, DW_AT_TI_symbol_name("_dwEndpoint")
    1991                      .dwattr $C$DW$179, DW_AT_type(*$C$DW$T$88)
    1992                      .dwattr $C$DW$179, DW_AT_location[DW_OP_reg0]
    1993              ;*******************************************************************************
    1994              ;* FUNCTION NAME: USB_handleRx                                                 *
    1995              ;*                                                                             *
    1996              ;*   Function Uses Regs : AC0,AC0,AC1,AC1,T0,AR0,XAR0,AR1,XAR1,AR2,XAR2,AR3,   *
    1997              ;*                        XAR3,SP,CARRY,TC1,M40,SATA,SATD,RDM,FRCT,SMUL        *
    1998              ;*   Stack Frame        : Compact (No Frame Pointer, w/ debug)                 *
    1999              ;*   Total Frame Size   : 22 words                                             *
    2000              ;*                        (2 return address/alignment)                         *
    2001              ;*                        (20 local values)                                    *
    2002              ;*   Min System Stack   : 1 word                                               *
    2003              ;*******************************************************************************
    2004 000674       _USB_handleRx:
    2005                      .dwcfi  cfa_offset, 1
    2006                      .dwcfi  save_reg_to_mem, 91, -1
    2007 000674 4EEB          AADD #-21, SP
    2008                      .dwcfi  cfa_offset, 22
    2009              $C$DW$180       .dwtag  DW_TAG_variable, DW_AT_name("pContext")
    2010                      .dwattr $C$DW$180, DW_AT_TI_symbol_name("_pContext")
    2011                      .dwattr $C$DW$180, DW_AT_type(*$C$DW$T$146)
    2012                      .dwattr $C$DW$180, DW_AT_location[DW_OP_bregx 0x24 0]
    2013              $C$DW$181       .dwtag  DW_TAG_variable, DW_AT_name("dwEndpoint")
    2014                      .dwattr $C$DW$181, DW_AT_TI_symbol_name("_dwEndpoint")
    2015                      .dwattr $C$DW$181, DW_AT_type(*$C$DW$T$88)
    2016                      .dwattr $C$DW$181, DW_AT_location[DW_OP_bregx 0x24 2]
    2017              $C$DW$182       .dwtag  DW_TAG_variable, DW_AT_name("cbToRead")
    2018                      .dwattr $C$DW$182, DW_AT_TI_symbol_name("_cbToRead")
    2019                      .dwattr $C$DW$182, DW_AT_type(*$C$DW$T$88)
    2020                      .dwattr $C$DW$182, DW_AT_location[DW_OP_bregx 0x24 4]
    2021              $C$DW$183       .dwtag  DW_TAG_variable, DW_AT_name("cbBuffer")
    2022                      .dwattr $C$DW$183, DW_AT_TI_symbol_name("_cbBuffer")
    2023                      .dwattr $C$DW$183, DW_AT_type(*$C$DW$T$88)
    2024                      .dwattr $C$DW$183, DW_AT_location[DW_OP_bregx 0x24 6]
    2025              $C$DW$184       .dwtag  DW_TAG_variable, DW_AT_name("dwBytesRead")
    2026                      .dwattr $C$DW$184, DW_AT_TI_symbol_name("_dwBytesRead")
    2027                      .dwattr $C$DW$184, DW_AT_type(*$C$DW$T$88)
    2028                      .dwattr $C$DW$184, DW_AT_location[DW_OP_bregx 0x24 8]
    2029              $C$DW$185       .dwtag  DW_TAG_variable, DW_AT_name("pwBuffer")
    2030                      .dwattr $C$DW$185, DW_AT_TI_symbol_name("_pwBuffer")
    2031                      .dwattr $C$DW$185, DW_AT_type(*$C$DW$T$87)
    2032                      .dwattr $C$DW$185, DW_AT_location[DW_OP_bregx 0x24 10]
TMS320C55x Assembler PC v4.4.1 Sat Sep 29 23:08:36 2018

Tools Copyright (c) 1996-2012 Texas Instruments Incorporated
csl_usb_intc_example.asm                                             PAGE   47

    2033              $C$DW$186       .dwtag  DW_TAG_variable, DW_AT_name("pTransfer")
    2034                      .dwattr $C$DW$186, DW_AT_TI_symbol_name("_pTransfer")
    2035                      .dwattr $C$DW$186, DW_AT_type(*$C$DW$T$152)
    2036                      .dwattr $C$DW$186, DW_AT_location[DW_OP_bregx 0x24 12]
    2037              $C$DW$187       .dwtag  DW_TAG_variable, DW_AT_name("status")
    2038                      .dwattr $C$DW$187, DW_AT_TI_symbol_name("_status")
    2039                      .dwattr $C$DW$187, DW_AT_type(*$C$DW$T$80)
    2040                      .dwattr $C$DW$187, DW_AT_location[DW_OP_bregx 0x24 14]
    2041              $C$DW$188       .dwtag  DW_TAG_variable, DW_AT_name("saveIndex")
    2042                      .dwattr $C$DW$188, DW_AT_TI_symbol_name("_saveIndex")
    2043                      .dwattr $C$DW$188, DW_AT_type(*$C$DW$T$19)
    2044                      .dwattr $C$DW$188, DW_AT_location[DW_OP_bregx 0x24 15]
    2045              $C$DW$189       .dwtag  DW_TAG_variable, DW_AT_name("peps")
    2046                      .dwattr $C$DW$189, DW_AT_TI_symbol_name("_peps")
    2047                      .dwattr $C$DW$189, DW_AT_type(*$C$DW$T$150)
    2048                      .dwattr $C$DW$189, DW_AT_location[DW_OP_bregx 0x24 16]
    2049              $C$DW$190       .dwtag  DW_TAG_variable, DW_AT_name("count")
    2050                      .dwattr $C$DW$190, DW_AT_TI_symbol_name("_count")
    2051                      .dwattr $C$DW$190, DW_AT_type(*$C$DW$T$20)
    2052                      .dwattr $C$DW$190, DW_AT_location[DW_OP_bregx 0x24 18]
    2053              $C$DW$191       .dwtag  DW_TAG_variable, DW_AT_name("pFifoAddr")
    2054                      .dwattr $C$DW$191, DW_AT_TI_symbol_name("_pFifoAddr")
    2055                      .dwattr $C$DW$191, DW_AT_type(*$C$DW$T$195)
    2056                      .dwattr $C$DW$191, DW_AT_location[DW_OP_bregx 0x24 19]
    2057 000676 EB04          MOV AC0, dbl(*SP(#2)) ; |1109| 
         000678 08   
    2058 000679 EB00          MOV XAR0, dbl(*SP(#0))
         00067b 85   
    2059                      .dwpsn  file "F:/eZdsp_DBG/tmp1/c55x-sim2/foo/c5535_bsl_revc/ezdsp5535_v1/c55xx_csl/inc/csl_usbAux.h"
    2060 00067c E61C          MOV #0, *SP(#14) ; |1121| 
         00067e 00   
    2061                      .dwpsn  file "F:/eZdsp_DBG/tmp1/c55x-sim2/foo/c5535_bsl_revc/ezdsp5535_v1/c55xx_csl/inc/csl_usbAux.h"
    2062 00067f 3C00          MOV #0, AC0 ; |1122| 
    2063 000681 EB10          MOV AC0, dbl(*SP(#8)) ; |1122| 
         000683 08   
    2064                      .dwpsn  file "F:/eZdsp_DBG/tmp1/c55x-sim2/foo/c5535_bsl_revc/ezdsp5535_v1/c55xx_csl/inc/csl_usbAux.h"
    2065 000684 ED00          MOV dbl(*SP(#0)), XAR3
         000686 BF   
    2066 000687 90B0          MOV XAR3, AC0
    2067 000689 6D00          BCC $C$L51,AC0 == #0 ; |1124| 
         00068b 0221 
    2068                                                      ; branchcc occurs ; |1124| 
    2069                      .dwpsn  file "F:/eZdsp_DBG/tmp1/c55x-sim2/foo/c5535_bsl_revc/ezdsp5535_v1/c55xx_csl/inc/csl_usbAux.h"
    2070 00068d ED6D          MOV dbl(*AR3(#98)), XAR3
         00068f BF00 
         000691 62   
    2071 000692 F806          MPYMK *SP(#3), #18, AC0 ; |1126| 
         000694 1200 
    2072 000696 2209          MOV AC0, AR1 ; |1126| 
    2073              
    2074 000698 8E20          MOV XAR3, dbl(*SP(#16))
         00069a BB10 
         00069c B590 
    2075              ||      AADD AR1, AR3 ; |1126| 
    2076              
TMS320C55x Assembler PC v4.4.1 Sat Sep 29 23:08:36 2018

Tools Copyright (c) 1996-2012 Texas Instruments Incorporated
csl_usb_intc_example.asm                                             PAGE   48

    2077                      .dwpsn  file "F:/eZdsp_DBG/tmp1/c55x-sim2/foo/c5535_bsl_revc/ezdsp5535_v1/c55xx_csl/inc/csl_usbAux.h"
    2078 00069e ED6D          MOV dbl(*AR3(#10)), XAR3
         0006a0 BF00 
         0006a2 0A   
    2079 0006a3 EB18          MOV XAR3, dbl(*SP(#12))
         0006a5 B5   
    2080                      .dwpsn  file "F:/eZdsp_DBG/tmp1/c55x-sim2/foo/c5535_bsl_revc/ezdsp5535_v1/c55xx_csl/inc/csl_usbAux.h"
    2081 0006a6 90B0          MOV XAR3, AC0
    2082 0006a8 6D00          BCC $C$L50,AC0 == #0 ; |1129| 
         0006aa 01FD 
    2083                                                      ; branchcc occurs ; |1129| 
    2084 0006ac A96D          MOV *AR3(#12), AR1 ; |1129| 
         0006ae 000C 
    2085 0006b0 6D19          BCC $C$L50,AR1 != #0 ; |1129| 
         0006b2 01F5 
    2086                                                      ; branchcc occurs ; |1129| 
    2087                      .dwpsn  file "F:/eZdsp_DBG/tmp1/c55x-sim2/foo/c5535_bsl_revc/ezdsp5535_v1/c55xx_csl/inc/csl_usbAux.h"
    2088 0006b4 ED6D          MOV dbl(*AR3(#8)), AC0 ; |1131| 
         0006b6 0800 
         0006b8 08   
    2089 0006b9 ED7D          SUB AC0, dbl(*AR3(short(#6))), AC0 ; |1131| 
         0006bb 04   
    2090 0006bc EB0C          MOV AC0, dbl(*SP(#6)) ; |1131| 
         0006be 08   
    2091                      .dwpsn  file "F:/eZdsp_DBG/tmp1/c55x-sim2/foo/c5535_bsl_revc/ezdsp5535_v1/c55xx_csl/inc/csl_usbAux.h"
    2092 0006bf ED18          MOV dbl(*SP(#12)), XAR3
         0006c1 BF   
    2093 0006c2 ED6D          MOV dbl(*AR3(#8)), AC0 ; |1132| 
         0006c4 0800 
         0006c6 08   
    2094 0006c7 5001          SFTL AC0, #-1 ; |1132| 
    2095 0006c9 2209          MOV AC0, AR1 ; |1132| 
    2096 0006cb ED79          MOV dbl(*AR3(short(#4))), XAR3
         0006cd BF   
    2097              
    2098 0006ce 8E14          MOV XAR3, dbl(*SP(#10))
         0006d0 BB10 
         0006d2 B590 
    2099              ||      AADD AR1, AR3 ; |1132| 
    2100              
    2101                      .dwpsn  file "F:/eZdsp_DBG/tmp1/c55x-sim2/foo/c5535_bsl_revc/ezdsp5535_v1/c55xx_csl/inc/csl_usbAux.h"
    2102 0006d4 ED20          MOV dbl(*SP(#16)), XAR3
         0006d6 BF   
    2103 0006d7 A96D          MOV *AR3(#9), AR1 ; |1133| 
         0006d9 0009 
    2104 0006db C926          MOV AR1, *SP(#19) ; |1133| 
    2105                      .dwpsn  file "F:/eZdsp_DBG/tmp1/c55x-sim2/foo/c5535_bsl_revc/ezdsp5535_v1/c55xx_csl/inc/csl_usbAux.h"
    2106 0006dd ED20          MOV dbl(*SP(#16)), XAR3
         0006df BF   
    2107 0006e0 ED0C          MOV dbl(*SP(#6)), AC1 ; |1136| 
         0006e2 18   
    2108 0006e3 ED79          MOV dbl(*AR3(short(#4))), AC0 ; |1136| 
         0006e5 08   
    2109 0006e6 1218          CMPU AC1 >= AC0, TC1 ; |1136| 
         0006e8 04   
TMS320C55x Assembler PC v4.4.1 Sat Sep 29 23:08:36 2018

Tools Copyright (c) 1996-2012 Texas Instruments Incorporated
csl_usb_intc_example.asm                                             PAGE   49

    2110 0006e9 62E4          BCC $C$L39,TC1 ; |1136| 
    2111                                                      ; branchcc occurs ; |1136| 
    2112 0006eb ED0C          MOV dbl(*SP(#6)), AC0 ; |1136| 
         0006ed 08   
    2113 0006ee 4A03          B $C$L40  ; |1136| 
    2114                                                      ; branch occurs ; |1136| 
    2115 0006f0       $C$L39:    
    2116 0006f0 ED79          MOV dbl(*AR3(short(#4))), AC0 ; |1136| 
         0006f2 08   
    2117 0006f3       $C$L40:    
    2118 0006f3 EB08          MOV AC0, dbl(*SP(#4)) ; |1136| 
         0006f5 08   
    2119                      .dwpsn  file "F:/eZdsp_DBG/tmp1/c55x-sim2/foo/c5535_bsl_revc/ezdsp5535_v1/c55xx_csl/inc/csl_usbAux.h"
    2120 0006f6 7602          MOV #512, AC0 ; |1138| 
         0006f8 0008 
    2121 0006fa ED08          MOV dbl(*SP(#4)), AC1 ; |1138| 
         0006fc 18   
    2122 0006fd 1210          CMPU AC1 == AC0, TC1 ; |1138| 
         0006ff 04   
    2123 000700 66E4          BCC $C$L41,TC1 ; |1138| 
    2124                                                      ; branchcc occurs ; |1138| 
    2125 000702 7600          MOV #64, AC0 ; |1138| 
         000704 4008 
    2126 000706 ED08          MOV dbl(*SP(#4)), AC1 ; |1138| 
         000708 18   
    2127 000709 121C          CMPU AC1 != AC0, TC1 ; |1138| 
         00070b 04   
    2128 00070c 0464          BCC $C$L43,TC1 ; |1138| 
         00070e 5B   
    2129                                                      ; branchcc occurs ; |1138| 
    2130 00070f       $C$L41:    
    2131 00070f ED00          MOV dbl(*SP(#0)), XAR3
         000711 BF   
    2132 000712 F061          CMP *AR3 == #1, TC1 ; |1138| 
         000714 0001 
    2133 000716 0474          BCC $C$L43,!TC1 ; |1138| 
         000718 51   
    2134                                                      ; branchcc occurs ; |1138| 
    2135                      .dwpsn  file "F:/eZdsp_DBG/tmp1/c55x-sim2/foo/c5535_bsl_revc/ezdsp5535_v1/c55xx_csl/inc/csl_usbAux.h"
    2136 000719 ED18          MOV dbl(*SP(#12)), XAR3
         00071b BF   
    2137 00071c ED08          MOV dbl(*SP(#4)), AC0 ; |1141| 
         00071e 08   
    2138 00071f ED6D          ADD dbl(*AR3(#8)), AC0, AC0 ; |1141| 
         000721 0000 
         000723 08   
    2139 000724 EB6D          MOV AC0, dbl(*AR3(#8)) ; |1141| 
         000726 0800 
         000728 08   
    2140                      .dwpsn  file "F:/eZdsp_DBG/tmp1/c55x-sim2/foo/c5535_bsl_revc/ezdsp5535_v1/c55xx_csl/inc/csl_usbAux.h"
    2141 000729 ED18          MOV dbl(*SP(#12)), XAR3
         00072b BF   
    2142 00072c ED08          MOV dbl(*SP(#4)), AC0 ; |1142| 
         00072e 08   
    2143 00072f EB6D          MOV AC0, dbl(*AR3(#10)) ; |1142| 
TMS320C55x Assembler PC v4.4.1 Sat Sep 29 23:08:36 2018

Tools Copyright (c) 1996-2012 Texas Instruments Incorporated
csl_usb_intc_example.asm                                             PAGE   50

         000731 0800 
         000733 0A   
    2144                      .dwpsn  file "F:/eZdsp_DBG/tmp1/c55x-sim2/foo/c5535_bsl_revc/ezdsp5535_v1/c55xx_csl/inc/csl_usbAux.h"
    2145 000734 ED04          MOV dbl(*SP(#2)), AC0 ; |1144| 
         000736 08   
    2146              $C$DW$192       .dwtag  DW_TAG_TI_branch
    2147                      .dwattr $C$DW$192, DW_AT_low_pc(0x00)
    2148                      .dwattr $C$DW$192, DW_AT_name("_USB_dmaRxStart")
    2149                      .dwattr $C$DW$192, DW_AT_TI_call
    2150 000737 08F8          CALL #_USB_dmaRxStart ; |1144| 
         000739 C6   
    2151                                                      ; call occurs [#_USB_dmaRxStart] ; |1144| 
    2152                      .dwpsn  file "F:/eZdsp_DBG/tmp1/c55x-sim2/foo/c5535_bsl_revc/ezdsp5535_v1/c55xx_csl/inc/csl_usbAux.h"
    2153 00073a ED18          MOV dbl(*SP(#12)), XAR3
         00073c BF   
    2154 00073d ED6D          MOV dbl(*AR3(#8)), AC1 ; |1146| 
         00073f 1800 
         000741 08   
    2155 000742 ED7D          MOV dbl(*AR3(short(#6))), AC0 ; |1146| 
         000744 08   
    2156 000745 121C          CMPU AC1 != AC0, TC1 ; |1146| 
         000747 04   
    2157 000748 65E4          BCC $C$L42,TC1 ; |1146| 
    2158                                                      ; branchcc occurs ; |1146| 
    2159                      .dwpsn  file "F:/eZdsp_DBG/tmp1/c55x-sim2/foo/c5535_bsl_revc/ezdsp5535_v1/c55xx_csl/inc/csl_usbAux.h"
    2160 00074a E66D          MOV #1, *AR3(#12) ; |1148| 
         00074c 0100 
         00074e 0C   
    2161                      .dwpsn  file "F:/eZdsp_DBG/tmp1/c55x-sim2/foo/c5535_bsl_revc/ezdsp5535_v1/c55xx_csl/inc/csl_usbAux.h"
    2162 00074f ED00          MOV dbl(*SP(#0)), XAR3
         000751 BF   
    2163 000752 E67D          MOV #0, *AR3(short(#6)) ; |1149| 
         000754 00   
    2164 000755       $C$L42:    
    2165                      .dwpsn  file "F:/eZdsp_DBG/tmp1/c55x-sim2/foo/c5535_bsl_revc/ezdsp5535_v1/c55xx_csl/inc/csl_usbAux.h"
    2166 000755 ED00          MOV dbl(*SP(#0)), XAR3
         000757 BF   
    2167 000758 ED00          MOV dbl(*SP(#0)), XAR0
         00075a 8F   
    2168 00075b ED20          MOV dbl(*SP(#16)), XAR1
         00075d 9F   
    2169 00075e ED6D          MOV dbl(*AR3(#116)), AC0 ; |1152| 
         000760 0800 
         000762 74   
    2170              $C$DW$193       .dwtag  DW_TAG_TI_branch
    2171                      .dwattr $C$DW$193, DW_AT_low_pc(0x00)
    2172                      .dwattr $C$DW$193, DW_AT_TI_call
    2173                      .dwattr $C$DW$193, DW_AT_TI_indirect
    2174 000763 9200          CALL AC0  ; |1152| 
    2175                                                      ; call occurs [AC0] ; |1152| 
    2176 000765 C41C          MOV T0, *SP(#14) ; |1152| 
    2177                      .dwpsn  file "F:/eZdsp_DBG/tmp1/c55x-sim2/foo/c5535_bsl_revc/ezdsp5535_v1/c55xx_csl/inc/csl_usbAux.h"
    2178 000767 0601          B $C$L52  ; |1153| 
         000769 47   
    2179                                                      ; branch occurs ; |1153| 
TMS320C55x Assembler PC v4.4.1 Sat Sep 29 23:08:36 2018

Tools Copyright (c) 1996-2012 Texas Instruments Incorporated
csl_usb_intc_example.asm                                             PAGE   51

    2180 00076a       $C$L43:    
    2181                      .dwpsn  file "F:/eZdsp_DBG/tmp1/c55x-sim2/foo/c5535_bsl_revc/ezdsp5535_v1/c55xx_csl/inc/csl_usbAux.h"
    2182 00076a ED08          MOV dbl(*SP(#4)), AC0 ; |1166| 
         00076c 08   
    2183 00076d 0400          BCC $C$L46,AC0 == #0 ; |1166| 
         00076f 78   
    2184                                                      ; branchcc occurs ; |1166| 
    2185                      .dwpsn  file "F:/eZdsp_DBG/tmp1/c55x-sim2/foo/c5535_bsl_revc/ezdsp5535_v1/c55xx_csl/inc/csl_usbAux.h"
    2186 000770 ED08          MOV dbl(*SP(#4)), AC0 ; |1169| 
         000772 08   
    2187 000773 EB10          MOV AC0, dbl(*SP(#8)) ; |1169| 
         000775 08   
    2188                      .dwpsn  file "F:/eZdsp_DBG/tmp1/c55x-sim2/foo/c5535_bsl_revc/ezdsp5535_v1/c55xx_csl/inc/csl_usbAux.h"
    2189 000776 E624          MOV #0, *SP(#18) ; |1171| 
         000778 00   
    2190 000779 20            NOP
    2191 00077a 20            NOP
    2192                      .dwpsn  file "F:/eZdsp_DBG/tmp1/c55x-sim2/foo/c5535_bsl_revc/ezdsp5535_v1/c55xx_csl/inc/csl_usbAux.h"
    2193 00077b ED08          MOV dbl(*SP(#4)), AC0 ; |1171| 
         00077d 08   
    2194              
    2195 000781 5101          SFTL AC0, #-1 ; |1171| 
    2196 00077e DF24  ||      MOV uns(*SP(#18)), AC1 ; |1171| 
         000780 15   
    2197              
    2198 000783 1218          CMPU AC1 >= AC0, TC1 ; |1171| 
         000785 04   
    2199 000786 0464          BCC $C$L45,TC1 ; |1171| 
         000788 26   
    2200                                                      ; branchcc occurs ; |1171| 
    2201 000789       $C$L44:    
    2202 000789       $C$DW$L$_USB_handleRx$15$B:
    2203                      .dwpsn  file "F:/eZdsp_DBG/tmp1/c55x-sim2/foo/c5535_bsl_revc/ezdsp5535_v1/c55xx_csl/inc/csl_usbAux.h"
    2204 000789 ED14          MOV dbl(*SP(#10)), XAR2
         00078b AF   
    2205 00078c EC41          AMAR *AR2, XAR3
         00078e BE   
    2206 00078f B463          AMAR *AR3+
    2207 000791 EB14          MOV XAR3, dbl(*SP(#10))
         000793 B5   
    2208 000794 AB26          MOV *SP(#19), AR3 ; |1173| 
    2209 000796 A961          MOV port(*AR3), AR1 ; |1173| 
         000798 99   
    2210 000799 C941          MOV AR1, *AR2 ; |1173| 
    2211                      .dwpsn  file "F:/eZdsp_DBG/tmp1/c55x-sim2/foo/c5535_bsl_revc/ezdsp5535_v1/c55xx_csl/inc/csl_usbAux.h"
    2212 00079b F724          ADD #1, *SP(#18) ; |1171| 
         00079d 0001 
    2213 00079f 20            NOP
    2214 0007a0 20            NOP
    2215                      .dwpsn  file "F:/eZdsp_DBG/tmp1/c55x-sim2/foo/c5535_bsl_revc/ezdsp5535_v1/c55xx_csl/inc/csl_usbAux.h"
    2216 0007a1 ED08          MOV dbl(*SP(#4)), AC0 ; |1171| 
         0007a3 08   
    2217              
    2218 0007a7 5101          SFTL AC0, #-1 ; |1171| 
    2219 0007a4 DF24  ||      MOV uns(*SP(#18)), AC1 ; |1171| 
TMS320C55x Assembler PC v4.4.1 Sat Sep 29 23:08:36 2018

Tools Copyright (c) 1996-2012 Texas Instruments Incorporated
csl_usb_intc_example.asm                                             PAGE   52

         0007a6 15   
    2220              
    2221 0007a9 1214          CMPU AC1 < AC0, TC1 ; |1171| 
         0007ab 04   
    2222 0007ac 0464          BCC $C$L44,TC1 ; |1171| 
         0007ae DA   
    2223                                                      ; branchcc occurs ; |1171| 
    2224 0007af       $C$DW$L$_USB_handleRx$15$E:
    2225 0007af       $C$L45:    
    2226                      .dwpsn  file "F:/eZdsp_DBG/tmp1/c55x-sim2/foo/c5535_bsl_revc/ezdsp5535_v1/c55xx_csl/inc/csl_usbAux.h"
    2227 0007af ED08          MOV dbl(*SP(#4)), AC0 ; |1176| 
         0007b1 08   
    2228 0007b2 1801          AND #0x0001, AC0, AC0 ; |1176| 
         0007b4 00   
    2229 0007b5 0400          BCC $C$L46,AC0 == #0 ; |1176| 
         0007b7 30   
    2230                                                      ; branchcc occurs ; |1176| 
    2231                      .dwpsn  file "F:/eZdsp_DBG/tmp1/c55x-sim2/foo/c5535_bsl_revc/ezdsp5535_v1/c55xx_csl/inc/csl_usbAux.h"
    2232 0007b8 7600          MOV #50, T0 ; |1179| 
         0007ba 3248 
    2233 0007bc AB31          MOV *(#_sysCtrlRegs), AR3 ; |1179| 
         0007be 0000 
         0007c0 00!  
    2234 0007c1 A96B          MOV port(*AR3(T0)), AR1 ; |1179| 
         0007c3 99   
    2235 0007c4 7DFF          AND #0xfffc, AR1, AC0 ; |1179| 
         0007c6 FC09 
    2236 0007c8 EC02          BSET @#1, AC0 ; |1179| 
         0007ca 00   
    2237 0007cb C06B          MOV AC0, port(*AR3(T0)) ; |1179| 
         0007cd 9A   
    2238                      .dwpsn  file "F:/eZdsp_DBG/tmp1/c55x-sim2/foo/c5535_bsl_revc/ezdsp5535_v1/c55xx_csl/inc/csl_usbAux.h"
    2239 0007ce AB26          MOV *SP(#19), AR3 ; |1181| 
    2240 0007d0 ED14          MOV dbl(*SP(#10)), XAR2
         0007d2 AF   
    2241 0007d3 DF61          MOV uns(low_byte(port(*AR3))), AR1 ; |1181| 
         0007d5 93   
         0007d6 99   
    2242 0007d7 C941          MOV AR1, *AR2 ; |1181| 
    2243                      .dwpsn  file "F:/eZdsp_DBG/tmp1/c55x-sim2/foo/c5535_bsl_revc/ezdsp5535_v1/c55xx_csl/inc/csl_usbAux.h"
    2244 0007d9 AB31          MOV *(#_sysCtrlRegs), AR3 ; |1184| 
         0007db 0000 
         0007dd 00!  
    2245 0007de A96B          MOV port(*AR3(T0)), AR1 ; |1184| 
         0007e0 99   
    2246 0007e1 7DFF          AND #0xfffc, AR1, AC0 ; |1184| 
         0007e3 FC09 
    2247 0007e5 C06B          MOV AC0, port(*AR3(T0)) ; |1184| 
         0007e7 9A   
    2248 0007e8       $C$L46:    
    2249                      .dwpsn  file "F:/eZdsp_DBG/tmp1/c55x-sim2/foo/c5535_bsl_revc/ezdsp5535_v1/c55xx_csl/inc/csl_usbAux.h"
    2250 0007e8 ED18          MOV dbl(*SP(#12)), XAR3
         0007ea BF   
    2251 0007eb ED10          MOV dbl(*SP(#8)), AC0 ; |1189| 
         0007ed 08   
TMS320C55x Assembler PC v4.4.1 Sat Sep 29 23:08:36 2018

Tools Copyright (c) 1996-2012 Texas Instruments Incorporated
csl_usb_intc_example.asm                                             PAGE   53

    2252 0007ee ED6D          ADD dbl(*AR3(#8)), AC0, AC0 ; |1189| 
         0007f0 0000 
         0007f2 08   
    2253 0007f3 EB6D          MOV AC0, dbl(*AR3(#8)) ; |1189| 
         0007f5 0800 
         0007f7 08   
    2254                      .dwpsn  file "F:/eZdsp_DBG/tmp1/c55x-sim2/foo/c5535_bsl_revc/ezdsp5535_v1/c55xx_csl/inc/csl_usbAux.h"
    2255 0007f8 ED18          MOV dbl(*SP(#12)), XAR3
         0007fa BF   
    2256 0007fb ED10          MOV dbl(*SP(#8)), AC0 ; |1190| 
         0007fd 08   
    2257 0007fe EB6D          MOV AC0, dbl(*AR3(#10)) ; |1190| 
         000800 0800 
         000802 0A   
    2258                      .dwpsn  file "F:/eZdsp_DBG/tmp1/c55x-sim2/foo/c5535_bsl_revc/ezdsp5535_v1/c55xx_csl/inc/csl_usbAux.h"
    2259 000803 ED18          MOV dbl(*SP(#12)), XAR3
         000805 BF   
    2260 000806 ED6D          MOV dbl(*AR3(#8)), AC1 ; |1192| 
         000808 1800 
         00080a 08   
    2261 00080b ED7D          MOV dbl(*AR3(short(#6))), AC0 ; |1192| 
         00080d 08   
    2262 00080e 1210          CMPU AC1 == AC0, TC1 ; |1192| 
         000810 04   
    2263 000811 62E4          BCC $C$L47,TC1 ; |1192| 
    2264                                                      ; branchcc occurs ; |1192| 
    2265 000813 ED10          MOV dbl(*SP(#8)), AC0 ; |1192| 
         000815 08   
    2266 000816 6290          BCC $C$L48,AC0 != #0 ; |1192| 
    2267                                                      ; branchcc occurs ; |1192| 
    2268 000818       $C$L47:    
    2269                      .dwpsn  file "F:/eZdsp_DBG/tmp1/c55x-sim2/foo/c5535_bsl_revc/ezdsp5535_v1/c55xx_csl/inc/csl_usbAux.h"
    2270 000818 E66D          MOV #1, *AR3(#12) ; |1195| 
         00081a 0100 
         00081c 0C   
    2271 00081d       $C$L48:    
    2272                      .dwpsn  file "F:/eZdsp_DBG/tmp1/c55x-sim2/foo/c5535_bsl_revc/ezdsp5535_v1/c55xx_csl/inc/csl_usbAux.h"
    2273 00081d 7604          MOV #1038, T0 ; |1199| 
         00081f 0E48 
    2274 000821 AB31          MOV *(#_usbRegisters), AR3 ; |1199| 
         000823 0000 
         000825 00!  
    2275 000826 A96B          MOV port(*AR3(T0)), AR1 ; |1199| 
         000828 99   
    2276 000829 C91E          MOV AR1, *SP(#15) ; |1199| 
    2277                      .dwpsn  file "F:/eZdsp_DBG/tmp1/c55x-sim2/foo/c5535_bsl_revc/ezdsp5535_v1/c55xx_csl/inc/csl_usbAux.h"
    2278 00082b A96B          MOV port(*AR3(T0)), AR1 ; |1201| 
         00082d 99   
    2279 00082e 7DFF          AND #0xfff0, AR1, AC0 ; |1201| 
         000830 F009 
    2280 000832 C06B          MOV AC0, port(*AR3(T0)) ; |1201| 
         000834 9A   
    2281                      .dwpsn  file "F:/eZdsp_DBG/tmp1/c55x-sim2/foo/c5535_bsl_revc/ezdsp5535_v1/c55xx_csl/inc/csl_usbAux.h"
    2282 000835 AB31          MOV *(#_usbRegisters), AR3 ; |1205| 
         000837 0000 
TMS320C55x Assembler PC v4.4.1 Sat Sep 29 23:08:36 2018

Tools Copyright (c) 1996-2012 Texas Instruments Incorporated
csl_usb_intc_example.asm                                             PAGE   54

         000839 00!  
    2283 00083a ED04          MOV dbl(*SP(#2)), AC0 ; |1205| 
         00083c 08   
    2284 00083d 180F          AND #0x000f, AC0, AC0 ; |1205| 
         00083f 00   
    2285 000840 A96B          MOV port(*AR3(T0)), AR1 ; |1205| 
         000842 99   
    2286 000843 7DFF          AND #0xfff0, AR1, AC1 ; |1205| 
         000845 F019 
    2287 000847 2A10          OR AC1, AC0 ; |1205| 
    2288 000849 C06B          MOV AC0, port(*AR3(T0)) ; |1205| 
         00084b 9A   
    2289                      .dwpsn  file "F:/eZdsp_DBG/tmp1/c55x-sim2/foo/c5535_bsl_revc/ezdsp5535_v1/c55xx_csl/inc/csl_usbAux.h"
    2290 00084c ED20          MOV dbl(*SP(#16)), XAR3
         00084e BF   
    2291 00084f F075          CMP *AR3(short(#2)) == #3, TC1 ; |1208| 
         000851 0003 
    2292 000853 6774          BCC $C$L49,!TC1 ; |1208| 
    2293                                                      ; branchcc occurs ; |1208| 
    2294                      .dwpsn  file "F:/eZdsp_DBG/tmp1/c55x-sim2/foo/c5535_bsl_revc/ezdsp5535_v1/c55xx_csl/inc/csl_usbAux.h"
    2295 000855 7604          MOV #1046, T0 ; |1211| 
         000857 1648 
    2296 000859 AB31          MOV *(#_usbRegisters), AR3 ; |1211| 
         00085b 0000 
         00085d 00!  
    2297 00085e F56B          OR #0x0080, port(*AR3(T0)) ; |1211| 
         000860 0080 
         000862 9A   
    2298 000863       $C$L49:    
    2299                      .dwpsn  file "F:/eZdsp_DBG/tmp1/c55x-sim2/foo/c5535_bsl_revc/ezdsp5535_v1/c55xx_csl/inc/csl_usbAux.h"
    2300 000863 7604          MOV #1046, T0 ; |1215| 
         000865 1648 
    2301 000867 AB31          MOV *(#_usbRegisters), AR3 ; |1215| 
         000869 0000 
         00086b 00!  
    2302 00086c A96B          MOV port(*AR3(T0)), AR1 ; |1215| 
         00086e 99   
    2303 00086f EC00          BCLR @#0, AR1 ; |1215| 
         000871 92   
    2304 000872 C96B          MOV AR1, port(*AR3(T0)) ; |1215| 
         000874 9A   
    2305                      .dwpsn  file "F:/eZdsp_DBG/tmp1/c55x-sim2/foo/c5535_bsl_revc/ezdsp5535_v1/c55xx_csl/inc/csl_usbAux.h"
    2306 000875 7604          MOV #1038, T0 ; |1219| 
         000877 0E48 
    2307 000879 AB31          MOV *(#_usbRegisters), AR3 ; |1219| 
         00087b 0000 
         00087d 00!  
    2308 00087e A91E          MOV *SP(#15), AR1 ; |1219| 
    2309 000880 C96B          MOV AR1, port(*AR3(T0)) ; |1219| 
         000882 9A   
    2310                      .dwpsn  file "F:/eZdsp_DBG/tmp1/c55x-sim2/foo/c5535_bsl_revc/ezdsp5535_v1/c55xx_csl/inc/csl_usbAux.h"
    2311 000883 ED18          MOV dbl(*SP(#12)), XAR3
         000885 BF   
    2312 000886 F06D          CMP *AR3(#12) == #1, TC1 ; |1221| 
         000888 0001 
TMS320C55x Assembler PC v4.4.1 Sat Sep 29 23:08:36 2018

Tools Copyright (c) 1996-2012 Texas Instruments Incorporated
csl_usb_intc_example.asm                                             PAGE   55

         00088a 000C 
    2313 00088c 0474          BCC $C$L52,!TC1 ; |1221| 
         00088e 22   
    2314                                                      ; branchcc occurs ; |1221| 
    2315                      .dwpsn  file "F:/eZdsp_DBG/tmp1/c55x-sim2/foo/c5535_bsl_revc/ezdsp5535_v1/c55xx_csl/inc/csl_usbAux.h"
    2316 00088f ED00          MOV dbl(*SP(#0)), XAR3
         000891 BF   
    2317 000892 E67D          MOV #0, *AR3(short(#6)) ; |1223| 
         000894 00   
    2318                      .dwpsn  file "F:/eZdsp_DBG/tmp1/c55x-sim2/foo/c5535_bsl_revc/ezdsp5535_v1/c55xx_csl/inc/csl_usbAux.h"
    2319 000895 ED00          MOV dbl(*SP(#0)), XAR3
         000897 BF   
    2320 000898 ED00          MOV dbl(*SP(#0)), XAR0
         00089a 8F   
    2321 00089b ED20          MOV dbl(*SP(#16)), XAR1
         00089d 9F   
    2322 00089e ED6D          MOV dbl(*AR3(#116)), AC0 ; |1234| 
         0008a0 0800 
         0008a2 74   
    2323              $C$DW$194       .dwtag  DW_TAG_TI_branch
    2324                      .dwattr $C$DW$194, DW_AT_low_pc(0x00)
    2325                      .dwattr $C$DW$194, DW_AT_TI_call
    2326                      .dwattr $C$DW$194, DW_AT_TI_indirect
    2327 0008a3 9200          CALL AC0  ; |1234| 
    2328                                                      ; call occurs [AC0] ; |1234| 
    2329 0008a5 C41C          MOV T0, *SP(#14) ; |1234| 
    2330                      .dwpsn  file "F:/eZdsp_DBG/tmp1/c55x-sim2/foo/c5535_bsl_revc/ezdsp5535_v1/c55xx_csl/inc/csl_usbAux.h"
    2331 0008a7 4A08          B $C$L52  ; |1237| 
    2332                                                      ; branch occurs ; |1237| 
    2333 0008a9       $C$L50:    
    2334                      .dwpsn  file "F:/eZdsp_DBG/tmp1/c55x-sim2/foo/c5535_bsl_revc/ezdsp5535_v1/c55xx_csl/inc/csl_usbAux.h"
    2335 0008a9 E61C          MOV #-6, *SP(#14) ; |1240| 
         0008ab FA   
    2336                      .dwpsn  file "F:/eZdsp_DBG/tmp1/c55x-sim2/foo/c5535_bsl_revc/ezdsp5535_v1/c55xx_csl/inc/csl_usbAux.h"
    2337 0008ac 4A03          B $C$L52  ; |1242| 
    2338                                                      ; branch occurs ; |1242| 
    2339 0008ae       $C$L51:    
    2340                      .dwpsn  file "F:/eZdsp_DBG/tmp1/c55x-sim2/foo/c5535_bsl_revc/ezdsp5535_v1/c55xx_csl/inc/csl_usbAux.h"
    2341 0008ae E61C          MOV #-6, *SP(#14) ; |1245| 
         0008b0 FA   
    2342 0008b1       $C$L52:    
    2343                      .dwpsn  file "F:/eZdsp_DBG/tmp1/c55x-sim2/foo/c5535_bsl_revc/ezdsp5535_v1/c55xx_csl/inc/csl_usbAux.h"
    2344 0008b1 A41C          MOV *SP(#14), T0 ; |1248| 
    2345                      .dwpsn  file "F:/eZdsp_DBG/tmp1/c55x-sim2/foo/c5535_bsl_revc/ezdsp5535_v1/c55xx_csl/inc/csl_usbAux.h"
    2346 0008b3 4E15          AADD #21, SP
    2347                      .dwcfi  cfa_offset, 1
    2348              $C$DW$195       .dwtag  DW_TAG_TI_branch
    2349                      .dwattr $C$DW$195, DW_AT_low_pc(0x00)
    2350                      .dwattr $C$DW$195, DW_AT_TI_return
    2351 0008b5 4804          RET
    2352                                                      ; return occurs
    2353              
    2354              $C$DW$196       .dwtag  DW_TAG_TI_loop
    2355                      .dwattr $C$DW$196, DW_AT_name("F:\eZdsp_DBG\tmp1\c55x-sim2\foo\Debug\csl_usb_intc_example.asm:$C$L44:
    2356                      .dwattr $C$DW$196, DW_AT_TI_begin_file("F:/eZdsp_DBG/tmp1/c55x-sim2/foo/c5535_bsl_revc/ezdsp5535_v1/c
TMS320C55x Assembler PC v4.4.1 Sat Sep 29 23:08:36 2018

Tools Copyright (c) 1996-2012 Texas Instruments Incorporated
csl_usb_intc_example.asm                                             PAGE   56

    2357                      .dwattr $C$DW$196, DW_AT_TI_begin_line(0x493)
    2358                      .dwattr $C$DW$196, DW_AT_TI_end_line(0x496)
    2359              $C$DW$197       .dwtag  DW_TAG_TI_loop_range
    2360                      .dwattr $C$DW$197, DW_AT_low_pc($C$DW$L$_USB_handleRx$15$B)
    2361                      .dwattr $C$DW$197, DW_AT_high_pc($C$DW$L$_USB_handleRx$15$E)
    2362                      .dwendtag $C$DW$196
    2363              
    2364                      .dwattr $C$DW$177, DW_AT_TI_end_file("F:/eZdsp_DBG/tmp1/c55x-sim2/foo/c5535_bsl_revc/ezdsp5535_v1/c55
    2365                      .dwattr $C$DW$177, DW_AT_TI_end_line(0x4e1)
    2366                      .dwattr $C$DW$177, DW_AT_TI_end_column(0x01)
    2367                      .dwendentry
    2368                      .dwendtag $C$DW$177
    2369              
    2370 0008b7               .sect   ".text"
    2371                      .align 4
    2372                      .global _main
    2373              
    2374              $C$DW$198       .dwtag  DW_TAG_subprogram, DW_AT_name("main")
    2375                      .dwattr $C$DW$198, DW_AT_low_pc(_main)
    2376                      .dwattr $C$DW$198, DW_AT_high_pc(0x00)
    2377                      .dwattr $C$DW$198, DW_AT_TI_symbol_name("_main")
    2378                      .dwattr $C$DW$198, DW_AT_external
    2379                      .dwattr $C$DW$198, DW_AT_TI_begin_file("../c5535_bsl_revc/ezdsp5535_v1/c55xx_csl/ccs_v4.0_examples/us
    2380                      .dwattr $C$DW$198, DW_AT_TI_begin_line(0xd3)
    2381                      .dwattr $C$DW$198, DW_AT_TI_begin_column(0x06)
    2382                      .dwattr $C$DW$198, DW_AT_TI_max_frame_size(0x04)
    2383                      .dwpsn  file "../c5535_bsl_revc/ezdsp5535_v1/c55xx_csl/ccs_v4.0_examples/usb/CSL_USB_IntcExample/csl_
    2384              
    2385                      .dwfde $C$DW$CIE, _main
    2386              ;*******************************************************************************
    2387              ;* FUNCTION NAME: main                                                         *
    2388              ;*                                                                             *
    2389              ;*   Function Uses Regs : T0,AR1,AR3,XAR3,SP,M40,SATA,SATD,RDM,FRCT,SMUL       *
    2390              ;*   Stack Frame        : Compact (No Frame Pointer, w/ debug)                 *
    2391              ;*   Total Frame Size   : 4 words                                              *
    2392              ;*                        (1 return address/alignment)                         *
    2393              ;*                        (2 function parameters)                              *
    2394              ;*                        (1 local values)                                     *
    2395              ;*   Min System Stack   : 1 word                                               *
    2396              ;*******************************************************************************
    2397 0008b8       _main:
    2398                      .dwcfi  cfa_offset, 1
    2399                      .dwcfi  save_reg_to_mem, 91, -1
    2400 0008b8 4EFD          AADD #-3, SP
    2401                      .dwcfi  cfa_offset, 4
    2402              $C$DW$199       .dwtag  DW_TAG_variable, DW_AT_name("result")
    2403                      .dwattr $C$DW$199, DW_AT_TI_symbol_name("_result")
    2404                      .dwattr $C$DW$199, DW_AT_type(*$C$DW$T$80)
    2405                      .dwattr $C$DW$199, DW_AT_location[DW_OP_bregx 0x24 2]
    2406                      .dwpsn  file "../c5535_bsl_revc/ezdsp5535_v1/c55xx_csl/ccs_v4.0_examples/usb/CSL_USB_IntcExample/csl_
    2407 0008ba EC31          AMOV #$C$FSL1, XAR3 ; |215| 
         0008bc BE00 
         0008be 0000+
    2408 0008c0 EB00          MOV XAR3, dbl(*SP(#0))
         0008c2 B5   
TMS320C55x Assembler PC v4.4.1 Sat Sep 29 23:08:36 2018

Tools Copyright (c) 1996-2012 Texas Instruments Incorporated
csl_usb_intc_example.asm                                             PAGE   57

    2409              $C$DW$200       .dwtag  DW_TAG_TI_branch
    2410                      .dwattr $C$DW$200, DW_AT_low_pc(0x00)
    2411                      .dwattr $C$DW$200, DW_AT_name("_printf")
    2412                      .dwattr $C$DW$200, DW_AT_TI_call
    2413 0008c3 6C00          CALL #_printf ; |215| 
         0008c5 0000!
    2414                                                      ; call occurs [#_printf] ; |215| 
    2415                      .dwpsn  file "../c5535_bsl_revc/ezdsp5535_v1/c55xx_csl/ccs_v4.0_examples/usb/CSL_USB_IntcExample/csl_
    2416              $C$DW$201       .dwtag  DW_TAG_TI_branch
    2417                      .dwattr $C$DW$201, DW_AT_low_pc(0x00)
    2418                      .dwattr $C$DW$201, DW_AT_name("_CSL_usbIntcTest")
    2419                      .dwattr $C$DW$201, DW_AT_TI_call
    2420 0008c7 0800          CALL #_CSL_usbIntcTest ; |217| 
         0008c9 36   
    2421                                                      ; call occurs [#_CSL_usbIntcTest] ; |217| 
    2422 0008ca C404          MOV T0, *SP(#2) ; |217| 
    2423                      .dwpsn  file "../c5535_bsl_revc/ezdsp5535_v1/c55xx_csl/ccs_v4.0_examples/usb/CSL_USB_IntcExample/csl_
    2424 0008cc 2249          MOV T0, AR1
    2425 0008ce 6799          BCC $C$L53,AR1 != #0 ; |219| 
    2426                                                      ; branchcc occurs ; |219| 
    2427                      .dwpsn  file "../c5535_bsl_revc/ezdsp5535_v1/c55xx_csl/ccs_v4.0_examples/usb/CSL_USB_IntcExample/csl_
    2428 0008d0 EC31          AMOV #$C$FSL2, XAR3 ; |221| 
         0008d2 BE00 
         0008d4 0016+
    2429 0008d6 EB00          MOV XAR3, dbl(*SP(#0))
         0008d8 B5   
    2430              $C$DW$202       .dwtag  DW_TAG_TI_branch
    2431                      .dwattr $C$DW$202, DW_AT_low_pc(0x00)
    2432                      .dwattr $C$DW$202, DW_AT_name("_printf")
    2433                      .dwattr $C$DW$202, DW_AT_TI_call
    2434 0008d9 6C00          CALL #_printf ; |221| 
         0008db 0000!
    2435                                                      ; call occurs [#_printf] ; |221| 
    2436                      .dwpsn  file "../c5535_bsl_revc/ezdsp5535_v1/c55xx_csl/ccs_v4.0_examples/usb/CSL_USB_IntcExample/csl_
    2437 0008dd 4A13          B $C$L54  ; |222| 
    2438                                                      ; branch occurs ; |222| 
    2439 0008df       $C$L53:    
    2440                      .dwpsn  file "../c5535_bsl_revc/ezdsp5535_v1/c55xx_csl/ccs_v4.0_examples/usb/CSL_USB_IntcExample/csl_
    2441 0008df EC31          AMOV #$C$FSL3, XAR3 ; |225| 
         0008e1 BE00 
         0008e3 002A+
    2442 0008e5 EB00          MOV XAR3, dbl(*SP(#0))
         0008e7 B5   
    2443              $C$DW$203       .dwtag  DW_TAG_TI_branch
    2444                      .dwattr $C$DW$203, DW_AT_low_pc(0x00)
    2445                      .dwattr $C$DW$203, DW_AT_name("_printf")
    2446                      .dwattr $C$DW$203, DW_AT_TI_call
    2447 0008e8 6C00          CALL #_printf ; |225| 
         0008ea 0000!
    2448                                                      ; call occurs [#_printf] ; |225| 
    2449                      .dwpsn  file "../c5535_bsl_revc/ezdsp5535_v1/c55xx_csl/ccs_v4.0_examples/usb/CSL_USB_IntcExample/csl_
    2450 0008ec E631          MOV #0, *(#_PaSs_StAtE) ; |228| 
         0008ee 0000 
         0008f0 0205-
    2451 0008f2       $C$L54:    
TMS320C55x Assembler PC v4.4.1 Sat Sep 29 23:08:36 2018

Tools Copyright (c) 1996-2012 Texas Instruments Incorporated
csl_usb_intc_example.asm                                             PAGE   58

    2452                      .dwpsn  file "../c5535_bsl_revc/ezdsp5535_v1/c55xx_csl/ccs_v4.0_examples/usb/CSL_USB_IntcExample/csl_
    2453 0008f2 A931          MOV *(#_PaSs_StAtE), AR1 ; |233| 
         0008f4 0002 
         0008f6 05-  
    2454 0008f7 C931          MOV AR1, *(#_PaSs) ; |233| 
         0008f9 0002 
         0008fb 06-  
    2455                      .dwpsn  file "../c5535_bsl_revc/ezdsp5535_v1/c55xx_csl/ccs_v4.0_examples/usb/CSL_USB_IntcExample/csl_
    2456 0008fc 4E03          AADD #3, SP
    2457                      .dwcfi  cfa_offset, 1
    2458              $C$DW$204       .dwtag  DW_TAG_TI_branch
    2459                      .dwattr $C$DW$204, DW_AT_low_pc(0x00)
    2460                      .dwattr $C$DW$204, DW_AT_TI_return
    2461 0008fe 4804          RET
    2462                                                      ; return occurs
    2463                      .dwattr $C$DW$198, DW_AT_TI_end_file("../c5535_bsl_revc/ezdsp5535_v1/c55xx_csl/ccs_v4.0_examples/usb/
    2464                      .dwattr $C$DW$198, DW_AT_TI_end_line(0xee)
    2465                      .dwattr $C$DW$198, DW_AT_TI_end_column(0x01)
    2466                      .dwendentry
    2467                      .dwendtag $C$DW$198
    2468              
    2469 000900               .sect   ".text"
    2470                      .align 4
    2471                      .global _CSL_usbIntcTest
    2472              
    2473              $C$DW$205       .dwtag  DW_TAG_subprogram, DW_AT_name("CSL_usbIntcTest")
    2474                      .dwattr $C$DW$205, DW_AT_low_pc(_CSL_usbIntcTest)
    2475                      .dwattr $C$DW$205, DW_AT_high_pc(0x00)
    2476                      .dwattr $C$DW$205, DW_AT_TI_symbol_name("_CSL_usbIntcTest")
    2477                      .dwattr $C$DW$205, DW_AT_external
    2478                      .dwattr $C$DW$205, DW_AT_type(*$C$DW$T$80)
    2479                      .dwattr $C$DW$205, DW_AT_TI_begin_file("../c5535_bsl_revc/ezdsp5535_v1/c55xx_csl/ccs_v4.0_examples/us
    2480                      .dwattr $C$DW$205, DW_AT_TI_begin_line(0xf7)
    2481                      .dwattr $C$DW$205, DW_AT_TI_begin_column(0x0c)
    2482                      .dwattr $C$DW$205, DW_AT_TI_max_frame_size(0x0e)
    2483                      .dwpsn  file "../c5535_bsl_revc/ezdsp5535_v1/c55xx_csl/ccs_v4.0_examples/usb/CSL_USB_IntcExample/csl_
    2484              
    2485                      .dwfde $C$DW$CIE, _CSL_usbIntcTest
    2486              ;*******************************************************************************
    2487              ;* FUNCTION NAME: CSL_usbIntcTest                                              *
    2488              ;*                                                                             *
    2489              ;*   Function Uses Regs : AC0,AC0,T0,T1,AR0,XAR0,AR1,AR2,AR3,XAR3,SP,TC1,M40,  *
    2490              ;*                        SATA,SATD,RDM,FRCT,SMUL                              *
    2491              ;*   Stack Frame        : Compact (No Frame Pointer, w/ debug)                 *
    2492              ;*   Total Frame Size   : 14 words                                             *
    2493              ;*                        (2 return address/alignment)                         *
    2494              ;*                        (2 function parameters)                              *
    2495              ;*                        (10 local values)                                    *
    2496              ;*   Min System Stack   : 1 word                                               *
    2497              ;*******************************************************************************
    2498 000900       _CSL_usbIntcTest:
    2499                      .dwcfi  cfa_offset, 1
    2500                      .dwcfi  save_reg_to_mem, 91, -1
    2501 000900 4EF3          AADD #-13, SP
    2502                      .dwcfi  cfa_offset, 14
TMS320C55x Assembler PC v4.4.1 Sat Sep 29 23:08:36 2018

Tools Copyright (c) 1996-2012 Texas Instruments Incorporated
csl_usb_intc_example.asm                                             PAGE   59

    2503              $C$DW$206       .dwtag  DW_TAG_variable, DW_AT_name("config")
    2504                      .dwattr $C$DW$206, DW_AT_TI_symbol_name("_config")
    2505                      .dwattr $C$DW$206, DW_AT_type(*$C$DW$T$141)
    2506                      .dwattr $C$DW$206, DW_AT_location[DW_OP_bregx 0x24 2]
    2507              $C$DW$207       .dwtag  DW_TAG_variable, DW_AT_name("result")
    2508                      .dwattr $C$DW$207, DW_AT_TI_symbol_name("_result")
    2509                      .dwattr $C$DW$207, DW_AT_type(*$C$DW$T$80)
    2510                      .dwattr $C$DW$207, DW_AT_location[DW_OP_bregx 0x24 10]
    2511              $C$DW$208       .dwtag  DW_TAG_variable, DW_AT_name("eventMask")
    2512                      .dwattr $C$DW$208, DW_AT_TI_symbol_name("_eventMask")
    2513                      .dwattr $C$DW$208, DW_AT_type(*$C$DW$T$19)
    2514                      .dwattr $C$DW$208, DW_AT_location[DW_OP_bregx 0x24 11]
    2515                      .dwpsn  file "../c5535_bsl_revc/ezdsp5535_v1/c55xx_csl/ccs_v4.0_examples/usb/CSL_USB_IntcExample/csl_
    2516 000902 E614          MOV #1, *SP(#10) ; |253| 
         000904 01   
    2517                      .dwpsn  file "../c5535_bsl_revc/ezdsp5535_v1/c55xx_csl/ccs_v4.0_examples/usb/CSL_USB_IntcExample/csl_
    2518 000905 E631          MOV #0, *(#(_usbConfig+1)) ; |255| 
         000907 0000 
         000909 0063-
    2519                      .dwpsn  file "../c5535_bsl_revc/ezdsp5535_v1/c55xx_csl/ccs_v4.0_examples/usb/CSL_USB_IntcExample/csl_
    2520 00090b E631          MOV #0, *(#_usbConfig) ; |256| 
         00090d 0000 
         00090f 0062-
    2521                      .dwpsn  file "../c5535_bsl_revc/ezdsp5535_v1/c55xx_csl/ccs_v4.0_examples/usb/CSL_USB_IntcExample/csl_
    2522 000911 E631          MOV #50, *(#(_usbConfig+2)) ; |257| 
         000913 3200 
         000915 0064-
    2523                      .dwpsn  file "../c5535_bsl_revc/ezdsp5535_v1/c55xx_csl/ccs_v4.0_examples/usb/CSL_USB_IntcExample/csl_
    2524 000917 7A00          MOV #(_CSL_suspendCallBack >> 16) << #16, AC0 ; |258| 
         000919 000A%
    2525 00091b 7E00          OR #(_CSL_suspendCallBack & 0xffff), AC0, AC0 ; |258| 
         00091d 0000%
    2526 00091f EB31          MOV AC0, dbl(*(#(_usbConfig+4))) ; |258| 
         000921 0800 
         000923 0066-
    2527                      .dwpsn  file "../c5535_bsl_revc/ezdsp5535_v1/c55xx_csl/ccs_v4.0_examples/usb/CSL_USB_IntcExample/csl_
    2528 000925 7A00          MOV #(_CSL_selfWakeupCallBack >> 16) << #16, AC0 ; |259| 
         000927 000A%
    2529 000929 7E00          OR #(_CSL_selfWakeupCallBack & 0xffff), AC0, AC0 ; |259| 
         00092b 0000%
    2530 00092d EB31          MOV AC0, dbl(*(#(_usbConfig+6))) ; |259| 
         00092f 0800 
         000931 0068-
    2531                      .dwpsn  file "../c5535_bsl_revc/ezdsp5535_v1/c55xx_csl/ccs_v4.0_examples/usb/CSL_USB_IntcExample/csl_
    2532 000933 7A00          MOV #(_CSL_startTransferCallback >> 16) << #16, AC0 ; |260| 
         000935 000A%
    2533 000937 7E00          OR #(_CSL_startTransferCallback & 0xffff), AC0, AC0 ; |260| 
         000939 0000%
    2534 00093b EB31          MOV AC0, dbl(*(#(_usbConfig+8))) ; |260| 
         00093d 0800 
         00093f 006A-
    2535                      .dwpsn  file "../c5535_bsl_revc/ezdsp5535_v1/c55xx_csl/ccs_v4.0_examples/usb/CSL_USB_IntcExample/csl_
    2536 000941 7A00          MOV #(_CSL_completeTransferCallback >> 16) << #16, AC0 ; |261| 
         000943 000A%
    2537 000945 7E00          OR #(_CSL_completeTransferCallback & 0xffff), AC0, AC0 ; |261| 
TMS320C55x Assembler PC v4.4.1 Sat Sep 29 23:08:36 2018

Tools Copyright (c) 1996-2012 Texas Instruments Incorporated
csl_usb_intc_example.asm                                             PAGE   60

         000947 0000%
    2538 000949 EB31          MOV AC0, dbl(*(#(_usbConfig+10))) ; |261| 
         00094b 0800 
         00094d 006C-
    2539                      .dwpsn  file "../c5535_bsl_revc/ezdsp5535_v1/c55xx_csl/ccs_v4.0_examples/usb/CSL_USB_IntcExample/csl_
    2540 00094f EC31          AMOV #_usbCtrlOutEpObj, XAR3 ; |263| 
         000951 BE00 
         000953 0012-
    2541 000955 EB31          MOV XAR3, dbl(*(#_hEpObjArray))
         000957 B500 
         000959 0000-
    2542                      .dwpsn  file "../c5535_bsl_revc/ezdsp5535_v1/c55xx_csl/ccs_v4.0_examples/usb/CSL_USB_IntcExample/csl_
    2543 00095b EC31          AMOV #_usbCtrlInEpObj, XAR3 ; |264| 
         00095d BE00 
         00095f 0026-
    2544 000961 EB31          MOV XAR3, dbl(*(#(_hEpObjArray+2)))
         000963 B500 
         000965 0002-
    2545                      .dwpsn  file "../c5535_bsl_revc/ezdsp5535_v1/c55xx_csl/ccs_v4.0_examples/usb/CSL_USB_IntcExample/csl_
    2546 000967 EC31          AMOV #_usbBulkOutEpObj, XAR3 ; |265| 
         000969 BE00 
         00096b 003A-
    2547 00096d EB31          MOV XAR3, dbl(*(#(_hEpObjArray+4)))
         00096f B500 
         000971 0004-
    2548                      .dwpsn  file "../c5535_bsl_revc/ezdsp5535_v1/c55xx_csl/ccs_v4.0_examples/usb/CSL_USB_IntcExample/csl_
    2549 000973 EC31          AMOV #_usbBulkInEpObj, XAR3 ; |266| 
         000975 BE00 
         000977 004E-
    2550 000979 EB31          MOV XAR3, dbl(*(#(_hEpObjArray+6)))
         00097b B500 
         00097d 0006-
    2551                      .dwpsn  file "../c5535_bsl_revc/ezdsp5535_v1/c55xx_csl/ccs_v4.0_examples/usb/CSL_USB_IntcExample/csl_
    2552 00097f 7A00          MOV #(_VECSTART >> 16) << #16, AC0 ; |269| 
         000981 000A%
    2553 000983 7E00          OR #(_VECSTART & 0xffff), AC0, AC0 ; |269| 
         000985 0000%
    2554              $C$DW$209       .dwtag  DW_TAG_TI_branch
    2555                      .dwattr $C$DW$209, DW_AT_low_pc(0x00)
    2556                      .dwattr $C$DW$209, DW_AT_name("_IRQ_setVecs")
    2557                      .dwattr $C$DW$209, DW_AT_TI_call
    2558 000987 6C00          CALL #_IRQ_setVecs ; |269| 
         000989 0000!
    2559                                                      ; call occurs [#_IRQ_setVecs] ; |269| 
    2560                      .dwpsn  file "../c5535_bsl_revc/ezdsp5535_v1/c55xx_csl/ccs_v4.0_examples/usb/CSL_USB_IntcExample/csl_
    2561 00098b 7A00          MOV #(_usb_isr >> 16) << #16, AC0 ; |272| 
         00098d 000A%
    2562 00098f 7E00          OR #(_usb_isr & 0xffff), AC0, AC0 ; |272| 
         000991 0000%
    2563 000993 EB04          MOV AC0, dbl(*SP(#2)) ; |272| 
         000995 08   
    2564                      .dwpsn  file "../c5535_bsl_revc/ezdsp5535_v1/c55xx_csl/ccs_v4.0_examples/usb/CSL_USB_IntcExample/csl_
    2565 000996 7600          MOV #20, T0 ; |273| 
         000998 1448 
    2566 00099a ED04          MOV dbl(*SP(#2)), AC0 ; |273| 
TMS320C55x Assembler PC v4.4.1 Sat Sep 29 23:08:36 2018

Tools Copyright (c) 1996-2012 Texas Instruments Incorporated
csl_usb_intc_example.asm                                             PAGE   61

         00099c 08   
    2567              $C$DW$210       .dwtag  DW_TAG_TI_branch
    2568                      .dwattr $C$DW$210, DW_AT_low_pc(0x00)
    2569                      .dwattr $C$DW$210, DW_AT_name("_IRQ_plug")
    2570                      .dwattr $C$DW$210, DW_AT_TI_call
    2571 00099d 6C00          CALL #_IRQ_plug ; |273| 
         00099f 0000!
    2572                                                      ; call occurs [#_IRQ_plug] ; |273| 
    2573                      .dwpsn  file "../c5535_bsl_revc/ezdsp5535_v1/c55xx_csl/ccs_v4.0_examples/usb/CSL_USB_IntcExample/csl_
    2574 0009a1 7600          MOV #20, T0 ; |276| 
         0009a3 1448 
    2575              $C$DW$211       .dwtag  DW_TAG_TI_branch
    2576                      .dwattr $C$DW$211, DW_AT_low_pc(0x00)
    2577                      .dwattr $C$DW$211, DW_AT_name("_IRQ_enable")
    2578                      .dwattr $C$DW$211, DW_AT_TI_call
    2579 0009a5 6C00          CALL #_IRQ_enable ; |276| 
         0009a7 0000!
    2580                                                      ; call occurs [#_IRQ_enable] ; |276| 
    2581                      .dwpsn  file "../c5535_bsl_revc/ezdsp5535_v1/c55xx_csl/ccs_v4.0_examples/usb/CSL_USB_IntcExample/csl_
    2582              $C$DW$212       .dwtag  DW_TAG_TI_branch
    2583                      .dwattr $C$DW$212, DW_AT_low_pc(0x00)
    2584                      .dwattr $C$DW$212, DW_AT_name("_IRQ_globalEnable")
    2585                      .dwattr $C$DW$212, DW_AT_TI_call
    2586 0009a9 6C00          CALL #_IRQ_globalEnable ; |278| 
         0009ab 0000!
    2587                                                      ; call occurs [#_IRQ_globalEnable] ; |278| 
    2588                      .dwpsn  file "../c5535_bsl_revc/ezdsp5535_v1/c55xx_csl/ccs_v4.0_examples/usb/CSL_USB_IntcExample/csl_
    2589 0009ad EC31          AMOV #_usbConfig, XAR0 ; |281| 
         0009af 8E00 
         0009b1 0062-
    2590              $C$DW$213       .dwtag  DW_TAG_TI_branch
    2591                      .dwattr $C$DW$213, DW_AT_low_pc(0x00)
    2592                      .dwattr $C$DW$213, DW_AT_name("_USB_init")
    2593                      .dwattr $C$DW$213, DW_AT_TI_call
    2594 0009b3 6C00          CALL #_USB_init ; |281| 
         0009b5 0000!
    2595                                                      ; call occurs [#_USB_init] ; |281| 
    2596 0009b7 C431          MOV T0, *(#_status) ; |281| 
         0009b9 0000 
         0009bb 75-  
    2597                      .dwpsn  file "../c5535_bsl_revc/ezdsp5535_v1/c55xx_csl/ccs_v4.0_examples/usb/CSL_USB_IntcExample/csl_
    2598 0009bc 2249          MOV T0, AR1
    2599 0009be 0409          BCC $C$L55,AR1 == #0 ; |282| 
         0009c0 12   
    2600                                                      ; branchcc occurs ; |282| 
    2601                      .dwpsn  file "../c5535_bsl_revc/ezdsp5535_v1/c55xx_csl/ccs_v4.0_examples/usb/CSL_USB_IntcExample/csl_
    2602 0009c1 EC31          AMOV #$C$FSL4, XAR3 ; |284| 
         0009c3 BE00 
         0009c5 003E+
    2603 0009c7 EB00          MOV XAR3, dbl(*SP(#0))
         0009c9 B5   
    2604              $C$DW$214       .dwtag  DW_TAG_TI_branch
    2605                      .dwattr $C$DW$214, DW_AT_low_pc(0x00)
    2606                      .dwattr $C$DW$214, DW_AT_name("_printf")
    2607                      .dwattr $C$DW$214, DW_AT_TI_call
TMS320C55x Assembler PC v4.4.1 Sat Sep 29 23:08:36 2018

Tools Copyright (c) 1996-2012 Texas Instruments Incorporated
csl_usb_intc_example.asm                                             PAGE   62

    2608 0009ca 6C00          CALL #_printf ; |284| 
         0009cc 0000!
    2609                                                      ; call occurs [#_printf] ; |284| 
    2610                      .dwpsn  file "../c5535_bsl_revc/ezdsp5535_v1/c55xx_csl/ccs_v4.0_examples/usb/CSL_USB_IntcExample/csl_
    2611 0009ce A414          MOV *SP(#10), T0 ; |285| 
    2612 0009d0 0601          B $C$L67  ; |285| 
         0009d2 EB   
    2613                                                      ; branch occurs ; |285| 
    2614 0009d3       $C$L55:    
    2615                      .dwpsn  file "../c5535_bsl_revc/ezdsp5535_v1/c55xx_csl/ccs_v4.0_examples/usb/CSL_USB_IntcExample/csl_
    2616              $C$DW$215       .dwtag  DW_TAG_TI_branch
    2617                      .dwattr $C$DW$215, DW_AT_low_pc(0x00)
    2618                      .dwattr $C$DW$215, DW_AT_name("_USB_resetDev")
    2619                      .dwattr $C$DW$215, DW_AT_TI_call
    2620              
    2621 0009d3 6C00          CALL #_USB_resetDev ; |289| 
         0009d5 0000!
    2622 0009d7 3D04  ||      MOV #0, T0
    2623              
    2624                                                      ; call occurs [#_USB_resetDev] ; |289| 
    2625 0009d9 C431          MOV T0, *(#_status) ; |289| 
         0009db 0000 
         0009dd 75-  
    2626                      .dwpsn  file "../c5535_bsl_revc/ezdsp5535_v1/c55xx_csl/ccs_v4.0_examples/usb/CSL_USB_IntcExample/csl_
    2627 0009de 2249          MOV T0, AR1
    2628 0009e0 0409          BCC $C$L56,AR1 == #0 ; |290| 
         0009e2 12   
    2629                                                      ; branchcc occurs ; |290| 
    2630                      .dwpsn  file "../c5535_bsl_revc/ezdsp5535_v1/c55xx_csl/ccs_v4.0_examples/usb/CSL_USB_IntcExample/csl_
    2631 0009e3 EC31          AMOV #$C$FSL5, XAR3 ; |292| 
         0009e5 BE00 
         0009e7 0050+
    2632 0009e9 EB00          MOV XAR3, dbl(*SP(#0))
         0009eb B5   
    2633              $C$DW$216       .dwtag  DW_TAG_TI_branch
    2634                      .dwattr $C$DW$216, DW_AT_low_pc(0x00)
    2635                      .dwattr $C$DW$216, DW_AT_name("_printf")
    2636                      .dwattr $C$DW$216, DW_AT_TI_call
    2637 0009ec 6C00          CALL #_printf ; |292| 
         0009ee 0000!
    2638                                                      ; call occurs [#_printf] ; |292| 
    2639                      .dwpsn  file "../c5535_bsl_revc/ezdsp5535_v1/c55xx_csl/ccs_v4.0_examples/usb/CSL_USB_IntcExample/csl_
    2640 0009f0 A414          MOV *SP(#10), T0 ; |293| 
    2641 0009f2 0601          B $C$L67  ; |293| 
         0009f4 C9   
    2642                                                      ; branch occurs ; |293| 
    2643 0009f5       $C$L56:    
    2644                      .dwpsn  file "../c5535_bsl_revc/ezdsp5535_v1/c55xx_csl/ccs_v4.0_examples/usb/CSL_USB_IntcExample/csl_
    2645 0009f5 E616          MOV #61, *SP(#11) ; |297| 
         0009f7 3D   
    2646                      .dwpsn  file "../c5535_bsl_revc/ezdsp5535_v1/c55xx_csl/ccs_v4.0_examples/usb/CSL_USB_IntcExample/csl_
    2647 0009f8 ED31          MOV dbl(*(#_hEpObjArray)), XAR0
         0009fa 8F00 
         0009fc 0000-
    2648 0009fe 3C05          MOV #0, T1
TMS320C55x Assembler PC v4.4.1 Sat Sep 29 23:08:36 2018

Tools Copyright (c) 1996-2012 Texas Instruments Incorporated
csl_usb_intc_example.asm                                             PAGE   63

    2649              
    2650 000a04 3D04          MOV #0, T0
    2651 000a00 7600  ||      MOV #64, AR2 ; |301| 
         000a02 40A8 
    2652              
    2653 000a06 AB16          MOV *SP(#11), AR3 ; |301| 
    2654 000a08 3D09  ||      MOV #0, AR1
    2655              
    2656              $C$DW$217       .dwtag  DW_TAG_TI_branch
    2657                      .dwattr $C$DW$217, DW_AT_low_pc(0x00)
    2658                      .dwattr $C$DW$217, DW_AT_name("_USB_initEndptObj")
    2659                      .dwattr $C$DW$217, DW_AT_TI_call
    2660              
    2661 000a0a 6C00          CALL #_USB_initEndptObj ; |301| 
         000a0c 0000!
    2662 000a0e 3D00  ||      MOV #0, AC0 ; |301| 
    2663              
    2664                                                      ; call occurs [#_USB_initEndptObj] ; |301| 
    2665 000a10 C431          MOV T0, *(#_status) ; |301| 
         000a12 0000 
         000a14 75-  
    2666                      .dwpsn  file "../c5535_bsl_revc/ezdsp5535_v1/c55xx_csl/ccs_v4.0_examples/usb/CSL_USB_IntcExample/csl_
    2667 000a15 2249          MOV T0, AR1
    2668 000a17 0409          BCC $C$L57,AR1 == #0 ; |304| 
         000a19 12   
    2669                                                      ; branchcc occurs ; |304| 
    2670                      .dwpsn  file "../c5535_bsl_revc/ezdsp5535_v1/c55xx_csl/ccs_v4.0_examples/usb/CSL_USB_IntcExample/csl_
    2671 000a1a EC31          AMOV #$C$FSL6, XAR3 ; |306| 
         000a1c BE00 
         000a1e 0062+
    2672 000a20 EB00          MOV XAR3, dbl(*SP(#0))
         000a22 B5   
    2673              $C$DW$218       .dwtag  DW_TAG_TI_branch
    2674                      .dwattr $C$DW$218, DW_AT_low_pc(0x00)
    2675                      .dwattr $C$DW$218, DW_AT_name("_printf")
    2676                      .dwattr $C$DW$218, DW_AT_TI_call
    2677 000a23 6C00          CALL #_printf ; |306| 
         000a25 0000!
    2678                                                      ; call occurs [#_printf] ; |306| 
    2679                      .dwpsn  file "../c5535_bsl_revc/ezdsp5535_v1/c55xx_csl/ccs_v4.0_examples/usb/CSL_USB_IntcExample/csl_
    2680 000a27 A414          MOV *SP(#10), T0 ; |307| 
    2681 000a29 0601          B $C$L67  ; |307| 
         000a2b 92   
    2682                                                      ; branch occurs ; |307| 
    2683 000a2c       $C$L57:    
    2684                      .dwpsn  file "../c5535_bsl_revc/ezdsp5535_v1/c55xx_csl/ccs_v4.0_examples/usb/CSL_USB_IntcExample/csl_
    2685 000a2c ED31          MOV dbl(*(#(_hEpObjArray+2))), XAR0
         000a2e 8F00 
         000a30 0002-
    2686 000a32 3C09          MOV #0, AR1
    2687              
    2688 000a38 3D85          MOV #8, T1
    2689 000a34 7600  ||      MOV #64, AR2 ; |311| 
         000a36 40A8 
    2690              
TMS320C55x Assembler PC v4.4.1 Sat Sep 29 23:08:36 2018

Tools Copyright (c) 1996-2012 Texas Instruments Incorporated
csl_usb_intc_example.asm                                             PAGE   64

    2691 000a3e 3D04          MOV #0, T0
    2692 000a3a 7600  ||      MOV #32, AR3 ; |311| 
         000a3c 20B8 
    2693              
    2694              $C$DW$219       .dwtag  DW_TAG_TI_branch
    2695                      .dwattr $C$DW$219, DW_AT_low_pc(0x00)
    2696                      .dwattr $C$DW$219, DW_AT_name("_USB_initEndptObj")
    2697                      .dwattr $C$DW$219, DW_AT_TI_call
    2698              
    2699 000a40 6C00          CALL #_USB_initEndptObj ; |311| 
         000a42 0000!
    2700 000a44 3D00  ||      MOV #0, AC0 ; |311| 
    2701              
    2702                                                      ; call occurs [#_USB_initEndptObj] ; |311| 
    2703 000a46 C431          MOV T0, *(#_status) ; |311| 
         000a48 0000 
         000a4a 75-  
    2704                      .dwpsn  file "../c5535_bsl_revc/ezdsp5535_v1/c55xx_csl/ccs_v4.0_examples/usb/CSL_USB_IntcExample/csl_
    2705 000a4b 2249          MOV T0, AR1
    2706 000a4d 0409          BCC $C$L58,AR1 == #0 ; |314| 
         000a4f 12   
    2707                                                      ; branchcc occurs ; |314| 
    2708                      .dwpsn  file "../c5535_bsl_revc/ezdsp5535_v1/c55xx_csl/ccs_v4.0_examples/usb/CSL_USB_IntcExample/csl_
    2709 000a50 EC31          AMOV #$C$FSL6, XAR3 ; |316| 
         000a52 BE00 
         000a54 0062+
    2710 000a56 EB00          MOV XAR3, dbl(*SP(#0))
         000a58 B5   
    2711              $C$DW$220       .dwtag  DW_TAG_TI_branch
    2712                      .dwattr $C$DW$220, DW_AT_low_pc(0x00)
    2713                      .dwattr $C$DW$220, DW_AT_name("_printf")
    2714                      .dwattr $C$DW$220, DW_AT_TI_call
    2715 000a59 6C00          CALL #_printf ; |316| 
         000a5b 0000!
    2716                                                      ; call occurs [#_printf] ; |316| 
    2717                      .dwpsn  file "../c5535_bsl_revc/ezdsp5535_v1/c55xx_csl/ccs_v4.0_examples/usb/CSL_USB_IntcExample/csl_
    2718 000a5d A414          MOV *SP(#10), T0 ; |317| 
    2719 000a5f 0601          B $C$L67  ; |317| 
         000a61 5C   
    2720                                                      ; branch occurs ; |317| 
    2721 000a62       $C$L58:    
    2722                      .dwpsn  file "../c5535_bsl_revc/ezdsp5535_v1/c55xx_csl/ccs_v4.0_examples/usb/CSL_USB_IntcExample/csl_
    2723 000a62 E616          MOV #33, *SP(#11) ; |321| 
         000a64 21   
    2724                      .dwpsn  file "../c5535_bsl_revc/ezdsp5535_v1/c55xx_csl/ccs_v4.0_examples/usb/CSL_USB_IntcExample/csl_
    2725 000a65 ED31          MOV dbl(*(#(_hEpObjArray+4))), XAR0
         000a67 8F00 
         000a69 0004-
    2726 000a6b 3C95          MOV #9, T1
    2727              
    2728 000a71 3D04          MOV #0, T0
    2729 000a6d 7600  ||      MOV #64, AR2 ; |322| 
         000a6f 40A8 
    2730              
    2731 000a73 AB16          MOV *SP(#11), AR3 ; |322| 
TMS320C55x Assembler PC v4.4.1 Sat Sep 29 23:08:36 2018

Tools Copyright (c) 1996-2012 Texas Instruments Incorporated
csl_usb_intc_example.asm                                             PAGE   65

    2732 000a75 3D19  ||      MOV #1, AR1
    2733              
    2734              $C$DW$221       .dwtag  DW_TAG_TI_branch
    2735                      .dwattr $C$DW$221, DW_AT_low_pc(0x00)
    2736                      .dwattr $C$DW$221, DW_AT_name("_USB_initEndptObj")
    2737                      .dwattr $C$DW$221, DW_AT_TI_call
    2738              
    2739 000a77 6C00          CALL #_USB_initEndptObj ; |322| 
         000a79 0000!
    2740 000a7b 3D00  ||      MOV #0, AC0 ; |322| 
    2741              
    2742                                                      ; call occurs [#_USB_initEndptObj] ; |322| 
    2743 000a7d C431          MOV T0, *(#_status) ; |322| 
         000a7f 0000 
         000a81 75-  
    2744                      .dwpsn  file "../c5535_bsl_revc/ezdsp5535_v1/c55xx_csl/ccs_v4.0_examples/usb/CSL_USB_IntcExample/csl_
    2745 000a82 2249          MOV T0, AR1
    2746 000a84 0409          BCC $C$L59,AR1 == #0 ; |325| 
         000a86 12   
    2747                                                      ; branchcc occurs ; |325| 
    2748                      .dwpsn  file "../c5535_bsl_revc/ezdsp5535_v1/c55xx_csl/ccs_v4.0_examples/usb/CSL_USB_IntcExample/csl_
    2749 000a87 EC31          AMOV #$C$FSL6, XAR3 ; |327| 
         000a89 BE00 
         000a8b 0062+
    2750 000a8d EB00          MOV XAR3, dbl(*SP(#0))
         000a8f B5   
    2751              $C$DW$222       .dwtag  DW_TAG_TI_branch
    2752                      .dwattr $C$DW$222, DW_AT_low_pc(0x00)
    2753                      .dwattr $C$DW$222, DW_AT_name("_printf")
    2754                      .dwattr $C$DW$222, DW_AT_TI_call
    2755 000a90 6C00          CALL #_printf ; |327| 
         000a92 0000!
    2756                                                      ; call occurs [#_printf] ; |327| 
    2757                      .dwpsn  file "../c5535_bsl_revc/ezdsp5535_v1/c55xx_csl/ccs_v4.0_examples/usb/CSL_USB_IntcExample/csl_
    2758 000a94 A414          MOV *SP(#10), T0 ; |328| 
    2759 000a96 0601          B $C$L67  ; |328| 
         000a98 25   
    2760                                                      ; branch occurs ; |328| 
    2761 000a99       $C$L59:    
    2762                      .dwpsn  file "../c5535_bsl_revc/ezdsp5535_v1/c55xx_csl/ccs_v4.0_examples/usb/CSL_USB_IntcExample/csl_
    2763 000a99 ED31          MOV dbl(*(#(_hEpObjArray+6))), XAR0
         000a9b 8F00 
         000a9d 0006-
    2764 000a9f 3C19          MOV #1, AR1
    2765              
    2766 000aa5 3D25          MOV #2, T1
    2767 000aa1 7600  ||      MOV #64, AR2 ; |332| 
         000aa3 40A8 
    2768              
    2769 000aab 3D04          MOV #0, T0
    2770 000aa7 7600  ||      MOV #32, AR3 ; |332| 
         000aa9 20B8 
    2771              
    2772              $C$DW$223       .dwtag  DW_TAG_TI_branch
    2773                      .dwattr $C$DW$223, DW_AT_low_pc(0x00)
TMS320C55x Assembler PC v4.4.1 Sat Sep 29 23:08:36 2018

Tools Copyright (c) 1996-2012 Texas Instruments Incorporated
csl_usb_intc_example.asm                                             PAGE   66

    2774                      .dwattr $C$DW$223, DW_AT_name("_USB_initEndptObj")
    2775                      .dwattr $C$DW$223, DW_AT_TI_call
    2776              
    2777 000aad 6C00          CALL #_USB_initEndptObj ; |332| 
         000aaf 0000!
    2778 000ab1 3D00  ||      MOV #0, AC0 ; |332| 
    2779              
    2780                                                      ; call occurs [#_USB_initEndptObj] ; |332| 
    2781 000ab3 C431          MOV T0, *(#_status) ; |332| 
         000ab5 0000 
         000ab7 75-  
    2782                      .dwpsn  file "../c5535_bsl_revc/ezdsp5535_v1/c55xx_csl/ccs_v4.0_examples/usb/CSL_USB_IntcExample/csl_
    2783 000ab8 2249          MOV T0, AR1
    2784 000aba 0409          BCC $C$L60,AR1 == #0 ; |335| 
         000abc 12   
    2785                                                      ; branchcc occurs ; |335| 
    2786                      .dwpsn  file "../c5535_bsl_revc/ezdsp5535_v1/c55xx_csl/ccs_v4.0_examples/usb/CSL_USB_IntcExample/csl_
    2787 000abd EC31          AMOV #$C$FSL6, XAR3 ; |337| 
         000abf BE00 
         000ac1 0062+
    2788 000ac3 EB00          MOV XAR3, dbl(*SP(#0))
         000ac5 B5   
    2789              $C$DW$224       .dwtag  DW_TAG_TI_branch
    2790                      .dwattr $C$DW$224, DW_AT_low_pc(0x00)
    2791                      .dwattr $C$DW$224, DW_AT_name("_printf")
    2792                      .dwattr $C$DW$224, DW_AT_TI_call
    2793 000ac6 6C00          CALL #_printf ; |337| 
         000ac8 0000!
    2794                                                      ; call occurs [#_printf] ; |337| 
    2795                      .dwpsn  file "../c5535_bsl_revc/ezdsp5535_v1/c55xx_csl/ccs_v4.0_examples/usb/CSL_USB_IntcExample/csl_
    2796 000aca A414          MOV *SP(#10), T0 ; |338| 
    2797 000acc 0600          B $C$L67  ; |338| 
         000ace EF   
    2798                                                      ; branch occurs ; |338| 
    2799 000acf       $C$L60:    
    2800                      .dwpsn  file "../c5535_bsl_revc/ezdsp5535_v1/c55xx_csl/ccs_v4.0_examples/usb/CSL_USB_IntcExample/csl_
    2801 000acf EC31          AMOV #_hEpObjArray, XAR0 ; |342| 
         000ad1 8E00 
         000ad3 0000-
    2802 000ad5 3C04          MOV #0, T0
    2803              $C$DW$225       .dwtag  DW_TAG_TI_branch
    2804                      .dwattr $C$DW$225, DW_AT_low_pc(0x00)
    2805                      .dwattr $C$DW$225, DW_AT_name("_USB_setParams")
    2806                      .dwattr $C$DW$225, DW_AT_TI_call
    2807              
    2808 000ad7 6C00          CALL #_USB_setParams ; |342| 
         000ad9 0000!
    2809 000adb 3D05  ||      MOV #0, T1
    2810              
    2811                                                      ; call occurs [#_USB_setParams] ; |342| 
    2812 000add C431          MOV T0, *(#_status) ; |342| 
         000adf 0000 
         000ae1 75-  
    2813                      .dwpsn  file "../c5535_bsl_revc/ezdsp5535_v1/c55xx_csl/ccs_v4.0_examples/usb/CSL_USB_IntcExample/csl_
    2814 000ae2 2249          MOV T0, AR1
TMS320C55x Assembler PC v4.4.1 Sat Sep 29 23:08:36 2018

Tools Copyright (c) 1996-2012 Texas Instruments Incorporated
csl_usb_intc_example.asm                                             PAGE   67

    2815 000ae4 0409          BCC $C$L61,AR1 == #0 ; |343| 
         000ae6 12   
    2816                                                      ; branchcc occurs ; |343| 
    2817                      .dwpsn  file "../c5535_bsl_revc/ezdsp5535_v1/c55xx_csl/ccs_v4.0_examples/usb/CSL_USB_IntcExample/csl_
    2818 000ae7 EC31          AMOV #$C$FSL7, XAR3 ; |345| 
         000ae9 BE00 
         000aeb 007E+
    2819 000aed EB00          MOV XAR3, dbl(*SP(#0))
         000aef B5   
    2820              $C$DW$226       .dwtag  DW_TAG_TI_branch
    2821                      .dwattr $C$DW$226, DW_AT_low_pc(0x00)
    2822                      .dwattr $C$DW$226, DW_AT_name("_printf")
    2823                      .dwattr $C$DW$226, DW_AT_TI_call
    2824 000af0 6C00          CALL #_printf ; |345| 
         000af2 0000!
    2825                                                      ; call occurs [#_printf] ; |345| 
    2826                      .dwpsn  file "../c5535_bsl_revc/ezdsp5535_v1/c55xx_csl/ccs_v4.0_examples/usb/CSL_USB_IntcExample/csl_
    2827 000af4 A414          MOV *SP(#10), T0 ; |346| 
    2828 000af6 0600          B $C$L67  ; |346| 
         000af8 C5   
    2829                                                      ; branch occurs ; |346| 
    2830 000af9       $C$L61:    
    2831                      .dwpsn  file "../c5535_bsl_revc/ezdsp5535_v1/c55xx_csl/ccs_v4.0_examples/usb/CSL_USB_IntcExample/csl_
    2832              $C$DW$227       .dwtag  DW_TAG_TI_branch
    2833                      .dwattr $C$DW$227, DW_AT_low_pc(0x00)
    2834                      .dwattr $C$DW$227, DW_AT_name("_USB_connectDev")
    2835                      .dwattr $C$DW$227, DW_AT_TI_call
    2836              
    2837 000af9 6C00          CALL #_USB_connectDev ; |350| 
         000afb 0000!
    2838 000afd 3D04  ||      MOV #0, T0
    2839              
    2840                                                      ; call occurs [#_USB_connectDev] ; |350| 
    2841 000aff C431          MOV T0, *(#_status) ; |350| 
         000b01 0000 
         000b03 75-  
    2842                      .dwpsn  file "../c5535_bsl_revc/ezdsp5535_v1/c55xx_csl/ccs_v4.0_examples/usb/CSL_USB_IntcExample/csl_
    2843 000b04 2249          MOV T0, AR1
    2844 000b06 0409          BCC $C$L62,AR1 == #0 ; |351| 
         000b08 12   
    2845                                                      ; branchcc occurs ; |351| 
    2846                      .dwpsn  file "../c5535_bsl_revc/ezdsp5535_v1/c55xx_csl/ccs_v4.0_examples/usb/CSL_USB_IntcExample/csl_
    2847 000b09 EC31          AMOV #$C$FSL8, XAR3 ; |353| 
         000b0b BE00 
         000b0d 0096+
    2848 000b0f EB00          MOV XAR3, dbl(*SP(#0))
         000b11 B5   
    2849              $C$DW$228       .dwtag  DW_TAG_TI_branch
    2850                      .dwattr $C$DW$228, DW_AT_low_pc(0x00)
    2851                      .dwattr $C$DW$228, DW_AT_name("_printf")
    2852                      .dwattr $C$DW$228, DW_AT_TI_call
    2853 000b12 6C00          CALL #_printf ; |353| 
         000b14 0000!
    2854                                                      ; call occurs [#_printf] ; |353| 
    2855                      .dwpsn  file "../c5535_bsl_revc/ezdsp5535_v1/c55xx_csl/ccs_v4.0_examples/usb/CSL_USB_IntcExample/csl_
TMS320C55x Assembler PC v4.4.1 Sat Sep 29 23:08:36 2018

Tools Copyright (c) 1996-2012 Texas Instruments Incorporated
csl_usb_intc_example.asm                                             PAGE   68

    2856 000b16 A414          MOV *SP(#10), T0 ; |354| 
    2857 000b18 0600          B $C$L67  ; |354| 
         000b1a A3   
    2858                                                      ; branch occurs ; |354| 
    2859 000b1b       $C$L62:    
    2860                      .dwpsn  file "../c5535_bsl_revc/ezdsp5535_v1/c55xx_csl/ccs_v4.0_examples/usb/CSL_USB_IntcExample/csl_
    2861 000b1b EC31          AMOV #_deviceDesc, XAR3 ; |357| 
         000b1d BE00 
         000b1f 0184-
    2862 000b21 EB31          MOV XAR3, dbl(*(#_deviceDescPtr))
         000b23 B500 
         000b25 0178-
    2863                      .dwpsn  file "../c5535_bsl_revc/ezdsp5535_v1/c55xx_csl/ccs_v4.0_examples/usb/CSL_USB_IntcExample/csl_
    2864 000b27 EC31          AMOV #_cfgDesc, XAR3 ; |358| 
         000b29 BE00 
         000b2b 018D-
    2865 000b2d EB31          MOV XAR3, dbl(*(#_cfgDescPtr))
         000b2f B500 
         000b31 017A-
    2866                      .dwpsn  file "../c5535_bsl_revc/ezdsp5535_v1/c55xx_csl/ccs_v4.0_examples/usb/CSL_USB_IntcExample/csl_
    2867 000b33 EC31          AMOV #_strDesc, XAR3 ; |359| 
         000b35 BE00 
         000b37 01B5-
    2868 000b39 EB31          MOV XAR3, dbl(*(#_strDescPtr))
         000b3b B500 
         000b3d 017C-
    2869                      .dwpsn  file "../c5535_bsl_revc/ezdsp5535_v1/c55xx_csl/ccs_v4.0_examples/usb/CSL_USB_IntcExample/csl_
    2870 000b3f F031          CMP *(#_stopRunning) == #1, TC1 ; |361| 
         000b41 0001 
         000b43 0001 
         000b45 82-  
    2871 000b46 0464          BCC $C$L66,TC1 ; |361| 
         000b48 70   
    2872                                                      ; branchcc occurs ; |361| 
    2873 000b49       $C$L63:    
    2874 000b49       $C$DW$L$_CSL_usbIntcTest$18$B:
    2875                      .dwpsn  file "../c5535_bsl_revc/ezdsp5535_v1/c55xx_csl/ccs_v4.0_examples/usb/CSL_USB_IntcExample/csl_
    2876 000b49 F031          CMP *(#_usbDevDisconnect) == #1, TC1 ; |363| 
         000b4b 0001 
         000b4d 0001 
         000b4f 83-  
    2877 000b50 0474          BCC $C$L65,!TC1 ; |363| 
         000b52 5C   
    2878                                                      ; branchcc occurs ; |363| 
    2879 000b53       $C$DW$L$_CSL_usbIntcTest$18$E:
    2880 000b53       $C$DW$L$_CSL_usbIntcTest$19$B:
    2881 000b53 7604          MOV #1121, T0 ; |363| 
         000b55 6148 
    2882 000b57 AB31          MOV *(#_usbRegisters), AR3 ; |363| 
         000b59 0000 
         000b5b 00!  
    2883 000b5c A96B          MOV port(*AR3(T0)), AR1 ; |363| 
         000b5e 99   
    2884 000b5f 1818          AND #0x0018, AR1, AC0 ; |363| 
         000b61 09   
TMS320C55x Assembler PC v4.4.1 Sat Sep 29 23:08:36 2018

Tools Copyright (c) 1996-2012 Texas Instruments Incorporated
csl_usb_intc_example.asm                                             PAGE   69

    2885              
    2886 000b62 76FF          BFXTR #0xfff8, AC0, AR1 ; |363| 
         000b64 F890 
    2887 000b66 3D3A  ||      MOV #3, AR2
    2888              
    2889 000b68 1290          CMPU AR1 == AR2, TC1 ; |363| 
         000b6a A4   
    2890 000b6b 0464          BCC $C$L65,TC1 ; |363| 
         000b6d 41   
    2891                                                      ; branchcc occurs ; |363| 
    2892 000b6e       $C$DW$L$_CSL_usbIntcTest$19$E:
    2893 000b6e       $C$DW$L$_CSL_usbIntcTest$20$B:
    2894                      .dwpsn  file "../c5535_bsl_revc/ezdsp5535_v1/c55xx_csl/ccs_v4.0_examples/usb/CSL_USB_IntcExample/csl_
    2895 000b6e EC31          AMOV #$C$FSL9, XAR3 ; |367| 
         000b70 BE00 
         000b72 00AA+
    2896 000b74 EB00          MOV XAR3, dbl(*SP(#0))
         000b76 B5   
    2897              $C$DW$229       .dwtag  DW_TAG_TI_branch
    2898                      .dwattr $C$DW$229, DW_AT_low_pc(0x00)
    2899                      .dwattr $C$DW$229, DW_AT_name("_printf")
    2900                      .dwattr $C$DW$229, DW_AT_TI_call
    2901 000b77 6C00          CALL #_printf ; |367| 
         000b79 0000!
    2902                                                      ; call occurs [#_printf] ; |367| 
    2903 000b7b 7604          MOV #1121, T0 ; |369| 
         000b7d 6148 
    2904 000b7f 3C39          MOV #3, AR1
    2905                      .dwpsn  file "../c5535_bsl_revc/ezdsp5535_v1/c55xx_csl/ccs_v4.0_examples/usb/CSL_USB_IntcExample/csl_
    2906 000b81       $C$DW$L$_CSL_usbIntcTest$20$E:
    2907 000b81       $C$L64:    
    2908 000b81       $C$DW$L$_CSL_usbIntcTest$21$B:
    2909                      .dwpsn  file "../c5535_bsl_revc/ezdsp5535_v1/c55xx_csl/ccs_v4.0_examples/usb/CSL_USB_IntcExample/csl_
    2910 000b81 AB31          MOV *(#_usbRegisters), AR3 ; |369| 
         000b83 0000 
         000b85 00!  
    2911 000b86 AA6B          MOV port(*AR3(T0)), AR2 ; |369| 
         000b88 99   
    2912 000b89 1818          AND #0x0018, AR2, AC0 ; |369| 
         000b8b 0A   
    2913 000b8c 76FF          BFXTR #0xfff8, AC0, AR2 ; |369| 
         000b8e F8A0 
    2914 000b90 12AC          CMPU AR2 != AR1, TC1 ; |369| 
         000b92 94   
    2915 000b93 0464          BCC $C$L64,TC1 ; |369| 
         000b95 EB   
    2916                                                      ; branchcc occurs ; |369| 
    2917 000b96       $C$DW$L$_CSL_usbIntcTest$21$E:
    2918 000b96       $C$DW$L$_CSL_usbIntcTest$22$B:
    2919                      .dwpsn  file "../c5535_bsl_revc/ezdsp5535_v1/c55xx_csl/ccs_v4.0_examples/usb/CSL_USB_IntcExample/csl_
    2920 000b96 EC31          AMOV #$C$FSL10, XAR3 ; |372| 
         000b98 BE00 
         000b9a 00C6+
    2921 000b9c EB00          MOV XAR3, dbl(*SP(#0))
         000b9e B5   
TMS320C55x Assembler PC v4.4.1 Sat Sep 29 23:08:36 2018

Tools Copyright (c) 1996-2012 Texas Instruments Incorporated
csl_usb_intc_example.asm                                             PAGE   70

    2922              $C$DW$230       .dwtag  DW_TAG_TI_branch
    2923                      .dwattr $C$DW$230, DW_AT_low_pc(0x00)
    2924                      .dwattr $C$DW$230, DW_AT_name("_printf")
    2925                      .dwattr $C$DW$230, DW_AT_TI_call
    2926 000b9f 6C00          CALL #_printf ; |372| 
         000ba1 0000!
    2927                                                      ; call occurs [#_printf] ; |372| 
    2928                      .dwpsn  file "../c5535_bsl_revc/ezdsp5535_v1/c55xx_csl/ccs_v4.0_examples/usb/CSL_USB_IntcExample/csl_
    2929 000ba3 E631          MOV #0, *(#_usbDevDisconnect) ; |374| 
         000ba5 0000 
         000ba7 0183-
    2930                      .dwpsn  file "../c5535_bsl_revc/ezdsp5535_v1/c55xx_csl/ccs_v4.0_examples/usb/CSL_USB_IntcExample/csl_
    2931              $C$DW$231       .dwtag  DW_TAG_TI_branch
    2932                      .dwattr $C$DW$231, DW_AT_low_pc(0x00)
    2933                      .dwattr $C$DW$231, DW_AT_name("_USB_connectDev")
    2934                      .dwattr $C$DW$231, DW_AT_TI_call
    2935              
    2936 000ba9 6C00          CALL #_USB_connectDev ; |375| 
         000bab 0000!
    2937 000bad 3D04  ||      MOV #0, T0
    2938              
    2939                                                      ; call occurs [#_USB_connectDev] ; |375| 
    2940 000baf       $C$DW$L$_CSL_usbIntcTest$22$E:
    2941 000baf       $C$L65:    
    2942 000baf       $C$DW$L$_CSL_usbIntcTest$23$B:
    2943                      .dwpsn  file "../c5535_bsl_revc/ezdsp5535_v1/c55xx_csl/ccs_v4.0_examples/usb/CSL_USB_IntcExample/csl_
    2944 000baf F031          CMP *(#_stopRunning) == #1, TC1 ; |361| 
         000bb1 0001 
         000bb3 0001 
         000bb5 82-  
    2945 000bb6 0474          BCC $C$L63,!TC1 ; |361| 
         000bb8 90   
    2946                                                      ; branchcc occurs ; |361| 
    2947 000bb9       $C$DW$L$_CSL_usbIntcTest$23$E:
    2948 000bb9       $C$L66:    
    2949                      .dwpsn  file "../c5535_bsl_revc/ezdsp5535_v1/c55xx_csl/ccs_v4.0_examples/usb/CSL_USB_IntcExample/csl_
    2950 000bb9 E614          MOV #0, *SP(#10) ; |379| 
         000bbb 00   
    2951                      .dwpsn  file "../c5535_bsl_revc/ezdsp5535_v1/c55xx_csl/ccs_v4.0_examples/usb/CSL_USB_IntcExample/csl_
    2952 000bbc A414          MOV *SP(#10), T0 ; |380| 
    2953 000bbe       $C$L67:    
    2954                      .dwpsn  file "../c5535_bsl_revc/ezdsp5535_v1/c55xx_csl/ccs_v4.0_examples/usb/CSL_USB_IntcExample/csl_
    2955 000bbe 4E0D          AADD #13, SP
    2956                      .dwcfi  cfa_offset, 1
    2957              $C$DW$232       .dwtag  DW_TAG_TI_branch
    2958                      .dwattr $C$DW$232, DW_AT_low_pc(0x00)
    2959                      .dwattr $C$DW$232, DW_AT_TI_return
    2960 000bc0 4804          RET
    2961                                                      ; return occurs
    2962              
    2963              $C$DW$233       .dwtag  DW_TAG_TI_loop
    2964                      .dwattr $C$DW$233, DW_AT_name("F:\eZdsp_DBG\tmp1\c55x-sim2\foo\Debug\csl_usb_intc_example.asm:$C$L63:
    2965                      .dwattr $C$DW$233, DW_AT_TI_begin_file("../c5535_bsl_revc/ezdsp5535_v1/c55xx_csl/ccs_v4.0_examples/us
    2966                      .dwattr $C$DW$233, DW_AT_TI_begin_line(0x169)
    2967                      .dwattr $C$DW$233, DW_AT_TI_end_line(0x179)
TMS320C55x Assembler PC v4.4.1 Sat Sep 29 23:08:36 2018

Tools Copyright (c) 1996-2012 Texas Instruments Incorporated
csl_usb_intc_example.asm                                             PAGE   71

    2968              $C$DW$234       .dwtag  DW_TAG_TI_loop_range
    2969                      .dwattr $C$DW$234, DW_AT_low_pc($C$DW$L$_CSL_usbIntcTest$18$B)
    2970                      .dwattr $C$DW$234, DW_AT_high_pc($C$DW$L$_CSL_usbIntcTest$18$E)
    2971              $C$DW$235       .dwtag  DW_TAG_TI_loop_range
    2972                      .dwattr $C$DW$235, DW_AT_low_pc($C$DW$L$_CSL_usbIntcTest$20$B)
    2973                      .dwattr $C$DW$235, DW_AT_high_pc($C$DW$L$_CSL_usbIntcTest$20$E)
    2974              $C$DW$236       .dwtag  DW_TAG_TI_loop_range
    2975                      .dwattr $C$DW$236, DW_AT_low_pc($C$DW$L$_CSL_usbIntcTest$19$B)
    2976                      .dwattr $C$DW$236, DW_AT_high_pc($C$DW$L$_CSL_usbIntcTest$19$E)
    2977              $C$DW$237       .dwtag  DW_TAG_TI_loop_range
    2978                      .dwattr $C$DW$237, DW_AT_low_pc($C$DW$L$_CSL_usbIntcTest$22$B)
    2979                      .dwattr $C$DW$237, DW_AT_high_pc($C$DW$L$_CSL_usbIntcTest$22$E)
    2980              $C$DW$238       .dwtag  DW_TAG_TI_loop_range
    2981                      .dwattr $C$DW$238, DW_AT_low_pc($C$DW$L$_CSL_usbIntcTest$23$B)
    2982                      .dwattr $C$DW$238, DW_AT_high_pc($C$DW$L$_CSL_usbIntcTest$23$E)
    2983              
    2984              $C$DW$239       .dwtag  DW_TAG_TI_loop
    2985                      .dwattr $C$DW$239, DW_AT_name("F:\eZdsp_DBG\tmp1\c55x-sim2\foo\Debug\csl_usb_intc_example.asm:$C$L64:
    2986                      .dwattr $C$DW$239, DW_AT_TI_begin_file("../c5535_bsl_revc/ezdsp5535_v1/c55xx_csl/ccs_v4.0_examples/us
    2987                      .dwattr $C$DW$239, DW_AT_TI_begin_line(0x171)
    2988                      .dwattr $C$DW$239, DW_AT_TI_end_line(0x171)
    2989              $C$DW$240       .dwtag  DW_TAG_TI_loop_range
    2990                      .dwattr $C$DW$240, DW_AT_low_pc($C$DW$L$_CSL_usbIntcTest$21$B)
    2991                      .dwattr $C$DW$240, DW_AT_high_pc($C$DW$L$_CSL_usbIntcTest$21$E)
    2992                      .dwendtag $C$DW$239
    2993              
    2994                      .dwendtag $C$DW$233
    2995              
    2996                      .dwattr $C$DW$205, DW_AT_TI_end_file("../c5535_bsl_revc/ezdsp5535_v1/c55xx_csl/ccs_v4.0_examples/usb/
    2997                      .dwattr $C$DW$205, DW_AT_TI_end_line(0x17d)
    2998                      .dwattr $C$DW$205, DW_AT_TI_end_column(0x01)
    2999                      .dwendentry
    3000                      .dwendtag $C$DW$205
    3001              
    3002 000000               .sect   ".text:retain"
    3003                      .align 4
    3004                      .global _usb_isr
    3005              
    3006              $C$DW$241       .dwtag  DW_TAG_subprogram, DW_AT_name("usb_isr")
    3007                      .dwattr $C$DW$241, DW_AT_low_pc(_usb_isr)
    3008                      .dwattr $C$DW$241, DW_AT_high_pc(0x00)
    3009                      .dwattr $C$DW$241, DW_AT_TI_symbol_name("_usb_isr")
    3010                      .dwattr $C$DW$241, DW_AT_external
    3011                      .dwattr $C$DW$241, DW_AT_TI_begin_file("../c5535_bsl_revc/ezdsp5535_v1/c55xx_csl/ccs_v4.0_examples/us
    3012                      .dwattr $C$DW$241, DW_AT_TI_begin_line(0x187)
    3013                      .dwattr $C$DW$241, DW_AT_TI_begin_column(0x10)
    3014                      .dwattr $C$DW$241, DW_AT_TI_interrupt
    3015                      .dwattr $C$DW$241, DW_AT_TI_max_frame_size(0x35)
    3016                      .dwpsn  file "../c5535_bsl_revc/ezdsp5535_v1/c55xx_csl/ccs_v4.0_examples/usb/CSL_USB_IntcExample/csl_
    3017              
    3018                      .dwfde $C$DW$CIE, _usb_isr
    3019              ;*******************************************************************************
    3020              ;* INTERRUPT NAME: usb_isr                                                     *
    3021              ;*                                                                             *
    3022              ;*   Function Uses Regs : AC0,AC0,AC1,AC1,AC2,AC2,AC3,AC3,T0,T1,AR0,XAR0,AR1,  *
TMS320C55x Assembler PC v4.4.1 Sat Sep 29 23:08:36 2018

Tools Copyright (c) 1996-2012 Texas Instruments Incorporated
csl_usb_intc_example.asm                                             PAGE   72

    3023              ;*                        XAR1,AR2,AR3,XAR3,AR4,SP,BKC,BK03,BK47,ST1,ST2,ST3,  *
    3024              ;*                        BRC0,RSA0,REA0,BRS1,BRC1,RSA1,REA1,CSR,RPTC,CDP,TRN0,*
    3025              ;*                        TRN1,BSA01,BSA23,BSA45,BSA67,BSAC,TC1,M40,SATA,SATD, *
    3026              ;*                        RDM,FRCT,SMUL                                        *
    3027              ;*   Save On Entry Regs : AC0,AC0,AC1,AC1,AC2,AC2,AC3,AC3,T0,T1,AR0,AR1,AR2,   *
    3028              ;*                        AR3,AR4,BKC,BK03,BK47,BRC0,RSA0,REA0,BRS1,BRC1,RSA1, *
    3029              ;*                        REA1,CSR,RPTC,CDP,TRN0,TRN1,BSA01,BSA23,BSA45,BSA67, *
    3030              ;*                        BSAC                                                 *
    3031              ;*******************************************************************************
    3032 000000       _usb_isr:
    3033                      .dwcfi  cfa_offset, 3
    3034                      .dwcfi  save_reg_to_mem, 91, -3
    3035 000000 F406          AND #0xf91f, mmap(ST1_55)
         000002 F91F 
         000004 98   
    3036 000005 F506          OR #0x4100, mmap(ST1_55)
         000007 4100 
         000009 98   
    3037 00000a F496          AND #0xfa00, mmap(ST2_55)
         00000c FA00 
         00000e 98   
    3038 00000f F596          OR #0x8000, mmap(ST2_55)
         000011 8000 
         000013 98   
    3039 000014 B508          PSH mmap(ST3_55)
         000016 98   
    3040                      .dwcfi  cfa_offset, 4
    3041                      .dwcfi  save_reg_to_mem, 42, -4
    3042 000017 5007          PSH dbl(AC0)
    3043                      .dwcfi  cfa_offset, 5
    3044                      .dwcfi  save_reg_to_mem, 0, -5
    3045                      .dwcfi  cfa_offset, 6
    3046                      .dwcfi  save_reg_to_mem, 1, -6
    3047 000019 B514          PSH mmap(AC0G)
         00001b 98   
    3048                      .dwcfi  cfa_offset, 7
    3049                      .dwcfi  save_reg_to_mem, 2, -7
    3050 00001c 5017          PSH dbl(AC1)
    3051                      .dwcfi  cfa_offset, 8
    3052                      .dwcfi  save_reg_to_mem, 3, -8
    3053                      .dwcfi  cfa_offset, 9
    3054                      .dwcfi  save_reg_to_mem, 4, -9
    3055 00001e B51A          PSH mmap(AC1G)
         000020 98   
    3056                      .dwcfi  cfa_offset, 10
    3057                      .dwcfi  save_reg_to_mem, 5, -10
    3058 000021 5027          PSH dbl(AC2)
    3059                      .dwcfi  cfa_offset, 11
    3060                      .dwcfi  save_reg_to_mem, 6, -11
    3061                      .dwcfi  cfa_offset, 12
    3062                      .dwcfi  save_reg_to_mem, 7, -12
    3063 000023 B54C          PSH mmap(AC2G)
         000025 98   
    3064                      .dwcfi  cfa_offset, 13
    3065                      .dwcfi  save_reg_to_mem, 8, -13
TMS320C55x Assembler PC v4.4.1 Sat Sep 29 23:08:36 2018

Tools Copyright (c) 1996-2012 Texas Instruments Incorporated
csl_usb_intc_example.asm                                             PAGE   73

    3066 000026 5037          PSH dbl(AC3)
    3067                      .dwcfi  cfa_offset, 14
    3068                      .dwcfi  save_reg_to_mem, 9, -14
    3069                      .dwcfi  cfa_offset, 15
    3070                      .dwcfi  save_reg_to_mem, 10, -15
    3071 000028 B554          PSH mmap(AC3G)
         00002a 98   
    3072                      .dwcfi  cfa_offset, 16
    3073                      .dwcfi  save_reg_to_mem, 11, -16
    3074 00002b 5046          PSH T0
    3075                      .dwcfi  cfa_offset, 17
    3076                      .dwcfi  save_reg_to_mem, 12, -17
    3077 00002d 5056          PSH T1
    3078                      .dwcfi  cfa_offset, 18
    3079                      .dwcfi  save_reg_to_mem, 13, -18
    3080 00002f 5085          PSHBOTH XAR0
    3081                      .dwcfi  cfa_offset, 19
    3082                      .dwcfi  save_reg_to_mem, 16, -19
    3083 000031 5095          PSHBOTH XAR1
    3084                      .dwcfi  cfa_offset, 20
    3085                      .dwcfi  save_reg_to_mem, 18, -20
    3086 000033 50A5          PSHBOTH XAR2
    3087                      .dwcfi  cfa_offset, 21
    3088                      .dwcfi  save_reg_to_mem, 20, -21
    3089 000035 50B5          PSHBOTH XAR3
    3090                      .dwcfi  cfa_offset, 22
    3091                      .dwcfi  save_reg_to_mem, 22, -22
    3092 000037 50C5          PSHBOTH XAR4
    3093                      .dwcfi  cfa_offset, 23
    3094                      .dwcfi  save_reg_to_mem, 24, -23
    3095 000039 B562          PSH mmap(BKC)
         00003b 98   
    3096                      .dwcfi  cfa_offset, 24
    3097                      .dwcfi  save_reg_to_mem, 37, -24
    3098 00003c B532          PSH mmap(BK03)
         00003e 98   
    3099                      .dwcfi  cfa_offset, 25
    3100                      .dwcfi  save_reg_to_mem, 38, -25
    3101 00003f B560          PSH mmap(BK47)
         000041 98   
    3102                      .dwcfi  cfa_offset, 26
    3103                      .dwcfi  save_reg_to_mem, 39, -26
    3104 000042 B534          PSH mmap(BRC0)
         000044 98   
    3105                      .dwcfi  cfa_offset, 27
    3106                      .dwcfi  save_reg_to_mem, 47, -27
    3107 000045 B57A          PSH mmap(RSA0L)
         000047 98   
    3108                      .dwcfi  cfa_offset, 28
    3109                      .dwcfi  save_reg_to_mem, 48, -28
    3110 000048 B578          PSH mmap(RSA0H)
         00004a 98   
    3111                      .dwcfi  cfa_offset, 29
    3112                      .dwcfi  save_reg_to_mem, 49, -29
    3113 00004b B57E          PSH mmap(REA0L)
TMS320C55x Assembler PC v4.4.1 Sat Sep 29 23:08:36 2018

Tools Copyright (c) 1996-2012 Texas Instruments Incorporated
csl_usb_intc_example.asm                                             PAGE   74

         00004d 98   
    3114                      .dwcfi  cfa_offset, 30
    3115                      .dwcfi  save_reg_to_mem, 50, -30
    3116 00004e B57C          PSH mmap(REA0H)
         000050 98   
    3117                      .dwcfi  cfa_offset, 31
    3118                      .dwcfi  save_reg_to_mem, 51, -31
    3119 000051 B574          PSH mmap(BRS1)
         000053 98   
    3120                      .dwcfi  cfa_offset, 32
    3121                      .dwcfi  save_reg_to_mem, 52, -32
    3122 000054 B572          PSH mmap(BRC1)
         000056 98   
    3123                      .dwcfi  cfa_offset, 33
    3124                      .dwcfi  save_reg_to_mem, 53, -33
    3125 000057 B582          PSH mmap(RSA1L)
         000059 98   
    3126                      .dwcfi  cfa_offset, 34
    3127                      .dwcfi  save_reg_to_mem, 54, -34
    3128 00005a B580          PSH mmap(RSA1H)
         00005c 98   
    3129                      .dwcfi  cfa_offset, 35
    3130                      .dwcfi  save_reg_to_mem, 55, -35
    3131 00005d B586          PSH mmap(REA1L)
         00005f 98   
    3132                      .dwcfi  cfa_offset, 36
    3133                      .dwcfi  save_reg_to_mem, 56, -36
    3134 000060 B584          PSH mmap(REA1H)
         000062 98   
    3135                      .dwcfi  cfa_offset, 37
    3136                      .dwcfi  save_reg_to_mem, 57, -37
    3137 000063 B576          PSH mmap(CSR)
         000065 98   
    3138                      .dwcfi  cfa_offset, 38
    3139                      .dwcfi  save_reg_to_mem, 58, -38
    3140 000066 B588          PSH mmap(RPTC)
         000068 98   
    3141                      .dwcfi  cfa_offset, 39
    3142                      .dwcfi  save_reg_to_mem, 59, -39
    3143 000069 5075          PSHBOTH XCDP
    3144                      .dwcfi  cfa_offset, 40
    3145                      .dwcfi  save_reg_to_mem, 60, -40
    3146 00006b B51E          PSH mmap(TRN0)
         00006d 98   
    3147                      .dwcfi  cfa_offset, 41
    3148                      .dwcfi  save_reg_to_mem, 62, -41
    3149 00006e B570          PSH mmap(TRN1)
         000070 98   
    3150                      .dwcfi  cfa_offset, 42
    3151                      .dwcfi  save_reg_to_mem, 63, -42
    3152 000071 B564          PSH mmap(BSA01)
         000073 98   
    3153                      .dwcfi  cfa_offset, 43
    3154                      .dwcfi  save_reg_to_mem, 64, -43
    3155 000074 B566          PSH mmap(BSA23)
TMS320C55x Assembler PC v4.4.1 Sat Sep 29 23:08:36 2018

Tools Copyright (c) 1996-2012 Texas Instruments Incorporated
csl_usb_intc_example.asm                                             PAGE   75

         000076 98   
    3156                      .dwcfi  cfa_offset, 44
    3157                      .dwcfi  save_reg_to_mem, 65, -44
    3158 000077 B568          PSH mmap(BSA45)
         000079 98   
    3159                      .dwcfi  cfa_offset, 45
    3160                      .dwcfi  save_reg_to_mem, 66, -45
    3161 00007a B56A          PSH mmap(BSA67)
         00007c 98   
    3162                      .dwcfi  cfa_offset, 46
    3163                      .dwcfi  save_reg_to_mem, 67, -46
    3164 00007d B56C          PSH mmap(BSAC)
         00007f 98   
    3165                      .dwcfi  cfa_offset, 47
    3166                      .dwcfi  save_reg_to_mem, 68, -47
    3167 000080 EC00          AMAR *SP(#0), XAR1
         000082 9E   
    3168 000083 F49A          AND #0xfffe, mmap(SP)
         000085 FFFE 
         000087 98   
    3169 000088 5096          PSH AR1
    3170 00008a 4EF9          AADD #-7, SP
    3171                      .dwcfi  cfa_offset, 53
    3172              $C$DW$242       .dwtag  DW_TAG_variable, DW_AT_name("tempEpH")
    3173                      .dwattr $C$DW$242, DW_AT_TI_symbol_name("_tempEpH")
    3174                      .dwattr $C$DW$242, DW_AT_type(*$C$DW$T$106)
    3175                      .dwattr $C$DW$242, DW_AT_location[DW_OP_bregx 0x24 4]
    3176                      .dwpsn  file "../c5535_bsl_revc/ezdsp5535_v1/c55xx_csl/ccs_v4.0_examples/usb/CSL_USB_IntcExample/csl_
    3177 00008c 7600          MOV #56, T0 ; |396| 
         00008e 3848 
    3178 000090 AB31          MOV *(#_usbRegisters), AR3 ; |396| 
         000092 0000 
         000094 00!  
    3179 000095 A96B          MOV port(*AR3(T0)), AR1 ; |396| 
         000097 99   
    3180 000098 ED31          MOV dbl(*(#_pContext)), XAR3
         00009a BF00 
         00009c 0076-
    3181 00009e C96D          MOV AR1, *AR3(#94) ; |396| 
         0000a0 005E 
    3182                      .dwpsn  file "../c5535_bsl_revc/ezdsp5535_v1/c55xx_csl/ccs_v4.0_examples/usb/CSL_USB_IntcExample/csl_
    3183 0000a2 7600          MOV #57, T0 ; |397| 
         0000a4 3948 
    3184 0000a6 AB31          MOV *(#_usbRegisters), AR3 ; |397| 
         0000a8 0000 
         0000aa 00!  
    3185 0000ab A96B          MOV port(*AR3(T0)), AR1 ; |397| 
         0000ad 99   
    3186 0000ae ED31          MOV dbl(*(#_pContext)), XAR3
         0000b0 BF00 
         0000b2 0076-
    3187 0000b4 C96D          MOV AR1, *AR3(#95) ; |397| 
         0000b6 005F 
    3188                      .dwpsn  file "../c5535_bsl_revc/ezdsp5535_v1/c55xx_csl/ccs_v4.0_examples/usb/CSL_USB_IntcExample/csl_
    3189 0000b8 ED31          MOV dbl(*(#_pContext)), XAR3
TMS320C55x Assembler PC v4.4.1 Sat Sep 29 23:08:36 2018

Tools Copyright (c) 1996-2012 Texas Instruments Incorporated
csl_usb_intc_example.asm                                             PAGE   76

         0000ba BF00 
         0000bc 0076-
    3190 0000be A96D          MOV *AR3(#94), AR1 ; |400| 
         0000c0 005E 
    3191 0000c2 0409          BCC $C$L68,AR1 == #0 ; |400| 
         0000c4 10   
    3192                                                      ; branchcc occurs ; |400| 
    3193                      .dwpsn  file "../c5535_bsl_revc/ezdsp5535_v1/c55xx_csl/ccs_v4.0_examples/usb/CSL_USB_IntcExample/csl_
    3194 0000c5 7600          MOV #40, T0 ; |402| 
         0000c7 2848 
    3195 0000c9 A96D          MOV *AR3(#94), AR1 ; |402| 
         0000cb 005E 
    3196 0000cd AB31          MOV *(#_usbRegisters), AR3 ; |402| 
         0000cf 0000 
         0000d1 00!  
    3197 0000d2 C96B          MOV AR1, port(*AR3(T0)) ; |402| 
         0000d4 9A   
    3198 0000d5       $C$L68:    
    3199                      .dwpsn  file "../c5535_bsl_revc/ezdsp5535_v1/c55xx_csl/ccs_v4.0_examples/usb/CSL_USB_IntcExample/csl_
    3200 0000d5 ED31          MOV dbl(*(#_pContext)), XAR3
         0000d7 BF00 
         0000d9 0076-
    3201 0000db A96D          MOV *AR3(#95), AR1 ; |405| 
         0000dd 005F 
    3202 0000df 0409          BCC $C$L69,AR1 == #0 ; |405| 
         0000e1 10   
    3203                                                      ; branchcc occurs ; |405| 
    3204                      .dwpsn  file "../c5535_bsl_revc/ezdsp5535_v1/c55xx_csl/ccs_v4.0_examples/usb/CSL_USB_IntcExample/csl_
    3205 0000e2 7600          MOV #41, T0 ; |407| 
         0000e4 2948 
    3206 0000e6 A96D          MOV *AR3(#95), AR1 ; |407| 
         0000e8 005F 
    3207 0000ea AB31          MOV *(#_usbRegisters), AR3 ; |407| 
         0000ec 0000 
         0000ee 00!  
    3208 0000ef C96B          MOV AR1, port(*AR3(T0)) ; |407| 
         0000f1 9A   
    3209 0000f2       $C$L69:    
    3210                      .dwpsn  file "../c5535_bsl_revc/ezdsp5535_v1/c55xx_csl/ccs_v4.0_examples/usb/CSL_USB_IntcExample/csl_
    3211 0000f2 ED31          MOV dbl(*(#_pContext)), XAR3
         0000f4 BF00 
         0000f6 0076-
    3212 0000f8 A96D          MOV *AR3(#94), AR1 ; |410| 
         0000fa 005E 
    3213 0000fc 6419          BCC $C$L70,AR1 != #0 ; |410| 
    3214                                                      ; branchcc occurs ; |410| 
    3215 0000fe A96D          MOV *AR3(#95), AR1 ; |410| 
         000100 005F 
    3216 000102 6D09          BCC $C$L107,AR1 == #0 ; |410| 
         000104 06C4 
    3217                                                      ; branchcc occurs ; |410| 
    3218 000106       $C$L70:    
    3219                      .dwpsn  file "../c5535_bsl_revc/ezdsp5535_v1/c55xx_csl/ccs_v4.0_examples/usb/CSL_USB_IntcExample/csl_
    3220 000106 DC6D          BTST #2, *AR3(#95), TC1 ; |413| 
         000108 2000 
TMS320C55x Assembler PC v4.4.1 Sat Sep 29 23:08:36 2018

Tools Copyright (c) 1996-2012 Texas Instruments Incorporated
csl_usb_intc_example.asm                                             PAGE   77

         00010a 5F   
    3221 00010b 0474          BCC $C$L72,!TC1 ; |413| 
         00010d 6A   
    3222                                                      ; branchcc occurs ; |413| 
    3223                      .dwpsn  file "../c5535_bsl_revc/ezdsp5535_v1/c55xx_csl/ccs_v4.0_examples/usb/CSL_USB_IntcExample/csl_
    3224 00010e 7604          MOV #1038, T0 ; |415| 
         000110 0E48 
    3225 000112 AB31          MOV *(#_usbRegisters), AR3 ; |415| 
         000114 0000 
         000116 00!  
    3226 000117 DF6B          MOV uns(low_byte(port(*AR3(T0)))), AR1 ; |415| 
         000119 93   
         00011a 99   
    3227 00011b C96B          MOV AR1, port(*AR3(T0)) ; |415| 
         00011d 9A   
    3228                      .dwpsn  file "../c5535_bsl_revc/ezdsp5535_v1/c55xx_csl/ccs_v4.0_examples/usb/CSL_USB_IntcExample/csl_
    3229 00011e F031          CMP *(#_usbBulkOutEpObj) == #9, TC1 ; |417| 
         000120 0009 
         000122 0000 
         000124 3A-  
    3230 000125 0474          BCC $C$L71,!TC1 ; |417| 
         000127 29   
    3231                                                      ; branchcc occurs ; |417| 
    3232                      .dwpsn  file "../c5535_bsl_revc/ezdsp5535_v1/c55xx_csl/ccs_v4.0_examples/usb/CSL_USB_IntcExample/csl_
    3233 000128 AB31          MOV *(#_usbRegisters), AR3 ; |419| 
         00012a 0000 
         00012c 00!  
    3234 00012d A96B          MOV port(*AR3(T0)), AR1 ; |419| 
         00012f 99   
    3235 000130 7DFF          AND #0xfff0, AR1, AC0 ; |419| 
         000132 F009 
    3236 000134 EC00          BSET @#0, AC0 ; |419| 
         000136 00   
    3237 000137 C06B          MOV AC0, port(*AR3(T0)) ; |419| 
         000139 9A   
    3238                      .dwpsn  file "../c5535_bsl_revc/ezdsp5535_v1/c55xx_csl/ccs_v4.0_examples/usb/CSL_USB_IntcExample/csl_
    3239 00013a 7604          MOV #1042, T0 ; |421| 
         00013c 1248 
    3240 00013e AB31          MOV *(#_usbRegisters), AR3 ; |421| 
         000140 0000 
         000142 00!  
    3241 000143 A96B          MOV port(*AR3(T0)), AR1 ; |421| 
         000145 99   
    3242 000146 EC00          BCLR @#0, AR1 ; |421| 
         000148 92   
    3243 000149 EC00          BSET @#0, AR1 ; |421| 
         00014b 90   
    3244 00014c C96B          MOV AR1, port(*AR3(T0)) ; |421| 
         00014e 9A   
    3245                      .dwpsn  file "../c5535_bsl_revc/ezdsp5535_v1/c55xx_csl/ccs_v4.0_examples/usb/CSL_USB_IntcExample/csl_
    3246 00014f 4A27          B $C$L72  ; |423| 
    3247                                                      ; branch occurs ; |423| 
    3248 000151       $C$L71:    
    3249                      .dwpsn  file "../c5535_bsl_revc/ezdsp5535_v1/c55xx_csl/ccs_v4.0_examples/usb/CSL_USB_IntcExample/csl_
    3250 000151 AB31          MOV *(#_usbRegisters), AR3 ; |426| 
TMS320C55x Assembler PC v4.4.1 Sat Sep 29 23:08:36 2018

Tools Copyright (c) 1996-2012 Texas Instruments Incorporated
csl_usb_intc_example.asm                                             PAGE   78

         000153 0000 
         000155 00!  
    3251 000156 A96B          MOV port(*AR3(T0)), AR1 ; |426| 
         000158 99   
    3252 000159 7DFF          AND #0xfff0, AR1, AC0 ; |426| 
         00015b F009 
    3253 00015d EC02          BSET @#1, AC0 ; |426| 
         00015f 00   
    3254 000160 C06B          MOV AC0, port(*AR3(T0)) ; |426| 
         000162 9A   
    3255                      .dwpsn  file "../c5535_bsl_revc/ezdsp5535_v1/c55xx_csl/ccs_v4.0_examples/usb/CSL_USB_IntcExample/csl_
    3256 000163 7604          MOV #1042, T0 ; |428| 
         000165 1248 
    3257 000167 AB31          MOV *(#_usbRegisters), AR3 ; |428| 
         000169 0000 
         00016b 00!  
    3258 00016c A96B          MOV port(*AR3(T0)), AR1 ; |428| 
         00016e 99   
    3259 00016f EC00          BCLR @#0, AR1 ; |428| 
         000171 92   
    3260 000172 EC00          BSET @#0, AR1 ; |428| 
         000174 90   
    3261 000175 C96B          MOV AR1, port(*AR3(T0)) ; |428| 
         000177 9A   
    3262 000178       $C$L72:    
    3263                      .dwpsn  file "../c5535_bsl_revc/ezdsp5535_v1/c55xx_csl/ccs_v4.0_examples/usb/CSL_USB_IntcExample/csl_
    3264 000178 ED31          MOV dbl(*(#_pContext)), XAR3
         00017a BF00 
         00017c 0076-
    3265 00017e DC6D          BTST #1, *AR3(#95), TC1 ; |434| 
         000180 1000 
         000182 5F   
    3266 000183 0474          BCC $C$L73,!TC1 ; |434| 
         000185 3D   
    3267                                                      ; branchcc occurs ; |434| 
    3268                      .dwpsn  file "../c5535_bsl_revc/ezdsp5535_v1/c55xx_csl/ccs_v4.0_examples/usb/CSL_USB_IntcExample/csl_
    3269 000186 4617          BSET ST3_SMUL
    3270              
    3271 000188 3C04          MOV #0, T0
    3272 00018a 4756  ||      BCLR ST3_SATA
    3273              
    3274              $C$DW$243       .dwtag  DW_TAG_TI_branch
    3275                      .dwattr $C$DW$243, DW_AT_low_pc(0x00)
    3276                      .dwattr $C$DW$243, DW_AT_name("_USB_setRemoteWakeup")
    3277                      .dwattr $C$DW$243, DW_AT_TI_call
    3278              
    3279 00018c 6C00          CALL #_USB_setRemoteWakeup ; |436| 
         00018e 0000!
    3280 000190 3D15  ||      MOV #1, T1
    3281              
    3282                                                      ; call occurs [#_USB_setRemoteWakeup] ; |436| 
    3283                      .dwpsn  file "../c5535_bsl_revc/ezdsp5535_v1/c55xx_csl/ccs_v4.0_examples/usb/CSL_USB_IntcExample/csl_
    3284 000192 3C15          MOV #1, T1
    3285              $C$DW$244       .dwtag  DW_TAG_TI_branch
    3286                      .dwattr $C$DW$244, DW_AT_low_pc(0x00)
TMS320C55x Assembler PC v4.4.1 Sat Sep 29 23:08:36 2018

Tools Copyright (c) 1996-2012 Texas Instruments Incorporated
csl_usb_intc_example.asm                                             PAGE   79

    3287                      .dwattr $C$DW$244, DW_AT_name("_USB_issueRemoteWakeup")
    3288                      .dwattr $C$DW$244, DW_AT_TI_call
    3289              
    3290 000194 6C00          CALL #_USB_issueRemoteWakeup ; |437| 
         000196 0000!
    3291 000198 3D04  ||      MOV #0, T0
    3292              
    3293                                                      ; call occurs [#_USB_issueRemoteWakeup] ; |437| 
    3294 00019a C431          MOV T0, *(#_status) ; |437| 
         00019c 0000 
         00019e 75-  
    3295                      .dwpsn  file "../c5535_bsl_revc/ezdsp5535_v1/c55xx_csl/ccs_v4.0_examples/usb/CSL_USB_IntcExample/csl_
    3296              $C$DW$245       .dwtag  DW_TAG_TI_branch
    3297                      .dwattr $C$DW$245, DW_AT_low_pc(0x00)
    3298                      .dwattr $C$DW$245, DW_AT_name("_USB_delay")
    3299                      .dwattr $C$DW$245, DW_AT_TI_call
    3300              
    3301 00019f 6C00          CALL #_USB_delay ; |439| 
         0001a1 0BF4'
    3302 0001a3 3DA0  ||      MOV #10, AC0 ; |439| 
    3303              
    3304                                                      ; call occurs [#_USB_delay] ; |439| 
    3305                      .dwpsn  file "../c5535_bsl_revc/ezdsp5535_v1/c55xx_csl/ccs_v4.0_examples/usb/CSL_USB_IntcExample/csl_
    3306 0001a5 3C04          MOV #0, T0
    3307              $C$DW$246       .dwtag  DW_TAG_TI_branch
    3308                      .dwattr $C$DW$246, DW_AT_low_pc(0x00)
    3309                      .dwattr $C$DW$246, DW_AT_name("_USB_issueRemoteWakeup")
    3310                      .dwattr $C$DW$246, DW_AT_TI_call
    3311              
    3312 0001a7 6C00          CALL #_USB_issueRemoteWakeup ; |440| 
         0001a9 0000!
    3313 0001ab 3D05  ||      MOV #0, T1
    3314              
    3315                                                      ; call occurs [#_USB_issueRemoteWakeup] ; |440| 
    3316 0001ad C431          MOV T0, *(#_status) ; |440| 
         0001af 0000 
         0001b1 75-  
    3317                      .dwpsn  file "../c5535_bsl_revc/ezdsp5535_v1/c55xx_csl/ccs_v4.0_examples/usb/CSL_USB_IntcExample/csl_
    3318 0001b2 2249          MOV T0, AR1
    3319 0001b4 6689          BCC $C$L73,AR1 == #0 ; |441| 
    3320                                                      ; branchcc occurs ; |441| 
    3321                      .dwpsn  file "../c5535_bsl_revc/ezdsp5535_v1/c55xx_csl/ccs_v4.0_examples/usb/CSL_USB_IntcExample/csl_
    3322 0001b6 EC31          AMOV #$C$FSL11, XAR3 ; |443| 
         0001b8 BE00 
         0001ba 00E8+
    3323 0001bc EB00          MOV XAR3, dbl(*SP(#0))
         0001be B5   
    3324              $C$DW$247       .dwtag  DW_TAG_TI_branch
    3325                      .dwattr $C$DW$247, DW_AT_low_pc(0x00)
    3326                      .dwattr $C$DW$247, DW_AT_name("_printf")
    3327                      .dwattr $C$DW$247, DW_AT_TI_call
    3328 0001bf 6C00          CALL #_printf ; |443| 
         0001c1 0000!
    3329                                                      ; call occurs [#_printf] ; |443| 
    3330 0001c3       $C$L73:    
TMS320C55x Assembler PC v4.4.1 Sat Sep 29 23:08:36 2018

Tools Copyright (c) 1996-2012 Texas Instruments Incorporated
csl_usb_intc_example.asm                                             PAGE   80

    3331                      .dwpsn  file "../c5535_bsl_revc/ezdsp5535_v1/c55xx_csl/ccs_v4.0_examples/usb/CSL_USB_IntcExample/csl_
    3332 0001c3 ED31          MOV dbl(*(#_pContext)), XAR3
         0001c5 BF00 
         0001c7 0076-
    3333 0001c9 DC6D          BTST #0, *AR3(#94), TC1 ; |448| 
         0001cb 0000 
         0001cd 5E   
    3334 0001ce 6D74          BCC $C$L96,!TC1 ; |448| 
         0001d0 03F2 
    3335                                                      ; branchcc occurs ; |448| 
    3336                      .dwpsn  file "../c5535_bsl_revc/ezdsp5535_v1/c55xx_csl/ccs_v4.0_examples/usb/CSL_USB_IntcExample/csl_
    3337 0001d2 7604          MOV #1038, T0 ; |450| 
         0001d4 0E48 
    3338 0001d6 AB31          MOV *(#_usbRegisters), AR3 ; |450| 
         0001d8 0000 
         0001da 00!  
    3339 0001db A96B          MOV port(*AR3(T0)), AR1 ; |450| 
         0001dd 99   
    3340 0001de C931          MOV AR1, *(#_saveIndex) ; |450| 
         0001e0 0001 
         0001e2 80-  
    3341                      .dwpsn  file "../c5535_bsl_revc/ezdsp5535_v1/c55xx_csl/ccs_v4.0_examples/usb/CSL_USB_IntcExample/csl_
    3342 0001e3 A96B          MOV port(*AR3(T0)), AR1 ; |451| 
         0001e5 99   
    3343 0001e6 7DFF          AND #0xfff0, AR1, AC0 ; |451| 
         0001e8 F009 
    3344 0001ea C06B          MOV AC0, port(*AR3(T0)) ; |451| 
         0001ec 9A   
    3345                      .dwpsn  file "../c5535_bsl_revc/ezdsp5535_v1/c55xx_csl/ccs_v4.0_examples/usb/CSL_USB_IntcExample/csl_
    3346 0001ed 4617          BSET ST3_SMUL
    3347 0001ef EC31          AMOV #_usbSetup, XAR0 ; |454| 
         0001f1 8E00 
         0001f3 006E-
    3348              
    3349 0001f5 3C15          MOV #1, T1
    3350 0001f7 4756  ||      BCLR ST3_SATA
    3351              
    3352              $C$DW$248       .dwtag  DW_TAG_TI_branch
    3353                      .dwattr $C$DW$248, DW_AT_low_pc(0x00)
    3354                      .dwattr $C$DW$248, DW_AT_name("_USB_getSetupPacket")
    3355                      .dwattr $C$DW$248, DW_AT_TI_call
    3356              
    3357 0001f9 6C00          CALL #_USB_getSetupPacket ; |454| 
         0001fb 0000!
    3358 0001fd 3D04  ||      MOV #0, T0
    3359              
    3360                                                      ; call occurs [#_USB_getSetupPacket] ; |454| 
    3361                      .dwpsn  file "../c5535_bsl_revc/ezdsp5535_v1/c55xx_csl/ccs_v4.0_examples/usb/CSL_USB_IntcExample/csl_
    3362 0001ff 7604          MOV #1042, T0 ; |456| 
         000201 1248 
    3363 000203 AB31          MOV *(#_usbRegisters), AR3 ; |456| 
         000205 0000 
         000207 00!  
    3364 000208 A96B          MOV port(*AR3(T0)), AR1 ; |456| 
         00020a 99   
TMS320C55x Assembler PC v4.4.1 Sat Sep 29 23:08:36 2018

Tools Copyright (c) 1996-2012 Texas Instruments Incorporated
csl_usb_intc_example.asm                                             PAGE   81

    3365              
    3366 00020b 1801          AND #0x0001, AR1, AR1 ; |456| 
         00020d 99   
    3367 00020e 3D1A  ||      MOV #1, AR2
    3368              
    3369 000210 129C          CMPU AR1 != AR2, TC1 ; |456| 
         000212 A4   
    3370 000213 6D64          BCC $C$L94,TC1 ; |456| 
         000215 0388 
    3371                                                      ; branchcc occurs ; |456| 
    3372                      .dwpsn  file "../c5535_bsl_revc/ezdsp5535_v1/c55xx_csl/ccs_v4.0_examples/usb/CSL_USB_IntcExample/csl_
    3373 000217 A96B          MOV port(*AR3(T0)), AR1 ; |460| 
         000219 99   
    3374 00021a EC0C          BCLR @#6, AR1 ; |460| 
         00021c 92   
    3375 00021d EC0C          BSET @#6, AR1 ; |460| 
         00021f 90   
    3376 000220 C96B          MOV AR1, port(*AR3(T0)) ; |460| 
         000222 9A   
    3377                      .dwpsn  file "../c5535_bsl_revc/ezdsp5535_v1/c55xx_csl/ccs_v4.0_examples/usb/CSL_USB_IntcExample/csl_
    3378 000223 0603          B $C$L92  ; |464| 
         000225 35   
    3379                                                      ; branch occurs ; |464| 
    3380 000226       $C$L74:    
    3381                      .dwpsn  file "../c5535_bsl_revc/ezdsp5535_v1/c55xx_csl/ccs_v4.0_examples/usb/CSL_USB_IntcExample/csl_
    3382 000226 DF31          MOV uns(low_byte(*(#(_usbSetup+4)))), AR1 ; |474| 
         000228 9300 
         00022a 0072-
    3383 00022c C931          MOV AR1, *(#_endpt) ; |474| 
         00022e 0001 
         000230 81-  
    3384                      .dwpsn  file "../c5535_bsl_revc/ezdsp5535_v1/c55xx_csl/ccs_v4.0_examples/usb/CSL_USB_IntcExample/csl_
    3385 000231 2295          MOV AR1, T1
    3386              $C$DW$249       .dwtag  DW_TAG_TI_branch
    3387                      .dwattr $C$DW$249, DW_AT_low_pc(0x00)
    3388                      .dwattr $C$DW$249, DW_AT_name("_USB_epNumToHandle")
    3389                      .dwattr $C$DW$249, DW_AT_TI_call
    3390              
    3391 000233 6C00          CALL #_USB_epNumToHandle ; |475| 
         000235 0000!
    3392 000237 3D04  ||      MOV #0, T0
    3393              
    3394                                                      ; call occurs [#_USB_epNumToHandle] ; |475| 
    3395 000239 EB31          MOV XAR0, dbl(*(#_hEPx))
         00023b 8500 
         00023d 0010-
    3396                      .dwpsn  file "../c5535_bsl_revc/ezdsp5535_v1/c55xx_csl/ccs_v4.0_examples/usb/CSL_USB_IntcExample/csl_
    3397 00023f EC31          AMOV #_status, XAR1 ; |476| 
         000241 9E00 
         000243 0075-
    3398              $C$DW$250       .dwtag  DW_TAG_TI_branch
    3399                      .dwattr $C$DW$250, DW_AT_low_pc(0x00)
    3400                      .dwattr $C$DW$250, DW_AT_name("_USB_getEndptStall")
    3401                      .dwattr $C$DW$250, DW_AT_TI_call
    3402 000245 6C00          CALL #_USB_getEndptStall ; |476| 
TMS320C55x Assembler PC v4.4.1 Sat Sep 29 23:08:36 2018

Tools Copyright (c) 1996-2012 Texas Instruments Incorporated
csl_usb_intc_example.asm                                             PAGE   82

         000247 0000!
    3403                                                      ; call occurs [#_USB_getEndptStall] ; |476| 
    3404 000249 0414          BCC $C$L77,T0 != #0 ; |476| 
         00024b 2F   
    3405                                                      ; branchcc occurs ; |476| 
    3406                      .dwpsn  file "../c5535_bsl_revc/ezdsp5535_v1/c55xx_csl/ccs_v4.0_examples/usb/CSL_USB_IntcExample/csl_
    3407 00024c ED31          MOV dbl(*(#_hEPx)), XAR0
         00024e 8F00 
         000250 0010-
    3408              $C$DW$251       .dwtag  DW_TAG_TI_branch
    3409                      .dwattr $C$DW$251, DW_AT_low_pc(0x00)
    3410                      .dwattr $C$DW$251, DW_AT_name("_USB_stallEndpt")
    3411                      .dwattr $C$DW$251, DW_AT_TI_call
    3412 000252 6C00          CALL #_USB_stallEndpt ; |478| 
         000254 0000!
    3413                                                      ; call occurs [#_USB_stallEndpt] ; |478| 
    3414                      .dwpsn  file "../c5535_bsl_revc/ezdsp5535_v1/c55xx_csl/ccs_v4.0_examples/usb/CSL_USB_IntcExample/csl_
    3415 000256 4A23          B $C$L77  ; |480| 
    3416                                                      ; branch occurs ; |480| 
    3417 000258       $C$L75:    
    3418                      .dwpsn  file "../c5535_bsl_revc/ezdsp5535_v1/c55xx_csl/ccs_v4.0_examples/usb/CSL_USB_IntcExample/csl_
    3419              $C$DW$252       .dwtag  DW_TAG_TI_branch
    3420                      .dwattr $C$DW$252, DW_AT_low_pc(0x00)
    3421                      .dwattr $C$DW$252, DW_AT_name("_USB_getRemoteWakeupStat")
    3422                      .dwattr $C$DW$252, DW_AT_TI_call
    3423              
    3424 000258 6C00          CALL #_USB_getRemoteWakeupStat ; |483| 
         00025a 0000!
    3425 00025c 3D04  ||      MOV #0, T0
    3426              
    3427                                                      ; call occurs [#_USB_getRemoteWakeupStat] ; |483| 
    3428 00025e 0414          BCC $C$L77,T0 != #0 ; |483| 
         000260 1A   
    3429                                                      ; branchcc occurs ; |483| 
    3430                      .dwpsn  file "../c5535_bsl_revc/ezdsp5535_v1/c55xx_csl/ccs_v4.0_examples/usb/CSL_USB_IntcExample/csl_
    3431 000261 3C04          MOV #0, T0
    3432              $C$DW$253       .dwtag  DW_TAG_TI_branch
    3433                      .dwattr $C$DW$253, DW_AT_low_pc(0x00)
    3434                      .dwattr $C$DW$253, DW_AT_name("_USB_setRemoteWakeup")
    3435                      .dwattr $C$DW$253, DW_AT_TI_call
    3436              
    3437 000263 6C00          CALL #_USB_setRemoteWakeup ; |485| 
         000265 0000!
    3438 000267 3D15  ||      MOV #1, T1
    3439              
    3440                                                      ; call occurs [#_USB_setRemoteWakeup] ; |485| 
    3441                      .dwpsn  file "../c5535_bsl_revc/ezdsp5535_v1/c55xx_csl/ccs_v4.0_examples/usb/CSL_USB_IntcExample/csl_
    3442 000269 4A10          B $C$L77  ; |487| 
    3443                                                      ; branch occurs ; |487| 
    3444 00026b       $C$L76:    
    3445                      .dwpsn  file "../c5535_bsl_revc/ezdsp5535_v1/c55xx_csl/ccs_v4.0_examples/usb/CSL_USB_IntcExample/csl_
    3446 00026b A931          MOV *(#(_usbSetup+3)), AR1 ; |468| 
         00026d 0000 
         00026f 71-  
    3447 000270 0409          BCC $C$L74,AR1 == #0 ; |468| 
TMS320C55x Assembler PC v4.4.1 Sat Sep 29 23:08:36 2018

Tools Copyright (c) 1996-2012 Texas Instruments Incorporated
csl_usb_intc_example.asm                                             PAGE   83

         000272 B3   
    3448                                                      ; branchcc occurs ; |468| 
    3449 000273 3C1A          MOV #1, AR2
    3450 000275 1290          CMPU AR1 == AR2, TC1 ; |468| 
         000277 A4   
    3451 000278 0464          BCC $C$L75,TC1 ; |468| 
         00027a DD   
    3452                                                      ; branchcc occurs ; |468| 
    3453 00027b       $C$L77:    
    3454                      .dwpsn  file "../c5535_bsl_revc/ezdsp5535_v1/c55xx_csl/ccs_v4.0_examples/usb/CSL_USB_IntcExample/csl_
    3455 00027b 7604          MOV #1042, T0 ; |493| 
         00027d 1248 
    3456 00027f AB31          MOV *(#_usbRegisters), AR3 ; |493| 
         000281 0000 
         000283 00!  
    3457 000284 A96B          MOV port(*AR3(T0)), AR1 ; |493| 
         000286 99   
    3458 000287 EC0C          BCLR @#6, AR1 ; |493| 
         000289 92   
    3459 00028a EC0C          BSET @#6, AR1 ; |493| 
         00028c 90   
    3460 00028d C96B          MOV AR1, port(*AR3(T0)) ; |493| 
         00028f 9A   
    3461                      .dwpsn  file "../c5535_bsl_revc/ezdsp5535_v1/c55xx_csl/ccs_v4.0_examples/usb/CSL_USB_IntcExample/csl_
    3462 000290 AB31          MOV *(#_usbRegisters), AR3 ; |495| 
         000292 0000 
         000294 00!  
    3463 000295 A96B          MOV port(*AR3(T0)), AR1 ; |495| 
         000297 99   
    3464 000298 EC06          BCLR @#3, AR1 ; |495| 
         00029a 92   
    3465 00029b EC06          BSET @#3, AR1 ; |495| 
         00029d 90   
    3466 00029e C96B          MOV AR1, port(*AR3(T0)) ; |495| 
         0002a0 9A   
    3467                      .dwpsn  file "../c5535_bsl_revc/ezdsp5535_v1/c55xx_csl/ccs_v4.0_examples/usb/CSL_USB_IntcExample/csl_
    3468 0002a1 0603          B $C$L95  ; |497| 
         0002a3 0F   
    3469                                                      ; branch occurs ; |497| 
    3470 0002a4       $C$L78:    
    3471                      .dwpsn  file "../c5535_bsl_revc/ezdsp5535_v1/c55xx_csl/ccs_v4.0_examples/usb/CSL_USB_IntcExample/csl_
    3472 0002a4 DF31          MOV uns(low_byte(*(#(_usbSetup+4)))), AR1 ; |503| 
         0002a6 9300 
         0002a8 0072-
    3473 0002aa C931          MOV AR1, *(#_endpt) ; |503| 
         0002ac 0001 
         0002ae 81-  
    3474                      .dwpsn  file "../c5535_bsl_revc/ezdsp5535_v1/c55xx_csl/ccs_v4.0_examples/usb/CSL_USB_IntcExample/csl_
    3475 0002af 2295          MOV AR1, T1
    3476              $C$DW$254       .dwtag  DW_TAG_TI_branch
    3477                      .dwattr $C$DW$254, DW_AT_low_pc(0x00)
    3478                      .dwattr $C$DW$254, DW_AT_name("_USB_epNumToHandle")
    3479                      .dwattr $C$DW$254, DW_AT_TI_call
    3480              
    3481 0002b1 6C00          CALL #_USB_epNumToHandle ; |504| 
TMS320C55x Assembler PC v4.4.1 Sat Sep 29 23:08:36 2018

Tools Copyright (c) 1996-2012 Texas Instruments Incorporated
csl_usb_intc_example.asm                                             PAGE   84

         0002b3 0000!
    3482 0002b5 3D04  ||      MOV #0, T0
    3483              
    3484                                                      ; call occurs [#_USB_epNumToHandle] ; |504| 
    3485 0002b7 EB31          MOV XAR0, dbl(*(#_hEPx))
         0002b9 8500 
         0002bb 0010-
    3486                      .dwpsn  file "../c5535_bsl_revc/ezdsp5535_v1/c55xx_csl/ccs_v4.0_examples/usb/CSL_USB_IntcExample/csl_
    3487 0002bd EC31          AMOV #_status, XAR1 ; |505| 
         0002bf 9E00 
         0002c1 0075-
    3488              $C$DW$255       .dwtag  DW_TAG_TI_branch
    3489                      .dwattr $C$DW$255, DW_AT_low_pc(0x00)
    3490                      .dwattr $C$DW$255, DW_AT_name("_USB_getEndptStall")
    3491                      .dwattr $C$DW$255, DW_AT_TI_call
    3492 0002c3 6C00          CALL #_USB_getEndptStall ; |505| 
         0002c5 0000!
    3493                                                      ; call occurs [#_USB_getEndptStall] ; |505| 
    3494 0002c7 6D04          BCC $C$L95,T0 == #0 ; |505| 
         0002c9 02E8 
    3495                                                      ; branchcc occurs ; |505| 
    3496                      .dwpsn  file "../c5535_bsl_revc/ezdsp5535_v1/c55xx_csl/ccs_v4.0_examples/usb/CSL_USB_IntcExample/csl_
    3497 0002cb ED31          MOV dbl(*(#_hEPx)), XAR0
         0002cd 8F00 
         0002cf 0010-
    3498              $C$DW$256       .dwtag  DW_TAG_TI_branch
    3499                      .dwattr $C$DW$256, DW_AT_low_pc(0x00)
    3500                      .dwattr $C$DW$256, DW_AT_name("_USB_clearEndptStall")
    3501                      .dwattr $C$DW$256, DW_AT_TI_call
    3502 0002d1 6C00          CALL #_USB_clearEndptStall ; |507| 
         0002d3 0000!
    3503                                                      ; call occurs [#_USB_clearEndptStall] ; |507| 
    3504                      .dwpsn  file "../c5535_bsl_revc/ezdsp5535_v1/c55xx_csl/ccs_v4.0_examples/usb/CSL_USB_IntcExample/csl_
    3505 0002d5 0602          B $C$L95  ; |509| 
         0002d7 DB   
    3506                                                      ; branch occurs ; |509| 
    3507 0002d8       $C$L79:    
    3508                      .dwpsn  file "../c5535_bsl_revc/ezdsp5535_v1/c55xx_csl/ccs_v4.0_examples/usb/CSL_USB_IntcExample/csl_
    3509              $C$DW$257       .dwtag  DW_TAG_TI_branch
    3510                      .dwattr $C$DW$257, DW_AT_low_pc(0x00)
    3511                      .dwattr $C$DW$257, DW_AT_name("_USB_getRemoteWakeupStat")
    3512                      .dwattr $C$DW$257, DW_AT_TI_call
    3513              
    3514 0002d8 6C00          CALL #_USB_getRemoteWakeupStat ; |512| 
         0002da 0000!
    3515 0002dc 3D04  ||      MOV #0, T0
    3516              
    3517                                                      ; call occurs [#_USB_getRemoteWakeupStat] ; |512| 
    3518 0002de 6D04          BCC $C$L95,T0 == #0 ; |512| 
         0002e0 02D1 
    3519                                                      ; branchcc occurs ; |512| 
    3520                      .dwpsn  file "../c5535_bsl_revc/ezdsp5535_v1/c55xx_csl/ccs_v4.0_examples/usb/CSL_USB_IntcExample/csl_
    3521 0002e2 3C04          MOV #0, T0
    3522              $C$DW$258       .dwtag  DW_TAG_TI_branch
    3523                      .dwattr $C$DW$258, DW_AT_low_pc(0x00)
TMS320C55x Assembler PC v4.4.1 Sat Sep 29 23:08:36 2018

Tools Copyright (c) 1996-2012 Texas Instruments Incorporated
csl_usb_intc_example.asm                                             PAGE   85

    3524                      .dwattr $C$DW$258, DW_AT_name("_USB_setRemoteWakeup")
    3525                      .dwattr $C$DW$258, DW_AT_TI_call
    3526              
    3527 0002e4 6C00          CALL #_USB_setRemoteWakeup ; |514| 
         0002e6 0000!
    3528 0002e8 3D05  ||      MOV #0, T1
    3529              
    3530                                                      ; call occurs [#_USB_setRemoteWakeup] ; |514| 
    3531                      .dwpsn  file "../c5535_bsl_revc/ezdsp5535_v1/c55xx_csl/ccs_v4.0_examples/usb/CSL_USB_IntcExample/csl_
    3532 0002ea 0602          B $C$L95  ; |517| 
         0002ec C6   
    3533                                                      ; branch occurs ; |517| 
    3534 0002ed       $C$L80:    
    3535                      .dwpsn  file "../c5535_bsl_revc/ezdsp5535_v1/c55xx_csl/ccs_v4.0_examples/usb/CSL_USB_IntcExample/csl_
    3536 0002ed A931          MOV *(#(_usbSetup+3)), AR1 ; |500| 
         0002ef 0000 
         0002f1 71-  
    3537 0002f2 0409          BCC $C$L78,AR1 == #0 ; |500| 
         0002f4 AF   
    3538                                                      ; branchcc occurs ; |500| 
    3539 0002f5 1290          CMPU AR1 == AR2, TC1 ; |500| 
         0002f7 A4   
    3540 0002f8 0464          BCC $C$L79,TC1 ; |500| 
         0002fa DD   
    3541                                                      ; branchcc occurs ; |500| 
    3542 0002fb 0602          B $C$L95  ; |500| 
         0002fd B5   
    3543                                                      ; branch occurs ; |500| 
    3544 0002fe       $C$L81:    
    3545                      .dwpsn  file "../c5535_bsl_revc/ezdsp5535_v1/c55xx_csl/ccs_v4.0_examples/usb/CSL_USB_IntcExample/csl_
    3546 0002fe DF31          MOV uns(low_byte(*(#(_usbSetup+4)))), AR1 ; |526| 
         000300 9300 
         000302 0072-
    3547 000304 C931          MOV AR1, *(#_endpt) ; |526| 
         000306 0001 
         000308 81-  
    3548                      .dwpsn  file "../c5535_bsl_revc/ezdsp5535_v1/c55xx_csl/ccs_v4.0_examples/usb/CSL_USB_IntcExample/csl_
    3549 000309 3C04          MOV #0, T0
    3550              $C$DW$259       .dwtag  DW_TAG_TI_branch
    3551                      .dwattr $C$DW$259, DW_AT_low_pc(0x00)
    3552                      .dwattr $C$DW$259, DW_AT_name("_USB_epNumToHandle")
    3553                      .dwattr $C$DW$259, DW_AT_TI_call
    3554              
    3555 00030b 6C00          CALL #_USB_epNumToHandle ; |527| 
         00030d 0000!
    3556 00030f 2395  ||      MOV AR1, T1
    3557              
    3558                                                      ; call occurs [#_USB_epNumToHandle] ; |527| 
    3559 000311 EB31          MOV XAR0, dbl(*(#_hEPx))
         000313 8500 
         000315 0010-
    3560                      .dwpsn  file "../c5535_bsl_revc/ezdsp5535_v1/c55xx_csl/ccs_v4.0_examples/usb/CSL_USB_IntcExample/csl_
    3561 000317 3C04          MOV #0, T0
    3562 000319 EC31          AMOV #0, XAR1 ; |528| 
         00031b 9E00 
TMS320C55x Assembler PC v4.4.1 Sat Sep 29 23:08:36 2018

Tools Copyright (c) 1996-2012 Texas Instruments Incorporated
csl_usb_intc_example.asm                                             PAGE   86

         00031d 0000 
    3563              $C$DW$260       .dwtag  DW_TAG_TI_branch
    3564                      .dwattr $C$DW$260, DW_AT_low_pc(0x00)
    3565                      .dwattr $C$DW$260, DW_AT_name("_USB_postTransaction")
    3566                      .dwattr $C$DW$260, DW_AT_TI_call
    3567              
    3568 00031f 6C00          CALL #_USB_postTransaction ; |528| 
         000321 0000!
    3569 000323 3D05  ||      MOV #0, T1
    3570              
    3571                                                      ; call occurs [#_USB_postTransaction] ; |528| 
    3572                      .dwpsn  file "../c5535_bsl_revc/ezdsp5535_v1/c55xx_csl/ccs_v4.0_examples/usb/CSL_USB_IntcExample/csl_
    3573 000325 7604          MOV #1042, T0 ; |532| 
         000327 1248 
    3574 000329 AB31          MOV *(#_usbRegisters), AR3 ; |532| 
         00032b 0000 
         00032d 00!  
    3575 00032e A96B          MOV port(*AR3(T0)), AR1 ; |532| 
         000330 99   
    3576 000331 EC0C          BCLR @#6, AR1 ; |532| 
         000333 92   
    3577 000334 EC0C          BSET @#6, AR1 ; |532| 
         000336 90   
    3578 000337 C96B          MOV AR1, port(*AR3(T0)) ; |532| 
         000339 9A   
    3579                      .dwpsn  file "../c5535_bsl_revc/ezdsp5535_v1/c55xx_csl/ccs_v4.0_examples/usb/CSL_USB_IntcExample/csl_
    3580 00033a AB31          MOV *(#_usbRegisters), AR3 ; |534| 
         00033c 0000 
         00033e 00!  
    3581 00033f A96B          MOV port(*AR3(T0)), AR1 ; |534| 
         000341 99   
    3582 000342 EC06          BCLR @#3, AR1 ; |534| 
         000344 92   
    3583 000345 EC06          BSET @#3, AR1 ; |534| 
         000347 90   
    3584 000348 C96B          MOV AR1, port(*AR3(T0)) ; |534| 
         00034a 9A   
    3585                      .dwpsn  file "../c5535_bsl_revc/ezdsp5535_v1/c55xx_csl/ccs_v4.0_examples/usb/CSL_USB_IntcExample/csl_
    3586 00034b 0602          B $C$L95  ; |536| 
         00034d 65   
    3587                                                      ; branch occurs ; |536| 
    3588 00034e       $C$L82:    
    3589                      .dwpsn  file "../c5535_bsl_revc/ezdsp5535_v1/c55xx_csl/ccs_v4.0_examples/usb/CSL_USB_IntcExample/csl_
    3590 00034e EC31          AMOV #_deviceDesc, XAR3 ; |543| 
         000350 BE00 
         000352 0184-
    3591 000354 EB31          MOV XAR3, dbl(*(#_deviceDescPtr))
         000356 B500 
         000358 0178-
    3592                      .dwpsn  file "../c5535_bsl_revc/ezdsp5535_v1/c55xx_csl/ccs_v4.0_examples/usb/CSL_USB_IntcExample/csl_
    3593 00035a ED31          MOV dbl(*(#(_hEpObjArray+2))), XAR0
         00035c 8F00 
         00035e 0002-
    3594 000360 DF31          MOV uns(low_byte(*(#_deviceDesc))), T0 ; |544| 
         000362 4300 
TMS320C55x Assembler PC v4.4.1 Sat Sep 29 23:08:36 2018

Tools Copyright (c) 1996-2012 Texas Instruments Incorporated
csl_usb_intc_example.asm                                             PAGE   87

         000364 0184-
    3595 000366 7600          MOV #128, T1 ; |544| 
         000368 8058 
    3596 00036a ED31          MOV dbl(*(#_deviceDescPtr)), XAR1
         00036c 9F00 
         00036e 0178-
    3597              $C$DW$261       .dwtag  DW_TAG_TI_branch
    3598                      .dwattr $C$DW$261, DW_AT_low_pc(0x00)
    3599                      .dwattr $C$DW$261, DW_AT_name("_USB_postTransaction")
    3600                      .dwattr $C$DW$261, DW_AT_TI_call
    3601 000370 6C00          CALL #_USB_postTransaction ; |544| 
         000372 0000!
    3602                                                      ; call occurs [#_USB_postTransaction] ; |544| 
    3603 000374 C431          MOV T0, *(#_status) ; |544| 
         000376 0000 
         000378 75-  
    3604                      .dwpsn  file "../c5535_bsl_revc/ezdsp5535_v1/c55xx_csl/ccs_v4.0_examples/usb/CSL_USB_IntcExample/csl_
    3605 000379 0601          B $C$L90  ; |547| 
         00037b 63   
    3606                                                      ; branch occurs ; |547| 
    3607 00037c       $C$L83:    
    3608                      .dwpsn  file "../c5535_bsl_revc/ezdsp5535_v1/c55xx_csl/ccs_v4.0_examples/usb/CSL_USB_IntcExample/csl_
    3609 00037c F031          CMP *(#(_usbSetup+5)) == #9, TC1 ; |550| 
         00037e 0009 
         000380 0000 
         000382 73-  
    3610 000383 0474          BCC $C$L84,!TC1 ; |550| 
         000385 2A   
    3611                                                      ; branchcc occurs ; |550| 
    3612                      .dwpsn  file "../c5535_bsl_revc/ezdsp5535_v1/c55xx_csl/ccs_v4.0_examples/usb/CSL_USB_IntcExample/csl_
    3613 000386 EC31          AMOV #_cfgDesc, XAR3 ; |552| 
         000388 BE00 
         00038a 018D-
    3614 00038c EB31          MOV XAR3, dbl(*(#_cfgDescPtr))
         00038e B500 
         000390 017A-
    3615                      .dwpsn  file "../c5535_bsl_revc/ezdsp5535_v1/c55xx_csl/ccs_v4.0_examples/usb/CSL_USB_IntcExample/csl_
    3616 000392 ED31          MOV dbl(*(#(_hEpObjArray+2))), XAR0
         000394 8F00 
         000396 0002-
    3617 000398 7600          MOV #128, T1 ; |553| 
         00039a 8058 
    3618 00039c ED31          MOV dbl(*(#_cfgDescPtr)), XAR1
         00039e 9F00 
         0003a0 017A-
    3619              $C$DW$262       .dwtag  DW_TAG_TI_branch
    3620                      .dwattr $C$DW$262, DW_AT_low_pc(0x00)
    3621                      .dwattr $C$DW$262, DW_AT_name("_USB_postTransaction")
    3622                      .dwattr $C$DW$262, DW_AT_TI_call
    3623              
    3624 0003a2 6C00          CALL #_USB_postTransaction ; |553| 
         0003a4 0000!
    3625 0003a6 3D94  ||      MOV #9, T0
    3626              
    3627                                                      ; call occurs [#_USB_postTransaction] ; |553| 
TMS320C55x Assembler PC v4.4.1 Sat Sep 29 23:08:36 2018

Tools Copyright (c) 1996-2012 Texas Instruments Incorporated
csl_usb_intc_example.asm                                             PAGE   88

    3628 0003a8 C431          MOV T0, *(#_status) ; |553| 
         0003aa 0000 
         0003ac 75-  
    3629                      .dwpsn  file "../c5535_bsl_revc/ezdsp5535_v1/c55xx_csl/ccs_v4.0_examples/usb/CSL_USB_IntcExample/csl_
    3630 0003ad 0601          B $C$L90  ; |556| 
         0003af 2F   
    3631                                                      ; branch occurs ; |556| 
    3632 0003b0       $C$L84:    
    3633                      .dwpsn  file "../c5535_bsl_revc/ezdsp5535_v1/c55xx_csl/ccs_v4.0_examples/usb/CSL_USB_IntcExample/csl_
    3634 0003b0 EC31          AMOV #_cfgDesc, XAR3 ; |559| 
         0003b2 BE00 
         0003b4 018D-
    3635 0003b6 EB31          MOV XAR3, dbl(*(#_cfgDescPtr))
         0003b8 B500 
         0003ba 017A-
    3636                      .dwpsn  file "../c5535_bsl_revc/ezdsp5535_v1/c55xx_csl/ccs_v4.0_examples/usb/CSL_USB_IntcExample/csl_
    3637 0003bc ED31          MOV dbl(*(#(_hEpObjArray+2))), XAR0
         0003be 8F00 
         0003c0 0002-
    3638 0003c2 A431          MOV *(#(_cfgDesc+1)), T0 ; |560| 
         0003c4 0001 
         0003c6 8E-  
    3639 0003c7 7600          MOV #128, T1 ; |560| 
         0003c9 8058 
    3640 0003cb ED31          MOV dbl(*(#_cfgDescPtr)), XAR1
         0003cd 9F00 
         0003cf 017A-
    3641              $C$DW$263       .dwtag  DW_TAG_TI_branch
    3642                      .dwattr $C$DW$263, DW_AT_low_pc(0x00)
    3643                      .dwattr $C$DW$263, DW_AT_name("_USB_postTransaction")
    3644                      .dwattr $C$DW$263, DW_AT_TI_call
    3645 0003d1 6C00          CALL #_USB_postTransaction ; |560| 
         0003d3 0000!
    3646                                                      ; call occurs [#_USB_postTransaction] ; |560| 
    3647 0003d5 C431          MOV T0, *(#_status) ; |560| 
         0003d7 0000 
         0003d9 75-  
    3648                      .dwpsn  file "../c5535_bsl_revc/ezdsp5535_v1/c55xx_csl/ccs_v4.0_examples/usb/CSL_USB_IntcExample/csl_
    3649 0003da 0601          B $C$L90  ; |565| 
         0003dc 02   
    3650                                                      ; branch occurs ; |565| 
    3651 0003dd       $C$L85:    
    3652                      .dwpsn  file "../c5535_bsl_revc/ezdsp5535_v1/c55xx_csl/ccs_v4.0_examples/usb/CSL_USB_IntcExample/csl_
    3653 0003dd DF31          MOV uns(low_byte(*(#(_usbSetup+3)))), AR1 ; |568| 
         0003df 9300 
         0003e1 0071-
    3654 0003e3 0419          BCC $C$L86,AR1 != #0 ; |568| 
         0003e5 2B   
    3655                                                      ; branchcc occurs ; |568| 
    3656                      .dwpsn  file "../c5535_bsl_revc/ezdsp5535_v1/c55xx_csl/ccs_v4.0_examples/usb/CSL_USB_IntcExample/csl_
    3657 0003e6 EC31          AMOV #_strDesc, XAR3 ; |570| 
         0003e8 BE00 
         0003ea 01B5-
    3658 0003ec EB31          MOV XAR3, dbl(*(#_strDescPtr))
         0003ee B500 
TMS320C55x Assembler PC v4.4.1 Sat Sep 29 23:08:36 2018

Tools Copyright (c) 1996-2012 Texas Instruments Incorporated
csl_usb_intc_example.asm                                             PAGE   89

         0003f0 017C-
    3659                      .dwpsn  file "../c5535_bsl_revc/ezdsp5535_v1/c55xx_csl/ccs_v4.0_examples/usb/CSL_USB_IntcExample/csl_
    3660 0003f2 ED31          MOV dbl(*(#(_hEpObjArray+2))), XAR0
         0003f4 8F00 
         0003f6 0002-
    3661 0003f8 DF31          MOV uns(low_byte(*(#_strDesc))), T0 ; |571| 
         0003fa 4300 
         0003fc 01B5-
    3662 0003fe 7600          MOV #128, T1 ; |571| 
         000400 8058 
    3663 000402 ED31          MOV dbl(*(#_strDescPtr)), XAR1
         000404 9F00 
         000406 017C-
    3664              $C$DW$264       .dwtag  DW_TAG_TI_branch
    3665                      .dwattr $C$DW$264, DW_AT_low_pc(0x00)
    3666                      .dwattr $C$DW$264, DW_AT_name("_USB_postTransaction")
    3667                      .dwattr $C$DW$264, DW_AT_TI_call
    3668 000408 6C00          CALL #_USB_postTransaction ; |571| 
         00040a 0000!
    3669                                                      ; call occurs [#_USB_postTransaction] ; |571| 
    3670 00040c C431          MOV T0, *(#_status) ; |571| 
         00040e 0000 
         000410 75-  
    3671 000411       $C$L86:    
    3672                      .dwpsn  file "../c5535_bsl_revc/ezdsp5535_v1/c55xx_csl/ccs_v4.0_examples/usb/CSL_USB_IntcExample/csl_
    3673 000411 3C1A          MOV #1, AR2
    3674 000413 DF31          MOV uns(low_byte(*(#(_usbSetup+3)))), AR1 ; |575| 
         000415 9300 
         000417 0071-
    3675 000419 129C          CMPU AR1 != AR2, TC1 ; |575| 
         00041b A4   
    3676 00041c 0464          BCC $C$L87,TC1 ; |575| 
         00041e 2B   
    3677                                                      ; branchcc occurs ; |575| 
    3678                      .dwpsn  file "../c5535_bsl_revc/ezdsp5535_v1/c55xx_csl/ccs_v4.0_examples/usb/CSL_USB_IntcExample/csl_
    3679 00041f EC31          AMOV #(_strDesc+20), XAR3 ; |577| 
         000421 BE00 
         000423 01C9-
    3680 000425 EB31          MOV XAR3, dbl(*(#_strDescPtr))
         000427 B500 
         000429 017C-
    3681                      .dwpsn  file "../c5535_bsl_revc/ezdsp5535_v1/c55xx_csl/ccs_v4.0_examples/usb/CSL_USB_IntcExample/csl_
    3682 00042b ED31          MOV dbl(*(#(_hEpObjArray+2))), XAR0
         00042d 8F00 
         00042f 0002-
    3683 000431 DF31          MOV uns(low_byte(*(#(_strDesc+20)))), T0 ; |578| 
         000433 4300 
         000435 01C9-
    3684 000437 7600          MOV #128, T1 ; |578| 
         000439 8058 
    3685 00043b ED31          MOV dbl(*(#_strDescPtr)), XAR1
         00043d 9F00 
         00043f 017C-
    3686              $C$DW$265       .dwtag  DW_TAG_TI_branch
    3687                      .dwattr $C$DW$265, DW_AT_low_pc(0x00)
TMS320C55x Assembler PC v4.4.1 Sat Sep 29 23:08:36 2018

Tools Copyright (c) 1996-2012 Texas Instruments Incorporated
csl_usb_intc_example.asm                                             PAGE   90

    3688                      .dwattr $C$DW$265, DW_AT_name("_USB_postTransaction")
    3689                      .dwattr $C$DW$265, DW_AT_TI_call
    3690 000441 6C00          CALL #_USB_postTransaction ; |578| 
         000443 0000!
    3691                                                      ; call occurs [#_USB_postTransaction] ; |578| 
    3692 000445 C431          MOV T0, *(#_status) ; |578| 
         000447 0000 
         000449 75-  
    3693 00044a       $C$L87:    
    3694                      .dwpsn  file "../c5535_bsl_revc/ezdsp5535_v1/c55xx_csl/ccs_v4.0_examples/usb/CSL_USB_IntcExample/csl_
    3695 00044a 3C2A          MOV #2, AR2
    3696 00044c DF31          MOV uns(low_byte(*(#(_usbSetup+3)))), AR1 ; |582| 
         00044e 9300 
         000450 0071-
    3697 000452 129C          CMPU AR1 != AR2, TC1 ; |582| 
         000454 A4   
    3698 000455 0464          BCC $C$L88,TC1 ; |582| 
         000457 2B   
    3699                                                      ; branchcc occurs ; |582| 
    3700                      .dwpsn  file "../c5535_bsl_revc/ezdsp5535_v1/c55xx_csl/ccs_v4.0_examples/usb/CSL_USB_IntcExample/csl_
    3701 000458 EC31          AMOV #(_strDesc+40), XAR3 ; |584| 
         00045a BE00 
         00045c 01DD-
    3702 00045e EB31          MOV XAR3, dbl(*(#_strDescPtr))
         000460 B500 
         000462 017C-
    3703                      .dwpsn  file "../c5535_bsl_revc/ezdsp5535_v1/c55xx_csl/ccs_v4.0_examples/usb/CSL_USB_IntcExample/csl_
    3704 000464 ED31          MOV dbl(*(#(_hEpObjArray+2))), XAR0
         000466 8F00 
         000468 0002-
    3705 00046a DF31          MOV uns(low_byte(*(#(_strDesc+40)))), T0 ; |585| 
         00046c 4300 
         00046e 01DD-
    3706 000470 7600          MOV #128, T1 ; |585| 
         000472 8058 
    3707 000474 ED31          MOV dbl(*(#_strDescPtr)), XAR1
         000476 9F00 
         000478 017C-
    3708              $C$DW$266       .dwtag  DW_TAG_TI_branch
    3709                      .dwattr $C$DW$266, DW_AT_low_pc(0x00)
    3710                      .dwattr $C$DW$266, DW_AT_name("_USB_postTransaction")
    3711                      .dwattr $C$DW$266, DW_AT_TI_call
    3712 00047a 6C00          CALL #_USB_postTransaction ; |585| 
         00047c 0000!
    3713                                                      ; call occurs [#_USB_postTransaction] ; |585| 
    3714 00047e C431          MOV T0, *(#_status) ; |585| 
         000480 0000 
         000482 75-  
    3715 000483       $C$L88:    
    3716                      .dwpsn  file "../c5535_bsl_revc/ezdsp5535_v1/c55xx_csl/ccs_v4.0_examples/usb/CSL_USB_IntcExample/csl_
    3717 000483 3C3A          MOV #3, AR2
    3718 000485 DF31          MOV uns(low_byte(*(#(_usbSetup+3)))), AR1 ; |589| 
         000487 9300 
         000489 0071-
    3719 00048b 129C          CMPU AR1 != AR2, TC1 ; |589| 
TMS320C55x Assembler PC v4.4.1 Sat Sep 29 23:08:36 2018

Tools Copyright (c) 1996-2012 Texas Instruments Incorporated
csl_usb_intc_example.asm                                             PAGE   91

         00048d A4   
    3720 00048e 0464          BCC $C$L90,TC1 ; |589| 
         000490 4E   
    3721                                                      ; branchcc occurs ; |589| 
    3722                      .dwpsn  file "../c5535_bsl_revc/ezdsp5535_v1/c55xx_csl/ccs_v4.0_examples/usb/CSL_USB_IntcExample/csl_
    3723 000491 EC31          AMOV #(_strDesc+60), XAR3 ; |591| 
         000493 BE00 
         000495 01F1-
    3724 000497 EB31          MOV XAR3, dbl(*(#_strDescPtr))
         000499 B500 
         00049b 017C-
    3725                      .dwpsn  file "../c5535_bsl_revc/ezdsp5535_v1/c55xx_csl/ccs_v4.0_examples/usb/CSL_USB_IntcExample/csl_
    3726 00049d ED31          MOV dbl(*(#(_hEpObjArray+2))), XAR0
         00049f 8F00 
         0004a1 0002-
    3727 0004a3 DF31          MOV uns(low_byte(*(#(_strDesc+60)))), T0 ; |592| 
         0004a5 4300 
         0004a7 01F1-
    3728 0004a9 7600          MOV #128, T1 ; |592| 
         0004ab 8058 
    3729 0004ad ED31          MOV dbl(*(#_strDescPtr)), XAR1
         0004af 9F00 
         0004b1 017C-
    3730              $C$DW$267       .dwtag  DW_TAG_TI_branch
    3731                      .dwattr $C$DW$267, DW_AT_low_pc(0x00)
    3732                      .dwattr $C$DW$267, DW_AT_name("_USB_postTransaction")
    3733                      .dwattr $C$DW$267, DW_AT_TI_call
    3734 0004b3 6C00          CALL #_USB_postTransaction ; |592| 
         0004b5 0000!
    3735                                                      ; call occurs [#_USB_postTransaction] ; |592| 
    3736 0004b7 C431          MOV T0, *(#_status) ; |592| 
         0004b9 0000 
         0004bb 75-  
    3737                      .dwpsn  file "../c5535_bsl_revc/ezdsp5535_v1/c55xx_csl/ccs_v4.0_examples/usb/CSL_USB_IntcExample/csl_
    3738 0004bc 4A21          B $C$L90  ; |596| 
    3739                                                      ; branch occurs ; |596| 
    3740 0004be       $C$L89:    
    3741                      .dwpsn  file "../c5535_bsl_revc/ezdsp5535_v1/c55xx_csl/ccs_v4.0_examples/usb/CSL_USB_IntcExample/csl_
    3742 0004be 3C1A          MOV #1, AR2
    3743 0004c0 DF31          MOV uns(high_byte(*(#(_usbSetup+3)))), AR1 ; |540| 
         0004c2 9100 
         0004c4 0071-
    3744 0004c6 1290          CMPU AR1 == AR2, TC1 ; |540| 
         0004c8 A4   
    3745 0004c9 6D64          BCC $C$L82,TC1 ; |540| 
         0004cb FE81 
    3746                                                      ; branchcc occurs ; |540| 
    3747 0004cd 3C2A          MOV #2, AR2
    3748 0004cf 1290          CMPU AR1 == AR2, TC1 ; |540| 
         0004d1 A4   
    3749 0004d2 6D64          BCC $C$L83,TC1 ; |540| 
         0004d4 FEA6 
    3750                                                      ; branchcc occurs ; |540| 
    3751 0004d6 3C3A          MOV #3, AR2
    3752 0004d8 1290          CMPU AR1 == AR2, TC1 ; |540| 
TMS320C55x Assembler PC v4.4.1 Sat Sep 29 23:08:36 2018

Tools Copyright (c) 1996-2012 Texas Instruments Incorporated
csl_usb_intc_example.asm                                             PAGE   92

         0004da A4   
    3753 0004db 6D64          BCC $C$L85,TC1 ; |540| 
         0004dd FEFE 
    3754                                                      ; branchcc occurs ; |540| 
    3755 0004df       $C$L90:    
    3756                      .dwpsn  file "../c5535_bsl_revc/ezdsp5535_v1/c55xx_csl/ccs_v4.0_examples/usb/CSL_USB_IntcExample/csl_
    3757 0004df EC31          AMOV #_deviceDesc, XAR3 ; |602| 
         0004e1 BE00 
         0004e3 0184-
    3758 0004e5 EB31          MOV XAR3, dbl(*(#_deviceDescPtr))
         0004e7 B500 
         0004e9 0178-
    3759                      .dwpsn  file "../c5535_bsl_revc/ezdsp5535_v1/c55xx_csl/ccs_v4.0_examples/usb/CSL_USB_IntcExample/csl_
    3760 0004eb EC31          AMOV #_cfgDesc, XAR3 ; |603| 
         0004ed BE00 
         0004ef 018D-
    3761 0004f1 EB31          MOV XAR3, dbl(*(#_cfgDescPtr))
         0004f3 B500 
         0004f5 017A-
    3762                      .dwpsn  file "../c5535_bsl_revc/ezdsp5535_v1/c55xx_csl/ccs_v4.0_examples/usb/CSL_USB_IntcExample/csl_
    3763 0004f7 EC31          AMOV #_strDesc, XAR3 ; |604| 
         0004f9 BE00 
         0004fb 01B5-
    3764 0004fd EB31          MOV XAR3, dbl(*(#_strDescPtr))
         0004ff B500 
         000501 017C-
    3765                      .dwpsn  file "../c5535_bsl_revc/ezdsp5535_v1/c55xx_csl/ccs_v4.0_examples/usb/CSL_USB_IntcExample/csl_
    3766 000503 7604          MOV #1042, T0 ; |606| 
         000505 1248 
    3767 000507 AB31          MOV *(#_usbRegisters), AR3 ; |606| 
         000509 0000 
         00050b 00!  
    3768 00050c A96B          MOV port(*AR3(T0)), AR1 ; |606| 
         00050e 99   
    3769 00050f EC02          BCLR @#1, AR1 ; |606| 
         000511 92   
    3770 000512 EC02          BSET @#1, AR1 ; |606| 
         000514 90   
    3771 000515 C96B          MOV AR1, port(*AR3(T0)) ; |606| 
         000517 9A   
    3772                      .dwpsn  file "../c5535_bsl_revc/ezdsp5535_v1/c55xx_csl/ccs_v4.0_examples/usb/CSL_USB_IntcExample/csl_
    3773 000518 AB31          MOV *(#_usbRegisters), AR3 ; |608| 
         00051a 0000 
         00051c 00!  
    3774 00051d A96B          MOV port(*AR3(T0)), AR1 ; |608| 
         00051f 99   
    3775 000520 EC06          BCLR @#3, AR1 ; |608| 
         000522 92   
    3776 000523 EC06          BSET @#3, AR1 ; |608| 
         000525 90   
    3777 000526 C96B          MOV AR1, port(*AR3(T0)) ; |608| 
         000528 9A   
    3778                      .dwpsn  file "../c5535_bsl_revc/ezdsp5535_v1/c55xx_csl/ccs_v4.0_examples/usb/CSL_USB_IntcExample/csl_
    3779 000529 0600          B $C$L95  ; |610| 
         00052b 87   
TMS320C55x Assembler PC v4.4.1 Sat Sep 29 23:08:36 2018

Tools Copyright (c) 1996-2012 Texas Instruments Incorporated
csl_usb_intc_example.asm                                             PAGE   93

    3780                                                      ; branch occurs ; |610| 
    3781 00052c       $C$L91:    
    3782                      .dwpsn  file "../c5535_bsl_revc/ezdsp5535_v1/c55xx_csl/ccs_v4.0_examples/usb/CSL_USB_IntcExample/csl_
    3783 00052c A931          MOV *(#(_usbSetup+3)), AR1 ; |613| 
         00052e 0000 
         000530 71-  
    3784 000531 C931          MOV AR1, *(#_devAddr) ; |613| 
         000533 0001 
         000535 7F-  
    3785                      .dwpsn  file "../c5535_bsl_revc/ezdsp5535_v1/c55xx_csl/ccs_v4.0_examples/usb/CSL_USB_IntcExample/csl_
    3786 000536 AB31          MOV *(#_usbRegisters), AR3 ; |614| 
         000538 0000 
         00053a 00!  
    3787 00053b A96B          MOV port(*AR3(T0)), AR1 ; |614| 
         00053d 99   
    3788 00053e EC0C          BCLR @#6, AR1 ; |614| 
         000540 92   
    3789 000541 EC0C          BSET @#6, AR1 ; |614| 
         000543 90   
    3790 000544 C96B          MOV AR1, port(*AR3(T0)) ; |614| 
         000546 9A   
    3791                      .dwpsn  file "../c5535_bsl_revc/ezdsp5535_v1/c55xx_csl/ccs_v4.0_examples/usb/CSL_USB_IntcExample/csl_
    3792 000547 AB31          MOV *(#_usbRegisters), AR3 ; |616| 
         000549 0000 
         00054b 00!  
    3793 00054c A96B          MOV port(*AR3(T0)), AR1 ; |616| 
         00054e 99   
    3794 00054f EC06          BCLR @#3, AR1 ; |616| 
         000551 92   
    3795 000552 EC06          BSET @#3, AR1 ; |616| 
         000554 90   
    3796 000555 C96B          MOV AR1, port(*AR3(T0)) ; |616| 
         000557 9A   
    3797                      .dwpsn  file "../c5535_bsl_revc/ezdsp5535_v1/c55xx_csl/ccs_v4.0_examples/usb/CSL_USB_IntcExample/csl_
    3798 000558 0600          B $C$L95  ; |618| 
         00055a 58   
    3799                                                      ; branch occurs ; |618| 
    3800 00055b       $C$L92:    
    3801                      .dwpsn  file "../c5535_bsl_revc/ezdsp5535_v1/c55xx_csl/ccs_v4.0_examples/usb/CSL_USB_IntcExample/csl_
    3802 00055b 3C6A          MOV #6, AR2
    3803 00055d A931          MOV *(#(_usbSetup+2)), AR1 ; |464| 
         00055f 0000 
         000561 70-  
    3804 000562 12A4          CMP AR1 > AR2, TC1 ; |464| 
         000564 90   
    3805 000565 0464          BCC $C$L93,TC1 ; |464| 
         000567 23   
    3806                                                      ; branchcc occurs ; |464| 
    3807 000568 1290          CMP AR1 == AR2, TC1 ; |464| 
         00056a A0   
    3808 00056b 6D64          BCC $C$L89,TC1 ; |464| 
         00056d FF4F 
    3809                                                      ; branchcc occurs ; |464| 
    3810 00056f 3C1A          MOV #1, AR2
    3811 000571 1290          CMPU AR1 == AR2, TC1 ; |464| 
TMS320C55x Assembler PC v4.4.1 Sat Sep 29 23:08:36 2018

Tools Copyright (c) 1996-2012 Texas Instruments Incorporated
csl_usb_intc_example.asm                                             PAGE   94

         000573 A4   
    3812 000574 6D64          BCC $C$L80,TC1 ; |464| 
         000576 FD75 
    3813                                                      ; branchcc occurs ; |464| 
    3814 000578 3C3A          MOV #3, AR2
    3815 00057a 1290          CMPU AR1 == AR2, TC1 ; |464| 
         00057c A4   
    3816 00057d 6D64          BCC $C$L76,TC1 ; |464| 
         00057f FCEA 
    3817                                                      ; branchcc occurs ; |464| 
    3818 000581 3C5A          MOV #5, AR2
    3819 000583 1290          CMPU AR1 == AR2, TC1 ; |464| 
         000585 A4   
    3820 000586 0464          BCC $C$L91,TC1 ; |464| 
         000588 A3   
    3821                                                      ; branchcc occurs ; |464| 
    3822 000589 4A28          B $C$L95  ; |464| 
    3823                                                      ; branch occurs ; |464| 
    3824 00058b       $C$L93:    
    3825 00058b 3C9A          MOV #9, AR2
    3826 00058d 1290          CMPU AR1 == AR2, TC1 ; |464| 
         00058f A4   
    3827 000590 6D64          BCC $C$L81,TC1 ; |464| 
         000592 FD6A 
    3828                                                      ; branchcc occurs ; |464| 
    3829 000594 3CBA          MOV #11, AR2
    3830 000596 1290          CMPU AR1 == AR2, TC1 ; |464| 
         000598 A4   
    3831 000599 6D64          BCC $C$L81,TC1 ; |464| 
         00059b FD61 
    3832                                                      ; branchcc occurs ; |464| 
    3833 00059d 4A14          B $C$L95  ; |464| 
    3834                                                      ; branch occurs ; |464| 
    3835 00059f       $C$L94:    
    3836                      .dwpsn  file "../c5535_bsl_revc/ezdsp5535_v1/c55xx_csl/ccs_v4.0_examples/usb/CSL_USB_IntcExample/csl_
    3837 00059f F031          CMP *(#(_usbSetup+2)) == #5, TC1 ; |626| 
         0005a1 0005 
         0005a3 0000 
         0005a5 70-  
    3838 0005a6 65F4          BCC $C$L95,!TC1 ; |626| 
    3839                                                      ; branchcc occurs ; |626| 
    3840                      .dwpsn  file "../c5535_bsl_revc/ezdsp5535_v1/c55xx_csl/ccs_v4.0_examples/usb/CSL_USB_IntcExample/csl_
    3841 0005a8 A531          MOV *(#_devAddr), T1 ; |628| 
         0005aa 0001 
         0005ac 7F-  
    3842              $C$DW$268       .dwtag  DW_TAG_TI_branch
    3843                      .dwattr $C$DW$268, DW_AT_low_pc(0x00)
    3844                      .dwattr $C$DW$268, DW_AT_name("_USB_setDevAddr")
    3845                      .dwattr $C$DW$268, DW_AT_TI_call
    3846              
    3847 0005ad 6C00          CALL #_USB_setDevAddr ; |628| 
         0005af 0000!
    3848 0005b1 3D04  ||      MOV #0, T0
    3849              
    3850                                                      ; call occurs [#_USB_setDevAddr] ; |628| 
TMS320C55x Assembler PC v4.4.1 Sat Sep 29 23:08:36 2018

Tools Copyright (c) 1996-2012 Texas Instruments Incorporated
csl_usb_intc_example.asm                                             PAGE   95

    3851 0005b3       $C$L95:    
    3852                      .dwpsn  file "../c5535_bsl_revc/ezdsp5535_v1/c55xx_csl/ccs_v4.0_examples/usb/CSL_USB_IntcExample/csl_
    3853 0005b3 AB31          MOV *(#_usbRegisters), AR3 ; |632| 
         0005b5 0000 
         0005b7 00!  
    3854 0005b8 7604          MOV #1038, T0 ; |632| 
         0005ba 0E48 
    3855 0005bc A931          MOV *(#_saveIndex), AR1 ; |632| 
         0005be 0001 
         0005c0 80-  
    3856 0005c1 C96B          MOV AR1, port(*AR3(T0)) ; |632| 
         0005c3 9A   
    3857 0005c4       $C$L96:    
    3858                      .dwpsn  file "../c5535_bsl_revc/ezdsp5535_v1/c55xx_csl/ccs_v4.0_examples/usb/CSL_USB_IntcExample/csl_
    3859 0005c4 ED31          MOV dbl(*(#_pContext)), XAR3
         0005c6 BF00 
         0005c8 0076-
    3860 0005ca DC6D          BTST #9, *AR3(#94), TC1 ; |636| 
         0005cc 9000 
         0005ce 5E   
    3861 0005cf 0464          BCC $C$L97,TC1 ; |636| 
         0005d1 18   
    3862                                                      ; branchcc occurs ; |636| 
    3863 0005d2 DC6D          BTST #10, *AR3(#94), TC1 ; |636| 
         0005d4 A000 
         0005d6 5E   
    3864 0005d7 0464          BCC $C$L97,TC1 ; |636| 
         0005d9 10   
    3865                                                      ; branchcc occurs ; |636| 
    3866 0005da DC6D          BTST #11, *AR3(#94), TC1 ; |636| 
         0005dc B000 
         0005de 5E   
    3867 0005df 64E4          BCC $C$L97,TC1 ; |636| 
    3868                                                      ; branchcc occurs ; |636| 
    3869 0005e1 DC6D          BTST #12, *AR3(#94), TC1 ; |636| 
         0005e3 C000 
         0005e5 5E   
    3870 0005e6 6D74          BCC $C$L100,!TC1 ; |636| 
         0005e8 009F 
    3871                                                      ; branchcc occurs ; |636| 
    3872 0005ea       $C$L97:    
    3873                      .dwpsn  file "../c5535_bsl_revc/ezdsp5535_v1/c55xx_csl/ccs_v4.0_examples/usb/CSL_USB_IntcExample/csl_
    3874 0005ea ED6D          MOV dbl(*AR3(#98)), XAR0
         0005ec 8F00 
         0005ee 62   
    3875 0005ef 1424          AADD #36, AR0 ; |643| 
         0005f1 84   
    3876              $C$DW$269       .dwtag  DW_TAG_TI_branch
    3877                      .dwattr $C$DW$269, DW_AT_low_pc(0x00)
    3878                      .dwattr $C$DW$269, DW_AT_name("_USB_isValidDataInFifoOut")
    3879                      .dwattr $C$DW$269, DW_AT_TI_call
    3880 0005f2 6C00          CALL #_USB_isValidDataInFifoOut ; |643| 
         0005f4 0360'
    3881                                                      ; call occurs [#_USB_isValidDataInFifoOut] ; |643| 
    3882 0005f6 0404          BCC $C$L98,T0 == #0 ; |643| 
TMS320C55x Assembler PC v4.4.1 Sat Sep 29 23:08:36 2018

Tools Copyright (c) 1996-2012 Texas Instruments Incorporated
csl_usb_intc_example.asm                                             PAGE   96

         0005f8 18   
    3883                                                      ; branchcc occurs ; |643| 
    3884                      .dwpsn  file "../c5535_bsl_revc/ezdsp5535_v1/c55xx_csl/ccs_v4.0_examples/usb/CSL_USB_IntcExample/csl_
    3885 0005f9 4617          BSET ST3_SMUL
    3886              
    3887 0005fb 3C04          MOV #0, T0
    3888 0005fd 4756  ||      BCLR ST3_SATA
    3889              
    3890              $C$DW$270       .dwtag  DW_TAG_TI_branch
    3891                      .dwattr $C$DW$270, DW_AT_low_pc(0x00)
    3892                      .dwattr $C$DW$270, DW_AT_name("_USB_epNumToHandle")
    3893                      .dwattr $C$DW$270, DW_AT_TI_call
    3894              
    3895 0005ff 6C00          CALL #_USB_epNumToHandle ; |646| 
         000601 0000!
    3896 000603 3D25  ||      MOV #2, T1
    3897              
    3898                                                      ; call occurs [#_USB_epNumToHandle] ; |646| 
    3899 000605 EB08          MOV XAR0, dbl(*SP(#4))
         000607 85   
    3900                      .dwpsn  file "../c5535_bsl_revc/ezdsp5535_v1/c55xx_csl/ccs_v4.0_examples/usb/CSL_USB_IntcExample/csl_
    3901              $C$DW$271       .dwtag  DW_TAG_TI_branch
    3902                      .dwattr $C$DW$271, DW_AT_low_pc(0x00)
    3903                      .dwattr $C$DW$271, DW_AT_name("_USB_getDataCountReadFromFifo")
    3904                      .dwattr $C$DW$271, DW_AT_TI_call
    3905 000608 6C00          CALL #_USB_getDataCountReadFromFifo ; |647| 
         00060a 0000!
    3906                                                      ; call occurs [#_USB_getDataCountReadFromFifo] ; |647| 
    3907 00060c C431          MOV T0, *(#_usb_income_num_bytes) ; |647| 
         00060e 0002 
         000610 07-  
    3908 000611       $C$L98:    
    3909                      .dwpsn  file "../c5535_bsl_revc/ezdsp5535_v1/c55xx_csl/ccs_v4.0_examples/usb/CSL_USB_IntcExample/csl_
    3910 000611 ED31          MOV dbl(*(#(_hEpObjArray+6))), XAR0
         000613 8F00 
         000615 0006-
    3911 000617 A431          MOV *(#_usb_income_num_bytes), T0 ; |650| 
         000619 0002 
         00061b 07-  
    3912 00061c 4656          BCLR ST3_SATA
    3913 00061e 4617          BSET ST3_SMUL
    3914 000620 EC31          AMOV #_usbDataBuffer, XAR1 ; |650| 
         000622 9E00 
         000624 0078-
    3915              $C$DW$272       .dwtag  DW_TAG_TI_branch
    3916                      .dwattr $C$DW$272, DW_AT_low_pc(0x00)
    3917                      .dwattr $C$DW$272, DW_AT_name("_USB_postTransaction")
    3918                      .dwattr $C$DW$272, DW_AT_TI_call
    3919              
    3920 000626 6C00          CALL #_USB_postTransaction ; |650| 
         000628 0000!
    3921 00062a 3D05  ||      MOV #0, T1
    3922              
    3923                                                      ; call occurs [#_USB_postTransaction] ; |650| 
    3924 00062c C431          MOV T0, *(#_status) ; |650| 
TMS320C55x Assembler PC v4.4.1 Sat Sep 29 23:08:36 2018

Tools Copyright (c) 1996-2012 Texas Instruments Incorporated
csl_usb_intc_example.asm                                             PAGE   97

         00062e 0000 
         000630 75-  
    3925                      .dwpsn  file "../c5535_bsl_revc/ezdsp5535_v1/c55xx_csl/ccs_v4.0_examples/usb/CSL_USB_IntcExample/csl_
    3926 000631 2249          MOV T0, AR1
    3927 000633 6689          BCC $C$L99,AR1 == #0 ; |652| 
    3928                                                      ; branchcc occurs ; |652| 
    3929                      .dwpsn  file "../c5535_bsl_revc/ezdsp5535_v1/c55xx_csl/ccs_v4.0_examples/usb/CSL_USB_IntcExample/csl_
    3930 000635 EC31          AMOV #$C$FSL12, XAR3 ; |654| 
         000637 BE00 
         000639 00FC+
    3931 00063b EB00          MOV XAR3, dbl(*SP(#0))
         00063d B5   
    3932              $C$DW$273       .dwtag  DW_TAG_TI_branch
    3933                      .dwattr $C$DW$273, DW_AT_low_pc(0x00)
    3934                      .dwattr $C$DW$273, DW_AT_name("_printf")
    3935                      .dwattr $C$DW$273, DW_AT_TI_call
    3936 00063e 6C00          CALL #_printf ; |654| 
         000640 0000!
    3937                                                      ; call occurs [#_printf] ; |654| 
    3938 000642       $C$L99:    
    3939                      .dwpsn  file "../c5535_bsl_revc/ezdsp5535_v1/c55xx_csl/ccs_v4.0_examples/usb/CSL_USB_IntcExample/csl_
    3940 000642 ED31          MOV dbl(*(#(_hEpObjArray+6))), XAR0
         000644 8F00 
         000646 0006-
    3941 000648 EC31          AMOV #_status, XAR1 ; |658| 
         00064a 9E00 
         00064c 0075-
    3942              $C$DW$274       .dwtag  DW_TAG_TI_branch
    3943                      .dwattr $C$DW$274, DW_AT_low_pc(0x00)
    3944                      .dwattr $C$DW$274, DW_AT_name("_USB_isTransactionDone")
    3945                      .dwattr $C$DW$274, DW_AT_TI_call
    3946 00064e 6C00          CALL #_USB_isTransactionDone ; |658| 
         000650 0000!
    3947                                                      ; call occurs [#_USB_isTransactionDone] ; |658| 
    3948 000652 C431          MOV T0, *(#_txRxStatus) ; |658| 
         000654 0000 
         000656 74-  
    3949                      .dwpsn  file "../c5535_bsl_revc/ezdsp5535_v1/c55xx_csl/ccs_v4.0_examples/usb/CSL_USB_IntcExample/csl_
    3950 000657 F031          CMP *(#_txRxStatus) == #1, TC1 ; |659| 
         000659 0001 
         00065b 0000 
         00065d 74-  
    3951 00065e 0464          BCC $C$L100,TC1 ; |659| 
         000660 28   
    3952                                                      ; branchcc occurs ; |659| 
    3953                      .dwpsn  file "../c5535_bsl_revc/ezdsp5535_v1/c55xx_csl/ccs_v4.0_examples/usb/CSL_USB_IntcExample/csl_
    3954 000661 ED31          MOV dbl(*(#(_hEpObjArray+6))), XAR0
         000663 8F00 
         000665 0006-
    3955 000667 EC31          AMOV #_status, XAR1 ; |661| 
         000669 9E00 
         00066b 0075-
    3956              $C$DW$275       .dwtag  DW_TAG_TI_branch
    3957                      .dwattr $C$DW$275, DW_AT_low_pc(0x00)
    3958                      .dwattr $C$DW$275, DW_AT_name("_USB_bytesRemaining")
TMS320C55x Assembler PC v4.4.1 Sat Sep 29 23:08:36 2018

Tools Copyright (c) 1996-2012 Texas Instruments Incorporated
csl_usb_intc_example.asm                                             PAGE   98

    3959                      .dwattr $C$DW$275, DW_AT_TI_call
    3960 00066d 6C00          CALL #_USB_bytesRemaining ; |661| 
         00066f 0000!
    3961                                                      ; call occurs [#_USB_bytesRemaining] ; |661| 
    3962 000671 C431          MOV T0, *(#_bytesRem) ; |661| 
         000673 0001 
         000675 7E-  
    3963                      .dwpsn  file "../c5535_bsl_revc/ezdsp5535_v1/c55xx_csl/ccs_v4.0_examples/usb/CSL_USB_IntcExample/csl_
    3964 000676 2249          MOV T0, AR1
    3965 000678 6789          BCC $C$L100,AR1 == #0 ; |662| 
    3966                                                      ; branchcc occurs ; |662| 
    3967                      .dwpsn  file "../c5535_bsl_revc/ezdsp5535_v1/c55xx_csl/ccs_v4.0_examples/usb/CSL_USB_IntcExample/csl_
    3968 00067a EC31          AMOV #$C$FSL13, XAR3 ; |664| 
         00067c BE00 
         00067e 0114+
    3969 000680 EB00          MOV XAR3, dbl(*SP(#0))
         000682 B5   
    3970 000683 C904          MOV AR1, *SP(#2) ; |664| 
    3971              $C$DW$276       .dwtag  DW_TAG_TI_branch
    3972                      .dwattr $C$DW$276, DW_AT_low_pc(0x00)
    3973                      .dwattr $C$DW$276, DW_AT_name("_printf")
    3974                      .dwattr $C$DW$276, DW_AT_TI_call
    3975 000685 6C00          CALL #_printf ; |664| 
         000687 0000!
    3976                                                      ; call occurs [#_printf] ; |664| 
    3977 000689       $C$L100:    
    3978                      .dwpsn  file "../c5535_bsl_revc/ezdsp5535_v1/c55xx_csl/ccs_v4.0_examples/usb/CSL_USB_IntcExample/csl_
    3979 000689 ED31          MOV dbl(*(#_pContext)), XAR3
         00068b BF00 
         00068d 0076-
    3980 00068f DC6D          BTST #1, *AR3(#94), TC1 ; |670| 
         000691 1000 
         000693 5E   
    3981 000694 0464          BCC $C$L101,TC1 ; |670| 
         000696 16   
    3982                                                      ; branchcc occurs ; |670| 
    3983 000697 DC6D          BTST #2, *AR3(#94), TC1 ; |670| 
         000699 2000 
         00069b 5E   
    3984 00069c 67E4          BCC $C$L101,TC1 ; |670| 
    3985                                                      ; branchcc occurs ; |670| 
    3986 00069e DC6D          BTST #3, *AR3(#94), TC1 ; |670| 
         0006a0 3000 
         0006a2 5E   
    3987 0006a3 6464          BCC $C$L101,TC1 ; |670| 
    3988                                                      ; branchcc occurs ; |670| 
    3989 0006a5 DC6D          BTST #4, *AR3(#94), TC1 ; |670| 
         0006a7 4000 
         0006a9 5E   
    3990 0006aa 0474          BCC $C$L103,!TC1 ; |670| 
         0006ac 7A   
    3991                                                      ; branchcc occurs ; |670| 
    3992 0006ad       $C$L101:    
    3993                      .dwpsn  file "../c5535_bsl_revc/ezdsp5535_v1/c55xx_csl/ccs_v4.0_examples/usb/CSL_USB_IntcExample/csl_
    3994 0006ad ED31          MOV dbl(*(#(_hEpObjArray+4))), XAR0
TMS320C55x Assembler PC v4.4.1 Sat Sep 29 23:08:36 2018

Tools Copyright (c) 1996-2012 Texas Instruments Incorporated
csl_usb_intc_example.asm                                             PAGE   99

         0006af 8F00 
         0006b1 0004-
    3995 0006b3 A431          MOV *(#_usb_income_num_bytes), T0 ; |675| 
         0006b5 0002 
         0006b7 07-  
    3996 0006b8 4656          BCLR ST3_SATA
    3997 0006ba EC31          AMOV #_usbDataBuffer, XAR1 ; |675| 
         0006bc 9E00 
         0006be 0078-
    3998              
    3999 0006c0 7600          MOV #128, T1 ; |675| 
         0006c2 8058 
    4000 0006c4 4717  ||      BSET ST3_SMUL
    4001              
    4002              $C$DW$277       .dwtag  DW_TAG_TI_branch
    4003                      .dwattr $C$DW$277, DW_AT_low_pc(0x00)
    4004                      .dwattr $C$DW$277, DW_AT_name("_USB_postTransaction")
    4005                      .dwattr $C$DW$277, DW_AT_TI_call
    4006 0006c6 6C00          CALL #_USB_postTransaction ; |675| 
         0006c8 0000!
    4007                                                      ; call occurs [#_USB_postTransaction] ; |675| 
    4008 0006ca C431          MOV T0, *(#_status) ; |675| 
         0006cc 0000 
         0006ce 75-  
    4009                      .dwpsn  file "../c5535_bsl_revc/ezdsp5535_v1/c55xx_csl/ccs_v4.0_examples/usb/CSL_USB_IntcExample/csl_
    4010 0006cf 2249          MOV T0, AR1
    4011 0006d1 6689          BCC $C$L102,AR1 == #0 ; |677| 
    4012                                                      ; branchcc occurs ; |677| 
    4013                      .dwpsn  file "../c5535_bsl_revc/ezdsp5535_v1/c55xx_csl/ccs_v4.0_examples/usb/CSL_USB_IntcExample/csl_
    4014 0006d3 EC31          AMOV #$C$FSL12, XAR3 ; |679| 
         0006d5 BE00 
         0006d7 00FC+
    4015 0006d9 EB00          MOV XAR3, dbl(*SP(#0))
         0006db B5   
    4016              $C$DW$278       .dwtag  DW_TAG_TI_branch
    4017                      .dwattr $C$DW$278, DW_AT_low_pc(0x00)
    4018                      .dwattr $C$DW$278, DW_AT_name("_printf")
    4019                      .dwattr $C$DW$278, DW_AT_TI_call
    4020 0006dc 6C00          CALL #_printf ; |679| 
         0006de 0000!
    4021                                                      ; call occurs [#_printf] ; |679| 
    4022 0006e0       $C$L102:    
    4023                      .dwpsn  file "../c5535_bsl_revc/ezdsp5535_v1/c55xx_csl/ccs_v4.0_examples/usb/CSL_USB_IntcExample/csl_
    4024 0006e0 ED31          MOV dbl(*(#(_hEpObjArray+4))), XAR0
         0006e2 8F00 
         0006e4 0004-
    4025 0006e6 EC31          AMOV #_status, XAR1 ; |683| 
         0006e8 9E00 
         0006ea 0075-
    4026              $C$DW$279       .dwtag  DW_TAG_TI_branch
    4027                      .dwattr $C$DW$279, DW_AT_low_pc(0x00)
    4028                      .dwattr $C$DW$279, DW_AT_name("_USB_isTransactionDone")
    4029                      .dwattr $C$DW$279, DW_AT_TI_call
    4030 0006ec 6C00          CALL #_USB_isTransactionDone ; |683| 
         0006ee 0000!
TMS320C55x Assembler PC v4.4.1 Sat Sep 29 23:08:36 2018

Tools Copyright (c) 1996-2012 Texas Instruments Incorporated
csl_usb_intc_example.asm                                             PAGE  100

    4031                                                      ; call occurs [#_USB_isTransactionDone] ; |683| 
    4032 0006f0 C431          MOV T0, *(#_txRxStatus) ; |683| 
         0006f2 0000 
         0006f4 74-  
    4033                      .dwpsn  file "../c5535_bsl_revc/ezdsp5535_v1/c55xx_csl/ccs_v4.0_examples/usb/CSL_USB_IntcExample/csl_
    4034 0006f5 F031          CMP *(#_txRxStatus) == #1, TC1 ; |684| 
         0006f7 0001 
         0006f9 0000 
         0006fb 74-  
    4035 0006fc 0464          BCC $C$L103,TC1 ; |684| 
         0006fe 28   
    4036                                                      ; branchcc occurs ; |684| 
    4037                      .dwpsn  file "../c5535_bsl_revc/ezdsp5535_v1/c55xx_csl/ccs_v4.0_examples/usb/CSL_USB_IntcExample/csl_
    4038 0006ff ED31          MOV dbl(*(#(_hEpObjArray+4))), XAR0
         000701 8F00 
         000703 0004-
    4039 000705 EC31          AMOV #_status, XAR1 ; |686| 
         000707 9E00 
         000709 0075-
    4040              $C$DW$280       .dwtag  DW_TAG_TI_branch
    4041                      .dwattr $C$DW$280, DW_AT_low_pc(0x00)
    4042                      .dwattr $C$DW$280, DW_AT_name("_USB_bytesRemaining")
    4043                      .dwattr $C$DW$280, DW_AT_TI_call
    4044 00070b 6C00          CALL #_USB_bytesRemaining ; |686| 
         00070d 0000!
    4045                                                      ; call occurs [#_USB_bytesRemaining] ; |686| 
    4046 00070f C431          MOV T0, *(#_bytesRem) ; |686| 
         000711 0001 
         000713 7E-  
    4047                      .dwpsn  file "../c5535_bsl_revc/ezdsp5535_v1/c55xx_csl/ccs_v4.0_examples/usb/CSL_USB_IntcExample/csl_
    4048 000714 2249          MOV T0, AR1
    4049 000716 6789          BCC $C$L103,AR1 == #0 ; |687| 
    4050                                                      ; branchcc occurs ; |687| 
    4051                      .dwpsn  file "../c5535_bsl_revc/ezdsp5535_v1/c55xx_csl/ccs_v4.0_examples/usb/CSL_USB_IntcExample/csl_
    4052 000718 EC31          AMOV #$C$FSL13, XAR3 ; |689| 
         00071a BE00 
         00071c 0114+
    4053 00071e EB00          MOV XAR3, dbl(*SP(#0))
         000720 B5   
    4054 000721 C904          MOV AR1, *SP(#2) ; |689| 
    4055              $C$DW$281       .dwtag  DW_TAG_TI_branch
    4056                      .dwattr $C$DW$281, DW_AT_low_pc(0x00)
    4057                      .dwattr $C$DW$281, DW_AT_name("_printf")
    4058                      .dwattr $C$DW$281, DW_AT_TI_call
    4059 000723 6C00          CALL #_printf ; |689| 
         000725 0000!
    4060                                                      ; call occurs [#_printf] ; |689| 
    4061 000727       $C$L103:    
    4062                      .dwpsn  file "../c5535_bsl_revc/ezdsp5535_v1/c55xx_csl/ccs_v4.0_examples/usb/CSL_USB_IntcExample/csl_
    4063 000727 ED31          MOV dbl(*(#_pContext)), XAR3
         000729 BF00 
         00072b 0076-
    4064 00072d DC6D          BTST #4, *AR3(#95), TC1 ; |695| 
         00072f 4000 
         000731 5F   
TMS320C55x Assembler PC v4.4.1 Sat Sep 29 23:08:36 2018

Tools Copyright (c) 1996-2012 Texas Instruments Incorporated
csl_usb_intc_example.asm                                             PAGE  101

    4065 000732 0474          BCC $C$L104,!TC1 ; |695| 
         000734 20   
    4066                                                      ; branchcc occurs ; |695| 
    4067                      .dwpsn  file "../c5535_bsl_revc/ezdsp5535_v1/c55xx_csl/ccs_v4.0_examples/usb/CSL_USB_IntcExample/csl_
    4068 000735 4656          BCLR ST3_SATA
    4069 000737 4617          BSET ST3_SMUL
    4070              $C$DW$282       .dwtag  DW_TAG_TI_branch
    4071                      .dwattr $C$DW$282, DW_AT_low_pc(0x00)
    4072                      .dwattr $C$DW$282, DW_AT_name("_USB_connectDev")
    4073                      .dwattr $C$DW$282, DW_AT_TI_call
    4074              
    4075 000739 6C00          CALL #_USB_connectDev ; |697| 
         00073b 0000!
    4076 00073d 3D04  ||      MOV #0, T0
    4077              
    4078                                                      ; call occurs [#_USB_connectDev] ; |697| 
    4079 00073f C431          MOV T0, *(#_status) ; |697| 
         000741 0000 
         000743 75-  
    4080                      .dwpsn  file "../c5535_bsl_revc/ezdsp5535_v1/c55xx_csl/ccs_v4.0_examples/usb/CSL_USB_IntcExample/csl_
    4081 000744 2249          MOV T0, AR1
    4082 000746 6689          BCC $C$L104,AR1 == #0 ; |698| 
    4083                                                      ; branchcc occurs ; |698| 
    4084                      .dwpsn  file "../c5535_bsl_revc/ezdsp5535_v1/c55xx_csl/ccs_v4.0_examples/usb/CSL_USB_IntcExample/csl_
    4085 000748 EC31          AMOV #$C$FSL8, XAR3 ; |700| 
         00074a BE00 
         00074c 0096+
    4086 00074e EB00          MOV XAR3, dbl(*SP(#0))
         000750 B5   
    4087              $C$DW$283       .dwtag  DW_TAG_TI_branch
    4088                      .dwattr $C$DW$283, DW_AT_low_pc(0x00)
    4089                      .dwattr $C$DW$283, DW_AT_name("_printf")
    4090                      .dwattr $C$DW$283, DW_AT_TI_call
    4091 000751 6C00          CALL #_printf ; |700| 
         000753 0000!
    4092                                                      ; call occurs [#_printf] ; |700| 
    4093 000755       $C$L104:    
    4094                      .dwpsn  file "../c5535_bsl_revc/ezdsp5535_v1/c55xx_csl/ccs_v4.0_examples/usb/CSL_USB_IntcExample/csl_
    4095 000755 ED31          MOV dbl(*(#_pContext)), XAR3
         000757 BF00 
         000759 0076-
    4096 00075b DC6D          BTST #5, *AR3(#95), TC1 ; |705| 
         00075d 5000 
         00075f 5F   
    4097 000760 0474          BCC $C$L105,!TC1 ; |705| 
         000762 26   
    4098                                                      ; branchcc occurs ; |705| 
    4099                      .dwpsn  file "../c5535_bsl_revc/ezdsp5535_v1/c55xx_csl/ccs_v4.0_examples/usb/CSL_USB_IntcExample/csl_
    4100 000763 4656          BCLR ST3_SATA
    4101 000765 4617          BSET ST3_SMUL
    4102              $C$DW$284       .dwtag  DW_TAG_TI_branch
    4103                      .dwattr $C$DW$284, DW_AT_low_pc(0x00)
    4104                      .dwattr $C$DW$284, DW_AT_name("_USB_disconnectDev")
    4105                      .dwattr $C$DW$284, DW_AT_TI_call
    4106              
TMS320C55x Assembler PC v4.4.1 Sat Sep 29 23:08:36 2018

Tools Copyright (c) 1996-2012 Texas Instruments Incorporated
csl_usb_intc_example.asm                                             PAGE  102

    4107 000767 6C00          CALL #_USB_disconnectDev ; |707| 
         000769 0000!
    4108 00076b 3D04  ||      MOV #0, T0
    4109              
    4110                                                      ; call occurs [#_USB_disconnectDev] ; |707| 
    4111 00076d C431          MOV T0, *(#_status) ; |707| 
         00076f 0000 
         000771 75-  
    4112                      .dwpsn  file "../c5535_bsl_revc/ezdsp5535_v1/c55xx_csl/ccs_v4.0_examples/usb/CSL_USB_IntcExample/csl_
    4113 000772 E631          MOV #1, *(#_usbDevDisconnect) ; |708| 
         000774 0100 
         000776 0183-
    4114                      .dwpsn  file "../c5535_bsl_revc/ezdsp5535_v1/c55xx_csl/ccs_v4.0_examples/usb/CSL_USB_IntcExample/csl_
    4115 000778 2249          MOV T0, AR1
    4116 00077a 6689          BCC $C$L105,AR1 == #0 ; |709| 
    4117                                                      ; branchcc occurs ; |709| 
    4118                      .dwpsn  file "../c5535_bsl_revc/ezdsp5535_v1/c55xx_csl/ccs_v4.0_examples/usb/CSL_USB_IntcExample/csl_
    4119 00077c EC31          AMOV #$C$FSL14, XAR3 ; |711| 
         00077e BE00 
         000780 012A+
    4120 000782 EB00          MOV XAR3, dbl(*SP(#0))
         000784 B5   
    4121              $C$DW$285       .dwtag  DW_TAG_TI_branch
    4122                      .dwattr $C$DW$285, DW_AT_low_pc(0x00)
    4123                      .dwattr $C$DW$285, DW_AT_name("_printf")
    4124                      .dwattr $C$DW$285, DW_AT_TI_call
    4125 000785 6C00          CALL #_printf ; |711| 
         000787 0000!
    4126                                                      ; call occurs [#_printf] ; |711| 
    4127 000789       $C$L105:    
    4128                      .dwpsn  file "../c5535_bsl_revc/ezdsp5535_v1/c55xx_csl/ccs_v4.0_examples/usb/CSL_USB_IntcExample/csl_
    4129 000789 ED31          MOV dbl(*(#_pContext)), XAR3
         00078b BF00 
         00078d 0076-
    4130 00078f DC6D          BTST #0, *AR3(#95), TC1 ; |716| 
         000791 0000 
         000793 5F   
    4131 000794 0474          BCC $C$L106,!TC1 ; |716| 
         000796 20   
    4132                                                      ; branchcc occurs ; |716| 
    4133                      .dwpsn  file "../c5535_bsl_revc/ezdsp5535_v1/c55xx_csl/ccs_v4.0_examples/usb/CSL_USB_IntcExample/csl_
    4134 000797 4656          BCLR ST3_SATA
    4135 000799 4617          BSET ST3_SMUL
    4136              $C$DW$286       .dwtag  DW_TAG_TI_branch
    4137                      .dwattr $C$DW$286, DW_AT_low_pc(0x00)
    4138                      .dwattr $C$DW$286, DW_AT_name("_USB_suspendDevice")
    4139                      .dwattr $C$DW$286, DW_AT_TI_call
    4140              
    4141 00079b 6C00          CALL #_USB_suspendDevice ; |718| 
         00079d 0000!
    4142 00079f 3D04  ||      MOV #0, T0
    4143              
    4144                                                      ; call occurs [#_USB_suspendDevice] ; |718| 
    4145 0007a1 C431          MOV T0, *(#_status) ; |718| 
         0007a3 0000 
TMS320C55x Assembler PC v4.4.1 Sat Sep 29 23:08:36 2018

Tools Copyright (c) 1996-2012 Texas Instruments Incorporated
csl_usb_intc_example.asm                                             PAGE  103

         0007a5 75-  
    4146                      .dwpsn  file "../c5535_bsl_revc/ezdsp5535_v1/c55xx_csl/ccs_v4.0_examples/usb/CSL_USB_IntcExample/csl_
    4147 0007a6 2249          MOV T0, AR1
    4148 0007a8 6689          BCC $C$L106,AR1 == #0 ; |719| 
    4149                                                      ; branchcc occurs ; |719| 
    4150                      .dwpsn  file "../c5535_bsl_revc/ezdsp5535_v1/c55xx_csl/ccs_v4.0_examples/usb/CSL_USB_IntcExample/csl_
    4151 0007aa EC31          AMOV #$C$FSL15, XAR3 ; |721| 
         0007ac BE00 
         0007ae 0142+
    4152 0007b0 EB00          MOV XAR3, dbl(*SP(#0))
         0007b2 B5   
    4153              $C$DW$287       .dwtag  DW_TAG_TI_branch
    4154                      .dwattr $C$DW$287, DW_AT_low_pc(0x00)
    4155                      .dwattr $C$DW$287, DW_AT_name("_printf")
    4156                      .dwattr $C$DW$287, DW_AT_TI_call
    4157 0007b3 6C00          CALL #_printf ; |721| 
         0007b5 0000!
    4158                                                      ; call occurs [#_printf] ; |721| 
    4159 0007b7       $C$L106:    
    4160                      .dwpsn  file "../c5535_bsl_revc/ezdsp5535_v1/c55xx_csl/ccs_v4.0_examples/usb/CSL_USB_IntcExample/csl_
    4161 0007b7 7600          MOV #60, T0 ; |725| 
         0007b9 3C48 
    4162 0007bb AB31          MOV *(#_usbRegisters), AR3 ; |725| 
         0007bd 0000 
         0007bf 00!  
    4163 0007c0 A96B          MOV port(*AR3(T0)), AR1 ; |725| 
         0007c2 99   
    4164 0007c3 7DFF          AND #0xff00, AR1, AC0 ; |725| 
         0007c5 0009 
    4165 0007c7 C06B          MOV AC0, port(*AR3(T0)) ; |725| 
         0007c9 9A   
    4166                      .dwpsn  file "../c5535_bsl_revc/ezdsp5535_v1/c55xx_csl/ccs_v4.0_examples/usb/CSL_USB_IntcExample/csl_
    4167 0007ca       $C$L107:    
    4168 0007ca 4E07          AADD #7, SP
    4169                      .dwcfi  cfa_offset, 47
    4170 0007cc BB9A          POP mmap(SP)
         0007ce 98   
    4171 0007cf BB6C          POP mmap(BSAC)
         0007d1 98   
    4172                      .dwcfi  restore_reg, 68
    4173                      .dwcfi  cfa_offset, 46
    4174 0007d2 BB6A          POP mmap(BSA67)
         0007d4 98   
    4175                      .dwcfi  restore_reg, 67
    4176                      .dwcfi  cfa_offset, 45
    4177 0007d5 BB68          POP mmap(BSA45)
         0007d7 98   
    4178                      .dwcfi  restore_reg, 66
    4179                      .dwcfi  cfa_offset, 44
    4180 0007d8 BB66          POP mmap(BSA23)
         0007da 98   
    4181                      .dwcfi  restore_reg, 65
    4182                      .dwcfi  cfa_offset, 43
    4183 0007db BB64          POP mmap(BSA01)
         0007dd 98   
TMS320C55x Assembler PC v4.4.1 Sat Sep 29 23:08:36 2018

Tools Copyright (c) 1996-2012 Texas Instruments Incorporated
csl_usb_intc_example.asm                                             PAGE  104

    4184                      .dwcfi  restore_reg, 64
    4185                      .dwcfi  cfa_offset, 42
    4186 0007de BB70          POP mmap(TRN1)
         0007e0 98   
    4187                      .dwcfi  restore_reg, 63
    4188                      .dwcfi  cfa_offset, 41
    4189 0007e1 BB1E          POP mmap(TRN0)
         0007e3 98   
    4190                      .dwcfi  restore_reg, 62
    4191                      .dwcfi  cfa_offset, 40
    4192 0007e4 5074          POPBOTH XCDP
    4193                      .dwcfi  restore_reg, 60
    4194                      .dwcfi  cfa_offset, 39
    4195 0007e6 BB88          POP mmap(RPTC)
         0007e8 98   
    4196                      .dwcfi  restore_reg, 59
    4197                      .dwcfi  cfa_offset, 38
    4198 0007e9 BB76          POP mmap(CSR)
         0007eb 98   
    4199                      .dwcfi  restore_reg, 58
    4200                      .dwcfi  cfa_offset, 37
    4201 0007ec BB84          POP mmap(REA1H)
         0007ee 98   
    4202                      .dwcfi  restore_reg, 57
    4203                      .dwcfi  cfa_offset, 36
    4204 0007ef BB86          POP mmap(REA1L)
         0007f1 98   
    4205                      .dwcfi  restore_reg, 56
    4206                      .dwcfi  cfa_offset, 35
    4207 0007f2 BB80          POP mmap(RSA1H)
         0007f4 98   
    4208                      .dwcfi  restore_reg, 55
    4209                      .dwcfi  cfa_offset, 34
    4210 0007f5 BB82          POP mmap(RSA1L)
         0007f7 98   
    4211                      .dwcfi  restore_reg, 54
    4212                      .dwcfi  cfa_offset, 33
    4213 0007f8 BB72          POP mmap(BRC1)
         0007fa 98   
    4214                      .dwcfi  restore_reg, 53
    4215                      .dwcfi  cfa_offset, 32
    4216 0007fb BB74          POP mmap(BRS1)
         0007fd 98   
    4217                      .dwcfi  restore_reg, 52
    4218                      .dwcfi  cfa_offset, 31
    4219 0007fe BB7C          POP mmap(REA0H)
         000800 98   
    4220                      .dwcfi  restore_reg, 51
    4221                      .dwcfi  cfa_offset, 30
    4222 000801 BB7E          POP mmap(REA0L)
         000803 98   
    4223                      .dwcfi  restore_reg, 50
    4224                      .dwcfi  cfa_offset, 29
    4225 000804 BB78          POP mmap(RSA0H)
         000806 98   
TMS320C55x Assembler PC v4.4.1 Sat Sep 29 23:08:36 2018

Tools Copyright (c) 1996-2012 Texas Instruments Incorporated
csl_usb_intc_example.asm                                             PAGE  105

    4226                      .dwcfi  restore_reg, 49
    4227                      .dwcfi  cfa_offset, 28
    4228 000807 BB7A          POP mmap(RSA0L)
         000809 98   
    4229                      .dwcfi  restore_reg, 48
    4230                      .dwcfi  cfa_offset, 27
    4231 00080a BB34          POP mmap(BRC0)
         00080c 98   
    4232                      .dwcfi  restore_reg, 47
    4233                      .dwcfi  cfa_offset, 26
    4234 00080d BB60          POP mmap(BK47)
         00080f 98   
    4235                      .dwcfi  restore_reg, 39
    4236                      .dwcfi  cfa_offset, 25
    4237 000810 BB32          POP mmap(BK03)
         000812 98   
    4238                      .dwcfi  restore_reg, 38
    4239                      .dwcfi  cfa_offset, 24
    4240 000813 BB62          POP mmap(BKC)
         000815 98   
    4241                      .dwcfi  restore_reg, 37
    4242                      .dwcfi  cfa_offset, 23
    4243 000816 50C4          POPBOTH XAR4
    4244                      .dwcfi  restore_reg, 24
    4245                      .dwcfi  cfa_offset, 22
    4246 000818 50B4          POPBOTH XAR3
    4247                      .dwcfi  restore_reg, 22
    4248                      .dwcfi  cfa_offset, 21
    4249 00081a 50A4          POPBOTH XAR2
    4250                      .dwcfi  restore_reg, 20
    4251                      .dwcfi  cfa_offset, 20
    4252 00081c 5094          POPBOTH XAR1
    4253                      .dwcfi  restore_reg, 18
    4254                      .dwcfi  cfa_offset, 19
    4255 00081e 5084          POPBOTH XAR0
    4256                      .dwcfi  restore_reg, 16
    4257                      .dwcfi  cfa_offset, 18
    4258 000820 5052          POP T1
    4259                      .dwcfi  restore_reg, 13
    4260                      .dwcfi  cfa_offset, 17
    4261 000822 5042          POP T0
    4262                      .dwcfi  restore_reg, 12
    4263                      .dwcfi  cfa_offset, 16
    4264 000824 BB54          POP mmap(AC3G)
         000826 98   
    4265                      .dwcfi  restore_reg, 11
    4266                      .dwcfi  cfa_offset, 15
    4267                      .dwcfi  restore_reg, 10
    4268                      .dwcfi  cfa_offset, 14
    4269 000827 5033          POP dbl(AC3)
    4270                      .dwcfi  restore_reg, 9
    4271                      .dwcfi  cfa_offset, 13
    4272 000829 BB4C          POP mmap(AC2G)
         00082b 98   
    4273                      .dwcfi  restore_reg, 8
TMS320C55x Assembler PC v4.4.1 Sat Sep 29 23:08:36 2018

Tools Copyright (c) 1996-2012 Texas Instruments Incorporated
csl_usb_intc_example.asm                                             PAGE  106

    4274                      .dwcfi  cfa_offset, 12
    4275                      .dwcfi  restore_reg, 7
    4276                      .dwcfi  cfa_offset, 11
    4277 00082c 5023          POP dbl(AC2)
    4278                      .dwcfi  restore_reg, 6
    4279                      .dwcfi  cfa_offset, 10
    4280 00082e BB1A          POP mmap(AC1G)
         000830 98   
    4281                      .dwcfi  restore_reg, 5
    4282                      .dwcfi  cfa_offset, 9
    4283                      .dwcfi  restore_reg, 4
    4284                      .dwcfi  cfa_offset, 8
    4285 000831 5013          POP dbl(AC1)
    4286                      .dwcfi  restore_reg, 3
    4287                      .dwcfi  cfa_offset, 7
    4288 000833 BB14          POP mmap(AC0G)
         000835 98   
    4289                      .dwcfi  restore_reg, 2
    4290                      .dwcfi  cfa_offset, 6
    4291                      .dwcfi  restore_reg, 1
    4292                      .dwcfi  cfa_offset, 5
    4293 000836 5003          POP dbl(AC0)
    4294                      .dwcfi  restore_reg, 0
    4295                      .dwcfi  cfa_offset, 4
    4296 000838 BB08          POP mmap(ST3_55)
         00083a 98   
    4297                      .dwcfi  restore_reg, 43
    4298                      .dwcfi  cfa_offset, 3
    4299              $C$DW$288       .dwtag  DW_TAG_TI_branch
    4300                      .dwattr $C$DW$288, DW_AT_low_pc(0x00)
    4301                      .dwattr $C$DW$288, DW_AT_TI_return
    4302 00083b 4805          RETI
    4303                                                      ; return occurs
    4304                      .dwattr $C$DW$241, DW_AT_TI_end_file("../c5535_bsl_revc/ezdsp5535_v1/c55xx_csl/ccs_v4.0_examples/usb/
    4305                      .dwattr $C$DW$241, DW_AT_TI_end_line(0x2d7)
    4306                      .dwattr $C$DW$241, DW_AT_TI_end_column(0x01)
    4307                      .dwendentry
    4308                      .dwendtag $C$DW$241
    4309              
    4310 000bc2               .sect   ".text"
    4311                      .align 4
    4312                      .global _CSL_suspendCallBack
    4313              
    4314              $C$DW$289       .dwtag  DW_TAG_subprogram, DW_AT_name("CSL_suspendCallBack")
    4315                      .dwattr $C$DW$289, DW_AT_low_pc(_CSL_suspendCallBack)
    4316                      .dwattr $C$DW$289, DW_AT_high_pc(0x00)
    4317                      .dwattr $C$DW$289, DW_AT_TI_symbol_name("_CSL_suspendCallBack")
    4318                      .dwattr $C$DW$289, DW_AT_external
    4319                      .dwattr $C$DW$289, DW_AT_TI_begin_file("../c5535_bsl_revc/ezdsp5535_v1/c55xx_csl/ccs_v4.0_examples/us
    4320                      .dwattr $C$DW$289, DW_AT_TI_begin_line(0x2e1)
    4321                      .dwattr $C$DW$289, DW_AT_TI_begin_column(0x06)
    4322                      .dwattr $C$DW$289, DW_AT_TI_max_frame_size(0x04)
    4323                      .dwpsn  file "../c5535_bsl_revc/ezdsp5535_v1/c55xx_csl/ccs_v4.0_examples/usb/CSL_USB_IntcExample/csl_
    4324              
    4325                      .dwfde $C$DW$CIE, _CSL_suspendCallBack
TMS320C55x Assembler PC v4.4.1 Sat Sep 29 23:08:36 2018

Tools Copyright (c) 1996-2012 Texas Instruments Incorporated
csl_usb_intc_example.asm                                             PAGE  107

    4326              $C$DW$290       .dwtag  DW_TAG_formal_parameter, DW_AT_name("status")
    4327                      .dwattr $C$DW$290, DW_AT_TI_symbol_name("_status")
    4328                      .dwattr $C$DW$290, DW_AT_type(*$C$DW$T$80)
    4329                      .dwattr $C$DW$290, DW_AT_location[DW_OP_reg12]
    4330              ;*******************************************************************************
    4331              ;* FUNCTION NAME: CSL_suspendCallBack                                          *
    4332              ;*                                                                             *
    4333              ;*   Function Uses Regs : T0,AR3,XAR3,SP,M40,SATA,SATD,RDM,FRCT,SMUL           *
    4334              ;*   Stack Frame        : Compact (No Frame Pointer, w/ debug)                 *
    4335              ;*   Total Frame Size   : 4 words                                              *
    4336              ;*                        (1 return address/alignment)                         *
    4337              ;*                        (2 function parameters)                              *
    4338              ;*                        (1 local values)                                     *
    4339              ;*   Min System Stack   : 1 word                                               *
    4340              ;*******************************************************************************
    4341 000bc4       _CSL_suspendCallBack:
    4342                      .dwcfi  cfa_offset, 1
    4343                      .dwcfi  save_reg_to_mem, 91, -1
    4344 000bc4 4EFD          AADD #-3, SP
    4345                      .dwcfi  cfa_offset, 4
    4346              $C$DW$291       .dwtag  DW_TAG_variable, DW_AT_name("status")
    4347                      .dwattr $C$DW$291, DW_AT_TI_symbol_name("_status")
    4348                      .dwattr $C$DW$291, DW_AT_type(*$C$DW$T$80)
    4349                      .dwattr $C$DW$291, DW_AT_location[DW_OP_bregx 0x24 2]
    4350 000bc6 C404          MOV T0, *SP(#2) ; |738| 
    4351                      .dwpsn  file "../c5535_bsl_revc/ezdsp5535_v1/c55xx_csl/ccs_v4.0_examples/usb/CSL_USB_IntcExample/csl_
    4352 000bc8 EC31          AMOV #$C$FSL16, XAR3 ; |739| 
         000bca BE00 
         000bcc 0156+
    4353 000bce EB00          MOV XAR3, dbl(*SP(#0))
         000bd0 B5   
    4354              $C$DW$292       .dwtag  DW_TAG_TI_branch
    4355                      .dwattr $C$DW$292, DW_AT_low_pc(0x00)
    4356                      .dwattr $C$DW$292, DW_AT_name("_printf")
    4357                      .dwattr $C$DW$292, DW_AT_TI_call
    4358 000bd1 6C00          CALL #_printf ; |739| 
         000bd3 0000!
    4359                                                      ; call occurs [#_printf] ; |739| 
    4360                      .dwpsn  file "../c5535_bsl_revc/ezdsp5535_v1/c55xx_csl/ccs_v4.0_examples/usb/CSL_USB_IntcExample/csl_
    4361 000bd5 4E03          AADD #3, SP
    4362                      .dwcfi  cfa_offset, 1
    4363              $C$DW$293       .dwtag  DW_TAG_TI_branch
    4364                      .dwattr $C$DW$293, DW_AT_low_pc(0x00)
    4365                      .dwattr $C$DW$293, DW_AT_TI_return
    4366 000bd7 4804          RET
    4367                                                      ; return occurs
    4368                      .dwattr $C$DW$289, DW_AT_TI_end_file("../c5535_bsl_revc/ezdsp5535_v1/c55xx_csl/ccs_v4.0_examples/usb/
    4369                      .dwattr $C$DW$289, DW_AT_TI_end_line(0x2e4)
    4370                      .dwattr $C$DW$289, DW_AT_TI_end_column(0x01)
    4371                      .dwendentry
    4372                      .dwendtag $C$DW$289
    4373              
    4374 000bd9               .sect   ".text"
    4375                      .align 4
    4376                      .global _CSL_selfWakeupCallBack
TMS320C55x Assembler PC v4.4.1 Sat Sep 29 23:08:36 2018

Tools Copyright (c) 1996-2012 Texas Instruments Incorporated
csl_usb_intc_example.asm                                             PAGE  108

    4377              
    4378              $C$DW$294       .dwtag  DW_TAG_subprogram, DW_AT_name("CSL_selfWakeupCallBack")
    4379                      .dwattr $C$DW$294, DW_AT_low_pc(_CSL_selfWakeupCallBack)
    4380                      .dwattr $C$DW$294, DW_AT_high_pc(0x00)
    4381                      .dwattr $C$DW$294, DW_AT_TI_symbol_name("_CSL_selfWakeupCallBack")
    4382                      .dwattr $C$DW$294, DW_AT_external
    4383                      .dwattr $C$DW$294, DW_AT_TI_begin_file("../c5535_bsl_revc/ezdsp5535_v1/c55xx_csl/ccs_v4.0_examples/us
    4384                      .dwattr $C$DW$294, DW_AT_TI_begin_line(0x2ed)
    4385                      .dwattr $C$DW$294, DW_AT_TI_begin_column(0x06)
    4386                      .dwattr $C$DW$294, DW_AT_TI_max_frame_size(0x04)
    4387                      .dwpsn  file "../c5535_bsl_revc/ezdsp5535_v1/c55xx_csl/ccs_v4.0_examples/usb/CSL_USB_IntcExample/csl_
    4388              
    4389                      .dwfde $C$DW$CIE, _CSL_selfWakeupCallBack
    4390              $C$DW$295       .dwtag  DW_TAG_formal_parameter, DW_AT_name("status")
    4391                      .dwattr $C$DW$295, DW_AT_TI_symbol_name("_status")
    4392                      .dwattr $C$DW$295, DW_AT_type(*$C$DW$T$80)
    4393                      .dwattr $C$DW$295, DW_AT_location[DW_OP_reg12]
    4394              ;*******************************************************************************
    4395              ;* FUNCTION NAME: CSL_selfWakeupCallBack                                       *
    4396              ;*                                                                             *
    4397              ;*   Function Uses Regs : T0,AR3,XAR3,SP,M40,SATA,SATD,RDM,FRCT,SMUL           *
    4398              ;*   Stack Frame        : Compact (No Frame Pointer, w/ debug)                 *
    4399              ;*   Total Frame Size   : 4 words                                              *
    4400              ;*                        (1 return address/alignment)                         *
    4401              ;*                        (2 function parameters)                              *
    4402              ;*                        (1 local values)                                     *
    4403              ;*   Min System Stack   : 1 word                                               *
    4404              ;*******************************************************************************
    4405 000bdc       _CSL_selfWakeupCallBack:
    4406                      .dwcfi  cfa_offset, 1
    4407                      .dwcfi  save_reg_to_mem, 91, -1
    4408 000bdc 4EFD          AADD #-3, SP
    4409                      .dwcfi  cfa_offset, 4
    4410              $C$DW$296       .dwtag  DW_TAG_variable, DW_AT_name("status")
    4411                      .dwattr $C$DW$296, DW_AT_TI_symbol_name("_status")
    4412                      .dwattr $C$DW$296, DW_AT_type(*$C$DW$T$80)
    4413                      .dwattr $C$DW$296, DW_AT_location[DW_OP_bregx 0x24 2]
    4414 000bde C404          MOV T0, *SP(#2) ; |750| 
    4415                      .dwpsn  file "../c5535_bsl_revc/ezdsp5535_v1/c55xx_csl/ccs_v4.0_examples/usb/CSL_USB_IntcExample/csl_
    4416 000be0 EC31          AMOV #$C$FSL17, XAR3 ; |751| 
         000be2 BE00 
         000be4 016E+
    4417 000be6 EB00          MOV XAR3, dbl(*SP(#0))
         000be8 B5   
    4418              $C$DW$297       .dwtag  DW_TAG_TI_branch
    4419                      .dwattr $C$DW$297, DW_AT_low_pc(0x00)
    4420                      .dwattr $C$DW$297, DW_AT_name("_printf")
    4421                      .dwattr $C$DW$297, DW_AT_TI_call
    4422 000be9 6C00          CALL #_printf ; |751| 
         000beb 0000!
    4423                                                      ; call occurs [#_printf] ; |751| 
    4424                      .dwpsn  file "../c5535_bsl_revc/ezdsp5535_v1/c55xx_csl/ccs_v4.0_examples/usb/CSL_USB_IntcExample/csl_
    4425 000bed 4E03          AADD #3, SP
    4426                      .dwcfi  cfa_offset, 1
    4427              $C$DW$298       .dwtag  DW_TAG_TI_branch
TMS320C55x Assembler PC v4.4.1 Sat Sep 29 23:08:36 2018

Tools Copyright (c) 1996-2012 Texas Instruments Incorporated
csl_usb_intc_example.asm                                             PAGE  109

    4428                      .dwattr $C$DW$298, DW_AT_low_pc(0x00)
    4429                      .dwattr $C$DW$298, DW_AT_TI_return
    4430 000bef 4804          RET
    4431                                                      ; return occurs
    4432                      .dwattr $C$DW$294, DW_AT_TI_end_file("../c5535_bsl_revc/ezdsp5535_v1/c55xx_csl/ccs_v4.0_examples/usb/
    4433                      .dwattr $C$DW$294, DW_AT_TI_end_line(0x2f0)
    4434                      .dwattr $C$DW$294, DW_AT_TI_end_column(0x01)
    4435                      .dwendentry
    4436                      .dwendtag $C$DW$294
    4437              
    4438 000bf1               .sect   ".text"
    4439                      .align 4
    4440              
    4441              $C$DW$299       .dwtag  DW_TAG_subprogram, DW_AT_name("USB_delay")
    4442                      .dwattr $C$DW$299, DW_AT_low_pc(_USB_delay)
    4443                      .dwattr $C$DW$299, DW_AT_high_pc(0x00)
    4444                      .dwattr $C$DW$299, DW_AT_TI_symbol_name("_USB_delay")
    4445                      .dwattr $C$DW$299, DW_AT_TI_begin_file("../c5535_bsl_revc/ezdsp5535_v1/c55xx_csl/ccs_v4.0_examples/us
    4446                      .dwattr $C$DW$299, DW_AT_TI_begin_line(0x2f9)
    4447                      .dwattr $C$DW$299, DW_AT_TI_begin_column(0x0d)
    4448                      .dwattr $C$DW$299, DW_AT_TI_max_frame_size(0x0a)
    4449                      .dwpsn  file "../c5535_bsl_revc/ezdsp5535_v1/c55xx_csl/ccs_v4.0_examples/usb/CSL_USB_IntcExample/csl_
    4450              
    4451                      .dwfde $C$DW$CIE, _USB_delay
    4452              $C$DW$300       .dwtag  DW_TAG_formal_parameter, DW_AT_name("mSecs")
    4453                      .dwattr $C$DW$300, DW_AT_TI_symbol_name("_mSecs")
    4454                      .dwattr $C$DW$300, DW_AT_type(*$C$DW$T$70)
    4455                      .dwattr $C$DW$300, DW_AT_location[DW_OP_reg0]
    4456              ;*******************************************************************************
    4457              ;* FUNCTION NAME: USB_delay                                                    *
    4458              ;*                                                                             *
    4459              ;*   Function Uses Regs : AC0,AC0,AC1,AC1,AR3,XAR3,SP,CARRY,TC1,M40,SATA,SATD, *
    4460              ;*                        RDM,FRCT,SMUL                                        *
    4461              ;*   Stack Frame        : Compact (No Frame Pointer, w/ debug)                 *
    4462              ;*   Total Frame Size   : 10 words                                             *
    4463              ;*                        (2 return address/alignment)                         *
    4464              ;*                        (8 local values)                                     *
    4465              ;*   Min System Stack   : 1 word                                               *
    4466              ;*******************************************************************************
    4467 000bf4       _USB_delay:
    4468                      .dwcfi  cfa_offset, 1
    4469                      .dwcfi  save_reg_to_mem, 91, -1
    4470 000bf4 4EF7          AADD #-9, SP
    4471                      .dwcfi  cfa_offset, 10
    4472              $C$DW$301       .dwtag  DW_TAG_variable, DW_AT_name("mSecs")
    4473                      .dwattr $C$DW$301, DW_AT_TI_symbol_name("_mSecs")
    4474                      .dwattr $C$DW$301, DW_AT_type(*$C$DW$T$70)
    4475                      .dwattr $C$DW$301, DW_AT_location[DW_OP_bregx 0x24 0]
    4476              $C$DW$302       .dwtag  DW_TAG_variable, DW_AT_name("delay")
    4477                      .dwattr $C$DW$302, DW_AT_TI_symbol_name("_delay")
    4478                      .dwattr $C$DW$302, DW_AT_type(*$C$DW$T$221)
    4479                      .dwattr $C$DW$302, DW_AT_location[DW_OP_bregx 0x24 2]
    4480              $C$DW$303       .dwtag  DW_TAG_variable, DW_AT_name("msecCount")
    4481                      .dwattr $C$DW$303, DW_AT_TI_symbol_name("_msecCount")
    4482                      .dwattr $C$DW$303, DW_AT_type(*$C$DW$T$221)
TMS320C55x Assembler PC v4.4.1 Sat Sep 29 23:08:36 2018

Tools Copyright (c) 1996-2012 Texas Instruments Incorporated
csl_usb_intc_example.asm                                             PAGE  110

    4483                      .dwattr $C$DW$303, DW_AT_location[DW_OP_bregx 0x24 4]
    4484              $C$DW$304       .dwtag  DW_TAG_variable, DW_AT_name("sysClk")
    4485                      .dwattr $C$DW$304, DW_AT_TI_symbol_name("_sysClk")
    4486                      .dwattr $C$DW$304, DW_AT_type(*$C$DW$T$221)
    4487                      .dwattr $C$DW$304, DW_AT_location[DW_OP_bregx 0x24 6]
    4488 000bf6 EB00          MOV AC0, dbl(*SP(#0)) ; |762| 
         000bf8 08   
    4489                      .dwpsn  file "../c5535_bsl_revc/ezdsp5535_v1/c55xx_csl/ccs_v4.0_examples/usb/CSL_USB_IntcExample/csl_
    4490 000bf9 EC31          AMOV #100000, XAR3 ; |767| 
         000bfb BE01 
         000bfd 86A0 
    4491 000bff 90B0          MOV XAR3, AC0
    4492 000c01 EB0C          MOV AC0, dbl(*SP(#6)) ; |767| 
         000c03 08   
    4493                      .dwpsn  file "../c5535_bsl_revc/ezdsp5535_v1/c55xx_csl/ccs_v4.0_examples/usb/CSL_USB_IntcExample/csl_
    4494 000c04 3C00          MOV #0, AC0 ; |769| 
    4495 000c06 EB08          MOV AC0, dbl(*SP(#4)) ; |769| 
         000c08 08   
    4496 000c09 20            NOP
    4497 000c0a 20            NOP
    4498                      .dwpsn  file "../c5535_bsl_revc/ezdsp5535_v1/c55xx_csl/ccs_v4.0_examples/usb/CSL_USB_IntcExample/csl_
    4499 000c0b ED00          MOV dbl(*SP(#0)), AC0 ; |769| 
         000c0d 08   
    4500 000c0e ED08          MOV dbl(*SP(#4)), AC1 ; |769| 
         000c10 18   
    4501 000c11 1218          CMPU AC1 >= AC0, TC1 ; |769| 
         000c13 04   
    4502 000c14 0464          BCC $C$L111,TC1 ; |769| 
         000c16 43   
    4503                                                      ; branchcc occurs ; |769| 
    4504 000c17       $C$L108:    
    4505 000c17       $C$DW$L$_USB_delay$2$B:
    4506                      .dwpsn  file "../c5535_bsl_revc/ezdsp5535_v1/c55xx_csl/ccs_v4.0_examples/usb/CSL_USB_IntcExample/csl_
    4507 000c17 3C00          MOV #0, AC0 ; |771| 
    4508 000c19 EB04          MOV AC0, dbl(*SP(#2)) ; |771| 
         000c1b 08   
    4509 000c1c 20            NOP
    4510 000c1d 20            NOP
    4511 000c1e 20            NOP
    4512                      .dwpsn  file "../c5535_bsl_revc/ezdsp5535_v1/c55xx_csl/ccs_v4.0_examples/usb/CSL_USB_IntcExample/csl_
    4513 000c1f ED0C          MOV dbl(*SP(#6)), AC0 ; |771| 
         000c21 08   
    4514 000c22 ED04          MOV dbl(*SP(#2)), AC1 ; |771| 
         000c24 18   
    4515 000c25 1218          CMPU AC1 >= AC0, TC1 ; |771| 
         000c27 04   
    4516 000c28 0464          BCC $C$L110,TC1 ; |771| 
         000c2a 18   
    4517                                                      ; branchcc occurs ; |771| 
    4518 000c2b       $C$DW$L$_USB_delay$2$E:
    4519 000c2b       $C$L109:    
    4520 000c2b       $C$DW$L$_USB_delay$3$B:
    4521                      .dwpsn  file "../c5535_bsl_revc/ezdsp5535_v1/c55xx_csl/ccs_v4.0_examples/usb/CSL_USB_IntcExample/csl_
    4522 000c2b 20            NOP
    4523                      .dwpsn  file "../c5535_bsl_revc/ezdsp5535_v1/c55xx_csl/ccs_v4.0_examples/usb/CSL_USB_IntcExample/csl_
TMS320C55x Assembler PC v4.4.1 Sat Sep 29 23:08:36 2018

Tools Copyright (c) 1996-2012 Texas Instruments Incorporated
csl_usb_intc_example.asm                                             PAGE  111

    4524 000c2c ED04          MOV dbl(*SP(#2)), AC0 ; |771| 
         000c2e 08   
    4525 000c2f 4010          ADD #1, AC0 ; |771| 
    4526 000c31 EB04          MOV AC0, dbl(*SP(#2)) ; |771| 
         000c33 08   
    4527 000c34 20            NOP
    4528 000c35 20            NOP
    4529 000c36 20            NOP
    4530                      .dwpsn  file "../c5535_bsl_revc/ezdsp5535_v1/c55xx_csl/ccs_v4.0_examples/usb/CSL_USB_IntcExample/csl_
    4531 000c37 ED0C          MOV dbl(*SP(#6)), AC0 ; |771| 
         000c39 08   
    4532 000c3a ED04          MOV dbl(*SP(#2)), AC1 ; |771| 
         000c3c 18   
    4533 000c3d 1214          CMPU AC1 < AC0, TC1 ; |771| 
         000c3f 04   
    4534 000c40 0464          BCC $C$L109,TC1 ; |771| 
         000c42 E8   
    4535                                                      ; branchcc occurs ; |771| 
    4536 000c43       $C$DW$L$_USB_delay$3$E:
    4537 000c43       $C$L110:    
    4538 000c43       $C$DW$L$_USB_delay$4$B:
    4539                      .dwpsn  file "../c5535_bsl_revc/ezdsp5535_v1/c55xx_csl/ccs_v4.0_examples/usb/CSL_USB_IntcExample/csl_
    4540 000c43 ED08          MOV dbl(*SP(#4)), AC0 ; |769| 
         000c45 08   
    4541 000c46 4010          ADD #1, AC0 ; |769| 
    4542 000c48 EB08          MOV AC0, dbl(*SP(#4)) ; |769| 
         000c4a 08   
    4543 000c4b 20            NOP
    4544 000c4c 20            NOP
    4545 000c4d 20            NOP
    4546                      .dwpsn  file "../c5535_bsl_revc/ezdsp5535_v1/c55xx_csl/ccs_v4.0_examples/usb/CSL_USB_IntcExample/csl_
    4547 000c4e ED08          MOV dbl(*SP(#4)), AC1 ; |769| 
         000c50 18   
    4548 000c51 ED00          MOV dbl(*SP(#0)), AC0 ; |769| 
         000c53 08   
    4549 000c54 1214          CMPU AC1 < AC0, TC1 ; |769| 
         000c56 04   
    4550 000c57 0464          BCC $C$L108,TC1 ; |769| 
         000c59 BD   
    4551                                                      ; branchcc occurs ; |769| 
    4552 000c5a       $C$DW$L$_USB_delay$4$E:
    4553                      .dwpsn  file "../c5535_bsl_revc/ezdsp5535_v1/c55xx_csl/ccs_v4.0_examples/usb/CSL_USB_IntcExample/csl_
    4554 000c5a       $C$L111:    
    4555 000c5a 4E09          AADD #9, SP
    4556                      .dwcfi  cfa_offset, 1
    4557              $C$DW$305       .dwtag  DW_TAG_TI_branch
    4558                      .dwattr $C$DW$305, DW_AT_low_pc(0x00)
    4559                      .dwattr $C$DW$305, DW_AT_TI_return
    4560 000c5c 4804          RET
    4561                                                      ; return occurs
    4562              
    4563              $C$DW$306       .dwtag  DW_TAG_TI_loop
    4564                      .dwattr $C$DW$306, DW_AT_name("F:\eZdsp_DBG\tmp1\c55x-sim2\foo\Debug\csl_usb_intc_example.asm:$C$L108
    4565                      .dwattr $C$DW$306, DW_AT_TI_begin_file("../c5535_bsl_revc/ezdsp5535_v1/c55xx_csl/ccs_v4.0_examples/us
    4566                      .dwattr $C$DW$306, DW_AT_TI_begin_line(0x301)
TMS320C55x Assembler PC v4.4.1 Sat Sep 29 23:08:36 2018

Tools Copyright (c) 1996-2012 Texas Instruments Incorporated
csl_usb_intc_example.asm                                             PAGE  112

    4567                      .dwattr $C$DW$306, DW_AT_TI_end_line(0x307)
    4568              $C$DW$307       .dwtag  DW_TAG_TI_loop_range
    4569                      .dwattr $C$DW$307, DW_AT_low_pc($C$DW$L$_USB_delay$2$B)
    4570                      .dwattr $C$DW$307, DW_AT_high_pc($C$DW$L$_USB_delay$2$E)
    4571              $C$DW$308       .dwtag  DW_TAG_TI_loop_range
    4572                      .dwattr $C$DW$308, DW_AT_low_pc($C$DW$L$_USB_delay$4$B)
    4573                      .dwattr $C$DW$308, DW_AT_high_pc($C$DW$L$_USB_delay$4$E)
    4574              
    4575              $C$DW$309       .dwtag  DW_TAG_TI_loop
    4576                      .dwattr $C$DW$309, DW_AT_name("F:\eZdsp_DBG\tmp1\c55x-sim2\foo\Debug\csl_usb_intc_example.asm:$C$L109
    4577                      .dwattr $C$DW$309, DW_AT_TI_begin_file("../c5535_bsl_revc/ezdsp5535_v1/c55xx_csl/ccs_v4.0_examples/us
    4578                      .dwattr $C$DW$309, DW_AT_TI_begin_line(0x303)
    4579                      .dwattr $C$DW$309, DW_AT_TI_end_line(0x306)
    4580              $C$DW$310       .dwtag  DW_TAG_TI_loop_range
    4581                      .dwattr $C$DW$310, DW_AT_low_pc($C$DW$L$_USB_delay$3$B)
    4582                      .dwattr $C$DW$310, DW_AT_high_pc($C$DW$L$_USB_delay$3$E)
    4583                      .dwendtag $C$DW$309
    4584              
    4585                      .dwendtag $C$DW$306
    4586              
    4587                      .dwattr $C$DW$299, DW_AT_TI_end_file("../c5535_bsl_revc/ezdsp5535_v1/c55xx_csl/ccs_v4.0_examples/usb/
    4588                      .dwattr $C$DW$299, DW_AT_TI_end_line(0x308)
    4589                      .dwattr $C$DW$299, DW_AT_TI_end_column(0x01)
    4590                      .dwendentry
    4591                      .dwendtag $C$DW$299
    4592              
    4593 000c5e               .sect   ".text"
    4594                      .align 4
    4595                      .global _CSL_startTransferCallback
    4596              
    4597              $C$DW$311       .dwtag  DW_TAG_subprogram, DW_AT_name("CSL_startTransferCallback")
    4598                      .dwattr $C$DW$311, DW_AT_low_pc(_CSL_startTransferCallback)
    4599                      .dwattr $C$DW$311, DW_AT_high_pc(0x00)
    4600                      .dwattr $C$DW$311, DW_AT_TI_symbol_name("_CSL_startTransferCallback")
    4601                      .dwattr $C$DW$311, DW_AT_external
    4602                      .dwattr $C$DW$311, DW_AT_type(*$C$DW$T$80)
    4603                      .dwattr $C$DW$311, DW_AT_TI_begin_file("../c5535_bsl_revc/ezdsp5535_v1/c55xx_csl/ccs_v4.0_examples/us
    4604                      .dwattr $C$DW$311, DW_AT_TI_begin_line(0x313)
    4605                      .dwattr $C$DW$311, DW_AT_TI_begin_column(0x0c)
    4606                      .dwattr $C$DW$311, DW_AT_TI_max_frame_size(0x0c)
    4607                      .dwpsn  file "../c5535_bsl_revc/ezdsp5535_v1/c55xx_csl/ccs_v4.0_examples/usb/CSL_USB_IntcExample/csl_
    4608              
    4609                      .dwfde $C$DW$CIE, _CSL_startTransferCallback
    4610              $C$DW$312       .dwtag  DW_TAG_formal_parameter, DW_AT_name("vpContext")
    4611                      .dwattr $C$DW$312, DW_AT_TI_symbol_name("_vpContext")
    4612                      .dwattr $C$DW$312, DW_AT_type(*$C$DW$T$3)
    4613                      .dwattr $C$DW$312, DW_AT_location[DW_OP_reg17]
    4614              $C$DW$313       .dwtag  DW_TAG_formal_parameter, DW_AT_name("vpeps")
    4615                      .dwattr $C$DW$313, DW_AT_TI_symbol_name("_vpeps")
    4616                      .dwattr $C$DW$313, DW_AT_type(*$C$DW$T$3)
    4617                      .dwattr $C$DW$313, DW_AT_location[DW_OP_reg19]
    4618              ;*******************************************************************************
    4619              ;* FUNCTION NAME: CSL_startTransferCallback                                    *
    4620              ;*                                                                             *
    4621              ;*   Function Uses Regs : AC0,AC0,AC1,AC1,T0,AR0,XAR0,AR1,XAR1,AR3,XAR3,SP,TC1,*
TMS320C55x Assembler PC v4.4.1 Sat Sep 29 23:08:36 2018

Tools Copyright (c) 1996-2012 Texas Instruments Incorporated
csl_usb_intc_example.asm                                             PAGE  113

    4622              ;*                        M40,SATA,SATD,RDM,FRCT,SMUL                          *
    4623              ;*   Stack Frame        : Compact (No Frame Pointer, w/ debug)                 *
    4624              ;*   Total Frame Size   : 12 words                                             *
    4625              ;*                        (1 return address/alignment)                         *
    4626              ;*                        (11 local values)                                    *
    4627              ;*   Min System Stack   : 1 word                                               *
    4628              ;*******************************************************************************
    4629 000c60       _CSL_startTransferCallback:
    4630                      .dwcfi  cfa_offset, 1
    4631                      .dwcfi  save_reg_to_mem, 91, -1
    4632 000c60 4EF5          AADD #-11, SP
    4633                      .dwcfi  cfa_offset, 12
    4634              $C$DW$314       .dwtag  DW_TAG_variable, DW_AT_name("vpContext")
    4635                      .dwattr $C$DW$314, DW_AT_TI_symbol_name("_vpContext")
    4636                      .dwattr $C$DW$314, DW_AT_type(*$C$DW$T$3)
    4637                      .dwattr $C$DW$314, DW_AT_location[DW_OP_bregx 0x24 0]
    4638              $C$DW$315       .dwtag  DW_TAG_variable, DW_AT_name("vpeps")
    4639                      .dwattr $C$DW$315, DW_AT_TI_symbol_name("_vpeps")
    4640                      .dwattr $C$DW$315, DW_AT_type(*$C$DW$T$3)
    4641                      .dwattr $C$DW$315, DW_AT_location[DW_OP_bregx 0x24 2]
    4642              $C$DW$316       .dwtag  DW_TAG_variable, DW_AT_name("pContext")
    4643                      .dwattr $C$DW$316, DW_AT_TI_symbol_name("_pContext")
    4644                      .dwattr $C$DW$316, DW_AT_type(*$C$DW$T$146)
    4645                      .dwattr $C$DW$316, DW_AT_location[DW_OP_bregx 0x24 4]
    4646              $C$DW$317       .dwtag  DW_TAG_variable, DW_AT_name("peps")
    4647                      .dwattr $C$DW$317, DW_AT_TI_symbol_name("_peps")
    4648                      .dwattr $C$DW$317, DW_AT_type(*$C$DW$T$150)
    4649                      .dwattr $C$DW$317, DW_AT_location[DW_OP_bregx 0x24 6]
    4650              $C$DW$318       .dwtag  DW_TAG_variable, DW_AT_name("pTransfer")
    4651                      .dwattr $C$DW$318, DW_AT_TI_symbol_name("_pTransfer")
    4652                      .dwattr $C$DW$318, DW_AT_type(*$C$DW$T$152)
    4653                      .dwattr $C$DW$318, DW_AT_location[DW_OP_bregx 0x24 8]
    4654              $C$DW$319       .dwtag  DW_TAG_variable, DW_AT_name("status")
    4655                      .dwattr $C$DW$319, DW_AT_TI_symbol_name("_status")
    4656                      .dwattr $C$DW$319, DW_AT_type(*$C$DW$T$80)
    4657                      .dwattr $C$DW$319, DW_AT_location[DW_OP_bregx 0x24 10]
    4658 000c62 EB04          MOV XAR1, dbl(*SP(#2))
         000c64 95   
    4659 000c65 EB00          MOV XAR0, dbl(*SP(#0))
         000c67 85   
    4660                      .dwpsn  file "../c5535_bsl_revc/ezdsp5535_v1/c55xx_csl/ccs_v4.0_examples/usb/CSL_USB_IntcExample/csl_
    4661 000c68 E614          MOV #0, *SP(#10) ; |795| 
         000c6a 00   
    4662                      .dwpsn  file "../c5535_bsl_revc/ezdsp5535_v1/c55xx_csl/ccs_v4.0_examples/usb/CSL_USB_IntcExample/csl_
    4663 000c6b ED00          MOV dbl(*SP(#0)), XAR3
         000c6d BF   
    4664 000c6e EB08          MOV XAR3, dbl(*SP(#4))
         000c70 B5   
    4665                      .dwpsn  file "../c5535_bsl_revc/ezdsp5535_v1/c55xx_csl/ccs_v4.0_examples/usb/CSL_USB_IntcExample/csl_
    4666 000c71 ED04          MOV dbl(*SP(#2)), XAR3
         000c73 BF   
    4667 000c74 EB0C          MOV XAR3, dbl(*SP(#6))
         000c76 B5   
    4668                      .dwpsn  file "../c5535_bsl_revc/ezdsp5535_v1/c55xx_csl/ccs_v4.0_examples/usb/CSL_USB_IntcExample/csl_
    4669 000c77 ED08          MOV dbl(*SP(#4)), XAR3
TMS320C55x Assembler PC v4.4.1 Sat Sep 29 23:08:36 2018

Tools Copyright (c) 1996-2012 Texas Instruments Incorporated
csl_usb_intc_example.asm                                             PAGE  114

         000c79 BF   
    4670 000c7a 90B0          MOV XAR3, AC0
    4671 000c7c 6380          BCC $C$L112,AC0 == #0 ; |800| 
    4672                                                      ; branchcc occurs ; |800| 
    4673 000c7e ED0C          MOV dbl(*SP(#6)), XAR3
         000c80 BF   
    4674 000c81 90B0          MOV XAR3, AC0
    4675 000c83 6290          BCC $C$L113,AC0 != #0 ; |800| 
    4676                                                      ; branchcc occurs ; |800| 
    4677 000c85       $C$L112:    
    4678                      .dwpsn  file "../c5535_bsl_revc/ezdsp5535_v1/c55xx_csl/ccs_v4.0_examples/usb/CSL_USB_IntcExample/csl_
    4679 000c85 3E64          MOV #-6, T0
    4680 000c87 0600          B $C$L121 ; |802| 
         000c89 7E   
    4681                                                      ; branch occurs ; |802| 
    4682 000c8a       $C$L113:    
    4683                      .dwpsn  file "../c5535_bsl_revc/ezdsp5535_v1/c55xx_csl/ccs_v4.0_examples/usb/CSL_USB_IntcExample/csl_
    4684 000c8a ED08          MOV dbl(*SP(#4)), XAR3
         000c8c BF   
    4685 000c8d A96D          MOV *AR3(#23), AR1 ; |805| 
         000c8f 0017 
    4686 000c91 6299          BCC $C$L114,AR1 != #0 ; |805| 
    4687                                                      ; branchcc occurs ; |805| 
    4688                      .dwpsn  file "../c5535_bsl_revc/ezdsp5535_v1/c55xx_csl/ccs_v4.0_examples/usb/CSL_USB_IntcExample/csl_
    4689 000c93 3E64          MOV #-6, T0
    4690 000c95 0600          B $C$L121 ; |807| 
         000c97 70   
    4691                                                      ; branch occurs ; |807| 
    4692 000c98       $C$L114:    
    4693                      .dwpsn  file "../c5535_bsl_revc/ezdsp5535_v1/c55xx_csl/ccs_v4.0_examples/usb/CSL_USB_IntcExample/csl_
    4694 000c98 ED0C          MOV dbl(*SP(#6)), XAR3
         000c9a BF   
    4695 000c9b A97D          MOV *AR3(short(#6)), AR1 ; |811| 
    4696 000c9d 6299          BCC $C$L115,AR1 != #0 ; |811| 
    4697                                                      ; branchcc occurs ; |811| 
    4698                      .dwpsn  file "../c5535_bsl_revc/ezdsp5535_v1/c55xx_csl/ccs_v4.0_examples/usb/CSL_USB_IntcExample/csl_
    4699 000c9f 3E64          MOV #-6, T0
    4700 000ca1 0600          B $C$L121 ; |813| 
         000ca3 64   
    4701                                                      ; branch occurs ; |813| 
    4702 000ca4       $C$L115:    
    4703                      .dwpsn  file "../c5535_bsl_revc/ezdsp5535_v1/c55xx_csl/ccs_v4.0_examples/usb/CSL_USB_IntcExample/csl_
    4704 000ca4 ED6D          MOV dbl(*AR3(#10)), XAR3
         000ca6 BF00 
         000ca8 0A   
    4705 000ca9 EB10          MOV XAR3, dbl(*SP(#8))
         000cab B5   
    4706                      .dwpsn  file "../c5535_bsl_revc/ezdsp5535_v1/c55xx_csl/ccs_v4.0_examples/usb/CSL_USB_IntcExample/csl_
    4707 000cac E66D          MOV #0, *AR3(#12) ; |817| 
         000cae 0000 
         000cb0 0C   
    4708                      .dwpsn  file "../c5535_bsl_revc/ezdsp5535_v1/c55xx_csl/ccs_v4.0_examples/usb/CSL_USB_IntcExample/csl_
    4709 000cb1 ED10          MOV dbl(*SP(#8)), XAR3
         000cb3 BF   
    4710 000cb4 ED61          MOV dbl(*AR3), AC0 ; |819| 
TMS320C55x Assembler PC v4.4.1 Sat Sep 29 23:08:36 2018

Tools Copyright (c) 1996-2012 Texas Instruments Incorporated
csl_usb_intc_example.asm                                             PAGE  115

         000cb6 08   
    4711 000cb7 0410          BCC $C$L117,AC0 != #0 ; |819| 
         000cb9 1E   
    4712                                                      ; branchcc occurs ; |819| 
    4713                      .dwpsn  file "../c5535_bsl_revc/ezdsp5535_v1/c55xx_csl/ccs_v4.0_examples/usb/CSL_USB_IntcExample/csl_
    4714 000cba ED0C          MOV dbl(*SP(#6)), XAR3
         000cbc BF   
    4715 000cbd ED61          MOV dbl(*AR3), AC0 ; |821| 
         000cbf 08   
    4716 000cc0 6510          BCC $C$L116,AC0 != #0 ; |821| 
    4717                                                      ; branchcc occurs ; |821| 
    4718                      .dwpsn  file "../c5535_bsl_revc/ezdsp5535_v1/c55xx_csl/ccs_v4.0_examples/usb/CSL_USB_IntcExample/csl_
    4719 000cc2 ED08          MOV dbl(*SP(#4)), XAR0
         000cc4 8F   
    4720              $C$DW$320       .dwtag  DW_TAG_TI_branch
    4721                      .dwattr $C$DW$320, DW_AT_low_pc(0x00)
    4722                      .dwattr $C$DW$320, DW_AT_name("_USB_processEP0Out")
    4723                      .dwattr $C$DW$320, DW_AT_TI_call
    4724 000cc5 08F3          CALL #_USB_processEP0Out ; |823| 
         000cc7 F8   
    4725                                                      ; call occurs [#_USB_processEP0Out] ; |823| 
    4726 000cc8 C414          MOV T0, *SP(#10) ; |823| 
    4727                      .dwpsn  file "../c5535_bsl_revc/ezdsp5535_v1/c55xx_csl/ccs_v4.0_examples/usb/CSL_USB_IntcExample/csl_
    4728 000cca 4A3A          B $C$L120 ; |824| 
    4729                                                      ; branch occurs ; |824| 
    4730 000ccc       $C$L116:    
    4731                      .dwpsn  file "../c5535_bsl_revc/ezdsp5535_v1/c55xx_csl/ccs_v4.0_examples/usb/CSL_USB_IntcExample/csl_
    4732 000ccc ED08          MOV dbl(*SP(#4)), XAR0
         000cce 8F   
    4733              $C$DW$321       .dwtag  DW_TAG_TI_branch
    4734                      .dwattr $C$DW$321, DW_AT_low_pc(0x00)
    4735                      .dwattr $C$DW$321, DW_AT_name("_USB_handleRx")
    4736                      .dwattr $C$DW$321, DW_AT_TI_call
    4737              
    4738 000ccf 08F9          CALL #_USB_handleRx ; |827| 
         000cd1 A0   
    4739 000cd2 3D20  ||      MOV #2, AC0 ; |827| 
    4740              
    4741                                                      ; call occurs [#_USB_handleRx] ; |827| 
    4742 000cd4 C414          MOV T0, *SP(#10) ; |827| 
    4743                      .dwpsn  file "../c5535_bsl_revc/ezdsp5535_v1/c55xx_csl/ccs_v4.0_examples/usb/CSL_USB_IntcExample/csl_
    4744 000cd6 4A2E          B $C$L120 ; |829| 
    4745                                                      ; branch occurs ; |829| 
    4746 000cd8       $C$L117:    
    4747                      .dwpsn  file "../c5535_bsl_revc/ezdsp5535_v1/c55xx_csl/ccs_v4.0_examples/usb/CSL_USB_IntcExample/csl_
    4748 000cd8 7600          MOV #128, AC0 ; |830| 
         000cda 8008 
    4749 000cdc ED61          MOV dbl(*AR3), AC1 ; |830| 
         000cde 18   
    4750 000cdf 121C          CMPU AC1 != AC0, TC1 ; |830| 
         000ce1 04   
    4751 000ce2 0464          BCC $C$L119,TC1 ; |830| 
         000ce4 1E   
    4752                                                      ; branchcc occurs ; |830| 
    4753                      .dwpsn  file "../c5535_bsl_revc/ezdsp5535_v1/c55xx_csl/ccs_v4.0_examples/usb/CSL_USB_IntcExample/csl_
TMS320C55x Assembler PC v4.4.1 Sat Sep 29 23:08:36 2018

Tools Copyright (c) 1996-2012 Texas Instruments Incorporated
csl_usb_intc_example.asm                                             PAGE  116

    4754 000ce5 ED0C          MOV dbl(*SP(#6)), XAR3
         000ce7 BF   
    4755 000ce8 ED61          MOV dbl(*AR3), AC0 ; |832| 
         000cea 08   
    4756 000ceb 6510          BCC $C$L118,AC0 != #0 ; |832| 
    4757                                                      ; branchcc occurs ; |832| 
    4758                      .dwpsn  file "../c5535_bsl_revc/ezdsp5535_v1/c55xx_csl/ccs_v4.0_examples/usb/CSL_USB_IntcExample/csl_
    4759 000ced ED08          MOV dbl(*SP(#4)), XAR0
         000cef 8F   
    4760              $C$DW$322       .dwtag  DW_TAG_TI_branch
    4761                      .dwattr $C$DW$322, DW_AT_low_pc(0x00)
    4762                      .dwattr $C$DW$322, DW_AT_name("_USB_processEP0In")
    4763                      .dwattr $C$DW$322, DW_AT_TI_call
    4764 000cf0 08F4          CALL #_USB_processEP0In ; |834| 
         000cf2 91   
    4765                                                      ; call occurs [#_USB_processEP0In] ; |834| 
    4766 000cf3 C414          MOV T0, *SP(#10) ; |834| 
    4767                      .dwpsn  file "../c5535_bsl_revc/ezdsp5535_v1/c55xx_csl/ccs_v4.0_examples/usb/CSL_USB_IntcExample/csl_
    4768 000cf5 4A0F          B $C$L120 ; |835| 
    4769                                                      ; branch occurs ; |835| 
    4770 000cf7       $C$L118:    
    4771                      .dwpsn  file "../c5535_bsl_revc/ezdsp5535_v1/c55xx_csl/ccs_v4.0_examples/usb/CSL_USB_IntcExample/csl_
    4772 000cf7 ED08          MOV dbl(*SP(#4)), XAR0
         000cf9 8F   
    4773              $C$DW$323       .dwtag  DW_TAG_TI_branch
    4774                      .dwattr $C$DW$323, DW_AT_low_pc(0x00)
    4775                      .dwattr $C$DW$323, DW_AT_name("_USB_handleTx")
    4776                      .dwattr $C$DW$323, DW_AT_TI_call
    4777              
    4778 000cfa 08F6          CALL #_USB_handleTx ; |838| 
         000cfc F5   
    4779 000cfd 3D10  ||      MOV #1, AC0 ; |838| 
    4780              
    4781                                                      ; call occurs [#_USB_handleTx] ; |838| 
    4782 000cff C414          MOV T0, *SP(#10) ; |838| 
    4783                      .dwpsn  file "../c5535_bsl_revc/ezdsp5535_v1/c55xx_csl/ccs_v4.0_examples/usb/CSL_USB_IntcExample/csl_
    4784 000d01 4A03          B $C$L120 ; |840| 
    4785                                                      ; branch occurs ; |840| 
    4786 000d03       $C$L119:    
    4787                      .dwpsn  file "../c5535_bsl_revc/ezdsp5535_v1/c55xx_csl/ccs_v4.0_examples/usb/CSL_USB_IntcExample/csl_
    4788 000d03 E614          MOV #-6, *SP(#10) ; |843| 
         000d05 FA   
    4789 000d06       $C$L120:    
    4790                      .dwpsn  file "../c5535_bsl_revc/ezdsp5535_v1/c55xx_csl/ccs_v4.0_examples/usb/CSL_USB_IntcExample/csl_
    4791 000d06 A414          MOV *SP(#10), T0 ; |846| 
    4792 000d08       $C$L121:    
    4793                      .dwpsn  file "../c5535_bsl_revc/ezdsp5535_v1/c55xx_csl/ccs_v4.0_examples/usb/CSL_USB_IntcExample/csl_
    4794 000d08 4E0B          AADD #11, SP
    4795                      .dwcfi  cfa_offset, 1
    4796              $C$DW$324       .dwtag  DW_TAG_TI_branch
    4797                      .dwattr $C$DW$324, DW_AT_low_pc(0x00)
    4798                      .dwattr $C$DW$324, DW_AT_TI_return
    4799 000d0a 4804          RET
    4800                                                      ; return occurs
    4801                      .dwattr $C$DW$311, DW_AT_TI_end_file("../c5535_bsl_revc/ezdsp5535_v1/c55xx_csl/ccs_v4.0_examples/usb/
TMS320C55x Assembler PC v4.4.1 Sat Sep 29 23:08:36 2018

Tools Copyright (c) 1996-2012 Texas Instruments Incorporated
csl_usb_intc_example.asm                                             PAGE  117

    4802                      .dwattr $C$DW$311, DW_AT_TI_end_line(0x34f)
    4803                      .dwattr $C$DW$311, DW_AT_TI_end_column(0x01)
    4804                      .dwendentry
    4805                      .dwendtag $C$DW$311
    4806              
    4807 000d0c               .sect   ".text"
    4808                      .align 4
    4809                      .global _CSL_completeTransferCallback
    4810              
    4811              $C$DW$325       .dwtag  DW_TAG_subprogram, DW_AT_name("CSL_completeTransferCallback")
    4812                      .dwattr $C$DW$325, DW_AT_low_pc(_CSL_completeTransferCallback)
    4813                      .dwattr $C$DW$325, DW_AT_high_pc(0x00)
    4814                      .dwattr $C$DW$325, DW_AT_TI_symbol_name("_CSL_completeTransferCallback")
    4815                      .dwattr $C$DW$325, DW_AT_external
    4816                      .dwattr $C$DW$325, DW_AT_type(*$C$DW$T$80)
    4817                      .dwattr $C$DW$325, DW_AT_TI_begin_file("../c5535_bsl_revc/ezdsp5535_v1/c55xx_csl/ccs_v4.0_examples/us
    4818                      .dwattr $C$DW$325, DW_AT_TI_begin_line(0x35a)
    4819                      .dwattr $C$DW$325, DW_AT_TI_begin_column(0x0c)
    4820                      .dwattr $C$DW$325, DW_AT_TI_max_frame_size(0x06)
    4821                      .dwpsn  file "../c5535_bsl_revc/ezdsp5535_v1/c55xx_csl/ccs_v4.0_examples/usb/CSL_USB_IntcExample/csl_
    4822              
    4823                      .dwfde $C$DW$CIE, _CSL_completeTransferCallback
    4824              $C$DW$326       .dwtag  DW_TAG_formal_parameter, DW_AT_name("vpContext")
    4825                      .dwattr $C$DW$326, DW_AT_TI_symbol_name("_vpContext")
    4826                      .dwattr $C$DW$326, DW_AT_type(*$C$DW$T$3)
    4827                      .dwattr $C$DW$326, DW_AT_location[DW_OP_reg17]
    4828              $C$DW$327       .dwtag  DW_TAG_formal_parameter, DW_AT_name("vpeps")
    4829                      .dwattr $C$DW$327, DW_AT_TI_symbol_name("_vpeps")
    4830                      .dwattr $C$DW$327, DW_AT_type(*$C$DW$T$3)
    4831                      .dwattr $C$DW$327, DW_AT_location[DW_OP_reg19]
    4832              ;*******************************************************************************
    4833              ;* FUNCTION NAME: CSL_completeTransferCallback                                 *
    4834              ;*                                                                             *
    4835              ;*   Function Uses Regs : T0,AR0,XAR0,AR1,XAR1,SP,M40,SATA,SATD,RDM,FRCT,SMUL  *
    4836              ;*   Stack Frame        : Compact (No Frame Pointer, w/ debug)                 *
    4837              ;*   Total Frame Size   : 6 words                                              *
    4838              ;*                        (2 return address/alignment)                         *
    4839              ;*                        (4 local values)                                     *
    4840              ;*   Min System Stack   : 1 word                                               *
    4841              ;*******************************************************************************
    4842 000d0c       _CSL_completeTransferCallback:
    4843                      .dwcfi  cfa_offset, 1
    4844                      .dwcfi  save_reg_to_mem, 91, -1
    4845 000d0c 4EFB          AADD #-5, SP
    4846                      .dwcfi  cfa_offset, 6
    4847              $C$DW$328       .dwtag  DW_TAG_variable, DW_AT_name("vpContext")
    4848                      .dwattr $C$DW$328, DW_AT_TI_symbol_name("_vpContext")
    4849                      .dwattr $C$DW$328, DW_AT_type(*$C$DW$T$3)
    4850                      .dwattr $C$DW$328, DW_AT_location[DW_OP_bregx 0x24 0]
    4851              $C$DW$329       .dwtag  DW_TAG_variable, DW_AT_name("vpeps")
    4852                      .dwattr $C$DW$329, DW_AT_TI_symbol_name("_vpeps")
    4853                      .dwattr $C$DW$329, DW_AT_type(*$C$DW$T$3)
    4854                      .dwattr $C$DW$329, DW_AT_location[DW_OP_bregx 0x24 2]
    4855 000d0e EB04          MOV XAR1, dbl(*SP(#2))
         000d10 95   
TMS320C55x Assembler PC v4.4.1 Sat Sep 29 23:08:36 2018

Tools Copyright (c) 1996-2012 Texas Instruments Incorporated
csl_usb_intc_example.asm                                             PAGE  118

    4856 000d11 EB00          MOV XAR0, dbl(*SP(#0))
         000d13 85   
    4857                      .dwpsn  file "../c5535_bsl_revc/ezdsp5535_v1/c55xx_csl/ccs_v4.0_examples/usb/CSL_USB_IntcExample/csl_
    4858 000d14 3C04          MOV #0, T0
    4859                      .dwpsn  file "../c5535_bsl_revc/ezdsp5535_v1/c55xx_csl/ccs_v4.0_examples/usb/CSL_USB_IntcExample/csl_
    4860 000d16 4E05          AADD #5, SP
    4861                      .dwcfi  cfa_offset, 1
    4862              $C$DW$330       .dwtag  DW_TAG_TI_branch
    4863                      .dwattr $C$DW$330, DW_AT_low_pc(0x00)
    4864                      .dwattr $C$DW$330, DW_AT_TI_return
    4865 000d18 4804          RET
    4866                                                      ; return occurs
    4867                      .dwattr $C$DW$325, DW_AT_TI_end_file("../c5535_bsl_revc/ezdsp5535_v1/c55xx_csl/ccs_v4.0_examples/usb/
    4868                      .dwattr $C$DW$325, DW_AT_TI_end_line(0x35e)
    4869                      .dwattr $C$DW$325, DW_AT_TI_end_column(0x01)
    4870                      .dwendentry
    4871                      .dwendtag $C$DW$325
    4872              
    4873              ;*******************************************************************************
    4874              ;* FAR STRINGS                                                                 *
    4875              ;*******************************************************************************
    4876 000000               .sect   ".const:.string"
    4877                      .align  2
    4878 000000 0055  $C$FSL1:        .string "USB Interrupt Test!!",10,0
         000001 0053 
         000002 0042 
         000003 0020 
         000004 0049 
         000005 006E 
         000006 0074 
         000007 0065 
         000008 0072 
         000009 0072 
         00000a 0075 
         00000b 0070 
         00000c 0074 
         00000d 0020 
         00000e 0054 
         00000f 0065 
         000010 0073 
         000011 0074 
         000012 0021 
         000013 0021 
         000014 000A 
         000015 0000 
    4879                      .align  2
    4880 000016 0055  $C$FSL2:        .string "USB Test Passed!!",10,0
         000017 0053 
         000018 0042 
         000019 0020 
         00001a 0054 
         00001b 0065 
         00001c 0073 
         00001d 0074 
         00001e 0020 
TMS320C55x Assembler PC v4.4.1 Sat Sep 29 23:08:36 2018

Tools Copyright (c) 1996-2012 Texas Instruments Incorporated
csl_usb_intc_example.asm                                             PAGE  119

         00001f 0050 
         000020 0061 
         000021 0073 
         000022 0073 
         000023 0065 
         000024 0064 
         000025 0021 
         000026 0021 
         000027 000A 
         000028 0000 
    4881                      .align  2
    4882 00002a 0055  $C$FSL3:        .string "USB Test Failed!!",10,0
         00002b 0053 
         00002c 0042 
         00002d 0020 
         00002e 0054 
         00002f 0065 
         000030 0073 
         000031 0074 
         000032 0020 
         000033 0046 
         000034 0061 
         000035 0069 
         000036 006C 
         000037 0065 
         000038 0064 
         000039 0021 
         00003a 0021 
         00003b 000A 
         00003c 0000 
    4883                      .align  2
    4884 00003e 0055  $C$FSL4:        .string "USB init failed",10,0
         00003f 0053 
         000040 0042 
         000041 0020 
         000042 0069 
         000043 006E 
         000044 0069 
         000045 0074 
         000046 0020 
         000047 0066 
         000048 0061 
         000049 0069 
         00004a 006C 
         00004b 0065 
         00004c 0064 
         00004d 000A 
         00004e 0000 
    4885                      .align  2
    4886 000050 0055  $C$FSL5:        .string "USB Reset failed",10,0
         000051 0053 
         000052 0042 
         000053 0020 
         000054 0052 
         000055 0065 
TMS320C55x Assembler PC v4.4.1 Sat Sep 29 23:08:36 2018

Tools Copyright (c) 1996-2012 Texas Instruments Incorporated
csl_usb_intc_example.asm                                             PAGE  120

         000056 0073 
         000057 0065 
         000058 0074 
         000059 0020 
         00005a 0066 
         00005b 0061 
         00005c 0069 
         00005d 006C 
         00005e 0065 
         00005f 0064 
         000060 000A 
         000061 0000 
    4887                      .align  2
    4888 000062 0055  $C$FSL6:        .string "USB End point init failed",10,0
         000063 0053 
         000064 0042 
         000065 0020 
         000066 0045 
         000067 006E 
         000068 0064 
         000069 0020 
         00006a 0070 
         00006b 006F 
         00006c 0069 
         00006d 006E 
         00006e 0074 
         00006f 0020 
         000070 0069 
         000071 006E 
         000072 0069 
         000073 0074 
         000074 0020 
         000075 0066 
         000076 0061 
         000077 0069 
         000078 006C 
         000079 0065 
         00007a 0064 
         00007b 000A 
         00007c 0000 
    4889                      .align  2
    4890 00007e 0055  $C$FSL7:        .string "USB Set params failed",10,0
         00007f 0053 
         000080 0042 
         000081 0020 
         000082 0053 
         000083 0065 
         000084 0074 
         000085 0020 
         000086 0070 
         000087 0061 
         000088 0072 
         000089 0061 
         00008a 006D 
         00008b 0073 
TMS320C55x Assembler PC v4.4.1 Sat Sep 29 23:08:36 2018

Tools Copyright (c) 1996-2012 Texas Instruments Incorporated
csl_usb_intc_example.asm                                             PAGE  121

         00008c 0020 
         00008d 0066 
         00008e 0061 
         00008f 0069 
         000090 006C 
         000091 0065 
         000092 0064 
         000093 000A 
         000094 0000 
    4891                      .align  2
    4892 000096 0055  $C$FSL8:        .string "USB Connect failed",10,0
         000097 0053 
         000098 0042 
         000099 0020 
         00009a 0043 
         00009b 006F 
         00009c 006E 
         00009d 006E 
         00009e 0065 
         00009f 0063 
         0000a0 0074 
         0000a1 0020 
         0000a2 0066 
         0000a3 0061 
         0000a4 0069 
         0000a5 006C 
         0000a6 0065 
         0000a7 0064 
         0000a8 000A 
         0000a9 0000 
    4893                      .align  2
    4894 0000aa 000A  $C$FSL9:        .string 10,"USB Cable Disconnected!!",10,0
         0000ab 0055 
         0000ac 0053 
         0000ad 0042 
         0000ae 0020 
         0000af 0043 
         0000b0 0061 
         0000b1 0062 
         0000b2 006C 
         0000b3 0065 
         0000b4 0020 
         0000b5 0044 
         0000b6 0069 
         0000b7 0073 
         0000b8 0063 
         0000b9 006F 
         0000ba 006E 
         0000bb 006E 
         0000bc 0065 
         0000bd 0063 
         0000be 0074 
         0000bf 0065 
         0000c0 0064 
         0000c1 0021 
TMS320C55x Assembler PC v4.4.1 Sat Sep 29 23:08:36 2018

Tools Copyright (c) 1996-2012 Texas Instruments Incorporated
csl_usb_intc_example.asm                                             PAGE  122

         0000c2 0021 
         0000c3 000A 
         0000c4 0000 
    4895                      .align  2
    4896 0000c6 0055  $C$FSL10:       .string "USB Cable Connection Detected!!",10,0
         0000c7 0053 
         0000c8 0042 
         0000c9 0020 
         0000ca 0043 
         0000cb 0061 
         0000cc 0062 
         0000cd 006C 
         0000ce 0065 
         0000cf 0020 
         0000d0 0043 
         0000d1 006F 
         0000d2 006E 
         0000d3 006E 
         0000d4 0065 
         0000d5 0063 
         0000d6 0074 
         0000d7 0069 
         0000d8 006F 
         0000d9 006E 
         0000da 0020 
         0000db 0044 
         0000dc 0065 
         0000dd 0074 
         0000de 0065 
         0000df 0063 
         0000e0 0074 
         0000e1 0065 
         0000e2 0064 
         0000e3 0021 
         0000e4 0021 
         0000e5 000A 
         0000e6 0000 
    4897                      .align  2
    4898 0000e8 0055  $C$FSL11:       .string "USB Resume failed",10,0
         0000e9 0053 
         0000ea 0042 
         0000eb 0020 
         0000ec 0052 
         0000ed 0065 
         0000ee 0073 
         0000ef 0075 
         0000f0 006D 
         0000f1 0065 
         0000f2 0020 
         0000f3 0066 
         0000f4 0061 
         0000f5 0069 
         0000f6 006C 
         0000f7 0065 
         0000f8 0064 
TMS320C55x Assembler PC v4.4.1 Sat Sep 29 23:08:36 2018

Tools Copyright (c) 1996-2012 Texas Instruments Incorporated
csl_usb_intc_example.asm                                             PAGE  123

         0000f9 000A 
         0000fa 0000 
    4899                      .align  2
    4900 0000fc 0055  $C$FSL12:       .string "USB Transaction failed",10,0
         0000fd 0053 
         0000fe 0042 
         0000ff 0020 
         000100 0054 
         000101 0072 
         000102 0061 
         000103 006E 
         000104 0073 
         000105 0061 
         000106 0063 
         000107 0074 
         000108 0069 
         000109 006F 
         00010a 006E 
         00010b 0020 
         00010c 0066 
         00010d 0061 
         00010e 0069 
         00010f 006C 
         000110 0065 
         000111 0064 
         000112 000A 
         000113 0000 
    4901                      .align  2
    4902 000114 0042  $C$FSL13:       .string "Bytes remaining: %d",10,0
         000115 0079 
         000116 0074 
         000117 0065 
         000118 0073 
         000119 0020 
         00011a 0072 
         00011b 0065 
         00011c 006D 
         00011d 0061 
         00011e 0069 
         00011f 006E 
         000120 0069 
         000121 006E 
         000122 0067 
         000123 003A 
         000124 0020 
         000125 0025 
         000126 0064 
         000127 000A 
         000128 0000 
    4903                      .align  2
    4904 00012a 0055  $C$FSL14:       .string "USB Disconnect failed",10,0
         00012b 0053 
         00012c 0042 
         00012d 0020 
         00012e 0044 
TMS320C55x Assembler PC v4.4.1 Sat Sep 29 23:08:36 2018

Tools Copyright (c) 1996-2012 Texas Instruments Incorporated
csl_usb_intc_example.asm                                             PAGE  124

         00012f 0069 
         000130 0073 
         000131 0063 
         000132 006F 
         000133 006E 
         000134 006E 
         000135 0065 
         000136 0063 
         000137 0074 
         000138 0020 
         000139 0066 
         00013a 0061 
         00013b 0069 
         00013c 006C 
         00013d 0065 
         00013e 0064 
         00013f 000A 
         000140 0000 
    4905                      .align  2
    4906 000142 0055  $C$FSL15:       .string "USB Suspend failed",10,0
         000143 0053 
         000144 0042 
         000145 0020 
         000146 0053 
         000147 0075 
         000148 0073 
         000149 0070 
         00014a 0065 
         00014b 006E 
         00014c 0064 
         00014d 0020 
         00014e 0066 
         00014f 0061 
         000150 0069 
         000151 006C 
         000152 0065 
         000153 0064 
         000154 000A 
         000155 0000 
    4907                      .align  2
    4908 000156 000A  $C$FSL16:       .string 10,"USB SUSPEND Callback",10,0
         000157 0055 
         000158 0053 
         000159 0042 
         00015a 0020 
         00015b 0053 
         00015c 0055 
         00015d 0053 
         00015e 0050 
         00015f 0045 
         000160 004E 
         000161 0044 
         000162 0020 
         000163 0043 
         000164 0061 
TMS320C55x Assembler PC v4.4.1 Sat Sep 29 23:08:36 2018

Tools Copyright (c) 1996-2012 Texas Instruments Incorporated
csl_usb_intc_example.asm                                             PAGE  125

         000165 006C 
         000166 006C 
         000167 0062 
         000168 0061 
         000169 0063 
         00016a 006B 
         00016b 000A 
         00016c 0000 
    4909                      .align  2
    4910 00016e 000A  $C$FSL17:       .string 10,"USB Self Wakeup CallBack",10,0
         00016f 0055 
         000170 0053 
         000171 0042 
         000172 0020 
         000173 0053 
         000174 0065 
         000175 006C 
         000176 0066 
         000177 0020 
         000178 0057 
         000179 0061 
         00017a 006B 
         00017b 0065 
         00017c 0075 
         00017d 0070 
         00017e 0020 
         00017f 0043 
         000180 0061 
         000181 006C 
         000182 006C 
         000183 0042 
         000184 0061 
         000185 0063 
         000186 006B 
         000187 000A 
         000188 0000 
    4911              ;******************************************************************************
    4912              ;* UNDEFINED EXTERNAL REFERENCES                                              *
    4913              ;******************************************************************************
    4914                      .global _printf
    4915                      .global _USB_init
    4916                      .global _USB_resetDev
    4917                      .global _USB_initEndptObj
    4918                      .global _USB_getSetupPacket
    4919                      .global _USB_postTransaction
    4920                      .global _USB_isTransactionDone
    4921                      .global _USB_bytesRemaining
    4922                      .global _USB_stallEndpt
    4923                      .global _USB_clearEndptStall
    4924                      .global _USB_getEndptStall
    4925                      .global _USB_epNumToHandle
    4926                      .global _USB_connectDev
    4927                      .global _USB_disconnectDev
    4928                      .global _USB_setRemoteWakeup
    4929                      .global _USB_getRemoteWakeupStat
TMS320C55x Assembler PC v4.4.1 Sat Sep 29 23:08:36 2018

Tools Copyright (c) 1996-2012 Texas Instruments Incorporated
csl_usb_intc_example.asm                                             PAGE  126

    4930                      .global _USB_issueRemoteWakeup
    4931                      .global _USB_setDevAddr
    4932                      .global _USB_suspendDevice
    4933                      .global _USB_setParams
    4934                      .global _USB_getDataCountReadFromFifo
    4935                      .global _IRQ_plug
    4936                      .global _IRQ_enable
    4937                      .global _IRQ_setVecs
    4938                      .global _IRQ_globalEnable
    4939                      .global _VECSTART
    4940                      .global _usbRegisters
    4941                      .global _sysCtrlRegs
    4942                      .global _gUsbContext
    4943                      .global _memcpy
    4944              
    4945              ;*******************************************************************************
    4946              ;* TYPE INFORMATION                                                            *
    4947              ;*******************************************************************************
    4948              
    4949              $C$DW$T$72      .dwtag  DW_TAG_enumeration_type
    4950                      .dwattr $C$DW$T$72, DW_AT_byte_size(0x01)
    4951              $C$DW$331       .dwtag  DW_TAG_enumerator, DW_AT_name("CSL_USB0"), DW_AT_const_value(0x00)
    4952              $C$DW$332       .dwtag  DW_TAG_enumerator, DW_AT_name("CSL_USB1"), DW_AT_const_value(0x01)
    4953              $C$DW$333       .dwtag  DW_TAG_enumerator, DW_AT_name("CSL_USB2"), DW_AT_const_value(0x02)
    4954                      .dwendtag $C$DW$T$72
    4955              
    4956              $C$DW$T$73      .dwtag  DW_TAG_typedef, DW_AT_name("CSL_UsbDevNum")
    4957                      .dwattr $C$DW$T$73, DW_AT_type(*$C$DW$T$72)
    4958                      .dwattr $C$DW$T$73, DW_AT_language(DW_LANG_C)
    4959              
    4960              $C$DW$T$74      .dwtag  DW_TAG_enumeration_type
    4961                      .dwattr $C$DW$T$74, DW_AT_byte_size(0x01)
    4962              $C$DW$334       .dwtag  DW_TAG_enumerator, DW_AT_name("CSL_USB_OPMODE_POLLED"), DW_AT_const_value(0x00)
    4963              $C$DW$335       .dwtag  DW_TAG_enumerator, DW_AT_name("CSL_USB_OPMODE_DMA"), DW_AT_const_value(0x01)
    4964              $C$DW$336       .dwtag  DW_TAG_enumerator, DW_AT_name("CSL_USB_OPMODE_DMA_TXONLY"), DW_AT_const_value(0x02)
    4965                      .dwendtag $C$DW$T$74
    4966              
    4967              $C$DW$T$75      .dwtag  DW_TAG_typedef, DW_AT_name("CSL_UsbOpMode")
    4968                      .dwattr $C$DW$T$75, DW_AT_type(*$C$DW$T$74)
    4969                      .dwattr $C$DW$T$75, DW_AT_language(DW_LANG_C)
    4970              
    4971              $C$DW$T$91      .dwtag  DW_TAG_enumeration_type
    4972                      .dwattr $C$DW$T$91, DW_AT_byte_size(0x01)
    4973              $C$DW$337       .dwtag  DW_TAG_enumerator, DW_AT_name("CSL_USB_FALSE"), DW_AT_const_value(0x00)
    4974              $C$DW$338       .dwtag  DW_TAG_enumerator, DW_AT_name("CSL_USB_TRUE"), DW_AT_const_value(0x01)
    4975                      .dwendtag $C$DW$T$91
    4976              
    4977              $C$DW$T$92      .dwtag  DW_TAG_typedef, DW_AT_name("CSL_UsbBoolean")
    4978                      .dwattr $C$DW$T$92, DW_AT_type(*$C$DW$T$91)
    4979                      .dwattr $C$DW$T$92, DW_AT_language(DW_LANG_C)
    4980              
    4981              $C$DW$T$95      .dwtag  DW_TAG_enumeration_type
    4982                      .dwattr $C$DW$T$95, DW_AT_byte_size(0x01)
    4983              $C$DW$339       .dwtag  DW_TAG_enumerator, DW_AT_name("CSL_USB_BS_UNKNOWN_SPEED"), DW_AT_const_value(0x00)
    4984              $C$DW$340       .dwtag  DW_TAG_enumerator, DW_AT_name("CSL_USB_BS_FULL_SPEED"), DW_AT_const_value(0x02)
TMS320C55x Assembler PC v4.4.1 Sat Sep 29 23:08:36 2018

Tools Copyright (c) 1996-2012 Texas Instruments Incorporated
csl_usb_intc_example.asm                                             PAGE  127

    4985              $C$DW$341       .dwtag  DW_TAG_enumerator, DW_AT_name("CSL_USB_BS_HIGH_SPEED"), DW_AT_const_value(0x04)
    4986                      .dwendtag $C$DW$T$95
    4987              
    4988              $C$DW$T$96      .dwtag  DW_TAG_typedef, DW_AT_name("CSL_UsbBusSpeed")
    4989                      .dwattr $C$DW$T$96, DW_AT_type(*$C$DW$T$95)
    4990                      .dwattr $C$DW$T$96, DW_AT_language(DW_LANG_C)
    4991              
    4992              $C$DW$T$97      .dwtag  DW_TAG_enumeration_type
    4993                      .dwattr $C$DW$T$97, DW_AT_byte_size(0x01)
    4994              $C$DW$342       .dwtag  DW_TAG_enumerator, DW_AT_name("CSL_USB_EP0_IDLE"), DW_AT_const_value(0x00)
    4995              $C$DW$343       .dwtag  DW_TAG_enumerator, DW_AT_name("CSL_USB_EP0_STATUS_IN"), DW_AT_const_value(0x01)
    4996              $C$DW$344       .dwtag  DW_TAG_enumerator, DW_AT_name("CSL_USB_EP0_TX"), DW_AT_const_value(0x02)
    4997              $C$DW$345       .dwtag  DW_TAG_enumerator, DW_AT_name("CSL_USB_EP0_RX"), DW_AT_const_value(0x03)
    4998                      .dwendtag $C$DW$T$97
    4999              
    5000              $C$DW$T$98      .dwtag  DW_TAG_typedef, DW_AT_name("CSL_UsbEp0State")
    5001                      .dwattr $C$DW$T$98, DW_AT_type(*$C$DW$T$97)
    5002                      .dwattr $C$DW$T$98, DW_AT_language(DW_LANG_C)
    5003              
    5004              $C$DW$T$99      .dwtag  DW_TAG_enumeration_type
    5005                      .dwattr $C$DW$T$99, DW_AT_byte_size(0x01)
    5006              $C$DW$346       .dwtag  DW_TAG_enumerator, DW_AT_name("CSL_USB_DEVICE_DETACH"), DW_AT_const_value(0x00)
    5007              $C$DW$347       .dwtag  DW_TAG_enumerator, DW_AT_name("CSL_USB_DEVICE_ATTACH"), DW_AT_const_value(0x01)
    5008                      .dwendtag $C$DW$T$99
    5009              
    5010              $C$DW$T$100     .dwtag  DW_TAG_typedef, DW_AT_name("CSL_UsbDeviceEvent")
    5011                      .dwattr $C$DW$T$100, DW_AT_type(*$C$DW$T$99)
    5012                      .dwattr $C$DW$T$100, DW_AT_language(DW_LANG_C)
    5013              
    5014              $C$DW$T$111     .dwtag  DW_TAG_enumeration_type
    5015                      .dwattr $C$DW$T$111, DW_AT_byte_size(0x01)
    5016              $C$DW$348       .dwtag  DW_TAG_enumerator, DW_AT_name("CSL_USB_OUT_EP0"), DW_AT_const_value(0x00)
    5017              $C$DW$349       .dwtag  DW_TAG_enumerator, DW_AT_name("CSL_USB_OUT_EP1"), DW_AT_const_value(0x01)
    5018              $C$DW$350       .dwtag  DW_TAG_enumerator, DW_AT_name("CSL_USB_OUT_EP2"), DW_AT_const_value(0x02)
    5019              $C$DW$351       .dwtag  DW_TAG_enumerator, DW_AT_name("CSL_USB_OUT_EP3"), DW_AT_const_value(0x03)
    5020              $C$DW$352       .dwtag  DW_TAG_enumerator, DW_AT_name("CSL_USB_OUT_EP4"), DW_AT_const_value(0x04)
    5021              $C$DW$353       .dwtag  DW_TAG_enumerator, DW_AT_name("CSL_USB_OUT_EP5"), DW_AT_const_value(0x05)
    5022              $C$DW$354       .dwtag  DW_TAG_enumerator, DW_AT_name("CSL_USB_OUT_EP6"), DW_AT_const_value(0x06)
    5023              $C$DW$355       .dwtag  DW_TAG_enumerator, DW_AT_name("CSL_USB_OUT_EP7"), DW_AT_const_value(0x07)
    5024              $C$DW$356       .dwtag  DW_TAG_enumerator, DW_AT_name("CSL_USB_IN_EP0"), DW_AT_const_value(0x08)
    5025              $C$DW$357       .dwtag  DW_TAG_enumerator, DW_AT_name("CSL_USB_IN_EP1"), DW_AT_const_value(0x09)
    5026              $C$DW$358       .dwtag  DW_TAG_enumerator, DW_AT_name("CSL_USB_IN_EP2"), DW_AT_const_value(0x0a)
    5027              $C$DW$359       .dwtag  DW_TAG_enumerator, DW_AT_name("CSL_USB_IN_EP3"), DW_AT_const_value(0x0b)
    5028              $C$DW$360       .dwtag  DW_TAG_enumerator, DW_AT_name("CSL_USB_IN_EP4"), DW_AT_const_value(0x0c)
    5029              $C$DW$361       .dwtag  DW_TAG_enumerator, DW_AT_name("CSL_USB_IN_EP5"), DW_AT_const_value(0x0d)
    5030              $C$DW$362       .dwtag  DW_TAG_enumerator, DW_AT_name("CSL_USB_IN_EP6"), DW_AT_const_value(0x0e)
    5031              $C$DW$363       .dwtag  DW_TAG_enumerator, DW_AT_name("CSL_USB_IN_EP7"), DW_AT_const_value(0x0f)
    5032                      .dwendtag $C$DW$T$111
    5033              
    5034              $C$DW$T$112     .dwtag  DW_TAG_typedef, DW_AT_name("CSL_UsbEpNum")
    5035                      .dwattr $C$DW$T$112, DW_AT_type(*$C$DW$T$111)
    5036                      .dwattr $C$DW$T$112, DW_AT_language(DW_LANG_C)
    5037              
    5038              $C$DW$T$113     .dwtag  DW_TAG_enumeration_type
    5039                      .dwattr $C$DW$T$113, DW_AT_byte_size(0x01)
TMS320C55x Assembler PC v4.4.1 Sat Sep 29 23:08:36 2018

Tools Copyright (c) 1996-2012 Texas Instruments Incorporated
csl_usb_intc_example.asm                                             PAGE  128

    5040              $C$DW$364       .dwtag  DW_TAG_enumerator, DW_AT_name("CSL_USB_CTRL"), DW_AT_const_value(0x00)
    5041              $C$DW$365       .dwtag  DW_TAG_enumerator, DW_AT_name("CSL_USB_BULK"), DW_AT_const_value(0x01)
    5042              $C$DW$366       .dwtag  DW_TAG_enumerator, DW_AT_name("CSL_USB_INTR"), DW_AT_const_value(0x02)
    5043              $C$DW$367       .dwtag  DW_TAG_enumerator, DW_AT_name("CSL_USB_ISO"), DW_AT_const_value(0x03)
    5044              $C$DW$368       .dwtag  DW_TAG_enumerator, DW_AT_name("CSL_USB_HPORT"), DW_AT_const_value(0x04)
    5045                      .dwendtag $C$DW$T$113
    5046              
    5047              $C$DW$T$114     .dwtag  DW_TAG_typedef, DW_AT_name("CSL_UsbXferType")
    5048                      .dwattr $C$DW$T$114, DW_AT_type(*$C$DW$T$113)
    5049                      .dwattr $C$DW$T$114, DW_AT_language(DW_LANG_C)
    5050              
    5051              $C$DW$T$22      .dwtag  DW_TAG_structure_type
    5052                      .dwattr $C$DW$T$22, DW_AT_byte_size(0x08)
    5053              $C$DW$369       .dwtag  DW_TAG_member
    5054                      .dwattr $C$DW$369, DW_AT_type(*$C$DW$T$20)
    5055                      .dwattr $C$DW$369, DW_AT_name("TXFUNCADDR")
    5056                      .dwattr $C$DW$369, DW_AT_TI_symbol_name("_TXFUNCADDR")
    5057                      .dwattr $C$DW$369, DW_AT_data_member_location[DW_OP_plus_uconst 0x0]
    5058                      .dwattr $C$DW$369, DW_AT_accessibility(DW_ACCESS_public)
    5059              $C$DW$370       .dwtag  DW_TAG_member
    5060                      .dwattr $C$DW$370, DW_AT_type(*$C$DW$T$20)
    5061                      .dwattr $C$DW$370, DW_AT_name("TXHUBADDR_TXHUBPORT")
    5062                      .dwattr $C$DW$370, DW_AT_TI_symbol_name("_TXHUBADDR_TXHUBPORT")
    5063                      .dwattr $C$DW$370, DW_AT_data_member_location[DW_OP_plus_uconst 0x1]
    5064                      .dwattr $C$DW$370, DW_AT_accessibility(DW_ACCESS_public)
    5065              $C$DW$371       .dwtag  DW_TAG_member
    5066                      .dwattr $C$DW$371, DW_AT_type(*$C$DW$T$21)
    5067                      .dwattr $C$DW$371, DW_AT_name("RSVD0")
    5068                      .dwattr $C$DW$371, DW_AT_TI_symbol_name("_RSVD0")
    5069                      .dwattr $C$DW$371, DW_AT_data_member_location[DW_OP_plus_uconst 0x2]
    5070                      .dwattr $C$DW$371, DW_AT_accessibility(DW_ACCESS_public)
    5071              $C$DW$372       .dwtag  DW_TAG_member
    5072                      .dwattr $C$DW$372, DW_AT_type(*$C$DW$T$20)
    5073                      .dwattr $C$DW$372, DW_AT_name("RXFUNCADDR")
    5074                      .dwattr $C$DW$372, DW_AT_TI_symbol_name("_RXFUNCADDR")
    5075                      .dwattr $C$DW$372, DW_AT_data_member_location[DW_OP_plus_uconst 0x4]
    5076                      .dwattr $C$DW$372, DW_AT_accessibility(DW_ACCESS_public)
    5077              $C$DW$373       .dwtag  DW_TAG_member
    5078                      .dwattr $C$DW$373, DW_AT_type(*$C$DW$T$20)
    5079                      .dwattr $C$DW$373, DW_AT_name("RXHUBADDR_RXHUBPORT")
    5080                      .dwattr $C$DW$373, DW_AT_TI_symbol_name("_RXHUBADDR_RXHUBPORT")
    5081                      .dwattr $C$DW$373, DW_AT_data_member_location[DW_OP_plus_uconst 0x5]
    5082                      .dwattr $C$DW$373, DW_AT_accessibility(DW_ACCESS_public)
    5083              $C$DW$374       .dwtag  DW_TAG_member
    5084                      .dwattr $C$DW$374, DW_AT_type(*$C$DW$T$21)
    5085                      .dwattr $C$DW$374, DW_AT_name("RSVD36")
    5086                      .dwattr $C$DW$374, DW_AT_TI_symbol_name("_RSVD36")
    5087                      .dwattr $C$DW$374, DW_AT_data_member_location[DW_OP_plus_uconst 0x6]
    5088                      .dwattr $C$DW$374, DW_AT_accessibility(DW_ACCESS_public)
    5089                      .dwendtag $C$DW$T$22
    5090              
    5091              $C$DW$T$39      .dwtag  DW_TAG_typedef, DW_AT_name("CSL_UsbEptrgRegs")
    5092                      .dwattr $C$DW$T$39, DW_AT_type(*$C$DW$T$22)
    5093                      .dwattr $C$DW$T$39, DW_AT_language(DW_LANG_C)
    5094              
TMS320C55x Assembler PC v4.4.1 Sat Sep 29 23:08:36 2018

Tools Copyright (c) 1996-2012 Texas Instruments Incorporated
csl_usb_intc_example.asm                                             PAGE  129

    5095              $C$DW$T$40      .dwtag  DW_TAG_array_type
    5096                      .dwattr $C$DW$T$40, DW_AT_type(*$C$DW$T$39)
    5097                      .dwattr $C$DW$T$40, DW_AT_language(DW_LANG_C)
    5098                      .dwattr $C$DW$T$40, DW_AT_byte_size(0x28)
    5099              $C$DW$375       .dwtag  DW_TAG_subrange_type
    5100                      .dwattr $C$DW$375, DW_AT_upper_bound(0x04)
    5101                      .dwendtag $C$DW$T$40
    5102              
    5103              
    5104              $C$DW$T$24      .dwtag  DW_TAG_structure_type
    5105                      .dwattr $C$DW$T$24, DW_AT_byte_size(0x10)
    5106              $C$DW$376       .dwtag  DW_TAG_member
    5107                      .dwattr $C$DW$376, DW_AT_type(*$C$DW$T$20)
    5108                      .dwattr $C$DW$376, DW_AT_name("TXMAXP")
    5109                      .dwattr $C$DW$376, DW_AT_TI_symbol_name("_TXMAXP")
    5110                      .dwattr $C$DW$376, DW_AT_data_member_location[DW_OP_plus_uconst 0x0]
    5111                      .dwattr $C$DW$376, DW_AT_accessibility(DW_ACCESS_public)
    5112              $C$DW$377       .dwtag  DW_TAG_member
    5113                      .dwattr $C$DW$377, DW_AT_type(*$C$DW$T$20)
    5114                      .dwattr $C$DW$377, DW_AT_name("PERI_TXCSR")
    5115                      .dwattr $C$DW$377, DW_AT_TI_symbol_name("_PERI_TXCSR")
    5116                      .dwattr $C$DW$377, DW_AT_data_member_location[DW_OP_plus_uconst 0x1]
    5117                      .dwattr $C$DW$377, DW_AT_accessibility(DW_ACCESS_public)
    5118              $C$DW$378       .dwtag  DW_TAG_member
    5119                      .dwattr $C$DW$378, DW_AT_type(*$C$DW$T$21)
    5120                      .dwattr $C$DW$378, DW_AT_name("RSVD0")
    5121                      .dwattr $C$DW$378, DW_AT_TI_symbol_name("_RSVD0")
    5122                      .dwattr $C$DW$378, DW_AT_data_member_location[DW_OP_plus_uconst 0x2]
    5123                      .dwattr $C$DW$378, DW_AT_accessibility(DW_ACCESS_public)
    5124              $C$DW$379       .dwtag  DW_TAG_member
    5125                      .dwattr $C$DW$379, DW_AT_type(*$C$DW$T$20)
    5126                      .dwattr $C$DW$379, DW_AT_name("RXMAXP")
    5127                      .dwattr $C$DW$379, DW_AT_TI_symbol_name("_RXMAXP")
    5128                      .dwattr $C$DW$379, DW_AT_data_member_location[DW_OP_plus_uconst 0x4]
    5129                      .dwattr $C$DW$379, DW_AT_accessibility(DW_ACCESS_public)
    5130              $C$DW$380       .dwtag  DW_TAG_member
    5131                      .dwattr $C$DW$380, DW_AT_type(*$C$DW$T$20)
    5132                      .dwattr $C$DW$380, DW_AT_name("PERI_RXCSR")
    5133                      .dwattr $C$DW$380, DW_AT_TI_symbol_name("_PERI_RXCSR")
    5134                      .dwattr $C$DW$380, DW_AT_data_member_location[DW_OP_plus_uconst 0x5]
    5135                      .dwattr $C$DW$380, DW_AT_accessibility(DW_ACCESS_public)
    5136              $C$DW$381       .dwtag  DW_TAG_member
    5137                      .dwattr $C$DW$381, DW_AT_type(*$C$DW$T$21)
    5138                      .dwattr $C$DW$381, DW_AT_name("RSVD1")
    5139                      .dwattr $C$DW$381, DW_AT_TI_symbol_name("_RSVD1")
    5140                      .dwattr $C$DW$381, DW_AT_data_member_location[DW_OP_plus_uconst 0x6]
    5141                      .dwattr $C$DW$381, DW_AT_accessibility(DW_ACCESS_public)
    5142              $C$DW$382       .dwtag  DW_TAG_member
    5143                      .dwattr $C$DW$382, DW_AT_type(*$C$DW$T$20)
    5144                      .dwattr $C$DW$382, DW_AT_name("RXCOUNT")
    5145                      .dwattr $C$DW$382, DW_AT_TI_symbol_name("_RXCOUNT")
    5146                      .dwattr $C$DW$382, DW_AT_data_member_location[DW_OP_plus_uconst 0x8]
    5147                      .dwattr $C$DW$382, DW_AT_accessibility(DW_ACCESS_public)
    5148              $C$DW$383       .dwtag  DW_TAG_member
    5149                      .dwattr $C$DW$383, DW_AT_type(*$C$DW$T$23)
TMS320C55x Assembler PC v4.4.1 Sat Sep 29 23:08:36 2018

Tools Copyright (c) 1996-2012 Texas Instruments Incorporated
csl_usb_intc_example.asm                                             PAGE  130

    5150                      .dwattr $C$DW$383, DW_AT_name("RSVD41")
    5151                      .dwattr $C$DW$383, DW_AT_TI_symbol_name("_RSVD41")
    5152                      .dwattr $C$DW$383, DW_AT_data_member_location[DW_OP_plus_uconst 0x9]
    5153                      .dwattr $C$DW$383, DW_AT_accessibility(DW_ACCESS_public)
    5154                      .dwendtag $C$DW$T$24
    5155              
    5156              $C$DW$T$42      .dwtag  DW_TAG_typedef, DW_AT_name("CSL_UsbEpcsrRegs")
    5157                      .dwattr $C$DW$T$42, DW_AT_type(*$C$DW$T$24)
    5158                      .dwattr $C$DW$T$42, DW_AT_language(DW_LANG_C)
    5159              
    5160              $C$DW$T$43      .dwtag  DW_TAG_array_type
    5161                      .dwattr $C$DW$T$43, DW_AT_type(*$C$DW$T$42)
    5162                      .dwattr $C$DW$T$43, DW_AT_language(DW_LANG_C)
    5163                      .dwattr $C$DW$T$43, DW_AT_byte_size(0x40)
    5164              $C$DW$384       .dwtag  DW_TAG_subrange_type
    5165                      .dwattr $C$DW$384, DW_AT_upper_bound(0x03)
    5166                      .dwendtag $C$DW$T$43
    5167              
    5168              
    5169              $C$DW$T$27      .dwtag  DW_TAG_structure_type
    5170                      .dwattr $C$DW$T$27, DW_AT_byte_size(0x20)
    5171              $C$DW$385       .dwtag  DW_TAG_member
    5172                      .dwattr $C$DW$385, DW_AT_type(*$C$DW$T$20)
    5173                      .dwattr $C$DW$385, DW_AT_name("TXGCR1")
    5174                      .dwattr $C$DW$385, DW_AT_TI_symbol_name("_TXGCR1")
    5175                      .dwattr $C$DW$385, DW_AT_data_member_location[DW_OP_plus_uconst 0x0]
    5176                      .dwattr $C$DW$385, DW_AT_accessibility(DW_ACCESS_public)
    5177              $C$DW$386       .dwtag  DW_TAG_member
    5178                      .dwattr $C$DW$386, DW_AT_type(*$C$DW$T$20)
    5179                      .dwattr $C$DW$386, DW_AT_name("TXGCR2")
    5180                      .dwattr $C$DW$386, DW_AT_TI_symbol_name("_TXGCR2")
    5181                      .dwattr $C$DW$386, DW_AT_data_member_location[DW_OP_plus_uconst 0x1]
    5182                      .dwattr $C$DW$386, DW_AT_accessibility(DW_ACCESS_public)
    5183              $C$DW$387       .dwtag  DW_TAG_member
    5184                      .dwattr $C$DW$387, DW_AT_type(*$C$DW$T$25)
    5185                      .dwattr $C$DW$387, DW_AT_name("RSVD0")
    5186                      .dwattr $C$DW$387, DW_AT_TI_symbol_name("_RSVD0")
    5187                      .dwattr $C$DW$387, DW_AT_data_member_location[DW_OP_plus_uconst 0x2]
    5188                      .dwattr $C$DW$387, DW_AT_accessibility(DW_ACCESS_public)
    5189              $C$DW$388       .dwtag  DW_TAG_member
    5190                      .dwattr $C$DW$388, DW_AT_type(*$C$DW$T$20)
    5191                      .dwattr $C$DW$388, DW_AT_name("RXGCR1")
    5192                      .dwattr $C$DW$388, DW_AT_TI_symbol_name("_RXGCR1")
    5193                      .dwattr $C$DW$388, DW_AT_data_member_location[DW_OP_plus_uconst 0x8]
    5194                      .dwattr $C$DW$388, DW_AT_accessibility(DW_ACCESS_public)
    5195              $C$DW$389       .dwtag  DW_TAG_member
    5196                      .dwattr $C$DW$389, DW_AT_type(*$C$DW$T$20)
    5197                      .dwattr $C$DW$389, DW_AT_name("RXGCR2")
    5198                      .dwattr $C$DW$389, DW_AT_TI_symbol_name("_RXGCR2")
    5199                      .dwattr $C$DW$389, DW_AT_data_member_location[DW_OP_plus_uconst 0x9]
    5200                      .dwattr $C$DW$389, DW_AT_accessibility(DW_ACCESS_public)
    5201              $C$DW$390       .dwtag  DW_TAG_member
    5202                      .dwattr $C$DW$390, DW_AT_type(*$C$DW$T$21)
    5203                      .dwattr $C$DW$390, DW_AT_name("RSVD1")
    5204                      .dwattr $C$DW$390, DW_AT_TI_symbol_name("_RSVD1")
TMS320C55x Assembler PC v4.4.1 Sat Sep 29 23:08:36 2018

Tools Copyright (c) 1996-2012 Texas Instruments Incorporated
csl_usb_intc_example.asm                                             PAGE  131

    5205                      .dwattr $C$DW$390, DW_AT_data_member_location[DW_OP_plus_uconst 0xa]
    5206                      .dwattr $C$DW$390, DW_AT_accessibility(DW_ACCESS_public)
    5207              $C$DW$391       .dwtag  DW_TAG_member
    5208                      .dwattr $C$DW$391, DW_AT_type(*$C$DW$T$20)
    5209                      .dwattr $C$DW$391, DW_AT_name("RXHPCR1A")
    5210                      .dwattr $C$DW$391, DW_AT_TI_symbol_name("_RXHPCR1A")
    5211                      .dwattr $C$DW$391, DW_AT_data_member_location[DW_OP_plus_uconst 0xc]
    5212                      .dwattr $C$DW$391, DW_AT_accessibility(DW_ACCESS_public)
    5213              $C$DW$392       .dwtag  DW_TAG_member
    5214                      .dwattr $C$DW$392, DW_AT_type(*$C$DW$T$20)
    5215                      .dwattr $C$DW$392, DW_AT_name("RXHPCR2A")
    5216                      .dwattr $C$DW$392, DW_AT_TI_symbol_name("_RXHPCR2A")
    5217                      .dwattr $C$DW$392, DW_AT_data_member_location[DW_OP_plus_uconst 0xd]
    5218                      .dwattr $C$DW$392, DW_AT_accessibility(DW_ACCESS_public)
    5219              $C$DW$393       .dwtag  DW_TAG_member
    5220                      .dwattr $C$DW$393, DW_AT_type(*$C$DW$T$21)
    5221                      .dwattr $C$DW$393, DW_AT_name("RSVD2")
    5222                      .dwattr $C$DW$393, DW_AT_TI_symbol_name("_RSVD2")
    5223                      .dwattr $C$DW$393, DW_AT_data_member_location[DW_OP_plus_uconst 0xe]
    5224                      .dwattr $C$DW$393, DW_AT_accessibility(DW_ACCESS_public)
    5225              $C$DW$394       .dwtag  DW_TAG_member
    5226                      .dwattr $C$DW$394, DW_AT_type(*$C$DW$T$20)
    5227                      .dwattr $C$DW$394, DW_AT_name("RXHPCR1B")
    5228                      .dwattr $C$DW$394, DW_AT_TI_symbol_name("_RXHPCR1B")
    5229                      .dwattr $C$DW$394, DW_AT_data_member_location[DW_OP_plus_uconst 0x10]
    5230                      .dwattr $C$DW$394, DW_AT_accessibility(DW_ACCESS_public)
    5231              $C$DW$395       .dwtag  DW_TAG_member
    5232                      .dwattr $C$DW$395, DW_AT_type(*$C$DW$T$20)
    5233                      .dwattr $C$DW$395, DW_AT_name("RXHPCR2B")
    5234                      .dwattr $C$DW$395, DW_AT_TI_symbol_name("_RXHPCR2B")
    5235                      .dwattr $C$DW$395, DW_AT_data_member_location[DW_OP_plus_uconst 0x11]
    5236                      .dwattr $C$DW$395, DW_AT_accessibility(DW_ACCESS_public)
    5237              $C$DW$396       .dwtag  DW_TAG_member
    5238                      .dwattr $C$DW$396, DW_AT_type(*$C$DW$T$26)
    5239                      .dwattr $C$DW$396, DW_AT_name("RSVD46")
    5240                      .dwattr $C$DW$396, DW_AT_TI_symbol_name("_RSVD46")
    5241                      .dwattr $C$DW$396, DW_AT_data_member_location[DW_OP_plus_uconst 0x12]
    5242                      .dwattr $C$DW$396, DW_AT_accessibility(DW_ACCESS_public)
    5243                      .dwendtag $C$DW$T$27
    5244              
    5245              $C$DW$T$46      .dwtag  DW_TAG_typedef, DW_AT_name("CSL_UsbChannelRegs")
    5246                      .dwattr $C$DW$T$46, DW_AT_type(*$C$DW$T$27)
    5247                      .dwattr $C$DW$T$46, DW_AT_language(DW_LANG_C)
    5248              
    5249              $C$DW$T$47      .dwtag  DW_TAG_array_type
    5250                      .dwattr $C$DW$T$47, DW_AT_type(*$C$DW$T$46)
    5251                      .dwattr $C$DW$T$47, DW_AT_language(DW_LANG_C)
    5252                      .dwattr $C$DW$T$47, DW_AT_byte_size(0x80)
    5253              $C$DW$397       .dwtag  DW_TAG_subrange_type
    5254                      .dwattr $C$DW$397, DW_AT_upper_bound(0x03)
    5255                      .dwendtag $C$DW$T$47
    5256              
    5257              
    5258              $C$DW$T$28      .dwtag  DW_TAG_structure_type
    5259                      .dwattr $C$DW$T$28, DW_AT_byte_size(0x04)
TMS320C55x Assembler PC v4.4.1 Sat Sep 29 23:08:36 2018

Tools Copyright (c) 1996-2012 Texas Instruments Incorporated
csl_usb_intc_example.asm                                             PAGE  132

    5260              $C$DW$398       .dwtag  DW_TAG_member
    5261                      .dwattr $C$DW$398, DW_AT_type(*$C$DW$T$20)
    5262                      .dwattr $C$DW$398, DW_AT_name("ENTRYLSW")
    5263                      .dwattr $C$DW$398, DW_AT_TI_symbol_name("_ENTRYLSW")
    5264                      .dwattr $C$DW$398, DW_AT_data_member_location[DW_OP_plus_uconst 0x0]
    5265                      .dwattr $C$DW$398, DW_AT_accessibility(DW_ACCESS_public)
    5266              $C$DW$399       .dwtag  DW_TAG_member
    5267                      .dwattr $C$DW$399, DW_AT_type(*$C$DW$T$20)
    5268                      .dwattr $C$DW$399, DW_AT_name("ENTRYMSW")
    5269                      .dwattr $C$DW$399, DW_AT_TI_symbol_name("_ENTRYMSW")
    5270                      .dwattr $C$DW$399, DW_AT_data_member_location[DW_OP_plus_uconst 0x1]
    5271                      .dwattr $C$DW$399, DW_AT_accessibility(DW_ACCESS_public)
    5272              $C$DW$400       .dwtag  DW_TAG_member
    5273                      .dwattr $C$DW$400, DW_AT_type(*$C$DW$T$21)
    5274                      .dwattr $C$DW$400, DW_AT_name("RSVD49")
    5275                      .dwattr $C$DW$400, DW_AT_TI_symbol_name("_RSVD49")
    5276                      .dwattr $C$DW$400, DW_AT_data_member_location[DW_OP_plus_uconst 0x2]
    5277                      .dwattr $C$DW$400, DW_AT_accessibility(DW_ACCESS_public)
    5278                      .dwendtag $C$DW$T$28
    5279              
    5280              $C$DW$T$50      .dwtag  DW_TAG_typedef, DW_AT_name("CSL_UsbCdmaschetblwordRegs")
    5281                      .dwattr $C$DW$T$50, DW_AT_type(*$C$DW$T$28)
    5282                      .dwattr $C$DW$T$50, DW_AT_language(DW_LANG_C)
    5283              
    5284              $C$DW$T$51      .dwtag  DW_TAG_array_type
    5285                      .dwattr $C$DW$T$51, DW_AT_type(*$C$DW$T$50)
    5286                      .dwattr $C$DW$T$51, DW_AT_language(DW_LANG_C)
    5287                      .dwattr $C$DW$T$51, DW_AT_byte_size(0x100)
    5288              $C$DW$401       .dwtag  DW_TAG_subrange_type
    5289                      .dwattr $C$DW$401, DW_AT_upper_bound(0x3f)
    5290                      .dwendtag $C$DW$T$51
    5291              
    5292              
    5293              $C$DW$T$30      .dwtag  DW_TAG_structure_type
    5294                      .dwattr $C$DW$T$30, DW_AT_byte_size(0x10)
    5295              $C$DW$402       .dwtag  DW_TAG_member
    5296                      .dwattr $C$DW$402, DW_AT_type(*$C$DW$T$20)
    5297                      .dwattr $C$DW$402, DW_AT_name("QMEMRBASE1")
    5298                      .dwattr $C$DW$402, DW_AT_TI_symbol_name("_QMEMRBASE1")
    5299                      .dwattr $C$DW$402, DW_AT_data_member_location[DW_OP_plus_uconst 0x0]
    5300                      .dwattr $C$DW$402, DW_AT_accessibility(DW_ACCESS_public)
    5301              $C$DW$403       .dwtag  DW_TAG_member
    5302                      .dwattr $C$DW$403, DW_AT_type(*$C$DW$T$20)
    5303                      .dwattr $C$DW$403, DW_AT_name("QMEMRBASE2")
    5304                      .dwattr $C$DW$403, DW_AT_TI_symbol_name("_QMEMRBASE2")
    5305                      .dwattr $C$DW$403, DW_AT_data_member_location[DW_OP_plus_uconst 0x1]
    5306                      .dwattr $C$DW$403, DW_AT_accessibility(DW_ACCESS_public)
    5307              $C$DW$404       .dwtag  DW_TAG_member
    5308                      .dwattr $C$DW$404, DW_AT_type(*$C$DW$T$21)
    5309                      .dwattr $C$DW$404, DW_AT_name("RSVD0")
    5310                      .dwattr $C$DW$404, DW_AT_TI_symbol_name("_RSVD0")
    5311                      .dwattr $C$DW$404, DW_AT_data_member_location[DW_OP_plus_uconst 0x2]
    5312                      .dwattr $C$DW$404, DW_AT_accessibility(DW_ACCESS_public)
    5313              $C$DW$405       .dwtag  DW_TAG_member
    5314                      .dwattr $C$DW$405, DW_AT_type(*$C$DW$T$20)
TMS320C55x Assembler PC v4.4.1 Sat Sep 29 23:08:36 2018

Tools Copyright (c) 1996-2012 Texas Instruments Incorporated
csl_usb_intc_example.asm                                             PAGE  133

    5315                      .dwattr $C$DW$405, DW_AT_name("QMEMRCTRL1")
    5316                      .dwattr $C$DW$405, DW_AT_TI_symbol_name("_QMEMRCTRL1")
    5317                      .dwattr $C$DW$405, DW_AT_data_member_location[DW_OP_plus_uconst 0x4]
    5318                      .dwattr $C$DW$405, DW_AT_accessibility(DW_ACCESS_public)
    5319              $C$DW$406       .dwtag  DW_TAG_member
    5320                      .dwattr $C$DW$406, DW_AT_type(*$C$DW$T$20)
    5321                      .dwattr $C$DW$406, DW_AT_name("QMEMRCTRL2")
    5322                      .dwattr $C$DW$406, DW_AT_TI_symbol_name("_QMEMRCTRL2")
    5323                      .dwattr $C$DW$406, DW_AT_data_member_location[DW_OP_plus_uconst 0x5]
    5324                      .dwattr $C$DW$406, DW_AT_accessibility(DW_ACCESS_public)
    5325              $C$DW$407       .dwtag  DW_TAG_member
    5326                      .dwattr $C$DW$407, DW_AT_type(*$C$DW$T$29)
    5327                      .dwattr $C$DW$407, DW_AT_name("RSVD63")
    5328                      .dwattr $C$DW$407, DW_AT_TI_symbol_name("_RSVD63")
    5329                      .dwattr $C$DW$407, DW_AT_data_member_location[DW_OP_plus_uconst 0x6]
    5330                      .dwattr $C$DW$407, DW_AT_accessibility(DW_ACCESS_public)
    5331                      .dwendtag $C$DW$T$30
    5332              
    5333              $C$DW$T$56      .dwtag  DW_TAG_typedef, DW_AT_name("CSL_UsbQmmemregrRegs")
    5334                      .dwattr $C$DW$T$56, DW_AT_type(*$C$DW$T$30)
    5335                      .dwattr $C$DW$T$56, DW_AT_language(DW_LANG_C)
    5336              
    5337              $C$DW$T$57      .dwtag  DW_TAG_array_type
    5338                      .dwattr $C$DW$T$57, DW_AT_type(*$C$DW$T$56)
    5339                      .dwattr $C$DW$T$57, DW_AT_language(DW_LANG_C)
    5340                      .dwattr $C$DW$T$57, DW_AT_byte_size(0x100)
    5341              $C$DW$408       .dwtag  DW_TAG_subrange_type
    5342                      .dwattr $C$DW$408, DW_AT_upper_bound(0x0f)
    5343                      .dwendtag $C$DW$T$57
    5344              
    5345              
    5346              $C$DW$T$32      .dwtag  DW_TAG_structure_type
    5347                      .dwattr $C$DW$T$32, DW_AT_byte_size(0x10)
    5348              $C$DW$409       .dwtag  DW_TAG_member
    5349                      .dwattr $C$DW$409, DW_AT_type(*$C$DW$T$31)
    5350                      .dwattr $C$DW$409, DW_AT_name("RSVD0")
    5351                      .dwattr $C$DW$409, DW_AT_TI_symbol_name("_RSVD0")
    5352                      .dwattr $C$DW$409, DW_AT_data_member_location[DW_OP_plus_uconst 0x0]
    5353                      .dwattr $C$DW$409, DW_AT_accessibility(DW_ACCESS_public)
    5354              $C$DW$410       .dwtag  DW_TAG_member
    5355                      .dwattr $C$DW$410, DW_AT_type(*$C$DW$T$20)
    5356                      .dwattr $C$DW$410, DW_AT_name("CTRL1D")
    5357                      .dwattr $C$DW$410, DW_AT_TI_symbol_name("_CTRL1D")
    5358                      .dwattr $C$DW$410, DW_AT_data_member_location[DW_OP_plus_uconst 0xc]
    5359                      .dwattr $C$DW$410, DW_AT_accessibility(DW_ACCESS_public)
    5360              $C$DW$411       .dwtag  DW_TAG_member
    5361                      .dwattr $C$DW$411, DW_AT_type(*$C$DW$T$20)
    5362                      .dwattr $C$DW$411, DW_AT_name("CTRL2D")
    5363                      .dwattr $C$DW$411, DW_AT_TI_symbol_name("_CTRL2D")
    5364                      .dwattr $C$DW$411, DW_AT_data_member_location[DW_OP_plus_uconst 0xd]
    5365                      .dwattr $C$DW$411, DW_AT_accessibility(DW_ACCESS_public)
    5366              $C$DW$412       .dwtag  DW_TAG_member
    5367                      .dwattr $C$DW$412, DW_AT_type(*$C$DW$T$21)
    5368                      .dwattr $C$DW$412, DW_AT_name("RSVD65")
    5369                      .dwattr $C$DW$412, DW_AT_TI_symbol_name("_RSVD65")
TMS320C55x Assembler PC v4.4.1 Sat Sep 29 23:08:36 2018

Tools Copyright (c) 1996-2012 Texas Instruments Incorporated
csl_usb_intc_example.asm                                             PAGE  134

    5370                      .dwattr $C$DW$412, DW_AT_data_member_location[DW_OP_plus_uconst 0xe]
    5371                      .dwattr $C$DW$412, DW_AT_accessibility(DW_ACCESS_public)
    5372                      .dwendtag $C$DW$T$32
    5373              
    5374              $C$DW$T$59      .dwtag  DW_TAG_typedef, DW_AT_name("CSL_UsbQmqnRegs")
    5375                      .dwattr $C$DW$T$59, DW_AT_type(*$C$DW$T$32)
    5376                      .dwattr $C$DW$T$59, DW_AT_language(DW_LANG_C)
    5377              
    5378              $C$DW$T$60      .dwtag  DW_TAG_array_type
    5379                      .dwattr $C$DW$T$60, DW_AT_type(*$C$DW$T$59)
    5380                      .dwattr $C$DW$T$60, DW_AT_language(DW_LANG_C)
    5381                      .dwattr $C$DW$T$60, DW_AT_byte_size(0x400)
    5382              $C$DW$413       .dwtag  DW_TAG_subrange_type
    5383                      .dwattr $C$DW$413, DW_AT_upper_bound(0x3f)
    5384                      .dwendtag $C$DW$T$60
    5385              
    5386              
    5387              $C$DW$T$34      .dwtag  DW_TAG_structure_type
    5388                      .dwattr $C$DW$T$34, DW_AT_byte_size(0x10)
    5389              $C$DW$414       .dwtag  DW_TAG_member
    5390                      .dwattr $C$DW$414, DW_AT_type(*$C$DW$T$20)
    5391                      .dwattr $C$DW$414, DW_AT_name("QSTATA")
    5392                      .dwattr $C$DW$414, DW_AT_TI_symbol_name("_QSTATA")
    5393                      .dwattr $C$DW$414, DW_AT_data_member_location[DW_OP_plus_uconst 0x0]
    5394                      .dwattr $C$DW$414, DW_AT_accessibility(DW_ACCESS_public)
    5395              $C$DW$415       .dwtag  DW_TAG_member
    5396                      .dwattr $C$DW$415, DW_AT_type(*$C$DW$T$33)
    5397                      .dwattr $C$DW$415, DW_AT_name("RSVD0")
    5398                      .dwattr $C$DW$415, DW_AT_TI_symbol_name("_RSVD0")
    5399                      .dwattr $C$DW$415, DW_AT_data_member_location[DW_OP_plus_uconst 0x1]
    5400                      .dwattr $C$DW$415, DW_AT_accessibility(DW_ACCESS_public)
    5401              $C$DW$416       .dwtag  DW_TAG_member
    5402                      .dwattr $C$DW$416, DW_AT_type(*$C$DW$T$20)
    5403                      .dwattr $C$DW$416, DW_AT_name("QSTAT1B")
    5404                      .dwattr $C$DW$416, DW_AT_TI_symbol_name("_QSTAT1B")
    5405                      .dwattr $C$DW$416, DW_AT_data_member_location[DW_OP_plus_uconst 0x4]
    5406                      .dwattr $C$DW$416, DW_AT_accessibility(DW_ACCESS_public)
    5407              $C$DW$417       .dwtag  DW_TAG_member
    5408                      .dwattr $C$DW$417, DW_AT_type(*$C$DW$T$20)
    5409                      .dwattr $C$DW$417, DW_AT_name("QSTAT2B")
    5410                      .dwattr $C$DW$417, DW_AT_TI_symbol_name("_QSTAT2B")
    5411                      .dwattr $C$DW$417, DW_AT_data_member_location[DW_OP_plus_uconst 0x5]
    5412                      .dwattr $C$DW$417, DW_AT_accessibility(DW_ACCESS_public)
    5413              $C$DW$418       .dwtag  DW_TAG_member
    5414                      .dwattr $C$DW$418, DW_AT_type(*$C$DW$T$21)
    5415                      .dwattr $C$DW$418, DW_AT_name("RSVD1")
    5416                      .dwattr $C$DW$418, DW_AT_TI_symbol_name("_RSVD1")
    5417                      .dwattr $C$DW$418, DW_AT_data_member_location[DW_OP_plus_uconst 0x6]
    5418                      .dwattr $C$DW$418, DW_AT_accessibility(DW_ACCESS_public)
    5419              $C$DW$419       .dwtag  DW_TAG_member
    5420                      .dwattr $C$DW$419, DW_AT_type(*$C$DW$T$20)
    5421                      .dwattr $C$DW$419, DW_AT_name("QSTAT1C")
    5422                      .dwattr $C$DW$419, DW_AT_TI_symbol_name("_QSTAT1C")
    5423                      .dwattr $C$DW$419, DW_AT_data_member_location[DW_OP_plus_uconst 0x8]
    5424                      .dwattr $C$DW$419, DW_AT_accessibility(DW_ACCESS_public)
TMS320C55x Assembler PC v4.4.1 Sat Sep 29 23:08:36 2018

Tools Copyright (c) 1996-2012 Texas Instruments Incorporated
csl_usb_intc_example.asm                                             PAGE  135

    5425              $C$DW$420       .dwtag  DW_TAG_member
    5426                      .dwattr $C$DW$420, DW_AT_type(*$C$DW$T$23)
    5427                      .dwattr $C$DW$420, DW_AT_name("RSVD67")
    5428                      .dwattr $C$DW$420, DW_AT_TI_symbol_name("_RSVD67")
    5429                      .dwattr $C$DW$420, DW_AT_data_member_location[DW_OP_plus_uconst 0x9]
    5430                      .dwattr $C$DW$420, DW_AT_accessibility(DW_ACCESS_public)
    5431                      .dwendtag $C$DW$T$34
    5432              
    5433              $C$DW$T$62      .dwtag  DW_TAG_typedef, DW_AT_name("CSL_UsbQmqnsRegs")
    5434                      .dwattr $C$DW$T$62, DW_AT_type(*$C$DW$T$34)
    5435                      .dwattr $C$DW$T$62, DW_AT_language(DW_LANG_C)
    5436              
    5437              $C$DW$T$63      .dwtag  DW_TAG_array_type
    5438                      .dwattr $C$DW$T$63, DW_AT_type(*$C$DW$T$62)
    5439                      .dwattr $C$DW$T$63, DW_AT_language(DW_LANG_C)
    5440                      .dwattr $C$DW$T$63, DW_AT_byte_size(0x400)
    5441              $C$DW$421       .dwtag  DW_TAG_subrange_type
    5442                      .dwattr $C$DW$421, DW_AT_upper_bound(0x3f)
    5443                      .dwendtag $C$DW$T$63
    5444              
    5445              
    5446              $C$DW$T$64      .dwtag  DW_TAG_structure_type
    5447                      .dwattr $C$DW$T$64, DW_AT_byte_size(0x6c00)
    5448              $C$DW$422       .dwtag  DW_TAG_member
    5449                      .dwattr $C$DW$422, DW_AT_type(*$C$DW$T$20)
    5450                      .dwattr $C$DW$422, DW_AT_name("REVID1")
    5451                      .dwattr $C$DW$422, DW_AT_TI_symbol_name("_REVID1")
    5452                      .dwattr $C$DW$422, DW_AT_data_member_location[DW_OP_plus_uconst 0x0]
    5453                      .dwattr $C$DW$422, DW_AT_accessibility(DW_ACCESS_public)
    5454              $C$DW$423       .dwtag  DW_TAG_member
    5455                      .dwattr $C$DW$423, DW_AT_type(*$C$DW$T$20)
    5456                      .dwattr $C$DW$423, DW_AT_name("REVID2")
    5457                      .dwattr $C$DW$423, DW_AT_TI_symbol_name("_REVID2")
    5458                      .dwattr $C$DW$423, DW_AT_data_member_location[DW_OP_plus_uconst 0x1]
    5459                      .dwattr $C$DW$423, DW_AT_accessibility(DW_ACCESS_public)
    5460              $C$DW$424       .dwtag  DW_TAG_member
    5461                      .dwattr $C$DW$424, DW_AT_type(*$C$DW$T$21)
    5462                      .dwattr $C$DW$424, DW_AT_name("RSVD0")
    5463                      .dwattr $C$DW$424, DW_AT_TI_symbol_name("_RSVD0")
    5464                      .dwattr $C$DW$424, DW_AT_data_member_location[DW_OP_plus_uconst 0x2]
    5465                      .dwattr $C$DW$424, DW_AT_accessibility(DW_ACCESS_public)
    5466              $C$DW$425       .dwtag  DW_TAG_member
    5467                      .dwattr $C$DW$425, DW_AT_type(*$C$DW$T$20)
    5468                      .dwattr $C$DW$425, DW_AT_name("CTRLR")
    5469                      .dwattr $C$DW$425, DW_AT_TI_symbol_name("_CTRLR")
    5470                      .dwattr $C$DW$425, DW_AT_data_member_location[DW_OP_plus_uconst 0x4]
    5471                      .dwattr $C$DW$425, DW_AT_accessibility(DW_ACCESS_public)
    5472              $C$DW$426       .dwtag  DW_TAG_member
    5473                      .dwattr $C$DW$426, DW_AT_type(*$C$DW$T$33)
    5474                      .dwattr $C$DW$426, DW_AT_name("RSVD1")
    5475                      .dwattr $C$DW$426, DW_AT_TI_symbol_name("_RSVD1")
    5476                      .dwattr $C$DW$426, DW_AT_data_member_location[DW_OP_plus_uconst 0x5]
    5477                      .dwattr $C$DW$426, DW_AT_accessibility(DW_ACCESS_public)
    5478              $C$DW$427       .dwtag  DW_TAG_member
    5479                      .dwattr $C$DW$427, DW_AT_type(*$C$DW$T$20)
TMS320C55x Assembler PC v4.4.1 Sat Sep 29 23:08:36 2018

Tools Copyright (c) 1996-2012 Texas Instruments Incorporated
csl_usb_intc_example.asm                                             PAGE  136

    5480                      .dwattr $C$DW$427, DW_AT_name("STATR")
    5481                      .dwattr $C$DW$427, DW_AT_TI_symbol_name("_STATR")
    5482                      .dwattr $C$DW$427, DW_AT_data_member_location[DW_OP_plus_uconst 0x8]
    5483                      .dwattr $C$DW$427, DW_AT_accessibility(DW_ACCESS_public)
    5484              $C$DW$428       .dwtag  DW_TAG_member
    5485                      .dwattr $C$DW$428, DW_AT_type(*$C$DW$T$33)
    5486                      .dwattr $C$DW$428, DW_AT_name("RSVD2")
    5487                      .dwattr $C$DW$428, DW_AT_TI_symbol_name("_RSVD2")
    5488                      .dwattr $C$DW$428, DW_AT_data_member_location[DW_OP_plus_uconst 0x9]
    5489                      .dwattr $C$DW$428, DW_AT_accessibility(DW_ACCESS_public)
    5490              $C$DW$429       .dwtag  DW_TAG_member
    5491                      .dwattr $C$DW$429, DW_AT_type(*$C$DW$T$20)
    5492                      .dwattr $C$DW$429, DW_AT_name("EMUR")
    5493                      .dwattr $C$DW$429, DW_AT_TI_symbol_name("_EMUR")
    5494                      .dwattr $C$DW$429, DW_AT_data_member_location[DW_OP_plus_uconst 0xc]
    5495                      .dwattr $C$DW$429, DW_AT_accessibility(DW_ACCESS_public)
    5496              $C$DW$430       .dwtag  DW_TAG_member
    5497                      .dwattr $C$DW$430, DW_AT_type(*$C$DW$T$33)
    5498                      .dwattr $C$DW$430, DW_AT_name("RSVD3")
    5499                      .dwattr $C$DW$430, DW_AT_TI_symbol_name("_RSVD3")
    5500                      .dwattr $C$DW$430, DW_AT_data_member_location[DW_OP_plus_uconst 0xd]
    5501                      .dwattr $C$DW$430, DW_AT_accessibility(DW_ACCESS_public)
    5502              $C$DW$431       .dwtag  DW_TAG_member
    5503                      .dwattr $C$DW$431, DW_AT_type(*$C$DW$T$20)
    5504                      .dwattr $C$DW$431, DW_AT_name("MODE1")
    5505                      .dwattr $C$DW$431, DW_AT_TI_symbol_name("_MODE1")
    5506                      .dwattr $C$DW$431, DW_AT_data_member_location[DW_OP_plus_uconst 0x10]
    5507                      .dwattr $C$DW$431, DW_AT_accessibility(DW_ACCESS_public)
    5508              $C$DW$432       .dwtag  DW_TAG_member
    5509                      .dwattr $C$DW$432, DW_AT_type(*$C$DW$T$20)
    5510                      .dwattr $C$DW$432, DW_AT_name("MODE2")
    5511                      .dwattr $C$DW$432, DW_AT_TI_symbol_name("_MODE2")
    5512                      .dwattr $C$DW$432, DW_AT_data_member_location[DW_OP_plus_uconst 0x11]
    5513                      .dwattr $C$DW$432, DW_AT_accessibility(DW_ACCESS_public)
    5514              $C$DW$433       .dwtag  DW_TAG_member
    5515                      .dwattr $C$DW$433, DW_AT_type(*$C$DW$T$21)
    5516                      .dwattr $C$DW$433, DW_AT_name("RSVD4")
    5517                      .dwattr $C$DW$433, DW_AT_TI_symbol_name("_RSVD4")
    5518                      .dwattr $C$DW$433, DW_AT_data_member_location[DW_OP_plus_uconst 0x12]
    5519                      .dwattr $C$DW$433, DW_AT_accessibility(DW_ACCESS_public)
    5520              $C$DW$434       .dwtag  DW_TAG_member
    5521                      .dwattr $C$DW$434, DW_AT_type(*$C$DW$T$20)
    5522                      .dwattr $C$DW$434, DW_AT_name("AUTOREQ")
    5523                      .dwattr $C$DW$434, DW_AT_TI_symbol_name("_AUTOREQ")
    5524                      .dwattr $C$DW$434, DW_AT_data_member_location[DW_OP_plus_uconst 0x14]
    5525                      .dwattr $C$DW$434, DW_AT_accessibility(DW_ACCESS_public)
    5526              $C$DW$435       .dwtag  DW_TAG_member
    5527                      .dwattr $C$DW$435, DW_AT_type(*$C$DW$T$33)
    5528                      .dwattr $C$DW$435, DW_AT_name("RSVD5")
    5529                      .dwattr $C$DW$435, DW_AT_TI_symbol_name("_RSVD5")
    5530                      .dwattr $C$DW$435, DW_AT_data_member_location[DW_OP_plus_uconst 0x15]
    5531                      .dwattr $C$DW$435, DW_AT_accessibility(DW_ACCESS_public)
    5532              $C$DW$436       .dwtag  DW_TAG_member
    5533                      .dwattr $C$DW$436, DW_AT_type(*$C$DW$T$20)
    5534                      .dwattr $C$DW$436, DW_AT_name("SPRFIXTIME1")
TMS320C55x Assembler PC v4.4.1 Sat Sep 29 23:08:36 2018

Tools Copyright (c) 1996-2012 Texas Instruments Incorporated
csl_usb_intc_example.asm                                             PAGE  137

    5535                      .dwattr $C$DW$436, DW_AT_TI_symbol_name("_SPRFIXTIME1")
    5536                      .dwattr $C$DW$436, DW_AT_data_member_location[DW_OP_plus_uconst 0x18]
    5537                      .dwattr $C$DW$436, DW_AT_accessibility(DW_ACCESS_public)
    5538              $C$DW$437       .dwtag  DW_TAG_member
    5539                      .dwattr $C$DW$437, DW_AT_type(*$C$DW$T$20)
    5540                      .dwattr $C$DW$437, DW_AT_name("SPRFIXTIME2")
    5541                      .dwattr $C$DW$437, DW_AT_TI_symbol_name("_SPRFIXTIME2")
    5542                      .dwattr $C$DW$437, DW_AT_data_member_location[DW_OP_plus_uconst 0x19]
    5543                      .dwattr $C$DW$437, DW_AT_accessibility(DW_ACCESS_public)
    5544              $C$DW$438       .dwtag  DW_TAG_member
    5545                      .dwattr $C$DW$438, DW_AT_type(*$C$DW$T$21)
    5546                      .dwattr $C$DW$438, DW_AT_name("RSVD6")
    5547                      .dwattr $C$DW$438, DW_AT_TI_symbol_name("_RSVD6")
    5548                      .dwattr $C$DW$438, DW_AT_data_member_location[DW_OP_plus_uconst 0x1a]
    5549                      .dwattr $C$DW$438, DW_AT_accessibility(DW_ACCESS_public)
    5550              $C$DW$439       .dwtag  DW_TAG_member
    5551                      .dwattr $C$DW$439, DW_AT_type(*$C$DW$T$20)
    5552                      .dwattr $C$DW$439, DW_AT_name("TEARDOWN1")
    5553                      .dwattr $C$DW$439, DW_AT_TI_symbol_name("_TEARDOWN1")
    5554                      .dwattr $C$DW$439, DW_AT_data_member_location[DW_OP_plus_uconst 0x1c]
    5555                      .dwattr $C$DW$439, DW_AT_accessibility(DW_ACCESS_public)
    5556              $C$DW$440       .dwtag  DW_TAG_member
    5557                      .dwattr $C$DW$440, DW_AT_type(*$C$DW$T$20)
    5558                      .dwattr $C$DW$440, DW_AT_name("TEARDOWN2")
    5559                      .dwattr $C$DW$440, DW_AT_TI_symbol_name("_TEARDOWN2")
    5560                      .dwattr $C$DW$440, DW_AT_data_member_location[DW_OP_plus_uconst 0x1d]
    5561                      .dwattr $C$DW$440, DW_AT_accessibility(DW_ACCESS_public)
    5562              $C$DW$441       .dwtag  DW_TAG_member
    5563                      .dwattr $C$DW$441, DW_AT_type(*$C$DW$T$21)
    5564                      .dwattr $C$DW$441, DW_AT_name("RSVD7")
    5565                      .dwattr $C$DW$441, DW_AT_TI_symbol_name("_RSVD7")
    5566                      .dwattr $C$DW$441, DW_AT_data_member_location[DW_OP_plus_uconst 0x1e]
    5567                      .dwattr $C$DW$441, DW_AT_accessibility(DW_ACCESS_public)
    5568              $C$DW$442       .dwtag  DW_TAG_member
    5569                      .dwattr $C$DW$442, DW_AT_type(*$C$DW$T$20)
    5570                      .dwattr $C$DW$442, DW_AT_name("INTSRCR1")
    5571                      .dwattr $C$DW$442, DW_AT_TI_symbol_name("_INTSRCR1")
    5572                      .dwattr $C$DW$442, DW_AT_data_member_location[DW_OP_plus_uconst 0x20]
    5573                      .dwattr $C$DW$442, DW_AT_accessibility(DW_ACCESS_public)
    5574              $C$DW$443       .dwtag  DW_TAG_member
    5575                      .dwattr $C$DW$443, DW_AT_type(*$C$DW$T$20)
    5576                      .dwattr $C$DW$443, DW_AT_name("INTSRCR2")
    5577                      .dwattr $C$DW$443, DW_AT_TI_symbol_name("_INTSRCR2")
    5578                      .dwattr $C$DW$443, DW_AT_data_member_location[DW_OP_plus_uconst 0x21]
    5579                      .dwattr $C$DW$443, DW_AT_accessibility(DW_ACCESS_public)
    5580              $C$DW$444       .dwtag  DW_TAG_member
    5581                      .dwattr $C$DW$444, DW_AT_type(*$C$DW$T$21)
    5582                      .dwattr $C$DW$444, DW_AT_name("RSVD8")
    5583                      .dwattr $C$DW$444, DW_AT_TI_symbol_name("_RSVD8")
    5584                      .dwattr $C$DW$444, DW_AT_data_member_location[DW_OP_plus_uconst 0x22]
    5585                      .dwattr $C$DW$444, DW_AT_accessibility(DW_ACCESS_public)
    5586              $C$DW$445       .dwtag  DW_TAG_member
    5587                      .dwattr $C$DW$445, DW_AT_type(*$C$DW$T$20)
    5588                      .dwattr $C$DW$445, DW_AT_name("INTSETR1")
    5589                      .dwattr $C$DW$445, DW_AT_TI_symbol_name("_INTSETR1")
TMS320C55x Assembler PC v4.4.1 Sat Sep 29 23:08:36 2018

Tools Copyright (c) 1996-2012 Texas Instruments Incorporated
csl_usb_intc_example.asm                                             PAGE  138

    5590                      .dwattr $C$DW$445, DW_AT_data_member_location[DW_OP_plus_uconst 0x24]
    5591                      .dwattr $C$DW$445, DW_AT_accessibility(DW_ACCESS_public)
    5592              $C$DW$446       .dwtag  DW_TAG_member
    5593                      .dwattr $C$DW$446, DW_AT_type(*$C$DW$T$20)
    5594                      .dwattr $C$DW$446, DW_AT_name("INTSETR2")
    5595                      .dwattr $C$DW$446, DW_AT_TI_symbol_name("_INTSETR2")
    5596                      .dwattr $C$DW$446, DW_AT_data_member_location[DW_OP_plus_uconst 0x25]
    5597                      .dwattr $C$DW$446, DW_AT_accessibility(DW_ACCESS_public)
    5598              $C$DW$447       .dwtag  DW_TAG_member
    5599                      .dwattr $C$DW$447, DW_AT_type(*$C$DW$T$21)
    5600                      .dwattr $C$DW$447, DW_AT_name("RSVD9")
    5601                      .dwattr $C$DW$447, DW_AT_TI_symbol_name("_RSVD9")
    5602                      .dwattr $C$DW$447, DW_AT_data_member_location[DW_OP_plus_uconst 0x26]
    5603                      .dwattr $C$DW$447, DW_AT_accessibility(DW_ACCESS_public)
    5604              $C$DW$448       .dwtag  DW_TAG_member
    5605                      .dwattr $C$DW$448, DW_AT_type(*$C$DW$T$20)
    5606                      .dwattr $C$DW$448, DW_AT_name("INTCLRR1")
    5607                      .dwattr $C$DW$448, DW_AT_TI_symbol_name("_INTCLRR1")
    5608                      .dwattr $C$DW$448, DW_AT_data_member_location[DW_OP_plus_uconst 0x28]
    5609                      .dwattr $C$DW$448, DW_AT_accessibility(DW_ACCESS_public)
    5610              $C$DW$449       .dwtag  DW_TAG_member
    5611                      .dwattr $C$DW$449, DW_AT_type(*$C$DW$T$20)
    5612                      .dwattr $C$DW$449, DW_AT_name("INTCLRR2")
    5613                      .dwattr $C$DW$449, DW_AT_TI_symbol_name("_INTCLRR2")
    5614                      .dwattr $C$DW$449, DW_AT_data_member_location[DW_OP_plus_uconst 0x29]
    5615                      .dwattr $C$DW$449, DW_AT_accessibility(DW_ACCESS_public)
    5616              $C$DW$450       .dwtag  DW_TAG_member
    5617                      .dwattr $C$DW$450, DW_AT_type(*$C$DW$T$21)
    5618                      .dwattr $C$DW$450, DW_AT_name("RSVD10")
    5619                      .dwattr $C$DW$450, DW_AT_TI_symbol_name("_RSVD10")
    5620                      .dwattr $C$DW$450, DW_AT_data_member_location[DW_OP_plus_uconst 0x2a]
    5621                      .dwattr $C$DW$450, DW_AT_accessibility(DW_ACCESS_public)
    5622              $C$DW$451       .dwtag  DW_TAG_member
    5623                      .dwattr $C$DW$451, DW_AT_type(*$C$DW$T$20)
    5624                      .dwattr $C$DW$451, DW_AT_name("INTMSKR1")
    5625                      .dwattr $C$DW$451, DW_AT_TI_symbol_name("_INTMSKR1")
    5626                      .dwattr $C$DW$451, DW_AT_data_member_location[DW_OP_plus_uconst 0x2c]
    5627                      .dwattr $C$DW$451, DW_AT_accessibility(DW_ACCESS_public)
    5628              $C$DW$452       .dwtag  DW_TAG_member
    5629                      .dwattr $C$DW$452, DW_AT_type(*$C$DW$T$20)
    5630                      .dwattr $C$DW$452, DW_AT_name("INTMSKR2")
    5631                      .dwattr $C$DW$452, DW_AT_TI_symbol_name("_INTMSKR2")
    5632                      .dwattr $C$DW$452, DW_AT_data_member_location[DW_OP_plus_uconst 0x2d]
    5633                      .dwattr $C$DW$452, DW_AT_accessibility(DW_ACCESS_public)
    5634              $C$DW$453       .dwtag  DW_TAG_member
    5635                      .dwattr $C$DW$453, DW_AT_type(*$C$DW$T$21)
    5636                      .dwattr $C$DW$453, DW_AT_name("RSVD11")
    5637                      .dwattr $C$DW$453, DW_AT_TI_symbol_name("_RSVD11")
    5638                      .dwattr $C$DW$453, DW_AT_data_member_location[DW_OP_plus_uconst 0x2e]
    5639                      .dwattr $C$DW$453, DW_AT_accessibility(DW_ACCESS_public)
    5640              $C$DW$454       .dwtag  DW_TAG_member
    5641                      .dwattr $C$DW$454, DW_AT_type(*$C$DW$T$20)
    5642                      .dwattr $C$DW$454, DW_AT_name("INTMSKSETR1")
    5643                      .dwattr $C$DW$454, DW_AT_TI_symbol_name("_INTMSKSETR1")
    5644                      .dwattr $C$DW$454, DW_AT_data_member_location[DW_OP_plus_uconst 0x30]
TMS320C55x Assembler PC v4.4.1 Sat Sep 29 23:08:36 2018

Tools Copyright (c) 1996-2012 Texas Instruments Incorporated
csl_usb_intc_example.asm                                             PAGE  139

    5645                      .dwattr $C$DW$454, DW_AT_accessibility(DW_ACCESS_public)
    5646              $C$DW$455       .dwtag  DW_TAG_member
    5647                      .dwattr $C$DW$455, DW_AT_type(*$C$DW$T$20)
    5648                      .dwattr $C$DW$455, DW_AT_name("INTMSKSETR2")
    5649                      .dwattr $C$DW$455, DW_AT_TI_symbol_name("_INTMSKSETR2")
    5650                      .dwattr $C$DW$455, DW_AT_data_member_location[DW_OP_plus_uconst 0x31]
    5651                      .dwattr $C$DW$455, DW_AT_accessibility(DW_ACCESS_public)
    5652              $C$DW$456       .dwtag  DW_TAG_member
    5653                      .dwattr $C$DW$456, DW_AT_type(*$C$DW$T$21)
    5654                      .dwattr $C$DW$456, DW_AT_name("RSVD12")
    5655                      .dwattr $C$DW$456, DW_AT_TI_symbol_name("_RSVD12")
    5656                      .dwattr $C$DW$456, DW_AT_data_member_location[DW_OP_plus_uconst 0x32]
    5657                      .dwattr $C$DW$456, DW_AT_accessibility(DW_ACCESS_public)
    5658              $C$DW$457       .dwtag  DW_TAG_member
    5659                      .dwattr $C$DW$457, DW_AT_type(*$C$DW$T$20)
    5660                      .dwattr $C$DW$457, DW_AT_name("INTMSKCLRR1")
    5661                      .dwattr $C$DW$457, DW_AT_TI_symbol_name("_INTMSKCLRR1")
    5662                      .dwattr $C$DW$457, DW_AT_data_member_location[DW_OP_plus_uconst 0x34]
    5663                      .dwattr $C$DW$457, DW_AT_accessibility(DW_ACCESS_public)
    5664              $C$DW$458       .dwtag  DW_TAG_member
    5665                      .dwattr $C$DW$458, DW_AT_type(*$C$DW$T$20)
    5666                      .dwattr $C$DW$458, DW_AT_name("INTMSKCLRR2")
    5667                      .dwattr $C$DW$458, DW_AT_TI_symbol_name("_INTMSKCLRR2")
    5668                      .dwattr $C$DW$458, DW_AT_data_member_location[DW_OP_plus_uconst 0x35]
    5669                      .dwattr $C$DW$458, DW_AT_accessibility(DW_ACCESS_public)
    5670              $C$DW$459       .dwtag  DW_TAG_member
    5671                      .dwattr $C$DW$459, DW_AT_type(*$C$DW$T$21)
    5672                      .dwattr $C$DW$459, DW_AT_name("RSVD13")
    5673                      .dwattr $C$DW$459, DW_AT_TI_symbol_name("_RSVD13")
    5674                      .dwattr $C$DW$459, DW_AT_data_member_location[DW_OP_plus_uconst 0x36]
    5675                      .dwattr $C$DW$459, DW_AT_accessibility(DW_ACCESS_public)
    5676              $C$DW$460       .dwtag  DW_TAG_member
    5677                      .dwattr $C$DW$460, DW_AT_type(*$C$DW$T$20)
    5678                      .dwattr $C$DW$460, DW_AT_name("INTMASKEDR1")
    5679                      .dwattr $C$DW$460, DW_AT_TI_symbol_name("_INTMASKEDR1")
    5680                      .dwattr $C$DW$460, DW_AT_data_member_location[DW_OP_plus_uconst 0x38]
    5681                      .dwattr $C$DW$460, DW_AT_accessibility(DW_ACCESS_public)
    5682              $C$DW$461       .dwtag  DW_TAG_member
    5683                      .dwattr $C$DW$461, DW_AT_type(*$C$DW$T$20)
    5684                      .dwattr $C$DW$461, DW_AT_name("INTMASKEDR2")
    5685                      .dwattr $C$DW$461, DW_AT_TI_symbol_name("_INTMASKEDR2")
    5686                      .dwattr $C$DW$461, DW_AT_data_member_location[DW_OP_plus_uconst 0x39]
    5687                      .dwattr $C$DW$461, DW_AT_accessibility(DW_ACCESS_public)
    5688              $C$DW$462       .dwtag  DW_TAG_member
    5689                      .dwattr $C$DW$462, DW_AT_type(*$C$DW$T$21)
    5690                      .dwattr $C$DW$462, DW_AT_name("RSVD14")
    5691                      .dwattr $C$DW$462, DW_AT_TI_symbol_name("_RSVD14")
    5692                      .dwattr $C$DW$462, DW_AT_data_member_location[DW_OP_plus_uconst 0x3a]
    5693                      .dwattr $C$DW$462, DW_AT_accessibility(DW_ACCESS_public)
    5694              $C$DW$463       .dwtag  DW_TAG_member
    5695                      .dwattr $C$DW$463, DW_AT_type(*$C$DW$T$20)
    5696                      .dwattr $C$DW$463, DW_AT_name("EOIR")
    5697                      .dwattr $C$DW$463, DW_AT_TI_symbol_name("_EOIR")
    5698                      .dwattr $C$DW$463, DW_AT_data_member_location[DW_OP_plus_uconst 0x3c]
    5699                      .dwattr $C$DW$463, DW_AT_accessibility(DW_ACCESS_public)
TMS320C55x Assembler PC v4.4.1 Sat Sep 29 23:08:36 2018

Tools Copyright (c) 1996-2012 Texas Instruments Incorporated
csl_usb_intc_example.asm                                             PAGE  140

    5700              $C$DW$464       .dwtag  DW_TAG_member
    5701                      .dwattr $C$DW$464, DW_AT_type(*$C$DW$T$33)
    5702                      .dwattr $C$DW$464, DW_AT_name("RSVD15")
    5703                      .dwattr $C$DW$464, DW_AT_TI_symbol_name("_RSVD15")
    5704                      .dwattr $C$DW$464, DW_AT_data_member_location[DW_OP_plus_uconst 0x3d]
    5705                      .dwattr $C$DW$464, DW_AT_accessibility(DW_ACCESS_public)
    5706              $C$DW$465       .dwtag  DW_TAG_member
    5707                      .dwattr $C$DW$465, DW_AT_type(*$C$DW$T$20)
    5708                      .dwattr $C$DW$465, DW_AT_name("INTVECTR1")
    5709                      .dwattr $C$DW$465, DW_AT_TI_symbol_name("_INTVECTR1")
    5710                      .dwattr $C$DW$465, DW_AT_data_member_location[DW_OP_plus_uconst 0x40]
    5711                      .dwattr $C$DW$465, DW_AT_accessibility(DW_ACCESS_public)
    5712              $C$DW$466       .dwtag  DW_TAG_member
    5713                      .dwattr $C$DW$466, DW_AT_type(*$C$DW$T$20)
    5714                      .dwattr $C$DW$466, DW_AT_name("INTVECTR2")
    5715                      .dwattr $C$DW$466, DW_AT_TI_symbol_name("_INTVECTR2")
    5716                      .dwattr $C$DW$466, DW_AT_data_member_location[DW_OP_plus_uconst 0x41]
    5717                      .dwattr $C$DW$466, DW_AT_accessibility(DW_ACCESS_public)
    5718              $C$DW$467       .dwtag  DW_TAG_member
    5719                      .dwattr $C$DW$467, DW_AT_type(*$C$DW$T$26)
    5720                      .dwattr $C$DW$467, DW_AT_name("RSVD16")
    5721                      .dwattr $C$DW$467, DW_AT_TI_symbol_name("_RSVD16")
    5722                      .dwattr $C$DW$467, DW_AT_data_member_location[DW_OP_plus_uconst 0x42]
    5723                      .dwattr $C$DW$467, DW_AT_accessibility(DW_ACCESS_public)
    5724              $C$DW$468       .dwtag  DW_TAG_member
    5725                      .dwattr $C$DW$468, DW_AT_type(*$C$DW$T$20)
    5726                      .dwattr $C$DW$468, DW_AT_name("GREP1SZR1")
    5727                      .dwattr $C$DW$468, DW_AT_TI_symbol_name("_GREP1SZR1")
    5728                      .dwattr $C$DW$468, DW_AT_data_member_location[DW_OP_plus_uconst 0x50]
    5729                      .dwattr $C$DW$468, DW_AT_accessibility(DW_ACCESS_public)
    5730              $C$DW$469       .dwtag  DW_TAG_member
    5731                      .dwattr $C$DW$469, DW_AT_type(*$C$DW$T$20)
    5732                      .dwattr $C$DW$469, DW_AT_name("GREP1SZR2")
    5733                      .dwattr $C$DW$469, DW_AT_TI_symbol_name("_GREP1SZR2")
    5734                      .dwattr $C$DW$469, DW_AT_data_member_location[DW_OP_plus_uconst 0x51]
    5735                      .dwattr $C$DW$469, DW_AT_accessibility(DW_ACCESS_public)
    5736              $C$DW$470       .dwtag  DW_TAG_member
    5737                      .dwattr $C$DW$470, DW_AT_type(*$C$DW$T$21)
    5738                      .dwattr $C$DW$470, DW_AT_name("RSVD17")
    5739                      .dwattr $C$DW$470, DW_AT_TI_symbol_name("_RSVD17")
    5740                      .dwattr $C$DW$470, DW_AT_data_member_location[DW_OP_plus_uconst 0x52]
    5741                      .dwattr $C$DW$470, DW_AT_accessibility(DW_ACCESS_public)
    5742              $C$DW$471       .dwtag  DW_TAG_member
    5743                      .dwattr $C$DW$471, DW_AT_type(*$C$DW$T$20)
    5744                      .dwattr $C$DW$471, DW_AT_name("GREP2SZR1")
    5745                      .dwattr $C$DW$471, DW_AT_TI_symbol_name("_GREP2SZR1")
    5746                      .dwattr $C$DW$471, DW_AT_data_member_location[DW_OP_plus_uconst 0x54]
    5747                      .dwattr $C$DW$471, DW_AT_accessibility(DW_ACCESS_public)
    5748              $C$DW$472       .dwtag  DW_TAG_member
    5749                      .dwattr $C$DW$472, DW_AT_type(*$C$DW$T$20)
    5750                      .dwattr $C$DW$472, DW_AT_name("GREP2SZR2")
    5751                      .dwattr $C$DW$472, DW_AT_TI_symbol_name("_GREP2SZR2")
    5752                      .dwattr $C$DW$472, DW_AT_data_member_location[DW_OP_plus_uconst 0x55]
    5753                      .dwattr $C$DW$472, DW_AT_accessibility(DW_ACCESS_public)
    5754              $C$DW$473       .dwtag  DW_TAG_member
TMS320C55x Assembler PC v4.4.1 Sat Sep 29 23:08:36 2018

Tools Copyright (c) 1996-2012 Texas Instruments Incorporated
csl_usb_intc_example.asm                                             PAGE  141

    5755                      .dwattr $C$DW$473, DW_AT_type(*$C$DW$T$21)
    5756                      .dwattr $C$DW$473, DW_AT_name("RSVD18")
    5757                      .dwattr $C$DW$473, DW_AT_TI_symbol_name("_RSVD18")
    5758                      .dwattr $C$DW$473, DW_AT_data_member_location[DW_OP_plus_uconst 0x56]
    5759                      .dwattr $C$DW$473, DW_AT_accessibility(DW_ACCESS_public)
    5760              $C$DW$474       .dwtag  DW_TAG_member
    5761                      .dwattr $C$DW$474, DW_AT_type(*$C$DW$T$20)
    5762                      .dwattr $C$DW$474, DW_AT_name("GREP3SZR1")
    5763                      .dwattr $C$DW$474, DW_AT_TI_symbol_name("_GREP3SZR1")
    5764                      .dwattr $C$DW$474, DW_AT_data_member_location[DW_OP_plus_uconst 0x58]
    5765                      .dwattr $C$DW$474, DW_AT_accessibility(DW_ACCESS_public)
    5766              $C$DW$475       .dwtag  DW_TAG_member
    5767                      .dwattr $C$DW$475, DW_AT_type(*$C$DW$T$20)
    5768                      .dwattr $C$DW$475, DW_AT_name("GREP3SZR2")
    5769                      .dwattr $C$DW$475, DW_AT_TI_symbol_name("_GREP3SZR2")
    5770                      .dwattr $C$DW$475, DW_AT_data_member_location[DW_OP_plus_uconst 0x59]
    5771                      .dwattr $C$DW$475, DW_AT_accessibility(DW_ACCESS_public)
    5772              $C$DW$476       .dwtag  DW_TAG_member
    5773                      .dwattr $C$DW$476, DW_AT_type(*$C$DW$T$21)
    5774                      .dwattr $C$DW$476, DW_AT_name("RSVD19")
    5775                      .dwattr $C$DW$476, DW_AT_TI_symbol_name("_RSVD19")
    5776                      .dwattr $C$DW$476, DW_AT_data_member_location[DW_OP_plus_uconst 0x5a]
    5777                      .dwattr $C$DW$476, DW_AT_accessibility(DW_ACCESS_public)
    5778              $C$DW$477       .dwtag  DW_TAG_member
    5779                      .dwattr $C$DW$477, DW_AT_type(*$C$DW$T$20)
    5780                      .dwattr $C$DW$477, DW_AT_name("GREP4SZR1")
    5781                      .dwattr $C$DW$477, DW_AT_TI_symbol_name("_GREP4SZR1")
    5782                      .dwattr $C$DW$477, DW_AT_data_member_location[DW_OP_plus_uconst 0x5c]
    5783                      .dwattr $C$DW$477, DW_AT_accessibility(DW_ACCESS_public)
    5784              $C$DW$478       .dwtag  DW_TAG_member
    5785                      .dwattr $C$DW$478, DW_AT_type(*$C$DW$T$20)
    5786                      .dwattr $C$DW$478, DW_AT_name("GREP4SZR2")
    5787                      .dwattr $C$DW$478, DW_AT_TI_symbol_name("_GREP4SZR2")
    5788                      .dwattr $C$DW$478, DW_AT_data_member_location[DW_OP_plus_uconst 0x5d]
    5789                      .dwattr $C$DW$478, DW_AT_accessibility(DW_ACCESS_public)
    5790              $C$DW$479       .dwtag  DW_TAG_member
    5791                      .dwattr $C$DW$479, DW_AT_type(*$C$DW$T$35)
    5792                      .dwattr $C$DW$479, DW_AT_name("RSVD20")
    5793                      .dwattr $C$DW$479, DW_AT_TI_symbol_name("_RSVD20")
    5794                      .dwattr $C$DW$479, DW_AT_data_member_location[DW_OP_plus_uconst 0x5e]
    5795                      .dwattr $C$DW$479, DW_AT_accessibility(DW_ACCESS_public)
    5796              $C$DW$480       .dwtag  DW_TAG_member
    5797                      .dwattr $C$DW$480, DW_AT_type(*$C$DW$T$20)
    5798                      .dwattr $C$DW$480, DW_AT_name("FADDR_POWER")
    5799                      .dwattr $C$DW$480, DW_AT_TI_symbol_name("_FADDR_POWER")
    5800                      .dwattr $C$DW$480, DW_AT_data_member_location[DW_OP_plus_uconst 0x401]
    5801                      .dwattr $C$DW$480, DW_AT_accessibility(DW_ACCESS_public)
    5802              $C$DW$481       .dwtag  DW_TAG_member
    5803                      .dwattr $C$DW$481, DW_AT_type(*$C$DW$T$20)
    5804                      .dwattr $C$DW$481, DW_AT_name("INTRTX")
    5805                      .dwattr $C$DW$481, DW_AT_TI_symbol_name("_INTRTX")
    5806                      .dwattr $C$DW$481, DW_AT_data_member_location[DW_OP_plus_uconst 0x402]
    5807                      .dwattr $C$DW$481, DW_AT_accessibility(DW_ACCESS_public)
    5808              $C$DW$482       .dwtag  DW_TAG_member
    5809                      .dwattr $C$DW$482, DW_AT_type(*$C$DW$T$21)
TMS320C55x Assembler PC v4.4.1 Sat Sep 29 23:08:36 2018

Tools Copyright (c) 1996-2012 Texas Instruments Incorporated
csl_usb_intc_example.asm                                             PAGE  142

    5810                      .dwattr $C$DW$482, DW_AT_name("RSVD21")
    5811                      .dwattr $C$DW$482, DW_AT_TI_symbol_name("_RSVD21")
    5812                      .dwattr $C$DW$482, DW_AT_data_member_location[DW_OP_plus_uconst 0x403]
    5813                      .dwattr $C$DW$482, DW_AT_accessibility(DW_ACCESS_public)
    5814              $C$DW$483       .dwtag  DW_TAG_member
    5815                      .dwattr $C$DW$483, DW_AT_type(*$C$DW$T$20)
    5816                      .dwattr $C$DW$483, DW_AT_name("INTRRX")
    5817                      .dwattr $C$DW$483, DW_AT_TI_symbol_name("_INTRRX")
    5818                      .dwattr $C$DW$483, DW_AT_data_member_location[DW_OP_plus_uconst 0x405]
    5819                      .dwattr $C$DW$483, DW_AT_accessibility(DW_ACCESS_public)
    5820              $C$DW$484       .dwtag  DW_TAG_member
    5821                      .dwattr $C$DW$484, DW_AT_type(*$C$DW$T$20)
    5822                      .dwattr $C$DW$484, DW_AT_name("INTRTXE")
    5823                      .dwattr $C$DW$484, DW_AT_TI_symbol_name("_INTRTXE")
    5824                      .dwattr $C$DW$484, DW_AT_data_member_location[DW_OP_plus_uconst 0x406]
    5825                      .dwattr $C$DW$484, DW_AT_accessibility(DW_ACCESS_public)
    5826              $C$DW$485       .dwtag  DW_TAG_member
    5827                      .dwattr $C$DW$485, DW_AT_type(*$C$DW$T$21)
    5828                      .dwattr $C$DW$485, DW_AT_name("RSVD22")
    5829                      .dwattr $C$DW$485, DW_AT_TI_symbol_name("_RSVD22")
    5830                      .dwattr $C$DW$485, DW_AT_data_member_location[DW_OP_plus_uconst 0x407]
    5831                      .dwattr $C$DW$485, DW_AT_accessibility(DW_ACCESS_public)
    5832              $C$DW$486       .dwtag  DW_TAG_member
    5833                      .dwattr $C$DW$486, DW_AT_type(*$C$DW$T$20)
    5834                      .dwattr $C$DW$486, DW_AT_name("INTRRXE")
    5835                      .dwattr $C$DW$486, DW_AT_TI_symbol_name("_INTRRXE")
    5836                      .dwattr $C$DW$486, DW_AT_data_member_location[DW_OP_plus_uconst 0x409]
    5837                      .dwattr $C$DW$486, DW_AT_accessibility(DW_ACCESS_public)
    5838              $C$DW$487       .dwtag  DW_TAG_member
    5839                      .dwattr $C$DW$487, DW_AT_type(*$C$DW$T$20)
    5840                      .dwattr $C$DW$487, DW_AT_name("INTRUSB_INTRUSBE")
    5841                      .dwattr $C$DW$487, DW_AT_TI_symbol_name("_INTRUSB_INTRUSBE")
    5842                      .dwattr $C$DW$487, DW_AT_data_member_location[DW_OP_plus_uconst 0x40a]
    5843                      .dwattr $C$DW$487, DW_AT_accessibility(DW_ACCESS_public)
    5844              $C$DW$488       .dwtag  DW_TAG_member
    5845                      .dwattr $C$DW$488, DW_AT_type(*$C$DW$T$21)
    5846                      .dwattr $C$DW$488, DW_AT_name("RSVD23")
    5847                      .dwattr $C$DW$488, DW_AT_TI_symbol_name("_RSVD23")
    5848                      .dwattr $C$DW$488, DW_AT_data_member_location[DW_OP_plus_uconst 0x40b]
    5849                      .dwattr $C$DW$488, DW_AT_accessibility(DW_ACCESS_public)
    5850              $C$DW$489       .dwtag  DW_TAG_member
    5851                      .dwattr $C$DW$489, DW_AT_type(*$C$DW$T$20)
    5852                      .dwattr $C$DW$489, DW_AT_name("FRAME")
    5853                      .dwattr $C$DW$489, DW_AT_TI_symbol_name("_FRAME")
    5854                      .dwattr $C$DW$489, DW_AT_data_member_location[DW_OP_plus_uconst 0x40d]
    5855                      .dwattr $C$DW$489, DW_AT_accessibility(DW_ACCESS_public)
    5856              $C$DW$490       .dwtag  DW_TAG_member
    5857                      .dwattr $C$DW$490, DW_AT_type(*$C$DW$T$20)
    5858                      .dwattr $C$DW$490, DW_AT_name("INDEX_TESTMODE")
    5859                      .dwattr $C$DW$490, DW_AT_TI_symbol_name("_INDEX_TESTMODE")
    5860                      .dwattr $C$DW$490, DW_AT_data_member_location[DW_OP_plus_uconst 0x40e]
    5861                      .dwattr $C$DW$490, DW_AT_accessibility(DW_ACCESS_public)
    5862              $C$DW$491       .dwtag  DW_TAG_member
    5863                      .dwattr $C$DW$491, DW_AT_type(*$C$DW$T$21)
    5864                      .dwattr $C$DW$491, DW_AT_name("RSVD24")
TMS320C55x Assembler PC v4.4.1 Sat Sep 29 23:08:36 2018

Tools Copyright (c) 1996-2012 Texas Instruments Incorporated
csl_usb_intc_example.asm                                             PAGE  143

    5865                      .dwattr $C$DW$491, DW_AT_TI_symbol_name("_RSVD24")
    5866                      .dwattr $C$DW$491, DW_AT_data_member_location[DW_OP_plus_uconst 0x40f]
    5867                      .dwattr $C$DW$491, DW_AT_accessibility(DW_ACCESS_public)
    5868              $C$DW$492       .dwtag  DW_TAG_member
    5869                      .dwattr $C$DW$492, DW_AT_type(*$C$DW$T$20)
    5870                      .dwattr $C$DW$492, DW_AT_name("TXMAXP_INDX")
    5871                      .dwattr $C$DW$492, DW_AT_TI_symbol_name("_TXMAXP_INDX")
    5872                      .dwattr $C$DW$492, DW_AT_data_member_location[DW_OP_plus_uconst 0x411]
    5873                      .dwattr $C$DW$492, DW_AT_accessibility(DW_ACCESS_public)
    5874              $C$DW$493       .dwtag  DW_TAG_member
    5875                      .dwattr $C$DW$493, DW_AT_type(*$C$DW$T$20)
    5876                      .dwattr $C$DW$493, DW_AT_name("PERI_CSR0_INDX")
    5877                      .dwattr $C$DW$493, DW_AT_TI_symbol_name("_PERI_CSR0_INDX")
    5878                      .dwattr $C$DW$493, DW_AT_data_member_location[DW_OP_plus_uconst 0x412]
    5879                      .dwattr $C$DW$493, DW_AT_accessibility(DW_ACCESS_public)
    5880              $C$DW$494       .dwtag  DW_TAG_member
    5881                      .dwattr $C$DW$494, DW_AT_type(*$C$DW$T$21)
    5882                      .dwattr $C$DW$494, DW_AT_name("RSVD25")
    5883                      .dwattr $C$DW$494, DW_AT_TI_symbol_name("_RSVD25")
    5884                      .dwattr $C$DW$494, DW_AT_data_member_location[DW_OP_plus_uconst 0x413]
    5885                      .dwattr $C$DW$494, DW_AT_accessibility(DW_ACCESS_public)
    5886              $C$DW$495       .dwtag  DW_TAG_member
    5887                      .dwattr $C$DW$495, DW_AT_type(*$C$DW$T$20)
    5888                      .dwattr $C$DW$495, DW_AT_name("RXMAXP_INDX")
    5889                      .dwattr $C$DW$495, DW_AT_TI_symbol_name("_RXMAXP_INDX")
    5890                      .dwattr $C$DW$495, DW_AT_data_member_location[DW_OP_plus_uconst 0x415]
    5891                      .dwattr $C$DW$495, DW_AT_accessibility(DW_ACCESS_public)
    5892              $C$DW$496       .dwtag  DW_TAG_member
    5893                      .dwattr $C$DW$496, DW_AT_type(*$C$DW$T$20)
    5894                      .dwattr $C$DW$496, DW_AT_name("PERI_RXCSR_INDX")
    5895                      .dwattr $C$DW$496, DW_AT_TI_symbol_name("_PERI_RXCSR_INDX")
    5896                      .dwattr $C$DW$496, DW_AT_data_member_location[DW_OP_plus_uconst 0x416]
    5897                      .dwattr $C$DW$496, DW_AT_accessibility(DW_ACCESS_public)
    5898              $C$DW$497       .dwtag  DW_TAG_member
    5899                      .dwattr $C$DW$497, DW_AT_type(*$C$DW$T$21)
    5900                      .dwattr $C$DW$497, DW_AT_name("RSVD26")
    5901                      .dwattr $C$DW$497, DW_AT_TI_symbol_name("_RSVD26")
    5902                      .dwattr $C$DW$497, DW_AT_data_member_location[DW_OP_plus_uconst 0x417]
    5903                      .dwattr $C$DW$497, DW_AT_accessibility(DW_ACCESS_public)
    5904              $C$DW$498       .dwtag  DW_TAG_member
    5905                      .dwattr $C$DW$498, DW_AT_type(*$C$DW$T$20)
    5906                      .dwattr $C$DW$498, DW_AT_name("COUNT0_INDX")
    5907                      .dwattr $C$DW$498, DW_AT_TI_symbol_name("_COUNT0_INDX")
    5908                      .dwattr $C$DW$498, DW_AT_data_member_location[DW_OP_plus_uconst 0x419]
    5909                      .dwattr $C$DW$498, DW_AT_accessibility(DW_ACCESS_public)
    5910              $C$DW$499       .dwtag  DW_TAG_member
    5911                      .dwattr $C$DW$499, DW_AT_type(*$C$DW$T$36)
    5912                      .dwattr $C$DW$499, DW_AT_name("RSVD27")
    5913                      .dwattr $C$DW$499, DW_AT_TI_symbol_name("_RSVD27")
    5914                      .dwattr $C$DW$499, DW_AT_data_member_location[DW_OP_plus_uconst 0x41a]
    5915                      .dwattr $C$DW$499, DW_AT_accessibility(DW_ACCESS_public)
    5916              $C$DW$500       .dwtag  DW_TAG_member
    5917                      .dwattr $C$DW$500, DW_AT_type(*$C$DW$T$20)
    5918                      .dwattr $C$DW$500, DW_AT_name("CONFIGDATA_INDX")
    5919                      .dwattr $C$DW$500, DW_AT_TI_symbol_name("_CONFIGDATA_INDX")
TMS320C55x Assembler PC v4.4.1 Sat Sep 29 23:08:36 2018

Tools Copyright (c) 1996-2012 Texas Instruments Incorporated
csl_usb_intc_example.asm                                             PAGE  144

    5920                      .dwattr $C$DW$500, DW_AT_data_member_location[DW_OP_plus_uconst 0x41e]
    5921                      .dwattr $C$DW$500, DW_AT_accessibility(DW_ACCESS_public)
    5922              $C$DW$501       .dwtag  DW_TAG_member
    5923                      .dwattr $C$DW$501, DW_AT_type(*$C$DW$T$21)
    5924                      .dwattr $C$DW$501, DW_AT_name("RSVD28")
    5925                      .dwattr $C$DW$501, DW_AT_TI_symbol_name("_RSVD28")
    5926                      .dwattr $C$DW$501, DW_AT_data_member_location[DW_OP_plus_uconst 0x41f]
    5927                      .dwattr $C$DW$501, DW_AT_accessibility(DW_ACCESS_public)
    5928              $C$DW$502       .dwtag  DW_TAG_member
    5929                      .dwattr $C$DW$502, DW_AT_type(*$C$DW$T$20)
    5930                      .dwattr $C$DW$502, DW_AT_name("FIFO0R1")
    5931                      .dwattr $C$DW$502, DW_AT_TI_symbol_name("_FIFO0R1")
    5932                      .dwattr $C$DW$502, DW_AT_data_member_location[DW_OP_plus_uconst 0x421]
    5933                      .dwattr $C$DW$502, DW_AT_accessibility(DW_ACCESS_public)
    5934              $C$DW$503       .dwtag  DW_TAG_member
    5935                      .dwattr $C$DW$503, DW_AT_type(*$C$DW$T$20)
    5936                      .dwattr $C$DW$503, DW_AT_name("FIFO0R2")
    5937                      .dwattr $C$DW$503, DW_AT_TI_symbol_name("_FIFO0R2")
    5938                      .dwattr $C$DW$503, DW_AT_data_member_location[DW_OP_plus_uconst 0x422]
    5939                      .dwattr $C$DW$503, DW_AT_accessibility(DW_ACCESS_public)
    5940              $C$DW$504       .dwtag  DW_TAG_member
    5941                      .dwattr $C$DW$504, DW_AT_type(*$C$DW$T$21)
    5942                      .dwattr $C$DW$504, DW_AT_name("RSVD29")
    5943                      .dwattr $C$DW$504, DW_AT_TI_symbol_name("_RSVD29")
    5944                      .dwattr $C$DW$504, DW_AT_data_member_location[DW_OP_plus_uconst 0x423]
    5945                      .dwattr $C$DW$504, DW_AT_accessibility(DW_ACCESS_public)
    5946              $C$DW$505       .dwtag  DW_TAG_member
    5947                      .dwattr $C$DW$505, DW_AT_type(*$C$DW$T$20)
    5948                      .dwattr $C$DW$505, DW_AT_name("FIFO1R1")
    5949                      .dwattr $C$DW$505, DW_AT_TI_symbol_name("_FIFO1R1")
    5950                      .dwattr $C$DW$505, DW_AT_data_member_location[DW_OP_plus_uconst 0x425]
    5951                      .dwattr $C$DW$505, DW_AT_accessibility(DW_ACCESS_public)
    5952              $C$DW$506       .dwtag  DW_TAG_member
    5953                      .dwattr $C$DW$506, DW_AT_type(*$C$DW$T$20)
    5954                      .dwattr $C$DW$506, DW_AT_name("FIFO1R2")
    5955                      .dwattr $C$DW$506, DW_AT_TI_symbol_name("_FIFO1R2")
    5956                      .dwattr $C$DW$506, DW_AT_data_member_location[DW_OP_plus_uconst 0x426]
    5957                      .dwattr $C$DW$506, DW_AT_accessibility(DW_ACCESS_public)
    5958              $C$DW$507       .dwtag  DW_TAG_member
    5959                      .dwattr $C$DW$507, DW_AT_type(*$C$DW$T$21)
    5960                      .dwattr $C$DW$507, DW_AT_name("RSVD30")
    5961                      .dwattr $C$DW$507, DW_AT_TI_symbol_name("_RSVD30")
    5962                      .dwattr $C$DW$507, DW_AT_data_member_location[DW_OP_plus_uconst 0x427]
    5963                      .dwattr $C$DW$507, DW_AT_accessibility(DW_ACCESS_public)
    5964              $C$DW$508       .dwtag  DW_TAG_member
    5965                      .dwattr $C$DW$508, DW_AT_type(*$C$DW$T$20)
    5966                      .dwattr $C$DW$508, DW_AT_name("FIFO2R1")
    5967                      .dwattr $C$DW$508, DW_AT_TI_symbol_name("_FIFO2R1")
    5968                      .dwattr $C$DW$508, DW_AT_data_member_location[DW_OP_plus_uconst 0x429]
    5969                      .dwattr $C$DW$508, DW_AT_accessibility(DW_ACCESS_public)
    5970              $C$DW$509       .dwtag  DW_TAG_member
    5971                      .dwattr $C$DW$509, DW_AT_type(*$C$DW$T$20)
    5972                      .dwattr $C$DW$509, DW_AT_name("FIFO2R2")
    5973                      .dwattr $C$DW$509, DW_AT_TI_symbol_name("_FIFO2R2")
    5974                      .dwattr $C$DW$509, DW_AT_data_member_location[DW_OP_plus_uconst 0x42a]
TMS320C55x Assembler PC v4.4.1 Sat Sep 29 23:08:36 2018

Tools Copyright (c) 1996-2012 Texas Instruments Incorporated
csl_usb_intc_example.asm                                             PAGE  145

    5975                      .dwattr $C$DW$509, DW_AT_accessibility(DW_ACCESS_public)
    5976              $C$DW$510       .dwtag  DW_TAG_member
    5977                      .dwattr $C$DW$510, DW_AT_type(*$C$DW$T$21)
    5978                      .dwattr $C$DW$510, DW_AT_name("RSVD31")
    5979                      .dwattr $C$DW$510, DW_AT_TI_symbol_name("_RSVD31")
    5980                      .dwattr $C$DW$510, DW_AT_data_member_location[DW_OP_plus_uconst 0x42b]
    5981                      .dwattr $C$DW$510, DW_AT_accessibility(DW_ACCESS_public)
    5982              $C$DW$511       .dwtag  DW_TAG_member
    5983                      .dwattr $C$DW$511, DW_AT_type(*$C$DW$T$20)
    5984                      .dwattr $C$DW$511, DW_AT_name("FIFO3R1")
    5985                      .dwattr $C$DW$511, DW_AT_TI_symbol_name("_FIFO3R1")
    5986                      .dwattr $C$DW$511, DW_AT_data_member_location[DW_OP_plus_uconst 0x42d]
    5987                      .dwattr $C$DW$511, DW_AT_accessibility(DW_ACCESS_public)
    5988              $C$DW$512       .dwtag  DW_TAG_member
    5989                      .dwattr $C$DW$512, DW_AT_type(*$C$DW$T$20)
    5990                      .dwattr $C$DW$512, DW_AT_name("FIFO3R2")
    5991                      .dwattr $C$DW$512, DW_AT_TI_symbol_name("_FIFO3R2")
    5992                      .dwattr $C$DW$512, DW_AT_data_member_location[DW_OP_plus_uconst 0x42e]
    5993                      .dwattr $C$DW$512, DW_AT_accessibility(DW_ACCESS_public)
    5994              $C$DW$513       .dwtag  DW_TAG_member
    5995                      .dwattr $C$DW$513, DW_AT_type(*$C$DW$T$21)
    5996                      .dwattr $C$DW$513, DW_AT_name("RSVD32")
    5997                      .dwattr $C$DW$513, DW_AT_TI_symbol_name("_RSVD32")
    5998                      .dwattr $C$DW$513, DW_AT_data_member_location[DW_OP_plus_uconst 0x42f]
    5999                      .dwattr $C$DW$513, DW_AT_accessibility(DW_ACCESS_public)
    6000              $C$DW$514       .dwtag  DW_TAG_member
    6001                      .dwattr $C$DW$514, DW_AT_type(*$C$DW$T$20)
    6002                      .dwattr $C$DW$514, DW_AT_name("FIFO4R1")
    6003                      .dwattr $C$DW$514, DW_AT_TI_symbol_name("_FIFO4R1")
    6004                      .dwattr $C$DW$514, DW_AT_data_member_location[DW_OP_plus_uconst 0x431]
    6005                      .dwattr $C$DW$514, DW_AT_accessibility(DW_ACCESS_public)
    6006              $C$DW$515       .dwtag  DW_TAG_member
    6007                      .dwattr $C$DW$515, DW_AT_type(*$C$DW$T$20)
    6008                      .dwattr $C$DW$515, DW_AT_name("FIFO4R2")
    6009                      .dwattr $C$DW$515, DW_AT_TI_symbol_name("_FIFO4R2")
    6010                      .dwattr $C$DW$515, DW_AT_data_member_location[DW_OP_plus_uconst 0x432]
    6011                      .dwattr $C$DW$515, DW_AT_accessibility(DW_ACCESS_public)
    6012              $C$DW$516       .dwtag  DW_TAG_member
    6013                      .dwattr $C$DW$516, DW_AT_type(*$C$DW$T$37)
    6014                      .dwattr $C$DW$516, DW_AT_name("RSVD33")
    6015                      .dwattr $C$DW$516, DW_AT_TI_symbol_name("_RSVD33")
    6016                      .dwattr $C$DW$516, DW_AT_data_member_location[DW_OP_plus_uconst 0x433]
    6017                      .dwattr $C$DW$516, DW_AT_accessibility(DW_ACCESS_public)
    6018              $C$DW$517       .dwtag  DW_TAG_member
    6019                      .dwattr $C$DW$517, DW_AT_type(*$C$DW$T$20)
    6020                      .dwattr $C$DW$517, DW_AT_name("DEVCTL")
    6021                      .dwattr $C$DW$517, DW_AT_TI_symbol_name("_DEVCTL")
    6022                      .dwattr $C$DW$517, DW_AT_data_member_location[DW_OP_plus_uconst 0x461]
    6023                      .dwattr $C$DW$517, DW_AT_accessibility(DW_ACCESS_public)
    6024              $C$DW$518       .dwtag  DW_TAG_member
    6025                      .dwattr $C$DW$518, DW_AT_type(*$C$DW$T$20)
    6026                      .dwattr $C$DW$518, DW_AT_name("TXFIFOSZ_RXFIFOSZ")
    6027                      .dwattr $C$DW$518, DW_AT_TI_symbol_name("_TXFIFOSZ_RXFIFOSZ")
    6028                      .dwattr $C$DW$518, DW_AT_data_member_location[DW_OP_plus_uconst 0x462]
    6029                      .dwattr $C$DW$518, DW_AT_accessibility(DW_ACCESS_public)
TMS320C55x Assembler PC v4.4.1 Sat Sep 29 23:08:36 2018

Tools Copyright (c) 1996-2012 Texas Instruments Incorporated
csl_usb_intc_example.asm                                             PAGE  146

    6030              $C$DW$519       .dwtag  DW_TAG_member
    6031                      .dwattr $C$DW$519, DW_AT_type(*$C$DW$T$21)
    6032                      .dwattr $C$DW$519, DW_AT_name("RSVD34")
    6033                      .dwattr $C$DW$519, DW_AT_TI_symbol_name("_RSVD34")
    6034                      .dwattr $C$DW$519, DW_AT_data_member_location[DW_OP_plus_uconst 0x463]
    6035                      .dwattr $C$DW$519, DW_AT_accessibility(DW_ACCESS_public)
    6036              $C$DW$520       .dwtag  DW_TAG_member
    6037                      .dwattr $C$DW$520, DW_AT_type(*$C$DW$T$20)
    6038                      .dwattr $C$DW$520, DW_AT_name("TXFIFOADDR")
    6039                      .dwattr $C$DW$520, DW_AT_TI_symbol_name("_TXFIFOADDR")
    6040                      .dwattr $C$DW$520, DW_AT_data_member_location[DW_OP_plus_uconst 0x465]
    6041                      .dwattr $C$DW$520, DW_AT_accessibility(DW_ACCESS_public)
    6042              $C$DW$521       .dwtag  DW_TAG_member
    6043                      .dwattr $C$DW$521, DW_AT_type(*$C$DW$T$20)
    6044                      .dwattr $C$DW$521, DW_AT_name("RXFIFOADDR")
    6045                      .dwattr $C$DW$521, DW_AT_TI_symbol_name("_RXFIFOADDR")
    6046                      .dwattr $C$DW$521, DW_AT_data_member_location[DW_OP_plus_uconst 0x466]
    6047                      .dwattr $C$DW$521, DW_AT_accessibility(DW_ACCESS_public)
    6048              $C$DW$522       .dwtag  DW_TAG_member
    6049                      .dwattr $C$DW$522, DW_AT_type(*$C$DW$T$25)
    6050                      .dwattr $C$DW$522, DW_AT_name("RSVD35")
    6051                      .dwattr $C$DW$522, DW_AT_TI_symbol_name("_RSVD35")
    6052                      .dwattr $C$DW$522, DW_AT_data_member_location[DW_OP_plus_uconst 0x467]
    6053                      .dwattr $C$DW$522, DW_AT_accessibility(DW_ACCESS_public)
    6054              $C$DW$523       .dwtag  DW_TAG_member
    6055                      .dwattr $C$DW$523, DW_AT_type(*$C$DW$T$20)
    6056                      .dwattr $C$DW$523, DW_AT_name("HWVERS")
    6057                      .dwattr $C$DW$523, DW_AT_TI_symbol_name("_HWVERS")
    6058                      .dwattr $C$DW$523, DW_AT_data_member_location[DW_OP_plus_uconst 0x46d]
    6059                      .dwattr $C$DW$523, DW_AT_accessibility(DW_ACCESS_public)
    6060              $C$DW$524       .dwtag  DW_TAG_member
    6061                      .dwattr $C$DW$524, DW_AT_type(*$C$DW$T$38)
    6062                      .dwattr $C$DW$524, DW_AT_name("RSVD37")
    6063                      .dwattr $C$DW$524, DW_AT_TI_symbol_name("_RSVD37")
    6064                      .dwattr $C$DW$524, DW_AT_data_member_location[DW_OP_plus_uconst 0x46e]
    6065                      .dwattr $C$DW$524, DW_AT_accessibility(DW_ACCESS_public)
    6066              $C$DW$525       .dwtag  DW_TAG_member
    6067                      .dwattr $C$DW$525, DW_AT_type(*$C$DW$T$40)
    6068                      .dwattr $C$DW$525, DW_AT_name("EPTRG")
    6069                      .dwattr $C$DW$525, DW_AT_TI_symbol_name("_EPTRG")
    6070                      .dwattr $C$DW$525, DW_AT_data_member_location[DW_OP_plus_uconst 0x481]
    6071                      .dwattr $C$DW$525, DW_AT_accessibility(DW_ACCESS_public)
    6072              $C$DW$526       .dwtag  DW_TAG_member
    6073                      .dwattr $C$DW$526, DW_AT_type(*$C$DW$T$41)
    6074                      .dwattr $C$DW$526, DW_AT_name("RSVD38")
    6075                      .dwattr $C$DW$526, DW_AT_TI_symbol_name("_RSVD38")
    6076                      .dwattr $C$DW$526, DW_AT_data_member_location[DW_OP_plus_uconst 0x4a9]
    6077                      .dwattr $C$DW$526, DW_AT_accessibility(DW_ACCESS_public)
    6078              $C$DW$527       .dwtag  DW_TAG_member
    6079                      .dwattr $C$DW$527, DW_AT_type(*$C$DW$T$20)
    6080                      .dwattr $C$DW$527, DW_AT_name("PERI_CSR0")
    6081                      .dwattr $C$DW$527, DW_AT_TI_symbol_name("_PERI_CSR0")
    6082                      .dwattr $C$DW$527, DW_AT_data_member_location[DW_OP_plus_uconst 0x502]
    6083                      .dwattr $C$DW$527, DW_AT_accessibility(DW_ACCESS_public)
    6084              $C$DW$528       .dwtag  DW_TAG_member
TMS320C55x Assembler PC v4.4.1 Sat Sep 29 23:08:36 2018

Tools Copyright (c) 1996-2012 Texas Instruments Incorporated
csl_usb_intc_example.asm                                             PAGE  147

    6085                      .dwattr $C$DW$528, DW_AT_type(*$C$DW$T$25)
    6086                      .dwattr $C$DW$528, DW_AT_name("RSVD39")
    6087                      .dwattr $C$DW$528, DW_AT_TI_symbol_name("_RSVD39")
    6088                      .dwattr $C$DW$528, DW_AT_data_member_location[DW_OP_plus_uconst 0x503]
    6089                      .dwattr $C$DW$528, DW_AT_accessibility(DW_ACCESS_public)
    6090              $C$DW$529       .dwtag  DW_TAG_member
    6091                      .dwattr $C$DW$529, DW_AT_type(*$C$DW$T$20)
    6092                      .dwattr $C$DW$529, DW_AT_name("COUNT0")
    6093                      .dwattr $C$DW$529, DW_AT_TI_symbol_name("_COUNT0")
    6094                      .dwattr $C$DW$529, DW_AT_data_member_location[DW_OP_plus_uconst 0x509]
    6095                      .dwattr $C$DW$529, DW_AT_accessibility(DW_ACCESS_public)
    6096              $C$DW$530       .dwtag  DW_TAG_member
    6097                      .dwattr $C$DW$530, DW_AT_type(*$C$DW$T$36)
    6098                      .dwattr $C$DW$530, DW_AT_name("RSVD40")
    6099                      .dwattr $C$DW$530, DW_AT_TI_symbol_name("_RSVD40")
    6100                      .dwattr $C$DW$530, DW_AT_data_member_location[DW_OP_plus_uconst 0x50a]
    6101                      .dwattr $C$DW$530, DW_AT_accessibility(DW_ACCESS_public)
    6102              $C$DW$531       .dwtag  DW_TAG_member
    6103                      .dwattr $C$DW$531, DW_AT_type(*$C$DW$T$20)
    6104                      .dwattr $C$DW$531, DW_AT_name("CONFIGDATA")
    6105                      .dwattr $C$DW$531, DW_AT_TI_symbol_name("_CONFIGDATA")
    6106                      .dwattr $C$DW$531, DW_AT_data_member_location[DW_OP_plus_uconst 0x50e]
    6107                      .dwattr $C$DW$531, DW_AT_accessibility(DW_ACCESS_public)
    6108              $C$DW$532       .dwtag  DW_TAG_member
    6109                      .dwattr $C$DW$532, DW_AT_type(*$C$DW$T$21)
    6110                      .dwattr $C$DW$532, DW_AT_name("RSVD42")
    6111                      .dwattr $C$DW$532, DW_AT_TI_symbol_name("_RSVD42")
    6112                      .dwattr $C$DW$532, DW_AT_data_member_location[DW_OP_plus_uconst 0x50f]
    6113                      .dwattr $C$DW$532, DW_AT_accessibility(DW_ACCESS_public)
    6114              $C$DW$533       .dwtag  DW_TAG_member
    6115                      .dwattr $C$DW$533, DW_AT_type(*$C$DW$T$43)
    6116                      .dwattr $C$DW$533, DW_AT_name("EPCSR")
    6117                      .dwattr $C$DW$533, DW_AT_TI_symbol_name("_EPCSR")
    6118                      .dwattr $C$DW$533, DW_AT_data_member_location[DW_OP_plus_uconst 0x511]
    6119                      .dwattr $C$DW$533, DW_AT_accessibility(DW_ACCESS_public)
    6120              $C$DW$534       .dwtag  DW_TAG_member
    6121                      .dwattr $C$DW$534, DW_AT_type(*$C$DW$T$44)
    6122                      .dwattr $C$DW$534, DW_AT_name("RSVD43")
    6123                      .dwattr $C$DW$534, DW_AT_TI_symbol_name("_RSVD43")
    6124                      .dwattr $C$DW$534, DW_AT_data_member_location[DW_OP_plus_uconst 0x551]
    6125                      .dwattr $C$DW$534, DW_AT_accessibility(DW_ACCESS_public)
    6126              $C$DW$535       .dwtag  DW_TAG_member
    6127                      .dwattr $C$DW$535, DW_AT_type(*$C$DW$T$20)
    6128                      .dwattr $C$DW$535, DW_AT_name("DMAREVID1")
    6129                      .dwattr $C$DW$535, DW_AT_TI_symbol_name("_DMAREVID1")
    6130                      .dwattr $C$DW$535, DW_AT_data_member_location[DW_OP_plus_uconst 0x1000]
    6131                      .dwattr $C$DW$535, DW_AT_accessibility(DW_ACCESS_public)
    6132              $C$DW$536       .dwtag  DW_TAG_member
    6133                      .dwattr $C$DW$536, DW_AT_type(*$C$DW$T$20)
    6134                      .dwattr $C$DW$536, DW_AT_name("DMAREVID2")
    6135                      .dwattr $C$DW$536, DW_AT_TI_symbol_name("_DMAREVID2")
    6136                      .dwattr $C$DW$536, DW_AT_data_member_location[DW_OP_plus_uconst 0x1001]
    6137                      .dwattr $C$DW$536, DW_AT_accessibility(DW_ACCESS_public)
    6138              $C$DW$537       .dwtag  DW_TAG_member
    6139                      .dwattr $C$DW$537, DW_AT_type(*$C$DW$T$21)
TMS320C55x Assembler PC v4.4.1 Sat Sep 29 23:08:36 2018

Tools Copyright (c) 1996-2012 Texas Instruments Incorporated
csl_usb_intc_example.asm                                             PAGE  148

    6140                      .dwattr $C$DW$537, DW_AT_name("RSVD44")
    6141                      .dwattr $C$DW$537, DW_AT_TI_symbol_name("_RSVD44")
    6142                      .dwattr $C$DW$537, DW_AT_data_member_location[DW_OP_plus_uconst 0x1002]
    6143                      .dwattr $C$DW$537, DW_AT_accessibility(DW_ACCESS_public)
    6144              $C$DW$538       .dwtag  DW_TAG_member
    6145                      .dwattr $C$DW$538, DW_AT_type(*$C$DW$T$20)
    6146                      .dwattr $C$DW$538, DW_AT_name("TDFDQ")
    6147                      .dwattr $C$DW$538, DW_AT_TI_symbol_name("_TDFDQ")
    6148                      .dwattr $C$DW$538, DW_AT_data_member_location[DW_OP_plus_uconst 0x1004]
    6149                      .dwattr $C$DW$538, DW_AT_accessibility(DW_ACCESS_public)
    6150              $C$DW$539       .dwtag  DW_TAG_member
    6151                      .dwattr $C$DW$539, DW_AT_type(*$C$DW$T$33)
    6152                      .dwattr $C$DW$539, DW_AT_name("RSVD45")
    6153                      .dwattr $C$DW$539, DW_AT_TI_symbol_name("_RSVD45")
    6154                      .dwattr $C$DW$539, DW_AT_data_member_location[DW_OP_plus_uconst 0x1005]
    6155                      .dwattr $C$DW$539, DW_AT_accessibility(DW_ACCESS_public)
    6156              $C$DW$540       .dwtag  DW_TAG_member
    6157                      .dwattr $C$DW$540, DW_AT_type(*$C$DW$T$20)
    6158                      .dwattr $C$DW$540, DW_AT_name("DMAEMU")
    6159                      .dwattr $C$DW$540, DW_AT_TI_symbol_name("_DMAEMU")
    6160                      .dwattr $C$DW$540, DW_AT_data_member_location[DW_OP_plus_uconst 0x1008]
    6161                      .dwattr $C$DW$540, DW_AT_accessibility(DW_ACCESS_public)
    6162              $C$DW$541       .dwtag  DW_TAG_member
    6163                      .dwattr $C$DW$541, DW_AT_type(*$C$DW$T$45)
    6164                      .dwattr $C$DW$541, DW_AT_name("RSVD47")
    6165                      .dwattr $C$DW$541, DW_AT_TI_symbol_name("_RSVD47")
    6166                      .dwattr $C$DW$541, DW_AT_data_member_location[DW_OP_plus_uconst 0x1009]
    6167                      .dwattr $C$DW$541, DW_AT_accessibility(DW_ACCESS_public)
    6168              $C$DW$542       .dwtag  DW_TAG_member
    6169                      .dwattr $C$DW$542, DW_AT_type(*$C$DW$T$47)
    6170                      .dwattr $C$DW$542, DW_AT_name("CHANNEL")
    6171                      .dwattr $C$DW$542, DW_AT_TI_symbol_name("_CHANNEL")
    6172                      .dwattr $C$DW$542, DW_AT_data_member_location[DW_OP_plus_uconst 0x1800]
    6173                      .dwattr $C$DW$542, DW_AT_accessibility(DW_ACCESS_public)
    6174              $C$DW$543       .dwtag  DW_TAG_member
    6175                      .dwattr $C$DW$543, DW_AT_type(*$C$DW$T$48)
    6176                      .dwattr $C$DW$543, DW_AT_name("RSVD48")
    6177                      .dwattr $C$DW$543, DW_AT_TI_symbol_name("_RSVD48")
    6178                      .dwattr $C$DW$543, DW_AT_data_member_location[DW_OP_plus_uconst 0x1880]
    6179                      .dwattr $C$DW$543, DW_AT_accessibility(DW_ACCESS_public)
    6180              $C$DW$544       .dwtag  DW_TAG_member
    6181                      .dwattr $C$DW$544, DW_AT_type(*$C$DW$T$20)
    6182                      .dwattr $C$DW$544, DW_AT_name("DMA_SCHED_CTRL1")
    6183                      .dwattr $C$DW$544, DW_AT_TI_symbol_name("_DMA_SCHED_CTRL1")
    6184                      .dwattr $C$DW$544, DW_AT_data_member_location[DW_OP_plus_uconst 0x2000]
    6185                      .dwattr $C$DW$544, DW_AT_accessibility(DW_ACCESS_public)
    6186              $C$DW$545       .dwtag  DW_TAG_member
    6187                      .dwattr $C$DW$545, DW_AT_type(*$C$DW$T$20)
    6188                      .dwattr $C$DW$545, DW_AT_name("DMA_SCHED_CTRL2")
    6189                      .dwattr $C$DW$545, DW_AT_TI_symbol_name("_DMA_SCHED_CTRL2")
    6190                      .dwattr $C$DW$545, DW_AT_data_member_location[DW_OP_plus_uconst 0x2001]
    6191                      .dwattr $C$DW$545, DW_AT_accessibility(DW_ACCESS_public)
    6192              $C$DW$546       .dwtag  DW_TAG_member
    6193                      .dwattr $C$DW$546, DW_AT_type(*$C$DW$T$49)
    6194                      .dwattr $C$DW$546, DW_AT_name("RSVD50")
TMS320C55x Assembler PC v4.4.1 Sat Sep 29 23:08:36 2018

Tools Copyright (c) 1996-2012 Texas Instruments Incorporated
csl_usb_intc_example.asm                                             PAGE  149

    6195                      .dwattr $C$DW$546, DW_AT_TI_symbol_name("_RSVD50")
    6196                      .dwattr $C$DW$546, DW_AT_data_member_location[DW_OP_plus_uconst 0x2002]
    6197                      .dwattr $C$DW$546, DW_AT_accessibility(DW_ACCESS_public)
    6198              $C$DW$547       .dwtag  DW_TAG_member
    6199                      .dwattr $C$DW$547, DW_AT_type(*$C$DW$T$51)
    6200                      .dwattr $C$DW$547, DW_AT_name("CDMASCHETBLWORD")
    6201                      .dwattr $C$DW$547, DW_AT_TI_symbol_name("_CDMASCHETBLWORD")
    6202                      .dwattr $C$DW$547, DW_AT_data_member_location[DW_OP_plus_uconst 0x2800]
    6203                      .dwattr $C$DW$547, DW_AT_accessibility(DW_ACCESS_public)
    6204              $C$DW$548       .dwtag  DW_TAG_member
    6205                      .dwattr $C$DW$548, DW_AT_type(*$C$DW$T$52)
    6206                      .dwattr $C$DW$548, DW_AT_name("RSVD51")
    6207                      .dwattr $C$DW$548, DW_AT_TI_symbol_name("_RSVD51")
    6208                      .dwattr $C$DW$548, DW_AT_data_member_location[DW_OP_plus_uconst 0x2900]
    6209                      .dwattr $C$DW$548, DW_AT_accessibility(DW_ACCESS_public)
    6210              $C$DW$549       .dwtag  DW_TAG_member
    6211                      .dwattr $C$DW$549, DW_AT_type(*$C$DW$T$20)
    6212                      .dwattr $C$DW$549, DW_AT_name("QMGRREVID1")
    6213                      .dwattr $C$DW$549, DW_AT_TI_symbol_name("_QMGRREVID1")
    6214                      .dwattr $C$DW$549, DW_AT_data_member_location[DW_OP_plus_uconst 0x4000]
    6215                      .dwattr $C$DW$549, DW_AT_accessibility(DW_ACCESS_public)
    6216              $C$DW$550       .dwtag  DW_TAG_member
    6217                      .dwattr $C$DW$550, DW_AT_type(*$C$DW$T$20)
    6218                      .dwattr $C$DW$550, DW_AT_name("QMGRREVID2")
    6219                      .dwattr $C$DW$550, DW_AT_TI_symbol_name("_QMGRREVID2")
    6220                      .dwattr $C$DW$550, DW_AT_data_member_location[DW_OP_plus_uconst 0x4001]
    6221                      .dwattr $C$DW$550, DW_AT_accessibility(DW_ACCESS_public)
    6222              $C$DW$551       .dwtag  DW_TAG_member
    6223                      .dwattr $C$DW$551, DW_AT_type(*$C$DW$T$25)
    6224                      .dwattr $C$DW$551, DW_AT_name("RSVD52")
    6225                      .dwattr $C$DW$551, DW_AT_TI_symbol_name("_RSVD52")
    6226                      .dwattr $C$DW$551, DW_AT_data_member_location[DW_OP_plus_uconst 0x4002]
    6227                      .dwattr $C$DW$551, DW_AT_accessibility(DW_ACCESS_public)
    6228              $C$DW$552       .dwtag  DW_TAG_member
    6229                      .dwattr $C$DW$552, DW_AT_type(*$C$DW$T$20)
    6230                      .dwattr $C$DW$552, DW_AT_name("DIVERSION1")
    6231                      .dwattr $C$DW$552, DW_AT_TI_symbol_name("_DIVERSION1")
    6232                      .dwattr $C$DW$552, DW_AT_data_member_location[DW_OP_plus_uconst 0x4008]
    6233                      .dwattr $C$DW$552, DW_AT_accessibility(DW_ACCESS_public)
    6234              $C$DW$553       .dwtag  DW_TAG_member
    6235                      .dwattr $C$DW$553, DW_AT_type(*$C$DW$T$20)
    6236                      .dwattr $C$DW$553, DW_AT_name("DIVERSION2")
    6237                      .dwattr $C$DW$553, DW_AT_TI_symbol_name("_DIVERSION2")
    6238                      .dwattr $C$DW$553, DW_AT_data_member_location[DW_OP_plus_uconst 0x4009]
    6239                      .dwattr $C$DW$553, DW_AT_accessibility(DW_ACCESS_public)
    6240              $C$DW$554       .dwtag  DW_TAG_member
    6241                      .dwattr $C$DW$554, DW_AT_type(*$C$DW$T$53)
    6242                      .dwattr $C$DW$554, DW_AT_name("RSVD53")
    6243                      .dwattr $C$DW$554, DW_AT_TI_symbol_name("_RSVD53")
    6244                      .dwattr $C$DW$554, DW_AT_data_member_location[DW_OP_plus_uconst 0x400a]
    6245                      .dwattr $C$DW$554, DW_AT_accessibility(DW_ACCESS_public)
    6246              $C$DW$555       .dwtag  DW_TAG_member
    6247                      .dwattr $C$DW$555, DW_AT_type(*$C$DW$T$20)
    6248                      .dwattr $C$DW$555, DW_AT_name("FDBSC0")
    6249                      .dwattr $C$DW$555, DW_AT_TI_symbol_name("_FDBSC0")
TMS320C55x Assembler PC v4.4.1 Sat Sep 29 23:08:36 2018

Tools Copyright (c) 1996-2012 Texas Instruments Incorporated
csl_usb_intc_example.asm                                             PAGE  150

    6250                      .dwattr $C$DW$555, DW_AT_data_member_location[DW_OP_plus_uconst 0x4020]
    6251                      .dwattr $C$DW$555, DW_AT_accessibility(DW_ACCESS_public)
    6252              $C$DW$556       .dwtag  DW_TAG_member
    6253                      .dwattr $C$DW$556, DW_AT_type(*$C$DW$T$20)
    6254                      .dwattr $C$DW$556, DW_AT_name("FDBSC1")
    6255                      .dwattr $C$DW$556, DW_AT_TI_symbol_name("_FDBSC1")
    6256                      .dwattr $C$DW$556, DW_AT_data_member_location[DW_OP_plus_uconst 0x4021]
    6257                      .dwattr $C$DW$556, DW_AT_accessibility(DW_ACCESS_public)
    6258              $C$DW$557       .dwtag  DW_TAG_member
    6259                      .dwattr $C$DW$557, DW_AT_type(*$C$DW$T$21)
    6260                      .dwattr $C$DW$557, DW_AT_name("RSVD54")
    6261                      .dwattr $C$DW$557, DW_AT_TI_symbol_name("_RSVD54")
    6262                      .dwattr $C$DW$557, DW_AT_data_member_location[DW_OP_plus_uconst 0x4022]
    6263                      .dwattr $C$DW$557, DW_AT_accessibility(DW_ACCESS_public)
    6264              $C$DW$558       .dwtag  DW_TAG_member
    6265                      .dwattr $C$DW$558, DW_AT_type(*$C$DW$T$20)
    6266                      .dwattr $C$DW$558, DW_AT_name("FDBSC2")
    6267                      .dwattr $C$DW$558, DW_AT_TI_symbol_name("_FDBSC2")
    6268                      .dwattr $C$DW$558, DW_AT_data_member_location[DW_OP_plus_uconst 0x4024]
    6269                      .dwattr $C$DW$558, DW_AT_accessibility(DW_ACCESS_public)
    6270              $C$DW$559       .dwtag  DW_TAG_member
    6271                      .dwattr $C$DW$559, DW_AT_type(*$C$DW$T$20)
    6272                      .dwattr $C$DW$559, DW_AT_name("FDBSC3")
    6273                      .dwattr $C$DW$559, DW_AT_TI_symbol_name("_FDBSC3")
    6274                      .dwattr $C$DW$559, DW_AT_data_member_location[DW_OP_plus_uconst 0x4025]
    6275                      .dwattr $C$DW$559, DW_AT_accessibility(DW_ACCESS_public)
    6276              $C$DW$560       .dwtag  DW_TAG_member
    6277                      .dwattr $C$DW$560, DW_AT_type(*$C$DW$T$21)
    6278                      .dwattr $C$DW$560, DW_AT_name("RSVD55")
    6279                      .dwattr $C$DW$560, DW_AT_TI_symbol_name("_RSVD55")
    6280                      .dwattr $C$DW$560, DW_AT_data_member_location[DW_OP_plus_uconst 0x4026]
    6281                      .dwattr $C$DW$560, DW_AT_accessibility(DW_ACCESS_public)
    6282              $C$DW$561       .dwtag  DW_TAG_member
    6283                      .dwattr $C$DW$561, DW_AT_type(*$C$DW$T$20)
    6284                      .dwattr $C$DW$561, DW_AT_name("FDBSC4")
    6285                      .dwattr $C$DW$561, DW_AT_TI_symbol_name("_FDBSC4")
    6286                      .dwattr $C$DW$561, DW_AT_data_member_location[DW_OP_plus_uconst 0x4028]
    6287                      .dwattr $C$DW$561, DW_AT_accessibility(DW_ACCESS_public)
    6288              $C$DW$562       .dwtag  DW_TAG_member
    6289                      .dwattr $C$DW$562, DW_AT_type(*$C$DW$T$20)
    6290                      .dwattr $C$DW$562, DW_AT_name("FDBSC5")
    6291                      .dwattr $C$DW$562, DW_AT_TI_symbol_name("_FDBSC5")
    6292                      .dwattr $C$DW$562, DW_AT_data_member_location[DW_OP_plus_uconst 0x4029]
    6293                      .dwattr $C$DW$562, DW_AT_accessibility(DW_ACCESS_public)
    6294              $C$DW$563       .dwtag  DW_TAG_member
    6295                      .dwattr $C$DW$563, DW_AT_type(*$C$DW$T$21)
    6296                      .dwattr $C$DW$563, DW_AT_name("RSVD56")
    6297                      .dwattr $C$DW$563, DW_AT_TI_symbol_name("_RSVD56")
    6298                      .dwattr $C$DW$563, DW_AT_data_member_location[DW_OP_plus_uconst 0x402a]
    6299                      .dwattr $C$DW$563, DW_AT_accessibility(DW_ACCESS_public)
    6300              $C$DW$564       .dwtag  DW_TAG_member
    6301                      .dwattr $C$DW$564, DW_AT_type(*$C$DW$T$20)
    6302                      .dwattr $C$DW$564, DW_AT_name("FDBSC6")
    6303                      .dwattr $C$DW$564, DW_AT_TI_symbol_name("_FDBSC6")
    6304                      .dwattr $C$DW$564, DW_AT_data_member_location[DW_OP_plus_uconst 0x402c]
TMS320C55x Assembler PC v4.4.1 Sat Sep 29 23:08:36 2018

Tools Copyright (c) 1996-2012 Texas Instruments Incorporated
csl_usb_intc_example.asm                                             PAGE  151

    6305                      .dwattr $C$DW$564, DW_AT_accessibility(DW_ACCESS_public)
    6306              $C$DW$565       .dwtag  DW_TAG_member
    6307                      .dwattr $C$DW$565, DW_AT_type(*$C$DW$T$20)
    6308                      .dwattr $C$DW$565, DW_AT_name("FDBSC7")
    6309                      .dwattr $C$DW$565, DW_AT_TI_symbol_name("_FDBSC7")
    6310                      .dwattr $C$DW$565, DW_AT_data_member_location[DW_OP_plus_uconst 0x402d]
    6311                      .dwattr $C$DW$565, DW_AT_accessibility(DW_ACCESS_public)
    6312              $C$DW$566       .dwtag  DW_TAG_member
    6313                      .dwattr $C$DW$566, DW_AT_type(*$C$DW$T$54)
    6314                      .dwattr $C$DW$566, DW_AT_name("RSVD57")
    6315                      .dwattr $C$DW$566, DW_AT_TI_symbol_name("_RSVD57")
    6316                      .dwattr $C$DW$566, DW_AT_data_member_location[DW_OP_plus_uconst 0x402e]
    6317                      .dwattr $C$DW$566, DW_AT_accessibility(DW_ACCESS_public)
    6318              $C$DW$567       .dwtag  DW_TAG_member
    6319                      .dwattr $C$DW$567, DW_AT_type(*$C$DW$T$20)
    6320                      .dwattr $C$DW$567, DW_AT_name("LRAM0BASE1")
    6321                      .dwattr $C$DW$567, DW_AT_TI_symbol_name("_LRAM0BASE1")
    6322                      .dwattr $C$DW$567, DW_AT_data_member_location[DW_OP_plus_uconst 0x4080]
    6323                      .dwattr $C$DW$567, DW_AT_accessibility(DW_ACCESS_public)
    6324              $C$DW$568       .dwtag  DW_TAG_member
    6325                      .dwattr $C$DW$568, DW_AT_type(*$C$DW$T$20)
    6326                      .dwattr $C$DW$568, DW_AT_name("LRAM0BASE2")
    6327                      .dwattr $C$DW$568, DW_AT_TI_symbol_name("_LRAM0BASE2")
    6328                      .dwattr $C$DW$568, DW_AT_data_member_location[DW_OP_plus_uconst 0x4081]
    6329                      .dwattr $C$DW$568, DW_AT_accessibility(DW_ACCESS_public)
    6330              $C$DW$569       .dwtag  DW_TAG_member
    6331                      .dwattr $C$DW$569, DW_AT_type(*$C$DW$T$21)
    6332                      .dwattr $C$DW$569, DW_AT_name("RSVD58")
    6333                      .dwattr $C$DW$569, DW_AT_TI_symbol_name("_RSVD58")
    6334                      .dwattr $C$DW$569, DW_AT_data_member_location[DW_OP_plus_uconst 0x4082]
    6335                      .dwattr $C$DW$569, DW_AT_accessibility(DW_ACCESS_public)
    6336              $C$DW$570       .dwtag  DW_TAG_member
    6337                      .dwattr $C$DW$570, DW_AT_type(*$C$DW$T$20)
    6338                      .dwattr $C$DW$570, DW_AT_name("LRAM0SIZE")
    6339                      .dwattr $C$DW$570, DW_AT_TI_symbol_name("_LRAM0SIZE")
    6340                      .dwattr $C$DW$570, DW_AT_data_member_location[DW_OP_plus_uconst 0x4084]
    6341                      .dwattr $C$DW$570, DW_AT_accessibility(DW_ACCESS_public)
    6342              $C$DW$571       .dwtag  DW_TAG_member
    6343                      .dwattr $C$DW$571, DW_AT_type(*$C$DW$T$33)
    6344                      .dwattr $C$DW$571, DW_AT_name("RSVD59")
    6345                      .dwattr $C$DW$571, DW_AT_TI_symbol_name("_RSVD59")
    6346                      .dwattr $C$DW$571, DW_AT_data_member_location[DW_OP_plus_uconst 0x4085]
    6347                      .dwattr $C$DW$571, DW_AT_accessibility(DW_ACCESS_public)
    6348              $C$DW$572       .dwtag  DW_TAG_member
    6349                      .dwattr $C$DW$572, DW_AT_type(*$C$DW$T$20)
    6350                      .dwattr $C$DW$572, DW_AT_name("LRAM1BASE1")
    6351                      .dwattr $C$DW$572, DW_AT_TI_symbol_name("_LRAM1BASE1")
    6352                      .dwattr $C$DW$572, DW_AT_data_member_location[DW_OP_plus_uconst 0x4088]
    6353                      .dwattr $C$DW$572, DW_AT_accessibility(DW_ACCESS_public)
    6354              $C$DW$573       .dwtag  DW_TAG_member
    6355                      .dwattr $C$DW$573, DW_AT_type(*$C$DW$T$20)
    6356                      .dwattr $C$DW$573, DW_AT_name("LRAM1BASE2")
    6357                      .dwattr $C$DW$573, DW_AT_TI_symbol_name("_LRAM1BASE2")
    6358                      .dwattr $C$DW$573, DW_AT_data_member_location[DW_OP_plus_uconst 0x4089]
    6359                      .dwattr $C$DW$573, DW_AT_accessibility(DW_ACCESS_public)
TMS320C55x Assembler PC v4.4.1 Sat Sep 29 23:08:36 2018

Tools Copyright (c) 1996-2012 Texas Instruments Incorporated
csl_usb_intc_example.asm                                             PAGE  152

    6360              $C$DW$574       .dwtag  DW_TAG_member
    6361                      .dwattr $C$DW$574, DW_AT_type(*$C$DW$T$25)
    6362                      .dwattr $C$DW$574, DW_AT_name("RSVD60")
    6363                      .dwattr $C$DW$574, DW_AT_TI_symbol_name("_RSVD60")
    6364                      .dwattr $C$DW$574, DW_AT_data_member_location[DW_OP_plus_uconst 0x408a]
    6365                      .dwattr $C$DW$574, DW_AT_accessibility(DW_ACCESS_public)
    6366              $C$DW$575       .dwtag  DW_TAG_member
    6367                      .dwattr $C$DW$575, DW_AT_type(*$C$DW$T$20)
    6368                      .dwattr $C$DW$575, DW_AT_name("PEND0")
    6369                      .dwattr $C$DW$575, DW_AT_TI_symbol_name("_PEND0")
    6370                      .dwattr $C$DW$575, DW_AT_data_member_location[DW_OP_plus_uconst 0x4090]
    6371                      .dwattr $C$DW$575, DW_AT_accessibility(DW_ACCESS_public)
    6372              $C$DW$576       .dwtag  DW_TAG_member
    6373                      .dwattr $C$DW$576, DW_AT_type(*$C$DW$T$20)
    6374                      .dwattr $C$DW$576, DW_AT_name("PEND1")
    6375                      .dwattr $C$DW$576, DW_AT_TI_symbol_name("_PEND1")
    6376                      .dwattr $C$DW$576, DW_AT_data_member_location[DW_OP_plus_uconst 0x4091]
    6377                      .dwattr $C$DW$576, DW_AT_accessibility(DW_ACCESS_public)
    6378              $C$DW$577       .dwtag  DW_TAG_member
    6379                      .dwattr $C$DW$577, DW_AT_type(*$C$DW$T$21)
    6380                      .dwattr $C$DW$577, DW_AT_name("RSVD61")
    6381                      .dwattr $C$DW$577, DW_AT_TI_symbol_name("_RSVD61")
    6382                      .dwattr $C$DW$577, DW_AT_data_member_location[DW_OP_plus_uconst 0x4092]
    6383                      .dwattr $C$DW$577, DW_AT_accessibility(DW_ACCESS_public)
    6384              $C$DW$578       .dwtag  DW_TAG_member
    6385                      .dwattr $C$DW$578, DW_AT_type(*$C$DW$T$20)
    6386                      .dwattr $C$DW$578, DW_AT_name("PEND2")
    6387                      .dwattr $C$DW$578, DW_AT_TI_symbol_name("_PEND2")
    6388                      .dwattr $C$DW$578, DW_AT_data_member_location[DW_OP_plus_uconst 0x4094]
    6389                      .dwattr $C$DW$578, DW_AT_accessibility(DW_ACCESS_public)
    6390              $C$DW$579       .dwtag  DW_TAG_member
    6391                      .dwattr $C$DW$579, DW_AT_type(*$C$DW$T$20)
    6392                      .dwattr $C$DW$579, DW_AT_name("PEND3")
    6393                      .dwattr $C$DW$579, DW_AT_TI_symbol_name("_PEND3")
    6394                      .dwattr $C$DW$579, DW_AT_data_member_location[DW_OP_plus_uconst 0x4095]
    6395                      .dwattr $C$DW$579, DW_AT_accessibility(DW_ACCESS_public)
    6396              $C$DW$580       .dwtag  DW_TAG_member
    6397                      .dwattr $C$DW$580, DW_AT_type(*$C$DW$T$21)
    6398                      .dwattr $C$DW$580, DW_AT_name("RSVD62")
    6399                      .dwattr $C$DW$580, DW_AT_TI_symbol_name("_RSVD62")
    6400                      .dwattr $C$DW$580, DW_AT_data_member_location[DW_OP_plus_uconst 0x4096]
    6401                      .dwattr $C$DW$580, DW_AT_accessibility(DW_ACCESS_public)
    6402              $C$DW$581       .dwtag  DW_TAG_member
    6403                      .dwattr $C$DW$581, DW_AT_type(*$C$DW$T$20)
    6404                      .dwattr $C$DW$581, DW_AT_name("PEND4")
    6405                      .dwattr $C$DW$581, DW_AT_TI_symbol_name("_PEND4")
    6406                      .dwattr $C$DW$581, DW_AT_data_member_location[DW_OP_plus_uconst 0x4098]
    6407                      .dwattr $C$DW$581, DW_AT_accessibility(DW_ACCESS_public)
    6408              $C$DW$582       .dwtag  DW_TAG_member
    6409                      .dwattr $C$DW$582, DW_AT_type(*$C$DW$T$20)
    6410                      .dwattr $C$DW$582, DW_AT_name("PEND5")
    6411                      .dwattr $C$DW$582, DW_AT_TI_symbol_name("_PEND5")
    6412                      .dwattr $C$DW$582, DW_AT_data_member_location[DW_OP_plus_uconst 0x4099]
    6413                      .dwattr $C$DW$582, DW_AT_accessibility(DW_ACCESS_public)
    6414              $C$DW$583       .dwtag  DW_TAG_member
TMS320C55x Assembler PC v4.4.1 Sat Sep 29 23:08:36 2018

Tools Copyright (c) 1996-2012 Texas Instruments Incorporated
csl_usb_intc_example.asm                                             PAGE  153

    6415                      .dwattr $C$DW$583, DW_AT_type(*$C$DW$T$55)
    6416                      .dwattr $C$DW$583, DW_AT_name("RSVD64")
    6417                      .dwattr $C$DW$583, DW_AT_TI_symbol_name("_RSVD64")
    6418                      .dwattr $C$DW$583, DW_AT_data_member_location[DW_OP_plus_uconst 0x409a]
    6419                      .dwattr $C$DW$583, DW_AT_accessibility(DW_ACCESS_public)
    6420              $C$DW$584       .dwtag  DW_TAG_member
    6421                      .dwattr $C$DW$584, DW_AT_type(*$C$DW$T$57)
    6422                      .dwattr $C$DW$584, DW_AT_name("QMMEMREGR")
    6423                      .dwattr $C$DW$584, DW_AT_TI_symbol_name("_QMMEMREGR")
    6424                      .dwattr $C$DW$584, DW_AT_data_member_location[DW_OP_plus_uconst 0x5000]
    6425                      .dwattr $C$DW$584, DW_AT_accessibility(DW_ACCESS_public)
    6426              $C$DW$585       .dwtag  DW_TAG_member
    6427                      .dwattr $C$DW$585, DW_AT_type(*$C$DW$T$58)
    6428                      .dwattr $C$DW$585, DW_AT_name("RSVD66")
    6429                      .dwattr $C$DW$585, DW_AT_TI_symbol_name("_RSVD66")
    6430                      .dwattr $C$DW$585, DW_AT_data_member_location[DW_OP_plus_uconst 0x5100]
    6431                      .dwattr $C$DW$585, DW_AT_accessibility(DW_ACCESS_public)
    6432              $C$DW$586       .dwtag  DW_TAG_member
    6433                      .dwattr $C$DW$586, DW_AT_type(*$C$DW$T$60)
    6434                      .dwattr $C$DW$586, DW_AT_name("QMQN")
    6435                      .dwattr $C$DW$586, DW_AT_TI_symbol_name("_QMQN")
    6436                      .dwattr $C$DW$586, DW_AT_data_member_location[DW_OP_plus_uconst 0x6000]
    6437                      .dwattr $C$DW$586, DW_AT_accessibility(DW_ACCESS_public)
    6438              $C$DW$587       .dwtag  DW_TAG_member
    6439                      .dwattr $C$DW$587, DW_AT_type(*$C$DW$T$61)
    6440                      .dwattr $C$DW$587, DW_AT_name("RSVD68")
    6441                      .dwattr $C$DW$587, DW_AT_TI_symbol_name("_RSVD68")
    6442                      .dwattr $C$DW$587, DW_AT_data_member_location[DW_OP_plus_uconst 0x6400]
    6443                      .dwattr $C$DW$587, DW_AT_accessibility(DW_ACCESS_public)
    6444              $C$DW$588       .dwtag  DW_TAG_member
    6445                      .dwattr $C$DW$588, DW_AT_type(*$C$DW$T$63)
    6446                      .dwattr $C$DW$588, DW_AT_name("QMQNS")
    6447                      .dwattr $C$DW$588, DW_AT_TI_symbol_name("_QMQNS")
    6448                      .dwattr $C$DW$588, DW_AT_data_member_location[DW_OP_plus_uconst 0x6800]
    6449                      .dwattr $C$DW$588, DW_AT_accessibility(DW_ACCESS_public)
    6450                      .dwendtag $C$DW$T$64
    6451              
    6452              $C$DW$T$133     .dwtag  DW_TAG_typedef, DW_AT_name("CSL_UsbRegs")
    6453                      .dwattr $C$DW$T$133, DW_AT_type(*$C$DW$T$64)
    6454                      .dwattr $C$DW$T$133, DW_AT_language(DW_LANG_C)
    6455              $C$DW$589       .dwtag  DW_TAG_TI_far_type
    6456                      .dwattr $C$DW$589, DW_AT_type(*$C$DW$T$133)
    6457              $C$DW$590       .dwtag  DW_TAG_TI_ioport_type
    6458                      .dwattr $C$DW$590, DW_AT_type(*$C$DW$589)
    6459              $C$DW$T$134     .dwtag  DW_TAG_volatile_type
    6460                      .dwattr $C$DW$T$134, DW_AT_type(*$C$DW$590)
    6461              $C$DW$T$135     .dwtag  DW_TAG_pointer_type
    6462                      .dwattr $C$DW$T$135, DW_AT_type(*$C$DW$T$134)
    6463                      .dwattr $C$DW$T$135, DW_AT_address_class(0x10)
    6464              $C$DW$T$136     .dwtag  DW_TAG_typedef, DW_AT_name("CSL_UsbRegsOvly")
    6465                      .dwattr $C$DW$T$136, DW_AT_type(*$C$DW$T$135)
    6466                      .dwattr $C$DW$T$136, DW_AT_language(DW_LANG_C)
    6467              
    6468              $C$DW$T$66      .dwtag  DW_TAG_structure_type
    6469                      .dwattr $C$DW$T$66, DW_AT_byte_size(0x48)
TMS320C55x Assembler PC v4.4.1 Sat Sep 29 23:08:36 2018

Tools Copyright (c) 1996-2012 Texas Instruments Incorporated
csl_usb_intc_example.asm                                             PAGE  154

    6470              $C$DW$591       .dwtag  DW_TAG_member
    6471                      .dwattr $C$DW$591, DW_AT_type(*$C$DW$T$20)
    6472                      .dwattr $C$DW$591, DW_AT_name("EBSR")
    6473                      .dwattr $C$DW$591, DW_AT_TI_symbol_name("_EBSR")
    6474                      .dwattr $C$DW$591, DW_AT_data_member_location[DW_OP_plus_uconst 0x0]
    6475                      .dwattr $C$DW$591, DW_AT_accessibility(DW_ACCESS_public)
    6476              $C$DW$592       .dwtag  DW_TAG_member
    6477                      .dwattr $C$DW$592, DW_AT_type(*$C$DW$T$20)
    6478                      .dwattr $C$DW$592, DW_AT_name("RSVD0")
    6479                      .dwattr $C$DW$592, DW_AT_TI_symbol_name("_RSVD0")
    6480                      .dwattr $C$DW$592, DW_AT_data_member_location[DW_OP_plus_uconst 0x1]
    6481                      .dwattr $C$DW$592, DW_AT_accessibility(DW_ACCESS_public)
    6482              $C$DW$593       .dwtag  DW_TAG_member
    6483                      .dwattr $C$DW$593, DW_AT_type(*$C$DW$T$20)
    6484                      .dwattr $C$DW$593, DW_AT_name("PCGCR1")
    6485                      .dwattr $C$DW$593, DW_AT_TI_symbol_name("_PCGCR1")
    6486                      .dwattr $C$DW$593, DW_AT_data_member_location[DW_OP_plus_uconst 0x2]
    6487                      .dwattr $C$DW$593, DW_AT_accessibility(DW_ACCESS_public)
    6488              $C$DW$594       .dwtag  DW_TAG_member
    6489                      .dwattr $C$DW$594, DW_AT_type(*$C$DW$T$20)
    6490                      .dwattr $C$DW$594, DW_AT_name("PCGCR2")
    6491                      .dwattr $C$DW$594, DW_AT_TI_symbol_name("_PCGCR2")
    6492                      .dwattr $C$DW$594, DW_AT_data_member_location[DW_OP_plus_uconst 0x3]
    6493                      .dwattr $C$DW$594, DW_AT_accessibility(DW_ACCESS_public)
    6494              $C$DW$595       .dwtag  DW_TAG_member
    6495                      .dwattr $C$DW$595, DW_AT_type(*$C$DW$T$20)
    6496                      .dwattr $C$DW$595, DW_AT_name("PSRCR")
    6497                      .dwattr $C$DW$595, DW_AT_TI_symbol_name("_PSRCR")
    6498                      .dwattr $C$DW$595, DW_AT_data_member_location[DW_OP_plus_uconst 0x4]
    6499                      .dwattr $C$DW$595, DW_AT_accessibility(DW_ACCESS_public)
    6500              $C$DW$596       .dwtag  DW_TAG_member
    6501                      .dwattr $C$DW$596, DW_AT_type(*$C$DW$T$20)
    6502                      .dwattr $C$DW$596, DW_AT_name("PRCR")
    6503                      .dwattr $C$DW$596, DW_AT_TI_symbol_name("_PRCR")
    6504                      .dwattr $C$DW$596, DW_AT_data_member_location[DW_OP_plus_uconst 0x5]
    6505                      .dwattr $C$DW$596, DW_AT_accessibility(DW_ACCESS_public)
    6506              $C$DW$597       .dwtag  DW_TAG_member
    6507                      .dwattr $C$DW$597, DW_AT_type(*$C$DW$T$26)
    6508                      .dwattr $C$DW$597, DW_AT_name("RSVD1")
    6509                      .dwattr $C$DW$597, DW_AT_TI_symbol_name("_RSVD1")
    6510                      .dwattr $C$DW$597, DW_AT_data_member_location[DW_OP_plus_uconst 0x6]
    6511                      .dwattr $C$DW$597, DW_AT_accessibility(DW_ACCESS_public)
    6512              $C$DW$598       .dwtag  DW_TAG_member
    6513                      .dwattr $C$DW$598, DW_AT_type(*$C$DW$T$20)
    6514                      .dwattr $C$DW$598, DW_AT_name("TIAFR")
    6515                      .dwattr $C$DW$598, DW_AT_TI_symbol_name("_TIAFR")
    6516                      .dwattr $C$DW$598, DW_AT_data_member_location[DW_OP_plus_uconst 0x14]
    6517                      .dwattr $C$DW$598, DW_AT_accessibility(DW_ACCESS_public)
    6518              $C$DW$599       .dwtag  DW_TAG_member
    6519                      .dwattr $C$DW$599, DW_AT_type(*$C$DW$T$20)
    6520                      .dwattr $C$DW$599, DW_AT_name("RSVD2")
    6521                      .dwattr $C$DW$599, DW_AT_TI_symbol_name("_RSVD2")
    6522                      .dwattr $C$DW$599, DW_AT_data_member_location[DW_OP_plus_uconst 0x15]
    6523                      .dwattr $C$DW$599, DW_AT_accessibility(DW_ACCESS_public)
    6524              $C$DW$600       .dwtag  DW_TAG_member
TMS320C55x Assembler PC v4.4.1 Sat Sep 29 23:08:36 2018

Tools Copyright (c) 1996-2012 Texas Instruments Incorporated
csl_usb_intc_example.asm                                             PAGE  155

    6525                      .dwattr $C$DW$600, DW_AT_type(*$C$DW$T$20)
    6526                      .dwattr $C$DW$600, DW_AT_name("ODSCR")
    6527                      .dwattr $C$DW$600, DW_AT_TI_symbol_name("_ODSCR")
    6528                      .dwattr $C$DW$600, DW_AT_data_member_location[DW_OP_plus_uconst 0x16]
    6529                      .dwattr $C$DW$600, DW_AT_accessibility(DW_ACCESS_public)
    6530              $C$DW$601       .dwtag  DW_TAG_member
    6531                      .dwattr $C$DW$601, DW_AT_type(*$C$DW$T$20)
    6532                      .dwattr $C$DW$601, DW_AT_name("PDINHIBR1")
    6533                      .dwattr $C$DW$601, DW_AT_TI_symbol_name("_PDINHIBR1")
    6534                      .dwattr $C$DW$601, DW_AT_data_member_location[DW_OP_plus_uconst 0x17]
    6535                      .dwattr $C$DW$601, DW_AT_accessibility(DW_ACCESS_public)
    6536              $C$DW$602       .dwtag  DW_TAG_member
    6537                      .dwattr $C$DW$602, DW_AT_type(*$C$DW$T$20)
    6538                      .dwattr $C$DW$602, DW_AT_name("PDINHIBR2")
    6539                      .dwattr $C$DW$602, DW_AT_TI_symbol_name("_PDINHIBR2")
    6540                      .dwattr $C$DW$602, DW_AT_data_member_location[DW_OP_plus_uconst 0x18]
    6541                      .dwattr $C$DW$602, DW_AT_accessibility(DW_ACCESS_public)
    6542              $C$DW$603       .dwtag  DW_TAG_member
    6543                      .dwattr $C$DW$603, DW_AT_type(*$C$DW$T$20)
    6544                      .dwattr $C$DW$603, DW_AT_name("PDINHIBR3")
    6545                      .dwattr $C$DW$603, DW_AT_TI_symbol_name("_PDINHIBR3")
    6546                      .dwattr $C$DW$603, DW_AT_data_member_location[DW_OP_plus_uconst 0x19]
    6547                      .dwattr $C$DW$603, DW_AT_accessibility(DW_ACCESS_public)
    6548              $C$DW$604       .dwtag  DW_TAG_member
    6549                      .dwattr $C$DW$604, DW_AT_type(*$C$DW$T$20)
    6550                      .dwattr $C$DW$604, DW_AT_name("DMA0CESR1")
    6551                      .dwattr $C$DW$604, DW_AT_TI_symbol_name("_DMA0CESR1")
    6552                      .dwattr $C$DW$604, DW_AT_data_member_location[DW_OP_plus_uconst 0x1a]
    6553                      .dwattr $C$DW$604, DW_AT_accessibility(DW_ACCESS_public)
    6554              $C$DW$605       .dwtag  DW_TAG_member
    6555                      .dwattr $C$DW$605, DW_AT_type(*$C$DW$T$20)
    6556                      .dwattr $C$DW$605, DW_AT_name("DMA0CESR2")
    6557                      .dwattr $C$DW$605, DW_AT_TI_symbol_name("_DMA0CESR2")
    6558                      .dwattr $C$DW$605, DW_AT_data_member_location[DW_OP_plus_uconst 0x1b]
    6559                      .dwattr $C$DW$605, DW_AT_accessibility(DW_ACCESS_public)
    6560              $C$DW$606       .dwtag  DW_TAG_member
    6561                      .dwattr $C$DW$606, DW_AT_type(*$C$DW$T$20)
    6562                      .dwattr $C$DW$606, DW_AT_name("DMA1CESR1")
    6563                      .dwattr $C$DW$606, DW_AT_TI_symbol_name("_DMA1CESR1")
    6564                      .dwattr $C$DW$606, DW_AT_data_member_location[DW_OP_plus_uconst 0x1c]
    6565                      .dwattr $C$DW$606, DW_AT_accessibility(DW_ACCESS_public)
    6566              $C$DW$607       .dwtag  DW_TAG_member
    6567                      .dwattr $C$DW$607, DW_AT_type(*$C$DW$T$20)
    6568                      .dwattr $C$DW$607, DW_AT_name("DMA1CESR2")
    6569                      .dwattr $C$DW$607, DW_AT_TI_symbol_name("_DMA1CESR2")
    6570                      .dwattr $C$DW$607, DW_AT_data_member_location[DW_OP_plus_uconst 0x1d]
    6571                      .dwattr $C$DW$607, DW_AT_accessibility(DW_ACCESS_public)
    6572              $C$DW$608       .dwtag  DW_TAG_member
    6573                      .dwattr $C$DW$608, DW_AT_type(*$C$DW$T$20)
    6574                      .dwattr $C$DW$608, DW_AT_name("SDRAMCCR")
    6575                      .dwattr $C$DW$608, DW_AT_TI_symbol_name("_SDRAMCCR")
    6576                      .dwattr $C$DW$608, DW_AT_data_member_location[DW_OP_plus_uconst 0x1e]
    6577                      .dwattr $C$DW$608, DW_AT_accessibility(DW_ACCESS_public)
    6578              $C$DW$609       .dwtag  DW_TAG_member
    6579                      .dwattr $C$DW$609, DW_AT_type(*$C$DW$T$20)
TMS320C55x Assembler PC v4.4.1 Sat Sep 29 23:08:36 2018

Tools Copyright (c) 1996-2012 Texas Instruments Incorporated
csl_usb_intc_example.asm                                             PAGE  156

    6580                      .dwattr $C$DW$609, DW_AT_name("CCR2")
    6581                      .dwattr $C$DW$609, DW_AT_TI_symbol_name("_CCR2")
    6582                      .dwattr $C$DW$609, DW_AT_data_member_location[DW_OP_plus_uconst 0x1f]
    6583                      .dwattr $C$DW$609, DW_AT_accessibility(DW_ACCESS_public)
    6584              $C$DW$610       .dwtag  DW_TAG_member
    6585                      .dwattr $C$DW$610, DW_AT_type(*$C$DW$T$20)
    6586                      .dwattr $C$DW$610, DW_AT_name("CGCR1")
    6587                      .dwattr $C$DW$610, DW_AT_TI_symbol_name("_CGCR1")
    6588                      .dwattr $C$DW$610, DW_AT_data_member_location[DW_OP_plus_uconst 0x20]
    6589                      .dwattr $C$DW$610, DW_AT_accessibility(DW_ACCESS_public)
    6590              $C$DW$611       .dwtag  DW_TAG_member
    6591                      .dwattr $C$DW$611, DW_AT_type(*$C$DW$T$20)
    6592                      .dwattr $C$DW$611, DW_AT_name("CGICR")
    6593                      .dwattr $C$DW$611, DW_AT_TI_symbol_name("_CGICR")
    6594                      .dwattr $C$DW$611, DW_AT_data_member_location[DW_OP_plus_uconst 0x21]
    6595                      .dwattr $C$DW$611, DW_AT_accessibility(DW_ACCESS_public)
    6596              $C$DW$612       .dwtag  DW_TAG_member
    6597                      .dwattr $C$DW$612, DW_AT_type(*$C$DW$T$20)
    6598                      .dwattr $C$DW$612, DW_AT_name("CGCR2")
    6599                      .dwattr $C$DW$612, DW_AT_TI_symbol_name("_CGCR2")
    6600                      .dwattr $C$DW$612, DW_AT_data_member_location[DW_OP_plus_uconst 0x22]
    6601                      .dwattr $C$DW$612, DW_AT_accessibility(DW_ACCESS_public)
    6602              $C$DW$613       .dwtag  DW_TAG_member
    6603                      .dwattr $C$DW$613, DW_AT_type(*$C$DW$T$20)
    6604                      .dwattr $C$DW$613, DW_AT_name("CGOCR")
    6605                      .dwattr $C$DW$613, DW_AT_TI_symbol_name("_CGOCR")
    6606                      .dwattr $C$DW$613, DW_AT_data_member_location[DW_OP_plus_uconst 0x23]
    6607                      .dwattr $C$DW$613, DW_AT_accessibility(DW_ACCESS_public)
    6608              $C$DW$614       .dwtag  DW_TAG_member
    6609                      .dwattr $C$DW$614, DW_AT_type(*$C$DW$T$20)
    6610                      .dwattr $C$DW$614, DW_AT_name("CCSSR")
    6611                      .dwattr $C$DW$614, DW_AT_TI_symbol_name("_CCSSR")
    6612                      .dwattr $C$DW$614, DW_AT_data_member_location[DW_OP_plus_uconst 0x24]
    6613                      .dwattr $C$DW$614, DW_AT_accessibility(DW_ACCESS_public)
    6614              $C$DW$615       .dwtag  DW_TAG_member
    6615                      .dwattr $C$DW$615, DW_AT_type(*$C$DW$T$20)
    6616                      .dwattr $C$DW$615, DW_AT_name("RSVD3")
    6617                      .dwattr $C$DW$615, DW_AT_TI_symbol_name("_RSVD3")
    6618                      .dwattr $C$DW$615, DW_AT_data_member_location[DW_OP_plus_uconst 0x25]
    6619                      .dwattr $C$DW$615, DW_AT_accessibility(DW_ACCESS_public)
    6620              $C$DW$616       .dwtag  DW_TAG_member
    6621                      .dwattr $C$DW$616, DW_AT_type(*$C$DW$T$20)
    6622                      .dwattr $C$DW$616, DW_AT_name("ECDR")
    6623                      .dwattr $C$DW$616, DW_AT_TI_symbol_name("_ECDR")
    6624                      .dwattr $C$DW$616, DW_AT_data_member_location[DW_OP_plus_uconst 0x26]
    6625                      .dwattr $C$DW$616, DW_AT_accessibility(DW_ACCESS_public)
    6626              $C$DW$617       .dwtag  DW_TAG_member
    6627                      .dwattr $C$DW$617, DW_AT_type(*$C$DW$T$20)
    6628                      .dwattr $C$DW$617, DW_AT_name("RSVD4")
    6629                      .dwattr $C$DW$617, DW_AT_TI_symbol_name("_RSVD4")
    6630                      .dwattr $C$DW$617, DW_AT_data_member_location[DW_OP_plus_uconst 0x27]
    6631                      .dwattr $C$DW$617, DW_AT_accessibility(DW_ACCESS_public)
    6632              $C$DW$618       .dwtag  DW_TAG_member
    6633                      .dwattr $C$DW$618, DW_AT_type(*$C$DW$T$20)
    6634                      .dwattr $C$DW$618, DW_AT_name("RAMSLPMDCNTLR1")
TMS320C55x Assembler PC v4.4.1 Sat Sep 29 23:08:36 2018

Tools Copyright (c) 1996-2012 Texas Instruments Incorporated
csl_usb_intc_example.asm                                             PAGE  157

    6635                      .dwattr $C$DW$618, DW_AT_TI_symbol_name("_RAMSLPMDCNTLR1")
    6636                      .dwattr $C$DW$618, DW_AT_data_member_location[DW_OP_plus_uconst 0x28]
    6637                      .dwattr $C$DW$618, DW_AT_accessibility(DW_ACCESS_public)
    6638              $C$DW$619       .dwtag  DW_TAG_member
    6639                      .dwattr $C$DW$619, DW_AT_type(*$C$DW$T$20)
    6640                      .dwattr $C$DW$619, DW_AT_name("RSVD5")
    6641                      .dwattr $C$DW$619, DW_AT_TI_symbol_name("_RSVD5")
    6642                      .dwattr $C$DW$619, DW_AT_data_member_location[DW_OP_plus_uconst 0x29]
    6643                      .dwattr $C$DW$619, DW_AT_accessibility(DW_ACCESS_public)
    6644              $C$DW$620       .dwtag  DW_TAG_member
    6645                      .dwattr $C$DW$620, DW_AT_type(*$C$DW$T$20)
    6646                      .dwattr $C$DW$620, DW_AT_name("RAMSLPMDCNTLR2")
    6647                      .dwattr $C$DW$620, DW_AT_TI_symbol_name("_RAMSLPMDCNTLR2")
    6648                      .dwattr $C$DW$620, DW_AT_data_member_location[DW_OP_plus_uconst 0x2a]
    6649                      .dwattr $C$DW$620, DW_AT_accessibility(DW_ACCESS_public)
    6650              $C$DW$621       .dwtag  DW_TAG_member
    6651                      .dwattr $C$DW$621, DW_AT_type(*$C$DW$T$20)
    6652                      .dwattr $C$DW$621, DW_AT_name("RAMSLPMDCNTLR3")
    6653                      .dwattr $C$DW$621, DW_AT_TI_symbol_name("_RAMSLPMDCNTLR3")
    6654                      .dwattr $C$DW$621, DW_AT_data_member_location[DW_OP_plus_uconst 0x2b]
    6655                      .dwattr $C$DW$621, DW_AT_accessibility(DW_ACCESS_public)
    6656              $C$DW$622       .dwtag  DW_TAG_member
    6657                      .dwattr $C$DW$622, DW_AT_type(*$C$DW$T$20)
    6658                      .dwattr $C$DW$622, DW_AT_name("RAMSLPMDCNTLR4")
    6659                      .dwattr $C$DW$622, DW_AT_TI_symbol_name("_RAMSLPMDCNTLR4")
    6660                      .dwattr $C$DW$622, DW_AT_data_member_location[DW_OP_plus_uconst 0x2c]
    6661                      .dwattr $C$DW$622, DW_AT_accessibility(DW_ACCESS_public)
    6662              $C$DW$623       .dwtag  DW_TAG_member
    6663                      .dwattr $C$DW$623, DW_AT_type(*$C$DW$T$20)
    6664                      .dwattr $C$DW$623, DW_AT_name("RAMSLPMDCNTLR5")
    6665                      .dwattr $C$DW$623, DW_AT_TI_symbol_name("_RAMSLPMDCNTLR5")
    6666                      .dwattr $C$DW$623, DW_AT_data_member_location[DW_OP_plus_uconst 0x2d]
    6667                      .dwattr $C$DW$623, DW_AT_accessibility(DW_ACCESS_public)
    6668              $C$DW$624       .dwtag  DW_TAG_member
    6669                      .dwattr $C$DW$624, DW_AT_type(*$C$DW$T$21)
    6670                      .dwattr $C$DW$624, DW_AT_name("RSVD6")
    6671                      .dwattr $C$DW$624, DW_AT_TI_symbol_name("_RSVD6")
    6672                      .dwattr $C$DW$624, DW_AT_data_member_location[DW_OP_plus_uconst 0x2e]
    6673                      .dwattr $C$DW$624, DW_AT_accessibility(DW_ACCESS_public)
    6674              $C$DW$625       .dwtag  DW_TAG_member
    6675                      .dwattr $C$DW$625, DW_AT_type(*$C$DW$T$20)
    6676                      .dwattr $C$DW$625, DW_AT_name("DMAIFR")
    6677                      .dwattr $C$DW$625, DW_AT_TI_symbol_name("_DMAIFR")
    6678                      .dwattr $C$DW$625, DW_AT_data_member_location[DW_OP_plus_uconst 0x30]
    6679                      .dwattr $C$DW$625, DW_AT_accessibility(DW_ACCESS_public)
    6680              $C$DW$626       .dwtag  DW_TAG_member
    6681                      .dwattr $C$DW$626, DW_AT_type(*$C$DW$T$20)
    6682                      .dwattr $C$DW$626, DW_AT_name("DMAIER")
    6683                      .dwattr $C$DW$626, DW_AT_TI_symbol_name("_DMAIER")
    6684                      .dwattr $C$DW$626, DW_AT_data_member_location[DW_OP_plus_uconst 0x31]
    6685                      .dwattr $C$DW$626, DW_AT_accessibility(DW_ACCESS_public)
    6686              $C$DW$627       .dwtag  DW_TAG_member
    6687                      .dwattr $C$DW$627, DW_AT_type(*$C$DW$T$20)
    6688                      .dwattr $C$DW$627, DW_AT_name("USBSCR")
    6689                      .dwattr $C$DW$627, DW_AT_TI_symbol_name("_USBSCR")
TMS320C55x Assembler PC v4.4.1 Sat Sep 29 23:08:36 2018

Tools Copyright (c) 1996-2012 Texas Instruments Incorporated
csl_usb_intc_example.asm                                             PAGE  158

    6690                      .dwattr $C$DW$627, DW_AT_data_member_location[DW_OP_plus_uconst 0x32]
    6691                      .dwattr $C$DW$627, DW_AT_accessibility(DW_ACCESS_public)
    6692              $C$DW$628       .dwtag  DW_TAG_member
    6693                      .dwattr $C$DW$628, DW_AT_type(*$C$DW$T$20)
    6694                      .dwattr $C$DW$628, DW_AT_name("ESCR")
    6695                      .dwattr $C$DW$628, DW_AT_TI_symbol_name("_ESCR")
    6696                      .dwattr $C$DW$628, DW_AT_data_member_location[DW_OP_plus_uconst 0x33]
    6697                      .dwattr $C$DW$628, DW_AT_accessibility(DW_ACCESS_public)
    6698              $C$DW$629       .dwtag  DW_TAG_member
    6699                      .dwattr $C$DW$629, DW_AT_type(*$C$DW$T$21)
    6700                      .dwattr $C$DW$629, DW_AT_name("RSVD7")
    6701                      .dwattr $C$DW$629, DW_AT_TI_symbol_name("_RSVD7")
    6702                      .dwattr $C$DW$629, DW_AT_data_member_location[DW_OP_plus_uconst 0x34]
    6703                      .dwattr $C$DW$629, DW_AT_accessibility(DW_ACCESS_public)
    6704              $C$DW$630       .dwtag  DW_TAG_member
    6705                      .dwattr $C$DW$630, DW_AT_type(*$C$DW$T$20)
    6706                      .dwattr $C$DW$630, DW_AT_name("DMA2CESR1")
    6707                      .dwattr $C$DW$630, DW_AT_TI_symbol_name("_DMA2CESR1")
    6708                      .dwattr $C$DW$630, DW_AT_data_member_location[DW_OP_plus_uconst 0x36]
    6709                      .dwattr $C$DW$630, DW_AT_accessibility(DW_ACCESS_public)
    6710              $C$DW$631       .dwtag  DW_TAG_member
    6711                      .dwattr $C$DW$631, DW_AT_type(*$C$DW$T$20)
    6712                      .dwattr $C$DW$631, DW_AT_name("DMA2CESR2")
    6713                      .dwattr $C$DW$631, DW_AT_TI_symbol_name("_DMA2CESR2")
    6714                      .dwattr $C$DW$631, DW_AT_data_member_location[DW_OP_plus_uconst 0x37]
    6715                      .dwattr $C$DW$631, DW_AT_accessibility(DW_ACCESS_public)
    6716              $C$DW$632       .dwtag  DW_TAG_member
    6717                      .dwattr $C$DW$632, DW_AT_type(*$C$DW$T$20)
    6718                      .dwattr $C$DW$632, DW_AT_name("DMA3CESR1")
    6719                      .dwattr $C$DW$632, DW_AT_TI_symbol_name("_DMA3CESR1")
    6720                      .dwattr $C$DW$632, DW_AT_data_member_location[DW_OP_plus_uconst 0x38]
    6721                      .dwattr $C$DW$632, DW_AT_accessibility(DW_ACCESS_public)
    6722              $C$DW$633       .dwtag  DW_TAG_member
    6723                      .dwattr $C$DW$633, DW_AT_type(*$C$DW$T$20)
    6724                      .dwattr $C$DW$633, DW_AT_name("DMA3CESR2")
    6725                      .dwattr $C$DW$633, DW_AT_TI_symbol_name("_DMA3CESR2")
    6726                      .dwattr $C$DW$633, DW_AT_data_member_location[DW_OP_plus_uconst 0x39]
    6727                      .dwattr $C$DW$633, DW_AT_accessibility(DW_ACCESS_public)
    6728              $C$DW$634       .dwtag  DW_TAG_member
    6729                      .dwattr $C$DW$634, DW_AT_type(*$C$DW$T$20)
    6730                      .dwattr $C$DW$634, DW_AT_name("CLKSTOP")
    6731                      .dwattr $C$DW$634, DW_AT_TI_symbol_name("_CLKSTOP")
    6732                      .dwattr $C$DW$634, DW_AT_data_member_location[DW_OP_plus_uconst 0x3a]
    6733                      .dwattr $C$DW$634, DW_AT_accessibility(DW_ACCESS_public)
    6734              $C$DW$635       .dwtag  DW_TAG_member
    6735                      .dwattr $C$DW$635, DW_AT_type(*$C$DW$T$65)
    6736                      .dwattr $C$DW$635, DW_AT_name("RSVD8")
    6737                      .dwattr $C$DW$635, DW_AT_TI_symbol_name("_RSVD8")
    6738                      .dwattr $C$DW$635, DW_AT_data_member_location[DW_OP_plus_uconst 0x3b]
    6739                      .dwattr $C$DW$635, DW_AT_accessibility(DW_ACCESS_public)
    6740              $C$DW$636       .dwtag  DW_TAG_member
    6741                      .dwattr $C$DW$636, DW_AT_type(*$C$DW$T$20)
    6742                      .dwattr $C$DW$636, DW_AT_name("DIEIDR0")
    6743                      .dwattr $C$DW$636, DW_AT_TI_symbol_name("_DIEIDR0")
    6744                      .dwattr $C$DW$636, DW_AT_data_member_location[DW_OP_plus_uconst 0x40]
TMS320C55x Assembler PC v4.4.1 Sat Sep 29 23:08:36 2018

Tools Copyright (c) 1996-2012 Texas Instruments Incorporated
csl_usb_intc_example.asm                                             PAGE  159

    6745                      .dwattr $C$DW$636, DW_AT_accessibility(DW_ACCESS_public)
    6746              $C$DW$637       .dwtag  DW_TAG_member
    6747                      .dwattr $C$DW$637, DW_AT_type(*$C$DW$T$20)
    6748                      .dwattr $C$DW$637, DW_AT_name("DIEIDR1")
    6749                      .dwattr $C$DW$637, DW_AT_TI_symbol_name("_DIEIDR1")
    6750                      .dwattr $C$DW$637, DW_AT_data_member_location[DW_OP_plus_uconst 0x41]
    6751                      .dwattr $C$DW$637, DW_AT_accessibility(DW_ACCESS_public)
    6752              $C$DW$638       .dwtag  DW_TAG_member
    6753                      .dwattr $C$DW$638, DW_AT_type(*$C$DW$T$20)
    6754                      .dwattr $C$DW$638, DW_AT_name("DIEIDR2")
    6755                      .dwattr $C$DW$638, DW_AT_TI_symbol_name("_DIEIDR2")
    6756                      .dwattr $C$DW$638, DW_AT_data_member_location[DW_OP_plus_uconst 0x42]
    6757                      .dwattr $C$DW$638, DW_AT_accessibility(DW_ACCESS_public)
    6758              $C$DW$639       .dwtag  DW_TAG_member
    6759                      .dwattr $C$DW$639, DW_AT_type(*$C$DW$T$20)
    6760                      .dwattr $C$DW$639, DW_AT_name("DIEIDR3")
    6761                      .dwattr $C$DW$639, DW_AT_TI_symbol_name("_DIEIDR3")
    6762                      .dwattr $C$DW$639, DW_AT_data_member_location[DW_OP_plus_uconst 0x43]
    6763                      .dwattr $C$DW$639, DW_AT_accessibility(DW_ACCESS_public)
    6764              $C$DW$640       .dwtag  DW_TAG_member
    6765                      .dwattr $C$DW$640, DW_AT_type(*$C$DW$T$20)
    6766                      .dwattr $C$DW$640, DW_AT_name("DIEIDR4")
    6767                      .dwattr $C$DW$640, DW_AT_TI_symbol_name("_DIEIDR4")
    6768                      .dwattr $C$DW$640, DW_AT_data_member_location[DW_OP_plus_uconst 0x44]
    6769                      .dwattr $C$DW$640, DW_AT_accessibility(DW_ACCESS_public)
    6770              $C$DW$641       .dwtag  DW_TAG_member
    6771                      .dwattr $C$DW$641, DW_AT_type(*$C$DW$T$20)
    6772                      .dwattr $C$DW$641, DW_AT_name("DIEIDR5")
    6773                      .dwattr $C$DW$641, DW_AT_TI_symbol_name("_DIEIDR5")
    6774                      .dwattr $C$DW$641, DW_AT_data_member_location[DW_OP_plus_uconst 0x45]
    6775                      .dwattr $C$DW$641, DW_AT_accessibility(DW_ACCESS_public)
    6776              $C$DW$642       .dwtag  DW_TAG_member
    6777                      .dwattr $C$DW$642, DW_AT_type(*$C$DW$T$20)
    6778                      .dwattr $C$DW$642, DW_AT_name("DIEIDR6")
    6779                      .dwattr $C$DW$642, DW_AT_TI_symbol_name("_DIEIDR6")
    6780                      .dwattr $C$DW$642, DW_AT_data_member_location[DW_OP_plus_uconst 0x46]
    6781                      .dwattr $C$DW$642, DW_AT_accessibility(DW_ACCESS_public)
    6782              $C$DW$643       .dwtag  DW_TAG_member
    6783                      .dwattr $C$DW$643, DW_AT_type(*$C$DW$T$20)
    6784                      .dwattr $C$DW$643, DW_AT_name("DIEIDR7")
    6785                      .dwattr $C$DW$643, DW_AT_TI_symbol_name("_DIEIDR7")
    6786                      .dwattr $C$DW$643, DW_AT_data_member_location[DW_OP_plus_uconst 0x47]
    6787                      .dwattr $C$DW$643, DW_AT_accessibility(DW_ACCESS_public)
    6788                      .dwendtag $C$DW$T$66
    6789              
    6790              $C$DW$T$137     .dwtag  DW_TAG_typedef, DW_AT_name("CSL_SysRegs")
    6791                      .dwattr $C$DW$T$137, DW_AT_type(*$C$DW$T$66)
    6792                      .dwattr $C$DW$T$137, DW_AT_language(DW_LANG_C)
    6793              $C$DW$644       .dwtag  DW_TAG_TI_far_type
    6794                      .dwattr $C$DW$644, DW_AT_type(*$C$DW$T$137)
    6795              $C$DW$645       .dwtag  DW_TAG_TI_ioport_type
    6796                      .dwattr $C$DW$645, DW_AT_type(*$C$DW$644)
    6797              $C$DW$T$138     .dwtag  DW_TAG_volatile_type
    6798                      .dwattr $C$DW$T$138, DW_AT_type(*$C$DW$645)
    6799              $C$DW$T$139     .dwtag  DW_TAG_pointer_type
TMS320C55x Assembler PC v4.4.1 Sat Sep 29 23:08:36 2018

Tools Copyright (c) 1996-2012 Texas Instruments Incorporated
csl_usb_intc_example.asm                                             PAGE  160

    6800                      .dwattr $C$DW$T$139, DW_AT_type(*$C$DW$T$138)
    6801                      .dwattr $C$DW$T$139, DW_AT_address_class(0x10)
    6802              $C$DW$T$140     .dwtag  DW_TAG_typedef, DW_AT_name("CSL_SysRegsOvly")
    6803                      .dwattr $C$DW$T$140, DW_AT_type(*$C$DW$T$139)
    6804                      .dwattr $C$DW$T$140, DW_AT_language(DW_LANG_C)
    6805              
    6806              $C$DW$T$71      .dwtag  DW_TAG_structure_type
    6807                      .dwattr $C$DW$T$71, DW_AT_byte_size(0x08)
    6808              $C$DW$646       .dwtag  DW_TAG_member
    6809                      .dwattr $C$DW$646, DW_AT_type(*$C$DW$T$69)
    6810                      .dwattr $C$DW$646, DW_AT_name("funcAddr")
    6811                      .dwattr $C$DW$646, DW_AT_TI_symbol_name("_funcAddr")
    6812                      .dwattr $C$DW$646, DW_AT_data_member_location[DW_OP_plus_uconst 0x0]
    6813                      .dwattr $C$DW$646, DW_AT_accessibility(DW_ACCESS_public)
    6814              $C$DW$647       .dwtag  DW_TAG_member
    6815                      .dwattr $C$DW$647, DW_AT_type(*$C$DW$T$70)
    6816                      .dwattr $C$DW$647, DW_AT_name("funcArg")
    6817                      .dwattr $C$DW$647, DW_AT_TI_symbol_name("_funcArg")
    6818                      .dwattr $C$DW$647, DW_AT_data_member_location[DW_OP_plus_uconst 0x2]
    6819                      .dwattr $C$DW$647, DW_AT_accessibility(DW_ACCESS_public)
    6820              $C$DW$648       .dwtag  DW_TAG_member
    6821                      .dwattr $C$DW$648, DW_AT_type(*$C$DW$T$70)
    6822                      .dwattr $C$DW$648, DW_AT_name("ierMask")
    6823                      .dwattr $C$DW$648, DW_AT_TI_symbol_name("_ierMask")
    6824                      .dwattr $C$DW$648, DW_AT_data_member_location[DW_OP_plus_uconst 0x4]
    6825                      .dwattr $C$DW$648, DW_AT_accessibility(DW_ACCESS_public)
    6826              $C$DW$649       .dwtag  DW_TAG_member
    6827                      .dwattr $C$DW$649, DW_AT_type(*$C$DW$T$70)
    6828                      .dwattr $C$DW$649, DW_AT_name("cacheCtrl")
    6829                      .dwattr $C$DW$649, DW_AT_TI_symbol_name("_cacheCtrl")
    6830                      .dwattr $C$DW$649, DW_AT_data_member_location[DW_OP_plus_uconst 0x6]
    6831                      .dwattr $C$DW$649, DW_AT_accessibility(DW_ACCESS_public)
    6832                      .dwendtag $C$DW$T$71
    6833              
    6834              $C$DW$T$141     .dwtag  DW_TAG_typedef, DW_AT_name("CSL_IRQ_Config")
    6835                      .dwattr $C$DW$T$141, DW_AT_type(*$C$DW$T$71)
    6836                      .dwattr $C$DW$T$141, DW_AT_language(DW_LANG_C)
    6837              
    6838              $C$DW$T$84      .dwtag  DW_TAG_structure_type
    6839                      .dwattr $C$DW$T$84, DW_AT_name("CSL_UsbConfig")
    6840                      .dwattr $C$DW$T$84, DW_AT_byte_size(0x0c)
    6841              $C$DW$650       .dwtag  DW_TAG_member
    6842                      .dwattr $C$DW$650, DW_AT_type(*$C$DW$T$73)
    6843                      .dwattr $C$DW$650, DW_AT_name("devNum")
    6844                      .dwattr $C$DW$650, DW_AT_TI_symbol_name("_devNum")
    6845                      .dwattr $C$DW$650, DW_AT_data_member_location[DW_OP_plus_uconst 0x0]
    6846                      .dwattr $C$DW$650, DW_AT_accessibility(DW_ACCESS_public)
    6847              $C$DW$651       .dwtag  DW_TAG_member
    6848                      .dwattr $C$DW$651, DW_AT_type(*$C$DW$T$75)
    6849                      .dwattr $C$DW$651, DW_AT_name("opMode")
    6850                      .dwattr $C$DW$651, DW_AT_TI_symbol_name("_opMode")
    6851                      .dwattr $C$DW$651, DW_AT_data_member_location[DW_OP_plus_uconst 0x1]
    6852                      .dwattr $C$DW$651, DW_AT_accessibility(DW_ACCESS_public)
    6853              $C$DW$652       .dwtag  DW_TAG_member
    6854                      .dwattr $C$DW$652, DW_AT_type(*$C$DW$T$19)
TMS320C55x Assembler PC v4.4.1 Sat Sep 29 23:08:36 2018

Tools Copyright (c) 1996-2012 Texas Instruments Incorporated
csl_usb_intc_example.asm                                             PAGE  161

    6855                      .dwattr $C$DW$652, DW_AT_name("maxCurrent")
    6856                      .dwattr $C$DW$652, DW_AT_TI_symbol_name("_maxCurrent")
    6857                      .dwattr $C$DW$652, DW_AT_data_member_location[DW_OP_plus_uconst 0x2]
    6858                      .dwattr $C$DW$652, DW_AT_accessibility(DW_ACCESS_public)
    6859              $C$DW$653       .dwtag  DW_TAG_member
    6860                      .dwattr $C$DW$653, DW_AT_type(*$C$DW$T$78)
    6861                      .dwattr $C$DW$653, DW_AT_name("appSuspendCallBack")
    6862                      .dwattr $C$DW$653, DW_AT_TI_symbol_name("_appSuspendCallBack")
    6863                      .dwattr $C$DW$653, DW_AT_data_member_location[DW_OP_plus_uconst 0x4]
    6864                      .dwattr $C$DW$653, DW_AT_accessibility(DW_ACCESS_public)
    6865              $C$DW$654       .dwtag  DW_TAG_member
    6866                      .dwattr $C$DW$654, DW_AT_type(*$C$DW$T$78)
    6867                      .dwattr $C$DW$654, DW_AT_name("appWakeupCallBack")
    6868                      .dwattr $C$DW$654, DW_AT_TI_symbol_name("_appWakeupCallBack")
    6869                      .dwattr $C$DW$654, DW_AT_data_member_location[DW_OP_plus_uconst 0x6]
    6870                      .dwattr $C$DW$654, DW_AT_accessibility(DW_ACCESS_public)
    6871              $C$DW$655       .dwtag  DW_TAG_member
    6872                      .dwattr $C$DW$655, DW_AT_type(*$C$DW$T$83)
    6873                      .dwattr $C$DW$655, DW_AT_name("startTransferCallback")
    6874                      .dwattr $C$DW$655, DW_AT_TI_symbol_name("_startTransferCallback")
    6875                      .dwattr $C$DW$655, DW_AT_data_member_location[DW_OP_plus_uconst 0x8]
    6876                      .dwattr $C$DW$655, DW_AT_accessibility(DW_ACCESS_public)
    6877              $C$DW$656       .dwtag  DW_TAG_member
    6878                      .dwattr $C$DW$656, DW_AT_type(*$C$DW$T$83)
    6879                      .dwattr $C$DW$656, DW_AT_name("completeTransferCallback")
    6880                      .dwattr $C$DW$656, DW_AT_TI_symbol_name("_completeTransferCallback")
    6881                      .dwattr $C$DW$656, DW_AT_data_member_location[DW_OP_plus_uconst 0xa]
    6882                      .dwattr $C$DW$656, DW_AT_accessibility(DW_ACCESS_public)
    6883                      .dwendtag $C$DW$T$84
    6884              
    6885              $C$DW$T$142     .dwtag  DW_TAG_typedef, DW_AT_name("CSL_UsbConfig")
    6886                      .dwattr $C$DW$T$142, DW_AT_type(*$C$DW$T$84)
    6887                      .dwattr $C$DW$T$142, DW_AT_language(DW_LANG_C)
    6888              $C$DW$T$143     .dwtag  DW_TAG_pointer_type
    6889                      .dwattr $C$DW$T$143, DW_AT_type(*$C$DW$T$142)
    6890                      .dwattr $C$DW$T$143, DW_AT_address_class(0x17)
    6891              
    6892              $C$DW$T$108     .dwtag  DW_TAG_structure_type
    6893                      .dwattr $C$DW$T$108, DW_AT_name("CSL_UsbContext")
    6894                      .dwattr $C$DW$T$108, DW_AT_byte_size(0xc8)
    6895              $C$DW$657       .dwtag  DW_TAG_member
    6896                      .dwattr $C$DW$657, DW_AT_type(*$C$DW$T$75)
    6897                      .dwattr $C$DW$657, DW_AT_name("opMode")
    6898                      .dwattr $C$DW$657, DW_AT_TI_symbol_name("_opMode")
    6899                      .dwattr $C$DW$657, DW_AT_data_member_location[DW_OP_plus_uconst 0x0]
    6900                      .dwattr $C$DW$657, DW_AT_accessibility(DW_ACCESS_public)
    6901              $C$DW$658       .dwtag  DW_TAG_member
    6902                      .dwattr $C$DW$658, DW_AT_type(*$C$DW$T$85)
    6903                      .dwattr $C$DW$658, DW_AT_name("maxCurrent")
    6904                      .dwattr $C$DW$658, DW_AT_TI_symbol_name("_maxCurrent")
    6905                      .dwattr $C$DW$658, DW_AT_data_member_location[DW_OP_plus_uconst 0x1]
    6906                      .dwattr $C$DW$658, DW_AT_accessibility(DW_ACCESS_public)
    6907              $C$DW$659       .dwtag  DW_TAG_member
    6908                      .dwattr $C$DW$659, DW_AT_type(*$C$DW$T$86)
    6909                      .dwattr $C$DW$659, DW_AT_name("fInitialized")
TMS320C55x Assembler PC v4.4.1 Sat Sep 29 23:08:36 2018

Tools Copyright (c) 1996-2012 Texas Instruments Incorporated
csl_usb_intc_example.asm                                             PAGE  162

    6910                      .dwattr $C$DW$659, DW_AT_TI_symbol_name("_fInitialized")
    6911                      .dwattr $C$DW$659, DW_AT_data_member_location[DW_OP_plus_uconst 0x2]
    6912                      .dwattr $C$DW$659, DW_AT_accessibility(DW_ACCESS_public)
    6913              $C$DW$660       .dwtag  DW_TAG_member
    6914                      .dwattr $C$DW$660, DW_AT_type(*$C$DW$T$86)
    6915                      .dwattr $C$DW$660, DW_AT_name("fSetupPktCmd")
    6916                      .dwattr $C$DW$660, DW_AT_TI_symbol_name("_fSetupPktCmd")
    6917                      .dwattr $C$DW$660, DW_AT_data_member_location[DW_OP_plus_uconst 0x3]
    6918                      .dwattr $C$DW$660, DW_AT_accessibility(DW_ACCESS_public)
    6919              $C$DW$661       .dwtag  DW_TAG_member
    6920                      .dwattr $C$DW$661, DW_AT_type(*$C$DW$T$86)
    6921                      .dwattr $C$DW$661, DW_AT_name("fOutPhaseCmd")
    6922                      .dwattr $C$DW$661, DW_AT_TI_symbol_name("_fOutPhaseCmd")
    6923                      .dwattr $C$DW$661, DW_AT_data_member_location[DW_OP_plus_uconst 0x4]
    6924                      .dwattr $C$DW$661, DW_AT_accessibility(DW_ACCESS_public)
    6925              $C$DW$662       .dwtag  DW_TAG_member
    6926                      .dwattr $C$DW$662, DW_AT_type(*$C$DW$T$86)
    6927                      .dwattr $C$DW$662, DW_AT_name("fWaitingOnFlagA")
    6928                      .dwattr $C$DW$662, DW_AT_TI_symbol_name("_fWaitingOnFlagA")
    6929                      .dwattr $C$DW$662, DW_AT_data_member_location[DW_OP_plus_uconst 0x5]
    6930                      .dwattr $C$DW$662, DW_AT_accessibility(DW_ACCESS_public)
    6931              $C$DW$663       .dwtag  DW_TAG_member
    6932                      .dwattr $C$DW$663, DW_AT_type(*$C$DW$T$86)
    6933                      .dwattr $C$DW$663, DW_AT_name("fWaitingOnFlagB")
    6934                      .dwattr $C$DW$663, DW_AT_TI_symbol_name("_fWaitingOnFlagB")
    6935                      .dwattr $C$DW$663, DW_AT_data_member_location[DW_OP_plus_uconst 0x6]
    6936                      .dwattr $C$DW$663, DW_AT_accessibility(DW_ACCESS_public)
    6937              $C$DW$664       .dwtag  DW_TAG_member
    6938                      .dwattr $C$DW$664, DW_AT_type(*$C$DW$T$86)
    6939                      .dwattr $C$DW$664, DW_AT_name("fWaitingOnEP0BUFAvail")
    6940                      .dwattr $C$DW$664, DW_AT_TI_symbol_name("_fWaitingOnEP0BUFAvail")
    6941                      .dwattr $C$DW$664, DW_AT_data_member_location[DW_OP_plus_uconst 0x7]
    6942                      .dwattr $C$DW$664, DW_AT_accessibility(DW_ACCESS_public)
    6943              $C$DW$665       .dwtag  DW_TAG_member
    6944                      .dwattr $C$DW$665, DW_AT_type(*$C$DW$T$86)
    6945                      .dwattr $C$DW$665, DW_AT_name("fWaitingOnEP1InBUFAvail")
    6946                      .dwattr $C$DW$665, DW_AT_TI_symbol_name("_fWaitingOnEP1InBUFAvail")
    6947                      .dwattr $C$DW$665, DW_AT_data_member_location[DW_OP_plus_uconst 0x8]
    6948                      .dwattr $C$DW$665, DW_AT_accessibility(DW_ACCESS_public)
    6949              $C$DW$666       .dwtag  DW_TAG_member
    6950                      .dwattr $C$DW$666, DW_AT_type(*$C$DW$T$87)
    6951                      .dwattr $C$DW$666, DW_AT_name("rgbDescriptors")
    6952                      .dwattr $C$DW$666, DW_AT_TI_symbol_name("_rgbDescriptors")
    6953                      .dwattr $C$DW$666, DW_AT_data_member_location[DW_OP_plus_uconst 0xa]
    6954                      .dwattr $C$DW$666, DW_AT_accessibility(DW_ACCESS_public)
    6955              $C$DW$667       .dwtag  DW_TAG_member
    6956                      .dwattr $C$DW$667, DW_AT_type(*$C$DW$T$85)
    6957                      .dwattr $C$DW$667, DW_AT_name("cbDescriptors")
    6958                      .dwattr $C$DW$667, DW_AT_TI_symbol_name("_cbDescriptors")
    6959                      .dwattr $C$DW$667, DW_AT_data_member_location[DW_OP_plus_uconst 0xc]
    6960                      .dwattr $C$DW$667, DW_AT_accessibility(DW_ACCESS_public)
    6961              $C$DW$668       .dwtag  DW_TAG_member
    6962                      .dwattr $C$DW$668, DW_AT_type(*$C$DW$T$88)
    6963                      .dwattr $C$DW$668, DW_AT_name("dwFlagAEndpointAssigned")
    6964                      .dwattr $C$DW$668, DW_AT_TI_symbol_name("_dwFlagAEndpointAssigned")
TMS320C55x Assembler PC v4.4.1 Sat Sep 29 23:08:36 2018

Tools Copyright (c) 1996-2012 Texas Instruments Incorporated
csl_usb_intc_example.asm                                             PAGE  163

    6965                      .dwattr $C$DW$668, DW_AT_data_member_location[DW_OP_plus_uconst 0xe]
    6966                      .dwattr $C$DW$668, DW_AT_accessibility(DW_ACCESS_public)
    6967              $C$DW$669       .dwtag  DW_TAG_member
    6968                      .dwattr $C$DW$669, DW_AT_type(*$C$DW$T$88)
    6969                      .dwattr $C$DW$669, DW_AT_name("dwFlagBEndpointAssigned")
    6970                      .dwattr $C$DW$669, DW_AT_TI_symbol_name("_dwFlagBEndpointAssigned")
    6971                      .dwattr $C$DW$669, DW_AT_data_member_location[DW_OP_plus_uconst 0x10]
    6972                      .dwattr $C$DW$669, DW_AT_accessibility(DW_ACCESS_public)
    6973              $C$DW$670       .dwtag  DW_TAG_member
    6974                      .dwattr $C$DW$670, DW_AT_type(*$C$DW$T$89)
    6975                      .dwattr $C$DW$670, DW_AT_name("pFIFOBaseAddress")
    6976                      .dwattr $C$DW$670, DW_AT_TI_symbol_name("_pFIFOBaseAddress")
    6977                      .dwattr $C$DW$670, DW_AT_data_member_location[DW_OP_plus_uconst 0x12]
    6978                      .dwattr $C$DW$670, DW_AT_accessibility(DW_ACCESS_public)
    6979              $C$DW$671       .dwtag  DW_TAG_member
    6980                      .dwattr $C$DW$671, DW_AT_type(*$C$DW$T$89)
    6981                      .dwattr $C$DW$671, DW_AT_name("pInterruptAddr")
    6982                      .dwattr $C$DW$671, DW_AT_TI_symbol_name("_pInterruptAddr")
    6983                      .dwattr $C$DW$671, DW_AT_data_member_location[DW_OP_plus_uconst 0x14]
    6984                      .dwattr $C$DW$671, DW_AT_accessibility(DW_ACCESS_public)
    6985              $C$DW$672       .dwtag  DW_TAG_member
    6986                      .dwattr $C$DW$672, DW_AT_type(*$C$DW$T$86)
    6987                      .dwattr $C$DW$672, DW_AT_name("fSendHandshake")
    6988                      .dwattr $C$DW$672, DW_AT_TI_symbol_name("_fSendHandshake")
    6989                      .dwattr $C$DW$672, DW_AT_data_member_location[DW_OP_plus_uconst 0x16]
    6990                      .dwattr $C$DW$672, DW_AT_accessibility(DW_ACCESS_public)
    6991              $C$DW$673       .dwtag  DW_TAG_member
    6992                      .dwattr $C$DW$673, DW_AT_type(*$C$DW$T$86)
    6993                      .dwattr $C$DW$673, DW_AT_name("fMUSBIsReady")
    6994                      .dwattr $C$DW$673, DW_AT_TI_symbol_name("_fMUSBIsReady")
    6995                      .dwattr $C$DW$673, DW_AT_data_member_location[DW_OP_plus_uconst 0x17]
    6996                      .dwattr $C$DW$673, DW_AT_accessibility(DW_ACCESS_public)
    6997              $C$DW$674       .dwtag  DW_TAG_member
    6998                      .dwattr $C$DW$674, DW_AT_type(*$C$DW$T$85)
    6999                      .dwattr $C$DW$674, DW_AT_name("cbOutEP0Buf")
    7000                      .dwattr $C$DW$674, DW_AT_TI_symbol_name("_cbOutEP0Buf")
    7001                      .dwattr $C$DW$674, DW_AT_data_member_location[DW_OP_plus_uconst 0x18]
    7002                      .dwattr $C$DW$674, DW_AT_accessibility(DW_ACCESS_public)
    7003              $C$DW$675       .dwtag  DW_TAG_member
    7004                      .dwattr $C$DW$675, DW_AT_type(*$C$DW$T$85)
    7005                      .dwattr $C$DW$675, DW_AT_name("cbOutEP0DataReceived")
    7006                      .dwattr $C$DW$675, DW_AT_TI_symbol_name("_cbOutEP0DataReceived")
    7007                      .dwattr $C$DW$675, DW_AT_data_member_location[DW_OP_plus_uconst 0x19]
    7008                      .dwattr $C$DW$675, DW_AT_accessibility(DW_ACCESS_public)
    7009              $C$DW$676       .dwtag  DW_TAG_member
    7010                      .dwattr $C$DW$676, DW_AT_type(*$C$DW$T$90)
    7011                      .dwattr $C$DW$676, DW_AT_name("dwOutEP0Buf")
    7012                      .dwattr $C$DW$676, DW_AT_TI_symbol_name("_dwOutEP0Buf")
    7013                      .dwattr $C$DW$676, DW_AT_data_member_location[DW_OP_plus_uconst 0x1a]
    7014                      .dwattr $C$DW$676, DW_AT_accessibility(DW_ACCESS_public)
    7015              $C$DW$677       .dwtag  DW_TAG_member
    7016                      .dwattr $C$DW$677, DW_AT_type(*$C$DW$T$86)
    7017                      .dwattr $C$DW$677, DW_AT_name("fEP0BUFAvailable")
    7018                      .dwattr $C$DW$677, DW_AT_TI_symbol_name("_fEP0BUFAvailable")
    7019                      .dwattr $C$DW$677, DW_AT_data_member_location[DW_OP_plus_uconst 0x5a]
TMS320C55x Assembler PC v4.4.1 Sat Sep 29 23:08:36 2018

Tools Copyright (c) 1996-2012 Texas Instruments Incorporated
csl_usb_intc_example.asm                                             PAGE  164

    7020                      .dwattr $C$DW$677, DW_AT_accessibility(DW_ACCESS_public)
    7021              $C$DW$678       .dwtag  DW_TAG_member
    7022                      .dwattr $C$DW$678, DW_AT_type(*$C$DW$T$86)
    7023                      .dwattr $C$DW$678, DW_AT_name("fEP1InBUFAvailable")
    7024                      .dwattr $C$DW$678, DW_AT_TI_symbol_name("_fEP1InBUFAvailable")
    7025                      .dwattr $C$DW$678, DW_AT_data_member_location[DW_OP_plus_uconst 0x5b]
    7026                      .dwattr $C$DW$678, DW_AT_accessibility(DW_ACCESS_public)
    7027              $C$DW$679       .dwtag  DW_TAG_member
    7028                      .dwattr $C$DW$679, DW_AT_type(*$C$DW$T$85)
    7029                      .dwattr $C$DW$679, DW_AT_name("dwQueuePend1")
    7030                      .dwattr $C$DW$679, DW_AT_TI_symbol_name("_dwQueuePend1")
    7031                      .dwattr $C$DW$679, DW_AT_data_member_location[DW_OP_plus_uconst 0x5c]
    7032                      .dwattr $C$DW$679, DW_AT_accessibility(DW_ACCESS_public)
    7033              $C$DW$680       .dwtag  DW_TAG_member
    7034                      .dwattr $C$DW$680, DW_AT_type(*$C$DW$T$86)
    7035                      .dwattr $C$DW$680, DW_AT_name("fEP3InBUFAvailable")
    7036                      .dwattr $C$DW$680, DW_AT_TI_symbol_name("_fEP3InBUFAvailable")
    7037                      .dwattr $C$DW$680, DW_AT_data_member_location[DW_OP_plus_uconst 0x5d]
    7038                      .dwattr $C$DW$680, DW_AT_accessibility(DW_ACCESS_public)
    7039              $C$DW$681       .dwtag  DW_TAG_member
    7040                      .dwattr $C$DW$681, DW_AT_type(*$C$DW$T$85)
    7041                      .dwattr $C$DW$681, DW_AT_name("dwIntSourceL")
    7042                      .dwattr $C$DW$681, DW_AT_TI_symbol_name("_dwIntSourceL")
    7043                      .dwattr $C$DW$681, DW_AT_data_member_location[DW_OP_plus_uconst 0x5e]
    7044                      .dwattr $C$DW$681, DW_AT_accessibility(DW_ACCESS_public)
    7045              $C$DW$682       .dwtag  DW_TAG_member
    7046                      .dwattr $C$DW$682, DW_AT_type(*$C$DW$T$85)
    7047                      .dwattr $C$DW$682, DW_AT_name("dwIntSourceH")
    7048                      .dwattr $C$DW$682, DW_AT_TI_symbol_name("_dwIntSourceH")
    7049                      .dwattr $C$DW$682, DW_AT_data_member_location[DW_OP_plus_uconst 0x5f]
    7050                      .dwattr $C$DW$682, DW_AT_accessibility(DW_ACCESS_public)
    7051              $C$DW$683       .dwtag  DW_TAG_member
    7052                      .dwattr $C$DW$683, DW_AT_type(*$C$DW$T$92)
    7053                      .dwattr $C$DW$683, DW_AT_name("remoteWkpStat")
    7054                      .dwattr $C$DW$683, DW_AT_TI_symbol_name("_remoteWkpStat")
    7055                      .dwattr $C$DW$683, DW_AT_data_member_location[DW_OP_plus_uconst 0x60]
    7056                      .dwattr $C$DW$683, DW_AT_accessibility(DW_ACCESS_public)
    7057              $C$DW$684       .dwtag  DW_TAG_member
    7058                      .dwattr $C$DW$684, DW_AT_type(*$C$DW$T$94)
    7059                      .dwattr $C$DW$684, DW_AT_name("pEpStatus")
    7060                      .dwattr $C$DW$684, DW_AT_TI_symbol_name("_pEpStatus")
    7061                      .dwattr $C$DW$684, DW_AT_data_member_location[DW_OP_plus_uconst 0x62]
    7062                      .dwattr $C$DW$684, DW_AT_accessibility(DW_ACCESS_public)
    7063              $C$DW$685       .dwtag  DW_TAG_member
    7064                      .dwattr $C$DW$685, DW_AT_type(*$C$DW$T$96)
    7065                      .dwattr $C$DW$685, DW_AT_name("busSpeed")
    7066                      .dwattr $C$DW$685, DW_AT_TI_symbol_name("_busSpeed")
    7067                      .dwattr $C$DW$685, DW_AT_data_member_location[DW_OP_plus_uconst 0x64]
    7068                      .dwattr $C$DW$685, DW_AT_accessibility(DW_ACCESS_public)
    7069              $C$DW$686       .dwtag  DW_TAG_member
    7070                      .dwattr $C$DW$686, DW_AT_type(*$C$DW$T$98)
    7071                      .dwattr $C$DW$686, DW_AT_name("ep0State")
    7072                      .dwattr $C$DW$686, DW_AT_TI_symbol_name("_ep0State")
    7073                      .dwattr $C$DW$686, DW_AT_data_member_location[DW_OP_plus_uconst 0x65]
    7074                      .dwattr $C$DW$686, DW_AT_accessibility(DW_ACCESS_public)
TMS320C55x Assembler PC v4.4.1 Sat Sep 29 23:08:36 2018

Tools Copyright (c) 1996-2012 Texas Instruments Incorporated
csl_usb_intc_example.asm                                             PAGE  165

    7075              $C$DW$687       .dwtag  DW_TAG_member
    7076                      .dwattr $C$DW$687, DW_AT_type(*$C$DW$T$100)
    7077                      .dwattr $C$DW$687, DW_AT_name("cableState")
    7078                      .dwattr $C$DW$687, DW_AT_TI_symbol_name("_cableState")
    7079                      .dwattr $C$DW$687, DW_AT_data_member_location[DW_OP_plus_uconst 0x66]
    7080                      .dwattr $C$DW$687, DW_AT_accessibility(DW_ACCESS_public)
    7081              $C$DW$688       .dwtag  DW_TAG_member
    7082                      .dwattr $C$DW$688, DW_AT_type(*$C$DW$T$101)
    7083                      .dwattr $C$DW$688, DW_AT_name("usbSetup")
    7084                      .dwattr $C$DW$688, DW_AT_TI_symbol_name("_usbSetup")
    7085                      .dwattr $C$DW$688, DW_AT_data_member_location[DW_OP_plus_uconst 0x67]
    7086                      .dwattr $C$DW$688, DW_AT_accessibility(DW_ACCESS_public)
    7087              $C$DW$689       .dwtag  DW_TAG_member
    7088                      .dwattr $C$DW$689, DW_AT_type(*$C$DW$T$78)
    7089                      .dwattr $C$DW$689, DW_AT_name("suspendCallBackFxn")
    7090                      .dwattr $C$DW$689, DW_AT_TI_symbol_name("_suspendCallBackFxn")
    7091                      .dwattr $C$DW$689, DW_AT_data_member_location[DW_OP_plus_uconst 0x6e]
    7092                      .dwattr $C$DW$689, DW_AT_accessibility(DW_ACCESS_public)
    7093              $C$DW$690       .dwtag  DW_TAG_member
    7094                      .dwattr $C$DW$690, DW_AT_type(*$C$DW$T$78)
    7095                      .dwattr $C$DW$690, DW_AT_name("wakeupCallBackFxn")
    7096                      .dwattr $C$DW$690, DW_AT_TI_symbol_name("_wakeupCallBackFxn")
    7097                      .dwattr $C$DW$690, DW_AT_data_member_location[DW_OP_plus_uconst 0x70]
    7098                      .dwattr $C$DW$690, DW_AT_accessibility(DW_ACCESS_public)
    7099              $C$DW$691       .dwtag  DW_TAG_member
    7100                      .dwattr $C$DW$691, DW_AT_type(*$C$DW$T$83)
    7101                      .dwattr $C$DW$691, DW_AT_name("startTransferCallback")
    7102                      .dwattr $C$DW$691, DW_AT_TI_symbol_name("_startTransferCallback")
    7103                      .dwattr $C$DW$691, DW_AT_data_member_location[DW_OP_plus_uconst 0x72]
    7104                      .dwattr $C$DW$691, DW_AT_accessibility(DW_ACCESS_public)
    7105              $C$DW$692       .dwtag  DW_TAG_member
    7106                      .dwattr $C$DW$692, DW_AT_type(*$C$DW$T$83)
    7107                      .dwattr $C$DW$692, DW_AT_name("completeTransferCallback")
    7108                      .dwattr $C$DW$692, DW_AT_TI_symbol_name("_completeTransferCallback")
    7109                      .dwattr $C$DW$692, DW_AT_data_member_location[DW_OP_plus_uconst 0x74]
    7110                      .dwattr $C$DW$692, DW_AT_accessibility(DW_ACCESS_public)
    7111              $C$DW$693       .dwtag  DW_TAG_member
    7112                      .dwattr $C$DW$693, DW_AT_type(*$C$DW$T$85)
    7113                      .dwattr $C$DW$693, DW_AT_name("dwFIFOStartAddr")
    7114                      .dwattr $C$DW$693, DW_AT_TI_symbol_name("_dwFIFOStartAddr")
    7115                      .dwattr $C$DW$693, DW_AT_data_member_location[DW_OP_plus_uconst 0x76]
    7116                      .dwattr $C$DW$693, DW_AT_accessibility(DW_ACCESS_public)
    7117              $C$DW$694       .dwtag  DW_TAG_member
    7118                      .dwattr $C$DW$694, DW_AT_type(*$C$DW$T$102)
    7119                      .dwattr $C$DW$694, DW_AT_name("deviceDescPtr")
    7120                      .dwattr $C$DW$694, DW_AT_TI_symbol_name("_deviceDescPtr")
    7121                      .dwattr $C$DW$694, DW_AT_data_member_location[DW_OP_plus_uconst 0x78]
    7122                      .dwattr $C$DW$694, DW_AT_accessibility(DW_ACCESS_public)
    7123              $C$DW$695       .dwtag  DW_TAG_member
    7124                      .dwattr $C$DW$695, DW_AT_type(*$C$DW$T$102)
    7125                      .dwattr $C$DW$695, DW_AT_name("deviceQualDescPtr")
    7126                      .dwattr $C$DW$695, DW_AT_TI_symbol_name("_deviceQualDescPtr")
    7127                      .dwattr $C$DW$695, DW_AT_data_member_location[DW_OP_plus_uconst 0x7a]
    7128                      .dwattr $C$DW$695, DW_AT_accessibility(DW_ACCESS_public)
    7129              $C$DW$696       .dwtag  DW_TAG_member
TMS320C55x Assembler PC v4.4.1 Sat Sep 29 23:08:36 2018

Tools Copyright (c) 1996-2012 Texas Instruments Incorporated
csl_usb_intc_example.asm                                             PAGE  166

    7130                      .dwattr $C$DW$696, DW_AT_type(*$C$DW$T$102)
    7131                      .dwattr $C$DW$696, DW_AT_name("cfgDescPtr")
    7132                      .dwattr $C$DW$696, DW_AT_TI_symbol_name("_cfgDescPtr")
    7133                      .dwattr $C$DW$696, DW_AT_data_member_location[DW_OP_plus_uconst 0x7c]
    7134                      .dwattr $C$DW$696, DW_AT_accessibility(DW_ACCESS_public)
    7135              $C$DW$697       .dwtag  DW_TAG_member
    7136                      .dwattr $C$DW$697, DW_AT_type(*$C$DW$T$102)
    7137                      .dwattr $C$DW$697, DW_AT_name("cfgDescFSPtr")
    7138                      .dwattr $C$DW$697, DW_AT_TI_symbol_name("_cfgDescFSPtr")
    7139                      .dwattr $C$DW$697, DW_AT_data_member_location[DW_OP_plus_uconst 0x7e]
    7140                      .dwattr $C$DW$697, DW_AT_accessibility(DW_ACCESS_public)
    7141              $C$DW$698       .dwtag  DW_TAG_member
    7142                      .dwattr $C$DW$698, DW_AT_type(*$C$DW$T$103)
    7143                      .dwattr $C$DW$698, DW_AT_name("strDescPtr")
    7144                      .dwattr $C$DW$698, DW_AT_TI_symbol_name("_strDescPtr")
    7145                      .dwattr $C$DW$698, DW_AT_data_member_location[DW_OP_plus_uconst 0x80]
    7146                      .dwattr $C$DW$698, DW_AT_accessibility(DW_ACCESS_public)
    7147              $C$DW$699       .dwtag  DW_TAG_member
    7148                      .dwattr $C$DW$699, DW_AT_type(*$C$DW$T$19)
    7149                      .dwattr $C$DW$699, DW_AT_name("devAddr")
    7150                      .dwattr $C$DW$699, DW_AT_TI_symbol_name("_devAddr")
    7151                      .dwattr $C$DW$699, DW_AT_data_member_location[DW_OP_plus_uconst 0x88]
    7152                      .dwattr $C$DW$699, DW_AT_accessibility(DW_ACCESS_public)
    7153              $C$DW$700       .dwtag  DW_TAG_member
    7154                      .dwattr $C$DW$700, DW_AT_type(*$C$DW$T$104)
    7155                      .dwattr $C$DW$700, DW_AT_name("ctrlInEpObj")
    7156                      .dwattr $C$DW$700, DW_AT_TI_symbol_name("_ctrlInEpObj")
    7157                      .dwattr $C$DW$700, DW_AT_data_member_location[DW_OP_plus_uconst 0x8a]
    7158                      .dwattr $C$DW$700, DW_AT_accessibility(DW_ACCESS_public)
    7159              $C$DW$701       .dwtag  DW_TAG_member
    7160                      .dwattr $C$DW$701, DW_AT_type(*$C$DW$T$73)
    7161                      .dwattr $C$DW$701, DW_AT_name("devNum")
    7162                      .dwattr $C$DW$701, DW_AT_TI_symbol_name("_devNum")
    7163                      .dwattr $C$DW$701, DW_AT_data_member_location[DW_OP_plus_uconst 0x9e]
    7164                      .dwattr $C$DW$701, DW_AT_accessibility(DW_ACCESS_public)
    7165              $C$DW$702       .dwtag  DW_TAG_member
    7166                      .dwattr $C$DW$702, DW_AT_type(*$C$DW$T$104)
    7167                      .dwattr $C$DW$702, DW_AT_name("ctrlOutEpObj")
    7168                      .dwattr $C$DW$702, DW_AT_TI_symbol_name("_ctrlOutEpObj")
    7169                      .dwattr $C$DW$702, DW_AT_data_member_location[DW_OP_plus_uconst 0xa0]
    7170                      .dwattr $C$DW$702, DW_AT_accessibility(DW_ACCESS_public)
    7171              $C$DW$703       .dwtag  DW_TAG_member
    7172                      .dwattr $C$DW$703, DW_AT_type(*$C$DW$T$19)
    7173                      .dwattr $C$DW$703, DW_AT_name("suspendFlag")
    7174                      .dwattr $C$DW$703, DW_AT_TI_symbol_name("_suspendFlag")
    7175                      .dwattr $C$DW$703, DW_AT_data_member_location[DW_OP_plus_uconst 0xb4]
    7176                      .dwattr $C$DW$703, DW_AT_accessibility(DW_ACCESS_public)
    7177              $C$DW$704       .dwtag  DW_TAG_member
    7178                      .dwattr $C$DW$704, DW_AT_type(*$C$DW$T$107)
    7179                      .dwattr $C$DW$704, DW_AT_name("hEpObjArray")
    7180                      .dwattr $C$DW$704, DW_AT_TI_symbol_name("_hEpObjArray")
    7181                      .dwattr $C$DW$704, DW_AT_data_member_location[DW_OP_plus_uconst 0xb6]
    7182                      .dwattr $C$DW$704, DW_AT_accessibility(DW_ACCESS_public)
    7183              $C$DW$705       .dwtag  DW_TAG_member
    7184                      .dwattr $C$DW$705, DW_AT_type(*$C$DW$T$19)
TMS320C55x Assembler PC v4.4.1 Sat Sep 29 23:08:36 2018

Tools Copyright (c) 1996-2012 Texas Instruments Incorporated
csl_usb_intc_example.asm                                             PAGE  167

    7185                      .dwattr $C$DW$705, DW_AT_name("curConfigStat")
    7186                      .dwattr $C$DW$705, DW_AT_TI_symbol_name("_curConfigStat")
    7187                      .dwattr $C$DW$705, DW_AT_data_member_location[DW_OP_plus_uconst 0xc6]
    7188                      .dwattr $C$DW$705, DW_AT_accessibility(DW_ACCESS_public)
    7189              $C$DW$706       .dwtag  DW_TAG_member
    7190                      .dwattr $C$DW$706, DW_AT_type(*$C$DW$T$86)
    7191                      .dwattr $C$DW$706, DW_AT_name("usbSpeedCfg")
    7192                      .dwattr $C$DW$706, DW_AT_TI_symbol_name("_usbSpeedCfg")
    7193                      .dwattr $C$DW$706, DW_AT_data_member_location[DW_OP_plus_uconst 0xc7]
    7194                      .dwattr $C$DW$706, DW_AT_accessibility(DW_ACCESS_public)
    7195                      .dwendtag $C$DW$T$108
    7196              
    7197              $C$DW$T$144     .dwtag  DW_TAG_typedef, DW_AT_name("CSL_UsbContext")
    7198                      .dwattr $C$DW$T$144, DW_AT_type(*$C$DW$T$108)
    7199                      .dwattr $C$DW$T$144, DW_AT_language(DW_LANG_C)
    7200              $C$DW$T$145     .dwtag  DW_TAG_pointer_type
    7201                      .dwattr $C$DW$T$145, DW_AT_type(*$C$DW$T$144)
    7202                      .dwattr $C$DW$T$145, DW_AT_address_class(0x17)
    7203              $C$DW$T$146     .dwtag  DW_TAG_typedef, DW_AT_name("pUsbContext")
    7204                      .dwattr $C$DW$T$146, DW_AT_type(*$C$DW$T$145)
    7205                      .dwattr $C$DW$T$146, DW_AT_language(DW_LANG_C)
    7206              
    7207              $C$DW$T$110     .dwtag  DW_TAG_structure_type
    7208                      .dwattr $C$DW$T$110, DW_AT_name("CSL_UsbDataStruct")
    7209                      .dwattr $C$DW$T$110, DW_AT_byte_size(0x06)
    7210              $C$DW$707       .dwtag  DW_TAG_member
    7211                      .dwattr $C$DW$707, DW_AT_type(*$C$DW$T$19)
    7212                      .dwattr $C$DW$707, DW_AT_name("bytes")
    7213                      .dwattr $C$DW$707, DW_AT_TI_symbol_name("_bytes")
    7214                      .dwattr $C$DW$707, DW_AT_data_member_location[DW_OP_plus_uconst 0x0]
    7215                      .dwattr $C$DW$707, DW_AT_accessibility(DW_ACCESS_public)
    7216              $C$DW$708       .dwtag  DW_TAG_member
    7217                      .dwattr $C$DW$708, DW_AT_type(*$C$DW$T$102)
    7218                      .dwattr $C$DW$708, DW_AT_name("pBuffer")
    7219                      .dwattr $C$DW$708, DW_AT_TI_symbol_name("_pBuffer")
    7220                      .dwattr $C$DW$708, DW_AT_data_member_location[DW_OP_plus_uconst 0x2]
    7221                      .dwattr $C$DW$708, DW_AT_accessibility(DW_ACCESS_public)
    7222              $C$DW$709       .dwtag  DW_TAG_member
    7223                      .dwattr $C$DW$709, DW_AT_type(*$C$DW$T$109)
    7224                      .dwattr $C$DW$709, DW_AT_name("pNextBuffer")
    7225                      .dwattr $C$DW$709, DW_AT_TI_symbol_name("_pNextBuffer")
    7226                      .dwattr $C$DW$709, DW_AT_data_member_location[DW_OP_plus_uconst 0x4]
    7227                      .dwattr $C$DW$709, DW_AT_accessibility(DW_ACCESS_public)
    7228                      .dwendtag $C$DW$T$110
    7229              
    7230              $C$DW$T$118     .dwtag  DW_TAG_typedef, DW_AT_name("CSL_UsbDataStruct")
    7231                      .dwattr $C$DW$T$118, DW_AT_type(*$C$DW$T$110)
    7232                      .dwattr $C$DW$T$118, DW_AT_language(DW_LANG_C)
    7233              $C$DW$T$119     .dwtag  DW_TAG_pointer_type
    7234                      .dwattr $C$DW$T$119, DW_AT_type(*$C$DW$T$118)
    7235                      .dwattr $C$DW$T$119, DW_AT_address_class(0x17)
    7236              $C$DW$T$109     .dwtag  DW_TAG_pointer_type
    7237                      .dwattr $C$DW$T$109, DW_AT_type(*$C$DW$T$110)
    7238                      .dwattr $C$DW$T$109, DW_AT_address_class(0x17)
    7239              
TMS320C55x Assembler PC v4.4.1 Sat Sep 29 23:08:36 2018

Tools Copyright (c) 1996-2012 Texas Instruments Incorporated
csl_usb_intc_example.asm                                             PAGE  168

    7240              $C$DW$T$120     .dwtag  DW_TAG_structure_type
    7241                      .dwattr $C$DW$T$120, DW_AT_name("CSL_UsbEpObj")
    7242                      .dwattr $C$DW$T$120, DW_AT_byte_size(0x14)
    7243              $C$DW$710       .dwtag  DW_TAG_member
    7244                      .dwattr $C$DW$710, DW_AT_type(*$C$DW$T$112)
    7245                      .dwattr $C$DW$710, DW_AT_name("epNum")
    7246                      .dwattr $C$DW$710, DW_AT_TI_symbol_name("_epNum")
    7247                      .dwattr $C$DW$710, DW_AT_data_member_location[DW_OP_plus_uconst 0x0]
    7248                      .dwattr $C$DW$710, DW_AT_accessibility(DW_ACCESS_public)
    7249              $C$DW$711       .dwtag  DW_TAG_member
    7250                      .dwattr $C$DW$711, DW_AT_type(*$C$DW$T$114)
    7251                      .dwattr $C$DW$711, DW_AT_name("xferType")
    7252                      .dwattr $C$DW$711, DW_AT_TI_symbol_name("_xferType")
    7253                      .dwattr $C$DW$711, DW_AT_data_member_location[DW_OP_plus_uconst 0x1]
    7254                      .dwattr $C$DW$711, DW_AT_accessibility(DW_ACCESS_public)
    7255              $C$DW$712       .dwtag  DW_TAG_member
    7256                      .dwattr $C$DW$712, DW_AT_type(*$C$DW$T$19)
    7257                      .dwattr $C$DW$712, DW_AT_name("maxPktSiz")
    7258                      .dwattr $C$DW$712, DW_AT_TI_symbol_name("_maxPktSiz")
    7259                      .dwattr $C$DW$712, DW_AT_data_member_location[DW_OP_plus_uconst 0x2]
    7260                      .dwattr $C$DW$712, DW_AT_accessibility(DW_ACCESS_public)
    7261              $C$DW$713       .dwtag  DW_TAG_member
    7262                      .dwattr $C$DW$713, DW_AT_type(*$C$DW$T$19)
    7263                      .dwattr $C$DW$713, DW_AT_name("eventMask")
    7264                      .dwattr $C$DW$713, DW_AT_TI_symbol_name("_eventMask")
    7265                      .dwattr $C$DW$713, DW_AT_data_member_location[DW_OP_plus_uconst 0x3]
    7266                      .dwattr $C$DW$713, DW_AT_accessibility(DW_ACCESS_public)
    7267              $C$DW$714       .dwtag  DW_TAG_member
    7268                      .dwattr $C$DW$714, DW_AT_type(*$C$DW$T$117)
    7269                      .dwattr $C$DW$714, DW_AT_name("fxn")
    7270                      .dwattr $C$DW$714, DW_AT_TI_symbol_name("_fxn")
    7271                      .dwattr $C$DW$714, DW_AT_data_member_location[DW_OP_plus_uconst 0x4]
    7272                      .dwattr $C$DW$714, DW_AT_accessibility(DW_ACCESS_public)
    7273              $C$DW$715       .dwtag  DW_TAG_member
    7274                      .dwattr $C$DW$715, DW_AT_type(*$C$DW$T$19)
    7275                      .dwattr $C$DW$715, DW_AT_name("dataFlags")
    7276                      .dwattr $C$DW$715, DW_AT_TI_symbol_name("_dataFlags")
    7277                      .dwattr $C$DW$715, DW_AT_data_member_location[DW_OP_plus_uconst 0x6]
    7278                      .dwattr $C$DW$715, DW_AT_accessibility(DW_ACCESS_public)
    7279              $C$DW$716       .dwtag  DW_TAG_member
    7280                      .dwattr $C$DW$716, DW_AT_type(*$C$DW$T$19)
    7281                      .dwattr $C$DW$716, DW_AT_name("status")
    7282                      .dwattr $C$DW$716, DW_AT_TI_symbol_name("_status")
    7283                      .dwattr $C$DW$716, DW_AT_data_member_location[DW_OP_plus_uconst 0x7]
    7284                      .dwattr $C$DW$716, DW_AT_accessibility(DW_ACCESS_public)
    7285              $C$DW$717       .dwtag  DW_TAG_member
    7286                      .dwattr $C$DW$717, DW_AT_type(*$C$DW$T$19)
    7287                      .dwattr $C$DW$717, DW_AT_name("epDescRegSAddr")
    7288                      .dwattr $C$DW$717, DW_AT_TI_symbol_name("_epDescRegSAddr")
    7289                      .dwattr $C$DW$717, DW_AT_data_member_location[DW_OP_plus_uconst 0x8]
    7290                      .dwattr $C$DW$717, DW_AT_accessibility(DW_ACCESS_public)
    7291              $C$DW$718       .dwtag  DW_TAG_member
    7292                      .dwattr $C$DW$718, DW_AT_type(*$C$DW$T$19)
    7293                      .dwattr $C$DW$718, DW_AT_name("dmaRegSAddr")
    7294                      .dwattr $C$DW$718, DW_AT_TI_symbol_name("_dmaRegSAddr")
TMS320C55x Assembler PC v4.4.1 Sat Sep 29 23:08:36 2018

Tools Copyright (c) 1996-2012 Texas Instruments Incorporated
csl_usb_intc_example.asm                                             PAGE  169

    7295                      .dwattr $C$DW$718, DW_AT_data_member_location[DW_OP_plus_uconst 0x9]
    7296                      .dwattr $C$DW$718, DW_AT_accessibility(DW_ACCESS_public)
    7297              $C$DW$719       .dwtag  DW_TAG_member
    7298                      .dwattr $C$DW$719, DW_AT_type(*$C$DW$T$19)
    7299                      .dwattr $C$DW$719, DW_AT_name("totByteCnt")
    7300                      .dwattr $C$DW$719, DW_AT_TI_symbol_name("_totByteCnt")
    7301                      .dwattr $C$DW$719, DW_AT_data_member_location[DW_OP_plus_uconst 0xa]
    7302                      .dwattr $C$DW$719, DW_AT_accessibility(DW_ACCESS_public)
    7303              $C$DW$720       .dwtag  DW_TAG_member
    7304                      .dwattr $C$DW$720, DW_AT_type(*$C$DW$T$19)
    7305                      .dwattr $C$DW$720, DW_AT_name("byteInThisSeg")
    7306                      .dwattr $C$DW$720, DW_AT_TI_symbol_name("_byteInThisSeg")
    7307                      .dwattr $C$DW$720, DW_AT_data_member_location[DW_OP_plus_uconst 0xb]
    7308                      .dwattr $C$DW$720, DW_AT_accessibility(DW_ACCESS_public)
    7309              $C$DW$721       .dwtag  DW_TAG_member
    7310                      .dwattr $C$DW$721, DW_AT_type(*$C$DW$T$102)
    7311                      .dwattr $C$DW$721, DW_AT_name("xferBytCnt")
    7312                      .dwattr $C$DW$721, DW_AT_TI_symbol_name("_xferBytCnt")
    7313                      .dwattr $C$DW$721, DW_AT_data_member_location[DW_OP_plus_uconst 0xc]
    7314                      .dwattr $C$DW$721, DW_AT_accessibility(DW_ACCESS_public)
    7315              $C$DW$722       .dwtag  DW_TAG_member
    7316                      .dwattr $C$DW$722, DW_AT_type(*$C$DW$T$102)
    7317                      .dwattr $C$DW$722, DW_AT_name("pBuffer")
    7318                      .dwattr $C$DW$722, DW_AT_TI_symbol_name("_pBuffer")
    7319                      .dwattr $C$DW$722, DW_AT_data_member_location[DW_OP_plus_uconst 0xe]
    7320                      .dwattr $C$DW$722, DW_AT_accessibility(DW_ACCESS_public)
    7321              $C$DW$723       .dwtag  DW_TAG_member
    7322                      .dwattr $C$DW$723, DW_AT_type(*$C$DW$T$119)
    7323                      .dwattr $C$DW$723, DW_AT_name("pNextBuffer")
    7324                      .dwattr $C$DW$723, DW_AT_TI_symbol_name("_pNextBuffer")
    7325                      .dwattr $C$DW$723, DW_AT_data_member_location[DW_OP_plus_uconst 0x10]
    7326                      .dwattr $C$DW$723, DW_AT_accessibility(DW_ACCESS_public)
    7327              $C$DW$724       .dwtag  DW_TAG_member
    7328                      .dwattr $C$DW$724, DW_AT_type(*$C$DW$T$19)
    7329                      .dwattr $C$DW$724, DW_AT_name("eventFlag")
    7330                      .dwattr $C$DW$724, DW_AT_TI_symbol_name("_eventFlag")
    7331                      .dwattr $C$DW$724, DW_AT_data_member_location[DW_OP_plus_uconst 0x12]
    7332                      .dwattr $C$DW$724, DW_AT_accessibility(DW_ACCESS_public)
    7333                      .dwendtag $C$DW$T$120
    7334              
    7335              $C$DW$T$104     .dwtag  DW_TAG_typedef, DW_AT_name("CSL_UsbEpObj")
    7336                      .dwattr $C$DW$T$104, DW_AT_type(*$C$DW$T$120)
    7337                      .dwattr $C$DW$T$104, DW_AT_language(DW_LANG_C)
    7338              $C$DW$T$105     .dwtag  DW_TAG_pointer_type
    7339                      .dwattr $C$DW$T$105, DW_AT_type(*$C$DW$T$104)
    7340                      .dwattr $C$DW$T$105, DW_AT_address_class(0x17)
    7341              $C$DW$T$106     .dwtag  DW_TAG_typedef, DW_AT_name("pUsbEpHandle")
    7342                      .dwattr $C$DW$T$106, DW_AT_type(*$C$DW$T$105)
    7343                      .dwattr $C$DW$T$106, DW_AT_language(DW_LANG_C)
    7344              
    7345              $C$DW$T$107     .dwtag  DW_TAG_array_type
    7346                      .dwattr $C$DW$T$107, DW_AT_type(*$C$DW$T$106)
    7347                      .dwattr $C$DW$T$107, DW_AT_language(DW_LANG_C)
    7348                      .dwattr $C$DW$T$107, DW_AT_byte_size(0x10)
    7349              $C$DW$725       .dwtag  DW_TAG_subrange_type
TMS320C55x Assembler PC v4.4.1 Sat Sep 29 23:08:36 2018

Tools Copyright (c) 1996-2012 Texas Instruments Incorporated
csl_usb_intc_example.asm                                             PAGE  170

    7350                      .dwattr $C$DW$725, DW_AT_upper_bound(0x07)
    7351                      .dwendtag $C$DW$T$107
    7352              
    7353              $C$DW$T$149     .dwtag  DW_TAG_pointer_type
    7354                      .dwattr $C$DW$T$149, DW_AT_type(*$C$DW$T$106)
    7355                      .dwattr $C$DW$T$149, DW_AT_address_class(0x17)
    7356              
    7357              $C$DW$T$123     .dwtag  DW_TAG_structure_type
    7358                      .dwattr $C$DW$T$123, DW_AT_name("CSL_UsbEpStatus")
    7359                      .dwattr $C$DW$T$123, DW_AT_byte_size(0x12)
    7360              $C$DW$726       .dwtag  DW_TAG_member
    7361                      .dwattr $C$DW$726, DW_AT_type(*$C$DW$T$88)
    7362                      .dwattr $C$DW$726, DW_AT_name("dwEndpoint")
    7363                      .dwattr $C$DW$726, DW_AT_TI_symbol_name("_dwEndpoint")
    7364                      .dwattr $C$DW$726, DW_AT_data_member_location[DW_OP_plus_uconst 0x0]
    7365                      .dwattr $C$DW$726, DW_AT_accessibility(DW_ACCESS_public)
    7366              $C$DW$727       .dwtag  DW_TAG_member
    7367                      .dwattr $C$DW$727, DW_AT_type(*$C$DW$T$114)
    7368                      .dwattr $C$DW$727, DW_AT_name("xferType")
    7369                      .dwattr $C$DW$727, DW_AT_TI_symbol_name("_xferType")
    7370                      .dwattr $C$DW$727, DW_AT_data_member_location[DW_OP_plus_uconst 0x2]
    7371                      .dwattr $C$DW$727, DW_AT_accessibility(DW_ACCESS_public)
    7372              $C$DW$728       .dwtag  DW_TAG_member
    7373                      .dwattr $C$DW$728, DW_AT_type(*$C$DW$T$88)
    7374                      .dwattr $C$DW$728, DW_AT_name("dwPacketSizeAssigned")
    7375                      .dwattr $C$DW$728, DW_AT_TI_symbol_name("_dwPacketSizeAssigned")
    7376                      .dwattr $C$DW$728, DW_AT_data_member_location[DW_OP_plus_uconst 0x4]
    7377                      .dwattr $C$DW$728, DW_AT_accessibility(DW_ACCESS_public)
    7378              $C$DW$729       .dwtag  DW_TAG_member
    7379                      .dwattr $C$DW$729, DW_AT_type(*$C$DW$T$86)
    7380                      .dwattr $C$DW$729, DW_AT_name("fInitialized")
    7381                      .dwattr $C$DW$729, DW_AT_TI_symbol_name("_fInitialized")
    7382                      .dwattr $C$DW$729, DW_AT_data_member_location[DW_OP_plus_uconst 0x6]
    7383                      .dwattr $C$DW$729, DW_AT_accessibility(DW_ACCESS_public)
    7384              $C$DW$730       .dwtag  DW_TAG_member
    7385                      .dwattr $C$DW$730, DW_AT_type(*$C$DW$T$89)
    7386                      .dwattr $C$DW$730, DW_AT_name("pFifoAddr")
    7387                      .dwattr $C$DW$730, DW_AT_TI_symbol_name("_pFifoAddr")
    7388                      .dwattr $C$DW$730, DW_AT_data_member_location[DW_OP_plus_uconst 0x8]
    7389                      .dwattr $C$DW$730, DW_AT_accessibility(DW_ACCESS_public)
    7390              $C$DW$731       .dwtag  DW_TAG_member
    7391                      .dwattr $C$DW$731, DW_AT_type(*$C$DW$T$122)
    7392                      .dwattr $C$DW$731, DW_AT_name("pTransfer")
    7393                      .dwattr $C$DW$731, DW_AT_TI_symbol_name("_pTransfer")
    7394                      .dwattr $C$DW$731, DW_AT_data_member_location[DW_OP_plus_uconst 0xa]
    7395                      .dwattr $C$DW$731, DW_AT_accessibility(DW_ACCESS_public)
    7396              $C$DW$732       .dwtag  DW_TAG_member
    7397                      .dwattr $C$DW$732, DW_AT_type(*$C$DW$T$85)
    7398                      .dwattr $C$DW$732, DW_AT_name("wUSBEvents")
    7399                      .dwattr $C$DW$732, DW_AT_TI_symbol_name("_wUSBEvents")
    7400                      .dwattr $C$DW$732, DW_AT_data_member_location[DW_OP_plus_uconst 0xc]
    7401                      .dwattr $C$DW$732, DW_AT_accessibility(DW_ACCESS_public)
    7402              $C$DW$733       .dwtag  DW_TAG_member
    7403                      .dwattr $C$DW$733, DW_AT_type(*$C$DW$T$85)
    7404                      .dwattr $C$DW$733, DW_AT_name("dataReadFromFifo")
TMS320C55x Assembler PC v4.4.1 Sat Sep 29 23:08:36 2018

Tools Copyright (c) 1996-2012 Texas Instruments Incorporated
csl_usb_intc_example.asm                                             PAGE  171

    7405                      .dwattr $C$DW$733, DW_AT_TI_symbol_name("_dataReadFromFifo")
    7406                      .dwattr $C$DW$733, DW_AT_data_member_location[DW_OP_plus_uconst 0xd]
    7407                      .dwattr $C$DW$733, DW_AT_accessibility(DW_ACCESS_public)
    7408              $C$DW$734       .dwtag  DW_TAG_member
    7409                      .dwattr $C$DW$734, DW_AT_type(*$C$DW$T$117)
    7410                      .dwattr $C$DW$734, DW_AT_name("hEventHandler")
    7411                      .dwattr $C$DW$734, DW_AT_TI_symbol_name("_hEventHandler")
    7412                      .dwattr $C$DW$734, DW_AT_data_member_location[DW_OP_plus_uconst 0xe]
    7413                      .dwattr $C$DW$734, DW_AT_accessibility(DW_ACCESS_public)
    7414              $C$DW$735       .dwtag  DW_TAG_member
    7415                      .dwattr $C$DW$735, DW_AT_type(*$C$DW$T$86)
    7416                      .dwattr $C$DW$735, DW_AT_name("fStalled")
    7417                      .dwattr $C$DW$735, DW_AT_TI_symbol_name("_fStalled")
    7418                      .dwattr $C$DW$735, DW_AT_data_member_location[DW_OP_plus_uconst 0x10]
    7419                      .dwattr $C$DW$735, DW_AT_accessibility(DW_ACCESS_public)
    7420              $C$DW$736       .dwtag  DW_TAG_member
    7421                      .dwattr $C$DW$736, DW_AT_type(*$C$DW$T$86)
    7422                      .dwattr $C$DW$736, DW_AT_name("fSelected")
    7423                      .dwattr $C$DW$736, DW_AT_TI_symbol_name("_fSelected")
    7424                      .dwattr $C$DW$736, DW_AT_data_member_location[DW_OP_plus_uconst 0x11]
    7425                      .dwattr $C$DW$736, DW_AT_accessibility(DW_ACCESS_public)
    7426                      .dwendtag $C$DW$T$123
    7427              
    7428              $C$DW$T$93      .dwtag  DW_TAG_typedef, DW_AT_name("CSL_UsbEpStatus")
    7429                      .dwattr $C$DW$T$93, DW_AT_type(*$C$DW$T$123)
    7430                      .dwattr $C$DW$T$93, DW_AT_language(DW_LANG_C)
    7431              $C$DW$T$94      .dwtag  DW_TAG_pointer_type
    7432                      .dwattr $C$DW$T$94, DW_AT_type(*$C$DW$T$93)
    7433                      .dwattr $C$DW$T$94, DW_AT_address_class(0x17)
    7434              $C$DW$T$150     .dwtag  DW_TAG_typedef, DW_AT_name("pUsbEpStatus")
    7435                      .dwattr $C$DW$T$150, DW_AT_type(*$C$DW$T$94)
    7436                      .dwattr $C$DW$T$150, DW_AT_language(DW_LANG_C)
    7437              
    7438              $C$DW$T$124     .dwtag  DW_TAG_structure_type
    7439                      .dwattr $C$DW$T$124, DW_AT_name("CSL_UsbSetupStruct")
    7440                      .dwattr $C$DW$T$124, DW_AT_byte_size(0x06)
    7441              $C$DW$737       .dwtag  DW_TAG_member
    7442                      .dwattr $C$DW$737, DW_AT_type(*$C$DW$T$10)
    7443                      .dwattr $C$DW$737, DW_AT_name("newPacket")
    7444                      .dwattr $C$DW$737, DW_AT_TI_symbol_name("_newPacket")
    7445                      .dwattr $C$DW$737, DW_AT_data_member_location[DW_OP_plus_uconst 0x0]
    7446                      .dwattr $C$DW$737, DW_AT_accessibility(DW_ACCESS_public)
    7447              $C$DW$738       .dwtag  DW_TAG_member
    7448                      .dwattr $C$DW$738, DW_AT_type(*$C$DW$T$19)
    7449                      .dwattr $C$DW$738, DW_AT_name("bmRequestType")
    7450                      .dwattr $C$DW$738, DW_AT_TI_symbol_name("_bmRequestType")
    7451                      .dwattr $C$DW$738, DW_AT_data_member_location[DW_OP_plus_uconst 0x1]
    7452                      .dwattr $C$DW$738, DW_AT_accessibility(DW_ACCESS_public)
    7453              $C$DW$739       .dwtag  DW_TAG_member
    7454                      .dwattr $C$DW$739, DW_AT_type(*$C$DW$T$19)
    7455                      .dwattr $C$DW$739, DW_AT_name("bRequest")
    7456                      .dwattr $C$DW$739, DW_AT_TI_symbol_name("_bRequest")
    7457                      .dwattr $C$DW$739, DW_AT_data_member_location[DW_OP_plus_uconst 0x2]
    7458                      .dwattr $C$DW$739, DW_AT_accessibility(DW_ACCESS_public)
    7459              $C$DW$740       .dwtag  DW_TAG_member
TMS320C55x Assembler PC v4.4.1 Sat Sep 29 23:08:36 2018

Tools Copyright (c) 1996-2012 Texas Instruments Incorporated
csl_usb_intc_example.asm                                             PAGE  172

    7460                      .dwattr $C$DW$740, DW_AT_type(*$C$DW$T$19)
    7461                      .dwattr $C$DW$740, DW_AT_name("wValue")
    7462                      .dwattr $C$DW$740, DW_AT_TI_symbol_name("_wValue")
    7463                      .dwattr $C$DW$740, DW_AT_data_member_location[DW_OP_plus_uconst 0x3]
    7464                      .dwattr $C$DW$740, DW_AT_accessibility(DW_ACCESS_public)
    7465              $C$DW$741       .dwtag  DW_TAG_member
    7466                      .dwattr $C$DW$741, DW_AT_type(*$C$DW$T$19)
    7467                      .dwattr $C$DW$741, DW_AT_name("wIndex")
    7468                      .dwattr $C$DW$741, DW_AT_TI_symbol_name("_wIndex")
    7469                      .dwattr $C$DW$741, DW_AT_data_member_location[DW_OP_plus_uconst 0x4]
    7470                      .dwattr $C$DW$741, DW_AT_accessibility(DW_ACCESS_public)
    7471              $C$DW$742       .dwtag  DW_TAG_member
    7472                      .dwattr $C$DW$742, DW_AT_type(*$C$DW$T$19)
    7473                      .dwattr $C$DW$742, DW_AT_name("wLength")
    7474                      .dwattr $C$DW$742, DW_AT_TI_symbol_name("_wLength")
    7475                      .dwattr $C$DW$742, DW_AT_data_member_location[DW_OP_plus_uconst 0x5]
    7476                      .dwattr $C$DW$742, DW_AT_accessibility(DW_ACCESS_public)
    7477                      .dwendtag $C$DW$T$124
    7478              
    7479              $C$DW$T$101     .dwtag  DW_TAG_typedef, DW_AT_name("CSL_UsbSetupStruct")
    7480                      .dwattr $C$DW$T$101, DW_AT_type(*$C$DW$T$124)
    7481                      .dwattr $C$DW$T$101, DW_AT_language(DW_LANG_C)
    7482              $C$DW$T$151     .dwtag  DW_TAG_pointer_type
    7483                      .dwattr $C$DW$T$151, DW_AT_type(*$C$DW$T$101)
    7484                      .dwattr $C$DW$T$151, DW_AT_address_class(0x17)
    7485              
    7486              $C$DW$T$127     .dwtag  DW_TAG_structure_type
    7487                      .dwattr $C$DW$T$127, DW_AT_name("CSL_UsbTransfer")
    7488                      .dwattr $C$DW$T$127, DW_AT_byte_size(0x0e)
    7489              $C$DW$743       .dwtag  DW_TAG_member
    7490                      .dwattr $C$DW$743, DW_AT_type(*$C$DW$T$88)
    7491                      .dwattr $C$DW$743, DW_AT_name("dwFlags")
    7492                      .dwattr $C$DW$743, DW_AT_TI_symbol_name("_dwFlags")
    7493                      .dwattr $C$DW$743, DW_AT_data_member_location[DW_OP_plus_uconst 0x0]
    7494                      .dwattr $C$DW$743, DW_AT_accessibility(DW_ACCESS_public)
    7495              $C$DW$744       .dwtag  DW_TAG_member
    7496                      .dwattr $C$DW$744, DW_AT_type(*$C$DW$T$88)
    7497                      .dwattr $C$DW$744, DW_AT_name("dwEndpoint")
    7498                      .dwattr $C$DW$744, DW_AT_TI_symbol_name("_dwEndpoint")
    7499                      .dwattr $C$DW$744, DW_AT_data_member_location[DW_OP_plus_uconst 0x2]
    7500                      .dwattr $C$DW$744, DW_AT_accessibility(DW_ACCESS_public)
    7501              $C$DW$745       .dwtag  DW_TAG_member
    7502                      .dwattr $C$DW$745, DW_AT_type(*$C$DW$T$125)
    7503                      .dwattr $C$DW$745, DW_AT_name("pvBuffer")
    7504                      .dwattr $C$DW$745, DW_AT_TI_symbol_name("_pvBuffer")
    7505                      .dwattr $C$DW$745, DW_AT_data_member_location[DW_OP_plus_uconst 0x4]
    7506                      .dwattr $C$DW$745, DW_AT_accessibility(DW_ACCESS_public)
    7507              $C$DW$746       .dwtag  DW_TAG_member
    7508                      .dwattr $C$DW$746, DW_AT_type(*$C$DW$T$88)
    7509                      .dwattr $C$DW$746, DW_AT_name("cbBuffer")
    7510                      .dwattr $C$DW$746, DW_AT_TI_symbol_name("_cbBuffer")
    7511                      .dwattr $C$DW$746, DW_AT_data_member_location[DW_OP_plus_uconst 0x6]
    7512                      .dwattr $C$DW$746, DW_AT_accessibility(DW_ACCESS_public)
    7513              $C$DW$747       .dwtag  DW_TAG_member
    7514                      .dwattr $C$DW$747, DW_AT_type(*$C$DW$T$88)
TMS320C55x Assembler PC v4.4.1 Sat Sep 29 23:08:36 2018

Tools Copyright (c) 1996-2012 Texas Instruments Incorporated
csl_usb_intc_example.asm                                             PAGE  173

    7515                      .dwattr $C$DW$747, DW_AT_name("cbTransferred")
    7516                      .dwattr $C$DW$747, DW_AT_TI_symbol_name("_cbTransferred")
    7517                      .dwattr $C$DW$747, DW_AT_data_member_location[DW_OP_plus_uconst 0x8]
    7518                      .dwattr $C$DW$747, DW_AT_accessibility(DW_ACCESS_public)
    7519              $C$DW$748       .dwtag  DW_TAG_member
    7520                      .dwattr $C$DW$748, DW_AT_type(*$C$DW$T$88)
    7521                      .dwattr $C$DW$748, DW_AT_name("prevTxferLen")
    7522                      .dwattr $C$DW$748, DW_AT_TI_symbol_name("_prevTxferLen")
    7523                      .dwattr $C$DW$748, DW_AT_data_member_location[DW_OP_plus_uconst 0xa]
    7524                      .dwattr $C$DW$748, DW_AT_accessibility(DW_ACCESS_public)
    7525              $C$DW$749       .dwtag  DW_TAG_member
    7526                      .dwattr $C$DW$749, DW_AT_type(*$C$DW$T$86)
    7527                      .dwattr $C$DW$749, DW_AT_name("fComplete")
    7528                      .dwattr $C$DW$749, DW_AT_TI_symbol_name("_fComplete")
    7529                      .dwattr $C$DW$749, DW_AT_data_member_location[DW_OP_plus_uconst 0xc]
    7530                      .dwattr $C$DW$749, DW_AT_accessibility(DW_ACCESS_public)
    7531              $C$DW$750       .dwtag  DW_TAG_member
    7532                      .dwattr $C$DW$750, DW_AT_type(*$C$DW$T$126)
    7533                      .dwattr $C$DW$750, DW_AT_name("ioFlags")
    7534                      .dwattr $C$DW$750, DW_AT_TI_symbol_name("_ioFlags")
    7535                      .dwattr $C$DW$750, DW_AT_data_member_location[DW_OP_plus_uconst 0xd]
    7536                      .dwattr $C$DW$750, DW_AT_accessibility(DW_ACCESS_public)
    7537                      .dwendtag $C$DW$T$127
    7538              
    7539              $C$DW$T$121     .dwtag  DW_TAG_typedef, DW_AT_name("CSL_UsbTransfer")
    7540                      .dwattr $C$DW$T$121, DW_AT_type(*$C$DW$T$127)
    7541                      .dwattr $C$DW$T$121, DW_AT_language(DW_LANG_C)
    7542              $C$DW$T$122     .dwtag  DW_TAG_pointer_type
    7543                      .dwattr $C$DW$T$122, DW_AT_type(*$C$DW$T$121)
    7544                      .dwattr $C$DW$T$122, DW_AT_address_class(0x17)
    7545              $C$DW$T$152     .dwtag  DW_TAG_typedef, DW_AT_name("pUsbTransfer")
    7546                      .dwattr $C$DW$T$152, DW_AT_type(*$C$DW$T$122)
    7547                      .dwattr $C$DW$T$152, DW_AT_language(DW_LANG_C)
    7548              $C$DW$T$3       .dwtag  DW_TAG_pointer_type
    7549                      .dwattr $C$DW$T$3, DW_AT_address_class(0x17)
    7550              $C$DW$T$125     .dwtag  DW_TAG_typedef, DW_AT_name("PVOID")
    7551                      .dwattr $C$DW$T$125, DW_AT_type(*$C$DW$T$3)
    7552                      .dwattr $C$DW$T$125, DW_AT_language(DW_LANG_C)
    7553              
    7554              $C$DW$T$67      .dwtag  DW_TAG_subroutine_type
    7555                      .dwattr $C$DW$T$67, DW_AT_language(DW_LANG_C)
    7556              $C$DW$T$68      .dwtag  DW_TAG_pointer_type
    7557                      .dwattr $C$DW$T$68, DW_AT_type(*$C$DW$T$67)
    7558                      .dwattr $C$DW$T$68, DW_AT_address_class(0x20)
    7559              $C$DW$T$69      .dwtag  DW_TAG_typedef, DW_AT_name("IRQ_IsrPtr")
    7560                      .dwattr $C$DW$T$69, DW_AT_type(*$C$DW$T$68)
    7561                      .dwattr $C$DW$T$69, DW_AT_language(DW_LANG_C)
    7562              
    7563              $C$DW$T$76      .dwtag  DW_TAG_subroutine_type
    7564                      .dwattr $C$DW$T$76, DW_AT_language(DW_LANG_C)
    7565              $C$DW$751       .dwtag  DW_TAG_formal_parameter
    7566                      .dwattr $C$DW$751, DW_AT_type(*$C$DW$T$19)
    7567                      .dwendtag $C$DW$T$76
    7568              
    7569              $C$DW$T$77      .dwtag  DW_TAG_pointer_type
TMS320C55x Assembler PC v4.4.1 Sat Sep 29 23:08:36 2018

Tools Copyright (c) 1996-2012 Texas Instruments Incorporated
csl_usb_intc_example.asm                                             PAGE  174

    7570                      .dwattr $C$DW$T$77, DW_AT_type(*$C$DW$T$76)
    7571                      .dwattr $C$DW$T$77, DW_AT_address_class(0x20)
    7572              $C$DW$T$78      .dwtag  DW_TAG_typedef, DW_AT_name("CSL_USB_APP_CALLBACK")
    7573                      .dwattr $C$DW$T$78, DW_AT_type(*$C$DW$T$77)
    7574                      .dwattr $C$DW$T$78, DW_AT_language(DW_LANG_C)
    7575              
    7576              $C$DW$T$115     .dwtag  DW_TAG_subroutine_type
    7577                      .dwattr $C$DW$T$115, DW_AT_language(DW_LANG_C)
    7578              $C$DW$T$116     .dwtag  DW_TAG_pointer_type
    7579                      .dwattr $C$DW$T$116, DW_AT_type(*$C$DW$T$115)
    7580                      .dwattr $C$DW$T$116, DW_AT_address_class(0x20)
    7581              $C$DW$T$117     .dwtag  DW_TAG_typedef, DW_AT_name("CSL_USB_EVENT_ISR")
    7582                      .dwattr $C$DW$T$117, DW_AT_type(*$C$DW$T$116)
    7583                      .dwattr $C$DW$T$117, DW_AT_language(DW_LANG_C)
    7584              $C$DW$752       .dwtag  DW_TAG_TI_far_type
    7585              $C$DW$T$153     .dwtag  DW_TAG_const_type
    7586                      .dwattr $C$DW$T$153, DW_AT_type(*$C$DW$752)
    7587              $C$DW$T$154     .dwtag  DW_TAG_pointer_type
    7588                      .dwattr $C$DW$T$154, DW_AT_type(*$C$DW$T$153)
    7589                      .dwattr $C$DW$T$154, DW_AT_address_class(0x17)
    7590              $C$DW$T$4       .dwtag  DW_TAG_base_type
    7591                      .dwattr $C$DW$T$4, DW_AT_encoding(DW_ATE_boolean)
    7592                      .dwattr $C$DW$T$4, DW_AT_name("bool")
    7593                      .dwattr $C$DW$T$4, DW_AT_byte_size(0x01)
    7594              $C$DW$T$5       .dwtag  DW_TAG_base_type
    7595                      .dwattr $C$DW$T$5, DW_AT_encoding(DW_ATE_signed_char)
    7596                      .dwattr $C$DW$T$5, DW_AT_name("signed char")
    7597                      .dwattr $C$DW$T$5, DW_AT_byte_size(0x01)
    7598              $C$DW$T$6       .dwtag  DW_TAG_base_type
    7599                      .dwattr $C$DW$T$6, DW_AT_encoding(DW_ATE_unsigned_char)
    7600                      .dwattr $C$DW$T$6, DW_AT_name("unsigned char")
    7601                      .dwattr $C$DW$T$6, DW_AT_byte_size(0x01)
    7602              $C$DW$T$7       .dwtag  DW_TAG_base_type
    7603                      .dwattr $C$DW$T$7, DW_AT_encoding(DW_ATE_signed_char)
    7604                      .dwattr $C$DW$T$7, DW_AT_name("wchar_t")
    7605                      .dwattr $C$DW$T$7, DW_AT_byte_size(0x01)
    7606              $C$DW$T$8       .dwtag  DW_TAG_base_type
    7607                      .dwattr $C$DW$T$8, DW_AT_encoding(DW_ATE_signed)
    7608                      .dwattr $C$DW$T$8, DW_AT_name("short")
    7609                      .dwattr $C$DW$T$8, DW_AT_byte_size(0x01)
    7610              $C$DW$T$79      .dwtag  DW_TAG_typedef, DW_AT_name("Int16")
    7611                      .dwattr $C$DW$T$79, DW_AT_type(*$C$DW$T$8)
    7612                      .dwattr $C$DW$T$79, DW_AT_language(DW_LANG_C)
    7613              $C$DW$T$80      .dwtag  DW_TAG_typedef, DW_AT_name("CSL_Status")
    7614                      .dwattr $C$DW$T$80, DW_AT_type(*$C$DW$T$79)
    7615                      .dwattr $C$DW$T$80, DW_AT_language(DW_LANG_C)
    7616              
    7617              $C$DW$T$81      .dwtag  DW_TAG_subroutine_type
    7618                      .dwattr $C$DW$T$81, DW_AT_type(*$C$DW$T$80)
    7619                      .dwattr $C$DW$T$81, DW_AT_language(DW_LANG_C)
    7620              $C$DW$753       .dwtag  DW_TAG_formal_parameter
    7621                      .dwattr $C$DW$753, DW_AT_type(*$C$DW$T$3)
    7622              $C$DW$754       .dwtag  DW_TAG_formal_parameter
    7623                      .dwattr $C$DW$754, DW_AT_type(*$C$DW$T$3)
    7624                      .dwendtag $C$DW$T$81
TMS320C55x Assembler PC v4.4.1 Sat Sep 29 23:08:36 2018

Tools Copyright (c) 1996-2012 Texas Instruments Incorporated
csl_usb_intc_example.asm                                             PAGE  175

    7625              
    7626              $C$DW$T$82      .dwtag  DW_TAG_pointer_type
    7627                      .dwattr $C$DW$T$82, DW_AT_type(*$C$DW$T$81)
    7628                      .dwattr $C$DW$T$82, DW_AT_address_class(0x20)
    7629              $C$DW$T$83      .dwtag  DW_TAG_typedef, DW_AT_name("CSL_USB_APP_TRANSFER_CALLBACK")
    7630                      .dwattr $C$DW$T$83, DW_AT_type(*$C$DW$T$82)
    7631                      .dwattr $C$DW$T$83, DW_AT_language(DW_LANG_C)
    7632              $C$DW$T$128     .dwtag  DW_TAG_pointer_type
    7633                      .dwattr $C$DW$T$128, DW_AT_type(*$C$DW$T$80)
    7634                      .dwattr $C$DW$T$128, DW_AT_address_class(0x17)
    7635              $C$DW$755       .dwtag  DW_TAG_TI_far_type
    7636                      .dwattr $C$DW$755, DW_AT_type(*$C$DW$T$79)
    7637              $C$DW$T$190     .dwtag  DW_TAG_volatile_type
    7638                      .dwattr $C$DW$T$190, DW_AT_type(*$C$DW$755)
    7639              $C$DW$T$9       .dwtag  DW_TAG_base_type
    7640                      .dwattr $C$DW$T$9, DW_AT_encoding(DW_ATE_unsigned)
    7641                      .dwattr $C$DW$T$9, DW_AT_name("unsigned short")
    7642                      .dwattr $C$DW$T$9, DW_AT_byte_size(0x01)
    7643              $C$DW$T$19      .dwtag  DW_TAG_typedef, DW_AT_name("Uint16")
    7644                      .dwattr $C$DW$T$19, DW_AT_type(*$C$DW$T$9)
    7645                      .dwattr $C$DW$T$19, DW_AT_language(DW_LANG_C)
    7646              $C$DW$T$191     .dwtag  DW_TAG_typedef, DW_AT_name("CSL_UsbByteCount")
    7647                      .dwattr $C$DW$T$191, DW_AT_type(*$C$DW$T$19)
    7648                      .dwattr $C$DW$T$191, DW_AT_language(DW_LANG_C)
    7649              $C$DW$T$126     .dwtag  DW_TAG_typedef, DW_AT_name("CSL_UsbIoFlags")
    7650                      .dwattr $C$DW$T$126, DW_AT_type(*$C$DW$T$19)
    7651                      .dwattr $C$DW$T$126, DW_AT_language(DW_LANG_C)
    7652              $C$DW$756       .dwtag  DW_TAG_TI_far_type
    7653                      .dwattr $C$DW$756, DW_AT_type(*$C$DW$T$19)
    7654              $C$DW$T$20      .dwtag  DW_TAG_volatile_type
    7655                      .dwattr $C$DW$T$20, DW_AT_type(*$C$DW$756)
    7656              
    7657              $C$DW$T$21      .dwtag  DW_TAG_array_type
    7658                      .dwattr $C$DW$T$21, DW_AT_type(*$C$DW$T$20)
    7659                      .dwattr $C$DW$T$21, DW_AT_language(DW_LANG_C)
    7660                      .dwattr $C$DW$T$21, DW_AT_byte_size(0x02)
    7661              $C$DW$757       .dwtag  DW_TAG_subrange_type
    7662                      .dwattr $C$DW$757, DW_AT_upper_bound(0x01)
    7663                      .dwendtag $C$DW$T$21
    7664              
    7665              
    7666              $C$DW$T$23      .dwtag  DW_TAG_array_type
    7667                      .dwattr $C$DW$T$23, DW_AT_type(*$C$DW$T$20)
    7668                      .dwattr $C$DW$T$23, DW_AT_language(DW_LANG_C)
    7669                      .dwattr $C$DW$T$23, DW_AT_byte_size(0x07)
    7670              $C$DW$758       .dwtag  DW_TAG_subrange_type
    7671                      .dwattr $C$DW$758, DW_AT_upper_bound(0x06)
    7672                      .dwendtag $C$DW$T$23
    7673              
    7674              
    7675              $C$DW$T$25      .dwtag  DW_TAG_array_type
    7676                      .dwattr $C$DW$T$25, DW_AT_type(*$C$DW$T$20)
    7677                      .dwattr $C$DW$T$25, DW_AT_language(DW_LANG_C)
    7678                      .dwattr $C$DW$T$25, DW_AT_byte_size(0x06)
    7679              $C$DW$759       .dwtag  DW_TAG_subrange_type
TMS320C55x Assembler PC v4.4.1 Sat Sep 29 23:08:36 2018

Tools Copyright (c) 1996-2012 Texas Instruments Incorporated
csl_usb_intc_example.asm                                             PAGE  176

    7680                      .dwattr $C$DW$759, DW_AT_upper_bound(0x05)
    7681                      .dwendtag $C$DW$T$25
    7682              
    7683              
    7684              $C$DW$T$26      .dwtag  DW_TAG_array_type
    7685                      .dwattr $C$DW$T$26, DW_AT_type(*$C$DW$T$20)
    7686                      .dwattr $C$DW$T$26, DW_AT_language(DW_LANG_C)
    7687                      .dwattr $C$DW$T$26, DW_AT_byte_size(0x0e)
    7688              $C$DW$760       .dwtag  DW_TAG_subrange_type
    7689                      .dwattr $C$DW$760, DW_AT_upper_bound(0x0d)
    7690                      .dwendtag $C$DW$T$26
    7691              
    7692              
    7693              $C$DW$T$29      .dwtag  DW_TAG_array_type
    7694                      .dwattr $C$DW$T$29, DW_AT_type(*$C$DW$T$20)
    7695                      .dwattr $C$DW$T$29, DW_AT_language(DW_LANG_C)
    7696                      .dwattr $C$DW$T$29, DW_AT_byte_size(0x0a)
    7697              $C$DW$761       .dwtag  DW_TAG_subrange_type
    7698                      .dwattr $C$DW$761, DW_AT_upper_bound(0x09)
    7699                      .dwendtag $C$DW$T$29
    7700              
    7701              
    7702              $C$DW$T$31      .dwtag  DW_TAG_array_type
    7703                      .dwattr $C$DW$T$31, DW_AT_type(*$C$DW$T$20)
    7704                      .dwattr $C$DW$T$31, DW_AT_language(DW_LANG_C)
    7705                      .dwattr $C$DW$T$31, DW_AT_byte_size(0x0c)
    7706              $C$DW$762       .dwtag  DW_TAG_subrange_type
    7707                      .dwattr $C$DW$762, DW_AT_upper_bound(0x0b)
    7708                      .dwendtag $C$DW$T$31
    7709              
    7710              
    7711              $C$DW$T$33      .dwtag  DW_TAG_array_type
    7712                      .dwattr $C$DW$T$33, DW_AT_type(*$C$DW$T$20)
    7713                      .dwattr $C$DW$T$33, DW_AT_language(DW_LANG_C)
    7714                      .dwattr $C$DW$T$33, DW_AT_byte_size(0x03)
    7715              $C$DW$763       .dwtag  DW_TAG_subrange_type
    7716                      .dwattr $C$DW$763, DW_AT_upper_bound(0x02)
    7717                      .dwendtag $C$DW$T$33
    7718              
    7719              
    7720              $C$DW$T$35      .dwtag  DW_TAG_array_type
    7721                      .dwattr $C$DW$T$35, DW_AT_type(*$C$DW$T$20)
    7722                      .dwattr $C$DW$T$35, DW_AT_language(DW_LANG_C)
    7723                      .dwattr $C$DW$T$35, DW_AT_byte_size(0x3a3)
    7724              $C$DW$764       .dwtag  DW_TAG_subrange_type
    7725                      .dwattr $C$DW$764, DW_AT_upper_bound(0x3a2)
    7726                      .dwendtag $C$DW$T$35
    7727              
    7728              
    7729              $C$DW$T$36      .dwtag  DW_TAG_array_type
    7730                      .dwattr $C$DW$T$36, DW_AT_type(*$C$DW$T$20)
    7731                      .dwattr $C$DW$T$36, DW_AT_language(DW_LANG_C)
    7732                      .dwattr $C$DW$T$36, DW_AT_byte_size(0x04)
    7733              $C$DW$765       .dwtag  DW_TAG_subrange_type
    7734                      .dwattr $C$DW$765, DW_AT_upper_bound(0x03)
TMS320C55x Assembler PC v4.4.1 Sat Sep 29 23:08:36 2018

Tools Copyright (c) 1996-2012 Texas Instruments Incorporated
csl_usb_intc_example.asm                                             PAGE  177

    7735                      .dwendtag $C$DW$T$36
    7736              
    7737              
    7738              $C$DW$T$37      .dwtag  DW_TAG_array_type
    7739                      .dwattr $C$DW$T$37, DW_AT_type(*$C$DW$T$20)
    7740                      .dwattr $C$DW$T$37, DW_AT_language(DW_LANG_C)
    7741                      .dwattr $C$DW$T$37, DW_AT_byte_size(0x2e)
    7742              $C$DW$766       .dwtag  DW_TAG_subrange_type
    7743                      .dwattr $C$DW$766, DW_AT_upper_bound(0x2d)
    7744                      .dwendtag $C$DW$T$37
    7745              
    7746              
    7747              $C$DW$T$38      .dwtag  DW_TAG_array_type
    7748                      .dwattr $C$DW$T$38, DW_AT_type(*$C$DW$T$20)
    7749                      .dwattr $C$DW$T$38, DW_AT_language(DW_LANG_C)
    7750                      .dwattr $C$DW$T$38, DW_AT_byte_size(0x13)
    7751              $C$DW$767       .dwtag  DW_TAG_subrange_type
    7752                      .dwattr $C$DW$767, DW_AT_upper_bound(0x12)
    7753                      .dwendtag $C$DW$T$38
    7754              
    7755              
    7756              $C$DW$T$41      .dwtag  DW_TAG_array_type
    7757                      .dwattr $C$DW$T$41, DW_AT_type(*$C$DW$T$20)
    7758                      .dwattr $C$DW$T$41, DW_AT_language(DW_LANG_C)
    7759                      .dwattr $C$DW$T$41, DW_AT_byte_size(0x59)
    7760              $C$DW$768       .dwtag  DW_TAG_subrange_type
    7761                      .dwattr $C$DW$768, DW_AT_upper_bound(0x58)
    7762                      .dwendtag $C$DW$T$41
    7763              
    7764              
    7765              $C$DW$T$44      .dwtag  DW_TAG_array_type
    7766                      .dwattr $C$DW$T$44, DW_AT_type(*$C$DW$T$20)
    7767                      .dwattr $C$DW$T$44, DW_AT_language(DW_LANG_C)
    7768                      .dwattr $C$DW$T$44, DW_AT_byte_size(0xaaf)
    7769              $C$DW$769       .dwtag  DW_TAG_subrange_type
    7770                      .dwattr $C$DW$769, DW_AT_upper_bound(0xaae)
    7771                      .dwendtag $C$DW$T$44
    7772              
    7773              
    7774              $C$DW$T$45      .dwtag  DW_TAG_array_type
    7775                      .dwattr $C$DW$T$45, DW_AT_type(*$C$DW$T$20)
    7776                      .dwattr $C$DW$T$45, DW_AT_language(DW_LANG_C)
    7777                      .dwattr $C$DW$T$45, DW_AT_byte_size(0x7f7)
    7778              $C$DW$770       .dwtag  DW_TAG_subrange_type
    7779                      .dwattr $C$DW$770, DW_AT_upper_bound(0x7f6)
    7780                      .dwendtag $C$DW$T$45
    7781              
    7782              
    7783              $C$DW$T$48      .dwtag  DW_TAG_array_type
    7784                      .dwattr $C$DW$T$48, DW_AT_type(*$C$DW$T$20)
    7785                      .dwattr $C$DW$T$48, DW_AT_language(DW_LANG_C)
    7786                      .dwattr $C$DW$T$48, DW_AT_byte_size(0x780)
    7787              $C$DW$771       .dwtag  DW_TAG_subrange_type
    7788                      .dwattr $C$DW$771, DW_AT_upper_bound(0x77f)
    7789                      .dwendtag $C$DW$T$48
TMS320C55x Assembler PC v4.4.1 Sat Sep 29 23:08:36 2018

Tools Copyright (c) 1996-2012 Texas Instruments Incorporated
csl_usb_intc_example.asm                                             PAGE  178

    7790              
    7791              
    7792              $C$DW$T$49      .dwtag  DW_TAG_array_type
    7793                      .dwattr $C$DW$T$49, DW_AT_type(*$C$DW$T$20)
    7794                      .dwattr $C$DW$T$49, DW_AT_language(DW_LANG_C)
    7795                      .dwattr $C$DW$T$49, DW_AT_byte_size(0x7fe)
    7796              $C$DW$772       .dwtag  DW_TAG_subrange_type
    7797                      .dwattr $C$DW$772, DW_AT_upper_bound(0x7fd)
    7798                      .dwendtag $C$DW$T$49
    7799              
    7800              
    7801              $C$DW$T$52      .dwtag  DW_TAG_array_type
    7802                      .dwattr $C$DW$T$52, DW_AT_type(*$C$DW$T$20)
    7803                      .dwattr $C$DW$T$52, DW_AT_language(DW_LANG_C)
    7804                      .dwattr $C$DW$T$52, DW_AT_byte_size(0x1700)
    7805              $C$DW$773       .dwtag  DW_TAG_subrange_type
    7806                      .dwattr $C$DW$773, DW_AT_upper_bound(0x16ff)
    7807                      .dwendtag $C$DW$T$52
    7808              
    7809              
    7810              $C$DW$T$53      .dwtag  DW_TAG_array_type
    7811                      .dwattr $C$DW$T$53, DW_AT_type(*$C$DW$T$20)
    7812                      .dwattr $C$DW$T$53, DW_AT_language(DW_LANG_C)
    7813                      .dwattr $C$DW$T$53, DW_AT_byte_size(0x16)
    7814              $C$DW$774       .dwtag  DW_TAG_subrange_type
    7815                      .dwattr $C$DW$774, DW_AT_upper_bound(0x15)
    7816                      .dwendtag $C$DW$T$53
    7817              
    7818              
    7819              $C$DW$T$54      .dwtag  DW_TAG_array_type
    7820                      .dwattr $C$DW$T$54, DW_AT_type(*$C$DW$T$20)
    7821                      .dwattr $C$DW$T$54, DW_AT_language(DW_LANG_C)
    7822                      .dwattr $C$DW$T$54, DW_AT_byte_size(0x52)
    7823              $C$DW$775       .dwtag  DW_TAG_subrange_type
    7824                      .dwattr $C$DW$775, DW_AT_upper_bound(0x51)
    7825                      .dwendtag $C$DW$T$54
    7826              
    7827              
    7828              $C$DW$T$55      .dwtag  DW_TAG_array_type
    7829                      .dwattr $C$DW$T$55, DW_AT_type(*$C$DW$T$20)
    7830                      .dwattr $C$DW$T$55, DW_AT_language(DW_LANG_C)
    7831                      .dwattr $C$DW$T$55, DW_AT_byte_size(0xf66)
    7832              $C$DW$776       .dwtag  DW_TAG_subrange_type
    7833                      .dwattr $C$DW$776, DW_AT_upper_bound(0xf65)
    7834                      .dwendtag $C$DW$T$55
    7835              
    7836              
    7837              $C$DW$T$58      .dwtag  DW_TAG_array_type
    7838                      .dwattr $C$DW$T$58, DW_AT_type(*$C$DW$T$20)
    7839                      .dwattr $C$DW$T$58, DW_AT_language(DW_LANG_C)
    7840                      .dwattr $C$DW$T$58, DW_AT_byte_size(0xf00)
    7841              $C$DW$777       .dwtag  DW_TAG_subrange_type
    7842                      .dwattr $C$DW$777, DW_AT_upper_bound(0xeff)
    7843                      .dwendtag $C$DW$T$58
    7844              
TMS320C55x Assembler PC v4.4.1 Sat Sep 29 23:08:36 2018

Tools Copyright (c) 1996-2012 Texas Instruments Incorporated
csl_usb_intc_example.asm                                             PAGE  179

    7845              
    7846              $C$DW$T$61      .dwtag  DW_TAG_array_type
    7847                      .dwattr $C$DW$T$61, DW_AT_type(*$C$DW$T$20)
    7848                      .dwattr $C$DW$T$61, DW_AT_language(DW_LANG_C)
    7849                      .dwattr $C$DW$T$61, DW_AT_byte_size(0x400)
    7850              $C$DW$778       .dwtag  DW_TAG_subrange_type
    7851                      .dwattr $C$DW$778, DW_AT_upper_bound(0x3ff)
    7852                      .dwendtag $C$DW$T$61
    7853              
    7854              
    7855              $C$DW$T$65      .dwtag  DW_TAG_array_type
    7856                      .dwattr $C$DW$T$65, DW_AT_type(*$C$DW$T$20)
    7857                      .dwattr $C$DW$T$65, DW_AT_language(DW_LANG_C)
    7858                      .dwattr $C$DW$T$65, DW_AT_byte_size(0x05)
    7859              $C$DW$779       .dwtag  DW_TAG_subrange_type
    7860                      .dwattr $C$DW$779, DW_AT_upper_bound(0x04)
    7861                      .dwendtag $C$DW$T$65
    7862              
    7863              $C$DW$780       .dwtag  DW_TAG_TI_far_type
    7864                      .dwattr $C$DW$780, DW_AT_type(*$C$DW$T$19)
    7865              $C$DW$781       .dwtag  DW_TAG_TI_ioport_type
    7866                      .dwattr $C$DW$781, DW_AT_type(*$C$DW$780)
    7867              $C$DW$T$194     .dwtag  DW_TAG_volatile_type
    7868                      .dwattr $C$DW$T$194, DW_AT_type(*$C$DW$781)
    7869              $C$DW$T$195     .dwtag  DW_TAG_pointer_type
    7870                      .dwattr $C$DW$T$195, DW_AT_type(*$C$DW$T$194)
    7871                      .dwattr $C$DW$T$195, DW_AT_address_class(0x10)
    7872              $C$DW$T$85      .dwtag  DW_TAG_typedef, DW_AT_name("WORD")
    7873                      .dwattr $C$DW$T$85, DW_AT_type(*$C$DW$T$19)
    7874                      .dwattr $C$DW$T$85, DW_AT_language(DW_LANG_C)
    7875              $C$DW$T$87      .dwtag  DW_TAG_pointer_type
    7876                      .dwattr $C$DW$T$87, DW_AT_type(*$C$DW$T$85)
    7877                      .dwattr $C$DW$T$87, DW_AT_address_class(0x17)
    7878              $C$DW$T$102     .dwtag  DW_TAG_pointer_type
    7879                      .dwattr $C$DW$T$102, DW_AT_type(*$C$DW$T$19)
    7880                      .dwattr $C$DW$T$102, DW_AT_address_class(0x17)
    7881              $C$DW$T$196     .dwtag  DW_TAG_typedef, DW_AT_name("PWORD")
    7882                      .dwattr $C$DW$T$196, DW_AT_type(*$C$DW$T$102)
    7883                      .dwattr $C$DW$T$196, DW_AT_language(DW_LANG_C)
    7884              
    7885              $C$DW$T$103     .dwtag  DW_TAG_array_type
    7886                      .dwattr $C$DW$T$103, DW_AT_type(*$C$DW$T$102)
    7887                      .dwattr $C$DW$T$103, DW_AT_language(DW_LANG_C)
    7888                      .dwattr $C$DW$T$103, DW_AT_byte_size(0x08)
    7889              $C$DW$782       .dwtag  DW_TAG_subrange_type
    7890                      .dwattr $C$DW$782, DW_AT_upper_bound(0x03)
    7891                      .dwendtag $C$DW$T$103
    7892              
    7893              
    7894              $C$DW$T$199     .dwtag  DW_TAG_array_type
    7895                      .dwattr $C$DW$T$199, DW_AT_type(*$C$DW$T$19)
    7896                      .dwattr $C$DW$T$199, DW_AT_language(DW_LANG_C)
    7897                      .dwattr $C$DW$T$199, DW_AT_byte_size(0x100)
    7898              $C$DW$783       .dwtag  DW_TAG_subrange_type
    7899                      .dwattr $C$DW$783, DW_AT_upper_bound(0xff)
TMS320C55x Assembler PC v4.4.1 Sat Sep 29 23:08:36 2018

Tools Copyright (c) 1996-2012 Texas Instruments Incorporated
csl_usb_intc_example.asm                                             PAGE  180

    7900                      .dwendtag $C$DW$T$199
    7901              
    7902              
    7903              $C$DW$T$201     .dwtag  DW_TAG_array_type
    7904                      .dwattr $C$DW$T$201, DW_AT_type(*$C$DW$T$19)
    7905                      .dwattr $C$DW$T$201, DW_AT_language(DW_LANG_C)
    7906                      .dwattr $C$DW$T$201, DW_AT_byte_size(0x09)
    7907              $C$DW$784       .dwtag  DW_TAG_subrange_type
    7908                      .dwattr $C$DW$784, DW_AT_upper_bound(0x08)
    7909                      .dwendtag $C$DW$T$201
    7910              
    7911              
    7912              $C$DW$T$202     .dwtag  DW_TAG_array_type
    7913                      .dwattr $C$DW$T$202, DW_AT_type(*$C$DW$T$19)
    7914                      .dwattr $C$DW$T$202, DW_AT_language(DW_LANG_C)
    7915                      .dwattr $C$DW$T$202, DW_AT_byte_size(0x28)
    7916              $C$DW$785       .dwtag  DW_TAG_subrange_type
    7917                      .dwattr $C$DW$785, DW_AT_upper_bound(0x27)
    7918                      .dwendtag $C$DW$T$202
    7919              
    7920              
    7921              $C$DW$T$203     .dwtag  DW_TAG_array_type
    7922                      .dwattr $C$DW$T$203, DW_AT_type(*$C$DW$T$19)
    7923                      .dwattr $C$DW$T$203, DW_AT_language(DW_LANG_C)
    7924                      .dwattr $C$DW$T$203, DW_AT_byte_size(0x14)
    7925              $C$DW$786       .dwtag  DW_TAG_subrange_type
    7926                      .dwattr $C$DW$786, DW_AT_upper_bound(0x13)
    7927                      .dwendtag $C$DW$T$203
    7928              
    7929              
    7930              $C$DW$T$204     .dwtag  DW_TAG_array_type
    7931                      .dwattr $C$DW$T$204, DW_AT_type(*$C$DW$T$19)
    7932                      .dwattr $C$DW$T$204, DW_AT_language(DW_LANG_C)
    7933                      .dwattr $C$DW$T$204, DW_AT_byte_size(0x50)
    7934              $C$DW$787       .dwtag  DW_TAG_subrange_type
    7935                      .dwattr $C$DW$787, DW_AT_upper_bound(0x03)
    7936              $C$DW$788       .dwtag  DW_TAG_subrange_type
    7937                      .dwattr $C$DW$788, DW_AT_upper_bound(0x13)
    7938                      .dwendtag $C$DW$T$204
    7939              
    7940              $C$DW$T$10      .dwtag  DW_TAG_base_type
    7941                      .dwattr $C$DW$T$10, DW_AT_encoding(DW_ATE_signed)
    7942                      .dwattr $C$DW$T$10, DW_AT_name("int")
    7943                      .dwattr $C$DW$T$10, DW_AT_byte_size(0x01)
    7944              $C$DW$T$86      .dwtag  DW_TAG_typedef, DW_AT_name("Bool")
    7945                      .dwattr $C$DW$T$86, DW_AT_type(*$C$DW$T$10)
    7946                      .dwattr $C$DW$T$86, DW_AT_language(DW_LANG_C)
    7947              $C$DW$789       .dwtag  DW_TAG_TI_far_type
    7948                      .dwattr $C$DW$789, DW_AT_type(*$C$DW$T$86)
    7949              $C$DW$T$206     .dwtag  DW_TAG_volatile_type
    7950                      .dwattr $C$DW$T$206, DW_AT_type(*$C$DW$789)
    7951              $C$DW$T$11      .dwtag  DW_TAG_base_type
    7952                      .dwattr $C$DW$T$11, DW_AT_encoding(DW_ATE_unsigned)
    7953                      .dwattr $C$DW$T$11, DW_AT_name("unsigned int")
    7954                      .dwattr $C$DW$T$11, DW_AT_byte_size(0x01)
TMS320C55x Assembler PC v4.4.1 Sat Sep 29 23:08:36 2018

Tools Copyright (c) 1996-2012 Texas Instruments Incorporated
csl_usb_intc_example.asm                                             PAGE  181

    7955              $C$DW$T$12      .dwtag  DW_TAG_base_type
    7956                      .dwattr $C$DW$T$12, DW_AT_encoding(DW_ATE_signed)
    7957                      .dwattr $C$DW$T$12, DW_AT_name("long")
    7958                      .dwattr $C$DW$T$12, DW_AT_byte_size(0x02)
    7959              $C$DW$T$13      .dwtag  DW_TAG_base_type
    7960                      .dwattr $C$DW$T$13, DW_AT_encoding(DW_ATE_unsigned)
    7961                      .dwattr $C$DW$T$13, DW_AT_name("unsigned long")
    7962                      .dwattr $C$DW$T$13, DW_AT_byte_size(0x02)
    7963              $C$DW$T$70      .dwtag  DW_TAG_typedef, DW_AT_name("Uint32")
    7964                      .dwattr $C$DW$T$70, DW_AT_type(*$C$DW$T$13)
    7965                      .dwattr $C$DW$T$70, DW_AT_language(DW_LANG_C)
    7966              $C$DW$T$88      .dwtag  DW_TAG_typedef, DW_AT_name("DWORD")
    7967                      .dwattr $C$DW$T$88, DW_AT_type(*$C$DW$T$70)
    7968                      .dwattr $C$DW$T$88, DW_AT_language(DW_LANG_C)
    7969              $C$DW$T$89      .dwtag  DW_TAG_pointer_type
    7970                      .dwattr $C$DW$T$89, DW_AT_type(*$C$DW$T$88)
    7971                      .dwattr $C$DW$T$89, DW_AT_address_class(0x17)
    7972              
    7973              $C$DW$T$90      .dwtag  DW_TAG_array_type
    7974                      .dwattr $C$DW$T$90, DW_AT_type(*$C$DW$T$88)
    7975                      .dwattr $C$DW$T$90, DW_AT_language(DW_LANG_C)
    7976                      .dwattr $C$DW$T$90, DW_AT_byte_size(0x40)
    7977              $C$DW$790       .dwtag  DW_TAG_subrange_type
    7978                      .dwattr $C$DW$790, DW_AT_upper_bound(0x1f)
    7979                      .dwendtag $C$DW$T$90
    7980              
    7981              $C$DW$791       .dwtag  DW_TAG_TI_far_type
    7982                      .dwattr $C$DW$791, DW_AT_type(*$C$DW$T$70)
    7983              $C$DW$T$221     .dwtag  DW_TAG_volatile_type
    7984                      .dwattr $C$DW$T$221, DW_AT_type(*$C$DW$791)
    7985              $C$DW$T$14      .dwtag  DW_TAG_base_type
    7986                      .dwattr $C$DW$T$14, DW_AT_encoding(DW_ATE_signed)
    7987                      .dwattr $C$DW$T$14, DW_AT_name("long long")
    7988                      .dwattr $C$DW$T$14, DW_AT_byte_size(0x04)
    7989                      .dwattr $C$DW$T$14, DW_AT_bit_size(0x28)
    7990                      .dwattr $C$DW$T$14, DW_AT_bit_offset(0x18)
    7991              $C$DW$T$15      .dwtag  DW_TAG_base_type
    7992                      .dwattr $C$DW$T$15, DW_AT_encoding(DW_ATE_unsigned)
    7993                      .dwattr $C$DW$T$15, DW_AT_name("unsigned long long")
    7994                      .dwattr $C$DW$T$15, DW_AT_byte_size(0x04)
    7995                      .dwattr $C$DW$T$15, DW_AT_bit_size(0x28)
    7996                      .dwattr $C$DW$T$15, DW_AT_bit_offset(0x18)
    7997              $C$DW$T$16      .dwtag  DW_TAG_base_type
    7998                      .dwattr $C$DW$T$16, DW_AT_encoding(DW_ATE_float)
    7999                      .dwattr $C$DW$T$16, DW_AT_name("float")
    8000                      .dwattr $C$DW$T$16, DW_AT_byte_size(0x02)
    8001              $C$DW$T$17      .dwtag  DW_TAG_base_type
    8002                      .dwattr $C$DW$T$17, DW_AT_encoding(DW_ATE_float)
    8003                      .dwattr $C$DW$T$17, DW_AT_name("double")
    8004                      .dwattr $C$DW$T$17, DW_AT_byte_size(0x02)
    8005              $C$DW$T$18      .dwtag  DW_TAG_base_type
    8006                      .dwattr $C$DW$T$18, DW_AT_encoding(DW_ATE_float)
    8007                      .dwattr $C$DW$T$18, DW_AT_name("long double")
    8008                      .dwattr $C$DW$T$18, DW_AT_byte_size(0x02)
    8009              $C$DW$T$211     .dwtag  DW_TAG_base_type
TMS320C55x Assembler PC v4.4.1 Sat Sep 29 23:08:36 2018

Tools Copyright (c) 1996-2012 Texas Instruments Incorporated
csl_usb_intc_example.asm                                             PAGE  182

    8010                      .dwattr $C$DW$T$211, DW_AT_encoding(DW_ATE_signed_char)
    8011                      .dwattr $C$DW$T$211, DW_AT_name("signed char")
    8012                      .dwattr $C$DW$T$211, DW_AT_byte_size(0x01)
    8013              $C$DW$792       .dwtag  DW_TAG_TI_far_type
    8014                      .dwattr $C$DW$792, DW_AT_type(*$C$DW$T$211)
    8015              $C$DW$T$212     .dwtag  DW_TAG_const_type
    8016                      .dwattr $C$DW$T$212, DW_AT_type(*$C$DW$792)
    8017              $C$DW$T$213     .dwtag  DW_TAG_pointer_type
    8018                      .dwattr $C$DW$T$213, DW_AT_type(*$C$DW$T$212)
    8019                      .dwattr $C$DW$T$213, DW_AT_address_class(0x17)
    8020                      .dwattr $C$DW$CU, DW_AT_language(DW_LANG_C)
    8021              
    8022              ;***************************************************************
    8023              ;* DWARF CIE ENTRIES                                           *
    8024              ;***************************************************************
    8025              
    8026              $C$DW$CIE       .dwcie 91
    8027                      .dwcfi  cfa_register, 36
    8028                      .dwcfi  cfa_offset, 0
    8029                      .dwcfi  undefined, 0
    8030                      .dwcfi  undefined, 1
    8031                      .dwcfi  undefined, 2
    8032                      .dwcfi  undefined, 3
    8033                      .dwcfi  undefined, 4
    8034                      .dwcfi  undefined, 5
    8035                      .dwcfi  undefined, 6
    8036                      .dwcfi  undefined, 7
    8037                      .dwcfi  undefined, 8
    8038                      .dwcfi  undefined, 9
    8039                      .dwcfi  undefined, 10
    8040                      .dwcfi  undefined, 11
    8041                      .dwcfi  undefined, 12
    8042                      .dwcfi  undefined, 13
    8043                      .dwcfi  same_value, 14
    8044                      .dwcfi  same_value, 15
    8045                      .dwcfi  undefined, 16
    8046                      .dwcfi  undefined, 17
    8047                      .dwcfi  undefined, 18
    8048                      .dwcfi  undefined, 19
    8049                      .dwcfi  undefined, 20
    8050                      .dwcfi  undefined, 21
    8051                      .dwcfi  undefined, 22
    8052                      .dwcfi  undefined, 23
    8053                      .dwcfi  undefined, 24
    8054                      .dwcfi  undefined, 25
    8055                      .dwcfi  same_value, 26
    8056                      .dwcfi  same_value, 27
    8057                      .dwcfi  same_value, 28
    8058                      .dwcfi  same_value, 29
    8059                      .dwcfi  same_value, 30
    8060                      .dwcfi  same_value, 31
    8061                      .dwcfi  undefined, 32
    8062                      .dwcfi  undefined, 33
    8063                      .dwcfi  undefined, 34
    8064                      .dwcfi  undefined, 35
TMS320C55x Assembler PC v4.4.1 Sat Sep 29 23:08:36 2018

Tools Copyright (c) 1996-2012 Texas Instruments Incorporated
csl_usb_intc_example.asm                                             PAGE  183

    8065                      .dwcfi  undefined, 36
    8066                      .dwcfi  undefined, 37
    8067                      .dwcfi  undefined, 38
    8068                      .dwcfi  undefined, 39
    8069                      .dwcfi  undefined, 40
    8070                      .dwcfi  undefined, 41
    8071                      .dwcfi  undefined, 42
    8072                      .dwcfi  undefined, 43
    8073                      .dwcfi  undefined, 44
    8074                      .dwcfi  undefined, 45
    8075                      .dwcfi  undefined, 46
    8076                      .dwcfi  undefined, 47
    8077                      .dwcfi  undefined, 48
    8078                      .dwcfi  undefined, 49
    8079                      .dwcfi  undefined, 50
    8080                      .dwcfi  undefined, 51
    8081                      .dwcfi  undefined, 52
    8082                      .dwcfi  undefined, 53
    8083                      .dwcfi  undefined, 54
    8084                      .dwcfi  undefined, 55
    8085                      .dwcfi  undefined, 56
    8086                      .dwcfi  undefined, 57
    8087                      .dwcfi  undefined, 58
    8088                      .dwcfi  undefined, 59
    8089                      .dwcfi  undefined, 60
    8090                      .dwcfi  undefined, 61
    8091                      .dwcfi  undefined, 62
    8092                      .dwcfi  undefined, 63
    8093                      .dwcfi  undefined, 64
    8094                      .dwcfi  undefined, 65
    8095                      .dwcfi  undefined, 66
    8096                      .dwcfi  undefined, 67
    8097                      .dwcfi  undefined, 68
    8098                      .dwcfi  undefined, 69
    8099                      .dwcfi  undefined, 70
    8100                      .dwcfi  undefined, 71
    8101                      .dwcfi  undefined, 72
    8102                      .dwcfi  undefined, 73
    8103                      .dwcfi  undefined, 74
    8104                      .dwcfi  undefined, 75
    8105                      .dwcfi  undefined, 76
    8106                      .dwcfi  undefined, 77
    8107                      .dwcfi  undefined, 78
    8108                      .dwcfi  undefined, 79
    8109                      .dwcfi  undefined, 80
    8110                      .dwcfi  undefined, 81
    8111                      .dwcfi  undefined, 82
    8112                      .dwcfi  undefined, 83
    8113                      .dwcfi  undefined, 84
    8114                      .dwcfi  undefined, 85
    8115                      .dwcfi  undefined, 86
    8116                      .dwcfi  undefined, 87
    8117                      .dwcfi  undefined, 88
    8118                      .dwcfi  undefined, 89
    8119                      .dwcfi  undefined, 90
TMS320C55x Assembler PC v4.4.1 Sat Sep 29 23:08:36 2018

Tools Copyright (c) 1996-2012 Texas Instruments Incorporated
csl_usb_intc_example.asm                                             PAGE  184

    8120                      .dwcfi  undefined, 91
    8121                      .dwendentry
    8122              
    8123              ;***************************************************************
    8124              ;* DWARF REGISTER MAP                                          *
    8125              ;***************************************************************
    8126              
    8127              $C$DW$793       .dwtag  DW_TAG_TI_assign_register, DW_AT_name("AC0")
    8128                      .dwattr $C$DW$793, DW_AT_location[DW_OP_reg0]
    8129              $C$DW$794       .dwtag  DW_TAG_TI_assign_register, DW_AT_name("AC0")
    8130                      .dwattr $C$DW$794, DW_AT_location[DW_OP_reg1]
    8131              $C$DW$795       .dwtag  DW_TAG_TI_assign_register, DW_AT_name("AC0_G")
    8132                      .dwattr $C$DW$795, DW_AT_location[DW_OP_reg2]
    8133              $C$DW$796       .dwtag  DW_TAG_TI_assign_register, DW_AT_name("AC1")
    8134                      .dwattr $C$DW$796, DW_AT_location[DW_OP_reg3]
    8135              $C$DW$797       .dwtag  DW_TAG_TI_assign_register, DW_AT_name("AC1")
    8136                      .dwattr $C$DW$797, DW_AT_location[DW_OP_reg4]
    8137              $C$DW$798       .dwtag  DW_TAG_TI_assign_register, DW_AT_name("AC1_G")
    8138                      .dwattr $C$DW$798, DW_AT_location[DW_OP_reg5]
    8139              $C$DW$799       .dwtag  DW_TAG_TI_assign_register, DW_AT_name("AC2")
    8140                      .dwattr $C$DW$799, DW_AT_location[DW_OP_reg6]
    8141              $C$DW$800       .dwtag  DW_TAG_TI_assign_register, DW_AT_name("AC2")
    8142                      .dwattr $C$DW$800, DW_AT_location[DW_OP_reg7]
    8143              $C$DW$801       .dwtag  DW_TAG_TI_assign_register, DW_AT_name("AC2_G")
    8144                      .dwattr $C$DW$801, DW_AT_location[DW_OP_reg8]
    8145              $C$DW$802       .dwtag  DW_TAG_TI_assign_register, DW_AT_name("AC3")
    8146                      .dwattr $C$DW$802, DW_AT_location[DW_OP_reg9]
    8147              $C$DW$803       .dwtag  DW_TAG_TI_assign_register, DW_AT_name("AC3")
    8148                      .dwattr $C$DW$803, DW_AT_location[DW_OP_reg10]
    8149              $C$DW$804       .dwtag  DW_TAG_TI_assign_register, DW_AT_name("AC3_G")
    8150                      .dwattr $C$DW$804, DW_AT_location[DW_OP_reg11]
    8151              $C$DW$805       .dwtag  DW_TAG_TI_assign_register, DW_AT_name("T0")
    8152                      .dwattr $C$DW$805, DW_AT_location[DW_OP_reg12]
    8153              $C$DW$806       .dwtag  DW_TAG_TI_assign_register, DW_AT_name("T1")
    8154                      .dwattr $C$DW$806, DW_AT_location[DW_OP_reg13]
    8155              $C$DW$807       .dwtag  DW_TAG_TI_assign_register, DW_AT_name("T2")
    8156                      .dwattr $C$DW$807, DW_AT_location[DW_OP_reg14]
    8157              $C$DW$808       .dwtag  DW_TAG_TI_assign_register, DW_AT_name("T3")
    8158                      .dwattr $C$DW$808, DW_AT_location[DW_OP_reg15]
    8159              $C$DW$809       .dwtag  DW_TAG_TI_assign_register, DW_AT_name("AR0")
    8160                      .dwattr $C$DW$809, DW_AT_location[DW_OP_reg16]
    8161              $C$DW$810       .dwtag  DW_TAG_TI_assign_register, DW_AT_name("XAR0")
    8162                      .dwattr $C$DW$810, DW_AT_location[DW_OP_reg17]
    8163              $C$DW$811       .dwtag  DW_TAG_TI_assign_register, DW_AT_name("AR1")
    8164                      .dwattr $C$DW$811, DW_AT_location[DW_OP_reg18]
    8165              $C$DW$812       .dwtag  DW_TAG_TI_assign_register, DW_AT_name("XAR1")
    8166                      .dwattr $C$DW$812, DW_AT_location[DW_OP_reg19]
    8167              $C$DW$813       .dwtag  DW_TAG_TI_assign_register, DW_AT_name("AR2")
    8168                      .dwattr $C$DW$813, DW_AT_location[DW_OP_reg20]
    8169              $C$DW$814       .dwtag  DW_TAG_TI_assign_register, DW_AT_name("XAR2")
    8170                      .dwattr $C$DW$814, DW_AT_location[DW_OP_reg21]
    8171              $C$DW$815       .dwtag  DW_TAG_TI_assign_register, DW_AT_name("AR3")
    8172                      .dwattr $C$DW$815, DW_AT_location[DW_OP_reg22]
    8173              $C$DW$816       .dwtag  DW_TAG_TI_assign_register, DW_AT_name("XAR3")
    8174                      .dwattr $C$DW$816, DW_AT_location[DW_OP_reg23]
TMS320C55x Assembler PC v4.4.1 Sat Sep 29 23:08:36 2018

Tools Copyright (c) 1996-2012 Texas Instruments Incorporated
csl_usb_intc_example.asm                                             PAGE  185

    8175              $C$DW$817       .dwtag  DW_TAG_TI_assign_register, DW_AT_name("AR4")
    8176                      .dwattr $C$DW$817, DW_AT_location[DW_OP_reg24]
    8177              $C$DW$818       .dwtag  DW_TAG_TI_assign_register, DW_AT_name("XAR4")
    8178                      .dwattr $C$DW$818, DW_AT_location[DW_OP_reg25]
    8179              $C$DW$819       .dwtag  DW_TAG_TI_assign_register, DW_AT_name("AR5")
    8180                      .dwattr $C$DW$819, DW_AT_location[DW_OP_reg26]
    8181              $C$DW$820       .dwtag  DW_TAG_TI_assign_register, DW_AT_name("XAR5")
    8182                      .dwattr $C$DW$820, DW_AT_location[DW_OP_reg27]
    8183              $C$DW$821       .dwtag  DW_TAG_TI_assign_register, DW_AT_name("AR6")
    8184                      .dwattr $C$DW$821, DW_AT_location[DW_OP_reg28]
    8185              $C$DW$822       .dwtag  DW_TAG_TI_assign_register, DW_AT_name("XAR6")
    8186                      .dwattr $C$DW$822, DW_AT_location[DW_OP_reg29]
    8187              $C$DW$823       .dwtag  DW_TAG_TI_assign_register, DW_AT_name("AR7")
    8188                      .dwattr $C$DW$823, DW_AT_location[DW_OP_reg30]
    8189              $C$DW$824       .dwtag  DW_TAG_TI_assign_register, DW_AT_name("XAR7")
    8190                      .dwattr $C$DW$824, DW_AT_location[DW_OP_reg31]
    8191              $C$DW$825       .dwtag  DW_TAG_TI_assign_register, DW_AT_name("FP")
    8192                      .dwattr $C$DW$825, DW_AT_location[DW_OP_regx 0x20]
    8193              $C$DW$826       .dwtag  DW_TAG_TI_assign_register, DW_AT_name("XFP")
    8194                      .dwattr $C$DW$826, DW_AT_location[DW_OP_regx 0x21]
    8195              $C$DW$827       .dwtag  DW_TAG_TI_assign_register, DW_AT_name("PC")
    8196                      .dwattr $C$DW$827, DW_AT_location[DW_OP_regx 0x22]
    8197              $C$DW$828       .dwtag  DW_TAG_TI_assign_register, DW_AT_name("SP")
    8198                      .dwattr $C$DW$828, DW_AT_location[DW_OP_regx 0x23]
    8199              $C$DW$829       .dwtag  DW_TAG_TI_assign_register, DW_AT_name("XSP")
    8200                      .dwattr $C$DW$829, DW_AT_location[DW_OP_regx 0x24]
    8201              $C$DW$830       .dwtag  DW_TAG_TI_assign_register, DW_AT_name("BKC")
    8202                      .dwattr $C$DW$830, DW_AT_location[DW_OP_regx 0x25]
    8203              $C$DW$831       .dwtag  DW_TAG_TI_assign_register, DW_AT_name("BK03")
    8204                      .dwattr $C$DW$831, DW_AT_location[DW_OP_regx 0x26]
    8205              $C$DW$832       .dwtag  DW_TAG_TI_assign_register, DW_AT_name("BK47")
    8206                      .dwattr $C$DW$832, DW_AT_location[DW_OP_regx 0x27]
    8207              $C$DW$833       .dwtag  DW_TAG_TI_assign_register, DW_AT_name("ST0")
    8208                      .dwattr $C$DW$833, DW_AT_location[DW_OP_regx 0x28]
    8209              $C$DW$834       .dwtag  DW_TAG_TI_assign_register, DW_AT_name("ST1")
    8210                      .dwattr $C$DW$834, DW_AT_location[DW_OP_regx 0x29]
    8211              $C$DW$835       .dwtag  DW_TAG_TI_assign_register, DW_AT_name("ST2")
    8212                      .dwattr $C$DW$835, DW_AT_location[DW_OP_regx 0x2a]
    8213              $C$DW$836       .dwtag  DW_TAG_TI_assign_register, DW_AT_name("ST3")
    8214                      .dwattr $C$DW$836, DW_AT_location[DW_OP_regx 0x2b]
    8215              $C$DW$837       .dwtag  DW_TAG_TI_assign_register, DW_AT_name("MDP")
    8216                      .dwattr $C$DW$837, DW_AT_location[DW_OP_regx 0x2c]
    8217              $C$DW$838       .dwtag  DW_TAG_TI_assign_register, DW_AT_name("MDP05")
    8218                      .dwattr $C$DW$838, DW_AT_location[DW_OP_regx 0x2d]
    8219              $C$DW$839       .dwtag  DW_TAG_TI_assign_register, DW_AT_name("MDP67")
    8220                      .dwattr $C$DW$839, DW_AT_location[DW_OP_regx 0x2e]
    8221              $C$DW$840       .dwtag  DW_TAG_TI_assign_register, DW_AT_name("BRC0")
    8222                      .dwattr $C$DW$840, DW_AT_location[DW_OP_regx 0x2f]
    8223              $C$DW$841       .dwtag  DW_TAG_TI_assign_register, DW_AT_name("RSA0")
    8224                      .dwattr $C$DW$841, DW_AT_location[DW_OP_regx 0x30]
    8225              $C$DW$842       .dwtag  DW_TAG_TI_assign_register, DW_AT_name("RSA0_H")
    8226                      .dwattr $C$DW$842, DW_AT_location[DW_OP_regx 0x31]
    8227              $C$DW$843       .dwtag  DW_TAG_TI_assign_register, DW_AT_name("REA0")
    8228                      .dwattr $C$DW$843, DW_AT_location[DW_OP_regx 0x32]
    8229              $C$DW$844       .dwtag  DW_TAG_TI_assign_register, DW_AT_name("REA0_H")
TMS320C55x Assembler PC v4.4.1 Sat Sep 29 23:08:36 2018

Tools Copyright (c) 1996-2012 Texas Instruments Incorporated
csl_usb_intc_example.asm                                             PAGE  186

    8230                      .dwattr $C$DW$844, DW_AT_location[DW_OP_regx 0x33]
    8231              $C$DW$845       .dwtag  DW_TAG_TI_assign_register, DW_AT_name("BRS1")
    8232                      .dwattr $C$DW$845, DW_AT_location[DW_OP_regx 0x34]
    8233              $C$DW$846       .dwtag  DW_TAG_TI_assign_register, DW_AT_name("BRC1")
    8234                      .dwattr $C$DW$846, DW_AT_location[DW_OP_regx 0x35]
    8235              $C$DW$847       .dwtag  DW_TAG_TI_assign_register, DW_AT_name("RSA1")
    8236                      .dwattr $C$DW$847, DW_AT_location[DW_OP_regx 0x36]
    8237              $C$DW$848       .dwtag  DW_TAG_TI_assign_register, DW_AT_name("RSA1_H")
    8238                      .dwattr $C$DW$848, DW_AT_location[DW_OP_regx 0x37]
    8239              $C$DW$849       .dwtag  DW_TAG_TI_assign_register, DW_AT_name("REA1")
    8240                      .dwattr $C$DW$849, DW_AT_location[DW_OP_regx 0x38]
    8241              $C$DW$850       .dwtag  DW_TAG_TI_assign_register, DW_AT_name("REA1_H")
    8242                      .dwattr $C$DW$850, DW_AT_location[DW_OP_regx 0x39]
    8243              $C$DW$851       .dwtag  DW_TAG_TI_assign_register, DW_AT_name("CSR")
    8244                      .dwattr $C$DW$851, DW_AT_location[DW_OP_regx 0x3a]
    8245              $C$DW$852       .dwtag  DW_TAG_TI_assign_register, DW_AT_name("RPTC")
    8246                      .dwattr $C$DW$852, DW_AT_location[DW_OP_regx 0x3b]
    8247              $C$DW$853       .dwtag  DW_TAG_TI_assign_register, DW_AT_name("CDP")
    8248                      .dwattr $C$DW$853, DW_AT_location[DW_OP_regx 0x3c]
    8249              $C$DW$854       .dwtag  DW_TAG_TI_assign_register, DW_AT_name("XCDP")
    8250                      .dwattr $C$DW$854, DW_AT_location[DW_OP_regx 0x3d]
    8251              $C$DW$855       .dwtag  DW_TAG_TI_assign_register, DW_AT_name("TRN0")
    8252                      .dwattr $C$DW$855, DW_AT_location[DW_OP_regx 0x3e]
    8253              $C$DW$856       .dwtag  DW_TAG_TI_assign_register, DW_AT_name("TRN1")
    8254                      .dwattr $C$DW$856, DW_AT_location[DW_OP_regx 0x3f]
    8255              $C$DW$857       .dwtag  DW_TAG_TI_assign_register, DW_AT_name("BSA01")
    8256                      .dwattr $C$DW$857, DW_AT_location[DW_OP_regx 0x40]
    8257              $C$DW$858       .dwtag  DW_TAG_TI_assign_register, DW_AT_name("BSA23")
    8258                      .dwattr $C$DW$858, DW_AT_location[DW_OP_regx 0x41]
    8259              $C$DW$859       .dwtag  DW_TAG_TI_assign_register, DW_AT_name("BSA45")
    8260                      .dwattr $C$DW$859, DW_AT_location[DW_OP_regx 0x42]
    8261              $C$DW$860       .dwtag  DW_TAG_TI_assign_register, DW_AT_name("BSA67")
    8262                      .dwattr $C$DW$860, DW_AT_location[DW_OP_regx 0x43]
    8263              $C$DW$861       .dwtag  DW_TAG_TI_assign_register, DW_AT_name("BSAC")
    8264                      .dwattr $C$DW$861, DW_AT_location[DW_OP_regx 0x44]
    8265              $C$DW$862       .dwtag  DW_TAG_TI_assign_register, DW_AT_name("CARRY")
    8266                      .dwattr $C$DW$862, DW_AT_location[DW_OP_regx 0x45]
    8267              $C$DW$863       .dwtag  DW_TAG_TI_assign_register, DW_AT_name("TC1")
    8268                      .dwattr $C$DW$863, DW_AT_location[DW_OP_regx 0x46]
    8269              $C$DW$864       .dwtag  DW_TAG_TI_assign_register, DW_AT_name("TC2")
    8270                      .dwattr $C$DW$864, DW_AT_location[DW_OP_regx 0x47]
    8271              $C$DW$865       .dwtag  DW_TAG_TI_assign_register, DW_AT_name("M40")
    8272                      .dwattr $C$DW$865, DW_AT_location[DW_OP_regx 0x48]
    8273              $C$DW$866       .dwtag  DW_TAG_TI_assign_register, DW_AT_name("SXMD")
    8274                      .dwattr $C$DW$866, DW_AT_location[DW_OP_regx 0x49]
    8275              $C$DW$867       .dwtag  DW_TAG_TI_assign_register, DW_AT_name("ARMS")
    8276                      .dwattr $C$DW$867, DW_AT_location[DW_OP_regx 0x4a]
    8277              $C$DW$868       .dwtag  DW_TAG_TI_assign_register, DW_AT_name("C54CM")
    8278                      .dwattr $C$DW$868, DW_AT_location[DW_OP_regx 0x4b]
    8279              $C$DW$869       .dwtag  DW_TAG_TI_assign_register, DW_AT_name("SATA")
    8280                      .dwattr $C$DW$869, DW_AT_location[DW_OP_regx 0x4c]
    8281              $C$DW$870       .dwtag  DW_TAG_TI_assign_register, DW_AT_name("SATD")
    8282                      .dwattr $C$DW$870, DW_AT_location[DW_OP_regx 0x4d]
    8283              $C$DW$871       .dwtag  DW_TAG_TI_assign_register, DW_AT_name("RDM")
    8284                      .dwattr $C$DW$871, DW_AT_location[DW_OP_regx 0x4e]
TMS320C55x Assembler PC v4.4.1 Sat Sep 29 23:08:36 2018

Tools Copyright (c) 1996-2012 Texas Instruments Incorporated
csl_usb_intc_example.asm                                             PAGE  187

    8285              $C$DW$872       .dwtag  DW_TAG_TI_assign_register, DW_AT_name("FRCT")
    8286                      .dwattr $C$DW$872, DW_AT_location[DW_OP_regx 0x4f]
    8287              $C$DW$873       .dwtag  DW_TAG_TI_assign_register, DW_AT_name("SMUL")
    8288                      .dwattr $C$DW$873, DW_AT_location[DW_OP_regx 0x50]
    8289              $C$DW$874       .dwtag  DW_TAG_TI_assign_register, DW_AT_name("INTM")
    8290                      .dwattr $C$DW$874, DW_AT_location[DW_OP_regx 0x51]
    8291              $C$DW$875       .dwtag  DW_TAG_TI_assign_register, DW_AT_name("AR0LC")
    8292                      .dwattr $C$DW$875, DW_AT_location[DW_OP_regx 0x52]
    8293              $C$DW$876       .dwtag  DW_TAG_TI_assign_register, DW_AT_name("AR1LC")
    8294                      .dwattr $C$DW$876, DW_AT_location[DW_OP_regx 0x53]
    8295              $C$DW$877       .dwtag  DW_TAG_TI_assign_register, DW_AT_name("AR2LC")
    8296                      .dwattr $C$DW$877, DW_AT_location[DW_OP_regx 0x54]
    8297              $C$DW$878       .dwtag  DW_TAG_TI_assign_register, DW_AT_name("AR3LC")
    8298                      .dwattr $C$DW$878, DW_AT_location[DW_OP_regx 0x55]
    8299              $C$DW$879       .dwtag  DW_TAG_TI_assign_register, DW_AT_name("AR4LC")
    8300                      .dwattr $C$DW$879, DW_AT_location[DW_OP_regx 0x56]
    8301              $C$DW$880       .dwtag  DW_TAG_TI_assign_register, DW_AT_name("AR5LC")
    8302                      .dwattr $C$DW$880, DW_AT_location[DW_OP_regx 0x57]
    8303              $C$DW$881       .dwtag  DW_TAG_TI_assign_register, DW_AT_name("AR6LC")
    8304                      .dwattr $C$DW$881, DW_AT_location[DW_OP_regx 0x58]
    8305              $C$DW$882       .dwtag  DW_TAG_TI_assign_register, DW_AT_name("AR7LC")
    8306                      .dwattr $C$DW$882, DW_AT_location[DW_OP_regx 0x59]
    8307              $C$DW$883       .dwtag  DW_TAG_TI_assign_register, DW_AT_name("CDPLC")
    8308                      .dwattr $C$DW$883, DW_AT_location[DW_OP_regx 0x5a]
    8309              $C$DW$884       .dwtag  DW_TAG_TI_assign_register, DW_AT_name("CIE_RETA")
    8310                      .dwattr $C$DW$884, DW_AT_location[DW_OP_regx 0x5b]
    8311                      .dwendtag $C$DW$CU
    8312              
    8312              
    8312              

No Assembly Errors, No Assembly Warnings
