TMS320C55x Assembler PC v4.4.1 Sat Sep 29 23:09:27 2018

Tools Copyright (c) 1996-2012 Texas Instruments Incorporated
csl_lcdc_262kColorModeExample.asm                                    PAGE    1

    3286              ; Temporary Registers Used: None
       1              ;*******************************************************************************
       2              ;* TMS320C55x C/C++ Codegen                                          PC v4.4.1 *
       3              ;* Date/Time created: Sat Sep 29 23:09:27 2018                                 *
       4              ;*******************************************************************************
       5                      .compiler_opts --hll_source=on --mem_model:code=flat --mem_model:data=large --object_format=coff --si
       6                      .mmregs
       7                      .cpl_on
       8                      .arms_on
       9                      .c54cm_off
      10                      .asg AR6, FP
      11                      .asg XAR6, XFP
      12                      .asg DPH, MDP
      13                      .model call=c55_std
      14                      .model mem=large
      15                      .noremark 5002  ; code respects overwrite rules
      16              ;*******************************************************************************
      17              ;* GLOBAL FILE PARAMETERS                                                      *
      18              ;*                                                                             *
      19              ;*   Architecture       : TMS320C55x                                           *
      20              ;*   Optimizing for     : Speed                                                *
      21              ;*   Memory             : Large Model (23-Bit Data Pointers)                   *
      22              ;*   Calls              : Normal Library ASM calls                             *
      23              ;*   Debug Info         : Standard TI Debug Information                        *
      24              ;*******************************************************************************
      25              
      26              $C$DW$CU        .dwtag  DW_TAG_compile_unit
      27                      .dwattr $C$DW$CU, DW_AT_name("../c5535_bsl_revc/ezdsp5535_v1/c55xx_csl/ccs_v4.0_examples/lcd/CSL_LCDC
      28                      .dwattr $C$DW$CU, DW_AT_producer("TMS320C55x C/C++ Codegen PC v4.4.1 Copyright (c) 1996-2012 Texas In
      29                      .dwattr $C$DW$CU, DW_AT_TI_version(0x01)
      30                      .dwattr $C$DW$CU, DW_AT_comp_dir("F:\eZdsp_DBG\tmp1\c55x-sim2\foo\Debug")
      31              ;******************************************************************************
      32              ;* CINIT RECORDS                                                              *
      33              ;******************************************************************************
      34 000000               .sect   ".cinit"
      35                      .align  1
      36 000000 0001          .field          1,16
      37 000001 0000-         .field          _cnt_lcd+0,24
         000002 0000 
      38 000002 0000          .field          0,8
      39 000003 0000          .field  0,16                    ; _cnt_lcd @ 0
      40              
      41 000004               .sect   ".cinit"
      42                      .align  1
      43 000004 0001          .field          1,16
      44 000005 0000-         .field          _PaSs_StAtE+0,24
         000006 0100 
      45 000006 0100          .field          0,8
      46 000007 0001          .field  1,16                    ; _PaSs_StAtE @ 0
      47              
      48 000008               .sect   ".cinit"
      49                      .align  1
      50 000008 0001          .field          1,16
      51 000009 0000-         .field          _PaSs+0,24
         00000a 1000 
TMS320C55x Assembler PC v4.4.1 Sat Sep 29 23:09:27 2018

Tools Copyright (c) 1996-2012 Texas Instruments Incorporated
csl_lcdc_262kColorModeExample.asm                                    PAGE    2

      52 00000a 1000          .field          0,8
      53 00000b 0000          .field  0,16                    ; _PaSs @ 0
      54              
      55              
      56              $C$DW$1 .dwtag  DW_TAG_subprogram, DW_AT_name("printf")
      57                      .dwattr $C$DW$1, DW_AT_TI_symbol_name("_printf")
      58                      .dwattr $C$DW$1, DW_AT_type(*$C$DW$T$10)
      59                      .dwattr $C$DW$1, DW_AT_declaration
      60                      .dwattr $C$DW$1, DW_AT_external
      61              $C$DW$2 .dwtag  DW_TAG_formal_parameter
      62                      .dwattr $C$DW$2, DW_AT_type(*$C$DW$T$118)
      63              $C$DW$3 .dwtag  DW_TAG_unspecified_parameters
      64                      .dwendtag $C$DW$1
      65              
      66              
      67              $C$DW$4 .dwtag  DW_TAG_subprogram, DW_AT_name("LCD_init")
      68                      .dwattr $C$DW$4, DW_AT_TI_symbol_name("_LCD_init")
      69                      .dwattr $C$DW$4, DW_AT_type(*$C$DW$T$78)
      70                      .dwattr $C$DW$4, DW_AT_declaration
      71                      .dwattr $C$DW$4, DW_AT_external
      72              
      73              $C$DW$5 .dwtag  DW_TAG_subprogram, DW_AT_name("LCD_open")
      74                      .dwattr $C$DW$5, DW_AT_TI_symbol_name("_LCD_open")
      75                      .dwattr $C$DW$5, DW_AT_type(*$C$DW$T$77)
      76                      .dwattr $C$DW$5, DW_AT_declaration
      77                      .dwattr $C$DW$5, DW_AT_external
      78              $C$DW$6 .dwtag  DW_TAG_formal_parameter
      79                      .dwattr $C$DW$6, DW_AT_type(*$C$DW$T$19)
      80              $C$DW$7 .dwtag  DW_TAG_formal_parameter
      81                      .dwattr $C$DW$7, DW_AT_type(*$C$DW$T$76)
      82              $C$DW$8 .dwtag  DW_TAG_formal_parameter
      83                      .dwattr $C$DW$8, DW_AT_type(*$C$DW$T$79)
      84                      .dwendtag $C$DW$5
      85              
      86              
      87              $C$DW$9 .dwtag  DW_TAG_subprogram, DW_AT_name("LCD_setup")
      88                      .dwattr $C$DW$9, DW_AT_TI_symbol_name("_LCD_setup")
      89                      .dwattr $C$DW$9, DW_AT_type(*$C$DW$T$78)
      90                      .dwattr $C$DW$9, DW_AT_declaration
      91                      .dwattr $C$DW$9, DW_AT_external
      92              $C$DW$10        .dwtag  DW_TAG_formal_parameter
      93                      .dwattr $C$DW$10, DW_AT_type(*$C$DW$T$77)
      94              $C$DW$11        .dwtag  DW_TAG_formal_parameter
      95                      .dwattr $C$DW$11, DW_AT_type(*$C$DW$T$64)
      96                      .dwendtag $C$DW$9
      97              
      98              
      99              $C$DW$12        .dwtag  DW_TAG_subprogram, DW_AT_name("LCD_configDMA")
     100                      .dwattr $C$DW$12, DW_AT_TI_symbol_name("_LCD_configDMA")
     101                      .dwattr $C$DW$12, DW_AT_type(*$C$DW$T$78)
     102                      .dwattr $C$DW$12, DW_AT_declaration
     103                      .dwattr $C$DW$12, DW_AT_external
     104              $C$DW$13        .dwtag  DW_TAG_formal_parameter
     105                      .dwattr $C$DW$13, DW_AT_type(*$C$DW$T$77)
     106              $C$DW$14        .dwtag  DW_TAG_formal_parameter
TMS320C55x Assembler PC v4.4.1 Sat Sep 29 23:09:27 2018

Tools Copyright (c) 1996-2012 Texas Instruments Incorporated
csl_lcdc_262kColorModeExample.asm                                    PAGE    3

     107                      .dwattr $C$DW$14, DW_AT_type(*$C$DW$T$66)
     108                      .dwendtag $C$DW$12
     109              
     110              
     111              $C$DW$15        .dwtag  DW_TAG_subprogram, DW_AT_name("LCD_close")
     112                      .dwattr $C$DW$15, DW_AT_TI_symbol_name("_LCD_close")
     113                      .dwattr $C$DW$15, DW_AT_type(*$C$DW$T$78)
     114                      .dwattr $C$DW$15, DW_AT_declaration
     115                      .dwattr $C$DW$15, DW_AT_external
     116              $C$DW$16        .dwtag  DW_TAG_formal_parameter
     117                      .dwattr $C$DW$16, DW_AT_type(*$C$DW$T$77)
     118                      .dwendtag $C$DW$15
     119              
     120              
     121              $C$DW$17        .dwtag  DW_TAG_subprogram, DW_AT_name("cmdWrite")
     122                      .dwattr $C$DW$17, DW_AT_TI_symbol_name("_cmdWrite")
     123                      .dwattr $C$DW$17, DW_AT_declaration
     124                      .dwattr $C$DW$17, DW_AT_external
     125              $C$DW$18        .dwtag  DW_TAG_formal_parameter
     126                      .dwattr $C$DW$18, DW_AT_type(*$C$DW$T$19)
     127              $C$DW$19        .dwtag  DW_TAG_formal_parameter
     128                      .dwattr $C$DW$19, DW_AT_type(*$C$DW$T$19)
     129                      .dwendtag $C$DW$17
     130              
     131              
     132              $C$DW$20        .dwtag  DW_TAG_subprogram, DW_AT_name("windowSetup")
     133                      .dwattr $C$DW$20, DW_AT_TI_symbol_name("_windowSetup")
     134                      .dwattr $C$DW$20, DW_AT_type(*$C$DW$T$60)
     135                      .dwattr $C$DW$20, DW_AT_declaration
     136                      .dwattr $C$DW$20, DW_AT_external
     137              $C$DW$21        .dwtag  DW_TAG_formal_parameter
     138                      .dwattr $C$DW$21, DW_AT_type(*$C$DW$T$19)
     139              $C$DW$22        .dwtag  DW_TAG_formal_parameter
     140                      .dwattr $C$DW$22, DW_AT_type(*$C$DW$T$19)
     141              $C$DW$23        .dwtag  DW_TAG_formal_parameter
     142                      .dwattr $C$DW$23, DW_AT_type(*$C$DW$T$19)
     143              $C$DW$24        .dwtag  DW_TAG_formal_parameter
     144                      .dwattr $C$DW$24, DW_AT_type(*$C$DW$T$19)
     145              $C$DW$25        .dwtag  DW_TAG_formal_parameter
     146                      .dwattr $C$DW$25, DW_AT_type(*$C$DW$T$19)
     147                      .dwendtag $C$DW$20
     148              
     149              
     150              $C$DW$26        .dwtag  DW_TAG_subprogram, DW_AT_name("lcdClearPanel")
     151                      .dwattr $C$DW$26, DW_AT_TI_symbol_name("_lcdClearPanel")
     152                      .dwattr $C$DW$26, DW_AT_declaration
     153                      .dwattr $C$DW$26, DW_AT_external
     154              $C$DW$27        .dwtag  DW_TAG_formal_parameter
     155                      .dwattr $C$DW$27, DW_AT_type(*$C$DW$T$19)
     156                      .dwendtag $C$DW$26
     157              
     158              
     159              $C$DW$28        .dwtag  DW_TAG_subprogram, DW_AT_name("panelSetup")
     160                      .dwattr $C$DW$28, DW_AT_TI_symbol_name("_panelSetup")
     161                      .dwattr $C$DW$28, DW_AT_declaration
TMS320C55x Assembler PC v4.4.1 Sat Sep 29 23:09:27 2018

Tools Copyright (c) 1996-2012 Texas Instruments Incorporated
csl_lcdc_262kColorModeExample.asm                                    PAGE    4

     162                      .dwattr $C$DW$28, DW_AT_external
     163              $C$DW$29        .dwtag  DW_TAG_formal_parameter
     164                      .dwattr $C$DW$29, DW_AT_type(*$C$DW$T$19)
     165                      .dwendtag $C$DW$28
     166              
     167              
     168              $C$DW$30        .dwtag  DW_TAG_subprogram, DW_AT_name("draw_string")
     169                      .dwattr $C$DW$30, DW_AT_TI_symbol_name("_draw_string")
     170                      .dwattr $C$DW$30, DW_AT_declaration
     171                      .dwattr $C$DW$30, DW_AT_external
     172              $C$DW$31        .dwtag  DW_TAG_formal_parameter
     173                      .dwattr $C$DW$31, DW_AT_type(*$C$DW$T$19)
     174              $C$DW$32        .dwtag  DW_TAG_formal_parameter
     175                      .dwattr $C$DW$32, DW_AT_type(*$C$DW$T$19)
     176              $C$DW$33        .dwtag  DW_TAG_formal_parameter
     177                      .dwattr $C$DW$33, DW_AT_type(*$C$DW$T$89)
     178              $C$DW$34        .dwtag  DW_TAG_formal_parameter
     179                      .dwattr $C$DW$34, DW_AT_type(*$C$DW$T$49)
     180              $C$DW$35        .dwtag  DW_TAG_formal_parameter
     181                      .dwattr $C$DW$35, DW_AT_type(*$C$DW$T$19)
     182                      .dwendtag $C$DW$30
     183              
     184              
     185              $C$DW$36        .dwtag  DW_TAG_subprogram, DW_AT_name("IRQ_plug")
     186                      .dwattr $C$DW$36, DW_AT_TI_symbol_name("_IRQ_plug")
     187                      .dwattr $C$DW$36, DW_AT_type(*$C$DW$T$10)
     188                      .dwattr $C$DW$36, DW_AT_declaration
     189                      .dwattr $C$DW$36, DW_AT_external
     190              $C$DW$37        .dwtag  DW_TAG_formal_parameter
     191                      .dwattr $C$DW$37, DW_AT_type(*$C$DW$T$19)
     192              $C$DW$38        .dwtag  DW_TAG_formal_parameter
     193                      .dwattr $C$DW$38, DW_AT_type(*$C$DW$T$94)
     194                      .dwendtag $C$DW$36
     195              
     196              
     197              $C$DW$39        .dwtag  DW_TAG_subprogram, DW_AT_name("IRQ_clear")
     198                      .dwattr $C$DW$39, DW_AT_TI_symbol_name("_IRQ_clear")
     199                      .dwattr $C$DW$39, DW_AT_type(*$C$DW$T$78)
     200                      .dwattr $C$DW$39, DW_AT_declaration
     201                      .dwattr $C$DW$39, DW_AT_external
     202              $C$DW$40        .dwtag  DW_TAG_formal_parameter
     203                      .dwattr $C$DW$40, DW_AT_type(*$C$DW$T$19)
     204                      .dwendtag $C$DW$39
     205              
     206              
     207              $C$DW$41        .dwtag  DW_TAG_subprogram, DW_AT_name("IRQ_clearAll")
     208                      .dwattr $C$DW$41, DW_AT_TI_symbol_name("_IRQ_clearAll")
     209                      .dwattr $C$DW$41, DW_AT_declaration
     210                      .dwattr $C$DW$41, DW_AT_external
     211              
     212              $C$DW$42        .dwtag  DW_TAG_subprogram, DW_AT_name("IRQ_disableAll")
     213                      .dwattr $C$DW$42, DW_AT_TI_symbol_name("_IRQ_disableAll")
     214                      .dwattr $C$DW$42, DW_AT_declaration
     215                      .dwattr $C$DW$42, DW_AT_external
     216              
TMS320C55x Assembler PC v4.4.1 Sat Sep 29 23:09:27 2018

Tools Copyright (c) 1996-2012 Texas Instruments Incorporated
csl_lcdc_262kColorModeExample.asm                                    PAGE    5

     217              $C$DW$43        .dwtag  DW_TAG_subprogram, DW_AT_name("IRQ_enable")
     218                      .dwattr $C$DW$43, DW_AT_TI_symbol_name("_IRQ_enable")
     219                      .dwattr $C$DW$43, DW_AT_type(*$C$DW$T$10)
     220                      .dwattr $C$DW$43, DW_AT_declaration
     221                      .dwattr $C$DW$43, DW_AT_external
     222              $C$DW$44        .dwtag  DW_TAG_formal_parameter
     223                      .dwattr $C$DW$44, DW_AT_type(*$C$DW$T$19)
     224                      .dwendtag $C$DW$43
     225              
     226              
     227              $C$DW$45        .dwtag  DW_TAG_subprogram, DW_AT_name("IRQ_setVecs")
     228                      .dwattr $C$DW$45, DW_AT_TI_symbol_name("_IRQ_setVecs")
     229                      .dwattr $C$DW$45, DW_AT_type(*$C$DW$T$78)
     230                      .dwattr $C$DW$45, DW_AT_declaration
     231                      .dwattr $C$DW$45, DW_AT_external
     232              $C$DW$46        .dwtag  DW_TAG_formal_parameter
     233                      .dwattr $C$DW$46, DW_AT_type(*$C$DW$T$49)
     234                      .dwendtag $C$DW$45
     235              
     236              
     237              $C$DW$47        .dwtag  DW_TAG_subprogram, DW_AT_name("IRQ_globalDisable")
     238                      .dwattr $C$DW$47, DW_AT_TI_symbol_name("_IRQ_globalDisable")
     239                      .dwattr $C$DW$47, DW_AT_type(*$C$DW$T$114)
     240                      .dwattr $C$DW$47, DW_AT_declaration
     241                      .dwattr $C$DW$47, DW_AT_external
     242              
     243              $C$DW$48        .dwtag  DW_TAG_subprogram, DW_AT_name("IRQ_globalEnable")
     244                      .dwattr $C$DW$48, DW_AT_TI_symbol_name("_IRQ_globalEnable")
     245                      .dwattr $C$DW$48, DW_AT_type(*$C$DW$T$114)
     246                      .dwattr $C$DW$48, DW_AT_declaration
     247                      .dwattr $C$DW$48, DW_AT_external
     248              
     249              $C$DW$49        .dwtag  DW_TAG_subprogram, DW_AT_name("VECSTART")
     250                      .dwattr $C$DW$49, DW_AT_TI_symbol_name("_VECSTART")
     251                      .dwattr $C$DW$49, DW_AT_declaration
     252                      .dwattr $C$DW$49, DW_AT_external
     253              
     254              $C$DW$50        .dwtag  DW_TAG_subprogram, DW_AT_name("wait")
     255                      .dwattr $C$DW$50, DW_AT_TI_symbol_name("_wait")
     256                      .dwattr $C$DW$50, DW_AT_type(*$C$DW$T$10)
     257                      .dwattr $C$DW$50, DW_AT_declaration
     258                      .dwattr $C$DW$50, DW_AT_external
     259                      .global _cnt_lcd
     260 000000               .bss    _cnt_lcd,1,0,0
     261              $C$DW$51        .dwtag  DW_TAG_variable, DW_AT_name("cnt_lcd")
     262                      .dwattr $C$DW$51, DW_AT_TI_symbol_name("_cnt_lcd")
     263                      .dwattr $C$DW$51, DW_AT_location[DW_OP_addr _cnt_lcd]
     264                      .dwattr $C$DW$51, DW_AT_type(*$C$DW$T$19)
     265                      .dwattr $C$DW$51, DW_AT_external
     266                      .global _hLcdc
     267 000002               .bss    _hLcdc,2,0,2
     268              $C$DW$52        .dwtag  DW_TAG_variable, DW_AT_name("hLcdc")
     269                      .dwattr $C$DW$52, DW_AT_TI_symbol_name("_hLcdc")
     270                      .dwattr $C$DW$52, DW_AT_location[DW_OP_addr _hLcdc]
     271                      .dwattr $C$DW$52, DW_AT_type(*$C$DW$T$77)
TMS320C55x Assembler PC v4.4.1 Sat Sep 29 23:09:27 2018

Tools Copyright (c) 1996-2012 Texas Instruments Incorporated
csl_lcdc_262kColorModeExample.asm                                    PAGE    6

     272                      .dwattr $C$DW$52, DW_AT_external
     273                      .global _getConfigDma
     274 000004               .bss    _getConfigDma,12,0,2
     275              $C$DW$53        .dwtag  DW_TAG_variable, DW_AT_name("getConfigDma")
     276                      .dwattr $C$DW$53, DW_AT_TI_symbol_name("_getConfigDma")
     277                      .dwattr $C$DW$53, DW_AT_location[DW_OP_addr _getConfigDma]
     278                      .dwattr $C$DW$53, DW_AT_type(*$C$DW$T$65)
     279                      .dwattr $C$DW$53, DW_AT_external
     280                      .global _gLcdBuf
     281 000000       _gLcdBuf:       .usect  ".buffer2",21600,0,0
     282              $C$DW$54        .dwtag  DW_TAG_variable, DW_AT_name("gLcdBuf")
     283                      .dwattr $C$DW$54, DW_AT_TI_symbol_name("_gLcdBuf")
     284                      .dwattr $C$DW$54, DW_AT_location[DW_OP_addr _gLcdBuf]
     285                      .dwattr $C$DW$54, DW_AT_type(*$C$DW$T$111)
     286                      .dwattr $C$DW$54, DW_AT_external
     287                      .global _PaSs_StAtE
     288 000001               .bss    _PaSs_StAtE,1,0,0
     289              $C$DW$55        .dwtag  DW_TAG_variable, DW_AT_name("PaSs_StAtE")
     290                      .dwattr $C$DW$55, DW_AT_TI_symbol_name("_PaSs_StAtE")
     291                      .dwattr $C$DW$55, DW_AT_location[DW_OP_addr _PaSs_StAtE]
     292                      .dwattr $C$DW$55, DW_AT_type(*$C$DW$T$107)
     293                      .dwattr $C$DW$55, DW_AT_external
     294                      .global _PaSs
     295 000010               .bss    _PaSs,1,0,0
     296              $C$DW$56        .dwtag  DW_TAG_variable, DW_AT_name("PaSs")
     297                      .dwattr $C$DW$56, DW_AT_TI_symbol_name("_PaSs")
     298                      .dwattr $C$DW$56, DW_AT_location[DW_OP_addr _PaSs]
     299                      .dwattr $C$DW$56, DW_AT_type(*$C$DW$T$107)
     300                      .dwattr $C$DW$56, DW_AT_external
     301              ;       F:\t\cc5p5\ccsv5\tools\compiler\c5500_4.4.1\bin\acp55.exe -@f:\\AppData\\Local\\Temp\\1526812 
     302 000000               .sect   ".text"
     303                      .align 4
     304              
     305              $C$DW$57        .dwtag  DW_TAG_subprogram, DW_AT_name("CSL_lcdcEnableLiddDMA")
     306                      .dwattr $C$DW$57, DW_AT_low_pc(_CSL_lcdcEnableLiddDMA)
     307                      .dwattr $C$DW$57, DW_AT_high_pc(0x00)
     308                      .dwattr $C$DW$57, DW_AT_TI_symbol_name("_CSL_lcdcEnableLiddDMA")
     309                      .dwattr $C$DW$57, DW_AT_TI_begin_file("F:/eZdsp_DBG/tmp1/c55x-sim2/foo/c5535_bsl_revc/ezdsp5535_v1/c5
     310                      .dwattr $C$DW$57, DW_AT_TI_begin_line(0x4e)
     311                      .dwattr $C$DW$57, DW_AT_TI_begin_column(0x06)
     312                      .dwattr $C$DW$57, DW_AT_TI_max_frame_size(0x04)
     313                      .dwpsn  file "F:/eZdsp_DBG/tmp1/c55x-sim2/foo/c5535_bsl_revc/ezdsp5535_v1/c55xx_csl/inc/csl_lcdcAux.h
     314              
     315                      .dwfde $C$DW$CIE, _CSL_lcdcEnableLiddDMA
     316              $C$DW$58        .dwtag  DW_TAG_formal_parameter, DW_AT_name("hLcdc")
     317                      .dwattr $C$DW$58, DW_AT_TI_symbol_name("_hLcdc")
     318                      .dwattr $C$DW$58, DW_AT_type(*$C$DW$T$77)
     319                      .dwattr $C$DW$58, DW_AT_location[DW_OP_reg17]
     320              ;*******************************************************************************
     321              ;* FUNCTION NAME: CSL_lcdcEnableLiddDMA                                        *
     322              ;*                                                                             *
     323              ;*   Function Uses Regs : T0,AR0,XAR0,AR1,AR3,XAR3,SP,M40,SATA,SATD,RDM,FRCT,  *
     324              ;*                        SMUL                                                 *
     325              ;*   Stack Frame        : Compact (No Frame Pointer, w/ debug)                 *
     326              ;*   Total Frame Size   : 4 words                                              *
TMS320C55x Assembler PC v4.4.1 Sat Sep 29 23:09:27 2018

Tools Copyright (c) 1996-2012 Texas Instruments Incorporated
csl_lcdc_262kColorModeExample.asm                                    PAGE    7

     327              ;*                        (2 return address/alignment)                         *
     328              ;*                        (2 local values)                                     *
     329              ;*   Min System Stack   : 1 word                                               *
     330              ;*******************************************************************************
     331 000000       _CSL_lcdcEnableLiddDMA:
     332                      .dwcfi  cfa_offset, 1
     333                      .dwcfi  save_reg_to_mem, 91, -1
     334 000000 4EFD          AADD #-3, SP
     335                      .dwcfi  cfa_offset, 4
     336              $C$DW$59        .dwtag  DW_TAG_variable, DW_AT_name("hLcdc")
     337                      .dwattr $C$DW$59, DW_AT_TI_symbol_name("_hLcdc")
     338                      .dwattr $C$DW$59, DW_AT_type(*$C$DW$T$77)
     339                      .dwattr $C$DW$59, DW_AT_location[DW_OP_bregx 0x24 0]
     340 000002 EB00          MOV XAR0, dbl(*SP(#0))
         000004 85   
     341                      .dwpsn  file "F:/eZdsp_DBG/tmp1/c55x-sim2/foo/c5535_bsl_revc/ezdsp5535_v1/c55xx_csl/inc/csl_lcdcAux.h
     342 000005 ED00          MOV dbl(*SP(#0)), XAR3
         000007 BF   
     343 000008 AB61          MOV *AR3, AR3 ; |85| 
     344 00000a 140C          AMOV #12, T0
         00000c 45   
     345 00000d A96B          MOV port(*AR3(T0)), AR1 ; |85| 
         00000f 99   
     346 000010 ED00          MOV dbl(*SP(#0)), XAR3
         000012 BF   
     347 000013 AB61          MOV *AR3, AR3 ; |85| 
     348 000015 EC10          BCLR @#8, AR1 ; |85| 
         000017 92   
     349 000018 EC10          BSET @#8, AR1 ; |85| 
         00001a 90   
     350 00001b C96B          MOV AR1, port(*AR3(T0)) ; |85| 
         00001d 9A   
     351                      .dwpsn  file "F:/eZdsp_DBG/tmp1/c55x-sim2/foo/c5535_bsl_revc/ezdsp5535_v1/c55xx_csl/inc/csl_lcdcAux.h
     352 00001e 4E03          AADD #3, SP
     353                      .dwcfi  cfa_offset, 1
     354              $C$DW$60        .dwtag  DW_TAG_TI_branch
     355                      .dwattr $C$DW$60, DW_AT_low_pc(0x00)
     356                      .dwattr $C$DW$60, DW_AT_TI_return
     357 000020 4804          RET
     358                                                      ; return occurs
     359                      .dwattr $C$DW$57, DW_AT_TI_end_file("F:/eZdsp_DBG/tmp1/c55x-sim2/foo/c5535_bsl_revc/ezdsp5535_v1/c55x
     360                      .dwattr $C$DW$57, DW_AT_TI_end_line(0x56)
     361                      .dwattr $C$DW$57, DW_AT_TI_end_column(0x01)
     362                      .dwendentry
     363                      .dwendtag $C$DW$57
     364              
     365 000022               .sect   ".text"
     366                      .align 4
     367              
     368              $C$DW$61        .dwtag  DW_TAG_subprogram, DW_AT_name("CSL_lcdcDisableLiddDMA")
     369                      .dwattr $C$DW$61, DW_AT_low_pc(_CSL_lcdcDisableLiddDMA)
     370                      .dwattr $C$DW$61, DW_AT_high_pc(0x00)
     371                      .dwattr $C$DW$61, DW_AT_TI_symbol_name("_CSL_lcdcDisableLiddDMA")
     372                      .dwattr $C$DW$61, DW_AT_TI_begin_file("F:/eZdsp_DBG/tmp1/c55x-sim2/foo/c5535_bsl_revc/ezdsp5535_v1/c5
     373                      .dwattr $C$DW$61, DW_AT_TI_begin_line(0x7c)
TMS320C55x Assembler PC v4.4.1 Sat Sep 29 23:09:27 2018

Tools Copyright (c) 1996-2012 Texas Instruments Incorporated
csl_lcdc_262kColorModeExample.asm                                    PAGE    8

     374                      .dwattr $C$DW$61, DW_AT_TI_begin_column(0x06)
     375                      .dwattr $C$DW$61, DW_AT_TI_max_frame_size(0x04)
     376                      .dwpsn  file "F:/eZdsp_DBG/tmp1/c55x-sim2/foo/c5535_bsl_revc/ezdsp5535_v1/c55xx_csl/inc/csl_lcdcAux.h
     377              
     378                      .dwfde $C$DW$CIE, _CSL_lcdcDisableLiddDMA
     379              $C$DW$62        .dwtag  DW_TAG_formal_parameter, DW_AT_name("hLcdc")
     380                      .dwattr $C$DW$62, DW_AT_TI_symbol_name("_hLcdc")
     381                      .dwattr $C$DW$62, DW_AT_type(*$C$DW$T$77)
     382                      .dwattr $C$DW$62, DW_AT_location[DW_OP_reg17]
     383              ;*******************************************************************************
     384              ;* FUNCTION NAME: CSL_lcdcDisableLiddDMA                                       *
     385              ;*                                                                             *
     386              ;*   Function Uses Regs : T0,AR0,XAR0,AR1,AR3,XAR3,SP,M40,SATA,SATD,RDM,FRCT,  *
     387              ;*                        SMUL                                                 *
     388              ;*   Stack Frame        : Compact (No Frame Pointer, w/ debug)                 *
     389              ;*   Total Frame Size   : 4 words                                              *
     390              ;*                        (2 return address/alignment)                         *
     391              ;*                        (2 local values)                                     *
     392              ;*   Min System Stack   : 1 word                                               *
     393              ;*******************************************************************************
     394 000024       _CSL_lcdcDisableLiddDMA:
     395                      .dwcfi  cfa_offset, 1
     396                      .dwcfi  save_reg_to_mem, 91, -1
     397 000024 4EFD          AADD #-3, SP
     398                      .dwcfi  cfa_offset, 4
     399              $C$DW$63        .dwtag  DW_TAG_variable, DW_AT_name("hLcdc")
     400                      .dwattr $C$DW$63, DW_AT_TI_symbol_name("_hLcdc")
     401                      .dwattr $C$DW$63, DW_AT_type(*$C$DW$T$77)
     402                      .dwattr $C$DW$63, DW_AT_location[DW_OP_bregx 0x24 0]
     403 000026 EB00          MOV XAR0, dbl(*SP(#0))
         000028 85   
     404                      .dwpsn  file "F:/eZdsp_DBG/tmp1/c55x-sim2/foo/c5535_bsl_revc/ezdsp5535_v1/c55xx_csl/inc/csl_lcdcAux.h
     405 000029 ED00          MOV dbl(*SP(#0)), XAR3
         00002b BF   
     406 00002c AB61          MOV *AR3, AR3 ; |131| 
     407 00002e 140C          AMOV #12, T0
         000030 45   
     408 000031 A96B          MOV port(*AR3(T0)), AR1 ; |131| 
         000033 99   
     409 000034 ED00          MOV dbl(*SP(#0)), XAR3
         000036 BF   
     410 000037 AB61          MOV *AR3, AR3 ; |131| 
     411 000039 EC10          BCLR @#8, AR1 ; |131| 
         00003b 92   
     412 00003c C96B          MOV AR1, port(*AR3(T0)) ; |131| 
         00003e 9A   
     413                      .dwpsn  file "F:/eZdsp_DBG/tmp1/c55x-sim2/foo/c5535_bsl_revc/ezdsp5535_v1/c55xx_csl/inc/csl_lcdcAux.h
     414 00003f 4E03          AADD #3, SP
     415                      .dwcfi  cfa_offset, 1
     416              $C$DW$64        .dwtag  DW_TAG_TI_branch
     417                      .dwattr $C$DW$64, DW_AT_low_pc(0x00)
     418                      .dwattr $C$DW$64, DW_AT_TI_return
     419 000041 4804          RET
     420                                                      ; return occurs
     421                      .dwattr $C$DW$61, DW_AT_TI_end_file("F:/eZdsp_DBG/tmp1/c55x-sim2/foo/c5535_bsl_revc/ezdsp5535_v1/c55x
TMS320C55x Assembler PC v4.4.1 Sat Sep 29 23:09:27 2018

Tools Copyright (c) 1996-2012 Texas Instruments Incorporated
csl_lcdc_262kColorModeExample.asm                                    PAGE    9

     422                      .dwattr $C$DW$61, DW_AT_TI_end_line(0x84)
     423                      .dwattr $C$DW$61, DW_AT_TI_end_column(0x01)
     424                      .dwendentry
     425                      .dwendtag $C$DW$61
     426              
     427 000043               .sect   ".text"
     428                      .align 4
     429                      .global _main
     430              
     431              $C$DW$65        .dwtag  DW_TAG_subprogram, DW_AT_name("main")
     432                      .dwattr $C$DW$65, DW_AT_low_pc(_main)
     433                      .dwattr $C$DW$65, DW_AT_high_pc(0x00)
     434                      .dwattr $C$DW$65, DW_AT_TI_symbol_name("_main")
     435                      .dwattr $C$DW$65, DW_AT_external
     436                      .dwattr $C$DW$65, DW_AT_TI_begin_file("../c5535_bsl_revc/ezdsp5535_v1/c55xx_csl/ccs_v4.0_examples/lcd
     437                      .dwattr $C$DW$65, DW_AT_TI_begin_line(0x98)
     438                      .dwattr $C$DW$65, DW_AT_TI_begin_column(0x06)
     439                      .dwattr $C$DW$65, DW_AT_TI_max_frame_size(0x04)
     440                      .dwpsn  file "../c5535_bsl_revc/ezdsp5535_v1/c55xx_csl/ccs_v4.0_examples/lcd/CSL_LCDC_262kColorModeEx
     441              
     442                      .dwfde $C$DW$CIE, _main
     443              ;*******************************************************************************
     444              ;* FUNCTION NAME: main                                                         *
     445              ;*                                                                             *
     446              ;*   Function Uses Regs : T0,AR1,AR3,XAR3,SP,M40,SATA,SATD,RDM,FRCT,SMUL       *
     447              ;*   Stack Frame        : Compact (No Frame Pointer, w/ debug)                 *
     448              ;*   Total Frame Size   : 4 words                                              *
     449              ;*                        (1 return address/alignment)                         *
     450              ;*                        (2 function parameters)                              *
     451              ;*                        (1 local values)                                     *
     452              ;*   Min System Stack   : 1 word                                               *
     453              ;*******************************************************************************
     454 000044       _main:
     455                      .dwcfi  cfa_offset, 1
     456                      .dwcfi  save_reg_to_mem, 91, -1
     457 000044 4EFD          AADD #-3, SP
     458                      .dwcfi  cfa_offset, 4
     459              $C$DW$66        .dwtag  DW_TAG_variable, DW_AT_name("status")
     460                      .dwattr $C$DW$66, DW_AT_TI_symbol_name("_status")
     461                      .dwattr $C$DW$66, DW_AT_type(*$C$DW$T$78)
     462                      .dwattr $C$DW$66, DW_AT_location[DW_OP_bregx 0x24 2]
     463                      .dwpsn  file "../c5535_bsl_revc/ezdsp5535_v1/c55xx_csl/ccs_v4.0_examples/lcd/CSL_LCDC_262kColorModeEx
     464 000046 EC31          AMOV #$C$FSL1, XAR3 ; |156| 
         000048 BE00 
         00004a 0000+
     465 00004c EB00          MOV XAR3, dbl(*SP(#0))
         00004e B5   
     466              $C$DW$67        .dwtag  DW_TAG_TI_branch
     467                      .dwattr $C$DW$67, DW_AT_low_pc(0x00)
     468                      .dwattr $C$DW$67, DW_AT_name("_printf")
     469                      .dwattr $C$DW$67, DW_AT_TI_call
     470 00004f 6C00          CALL #_printf ; |156| 
         000051 0000!
     471                                                      ; call occurs [#_printf] ; |156| 
     472                      .dwpsn  file "../c5535_bsl_revc/ezdsp5535_v1/c55xx_csl/ccs_v4.0_examples/lcd/CSL_LCDC_262kColorModeEx
TMS320C55x Assembler PC v4.4.1 Sat Sep 29 23:09:27 2018

Tools Copyright (c) 1996-2012 Texas Instruments Incorporated
csl_lcdc_262kColorModeExample.asm                                    PAGE   10

     473              $C$DW$68        .dwtag  DW_TAG_TI_branch
     474                      .dwattr $C$DW$68, DW_AT_low_pc(0x00)
     475                      .dwattr $C$DW$68, DW_AT_name("_CSL_lcdc262kColorModeTest")
     476                      .dwattr $C$DW$68, DW_AT_TI_call
     477 000053 0800          CALL #_CSL_lcdc262kColorModeTest ; |158| 
         000055 36   
     478                                                      ; call occurs [#_CSL_lcdc262kColorModeTest] ; |158| 
     479 000056 C404          MOV T0, *SP(#2) ; |158| 
     480                      .dwpsn  file "../c5535_bsl_revc/ezdsp5535_v1/c55xx_csl/ccs_v4.0_examples/lcd/CSL_LCDC_262kColorModeEx
     481 000058 2249          MOV T0, AR1
     482 00005a 6799          BCC $C$L1,AR1 != #0 ; |159| 
     483                                                      ; branchcc occurs ; |159| 
     484                      .dwpsn  file "../c5535_bsl_revc/ezdsp5535_v1/c55xx_csl/ccs_v4.0_examples/lcd/CSL_LCDC_262kColorModeEx
     485 00005c EC31          AMOV #$C$FSL2, XAR3 ; |161| 
         00005e BE00 
         000060 0020+
     486 000062 EB00          MOV XAR3, dbl(*SP(#0))
         000064 B5   
     487              $C$DW$69        .dwtag  DW_TAG_TI_branch
     488                      .dwattr $C$DW$69, DW_AT_low_pc(0x00)
     489                      .dwattr $C$DW$69, DW_AT_name("_printf")
     490                      .dwattr $C$DW$69, DW_AT_TI_call
     491 000065 6C00          CALL #_printf ; |161| 
         000067 0000!
     492                                                      ; call occurs [#_printf] ; |161| 
     493                      .dwpsn  file "../c5535_bsl_revc/ezdsp5535_v1/c55xx_csl/ccs_v4.0_examples/lcd/CSL_LCDC_262kColorModeEx
     494 000069 4A13          B $C$L2   ; |162| 
     495                                                      ; branch occurs ; |162| 
     496 00006b       $C$L1:    
     497                      .dwpsn  file "../c5535_bsl_revc/ezdsp5535_v1/c55xx_csl/ccs_v4.0_examples/lcd/CSL_LCDC_262kColorModeEx
     498 00006b EC31          AMOV #$C$FSL3, XAR3 ; |165| 
         00006d BE00 
         00006f 004C+
     499 000071 EB00          MOV XAR3, dbl(*SP(#0))
         000073 B5   
     500              $C$DW$70        .dwtag  DW_TAG_TI_branch
     501                      .dwattr $C$DW$70, DW_AT_low_pc(0x00)
     502                      .dwattr $C$DW$70, DW_AT_name("_printf")
     503                      .dwattr $C$DW$70, DW_AT_TI_call
     504 000074 6C00          CALL #_printf ; |165| 
         000076 0000!
     505                                                      ; call occurs [#_printf] ; |165| 
     506                      .dwpsn  file "../c5535_bsl_revc/ezdsp5535_v1/c55xx_csl/ccs_v4.0_examples/lcd/CSL_LCDC_262kColorModeEx
     507 000078 E631          MOV #0, *(#_PaSs_StAtE) ; |168| 
         00007a 0000 
         00007c 0001-
     508 00007e       $C$L2:    
     509                      .dwpsn  file "../c5535_bsl_revc/ezdsp5535_v1/c55xx_csl/ccs_v4.0_examples/lcd/CSL_LCDC_262kColorModeEx
     510 00007e A931          MOV *(#_PaSs_StAtE), AR1 ; |174| 
         000080 0000 
         000082 01-  
     511 000083 C931          MOV AR1, *(#_PaSs) ; |174| 
         000085 0000 
         000087 10-  
     512                      .dwpsn  file "../c5535_bsl_revc/ezdsp5535_v1/c55xx_csl/ccs_v4.0_examples/lcd/CSL_LCDC_262kColorModeEx
TMS320C55x Assembler PC v4.4.1 Sat Sep 29 23:09:27 2018

Tools Copyright (c) 1996-2012 Texas Instruments Incorporated
csl_lcdc_262kColorModeExample.asm                                    PAGE   11

     513 000088 4E03          AADD #3, SP
     514                      .dwcfi  cfa_offset, 1
     515              $C$DW$71        .dwtag  DW_TAG_TI_branch
     516                      .dwattr $C$DW$71, DW_AT_low_pc(0x00)
     517                      .dwattr $C$DW$71, DW_AT_TI_return
     518 00008a 4804          RET
     519                                                      ; return occurs
     520                      .dwattr $C$DW$65, DW_AT_TI_end_file("../c5535_bsl_revc/ezdsp5535_v1/c55xx_csl/ccs_v4.0_examples/lcd/C
     521                      .dwattr $C$DW$65, DW_AT_TI_end_line(0xb3)
     522                      .dwattr $C$DW$65, DW_AT_TI_end_column(0x01)
     523                      .dwendentry
     524                      .dwendtag $C$DW$65
     525              
     526 00008c               .sect   ".text"
     527                      .align 4
     528                      .global _CSL_lcdc262kColorModeTest
     529              
     530              $C$DW$72        .dwtag  DW_TAG_subprogram, DW_AT_name("CSL_lcdc262kColorModeTest")
     531                      .dwattr $C$DW$72, DW_AT_low_pc(_CSL_lcdc262kColorModeTest)
     532                      .dwattr $C$DW$72, DW_AT_high_pc(0x00)
     533                      .dwattr $C$DW$72, DW_AT_TI_symbol_name("_CSL_lcdc262kColorModeTest")
     534                      .dwattr $C$DW$72, DW_AT_external
     535                      .dwattr $C$DW$72, DW_AT_type(*$C$DW$T$78)
     536                      .dwattr $C$DW$72, DW_AT_TI_begin_file("../c5535_bsl_revc/ezdsp5535_v1/c55xx_csl/ccs_v4.0_examples/lcd
     537                      .dwattr $C$DW$72, DW_AT_TI_begin_line(0xc0)
     538                      .dwattr $C$DW$72, DW_AT_TI_begin_column(0x0c)
     539                      .dwattr $C$DW$72, DW_AT_TI_max_frame_size(0x3e)
     540                      .dwpsn  file "../c5535_bsl_revc/ezdsp5535_v1/c55xx_csl/ccs_v4.0_examples/lcd/CSL_LCDC_262kColorModeEx
     541              
     542                      .dwfde $C$DW$CIE, _CSL_lcdc262kColorModeTest
     543              ;*******************************************************************************
     544              ;* FUNCTION NAME: CSL_lcdc262kColorModeTest                                    *
     545              ;*                                                                             *
     546              ;*   Function Uses Regs : AC0,AC0,AC1,T0,T1,AR0,XAR0,AR1,XAR1,AR2,XAR2,AR3,    *
     547              ;*                        XAR3,SP,CSR,RPTC,CARRY,TC1,M40,SATA,SATD,RDM,FRCT,   *
     548              ;*                        SMUL                                                 *
     549              ;*   Stack Frame        : Compact (No Frame Pointer, w/ debug)                 *
     550              ;*   Total Frame Size   : 62 words                                             *
     551              ;*                        (2 return address/alignment)                         *
     552              ;*                        (2 function parameters)                              *
     553              ;*                        (58 local values)                                    *
     554              ;*   Min System Stack   : 1 word                                               *
     555              ;*******************************************************************************
     556 00008c       _CSL_lcdc262kColorModeTest:
     557                      .dwcfi  cfa_offset, 1
     558                      .dwcfi  save_reg_to_mem, 91, -1
     559 00008c 4EC3          AADD #-61, SP
     560                      .dwcfi  cfa_offset, 62
     561              $C$DW$73        .dwtag  DW_TAG_variable, DW_AT_name("status")
     562                      .dwattr $C$DW$73, DW_AT_TI_symbol_name("_status")
     563                      .dwattr $C$DW$73, DW_AT_type(*$C$DW$T$78)
     564                      .dwattr $C$DW$73, DW_AT_location[DW_OP_bregx 0x24 2]
     565              $C$DW$74        .dwtag  DW_TAG_variable, DW_AT_name("lcdcObj")
     566                      .dwattr $C$DW$74, DW_AT_TI_symbol_name("_lcdcObj")
     567                      .dwattr $C$DW$74, DW_AT_type(*$C$DW$T$75)
TMS320C55x Assembler PC v4.4.1 Sat Sep 29 23:09:27 2018

Tools Copyright (c) 1996-2012 Texas Instruments Incorporated
csl_lcdc_262kColorModeExample.asm                                    PAGE   12

     568                      .dwattr $C$DW$74, DW_AT_location[DW_OP_bregx 0x24 3]
     569              $C$DW$75        .dwtag  DW_TAG_variable, DW_AT_name("lcdcLiddSetup")
     570                      .dwattr $C$DW$75, DW_AT_TI_symbol_name("_lcdcLiddSetup")
     571                      .dwattr $C$DW$75, DW_AT_type(*$C$DW$T$63)
     572                      .dwattr $C$DW$75, DW_AT_location[DW_OP_bregx 0x24 6]
     573              $C$DW$76        .dwtag  DW_TAG_variable, DW_AT_name("configLIDD")
     574                      .dwattr $C$DW$76, DW_AT_TI_symbol_name("_configLIDD")
     575                      .dwattr $C$DW$76, DW_AT_type(*$C$DW$T$36)
     576                      .dwattr $C$DW$76, DW_AT_location[DW_OP_bregx 0x24 30]
     577              $C$DW$77        .dwtag  DW_TAG_variable, DW_AT_name("timingCs0LIDD")
     578                      .dwattr $C$DW$77, DW_AT_TI_symbol_name("_timingCs0LIDD")
     579                      .dwattr $C$DW$77, DW_AT_type(*$C$DW$T$37)
     580                      .dwattr $C$DW$77, DW_AT_location[DW_OP_bregx 0x24 36]
     581              $C$DW$78        .dwtag  DW_TAG_variable, DW_AT_name("configDma")
     582                      .dwattr $C$DW$78, DW_AT_TI_symbol_name("_configDma")
     583                      .dwattr $C$DW$78, DW_AT_type(*$C$DW$T$65)
     584                      .dwattr $C$DW$78, DW_AT_location[DW_OP_bregx 0x24 44]
     585              $C$DW$79        .dwtag  DW_TAG_variable, DW_AT_name("retVal")
     586                      .dwattr $C$DW$79, DW_AT_TI_symbol_name("_retVal")
     587                      .dwattr $C$DW$79, DW_AT_type(*$C$DW$T$19)
     588                      .dwattr $C$DW$79, DW_AT_location[DW_OP_bregx 0x24 56]
     589              $C$DW$80        .dwtag  DW_TAG_variable, DW_AT_name("index")
     590                      .dwattr $C$DW$80, DW_AT_TI_symbol_name("_index")
     591                      .dwattr $C$DW$80, DW_AT_type(*$C$DW$T$19)
     592                      .dwattr $C$DW$80, DW_AT_location[DW_OP_bregx 0x24 57]
     593              $C$DW$81        .dwtag  DW_TAG_variable, DW_AT_name("color")
     594                      .dwattr $C$DW$81, DW_AT_TI_symbol_name("_color")
     595                      .dwattr $C$DW$81, DW_AT_type(*$C$DW$T$49)
     596                      .dwattr $C$DW$81, DW_AT_location[DW_OP_bregx 0x24 58]
     597                      .dwpsn  file "../c5535_bsl_revc/ezdsp5535_v1/c55xx_csl/ccs_v4.0_examples/lcd/CSL_LCDC_262kColorModeEx
     598 00008e E63C          MOV #3, *SP(#30) ; |204| 
         000090 03   
     599                      .dwpsn  file "../c5535_bsl_revc/ezdsp5535_v1/c55xx_csl/ccs_v4.0_examples/lcd/CSL_LCDC_262kColorModeEx
     600 000091 E63E          MOV #1, *SP(#31) ; |205| 
         000093 01   
     601                      .dwpsn  file "../c5535_bsl_revc/ezdsp5535_v1/c55xx_csl/ccs_v4.0_examples/lcd/CSL_LCDC_262kColorModeEx
     602 000094 E640          MOV #0, *SP(#32) ; |206| 
         000096 00   
     603                      .dwpsn  file "../c5535_bsl_revc/ezdsp5535_v1/c55xx_csl/ccs_v4.0_examples/lcd/CSL_LCDC_262kColorModeEx
     604 000097 E642          MOV #0, *SP(#33) ; |207| 
         000099 00   
     605                      .dwpsn  file "../c5535_bsl_revc/ezdsp5535_v1/c55xx_csl/ccs_v4.0_examples/lcd/CSL_LCDC_262kColorModeEx
     606 00009a E644          MOV #0, *SP(#34) ; |208| 
         00009c 00   
     607                      .dwpsn  file "../c5535_bsl_revc/ezdsp5535_v1/c55xx_csl/ccs_v4.0_examples/lcd/CSL_LCDC_262kColorModeEx
     608 00009d E646          MOV #3, *SP(#35) ; |209| 
         00009f 03   
     609                      .dwpsn  file "../c5535_bsl_revc/ezdsp5535_v1/c55xx_csl/ccs_v4.0_examples/lcd/CSL_LCDC_262kColorModeEx
     610 0000a0 E648          MOV #31, *SP(#36) ; |211| 
         0000a2 1F   
     611                      .dwpsn  file "../c5535_bsl_revc/ezdsp5535_v1/c55xx_csl/ccs_v4.0_examples/lcd/CSL_LCDC_262kColorModeEx
     612 0000a3 E64A          MOV #63, *SP(#37) ; |212| 
         0000a5 3F   
     613                      .dwpsn  file "../c5535_bsl_revc/ezdsp5535_v1/c55xx_csl/ccs_v4.0_examples/lcd/CSL_LCDC_262kColorModeEx
     614 0000a6 E64C          MOV #15, *SP(#38) ; |213| 
TMS320C55x Assembler PC v4.4.1 Sat Sep 29 23:09:27 2018

Tools Copyright (c) 1996-2012 Texas Instruments Incorporated
csl_lcdc_262kColorModeExample.asm                                    PAGE   13

         0000a8 0F   
     615                      .dwpsn  file "../c5535_bsl_revc/ezdsp5535_v1/c55xx_csl/ccs_v4.0_examples/lcd/CSL_LCDC_262kColorModeEx
     616 0000a9 E64E          MOV #31, *SP(#39) ; |214| 
         0000ab 1F   
     617                      .dwpsn  file "../c5535_bsl_revc/ezdsp5535_v1/c55xx_csl/ccs_v4.0_examples/lcd/CSL_LCDC_262kColorModeEx
     618 0000ac E650          MOV #63, *SP(#40) ; |215| 
         0000ae 3F   
     619                      .dwpsn  file "../c5535_bsl_revc/ezdsp5535_v1/c55xx_csl/ccs_v4.0_examples/lcd/CSL_LCDC_262kColorModeEx
     620 0000af E652          MOV #15, *SP(#41) ; |216| 
         0000b1 0F   
     621                      .dwpsn  file "../c5535_bsl_revc/ezdsp5535_v1/c55xx_csl/ccs_v4.0_examples/lcd/CSL_LCDC_262kColorModeEx
     622 0000b2 E654          MOV #1, *SP(#42) ; |217| 
         0000b4 01   
     623                      .dwpsn  file "../c5535_bsl_revc/ezdsp5535_v1/c55xx_csl/ccs_v4.0_examples/lcd/CSL_LCDC_262kColorModeEx
     624 0000b5 EC10          AMAR *SP(#8), XAR2
         0000b7 AE   
     625              
     626 0000bb 4D05          RPT #5    ; |220| 
     627 0000b8 EC3C  ||      AMAR *SP(#30), XAR3
         0000ba BE   
     628              
     629                                                          ; loop starts ; |220| 
     630 0000bd       $C$L3:    
     631 0000bd       $C$DW$L$_CSL_lcdc262kColorModeTest$2$B:
     632 0000bd 8065              MOV *AR3+, *AR2+ ; |220| 
         0000bf 14   
     633                                                      ; loop ends ; |220| 
     634 0000c0       $C$DW$L$_CSL_lcdc262kColorModeTest$2$E:
     635 0000c0       $C$L4:    
     636                      .dwpsn  file "../c5535_bsl_revc/ezdsp5535_v1/c55xx_csl/ccs_v4.0_examples/lcd/CSL_LCDC_262kColorModeEx
     637 0000c0 E62A          MOV #0, *SP(#21) ; |222| 
         0000c2 00   
     638                      .dwpsn  file "../c5535_bsl_revc/ezdsp5535_v1/c55xx_csl/ccs_v4.0_examples/lcd/CSL_LCDC_262kColorModeEx
     639 0000c3 EC1C          AMAR *SP(#14), XAR2
         0000c5 AE   
     640              
     641 0000c9 4D06          RPT #6    ; |224| 
     642 0000c6 EC48  ||      AMAR *SP(#36), XAR3
         0000c8 BE   
     643              
     644                                                          ; loop starts ; |224| 
     645 0000cb       $C$L5:    
     646 0000cb       $C$DW$L$_CSL_lcdc262kColorModeTest$4$B:
     647 0000cb 8065              MOV *AR3+, *AR2+ ; |224| 
         0000cd 14   
     648                                                      ; loop ends ; |224| 
     649 0000ce       $C$DW$L$_CSL_lcdc262kColorModeTest$4$E:
     650 0000ce       $C$L6:    
     651                      .dwpsn  file "../c5535_bsl_revc/ezdsp5535_v1/c55xx_csl/ccs_v4.0_examples/lcd/CSL_LCDC_262kColorModeEx
     652 0000ce 3C00          MOV #0, AC0 ; |226| 
     653 0000d0 EB0C          MOV AC0, dbl(*SP(#6))
         0000d2 08   
     654                      .dwpsn  file "../c5535_bsl_revc/ezdsp5535_v1/c55xx_csl/ccs_v4.0_examples/lcd/CSL_LCDC_262kColorModeEx
     655 0000d3 E658          MOV #2, *SP(#44) ; |229| 
         0000d5 02   
TMS320C55x Assembler PC v4.4.1 Sat Sep 29 23:09:27 2018

Tools Copyright (c) 1996-2012 Texas Instruments Incorporated
csl_lcdc_262kColorModeExample.asm                                    PAGE   14

     656                      .dwpsn  file "../c5535_bsl_revc/ezdsp5535_v1/c55xx_csl/ccs_v4.0_examples/lcd/CSL_LCDC_262kColorModeEx
     657 0000d6 E65A          MOV #1, *SP(#45) ; |230| 
         0000d8 01   
     658                      .dwpsn  file "../c5535_bsl_revc/ezdsp5535_v1/c55xx_csl/ccs_v4.0_examples/lcd/CSL_LCDC_262kColorModeEx
     659 0000d9 E65C          MOV #1, *SP(#46) ; |231| 
         0000db 01   
     660                      .dwpsn  file "../c5535_bsl_revc/ezdsp5535_v1/c55xx_csl/ccs_v4.0_examples/lcd/CSL_LCDC_262kColorModeEx
     661 0000dc E65E          MOV #0, *SP(#47) ; |232| 
         0000de 00   
     662                      .dwpsn  file "../c5535_bsl_revc/ezdsp5535_v1/c55xx_csl/ccs_v4.0_examples/lcd/CSL_LCDC_262kColorModeEx
     663 0000df 7A00          MOV #(_gLcdBuf >> 16) << #16, AC0 ; |233| 
         0000e1 000A%
     664 0000e3 7E00          OR #(_gLcdBuf & 0xffff), AC0, AC0 ; |233| 
         0000e5 0000%
     665 0000e7 EB60          MOV AC0, dbl(*SP(#48)) ; |233| 
         0000e9 08   
     666                      .dwpsn  file "../c5535_bsl_revc/ezdsp5535_v1/c55xx_csl/ccs_v4.0_examples/lcd/CSL_LCDC_262kColorModeEx
     667 0000ea 7A00          MOV #((_gLcdBuf+21600) >> 16) << #16, AC0 ; |234| 
         0000ec 000A%
     668 0000ee 7E00          OR #((_gLcdBuf+21600) & 0xffff), AC0, AC0 ; |234| 
         0000f0 0000%
     669 0000f2 EB64          MOV AC0, dbl(*SP(#50)) ; |234| 
         0000f4 08   
     670                      .dwpsn  file "../c5535_bsl_revc/ezdsp5535_v1/c55xx_csl/ccs_v4.0_examples/lcd/CSL_LCDC_262kColorModeEx
     671 0000f5 7A00          MOV #((_gLcdBuf+21600) >> 16) << #16, AC0 ; |235| 
         0000f7 000A%
     672 0000f9 7E00          OR #((_gLcdBuf+21600) & 0xffff), AC0, AC0 ; |235| 
         0000fb 0000%
     673 0000fd EB6C          MOV AC0, dbl(*SP(#54)) ; |235| 
         0000ff 08   
     674                      .dwpsn  file "../c5535_bsl_revc/ezdsp5535_v1/c55xx_csl/ccs_v4.0_examples/lcd/CSL_LCDC_262kColorModeEx
     675              $C$DW$82        .dwtag  DW_TAG_TI_branch
     676                      .dwattr $C$DW$82, DW_AT_low_pc(0x00)
     677                      .dwattr $C$DW$82, DW_AT_name("_LCD_init")
     678                      .dwattr $C$DW$82, DW_AT_TI_call
     679 000100 6C00          CALL #_LCD_init ; |238| 
         000102 0000!
     680                                                      ; call occurs [#_LCD_init] ; |238| 
     681 000104 C404          MOV T0, *SP(#2) ; |238| 
     682                      .dwpsn  file "../c5535_bsl_revc/ezdsp5535_v1/c55xx_csl/ccs_v4.0_examples/lcd/CSL_LCDC_262kColorModeEx
     683 000106 2249          MOV T0, AR1
     684 000108 0409          BCC $C$L7,AR1 == #0 ; |239| 
         00010a 12   
     685                                                      ; branchcc occurs ; |239| 
     686                      .dwpsn  file "../c5535_bsl_revc/ezdsp5535_v1/c55xx_csl/ccs_v4.0_examples/lcd/CSL_LCDC_262kColorModeEx
     687 00010b EC31          AMOV #$C$FSL4, XAR3 ; |241| 
         00010d BE00 
         00010f 0074+
     688 000111 EB00          MOV XAR3, dbl(*SP(#0))
         000113 B5   
     689              $C$DW$83        .dwtag  DW_TAG_TI_branch
     690                      .dwattr $C$DW$83, DW_AT_low_pc(0x00)
     691                      .dwattr $C$DW$83, DW_AT_name("_printf")
     692                      .dwattr $C$DW$83, DW_AT_TI_call
     693 000114 6C00          CALL #_printf ; |241| 
TMS320C55x Assembler PC v4.4.1 Sat Sep 29 23:09:27 2018

Tools Copyright (c) 1996-2012 Texas Instruments Incorporated
csl_lcdc_262kColorModeExample.asm                                    PAGE   15

         000116 0000!
     694                                                      ; call occurs [#_printf] ; |241| 
     695                      .dwpsn  file "../c5535_bsl_revc/ezdsp5535_v1/c55xx_csl/ccs_v4.0_examples/lcd/CSL_LCDC_262kColorModeEx
     696 000118 A404          MOV *SP(#2), T0 ; |242| 
     697 00011a 0604          B $C$L27  ; |242| 
         00011c 37   
     698                                                      ; branch occurs ; |242| 
     699 00011d       $C$L7:    
     700                      .dwpsn  file "../c5535_bsl_revc/ezdsp5535_v1/c55xx_csl/ccs_v4.0_examples/lcd/CSL_LCDC_262kColorModeEx
     701 00011d EC31          AMOV #$C$FSL5, XAR3 ; |246| 
         00011f BE00 
         000121 0086+
     702 000123 EB00          MOV XAR3, dbl(*SP(#0))
         000125 B5   
     703              $C$DW$84        .dwtag  DW_TAG_TI_branch
     704                      .dwattr $C$DW$84, DW_AT_low_pc(0x00)
     705                      .dwattr $C$DW$84, DW_AT_name("_printf")
     706                      .dwattr $C$DW$84, DW_AT_TI_call
     707 000126 6C00          CALL #_printf ; |246| 
         000128 0000!
     708                                                      ; call occurs [#_printf] ; |246| 
     709                      .dwpsn  file "../c5535_bsl_revc/ezdsp5535_v1/c55xx_csl/ccs_v4.0_examples/lcd/CSL_LCDC_262kColorModeEx
     710 00012a A951          MOV *port(#7168), AR1 ; |250| 
         00012c 1C00 
     711 00012e 7D8F          AND #0x8fff, AR1, AC0 ; |250| 
         000130 FF09 
     712 000132 EC1A          BSET @#13, AC0 ; |250| 
         000134 00   
     713 000135 C051          MOV AC0, *port(#7168) ; |250| 
         000137 1C00 
     714                      .dwpsn  file "../c5535_bsl_revc/ezdsp5535_v1/c55xx_csl/ccs_v4.0_examples/lcd/CSL_LCDC_262kColorModeEx
     715 000139 A951          MOV *port(#7168), AR1 ; |251| 
         00013b 1C00 
     716 00013d 7DF3          AND #0xf3ff, AR1, AC0 ; |251| 
         00013f FF09 
     717 000141 EC16          BSET @#11, AC0 ; |251| 
         000143 00   
     718 000144 C051          MOV AC0, *port(#7168) ; |251| 
         000146 1C00 
     719                      .dwpsn  file "../c5535_bsl_revc/ezdsp5535_v1/c55xx_csl/ccs_v4.0_examples/lcd/CSL_LCDC_262kColorModeEx
     720 000148 FB51          MOV #2048, *port(#7174) ; |252| 
         00014a 0800 
         00014c 1C06 
     721                      .dwpsn  file "../c5535_bsl_revc/ezdsp5535_v1/c55xx_csl/ccs_v4.0_examples/lcd/CSL_LCDC_262kColorModeEx
     722 00014e FB51          MOV #2048, *port(#7178) ; |253| 
         000150 0800 
         000152 1C0A 
     723                      .dwpsn  file "../c5535_bsl_revc/ezdsp5535_v1/c55xx_csl/ccs_v4.0_examples/lcd/CSL_LCDC_262kColorModeEx
     724              $C$DW$85        .dwtag  DW_TAG_TI_branch
     725                      .dwattr $C$DW$85, DW_AT_low_pc(0x00)
     726                      .dwattr $C$DW$85, DW_AT_name("_IRQ_globalDisable")
     727                      .dwattr $C$DW$85, DW_AT_TI_call
     728 000154 6C00          CALL #_IRQ_globalDisable ; |256| 
         000156 0000!
     729                                                      ; call occurs [#_IRQ_globalDisable] ; |256| 
TMS320C55x Assembler PC v4.4.1 Sat Sep 29 23:09:27 2018

Tools Copyright (c) 1996-2012 Texas Instruments Incorporated
csl_lcdc_262kColorModeExample.asm                                    PAGE   16

     730                      .dwpsn  file "../c5535_bsl_revc/ezdsp5535_v1/c55xx_csl/ccs_v4.0_examples/lcd/CSL_LCDC_262kColorModeEx
     731              $C$DW$86        .dwtag  DW_TAG_TI_branch
     732                      .dwattr $C$DW$86, DW_AT_low_pc(0x00)
     733                      .dwattr $C$DW$86, DW_AT_name("_IRQ_clearAll")
     734                      .dwattr $C$DW$86, DW_AT_TI_call
     735 000158 6C00          CALL #_IRQ_clearAll ; |259| 
         00015a 0000!
     736                                                      ; call occurs [#_IRQ_clearAll] ; |259| 
     737                      .dwpsn  file "../c5535_bsl_revc/ezdsp5535_v1/c55xx_csl/ccs_v4.0_examples/lcd/CSL_LCDC_262kColorModeEx
     738              $C$DW$87        .dwtag  DW_TAG_TI_branch
     739                      .dwattr $C$DW$87, DW_AT_low_pc(0x00)
     740                      .dwattr $C$DW$87, DW_AT_name("_IRQ_disableAll")
     741                      .dwattr $C$DW$87, DW_AT_TI_call
     742 00015c 6C00          CALL #_IRQ_disableAll ; |262| 
         00015e 0000!
     743                                                      ; call occurs [#_IRQ_disableAll] ; |262| 
     744                      .dwpsn  file "../c5535_bsl_revc/ezdsp5535_v1/c55xx_csl/ccs_v4.0_examples/lcd/CSL_LCDC_262kColorModeEx
     745 000160 7A00          MOV #(_VECSTART >> 16) << #16, AC0 ; |264| 
         000162 000A%
     746 000164 7E00          OR #(_VECSTART & 0xffff), AC0, AC0 ; |264| 
         000166 0000%
     747              $C$DW$88        .dwtag  DW_TAG_TI_branch
     748                      .dwattr $C$DW$88, DW_AT_low_pc(0x00)
     749                      .dwattr $C$DW$88, DW_AT_name("_IRQ_setVecs")
     750                      .dwattr $C$DW$88, DW_AT_TI_call
     751 000168 6C00          CALL #_IRQ_setVecs ; |264| 
         00016a 0000!
     752                                                      ; call occurs [#_IRQ_setVecs] ; |264| 
     753                      .dwpsn  file "../c5535_bsl_revc/ezdsp5535_v1/c55xx_csl/ccs_v4.0_examples/lcd/CSL_LCDC_262kColorModeEx
     754              $C$DW$89        .dwtag  DW_TAG_TI_branch
     755                      .dwattr $C$DW$89, DW_AT_low_pc(0x00)
     756                      .dwattr $C$DW$89, DW_AT_name("_IRQ_clear")
     757                      .dwattr $C$DW$89, DW_AT_TI_call
     758              
     759 00016c 6C00          CALL #_IRQ_clear ; |265| 
         00016e 0000!
     760 000170 3DC4  ||      MOV #12, T0
     761              
     762                                                      ; call occurs [#_IRQ_clear] ; |265| 
     763                      .dwpsn  file "../c5535_bsl_revc/ezdsp5535_v1/c55xx_csl/ccs_v4.0_examples/lcd/CSL_LCDC_262kColorModeEx
     764 000172 7A00          MOV #(_lcd_isr >> 16) << #16, AC0 ; |267| 
         000174 000A%
     765 000176 7E00          OR #(_lcd_isr & 0xffff), AC0, AC0 ; |267| 
         000178 0000%
     766              $C$DW$90        .dwtag  DW_TAG_TI_branch
     767                      .dwattr $C$DW$90, DW_AT_low_pc(0x00)
     768                      .dwattr $C$DW$90, DW_AT_name("_IRQ_plug")
     769                      .dwattr $C$DW$90, DW_AT_TI_call
     770              
     771 00017a 6C00          CALL #_IRQ_plug ; |267| 
         00017c 0000!
     772 00017e 3DC4  ||      MOV #12, T0
     773              
     774                                                      ; call occurs [#_IRQ_plug] ; |267| 
     775                      .dwpsn  file "../c5535_bsl_revc/ezdsp5535_v1/c55xx_csl/ccs_v4.0_examples/lcd/CSL_LCDC_262kColorModeEx
TMS320C55x Assembler PC v4.4.1 Sat Sep 29 23:09:27 2018

Tools Copyright (c) 1996-2012 Texas Instruments Incorporated
csl_lcdc_262kColorModeExample.asm                                    PAGE   17

     776              $C$DW$91        .dwtag  DW_TAG_TI_branch
     777                      .dwattr $C$DW$91, DW_AT_low_pc(0x00)
     778                      .dwattr $C$DW$91, DW_AT_name("_IRQ_enable")
     779                      .dwattr $C$DW$91, DW_AT_TI_call
     780              
     781 000180 6C00          CALL #_IRQ_enable ; |269| 
         000182 0000!
     782 000184 3DC4  ||      MOV #12, T0
     783              
     784                                                      ; call occurs [#_IRQ_enable] ; |269| 
     785                      .dwpsn  file "../c5535_bsl_revc/ezdsp5535_v1/c55xx_csl/ccs_v4.0_examples/lcd/CSL_LCDC_262kColorModeEx
     786              $C$DW$92        .dwtag  DW_TAG_TI_branch
     787                      .dwattr $C$DW$92, DW_AT_low_pc(0x00)
     788                      .dwattr $C$DW$92, DW_AT_name("_IRQ_globalEnable")
     789                      .dwattr $C$DW$92, DW_AT_TI_call
     790 000186 6C00          CALL #_IRQ_globalEnable ; |271| 
         000188 0000!
     791                                                      ; call occurs [#_IRQ_globalEnable] ; |271| 
     792                      .dwpsn  file "../c5535_bsl_revc/ezdsp5535_v1/c55xx_csl/ccs_v4.0_examples/lcd/CSL_LCDC_262kColorModeEx
     793 00018a EC06          AMAR *SP(#3), XAR0
         00018c 8E   
     794 00018d EC04          AMAR *SP(#2), XAR1
         00018f 9E   
     795              $C$DW$93        .dwtag  DW_TAG_TI_branch
     796                      .dwattr $C$DW$93, DW_AT_low_pc(0x00)
     797                      .dwattr $C$DW$93, DW_AT_name("_LCD_open")
     798                      .dwattr $C$DW$93, DW_AT_TI_call
     799              
     800 000190 6C00          CALL #_LCD_open ; |274| 
         000192 0000!
     801 000194 3D04  ||      MOV #0, T0
     802              
     803                                                      ; call occurs [#_LCD_open] ; |274| 
     804 000196 EB31          MOV XAR0, dbl(*(#_hLcdc))
         000198 8500 
         00019a 0002-
     805                      .dwpsn  file "../c5535_bsl_revc/ezdsp5535_v1/c55xx_csl/ccs_v4.0_examples/lcd/CSL_LCDC_262kColorModeEx
     806 00019c ED31          MOV dbl(*(#_hLcdc)), XAR3
         00019e BF00 
         0001a0 0002-
     807 0001a2 90B0          MOV XAR3, AC0
     808 0001a4 0410          BCC $C$L8,AC0 != #0 ; |275| 
         0001a6 12   
     809                                                      ; branchcc occurs ; |275| 
     810                      .dwpsn  file "../c5535_bsl_revc/ezdsp5535_v1/c55xx_csl/ccs_v4.0_examples/lcd/CSL_LCDC_262kColorModeEx
     811 0001a7 EC31          AMOV #$C$FSL6, XAR3 ; |277| 
         0001a9 BE00 
         0001ab 009C+
     812 0001ad EB00          MOV XAR3, dbl(*SP(#0))
         0001af B5   
     813              $C$DW$94        .dwtag  DW_TAG_TI_branch
     814                      .dwattr $C$DW$94, DW_AT_low_pc(0x00)
     815                      .dwattr $C$DW$94, DW_AT_name("_printf")
     816                      .dwattr $C$DW$94, DW_AT_TI_call
     817 0001b0 6C00          CALL #_printf ; |277| 
TMS320C55x Assembler PC v4.4.1 Sat Sep 29 23:09:27 2018

Tools Copyright (c) 1996-2012 Texas Instruments Incorporated
csl_lcdc_262kColorModeExample.asm                                    PAGE   18

         0001b2 0000!
     818                                                      ; call occurs [#_printf] ; |277| 
     819                      .dwpsn  file "../c5535_bsl_revc/ezdsp5535_v1/c55xx_csl/ccs_v4.0_examples/lcd/CSL_LCDC_262kColorModeEx
     820 0001b4 3E14          MOV #-1, T0
     821 0001b6 0603          B $C$L27  ; |278| 
         0001b8 9B   
     822                                                      ; branch occurs ; |278| 
     823 0001b9       $C$L8:    
     824                      .dwpsn  file "../c5535_bsl_revc/ezdsp5535_v1/c55xx_csl/ccs_v4.0_examples/lcd/CSL_LCDC_262kColorModeEx
     825 0001b9 EC31          AMOV #$C$FSL7, XAR3 ; |282| 
         0001bb BE00 
         0001bd 00AE+
     826 0001bf EB00          MOV XAR3, dbl(*SP(#0))
         0001c1 B5   
     827              $C$DW$95        .dwtag  DW_TAG_TI_branch
     828                      .dwattr $C$DW$95, DW_AT_low_pc(0x00)
     829                      .dwattr $C$DW$95, DW_AT_name("_printf")
     830                      .dwattr $C$DW$95, DW_AT_TI_call
     831 0001c2 6C00          CALL #_printf ; |282| 
         0001c4 0000!
     832                                                      ; call occurs [#_printf] ; |282| 
     833                      .dwpsn  file "../c5535_bsl_revc/ezdsp5535_v1/c55xx_csl/ccs_v4.0_examples/lcd/CSL_LCDC_262kColorModeEx
     834 0001c6 EC0C          AMAR *SP(#6), XAR1
         0001c8 9E   
     835 0001c9 ED31          MOV dbl(*(#_hLcdc)), XAR0
         0001cb 8F00 
         0001cd 0002-
     836              $C$DW$96        .dwtag  DW_TAG_TI_branch
     837                      .dwattr $C$DW$96, DW_AT_low_pc(0x00)
     838                      .dwattr $C$DW$96, DW_AT_name("_LCD_setup")
     839                      .dwattr $C$DW$96, DW_AT_TI_call
     840 0001cf 6C00          CALL #_LCD_setup ; |286| 
         0001d1 0000!
     841                                                      ; call occurs [#_LCD_setup] ; |286| 
     842 0001d3 C404          MOV T0, *SP(#2) ; |286| 
     843                      .dwpsn  file "../c5535_bsl_revc/ezdsp5535_v1/c55xx_csl/ccs_v4.0_examples/lcd/CSL_LCDC_262kColorModeEx
     844 0001d5 2249          MOV T0, AR1
     845 0001d7 0409          BCC $C$L9,AR1 == #0 ; |287| 
         0001d9 12   
     846                                                      ; branchcc occurs ; |287| 
     847                      .dwpsn  file "../c5535_bsl_revc/ezdsp5535_v1/c55xx_csl/ccs_v4.0_examples/lcd/CSL_LCDC_262kColorModeEx
     848 0001da EC31          AMOV #$C$FSL8, XAR3 ; |289| 
         0001dc BE00 
         0001de 00C4+
     849 0001e0 EB00          MOV XAR3, dbl(*SP(#0))
         0001e2 B5   
     850              $C$DW$97        .dwtag  DW_TAG_TI_branch
     851                      .dwattr $C$DW$97, DW_AT_low_pc(0x00)
     852                      .dwattr $C$DW$97, DW_AT_name("_printf")
     853                      .dwattr $C$DW$97, DW_AT_TI_call
     854 0001e3 6C00          CALL #_printf ; |289| 
         0001e5 0000!
     855                                                      ; call occurs [#_printf] ; |289| 
     856                      .dwpsn  file "../c5535_bsl_revc/ezdsp5535_v1/c55xx_csl/ccs_v4.0_examples/lcd/CSL_LCDC_262kColorModeEx
     857 0001e7 A404          MOV *SP(#2), T0 ; |290| 
TMS320C55x Assembler PC v4.4.1 Sat Sep 29 23:09:27 2018

Tools Copyright (c) 1996-2012 Texas Instruments Incorporated
csl_lcdc_262kColorModeExample.asm                                    PAGE   19

     858 0001e9 0603          B $C$L27  ; |290| 
         0001eb 68   
     859                                                      ; branch occurs ; |290| 
     860 0001ec       $C$L9:    
     861                      .dwpsn  file "../c5535_bsl_revc/ezdsp5535_v1/c55xx_csl/ccs_v4.0_examples/lcd/CSL_LCDC_262kColorModeEx
     862 0001ec EC31          AMOV #$C$FSL9, XAR3 ; |294| 
         0001ee BE00 
         0001f0 00D6+
     863 0001f2 EB00          MOV XAR3, dbl(*SP(#0))
         0001f4 B5   
     864              $C$DW$98        .dwtag  DW_TAG_TI_branch
     865                      .dwattr $C$DW$98, DW_AT_low_pc(0x00)
     866                      .dwattr $C$DW$98, DW_AT_name("_printf")
     867                      .dwattr $C$DW$98, DW_AT_TI_call
     868 0001f5 6C00          CALL #_printf ; |294| 
         0001f7 0000!
     869                                                      ; call occurs [#_printf] ; |294| 
     870                      .dwpsn  file "../c5535_bsl_revc/ezdsp5535_v1/c55xx_csl/ccs_v4.0_examples/lcd/CSL_LCDC_262kColorModeEx
     871              $C$DW$99        .dwtag  DW_TAG_TI_branch
     872                      .dwattr $C$DW$99, DW_AT_low_pc(0x00)
     873                      .dwattr $C$DW$99, DW_AT_name("_panelSetup")
     874                      .dwattr $C$DW$99, DW_AT_TI_call
     875              
     876 0001f9 6C00          CALL #_panelSetup ; |298| 
         0001fb 0000!
     877 0001fd 3D04  ||      MOV #0, T0
     878              
     879                                                      ; call occurs [#_panelSetup] ; |298| 
     880                      .dwpsn  file "../c5535_bsl_revc/ezdsp5535_v1/c55xx_csl/ccs_v4.0_examples/lcd/CSL_LCDC_262kColorModeEx
     881 0001ff 7600          MOV #119, AR1 ; |301| 
         000201 7798 
     882 000203 7600          MOV #59, AR0 ; |301| 
         000205 3B88 
     883              
     884 000207 3C05          MOV #0, T1
     885 000209 3D0A  ||      MOV #0, AR2
     886              
     887              $C$DW$100       .dwtag  DW_TAG_TI_branch
     888                      .dwattr $C$DW$100, DW_AT_low_pc(0x00)
     889                      .dwattr $C$DW$100, DW_AT_name("_windowSetup")
     890                      .dwattr $C$DW$100, DW_AT_TI_call
     891              
     892 00020b 6C00          CALL #_windowSetup ; |301| 
         00020d 0000!
     893 00020f 3D04  ||      MOV #0, T0
     894              
     895                                                      ; call occurs [#_windowSetup] ; |301| 
     896 000211 C470          MOV T0, *SP(#56) ; |301| 
     897                      .dwpsn  file "../c5535_bsl_revc/ezdsp5535_v1/c55xx_csl/ccs_v4.0_examples/lcd/CSL_LCDC_262kColorModeEx
     898 000213 2249          MOV T0, AR1
     899 000215 0409          BCC $C$L10,AR1 == #0 ; |302| 
         000217 12   
     900                                                      ; branchcc occurs ; |302| 
     901                      .dwpsn  file "../c5535_bsl_revc/ezdsp5535_v1/c55xx_csl/ccs_v4.0_examples/lcd/CSL_LCDC_262kColorModeEx
     902 000218 EC31          AMOV #$C$FSL10, XAR3 ; |304| 
TMS320C55x Assembler PC v4.4.1 Sat Sep 29 23:09:27 2018

Tools Copyright (c) 1996-2012 Texas Instruments Incorporated
csl_lcdc_262kColorModeExample.asm                                    PAGE   20

         00021a BE00 
         00021c 00EC+
     903 00021e EB00          MOV XAR3, dbl(*SP(#0))
         000220 B5   
     904              $C$DW$101       .dwtag  DW_TAG_TI_branch
     905                      .dwattr $C$DW$101, DW_AT_low_pc(0x00)
     906                      .dwattr $C$DW$101, DW_AT_name("_printf")
     907                      .dwattr $C$DW$101, DW_AT_TI_call
     908 000221 6C00          CALL #_printf ; |304| 
         000223 0000!
     909                                                      ; call occurs [#_printf] ; |304| 
     910                      .dwpsn  file "../c5535_bsl_revc/ezdsp5535_v1/c55xx_csl/ccs_v4.0_examples/lcd/CSL_LCDC_262kColorModeEx
     911 000225 3E14          MOV #-1, T0
     912 000227 0603          B $C$L27  ; |305| 
         000229 2A   
     913                                                      ; branch occurs ; |305| 
     914 00022a       $C$L10:    
     915                      .dwpsn  file "../c5535_bsl_revc/ezdsp5535_v1/c55xx_csl/ccs_v4.0_examples/lcd/CSL_LCDC_262kColorModeEx
     916 00022a EC31          AMOV #$C$FSL11, XAR3 ; |309| 
         00022c BE00 
         00022e 0100+
     917 000230 EB00          MOV XAR3, dbl(*SP(#0))
         000232 B5   
     918              $C$DW$102       .dwtag  DW_TAG_TI_branch
     919                      .dwattr $C$DW$102, DW_AT_low_pc(0x00)
     920                      .dwattr $C$DW$102, DW_AT_name("_printf")
     921                      .dwattr $C$DW$102, DW_AT_TI_call
     922 000233 6C00          CALL #_printf ; |309| 
         000235 0000!
     923                                                      ; call occurs [#_printf] ; |309| 
     924                      .dwpsn  file "../c5535_bsl_revc/ezdsp5535_v1/c55xx_csl/ccs_v4.0_examples/lcd/CSL_LCDC_262kColorModeEx
     925 000237 7600          MOV #255, AC0 ; |312| 
         000239 FF08 
     926 00023b EB74          MOV AC0, dbl(*SP(#58)) ; |312| 
         00023d 08   
     927                      .dwpsn  file "../c5535_bsl_revc/ezdsp5535_v1/c55xx_csl/ccs_v4.0_examples/lcd/CSL_LCDC_262kColorModeEx
     928 00023e E672          MOV #0, *SP(#57) ; |314| 
         000240 00   
     929                      .dwpsn  file "../c5535_bsl_revc/ezdsp5535_v1/c55xx_csl/ccs_v4.0_examples/lcd/CSL_LCDC_262kColorModeEx
     930 000241 7654          MOV #21600, AR2 ; |314| 
         000243 60A8 
     931 000245 A972          MOV *SP(#57), AR1 ; |314| 
     932 000247 1298          CMPU AR1 >= AR2, TC1 ; |314| 
         000249 A4   
     933 00024a 6D64          BCC $C$L13,TC1 ; |314| 
         00024c 0083 
     934                                                      ; branchcc occurs ; |314| 
     935 00024e       $C$L11:    
     936 00024e       $C$DW$L$_CSL_lcdc262kColorModeTest$18$B:
     937                      .dwpsn  file "../c5535_bsl_revc/ezdsp5535_v1/c55xx_csl/ccs_v4.0_examples/lcd/CSL_LCDC_262kColorModeEx
     938 00024e A472          MOV *SP(#57), T0 ; |316| 
     939 000250 ED74          MOV dbl(*SP(#58)), AC0 ; |316| 
         000252 08   
     940 000253 EC31          AMOV #_gLcdBuf, XAR3 ; |316| 
         000255 BE00 
TMS320C55x Assembler PC v4.4.1 Sat Sep 29 23:09:27 2018

Tools Copyright (c) 1996-2012 Texas Instruments Incorporated
csl_lcdc_262kColorModeExample.asm                                    PAGE   21

         000257 0000-
     941 000259 18FF          AND #0x00ff, AC0, AC0 ; |316| 
         00025b 00   
     942 00025c C06B          MOV AC0, *AR3(T0) ; |316| 
     943                      .dwpsn  file "../c5535_bsl_revc/ezdsp5535_v1/c55xx_csl/ccs_v4.0_examples/lcd/CSL_LCDC_262kColorModeEx
     944 00025e A472          MOV *SP(#57), T0 ; |317| 
     945 000260 4014          ADD #1, T0 ; |317| 
     946 000262 ED74          MOV dbl(*SP(#58)), AC0 ; |317| 
         000264 08   
     947 000265 1007          SFTL AC0, #-8, AC0 ; |317| 
         000267 38   
     948 000268 18FF          AND #0x00ff, AC0, AC0 ; |317| 
         00026a 00   
     949 00026b C06B          MOV AC0, *AR3(T0) ; |317| 
     950                      .dwpsn  file "../c5535_bsl_revc/ezdsp5535_v1/c55xx_csl/ccs_v4.0_examples/lcd/CSL_LCDC_262kColorModeEx
     951 00026d A472          MOV *SP(#57), T0 ; |318| 
     952 00026f 4024          ADD #2, T0 ; |318| 
     953 000271 ED74          MOV dbl(*SP(#58)), AC0 ; |318| 
         000273 08   
     954 000274 1007          SFTL AC0, #-16, AC0 ; |318| 
         000276 30   
     955 000277 18FF          AND #0x00ff, AC0, AC0 ; |318| 
         000279 00   
     956 00027a C06B          MOV AC0, *AR3(T0) ; |318| 
     957                      .dwpsn  file "../c5535_bsl_revc/ezdsp5535_v1/c55xx_csl/ccs_v4.0_examples/lcd/CSL_LCDC_262kColorModeEx
     958 00027c F05C          CMP *SP(#46) == #1, TC1 ; |320| 
         00027e 0001 
     959 000280 0474          BCC $C$L12,!TC1 ; |320| 
         000282 41   
     960                                                      ; branchcc occurs ; |320| 
     961 000283       $C$DW$L$_CSL_lcdc262kColorModeTest$18$E:
     962 000283       $C$DW$L$_CSL_lcdc262kColorModeTest$19$B:
     963                      .dwpsn  file "../c5535_bsl_revc/ezdsp5535_v1/c55xx_csl/ccs_v4.0_examples/lcd/CSL_LCDC_262kColorModeEx
     964 000283 A472          MOV *SP(#57), T0 ; |322| 
     965              
     966 000285 8A7D          MOV *AR3(T0), AC1 ; |322| 
         000287 F1A0 
     967              ||      MOV *AR3(T0), AC0 ; |322| 
     968              
     969 000289 76FF          BFXTR #0xff00, AC0, AC0 ; |322| 
         00028b 0000 
     970 00028d 1011          OR AC1 << #8, AC0 ; |322| 
         00028f 08   
     971 000290 C06B          MOV AC0, *AR3(T0) ; |322| 
     972                      .dwpsn  file "../c5535_bsl_revc/ezdsp5535_v1/c55xx_csl/ccs_v4.0_examples/lcd/CSL_LCDC_262kColorModeEx
     973 000292 A472          MOV *SP(#57), T0 ; |323| 
     974 000294 4014          ADD #1, T0 ; |323| 
     975 000296 A16B          MOV *AR3(T0), AC1 ; |323| 
     976 000298 A472          MOV *SP(#57), T0 ; |323| 
     977 00029a 4014          ADD #1, T0 ; |323| 
     978 00029c A06B          MOV *AR3(T0), AC0 ; |323| 
     979 00029e A472          MOV *SP(#57), T0 ; |323| 
     980 0002a0 4014          ADD #1, T0 ; |323| 
     981 0002a2 76FF          BFXTR #0xff00, AC0, AC0 ; |323| 
         0002a4 0000 
TMS320C55x Assembler PC v4.4.1 Sat Sep 29 23:09:27 2018

Tools Copyright (c) 1996-2012 Texas Instruments Incorporated
csl_lcdc_262kColorModeExample.asm                                    PAGE   22

     982 0002a6 1011          OR AC1 << #8, AC0 ; |323| 
         0002a8 08   
     983 0002a9 C06B          MOV AC0, *AR3(T0) ; |323| 
     984                      .dwpsn  file "../c5535_bsl_revc/ezdsp5535_v1/c55xx_csl/ccs_v4.0_examples/lcd/CSL_LCDC_262kColorModeEx
     985 0002ab A472          MOV *SP(#57), T0 ; |324| 
     986 0002ad 4024          ADD #2, T0 ; |324| 
     987 0002af A16B          MOV *AR3(T0), AC1 ; |324| 
     988 0002b1 A472          MOV *SP(#57), T0 ; |324| 
     989 0002b3 4024          ADD #2, T0 ; |324| 
     990 0002b5 A06B          MOV *AR3(T0), AC0 ; |324| 
     991 0002b7 A472          MOV *SP(#57), T0 ; |324| 
     992 0002b9 4024          ADD #2, T0 ; |324| 
     993 0002bb 76FF          BFXTR #0xff00, AC0, AC0 ; |324| 
         0002bd 0000 
     994 0002bf 1011          OR AC1 << #8, AC0 ; |324| 
         0002c1 08   
     995 0002c2 C06B          MOV AC0, *AR3(T0) ; |324| 
     996 0002c4       $C$DW$L$_CSL_lcdc262kColorModeTest$19$E:
     997 0002c4       $C$L12:    
     998 0002c4       $C$DW$L$_CSL_lcdc262kColorModeTest$20$B:
     999                      .dwpsn  file "../c5535_bsl_revc/ezdsp5535_v1/c55xx_csl/ccs_v4.0_examples/lcd/CSL_LCDC_262kColorModeEx
    1000 0002c4 F772          ADD #3, *SP(#57) ; |314| 
         0002c6 0003 
    1001                      .dwpsn  file "../c5535_bsl_revc/ezdsp5535_v1/c55xx_csl/ccs_v4.0_examples/lcd/CSL_LCDC_262kColorModeEx
    1002 0002c8 A972          MOV *SP(#57), AR1 ; |314| 
    1003 0002ca 1294          CMPU AR1 < AR2, TC1 ; |314| 
         0002cc A4   
    1004 0002cd 6D64          BCC $C$L11,TC1 ; |314| 
         0002cf FF7D 
    1005                                                      ; branchcc occurs ; |314| 
    1006 0002d1       $C$DW$L$_CSL_lcdc262kColorModeTest$20$E:
    1007 0002d1       $C$L13:    
    1008                      .dwpsn  file "../c5535_bsl_revc/ezdsp5535_v1/c55xx_csl/ccs_v4.0_examples/lcd/CSL_LCDC_262kColorModeEx
    1009 0002d1 E631          MOV #0, *(#_cnt_lcd) ; |328| 
         0002d3 0000 
         0002d5 0000-
    1010                      .dwpsn  file "../c5535_bsl_revc/ezdsp5535_v1/c55xx_csl/ccs_v4.0_examples/lcd/CSL_LCDC_262kColorModeEx
    1011 0002d7 7600          MOV #92, T0 ; |329| 
         0002d9 5C48 
    1012              $C$DW$103       .dwtag  DW_TAG_TI_branch
    1013                      .dwattr $C$DW$103, DW_AT_low_pc(0x00)
    1014                      .dwattr $C$DW$103, DW_AT_name("_cmdWrite")
    1015                      .dwattr $C$DW$103, DW_AT_TI_call
    1016              
    1017 0002db 6C00          CALL #_cmdWrite ; |329| 
         0002dd 0000!
    1018 0002df 3D05  ||      MOV #0, T1
    1019              
    1020                                                      ; call occurs [#_cmdWrite] ; |329| 
    1021                      .dwpsn  file "../c5535_bsl_revc/ezdsp5535_v1/c55xx_csl/ccs_v4.0_examples/lcd/CSL_LCDC_262kColorModeEx
    1022 0002e1 EC58          AMAR *SP(#44), XAR1
         0002e3 9E   
    1023 0002e4 ED31          MOV dbl(*(#_hLcdc)), XAR0
         0002e6 8F00 
         0002e8 0002-
TMS320C55x Assembler PC v4.4.1 Sat Sep 29 23:09:27 2018

Tools Copyright (c) 1996-2012 Texas Instruments Incorporated
csl_lcdc_262kColorModeExample.asm                                    PAGE   23

    1024              $C$DW$104       .dwtag  DW_TAG_TI_branch
    1025                      .dwattr $C$DW$104, DW_AT_low_pc(0x00)
    1026                      .dwattr $C$DW$104, DW_AT_name("_LCD_configDMA")
    1027                      .dwattr $C$DW$104, DW_AT_TI_call
    1028 0002ea 6C00          CALL #_LCD_configDMA ; |331| 
         0002ec 0000!
    1029                                                      ; call occurs [#_LCD_configDMA] ; |331| 
    1030 0002ee C404          MOV T0, *SP(#2) ; |331| 
    1031                      .dwpsn  file "../c5535_bsl_revc/ezdsp5535_v1/c55xx_csl/ccs_v4.0_examples/lcd/CSL_LCDC_262kColorModeEx
    1032 0002f0 2249          MOV T0, AR1
    1033 0002f2 0409          BCC $C$L14,AR1 == #0 ; |332| 
         0002f4 12   
    1034                                                      ; branchcc occurs ; |332| 
    1035                      .dwpsn  file "../c5535_bsl_revc/ezdsp5535_v1/c55xx_csl/ccs_v4.0_examples/lcd/CSL_LCDC_262kColorModeEx
    1036 0002f5 EC31          AMOV #$C$FSL12, XAR3 ; |334| 
         0002f7 BE00 
         0002f9 0118+
    1037 0002fb EB00          MOV XAR3, dbl(*SP(#0))
         0002fd B5   
    1038              $C$DW$105       .dwtag  DW_TAG_TI_branch
    1039                      .dwattr $C$DW$105, DW_AT_low_pc(0x00)
    1040                      .dwattr $C$DW$105, DW_AT_name("_printf")
    1041                      .dwattr $C$DW$105, DW_AT_TI_call
    1042 0002fe 6C00          CALL #_printf ; |334| 
         000300 0000!
    1043                                                      ; call occurs [#_printf] ; |334| 
    1044                      .dwpsn  file "../c5535_bsl_revc/ezdsp5535_v1/c55xx_csl/ccs_v4.0_examples/lcd/CSL_LCDC_262kColorModeEx
    1045 000302 A404          MOV *SP(#2), T0 ; |335| 
    1046 000304 0602          B $C$L27  ; |335| 
         000306 4D   
    1047                                                      ; branch occurs ; |335| 
    1048 000307       $C$L14:    
    1049                      .dwpsn  file "../c5535_bsl_revc/ezdsp5535_v1/c55xx_csl/ccs_v4.0_examples/lcd/CSL_LCDC_262kColorModeEx
    1050 000307 EC31          AMOV #$C$FSL13, XAR3 ; |339| 
         000309 BE00 
         00030b 012E+
    1051 00030d EB00          MOV XAR3, dbl(*SP(#0))
         00030f B5   
    1052              $C$DW$106       .dwtag  DW_TAG_TI_branch
    1053                      .dwattr $C$DW$106, DW_AT_low_pc(0x00)
    1054                      .dwattr $C$DW$106, DW_AT_name("_printf")
    1055                      .dwattr $C$DW$106, DW_AT_TI_call
    1056 000310 6C00          CALL #_printf ; |339| 
         000312 0000!
    1057                                                      ; call occurs [#_printf] ; |339| 
    1058                      .dwpsn  file "../c5535_bsl_revc/ezdsp5535_v1/c55xx_csl/ccs_v4.0_examples/lcd/CSL_LCDC_262kColorModeEx
    1059 000314 ED31          MOV dbl(*(#_hLcdc)), XAR0
         000316 8F00 
         000318 0002-
    1060              $C$DW$107       .dwtag  DW_TAG_TI_branch
    1061                      .dwattr $C$DW$107, DW_AT_low_pc(0x00)
    1062                      .dwattr $C$DW$107, DW_AT_name("_CSL_lcdcEnableLiddDMA")
    1063                      .dwattr $C$DW$107, DW_AT_TI_call
    1064 00031a 08FC          CALL #_CSL_lcdcEnableLiddDMA ; |343| 
         00031c E3   
TMS320C55x Assembler PC v4.4.1 Sat Sep 29 23:09:27 2018

Tools Copyright (c) 1996-2012 Texas Instruments Incorporated
csl_lcdc_262kColorModeExample.asm                                    PAGE   24

    1065                                                      ; call occurs [#_CSL_lcdcEnableLiddDMA] ; |343| 
    1066                      .dwpsn  file "../c5535_bsl_revc/ezdsp5535_v1/c55xx_csl/ccs_v4.0_examples/lcd/CSL_LCDC_262kColorModeEx
    1067 00031d F031          CMP *(#_cnt_lcd) == #1, TC1 ; |346| 
         00031f 0001 
         000321 0000 
         000323 00-  
    1068 000324 6564          BCC $C$L16,TC1 ; |346| 
    1069                                                      ; branchcc occurs ; |346| 
    1070 000326       $C$L15:    
    1071 000326       $C$DW$L$_CSL_lcdc262kColorModeTest$25$B:
    1072 000326 F031          CMP *(#_cnt_lcd) == #1, TC1 ; |346| 
         000328 0001 
         00032a 0000 
         00032c 00-  
    1073 00032d 0474          BCC $C$L15,!TC1 ; |346| 
         00032f F6   
    1074                                                      ; branchcc occurs ; |346| 
    1075 000330       $C$DW$L$_CSL_lcdc262kColorModeTest$25$E:
    1076 000330       $C$L16:    
    1077                      .dwpsn  file "../c5535_bsl_revc/ezdsp5535_v1/c55xx_csl/ccs_v4.0_examples/lcd/CSL_LCDC_262kColorModeEx
    1078 000330 ED31          MOV dbl(*(#_hLcdc)), XAR0
         000332 8F00 
         000334 0002-
    1079              $C$DW$108       .dwtag  DW_TAG_TI_branch
    1080                      .dwattr $C$DW$108, DW_AT_low_pc(0x00)
    1081                      .dwattr $C$DW$108, DW_AT_name("_CSL_lcdcDisableLiddDMA")
    1082                      .dwattr $C$DW$108, DW_AT_TI_call
    1083 000336 08FC          CALL #_CSL_lcdcDisableLiddDMA ; |349| 
         000338 EB   
    1084                                                      ; call occurs [#_CSL_lcdcDisableLiddDMA] ; |349| 
    1085                      .dwpsn  file "../c5535_bsl_revc/ezdsp5535_v1/c55xx_csl/ccs_v4.0_examples/lcd/CSL_LCDC_262kColorModeEx
    1086 000339 E631          MOV #0, *(#_cnt_lcd) ; |350| 
         00033b 0000 
         00033d 0000-
    1087                      .dwpsn  file "../c5535_bsl_revc/ezdsp5535_v1/c55xx_csl/ccs_v4.0_examples/lcd/CSL_LCDC_262kColorModeEx
    1088 00033f 7600          MOV #119, AR1 ; |353| 
         000341 7798 
    1089 000343 7600          MOV #60, T0 ; |353| 
         000345 3C48 
    1090              
    1091 000347 7600          MOV #119, AR0 ; |353| 
         000349 7788 
    1092 00034b 3D05  ||      MOV #0, T1
    1093              
    1094              $C$DW$109       .dwtag  DW_TAG_TI_branch
    1095                      .dwattr $C$DW$109, DW_AT_low_pc(0x00)
    1096                      .dwattr $C$DW$109, DW_AT_name("_windowSetup")
    1097                      .dwattr $C$DW$109, DW_AT_TI_call
    1098              
    1099 00034d 6C00          CALL #_windowSetup ; |353| 
         00034f 0000!
    1100 000351 3D0A  ||      MOV #0, AR2
    1101              
    1102                                                      ; call occurs [#_windowSetup] ; |353| 
    1103 000353 C470          MOV T0, *SP(#56) ; |353| 
TMS320C55x Assembler PC v4.4.1 Sat Sep 29 23:09:27 2018

Tools Copyright (c) 1996-2012 Texas Instruments Incorporated
csl_lcdc_262kColorModeExample.asm                                    PAGE   25

    1104                      .dwpsn  file "../c5535_bsl_revc/ezdsp5535_v1/c55xx_csl/ccs_v4.0_examples/lcd/CSL_LCDC_262kColorModeEx
    1105 000355 2249          MOV T0, AR1
    1106 000357 0409          BCC $C$L17,AR1 == #0 ; |354| 
         000359 12   
    1107                                                      ; branchcc occurs ; |354| 
    1108                      .dwpsn  file "../c5535_bsl_revc/ezdsp5535_v1/c55xx_csl/ccs_v4.0_examples/lcd/CSL_LCDC_262kColorModeEx
    1109 00035a EC31          AMOV #$C$FSL10, XAR3 ; |356| 
         00035c BE00 
         00035e 00EC+
    1110 000360 EB00          MOV XAR3, dbl(*SP(#0))
         000362 B5   
    1111              $C$DW$110       .dwtag  DW_TAG_TI_branch
    1112                      .dwattr $C$DW$110, DW_AT_low_pc(0x00)
    1113                      .dwattr $C$DW$110, DW_AT_name("_printf")
    1114                      .dwattr $C$DW$110, DW_AT_TI_call
    1115 000363 6C00          CALL #_printf ; |356| 
         000365 0000!
    1116                                                      ; call occurs [#_printf] ; |356| 
    1117                      .dwpsn  file "../c5535_bsl_revc/ezdsp5535_v1/c55xx_csl/ccs_v4.0_examples/lcd/CSL_LCDC_262kColorModeEx
    1118 000367 3E14          MOV #-1, T0
    1119 000369 0601          B $C$L27  ; |357| 
         00036b E8   
    1120                                                      ; branch occurs ; |357| 
    1121 00036c       $C$L17:    
    1122                      .dwpsn  file "../c5535_bsl_revc/ezdsp5535_v1/c55xx_csl/ccs_v4.0_examples/lcd/CSL_LCDC_262kColorModeEx
    1123 00036c EC31          AMOV #$C$FSL11, XAR3 ; |361| 
         00036e BE00 
         000370 0100+
    1124 000372 EB00          MOV XAR3, dbl(*SP(#0))
         000374 B5   
    1125              $C$DW$111       .dwtag  DW_TAG_TI_branch
    1126                      .dwattr $C$DW$111, DW_AT_low_pc(0x00)
    1127                      .dwattr $C$DW$111, DW_AT_name("_printf")
    1128                      .dwattr $C$DW$111, DW_AT_TI_call
    1129 000375 6C00          CALL #_printf ; |361| 
         000377 0000!
    1130                                                      ; call occurs [#_printf] ; |361| 
    1131                      .dwpsn  file "../c5535_bsl_revc/ezdsp5535_v1/c55xx_csl/ccs_v4.0_examples/lcd/CSL_LCDC_262kColorModeEx
    1132 000379 E672          MOV #0, *SP(#57) ; |365| 
         00037b 00   
    1133                      .dwpsn  file "../c5535_bsl_revc/ezdsp5535_v1/c55xx_csl/ccs_v4.0_examples/lcd/CSL_LCDC_262kColorModeEx
    1134 00037c 7654          MOV #21600, AR2 ; |365| 
         00037e 60A8 
    1135 000380 A972          MOV *SP(#57), AR1 ; |365| 
    1136 000382 1298          CMPU AR1 >= AR2, TC1 ; |365| 
         000384 A4   
    1137 000385 0464          BCC $C$L19,TC1 ; |365| 
         000387 17   
    1138                                                      ; branchcc occurs ; |365| 
    1139 000388       $C$L18:    
    1140 000388       $C$DW$L$_CSL_lcdc262kColorModeTest$30$B:
    1141                      .dwpsn  file "../c5535_bsl_revc/ezdsp5535_v1/c55xx_csl/ccs_v4.0_examples/lcd/CSL_LCDC_262kColorModeEx
    1142 000388 A472          MOV *SP(#57), T0 ; |367| 
    1143 00038a EC31          AMOV #_gLcdBuf, XAR3 ; |367| 
         00038c BE00 
TMS320C55x Assembler PC v4.4.1 Sat Sep 29 23:09:27 2018

Tools Copyright (c) 1996-2012 Texas Instruments Incorporated
csl_lcdc_262kColorModeExample.asm                                    PAGE   26

         00038e 0000-
    1144 000390 E66B          MOV #0, *AR3(T0) ; |367| 
         000392 00   
    1145                      .dwpsn  file "../c5535_bsl_revc/ezdsp5535_v1/c55xx_csl/ccs_v4.0_examples/lcd/CSL_LCDC_262kColorModeEx
    1146 000393 F772          ADD #1, *SP(#57) ; |365| 
         000395 0001 
    1147                      .dwpsn  file "../c5535_bsl_revc/ezdsp5535_v1/c55xx_csl/ccs_v4.0_examples/lcd/CSL_LCDC_262kColorModeEx
    1148 000397 A972          MOV *SP(#57), AR1 ; |365| 
    1149 000399 1294          CMPU AR1 < AR2, TC1 ; |365| 
         00039b A4   
    1150 00039c 0464          BCC $C$L18,TC1 ; |365| 
         00039e E9   
    1151                                                      ; branchcc occurs ; |365| 
    1152 00039f       $C$DW$L$_CSL_lcdc262kColorModeTest$30$E:
    1153 00039f       $C$L19:    
    1154                      .dwpsn  file "../c5535_bsl_revc/ezdsp5535_v1/c55xx_csl/ccs_v4.0_examples/lcd/CSL_LCDC_262kColorModeEx
    1155 00039f 3C30          MOV #3, AC0 ; |370| 
    1156 0003a1 EB74          MOV AC0, dbl(*SP(#58)) ; |370| 
         0003a3 08   
    1157                      .dwpsn  file "../c5535_bsl_revc/ezdsp5535_v1/c55xx_csl/ccs_v4.0_examples/lcd/CSL_LCDC_262kColorModeEx
    1158 0003a4 E672          MOV #0, *SP(#57) ; |372| 
         0003a6 00   
    1159                      .dwpsn  file "../c5535_bsl_revc/ezdsp5535_v1/c55xx_csl/ccs_v4.0_examples/lcd/CSL_LCDC_262kColorModeEx
    1160 0003a7 A972          MOV *SP(#57), AR1 ; |372| 
    1161 0003a9 1298          CMPU AR1 >= AR2, TC1 ; |372| 
         0003ab A4   
    1162 0003ac 6D64          BCC $C$L22,TC1 ; |372| 
         0003ae 0083 
    1163                                                      ; branchcc occurs ; |372| 
    1164 0003b0       $C$L20:    
    1165 0003b0       $C$DW$L$_CSL_lcdc262kColorModeTest$32$B:
    1166                      .dwpsn  file "../c5535_bsl_revc/ezdsp5535_v1/c55xx_csl/ccs_v4.0_examples/lcd/CSL_LCDC_262kColorModeEx
    1167 0003b0 A472          MOV *SP(#57), T0 ; |374| 
    1168 0003b2 ED74          MOV dbl(*SP(#58)), AC0 ; |374| 
         0003b4 08   
    1169 0003b5 EC31          AMOV #_gLcdBuf, XAR3 ; |374| 
         0003b7 BE00 
         0003b9 0000-
    1170 0003bb 18FF          AND #0x00ff, AC0, AC0 ; |374| 
         0003bd 00   
    1171 0003be C06B          MOV AC0, *AR3(T0) ; |374| 
    1172                      .dwpsn  file "../c5535_bsl_revc/ezdsp5535_v1/c55xx_csl/ccs_v4.0_examples/lcd/CSL_LCDC_262kColorModeEx
    1173 0003c0 A472          MOV *SP(#57), T0 ; |375| 
    1174 0003c2 4014          ADD #1, T0 ; |375| 
    1175 0003c4 ED74          MOV dbl(*SP(#58)), AC0 ; |375| 
         0003c6 08   
    1176 0003c7 1007          SFTL AC0, #-8, AC0 ; |375| 
         0003c9 38   
    1177 0003ca 18FF          AND #0x00ff, AC0, AC0 ; |375| 
         0003cc 00   
    1178 0003cd C06B          MOV AC0, *AR3(T0) ; |375| 
    1179                      .dwpsn  file "../c5535_bsl_revc/ezdsp5535_v1/c55xx_csl/ccs_v4.0_examples/lcd/CSL_LCDC_262kColorModeEx
    1180 0003cf A472          MOV *SP(#57), T0 ; |376| 
    1181 0003d1 4024          ADD #2, T0 ; |376| 
    1182 0003d3 ED74          MOV dbl(*SP(#58)), AC0 ; |376| 
TMS320C55x Assembler PC v4.4.1 Sat Sep 29 23:09:27 2018

Tools Copyright (c) 1996-2012 Texas Instruments Incorporated
csl_lcdc_262kColorModeExample.asm                                    PAGE   27

         0003d5 08   
    1183 0003d6 1007          SFTL AC0, #-16, AC0 ; |376| 
         0003d8 30   
    1184 0003d9 18FF          AND #0x00ff, AC0, AC0 ; |376| 
         0003db 00   
    1185 0003dc C06B          MOV AC0, *AR3(T0) ; |376| 
    1186                      .dwpsn  file "../c5535_bsl_revc/ezdsp5535_v1/c55xx_csl/ccs_v4.0_examples/lcd/CSL_LCDC_262kColorModeEx
    1187 0003de F05C          CMP *SP(#46) == #1, TC1 ; |378| 
         0003e0 0001 
    1188 0003e2 0474          BCC $C$L21,!TC1 ; |378| 
         0003e4 41   
    1189                                                      ; branchcc occurs ; |378| 
    1190 0003e5       $C$DW$L$_CSL_lcdc262kColorModeTest$32$E:
    1191 0003e5       $C$DW$L$_CSL_lcdc262kColorModeTest$33$B:
    1192                      .dwpsn  file "../c5535_bsl_revc/ezdsp5535_v1/c55xx_csl/ccs_v4.0_examples/lcd/CSL_LCDC_262kColorModeEx
    1193 0003e5 A472          MOV *SP(#57), T0 ; |380| 
    1194              
    1195 0003e7 8A7D          MOV *AR3(T0), AC1 ; |380| 
         0003e9 F1A0 
    1196              ||      MOV *AR3(T0), AC0 ; |380| 
    1197              
    1198 0003eb 76FF          BFXTR #0xff00, AC0, AC0 ; |380| 
         0003ed 0000 
    1199 0003ef 1011          OR AC1 << #8, AC0 ; |380| 
         0003f1 08   
    1200 0003f2 C06B          MOV AC0, *AR3(T0) ; |380| 
    1201                      .dwpsn  file "../c5535_bsl_revc/ezdsp5535_v1/c55xx_csl/ccs_v4.0_examples/lcd/CSL_LCDC_262kColorModeEx
    1202 0003f4 A472          MOV *SP(#57), T0 ; |381| 
    1203 0003f6 4014          ADD #1, T0 ; |381| 
    1204 0003f8 A16B          MOV *AR3(T0), AC1 ; |381| 
    1205 0003fa A472          MOV *SP(#57), T0 ; |381| 
    1206 0003fc 4014          ADD #1, T0 ; |381| 
    1207 0003fe A06B          MOV *AR3(T0), AC0 ; |381| 
    1208 000400 A472          MOV *SP(#57), T0 ; |381| 
    1209 000402 4014          ADD #1, T0 ; |381| 
    1210 000404 76FF          BFXTR #0xff00, AC0, AC0 ; |381| 
         000406 0000 
    1211 000408 1011          OR AC1 << #8, AC0 ; |381| 
         00040a 08   
    1212 00040b C06B          MOV AC0, *AR3(T0) ; |381| 
    1213                      .dwpsn  file "../c5535_bsl_revc/ezdsp5535_v1/c55xx_csl/ccs_v4.0_examples/lcd/CSL_LCDC_262kColorModeEx
    1214 00040d A472          MOV *SP(#57), T0 ; |382| 
    1215 00040f 4024          ADD #2, T0 ; |382| 
    1216 000411 A16B          MOV *AR3(T0), AC1 ; |382| 
    1217 000413 A472          MOV *SP(#57), T0 ; |382| 
    1218 000415 4024          ADD #2, T0 ; |382| 
    1219 000417 A06B          MOV *AR3(T0), AC0 ; |382| 
    1220 000419 A472          MOV *SP(#57), T0 ; |382| 
    1221 00041b 4024          ADD #2, T0 ; |382| 
    1222 00041d 76FF          BFXTR #0xff00, AC0, AC0 ; |382| 
         00041f 0000 
    1223 000421 1011          OR AC1 << #8, AC0 ; |382| 
         000423 08   
    1224 000424 C06B          MOV AC0, *AR3(T0) ; |382| 
    1225 000426       $C$DW$L$_CSL_lcdc262kColorModeTest$33$E:
TMS320C55x Assembler PC v4.4.1 Sat Sep 29 23:09:27 2018

Tools Copyright (c) 1996-2012 Texas Instruments Incorporated
csl_lcdc_262kColorModeExample.asm                                    PAGE   28

    1226 000426       $C$L21:    
    1227 000426       $C$DW$L$_CSL_lcdc262kColorModeTest$34$B:
    1228                      .dwpsn  file "../c5535_bsl_revc/ezdsp5535_v1/c55xx_csl/ccs_v4.0_examples/lcd/CSL_LCDC_262kColorModeEx
    1229 000426 F772          ADD #3, *SP(#57) ; |372| 
         000428 0003 
    1230                      .dwpsn  file "../c5535_bsl_revc/ezdsp5535_v1/c55xx_csl/ccs_v4.0_examples/lcd/CSL_LCDC_262kColorModeEx
    1231 00042a A972          MOV *SP(#57), AR1 ; |372| 
    1232 00042c 1294          CMPU AR1 < AR2, TC1 ; |372| 
         00042e A4   
    1233 00042f 6D64          BCC $C$L20,TC1 ; |372| 
         000431 FF7D 
    1234                                                      ; branchcc occurs ; |372| 
    1235 000433       $C$DW$L$_CSL_lcdc262kColorModeTest$34$E:
    1236 000433       $C$L22:    
    1237                      .dwpsn  file "../c5535_bsl_revc/ezdsp5535_v1/c55xx_csl/ccs_v4.0_examples/lcd/CSL_LCDC_262kColorModeEx
    1238 000433 7600          MOV #92, T0 ; |386| 
         000435 5C48 
    1239              $C$DW$112       .dwtag  DW_TAG_TI_branch
    1240                      .dwattr $C$DW$112, DW_AT_low_pc(0x00)
    1241                      .dwattr $C$DW$112, DW_AT_name("_cmdWrite")
    1242                      .dwattr $C$DW$112, DW_AT_TI_call
    1243              
    1244 000437 6C00          CALL #_cmdWrite ; |386| 
         000439 0000!
    1245 00043b 3D05  ||      MOV #0, T1
    1246              
    1247                                                      ; call occurs [#_cmdWrite] ; |386| 
    1248                      .dwpsn  file "../c5535_bsl_revc/ezdsp5535_v1/c55xx_csl/ccs_v4.0_examples/lcd/CSL_LCDC_262kColorModeEx
    1249 00043d EC58          AMAR *SP(#44), XAR1
         00043f 9E   
    1250 000440 ED31          MOV dbl(*(#_hLcdc)), XAR0
         000442 8F00 
         000444 0002-
    1251              $C$DW$113       .dwtag  DW_TAG_TI_branch
    1252                      .dwattr $C$DW$113, DW_AT_low_pc(0x00)
    1253                      .dwattr $C$DW$113, DW_AT_name("_LCD_configDMA")
    1254                      .dwattr $C$DW$113, DW_AT_TI_call
    1255 000446 6C00          CALL #_LCD_configDMA ; |388| 
         000448 0000!
    1256                                                      ; call occurs [#_LCD_configDMA] ; |388| 
    1257 00044a C404          MOV T0, *SP(#2) ; |388| 
    1258                      .dwpsn  file "../c5535_bsl_revc/ezdsp5535_v1/c55xx_csl/ccs_v4.0_examples/lcd/CSL_LCDC_262kColorModeEx
    1259 00044c 2249          MOV T0, AR1
    1260 00044e 0409          BCC $C$L23,AR1 == #0 ; |389| 
         000450 12   
    1261                                                      ; branchcc occurs ; |389| 
    1262                      .dwpsn  file "../c5535_bsl_revc/ezdsp5535_v1/c55xx_csl/ccs_v4.0_examples/lcd/CSL_LCDC_262kColorModeEx
    1263 000451 EC31          AMOV #$C$FSL12, XAR3 ; |391| 
         000453 BE00 
         000455 0118+
    1264 000457 EB00          MOV XAR3, dbl(*SP(#0))
         000459 B5   
    1265              $C$DW$114       .dwtag  DW_TAG_TI_branch
    1266                      .dwattr $C$DW$114, DW_AT_low_pc(0x00)
    1267                      .dwattr $C$DW$114, DW_AT_name("_printf")
TMS320C55x Assembler PC v4.4.1 Sat Sep 29 23:09:27 2018

Tools Copyright (c) 1996-2012 Texas Instruments Incorporated
csl_lcdc_262kColorModeExample.asm                                    PAGE   29

    1268                      .dwattr $C$DW$114, DW_AT_TI_call
    1269 00045a 6C00          CALL #_printf ; |391| 
         00045c 0000!
    1270                                                      ; call occurs [#_printf] ; |391| 
    1271                      .dwpsn  file "../c5535_bsl_revc/ezdsp5535_v1/c55xx_csl/ccs_v4.0_examples/lcd/CSL_LCDC_262kColorModeEx
    1272 00045e A404          MOV *SP(#2), T0 ; |392| 
    1273 000460 0600          B $C$L27  ; |392| 
         000462 F1   
    1274                                                      ; branch occurs ; |392| 
    1275 000463       $C$L23:    
    1276                      .dwpsn  file "../c5535_bsl_revc/ezdsp5535_v1/c55xx_csl/ccs_v4.0_examples/lcd/CSL_LCDC_262kColorModeEx
    1277 000463 EC31          AMOV #$C$FSL13, XAR3 ; |396| 
         000465 BE00 
         000467 012E+
    1278 000469 EB00          MOV XAR3, dbl(*SP(#0))
         00046b B5   
    1279              $C$DW$115       .dwtag  DW_TAG_TI_branch
    1280                      .dwattr $C$DW$115, DW_AT_low_pc(0x00)
    1281                      .dwattr $C$DW$115, DW_AT_name("_printf")
    1282                      .dwattr $C$DW$115, DW_AT_TI_call
    1283 00046c 6C00          CALL #_printf ; |396| 
         00046e 0000!
    1284                                                      ; call occurs [#_printf] ; |396| 
    1285                      .dwpsn  file "../c5535_bsl_revc/ezdsp5535_v1/c55xx_csl/ccs_v4.0_examples/lcd/CSL_LCDC_262kColorModeEx
    1286 000470 ED31          MOV dbl(*(#_hLcdc)), XAR0
         000472 8F00 
         000474 0002-
    1287              $C$DW$116       .dwtag  DW_TAG_TI_branch
    1288                      .dwattr $C$DW$116, DW_AT_low_pc(0x00)
    1289                      .dwattr $C$DW$116, DW_AT_name("_CSL_lcdcEnableLiddDMA")
    1290                      .dwattr $C$DW$116, DW_AT_TI_call
    1291 000476 08FB          CALL #_CSL_lcdcEnableLiddDMA ; |400| 
         000478 87   
    1292                                                      ; call occurs [#_CSL_lcdcEnableLiddDMA] ; |400| 
    1293                      .dwpsn  file "../c5535_bsl_revc/ezdsp5535_v1/c55xx_csl/ccs_v4.0_examples/lcd/CSL_LCDC_262kColorModeEx
    1294 000479 F031          CMP *(#_cnt_lcd) == #1, TC1 ; |403| 
         00047b 0001 
         00047d 0000 
         00047f 00-  
    1295 000480 6564          BCC $C$L25,TC1 ; |403| 
    1296                                                      ; branchcc occurs ; |403| 
    1297 000482       $C$L24:    
    1298 000482       $C$DW$L$_CSL_lcdc262kColorModeTest$39$B:
    1299 000482 F031          CMP *(#_cnt_lcd) == #1, TC1 ; |403| 
         000484 0001 
         000486 0000 
         000488 00-  
    1300 000489 0474          BCC $C$L24,!TC1 ; |403| 
         00048b F6   
    1301                                                      ; branchcc occurs ; |403| 
    1302 00048c       $C$DW$L$_CSL_lcdc262kColorModeTest$39$E:
    1303 00048c       $C$L25:    
    1304                      .dwpsn  file "../c5535_bsl_revc/ezdsp5535_v1/c55xx_csl/ccs_v4.0_examples/lcd/CSL_LCDC_262kColorModeEx
    1305 00048c ED31          MOV dbl(*(#_hLcdc)), XAR0
         00048e 8F00 
TMS320C55x Assembler PC v4.4.1 Sat Sep 29 23:09:27 2018

Tools Copyright (c) 1996-2012 Texas Instruments Incorporated
csl_lcdc_262kColorModeExample.asm                                    PAGE   30

         000490 0002-
    1306              $C$DW$117       .dwtag  DW_TAG_TI_branch
    1307                      .dwattr $C$DW$117, DW_AT_low_pc(0x00)
    1308                      .dwattr $C$DW$117, DW_AT_name("_CSL_lcdcDisableLiddDMA")
    1309                      .dwattr $C$DW$117, DW_AT_TI_call
    1310 000492 08FB          CALL #_CSL_lcdcDisableLiddDMA ; |406| 
         000494 8F   
    1311                                                      ; call occurs [#_CSL_lcdcDisableLiddDMA] ; |406| 
    1312                      .dwpsn  file "../c5535_bsl_revc/ezdsp5535_v1/c55xx_csl/ccs_v4.0_examples/lcd/CSL_LCDC_262kColorModeEx
    1313              $C$DW$118       .dwtag  DW_TAG_TI_branch
    1314                      .dwattr $C$DW$118, DW_AT_low_pc(0x00)
    1315                      .dwattr $C$DW$118, DW_AT_name("_IRQ_globalDisable")
    1316                      .dwattr $C$DW$118, DW_AT_TI_call
    1317 000495 6C00          CALL #_IRQ_globalDisable ; |409| 
         000497 0000!
    1318                                                      ; call occurs [#_IRQ_globalDisable] ; |409| 
    1319                      .dwpsn  file "../c5535_bsl_revc/ezdsp5535_v1/c55xx_csl/ccs_v4.0_examples/lcd/CSL_LCDC_262kColorModeEx
    1320              $C$DW$119       .dwtag  DW_TAG_TI_branch
    1321                      .dwattr $C$DW$119, DW_AT_low_pc(0x00)
    1322                      .dwattr $C$DW$119, DW_AT_name("_IRQ_clearAll")
    1323                      .dwattr $C$DW$119, DW_AT_TI_call
    1324 000499 6C00          CALL #_IRQ_clearAll ; |412| 
         00049b 0000!
    1325                                                      ; call occurs [#_IRQ_clearAll] ; |412| 
    1326                      .dwpsn  file "../c5535_bsl_revc/ezdsp5535_v1/c55xx_csl/ccs_v4.0_examples/lcd/CSL_LCDC_262kColorModeEx
    1327              $C$DW$120       .dwtag  DW_TAG_TI_branch
    1328                      .dwattr $C$DW$120, DW_AT_low_pc(0x00)
    1329                      .dwattr $C$DW$120, DW_AT_name("_IRQ_disableAll")
    1330                      .dwattr $C$DW$120, DW_AT_TI_call
    1331 00049d 6C00          CALL #_IRQ_disableAll ; |415| 
         00049f 0000!
    1332                                                      ; call occurs [#_IRQ_disableAll] ; |415| 
    1333                      .dwpsn  file "../c5535_bsl_revc/ezdsp5535_v1/c55xx_csl/ccs_v4.0_examples/lcd/CSL_LCDC_262kColorModeEx
    1334 0004a1 EC31          AMOV #327680, XAR3 ; |419| 
         0004a3 BE05 
         0004a5 0000 
    1335 0004a7 90B0          MOV XAR3, AC0
    1336              $C$DW$121       .dwtag  DW_TAG_TI_branch
    1337                      .dwattr $C$DW$121, DW_AT_low_pc(0x00)
    1338                      .dwattr $C$DW$121, DW_AT_name("_wait")
    1339                      .dwattr $C$DW$121, DW_AT_TI_call
    1340 0004a9 6C00          CALL #_wait ; |419| 
         0004ab 0000!
    1341                                                      ; call occurs [#_wait] ; |419| 
    1342                      .dwpsn  file "../c5535_bsl_revc/ezdsp5535_v1/c55xx_csl/ccs_v4.0_examples/lcd/CSL_LCDC_262kColorModeEx
    1343              $C$DW$122       .dwtag  DW_TAG_TI_branch
    1344                      .dwattr $C$DW$122, DW_AT_low_pc(0x00)
    1345                      .dwattr $C$DW$122, DW_AT_name("_lcdClearPanel")
    1346                      .dwattr $C$DW$122, DW_AT_TI_call
    1347              
    1348 0004ad 6C00          CALL #_lcdClearPanel ; |420| 
         0004af 0000!
    1349 0004b1 3D04  ||      MOV #0, T0
    1350              
    1351                                                      ; call occurs [#_lcdClearPanel] ; |420| 
TMS320C55x Assembler PC v4.4.1 Sat Sep 29 23:09:27 2018

Tools Copyright (c) 1996-2012 Texas Instruments Incorporated
csl_lcdc_262kColorModeExample.asm                                    PAGE   31

    1352                      .dwpsn  file "../c5535_bsl_revc/ezdsp5535_v1/c55xx_csl/ccs_v4.0_examples/lcd/CSL_LCDC_262kColorModeEx
    1353 0004b3 3C24          MOV #2, T0
    1354              
    1355 0004b5 7600          MOV #63, AC0 ; |421| 
         0004b7 3F08 
    1356 0004b9 3D85  ||      MOV #8, T1
    1357              
    1358 0004bb EC31          AMOV #$C$FSL14, XAR0 ; |421| 
         0004bd 8E00 
         0004bf 0148+
    1359              $C$DW$123       .dwtag  DW_TAG_TI_branch
    1360                      .dwattr $C$DW$123, DW_AT_low_pc(0x00)
    1361                      .dwattr $C$DW$123, DW_AT_name("_draw_string")
    1362                      .dwattr $C$DW$123, DW_AT_TI_call
    1363              
    1364 0004c1 6C00          CALL #_draw_string ; |421| 
         0004c3 0000!
    1365 0004c5 3D09  ||      MOV #0, AR1
    1366              
    1367                                                      ; call occurs [#_draw_string] ; |421| 
    1368                      .dwpsn  file "../c5535_bsl_revc/ezdsp5535_v1/c55xx_csl/ccs_v4.0_examples/lcd/CSL_LCDC_262kColorModeEx
    1369 0004c7 7600          MOV #32, T1 ; |422| 
         0004c9 2058 
    1370 0004cb EC31          AMOV #$C$FSL15, XAR0 ; |422| 
         0004cd 8E00 
         0004cf 014E+
    1371              
    1372 0004d1 7600          MOV #63, AC0 ; |422| 
         0004d3 3F08 
    1373 0004d5 3D24  ||      MOV #2, T0
    1374              
    1375              $C$DW$124       .dwtag  DW_TAG_TI_branch
    1376                      .dwattr $C$DW$124, DW_AT_low_pc(0x00)
    1377                      .dwattr $C$DW$124, DW_AT_name("_draw_string")
    1378                      .dwattr $C$DW$124, DW_AT_TI_call
    1379              
    1380 0004d7 6C00          CALL #_draw_string ; |422| 
         0004d9 0000!
    1381 0004db 3D09  ||      MOV #0, AR1
    1382              
    1383                                                      ; call occurs [#_draw_string] ; |422| 
    1384                      .dwpsn  file "../c5535_bsl_revc/ezdsp5535_v1/c55xx_csl/ccs_v4.0_examples/lcd/CSL_LCDC_262kColorModeEx
    1385 0004dd 7600          MOV #56, T1 ; |423| 
         0004df 3858 
    1386 0004e1 EC31          AMOV #$C$FSL16, XAR0 ; |423| 
         0004e3 8E00 
         0004e5 015A+
    1387 0004e7 EC31          AMOV #4128768, XAR3 ; |423| 
         0004e9 BE3F 
         0004eb 0000 
    1388              
    1389 0004ed 90B0          MOV XAR3, AC0
    1390 0004ef 3D24  ||      MOV #2, T0
    1391              
    1392              $C$DW$125       .dwtag  DW_TAG_TI_branch
TMS320C55x Assembler PC v4.4.1 Sat Sep 29 23:09:27 2018

Tools Copyright (c) 1996-2012 Texas Instruments Incorporated
csl_lcdc_262kColorModeExample.asm                                    PAGE   32

    1393                      .dwattr $C$DW$125, DW_AT_low_pc(0x00)
    1394                      .dwattr $C$DW$125, DW_AT_name("_draw_string")
    1395                      .dwattr $C$DW$125, DW_AT_TI_call
    1396              
    1397 0004f1 6C00          CALL #_draw_string ; |423| 
         0004f3 0000!
    1398 0004f5 3D09  ||      MOV #0, AR1
    1399              
    1400                                                      ; call occurs [#_draw_string] ; |423| 
    1401                      .dwpsn  file "../c5535_bsl_revc/ezdsp5535_v1/c55xx_csl/ccs_v4.0_examples/lcd/CSL_LCDC_262kColorModeEx
    1402 0004f7 7600          MOV #80, T1 ; |424| 
         0004f9 5058 
    1403 0004fb EC31          AMOV #$C$FSL17, XAR0 ; |424| 
         0004fd 8E00 
         0004ff 0164+
    1404              
    1405 000501 763F          MOV #16128, AC0 ; |424| 
         000503 0008 
    1406 000505 3D24  ||      MOV #2, T0
    1407              
    1408              $C$DW$126       .dwtag  DW_TAG_TI_branch
    1409                      .dwattr $C$DW$126, DW_AT_low_pc(0x00)
    1410                      .dwattr $C$DW$126, DW_AT_name("_draw_string")
    1411                      .dwattr $C$DW$126, DW_AT_TI_call
    1412              
    1413 000507 6C00          CALL #_draw_string ; |424| 
         000509 0000!
    1414 00050b 3D09  ||      MOV #0, AR1
    1415              
    1416                                                      ; call occurs [#_draw_string] ; |424| 
    1417                      .dwpsn  file "../c5535_bsl_revc/ezdsp5535_v1/c55xx_csl/ccs_v4.0_examples/lcd/CSL_LCDC_262kColorModeEx
    1418 00050d 7600          MOV #104, T1 ; |425| 
         00050f 6858 
    1419 000511 EC31          AMOV #$C$FSL18, XAR0 ; |425| 
         000513 8E00 
         000515 0170+
    1420              
    1421 000517 763F          MOV #16128, AC0 ; |425| 
         000519 0008 
    1422 00051b 3D24  ||      MOV #2, T0
    1423              
    1424              $C$DW$127       .dwtag  DW_TAG_TI_branch
    1425                      .dwattr $C$DW$127, DW_AT_low_pc(0x00)
    1426                      .dwattr $C$DW$127, DW_AT_name("_draw_string")
    1427                      .dwattr $C$DW$127, DW_AT_TI_call
    1428              
    1429 00051d 6C00          CALL #_draw_string ; |425| 
         00051f 0000!
    1430 000521 3D09  ||      MOV #0, AR1
    1431              
    1432                                                      ; call occurs [#_draw_string] ; |425| 
    1433                      .dwpsn  file "../c5535_bsl_revc/ezdsp5535_v1/c55xx_csl/ccs_v4.0_examples/lcd/CSL_LCDC_262kColorModeEx
    1434 000523 ED31          MOV dbl(*(#_hLcdc)), XAR0
         000525 8F00 
         000527 0002-
TMS320C55x Assembler PC v4.4.1 Sat Sep 29 23:09:27 2018

Tools Copyright (c) 1996-2012 Texas Instruments Incorporated
csl_lcdc_262kColorModeExample.asm                                    PAGE   33

    1435              $C$DW$128       .dwtag  DW_TAG_TI_branch
    1436                      .dwattr $C$DW$128, DW_AT_low_pc(0x00)
    1437                      .dwattr $C$DW$128, DW_AT_name("_LCD_close")
    1438                      .dwattr $C$DW$128, DW_AT_TI_call
    1439 000529 6C00          CALL #_LCD_close ; |429| 
         00052b 0000!
    1440                                                      ; call occurs [#_LCD_close] ; |429| 
    1441 00052d C404          MOV T0, *SP(#2) ; |429| 
    1442                      .dwpsn  file "../c5535_bsl_revc/ezdsp5535_v1/c55xx_csl/ccs_v4.0_examples/lcd/CSL_LCDC_262kColorModeEx
    1443 00052f 2249          MOV T0, AR1
    1444 000531 0409          BCC $C$L26,AR1 == #0 ; |430| 
         000533 11   
    1445                                                      ; branchcc occurs ; |430| 
    1446                      .dwpsn  file "../c5535_bsl_revc/ezdsp5535_v1/c55xx_csl/ccs_v4.0_examples/lcd/CSL_LCDC_262kColorModeEx
    1447 000534 EC31          AMOV #$C$FSL19, XAR3 ; |432| 
         000536 BE00 
         000538 017C+
    1448 00053a EB00          MOV XAR3, dbl(*SP(#0))
         00053c B5   
    1449              $C$DW$129       .dwtag  DW_TAG_TI_branch
    1450                      .dwattr $C$DW$129, DW_AT_low_pc(0x00)
    1451                      .dwattr $C$DW$129, DW_AT_name("_printf")
    1452                      .dwattr $C$DW$129, DW_AT_TI_call
    1453 00053d 6C00          CALL #_printf ; |432| 
         00053f 0000!
    1454                                                      ; call occurs [#_printf] ; |432| 
    1455                      .dwpsn  file "../c5535_bsl_revc/ezdsp5535_v1/c55xx_csl/ccs_v4.0_examples/lcd/CSL_LCDC_262kColorModeEx
    1456 000541 A404          MOV *SP(#2), T0 ; |433| 
    1457 000543 4A0F          B $C$L27  ; |433| 
    1458                                                      ; branch occurs ; |433| 
    1459 000545       $C$L26:    
    1460                      .dwpsn  file "../c5535_bsl_revc/ezdsp5535_v1/c55xx_csl/ccs_v4.0_examples/lcd/CSL_LCDC_262kColorModeEx
    1461 000545 EC31          AMOV #$C$FSL20, XAR3 ; |437| 
         000547 BE00 
         000549 018E+
    1462 00054b EB00          MOV XAR3, dbl(*SP(#0))
         00054d B5   
    1463              $C$DW$130       .dwtag  DW_TAG_TI_branch
    1464                      .dwattr $C$DW$130, DW_AT_low_pc(0x00)
    1465                      .dwattr $C$DW$130, DW_AT_name("_printf")
    1466                      .dwattr $C$DW$130, DW_AT_TI_call
    1467 00054e 6C00          CALL #_printf ; |437| 
         000550 0000!
    1468                                                      ; call occurs [#_printf] ; |437| 
    1469                      .dwpsn  file "../c5535_bsl_revc/ezdsp5535_v1/c55xx_csl/ccs_v4.0_examples/lcd/CSL_LCDC_262kColorModeEx
    1470 000552 3C04          MOV #0, T0
    1471 000554       $C$L27:    
    1472                      .dwpsn  file "../c5535_bsl_revc/ezdsp5535_v1/c55xx_csl/ccs_v4.0_examples/lcd/CSL_LCDC_262kColorModeEx
    1473 000554 4E3D          AADD #61, SP
    1474                      .dwcfi  cfa_offset, 1
    1475              $C$DW$131       .dwtag  DW_TAG_TI_branch
    1476                      .dwattr $C$DW$131, DW_AT_low_pc(0x00)
    1477                      .dwattr $C$DW$131, DW_AT_TI_return
    1478 000556 4804          RET
    1479                                                      ; return occurs
TMS320C55x Assembler PC v4.4.1 Sat Sep 29 23:09:27 2018

Tools Copyright (c) 1996-2012 Texas Instruments Incorporated
csl_lcdc_262kColorModeExample.asm                                    PAGE   34

    1480              
    1481              $C$DW$132       .dwtag  DW_TAG_TI_loop
    1482                      .dwattr $C$DW$132, DW_AT_name("F:\eZdsp_DBG\tmp1\c55x-sim2\foo\Debug\csl_lcdc_262kColorModeExample.as
    1483                      .dwattr $C$DW$132, DW_AT_TI_begin_file("../c5535_bsl_revc/ezdsp5535_v1/c55xx_csl/ccs_v4.0_examples/lc
    1484                      .dwattr $C$DW$132, DW_AT_TI_begin_line(0x193)
    1485                      .dwattr $C$DW$132, DW_AT_TI_end_line(0x193)
    1486              $C$DW$133       .dwtag  DW_TAG_TI_loop_range
    1487                      .dwattr $C$DW$133, DW_AT_low_pc($C$DW$L$_CSL_lcdc262kColorModeTest$39$B)
    1488                      .dwattr $C$DW$133, DW_AT_high_pc($C$DW$L$_CSL_lcdc262kColorModeTest$39$E)
    1489                      .dwendtag $C$DW$132
    1490              
    1491              
    1492              $C$DW$134       .dwtag  DW_TAG_TI_loop
    1493                      .dwattr $C$DW$134, DW_AT_name("F:\eZdsp_DBG\tmp1\c55x-sim2\foo\Debug\csl_lcdc_262kColorModeExample.as
    1494                      .dwattr $C$DW$134, DW_AT_TI_begin_file("../c5535_bsl_revc/ezdsp5535_v1/c55xx_csl/ccs_v4.0_examples/lc
    1495                      .dwattr $C$DW$134, DW_AT_TI_begin_line(0x174)
    1496                      .dwattr $C$DW$134, DW_AT_TI_end_line(0x180)
    1497              $C$DW$135       .dwtag  DW_TAG_TI_loop_range
    1498                      .dwattr $C$DW$135, DW_AT_low_pc($C$DW$L$_CSL_lcdc262kColorModeTest$32$B)
    1499                      .dwattr $C$DW$135, DW_AT_high_pc($C$DW$L$_CSL_lcdc262kColorModeTest$32$E)
    1500              $C$DW$136       .dwtag  DW_TAG_TI_loop_range
    1501                      .dwattr $C$DW$136, DW_AT_low_pc($C$DW$L$_CSL_lcdc262kColorModeTest$33$B)
    1502                      .dwattr $C$DW$136, DW_AT_high_pc($C$DW$L$_CSL_lcdc262kColorModeTest$33$E)
    1503              $C$DW$137       .dwtag  DW_TAG_TI_loop_range
    1504                      .dwattr $C$DW$137, DW_AT_low_pc($C$DW$L$_CSL_lcdc262kColorModeTest$34$B)
    1505                      .dwattr $C$DW$137, DW_AT_high_pc($C$DW$L$_CSL_lcdc262kColorModeTest$34$E)
    1506                      .dwendtag $C$DW$134
    1507              
    1508              
    1509              $C$DW$138       .dwtag  DW_TAG_TI_loop
    1510                      .dwattr $C$DW$138, DW_AT_name("F:\eZdsp_DBG\tmp1\c55x-sim2\foo\Debug\csl_lcdc_262kColorModeExample.as
    1511                      .dwattr $C$DW$138, DW_AT_TI_begin_file("../c5535_bsl_revc/ezdsp5535_v1/c55xx_csl/ccs_v4.0_examples/lc
    1512                      .dwattr $C$DW$138, DW_AT_TI_begin_line(0x16d)
    1513                      .dwattr $C$DW$138, DW_AT_TI_end_line(0x170)
    1514              $C$DW$139       .dwtag  DW_TAG_TI_loop_range
    1515                      .dwattr $C$DW$139, DW_AT_low_pc($C$DW$L$_CSL_lcdc262kColorModeTest$30$B)
    1516                      .dwattr $C$DW$139, DW_AT_high_pc($C$DW$L$_CSL_lcdc262kColorModeTest$30$E)
    1517                      .dwendtag $C$DW$138
    1518              
    1519              
    1520              $C$DW$140       .dwtag  DW_TAG_TI_loop
    1521                      .dwattr $C$DW$140, DW_AT_name("F:\eZdsp_DBG\tmp1\c55x-sim2\foo\Debug\csl_lcdc_262kColorModeExample.as
    1522                      .dwattr $C$DW$140, DW_AT_TI_begin_file("../c5535_bsl_revc/ezdsp5535_v1/c55xx_csl/ccs_v4.0_examples/lc
    1523                      .dwattr $C$DW$140, DW_AT_TI_begin_line(0x15a)
    1524                      .dwattr $C$DW$140, DW_AT_TI_end_line(0x15a)
    1525              $C$DW$141       .dwtag  DW_TAG_TI_loop_range
    1526                      .dwattr $C$DW$141, DW_AT_low_pc($C$DW$L$_CSL_lcdc262kColorModeTest$25$B)
    1527                      .dwattr $C$DW$141, DW_AT_high_pc($C$DW$L$_CSL_lcdc262kColorModeTest$25$E)
    1528                      .dwendtag $C$DW$140
    1529              
    1530              
    1531              $C$DW$142       .dwtag  DW_TAG_TI_loop
    1532                      .dwattr $C$DW$142, DW_AT_name("F:\eZdsp_DBG\tmp1\c55x-sim2\foo\Debug\csl_lcdc_262kColorModeExample.as
    1533                      .dwattr $C$DW$142, DW_AT_TI_begin_file("../c5535_bsl_revc/ezdsp5535_v1/c55xx_csl/ccs_v4.0_examples/lc
    1534                      .dwattr $C$DW$142, DW_AT_TI_begin_line(0x13a)
TMS320C55x Assembler PC v4.4.1 Sat Sep 29 23:09:27 2018

Tools Copyright (c) 1996-2012 Texas Instruments Incorporated
csl_lcdc_262kColorModeExample.asm                                    PAGE   35

    1535                      .dwattr $C$DW$142, DW_AT_TI_end_line(0x146)
    1536              $C$DW$143       .dwtag  DW_TAG_TI_loop_range
    1537                      .dwattr $C$DW$143, DW_AT_low_pc($C$DW$L$_CSL_lcdc262kColorModeTest$18$B)
    1538                      .dwattr $C$DW$143, DW_AT_high_pc($C$DW$L$_CSL_lcdc262kColorModeTest$18$E)
    1539              $C$DW$144       .dwtag  DW_TAG_TI_loop_range
    1540                      .dwattr $C$DW$144, DW_AT_low_pc($C$DW$L$_CSL_lcdc262kColorModeTest$19$B)
    1541                      .dwattr $C$DW$144, DW_AT_high_pc($C$DW$L$_CSL_lcdc262kColorModeTest$19$E)
    1542              $C$DW$145       .dwtag  DW_TAG_TI_loop_range
    1543                      .dwattr $C$DW$145, DW_AT_low_pc($C$DW$L$_CSL_lcdc262kColorModeTest$20$B)
    1544                      .dwattr $C$DW$145, DW_AT_high_pc($C$DW$L$_CSL_lcdc262kColorModeTest$20$E)
    1545                      .dwendtag $C$DW$142
    1546              
    1547              
    1548              $C$DW$146       .dwtag  DW_TAG_TI_loop
    1549                      .dwattr $C$DW$146, DW_AT_name("F:\eZdsp_DBG\tmp1\c55x-sim2\foo\Debug\csl_lcdc_262kColorModeExample.as
    1550                      .dwattr $C$DW$146, DW_AT_TI_begin_file("../c5535_bsl_revc/ezdsp5535_v1/c55xx_csl/ccs_v4.0_examples/lc
    1551                      .dwattr $C$DW$146, DW_AT_TI_begin_line(0xe0)
    1552                      .dwattr $C$DW$146, DW_AT_TI_end_line(0xe0)
    1553              $C$DW$147       .dwtag  DW_TAG_TI_loop_range
    1554                      .dwattr $C$DW$147, DW_AT_low_pc($C$DW$L$_CSL_lcdc262kColorModeTest$4$B)
    1555                      .dwattr $C$DW$147, DW_AT_high_pc($C$DW$L$_CSL_lcdc262kColorModeTest$4$E)
    1556                      .dwendtag $C$DW$146
    1557              
    1558              
    1559              $C$DW$148       .dwtag  DW_TAG_TI_loop
    1560                      .dwattr $C$DW$148, DW_AT_name("F:\eZdsp_DBG\tmp1\c55x-sim2\foo\Debug\csl_lcdc_262kColorModeExample.as
    1561                      .dwattr $C$DW$148, DW_AT_TI_begin_file("../c5535_bsl_revc/ezdsp5535_v1/c55xx_csl/ccs_v4.0_examples/lc
    1562                      .dwattr $C$DW$148, DW_AT_TI_begin_line(0xdc)
    1563                      .dwattr $C$DW$148, DW_AT_TI_end_line(0xdc)
    1564              $C$DW$149       .dwtag  DW_TAG_TI_loop_range
    1565                      .dwattr $C$DW$149, DW_AT_low_pc($C$DW$L$_CSL_lcdc262kColorModeTest$2$B)
    1566                      .dwattr $C$DW$149, DW_AT_high_pc($C$DW$L$_CSL_lcdc262kColorModeTest$2$E)
    1567                      .dwendtag $C$DW$148
    1568              
    1569                      .dwattr $C$DW$72, DW_AT_TI_end_file("../c5535_bsl_revc/ezdsp5535_v1/c55xx_csl/ccs_v4.0_examples/lcd/C
    1570                      .dwattr $C$DW$72, DW_AT_TI_end_line(0x1b9)
    1571                      .dwattr $C$DW$72, DW_AT_TI_end_column(0x01)
    1572                      .dwendentry
    1573                      .dwendtag $C$DW$72
    1574              
    1575 000000               .sect   ".text:retain"
    1576                      .align 4
    1577                      .global _lcd_isr
    1578              
    1579              $C$DW$150       .dwtag  DW_TAG_subprogram, DW_AT_name("lcd_isr")
    1580                      .dwattr $C$DW$150, DW_AT_low_pc(_lcd_isr)
    1581                      .dwattr $C$DW$150, DW_AT_high_pc(0x00)
    1582                      .dwattr $C$DW$150, DW_AT_TI_symbol_name("_lcd_isr")
    1583                      .dwattr $C$DW$150, DW_AT_external
    1584                      .dwattr $C$DW$150, DW_AT_TI_begin_file("../c5535_bsl_revc/ezdsp5535_v1/c55xx_csl/ccs_v4.0_examples/lc
    1585                      .dwattr $C$DW$150, DW_AT_TI_begin_line(0x1c1)
    1586                      .dwattr $C$DW$150, DW_AT_TI_begin_column(0x10)
    1587                      .dwattr $C$DW$150, DW_AT_TI_interrupt
    1588                      .dwattr $C$DW$150, DW_AT_TI_max_frame_size(0x08)
    1589                      .dwpsn  file "../c5535_bsl_revc/ezdsp5535_v1/c55xx_csl/ccs_v4.0_examples/lcd/CSL_LCDC_262kColorModeEx
TMS320C55x Assembler PC v4.4.1 Sat Sep 29 23:09:27 2018

Tools Copyright (c) 1996-2012 Texas Instruments Incorporated
csl_lcdc_262kColorModeExample.asm                                    PAGE   36

    1590              
    1591                      .dwfde $C$DW$CIE, _lcd_isr
    1592              ;*******************************************************************************
    1593              ;* INTERRUPT NAME: lcd_isr                                                     *
    1594              ;*                                                                             *
    1595              ;*   Function Uses Regs : AC0,AC0,AR1,AR2,SP,ST1,ST2,ST3,CARRY,TC1,M40,SATA,   *
    1596              ;*                        SATD,RDM,FRCT,SMUL                                   *
    1597              ;*   Save On Entry Regs : AC0,AC0,AR1,AR2                                      *
    1598              ;*******************************************************************************
    1599 000000       _lcd_isr:
    1600                      .dwcfi  cfa_offset, 3
    1601                      .dwcfi  save_reg_to_mem, 91, -3
    1602 000000 F406          AND #0xf91f, mmap(ST1_55)
         000002 F91F 
         000004 98   
    1603 000005 F506          OR #0x4100, mmap(ST1_55)
         000007 4100 
         000009 98   
    1604 00000a F496          AND #0xfa00, mmap(ST2_55)
         00000c FA00 
         00000e 98   
    1605 00000f F596          OR #0x8000, mmap(ST2_55)
         000011 8000 
         000013 98   
    1606 000014 B508          PSH mmap(ST3_55)
         000016 98   
    1607                      .dwcfi  cfa_offset, 4
    1608                      .dwcfi  save_reg_to_mem, 42, -4
    1609 000017 5007          PSH dbl(AC0)
    1610                      .dwcfi  cfa_offset, 5
    1611                      .dwcfi  save_reg_to_mem, 0, -5
    1612                      .dwcfi  cfa_offset, 6
    1613                      .dwcfi  save_reg_to_mem, 1, -6
    1614 000019 B514          PSH mmap(AC0G)
         00001b 98   
    1615                      .dwcfi  cfa_offset, 7
    1616                      .dwcfi  save_reg_to_mem, 2, -7
    1617 00001c 5095          PSHBOTH XAR1
    1618                      .dwcfi  cfa_offset, 8
    1619                      .dwcfi  save_reg_to_mem, 18, -8
    1620 00001e 50A5          PSHBOTH XAR2
    1621                      .dwcfi  cfa_offset, 9
    1622                      .dwcfi  save_reg_to_mem, 20, -9
    1623                      .dwcfi  cfa_offset, 8
    1624                      .dwpsn  file "../c5535_bsl_revc/ezdsp5535_v1/c55xx_csl/ccs_v4.0_examples/lcd/CSL_LCDC_262kColorModeEx
    1625 000020 F731          ADD #1, *(#_cnt_lcd) ; |451| 
         000022 0001 
         000024 0000 
         000026 00-  
    1626                      .dwpsn  file "../c5535_bsl_revc/ezdsp5535_v1/c55xx_csl/ccs_v4.0_examples/lcd/CSL_LCDC_262kColorModeEx
    1627 000027 A951          MOV *port(#11784), AR1 ; |453| 
         000029 2E08 
    1628 00002b 7D02          AND #0x0200, AR1, AC0 ; |453| 
         00002d 0009 
    1629              
TMS320C55x Assembler PC v4.4.1 Sat Sep 29 23:09:27 2018

Tools Copyright (c) 1996-2012 Texas Instruments Incorporated
csl_lcdc_262kColorModeExample.asm                                    PAGE   37

    1630 00002f 76FE          BFXTR #0xfe00, AC0, AR1 ; |453| 
         000031 0090 
    1631 000033 3D1A  ||      MOV #1, AR2
    1632              
    1633 000035 129C          CMPU AR1 != AR2, TC1 ; |453| 
         000037 A4   
    1634 000038 6764          BCC $C$L28,TC1 ; |453| 
    1635                                                      ; branchcc occurs ; |453| 
    1636                      .dwpsn  file "../c5535_bsl_revc/ezdsp5535_v1/c55xx_csl/ccs_v4.0_examples/lcd/CSL_LCDC_262kColorModeEx
    1637 00003a A951          MOV *port(#11784), AR1 ; |455| 
         00003c 2E08 
    1638 00003e EC12          BCLR @#9, AR1 ; |455| 
         000040 92   
    1639 000041 EC12          BSET @#9, AR1 ; |455| 
         000043 90   
    1640 000044 C951          MOV AR1, *port(#11784) ; |455| 
         000046 2E08 
    1641 000048       $C$L28:    
    1642                      .dwpsn  file "../c5535_bsl_revc/ezdsp5535_v1/c55xx_csl/ccs_v4.0_examples/lcd/CSL_LCDC_262kColorModeEx
    1643 000048 A951          MOV *port(#11784), AR1 ; |458| 
         00004a 2E08 
    1644 00004c 7D01          AND #0x0100, AR1, AC0 ; |458| 
         00004e 0009 
    1645 000050 76FF          BFXTR #0xff00, AC0, AR1 ; |458| 
         000052 0090 
    1646 000054 129C          CMPU AR1 != AR2, TC1 ; |458| 
         000056 A4   
    1647 000057 6764          BCC $C$L29,TC1 ; |458| 
    1648                                                      ; branchcc occurs ; |458| 
    1649                      .dwpsn  file "../c5535_bsl_revc/ezdsp5535_v1/c55xx_csl/ccs_v4.0_examples/lcd/CSL_LCDC_262kColorModeEx
    1650 000059 A951          MOV *port(#11784), AR1 ; |460| 
         00005b 2E08 
    1651 00005d EC10          BCLR @#8, AR1 ; |460| 
         00005f 92   
    1652 000060 EC10          BSET @#8, AR1 ; |460| 
         000062 90   
    1653 000063 C951          MOV AR1, *port(#11784) ; |460| 
         000065 2E08 
    1654 000067       $C$L29:    
    1655                      .dwpsn  file "../c5535_bsl_revc/ezdsp5535_v1/c55xx_csl/ccs_v4.0_examples/lcd/CSL_LCDC_262kColorModeEx
    1656 000067 A951          MOV *port(#11784), AR1 ; |463| 
         000069 2E08 
    1657 00006b 1840          AND #0x0040, AR1, AC0 ; |463| 
         00006d 09   
    1658 00006e 76FF          BFXTR #0xffc0, AC0, AR1 ; |463| 
         000070 C090 
    1659 000072 129C          CMPU AR1 != AR2, TC1 ; |463| 
         000074 A4   
    1660 000075 6764          BCC $C$L30,TC1 ; |463| 
    1661                                                      ; branchcc occurs ; |463| 
    1662                      .dwpsn  file "../c5535_bsl_revc/ezdsp5535_v1/c55xx_csl/ccs_v4.0_examples/lcd/CSL_LCDC_262kColorModeEx
    1663 000077 A951          MOV *port(#11784), AR1 ; |465| 
         000079 2E08 
    1664 00007b EC0C          BCLR @#6, AR1 ; |465| 
         00007d 92   
TMS320C55x Assembler PC v4.4.1 Sat Sep 29 23:09:27 2018

Tools Copyright (c) 1996-2012 Texas Instruments Incorporated
csl_lcdc_262kColorModeExample.asm                                    PAGE   38

    1665 00007e EC0C          BSET @#6, AR1 ; |465| 
         000080 90   
    1666 000081 C951          MOV AR1, *port(#11784) ; |465| 
         000083 2E08 
    1667 000085       $C$L30:    
    1668                      .dwpsn  file "../c5535_bsl_revc/ezdsp5535_v1/c55xx_csl/ccs_v4.0_examples/lcd/CSL_LCDC_262kColorModeEx
    1669 000085 A951          MOV *port(#11784), AR1 ; |468| 
         000087 2E08 
    1670 000089 1820          AND #0x0020, AR1, AC0 ; |468| 
         00008b 09   
    1671 00008c 76FF          BFXTR #0xffe0, AC0, AR1 ; |468| 
         00008e E090 
    1672 000090 129C          CMPU AR1 != AR2, TC1 ; |468| 
         000092 A4   
    1673 000093 6764          BCC $C$L31,TC1 ; |468| 
    1674                                                      ; branchcc occurs ; |468| 
    1675                      .dwpsn  file "../c5535_bsl_revc/ezdsp5535_v1/c55xx_csl/ccs_v4.0_examples/lcd/CSL_LCDC_262kColorModeEx
    1676 000095 A951          MOV *port(#11784), AR1 ; |470| 
         000097 2E08 
    1677 000099 EC0A          BCLR @#5, AR1 ; |470| 
         00009b 92   
    1678 00009c EC0A          BSET @#5, AR1 ; |470| 
         00009e 90   
    1679 00009f C951          MOV AR1, *port(#11784) ; |470| 
         0000a1 2E08 
    1680 0000a3       $C$L31:    
    1681                      .dwpsn  file "../c5535_bsl_revc/ezdsp5535_v1/c55xx_csl/ccs_v4.0_examples/lcd/CSL_LCDC_262kColorModeEx
    1682 0000a3 A951          MOV *port(#11784), AR1 ; |473| 
         0000a5 2E08 
    1683 0000a7 1808          AND #0x0008, AR1, AC0 ; |473| 
         0000a9 09   
    1684 0000aa 76FF          BFXTR #0xfff8, AC0, AR1 ; |473| 
         0000ac F890 
    1685 0000ae 129C          CMPU AR1 != AR2, TC1 ; |473| 
         0000b0 A4   
    1686 0000b1 6764          BCC $C$L32,TC1 ; |473| 
    1687                                                      ; branchcc occurs ; |473| 
    1688                      .dwpsn  file "../c5535_bsl_revc/ezdsp5535_v1/c55xx_csl/ccs_v4.0_examples/lcd/CSL_LCDC_262kColorModeEx
    1689 0000b3 A951          MOV *port(#11784), AR1 ; |475| 
         0000b5 2E08 
    1690 0000b7 EC06          BCLR @#3, AR1 ; |475| 
         0000b9 92   
    1691 0000ba EC06          BSET @#3, AR1 ; |475| 
         0000bc 90   
    1692 0000bd C951          MOV AR1, *port(#11784) ; |475| 
         0000bf 2E08 
    1693 0000c1       $C$L32:    
    1694                      .dwpsn  file "../c5535_bsl_revc/ezdsp5535_v1/c55xx_csl/ccs_v4.0_examples/lcd/CSL_LCDC_262kColorModeEx
    1695 0000c1 A951          MOV *port(#11784), AR1 ; |478| 
         0000c3 2E08 
    1696 0000c5 1804          AND #0x0004, AR1, AC0 ; |478| 
         0000c7 09   
    1697 0000c8 76FF          BFXTR #0xfffc, AC0, AR1 ; |478| 
         0000ca FC90 
    1698 0000cc 129C          CMPU AR1 != AR2, TC1 ; |478| 
TMS320C55x Assembler PC v4.4.1 Sat Sep 29 23:09:27 2018

Tools Copyright (c) 1996-2012 Texas Instruments Incorporated
csl_lcdc_262kColorModeExample.asm                                    PAGE   39

         0000ce A4   
    1699 0000cf 6764          BCC $C$L33,TC1 ; |478| 
    1700                                                      ; branchcc occurs ; |478| 
    1701                      .dwpsn  file "../c5535_bsl_revc/ezdsp5535_v1/c55xx_csl/ccs_v4.0_examples/lcd/CSL_LCDC_262kColorModeEx
    1702 0000d1 A951          MOV *port(#11784), AR1 ; |480| 
         0000d3 2E08 
    1703 0000d5 EC04          BCLR @#2, AR1 ; |480| 
         0000d7 92   
    1704 0000d8 EC04          BSET @#2, AR1 ; |480| 
         0000da 90   
    1705 0000db C951          MOV AR1, *port(#11784) ; |480| 
         0000dd 2E08 
    1706 0000df       $C$L33:    
    1707                      .dwpsn  file "../c5535_bsl_revc/ezdsp5535_v1/c55xx_csl/ccs_v4.0_examples/lcd/CSL_LCDC_262kColorModeEx
    1708 0000df A951          MOV *port(#11784), AR1 ; |483| 
         0000e1 2E08 
    1709 0000e3 1801          AND #0x0001, AR1, AR1 ; |483| 
         0000e5 99   
    1710 0000e6 129C          CMPU AR1 != AR2, TC1 ; |483| 
         0000e8 A4   
    1711 0000e9 6764          BCC $C$L34,TC1 ; |483| 
    1712                                                      ; branchcc occurs ; |483| 
    1713                      .dwpsn  file "../c5535_bsl_revc/ezdsp5535_v1/c55xx_csl/ccs_v4.0_examples/lcd/CSL_LCDC_262kColorModeEx
    1714 0000eb A951          MOV *port(#11784), AR1 ; |485| 
         0000ed 2E08 
    1715 0000ef EC00          BCLR @#0, AR1 ; |485| 
         0000f1 92   
    1716 0000f2 EC00          BSET @#0, AR1 ; |485| 
         0000f4 90   
    1717 0000f5 C951          MOV AR1, *port(#11784) ; |485| 
         0000f7 2E08 
    1718                      .dwpsn  file "../c5535_bsl_revc/ezdsp5535_v1/c55xx_csl/ccs_v4.0_examples/lcd/CSL_LCDC_262kColorModeEx
    1719 0000f9       $C$L34:    
    1720                      .dwcfi  cfa_offset, 9
    1721 0000f9 50A4          POPBOTH XAR2
    1722                      .dwcfi  restore_reg, 20
    1723                      .dwcfi  cfa_offset, 8
    1724 0000fb 5094          POPBOTH XAR1
    1725                      .dwcfi  restore_reg, 18
    1726                      .dwcfi  cfa_offset, 7
    1727 0000fd BB14          POP mmap(AC0G)
         0000ff 98   
    1728                      .dwcfi  restore_reg, 2
    1729                      .dwcfi  cfa_offset, 6
    1730                      .dwcfi  restore_reg, 1
    1731                      .dwcfi  cfa_offset, 5
    1732 000100 5003          POP dbl(AC0)
    1733                      .dwcfi  restore_reg, 0
    1734                      .dwcfi  cfa_offset, 4
    1735 000102 BB08          POP mmap(ST3_55)
         000104 98   
    1736                      .dwcfi  restore_reg, 43
    1737                      .dwcfi  cfa_offset, 3
    1738              $C$DW$151       .dwtag  DW_TAG_TI_branch
    1739                      .dwattr $C$DW$151, DW_AT_low_pc(0x00)
TMS320C55x Assembler PC v4.4.1 Sat Sep 29 23:09:27 2018

Tools Copyright (c) 1996-2012 Texas Instruments Incorporated
csl_lcdc_262kColorModeExample.asm                                    PAGE   40

    1740                      .dwattr $C$DW$151, DW_AT_TI_return
    1741 000105 4805          RETI
    1742                                                      ; return occurs
    1743                      .dwattr $C$DW$150, DW_AT_TI_end_file("../c5535_bsl_revc/ezdsp5535_v1/c55xx_csl/ccs_v4.0_examples/lcd/
    1744                      .dwattr $C$DW$150, DW_AT_TI_end_line(0x1e7)
    1745                      .dwattr $C$DW$150, DW_AT_TI_end_column(0x01)
    1746                      .dwendentry
    1747                      .dwendtag $C$DW$150
    1748              
    1749              ;*******************************************************************************
    1750              ;* FAR STRINGS                                                                 *
    1751              ;*******************************************************************************
    1752 000000               .sect   ".const:.string"
    1753                      .align  2
    1754 000000 0043  $C$FSL1:        .string "CSL LCD 262K COLOR MODE TEST!",10,10,0
         000001 0053 
         000002 004C 
         000003 0020 
         000004 004C 
         000005 0043 
         000006 0044 
         000007 0020 
         000008 0032 
         000009 0036 
         00000a 0032 
         00000b 004B 
         00000c 0020 
         00000d 0043 
         00000e 004F 
         00000f 004C 
         000010 004F 
         000011 0052 
         000012 0020 
         000013 004D 
         000014 004F 
         000015 0044 
         000016 0045 
         000017 0020 
         000018 0054 
         000019 0045 
         00001a 0053 
         00001b 0054 
         00001c 0021 
         00001d 000A 
         00001e 000A 
         00001f 0000 
    1755                      .align  2
    1756 000020 000A  $C$FSL2:        .string 10,"CSL LCD 262K COLOR MODE TEST COMPLETED!!",10,0
         000021 0043 
         000022 0053 
         000023 004C 
         000024 0020 
         000025 004C 
         000026 0043 
         000027 0044 
TMS320C55x Assembler PC v4.4.1 Sat Sep 29 23:09:27 2018

Tools Copyright (c) 1996-2012 Texas Instruments Incorporated
csl_lcdc_262kColorModeExample.asm                                    PAGE   41

         000028 0020 
         000029 0032 
         00002a 0036 
         00002b 0032 
         00002c 004B 
         00002d 0020 
         00002e 0043 
         00002f 004F 
         000030 004C 
         000031 004F 
         000032 0052 
         000033 0020 
         000034 004D 
         000035 004F 
         000036 0044 
         000037 0045 
         000038 0020 
         000039 0054 
         00003a 0045 
         00003b 0053 
         00003c 0054 
         00003d 0020 
         00003e 0043 
         00003f 004F 
         000040 004D 
         000041 0050 
         000042 004C 
         000043 0045 
         000044 0054 
         000045 0045 
         000046 0044 
         000047 0021 
         000048 0021 
         000049 000A 
         00004a 0000 
    1757                      .align  2
    1758 00004c 000A  $C$FSL3:        .string 10,"CSL LCD 262K COLOR MODE TEST FAILED!!",10,0
         00004d 0043 
         00004e 0053 
         00004f 004C 
         000050 0020 
         000051 004C 
         000052 0043 
         000053 0044 
         000054 0020 
         000055 0032 
         000056 0036 
         000057 0032 
         000058 004B 
         000059 0020 
         00005a 0043 
         00005b 004F 
         00005c 004C 
         00005d 004F 
         00005e 0052 
TMS320C55x Assembler PC v4.4.1 Sat Sep 29 23:09:27 2018

Tools Copyright (c) 1996-2012 Texas Instruments Incorporated
csl_lcdc_262kColorModeExample.asm                                    PAGE   42

         00005f 0020 
         000060 004D 
         000061 004F 
         000062 0044 
         000063 0045 
         000064 0020 
         000065 0054 
         000066 0045 
         000067 0053 
         000068 0054 
         000069 0020 
         00006a 0046 
         00006b 0041 
         00006c 0049 
         00006d 004C 
         00006e 0045 
         00006f 0044 
         000070 0021 
         000071 0021 
         000072 000A 
         000073 0000 
    1759                      .align  2
    1760 000074 004C  $C$FSL4:        .string "LCD_init Failed",10,0
         000075 0043 
         000076 0044 
         000077 005F 
         000078 0069 
         000079 006E 
         00007a 0069 
         00007b 0074 
         00007c 0020 
         00007d 0046 
         00007e 0061 
         00007f 0069 
         000080 006C 
         000081 0065 
         000082 0064 
         000083 000A 
         000084 0000 
    1761                      .align  2
    1762 000086 004C  $C$FSL5:        .string "LCD_init Successful",10,0
         000087 0043 
         000088 0044 
         000089 005F 
         00008a 0069 
         00008b 006E 
         00008c 0069 
         00008d 0074 
         00008e 0020 
         00008f 0053 
         000090 0075 
         000091 0063 
         000092 0063 
         000093 0065 
         000094 0073 
TMS320C55x Assembler PC v4.4.1 Sat Sep 29 23:09:27 2018

Tools Copyright (c) 1996-2012 Texas Instruments Incorporated
csl_lcdc_262kColorModeExample.asm                                    PAGE   43

         000095 0073 
         000096 0066 
         000097 0075 
         000098 006C 
         000099 000A 
         00009a 0000 
    1763                      .align  2
    1764 00009c 004C  $C$FSL6:        .string "LCD_open Failed",10,0
         00009d 0043 
         00009e 0044 
         00009f 005F 
         0000a0 006F 
         0000a1 0070 
         0000a2 0065 
         0000a3 006E 
         0000a4 0020 
         0000a5 0046 
         0000a6 0061 
         0000a7 0069 
         0000a8 006C 
         0000a9 0065 
         0000aa 0064 
         0000ab 000A 
         0000ac 0000 
    1765                      .align  2
    1766 0000ae 004C  $C$FSL7:        .string "LCD_open Successful",10,0
         0000af 0043 
         0000b0 0044 
         0000b1 005F 
         0000b2 006F 
         0000b3 0070 
         0000b4 0065 
         0000b5 006E 
         0000b6 0020 
         0000b7 0053 
         0000b8 0075 
         0000b9 0063 
         0000ba 0063 
         0000bb 0065 
         0000bc 0073 
         0000bd 0073 
         0000be 0066 
         0000bf 0075 
         0000c0 006C 
         0000c1 000A 
         0000c2 0000 
    1767                      .align  2
    1768 0000c4 004C  $C$FSL8:        .string "LCD_setup Failed",10,0
         0000c5 0043 
         0000c6 0044 
         0000c7 005F 
         0000c8 0073 
         0000c9 0065 
         0000ca 0074 
         0000cb 0075 
TMS320C55x Assembler PC v4.4.1 Sat Sep 29 23:09:27 2018

Tools Copyright (c) 1996-2012 Texas Instruments Incorporated
csl_lcdc_262kColorModeExample.asm                                    PAGE   44

         0000cc 0070 
         0000cd 0020 
         0000ce 0046 
         0000cf 0061 
         0000d0 0069 
         0000d1 006C 
         0000d2 0065 
         0000d3 0064 
         0000d4 000A 
         0000d5 0000 
    1769                      .align  2
    1770 0000d6 004C  $C$FSL9:        .string "LCD_setup Successful",10,0
         0000d7 0043 
         0000d8 0044 
         0000d9 005F 
         0000da 0073 
         0000db 0065 
         0000dc 0074 
         0000dd 0075 
         0000de 0070 
         0000df 0020 
         0000e0 0053 
         0000e1 0075 
         0000e2 0063 
         0000e3 0063 
         0000e4 0065 
         0000e5 0073 
         0000e6 0073 
         0000e7 0066 
         0000e8 0075 
         0000e9 006C 
         0000ea 000A 
         0000eb 0000 
    1771                      .align  2
    1772 0000ec 0077  $C$FSL10:       .string "windowSetup Failed",10,0
         0000ed 0069 
         0000ee 006E 
         0000ef 0064 
         0000f0 006F 
         0000f1 0077 
         0000f2 0053 
         0000f3 0065 
         0000f4 0074 
         0000f5 0075 
         0000f6 0070 
         0000f7 0020 
         0000f8 0046 
         0000f9 0061 
         0000fa 0069 
         0000fb 006C 
         0000fc 0065 
         0000fd 0064 
         0000fe 000A 
         0000ff 0000 
    1773                      .align  2
TMS320C55x Assembler PC v4.4.1 Sat Sep 29 23:09:27 2018

Tools Copyright (c) 1996-2012 Texas Instruments Incorporated
csl_lcdc_262kColorModeExample.asm                                    PAGE   45

    1774 000100 0077  $C$FSL11:       .string "windowSetup Successful",10,0
         000101 0069 
         000102 006E 
         000103 0064 
         000104 006F 
         000105 0077 
         000106 0053 
         000107 0065 
         000108 0074 
         000109 0075 
         00010a 0070 
         00010b 0020 
         00010c 0053 
         00010d 0075 
         00010e 0063 
         00010f 0063 
         000110 0065 
         000111 0073 
         000112 0073 
         000113 0066 
         000114 0075 
         000115 006C 
         000116 000A 
         000117 0000 
    1775                      .align  2
    1776 000118 004C  $C$FSL12:       .string "LCD_configDMA Failed",10,0
         000119 0043 
         00011a 0044 
         00011b 005F 
         00011c 0063 
         00011d 006F 
         00011e 006E 
         00011f 0066 
         000120 0069 
         000121 0067 
         000122 0044 
         000123 004D 
         000124 0041 
         000125 0020 
         000126 0046 
         000127 0061 
         000128 0069 
         000129 006C 
         00012a 0065 
         00012b 0064 
         00012c 000A 
         00012d 0000 
    1777                      .align  2
    1778 00012e 004C  $C$FSL13:       .string "LCD_configDMA Successful",10,0
         00012f 0043 
         000130 0044 
         000131 005F 
         000132 0063 
         000133 006F 
         000134 006E 
TMS320C55x Assembler PC v4.4.1 Sat Sep 29 23:09:27 2018

Tools Copyright (c) 1996-2012 Texas Instruments Incorporated
csl_lcdc_262kColorModeExample.asm                                    PAGE   46

         000135 0066 
         000136 0069 
         000137 0067 
         000138 0044 
         000139 004D 
         00013a 0041 
         00013b 0020 
         00013c 0053 
         00013d 0075 
         00013e 0063 
         00013f 0063 
         000140 0065 
         000141 0073 
         000142 0073 
         000143 0066 
         000144 0075 
         000145 006C 
         000146 000A 
         000147 0000 
    1779                      .align  2
    1780 000148 0054  $C$FSL14:       .string "TEXAS",0
         000149 0045 
         00014a 0058 
         00014b 0041 
         00014c 0053 
         00014d 0000 
    1781                      .align  2
    1782 00014e 0049  $C$FSL15:       .string "INSTRUMENTS",0
         00014f 004E 
         000150 0053 
         000151 0054 
         000152 0052 
         000153 0055 
         000154 004D 
         000155 0045 
         000156 004E 
         000157 0054 
         000158 0053 
         000159 0000 
    1783                      .align  2
    1784 00015a 0043  $C$FSL16:       .string "C5515EVM",0
         00015b 0035 
         00015c 0035 
         00015d 0031 
         00015e 0035 
         00015f 0045 
         000160 0056 
         000161 004D 
         000162 0000 
    1785                      .align  2
    1786 000164 0043  $C$FSL17:       .string "CSL2.0 Ex6",0
         000165 0053 
         000166 004C 
         000167 0032 
         000168 002E 
TMS320C55x Assembler PC v4.4.1 Sat Sep 29 23:09:27 2018

Tools Copyright (c) 1996-2012 Texas Instruments Incorporated
csl_lcdc_262kColorModeExample.asm                                    PAGE   47

         000169 0030 
         00016a 0020 
         00016b 0045 
         00016c 0078 
         00016d 0036 
         00016e 0000 
    1787                      .align  2
    1788 000170 0032  $C$FSL18:       .string "262K color",0
         000171 0036 
         000172 0032 
         000173 004B 
         000174 0020 
         000175 0063 
         000176 006F 
         000177 006C 
         000178 006F 
         000179 0072 
         00017a 0000 
    1789                      .align  2
    1790 00017c 004C  $C$FSL19:       .string "LCD_close Failed",10,0
         00017d 0043 
         00017e 0044 
         00017f 005F 
         000180 0063 
         000181 006C 
         000182 006F 
         000183 0073 
         000184 0065 
         000185 0020 
         000186 0046 
         000187 0061 
         000188 0069 
         000189 006C 
         00018a 0065 
         00018b 0064 
         00018c 000A 
         00018d 0000 
    1791                      .align  2
    1792 00018e 004C  $C$FSL20:       .string "LCD_close Successful",10,0
         00018f 0043 
         000190 0044 
         000191 005F 
         000192 0063 
         000193 006C 
         000194 006F 
         000195 0073 
         000196 0065 
         000197 0020 
         000198 0053 
         000199 0075 
         00019a 0063 
         00019b 0063 
         00019c 0065 
         00019d 0073 
         00019e 0073 
TMS320C55x Assembler PC v4.4.1 Sat Sep 29 23:09:27 2018

Tools Copyright (c) 1996-2012 Texas Instruments Incorporated
csl_lcdc_262kColorModeExample.asm                                    PAGE   48

         00019f 0066 
         0001a0 0075 
         0001a1 006C 
         0001a2 000A 
         0001a3 0000 
    1793              ;******************************************************************************
    1794              ;* UNDEFINED EXTERNAL REFERENCES                                              *
    1795              ;******************************************************************************
    1796                      .global _printf
    1797                      .global _LCD_init
    1798                      .global _LCD_open
    1799                      .global _LCD_setup
    1800                      .global _LCD_configDMA
    1801                      .global _LCD_close
    1802                      .global _cmdWrite
    1803                      .global _windowSetup
    1804                      .global _lcdClearPanel
    1805                      .global _panelSetup
    1806                      .global _draw_string
    1807                      .global _IRQ_plug
    1808                      .global _IRQ_clear
    1809                      .global _IRQ_clearAll
    1810                      .global _IRQ_disableAll
    1811                      .global _IRQ_enable
    1812                      .global _IRQ_setVecs
    1813                      .global _IRQ_globalDisable
    1814                      .global _IRQ_globalEnable
    1815                      .global _VECSTART
    1816                      .global _wait
    1817              
    1818              ;*******************************************************************************
    1819              ;* TYPE INFORMATION                                                            *
    1820              ;*******************************************************************************
    1821              
    1822              $C$DW$T$25      .dwtag  DW_TAG_enumeration_type
    1823                      .dwattr $C$DW$T$25, DW_AT_byte_size(0x01)
    1824              $C$DW$152       .dwtag  DW_TAG_enumerator, DW_AT_name("CSL_LCDC_LIDD_FDONE_DISABLE"), DW_AT_const_value(0x00)
    1825              $C$DW$153       .dwtag  DW_TAG_enumerator, DW_AT_name("CSL_LCDC_LIDD_FDONE_ENABLE"), DW_AT_const_value(0x01)
    1826                      .dwendtag $C$DW$T$25
    1827              
    1828              $C$DW$T$26      .dwtag  DW_TAG_typedef, DW_AT_name("CSL_LcdcFdoneCtl")
    1829                      .dwattr $C$DW$T$26, DW_AT_type(*$C$DW$T$25)
    1830                      .dwattr $C$DW$T$26, DW_AT_language(DW_LANG_C)
    1831              
    1832              $C$DW$T$27      .dwtag  DW_TAG_enumeration_type
    1833                      .dwattr $C$DW$T$27, DW_AT_byte_size(0x01)
    1834              $C$DW$154       .dwtag  DW_TAG_enumerator, DW_AT_name("CSL_LCDC_LIDD_CS0"), DW_AT_const_value(0x00)
    1835              $C$DW$155       .dwtag  DW_TAG_enumerator, DW_AT_name("CSL_LCDC_LIDD_CS1"), DW_AT_const_value(0x01)
    1836                      .dwendtag $C$DW$T$27
    1837              
    1838              $C$DW$T$28      .dwtag  DW_TAG_typedef, DW_AT_name("CSL_LcdcChipSelect")
    1839                      .dwattr $C$DW$T$28, DW_AT_type(*$C$DW$T$27)
    1840                      .dwattr $C$DW$T$28, DW_AT_language(DW_LANG_C)
    1841              
    1842              $C$DW$T$29      .dwtag  DW_TAG_enumeration_type
TMS320C55x Assembler PC v4.4.1 Sat Sep 29 23:09:27 2018

Tools Copyright (c) 1996-2012 Texas Instruments Incorporated
csl_lcdc_262kColorModeExample.asm                                    PAGE   49

    1843                      .dwattr $C$DW$T$29, DW_AT_byte_size(0x01)
    1844              $C$DW$156       .dwtag  DW_TAG_enumerator, DW_AT_name("CSL_LCDC_LIDD_DMA_DISABLE"), DW_AT_const_value(0x00)
    1845              $C$DW$157       .dwtag  DW_TAG_enumerator, DW_AT_name("CSL_LCDC_LIDD_DMA_ENABLE"), DW_AT_const_value(0x01)
    1846                      .dwendtag $C$DW$T$29
    1847              
    1848              $C$DW$T$30      .dwtag  DW_TAG_typedef, DW_AT_name("CSL_LcdcDmaCtl")
    1849                      .dwattr $C$DW$T$30, DW_AT_type(*$C$DW$T$29)
    1850                      .dwattr $C$DW$T$30, DW_AT_language(DW_LANG_C)
    1851              
    1852              $C$DW$T$32      .dwtag  DW_TAG_enumeration_type
    1853                      .dwattr $C$DW$T$32, DW_AT_byte_size(0x01)
    1854              $C$DW$158       .dwtag  DW_TAG_enumerator, DW_AT_name("CSL_LCDC_LIDD_SYNC_MPU68"), DW_AT_const_value(0x00)
    1855              $C$DW$159       .dwtag  DW_TAG_enumerator, DW_AT_name("CSL_LCDC_LIDD_ASYNC_MPU68"), DW_AT_const_value(0x01)
    1856              $C$DW$160       .dwtag  DW_TAG_enumerator, DW_AT_name("CSL_LCDC_LIDD_SYNC_MPU80"), DW_AT_const_value(0x02)
    1857              $C$DW$161       .dwtag  DW_TAG_enumerator, DW_AT_name("CSL_LCDC_LIDD_ASYNC_MPU80"), DW_AT_const_value(0x03)
    1858              $C$DW$162       .dwtag  DW_TAG_enumerator, DW_AT_name("CSL_LCDC_LIDD_ASYNC_HITACHI"), DW_AT_const_value(0x04)
    1859                      .dwendtag $C$DW$T$32
    1860              
    1861              $C$DW$T$33      .dwtag  DW_TAG_typedef, DW_AT_name("CSL_LcdcLiddMode")
    1862                      .dwattr $C$DW$T$33, DW_AT_type(*$C$DW$T$32)
    1863                      .dwattr $C$DW$T$33, DW_AT_language(DW_LANG_C)
    1864              
    1865              $C$DW$T$38      .dwtag  DW_TAG_enumeration_type
    1866                      .dwattr $C$DW$T$38, DW_AT_byte_size(0x01)
    1867              $C$DW$163       .dwtag  DW_TAG_enumerator, DW_AT_name("CSL_LCDC_LIDD_NOT_USE_CS1"), DW_AT_const_value(0x00)
    1868              $C$DW$164       .dwtag  DW_TAG_enumerator, DW_AT_name("CSL_LCDC_LIDD_USE_CS1"), DW_AT_const_value(0x01)
    1869                      .dwendtag $C$DW$T$38
    1870              
    1871              $C$DW$T$39      .dwtag  DW_TAG_typedef, DW_AT_name("CSL_LcdcCs1Status")
    1872                      .dwattr $C$DW$T$39, DW_AT_type(*$C$DW$T$38)
    1873                      .dwattr $C$DW$T$39, DW_AT_language(DW_LANG_C)
    1874              
    1875              $C$DW$T$41      .dwtag  DW_TAG_enumeration_type
    1876                      .dwattr $C$DW$T$41, DW_AT_byte_size(0x01)
    1877              $C$DW$165       .dwtag  DW_TAG_enumerator, DW_AT_name("CSL_LCDC_DMA_BURST1"), DW_AT_const_value(0x00)
    1878              $C$DW$166       .dwtag  DW_TAG_enumerator, DW_AT_name("CSL_LCDC_DMA_BURST2"), DW_AT_const_value(0x01)
    1879              $C$DW$167       .dwtag  DW_TAG_enumerator, DW_AT_name("CSL_LCDC_DMA_BURST4"), DW_AT_const_value(0x02)
    1880              $C$DW$168       .dwtag  DW_TAG_enumerator, DW_AT_name("CSL_LCDC_DMA_BURST8"), DW_AT_const_value(0x03)
    1881              $C$DW$169       .dwtag  DW_TAG_enumerator, DW_AT_name("CSL_LCDC_DMA_BURST16"), DW_AT_const_value(0x04)
    1882                      .dwendtag $C$DW$T$41
    1883              
    1884              $C$DW$T$42      .dwtag  DW_TAG_typedef, DW_AT_name("CSL_LcdcDmaBurst")
    1885                      .dwattr $C$DW$T$42, DW_AT_type(*$C$DW$T$41)
    1886                      .dwattr $C$DW$T$42, DW_AT_language(DW_LANG_C)
    1887              
    1888              $C$DW$T$43      .dwtag  DW_TAG_enumeration_type
    1889                      .dwattr $C$DW$T$43, DW_AT_byte_size(0x01)
    1890              $C$DW$170       .dwtag  DW_TAG_enumerator, DW_AT_name("CSL_LCDC_EOFINT_DISABLE"), DW_AT_const_value(0x00)
    1891              $C$DW$171       .dwtag  DW_TAG_enumerator, DW_AT_name("CSL_LCDC_EOFINT_ENABLE"), DW_AT_const_value(0x01)
    1892                      .dwendtag $C$DW$T$43
    1893              
    1894              $C$DW$T$44      .dwtag  DW_TAG_typedef, DW_AT_name("CSL_LcdcEofIntCtl")
    1895                      .dwattr $C$DW$T$44, DW_AT_type(*$C$DW$T$43)
    1896                      .dwattr $C$DW$T$44, DW_AT_language(DW_LANG_C)
    1897              
TMS320C55x Assembler PC v4.4.1 Sat Sep 29 23:09:27 2018

Tools Copyright (c) 1996-2012 Texas Instruments Incorporated
csl_lcdc_262kColorModeExample.asm                                    PAGE   50

    1898              $C$DW$T$45      .dwtag  DW_TAG_enumeration_type
    1899                      .dwattr $C$DW$T$45, DW_AT_byte_size(0x01)
    1900              $C$DW$172       .dwtag  DW_TAG_enumerator, DW_AT_name("CSL_LCDC_ENDIANESS_LITTLE"), DW_AT_const_value(0x00)
    1901              $C$DW$173       .dwtag  DW_TAG_enumerator, DW_AT_name("CSL_LCDC_ENDIANESS_BIG"), DW_AT_const_value(0x01)
    1902                      .dwendtag $C$DW$T$45
    1903              
    1904              $C$DW$T$46      .dwtag  DW_TAG_typedef, DW_AT_name("CSL_LcdcEndianess")
    1905                      .dwattr $C$DW$T$46, DW_AT_type(*$C$DW$T$45)
    1906                      .dwattr $C$DW$T$46, DW_AT_language(DW_LANG_C)
    1907              
    1908              $C$DW$T$47      .dwtag  DW_TAG_enumeration_type
    1909                      .dwattr $C$DW$T$47, DW_AT_byte_size(0x01)
    1910              $C$DW$174       .dwtag  DW_TAG_enumerator, DW_AT_name("CSL_LCDC_FBMODE_SINGLE"), DW_AT_const_value(0x00)
    1911              $C$DW$175       .dwtag  DW_TAG_enumerator, DW_AT_name("CSL_LCDC_FBMODE_DOUBLE"), DW_AT_const_value(0x01)
    1912                      .dwendtag $C$DW$T$47
    1913              
    1914              $C$DW$T$48      .dwtag  DW_TAG_typedef, DW_AT_name("CSL_LcdcFrameMode")
    1915                      .dwattr $C$DW$T$48, DW_AT_type(*$C$DW$T$47)
    1916                      .dwattr $C$DW$T$48, DW_AT_language(DW_LANG_C)
    1917              
    1918              $C$DW$T$24      .dwtag  DW_TAG_structure_type
    1919                      .dwattr $C$DW$T$24, DW_AT_byte_size(0x52)
    1920              $C$DW$176       .dwtag  DW_TAG_member
    1921                      .dwattr $C$DW$176, DW_AT_type(*$C$DW$T$20)
    1922                      .dwattr $C$DW$176, DW_AT_name("LCDREVMIN")
    1923                      .dwattr $C$DW$176, DW_AT_TI_symbol_name("_LCDREVMIN")
    1924                      .dwattr $C$DW$176, DW_AT_data_member_location[DW_OP_plus_uconst 0x0]
    1925                      .dwattr $C$DW$176, DW_AT_accessibility(DW_ACCESS_public)
    1926              $C$DW$177       .dwtag  DW_TAG_member
    1927                      .dwattr $C$DW$177, DW_AT_type(*$C$DW$T$20)
    1928                      .dwattr $C$DW$177, DW_AT_name("LCDREVMAJ")
    1929                      .dwattr $C$DW$177, DW_AT_TI_symbol_name("_LCDREVMAJ")
    1930                      .dwattr $C$DW$177, DW_AT_data_member_location[DW_OP_plus_uconst 0x1]
    1931                      .dwattr $C$DW$177, DW_AT_accessibility(DW_ACCESS_public)
    1932              $C$DW$178       .dwtag  DW_TAG_member
    1933                      .dwattr $C$DW$178, DW_AT_type(*$C$DW$T$21)
    1934                      .dwattr $C$DW$178, DW_AT_name("RSVD0")
    1935                      .dwattr $C$DW$178, DW_AT_TI_symbol_name("_RSVD0")
    1936                      .dwattr $C$DW$178, DW_AT_data_member_location[DW_OP_plus_uconst 0x2]
    1937                      .dwattr $C$DW$178, DW_AT_accessibility(DW_ACCESS_public)
    1938              $C$DW$179       .dwtag  DW_TAG_member
    1939                      .dwattr $C$DW$179, DW_AT_type(*$C$DW$T$20)
    1940                      .dwattr $C$DW$179, DW_AT_name("LCDCR")
    1941                      .dwattr $C$DW$179, DW_AT_TI_symbol_name("_LCDCR")
    1942                      .dwattr $C$DW$179, DW_AT_data_member_location[DW_OP_plus_uconst 0x4]
    1943                      .dwattr $C$DW$179, DW_AT_accessibility(DW_ACCESS_public)
    1944              $C$DW$180       .dwtag  DW_TAG_member
    1945                      .dwattr $C$DW$180, DW_AT_type(*$C$DW$T$22)
    1946                      .dwattr $C$DW$180, DW_AT_name("RSVD1")
    1947                      .dwattr $C$DW$180, DW_AT_TI_symbol_name("_RSVD1")
    1948                      .dwattr $C$DW$180, DW_AT_data_member_location[DW_OP_plus_uconst 0x5]
    1949                      .dwattr $C$DW$180, DW_AT_accessibility(DW_ACCESS_public)
    1950              $C$DW$181       .dwtag  DW_TAG_member
    1951                      .dwattr $C$DW$181, DW_AT_type(*$C$DW$T$20)
    1952                      .dwattr $C$DW$181, DW_AT_name("LCDSR")
TMS320C55x Assembler PC v4.4.1 Sat Sep 29 23:09:27 2018

Tools Copyright (c) 1996-2012 Texas Instruments Incorporated
csl_lcdc_262kColorModeExample.asm                                    PAGE   51

    1953                      .dwattr $C$DW$181, DW_AT_TI_symbol_name("_LCDSR")
    1954                      .dwattr $C$DW$181, DW_AT_data_member_location[DW_OP_plus_uconst 0x8]
    1955                      .dwattr $C$DW$181, DW_AT_accessibility(DW_ACCESS_public)
    1956              $C$DW$182       .dwtag  DW_TAG_member
    1957                      .dwattr $C$DW$182, DW_AT_type(*$C$DW$T$22)
    1958                      .dwattr $C$DW$182, DW_AT_name("RSVD2")
    1959                      .dwattr $C$DW$182, DW_AT_TI_symbol_name("_RSVD2")
    1960                      .dwattr $C$DW$182, DW_AT_data_member_location[DW_OP_plus_uconst 0x9]
    1961                      .dwattr $C$DW$182, DW_AT_accessibility(DW_ACCESS_public)
    1962              $C$DW$183       .dwtag  DW_TAG_member
    1963                      .dwattr $C$DW$183, DW_AT_type(*$C$DW$T$20)
    1964                      .dwattr $C$DW$183, DW_AT_name("LCDLIDDCR")
    1965                      .dwattr $C$DW$183, DW_AT_TI_symbol_name("_LCDLIDDCR")
    1966                      .dwattr $C$DW$183, DW_AT_data_member_location[DW_OP_plus_uconst 0xc]
    1967                      .dwattr $C$DW$183, DW_AT_accessibility(DW_ACCESS_public)
    1968              $C$DW$184       .dwtag  DW_TAG_member
    1969                      .dwattr $C$DW$184, DW_AT_type(*$C$DW$T$22)
    1970                      .dwattr $C$DW$184, DW_AT_name("RSVD3")
    1971                      .dwattr $C$DW$184, DW_AT_TI_symbol_name("_RSVD3")
    1972                      .dwattr $C$DW$184, DW_AT_data_member_location[DW_OP_plus_uconst 0xd]
    1973                      .dwattr $C$DW$184, DW_AT_accessibility(DW_ACCESS_public)
    1974              $C$DW$185       .dwtag  DW_TAG_member
    1975                      .dwattr $C$DW$185, DW_AT_type(*$C$DW$T$20)
    1976                      .dwattr $C$DW$185, DW_AT_name("LCDLIDDCS0CONFIG0")
    1977                      .dwattr $C$DW$185, DW_AT_TI_symbol_name("_LCDLIDDCS0CONFIG0")
    1978                      .dwattr $C$DW$185, DW_AT_data_member_location[DW_OP_plus_uconst 0x10]
    1979                      .dwattr $C$DW$185, DW_AT_accessibility(DW_ACCESS_public)
    1980              $C$DW$186       .dwtag  DW_TAG_member
    1981                      .dwattr $C$DW$186, DW_AT_type(*$C$DW$T$20)
    1982                      .dwattr $C$DW$186, DW_AT_name("LCDLIDDCS0CONFIG1")
    1983                      .dwattr $C$DW$186, DW_AT_TI_symbol_name("_LCDLIDDCS0CONFIG1")
    1984                      .dwattr $C$DW$186, DW_AT_data_member_location[DW_OP_plus_uconst 0x11]
    1985                      .dwattr $C$DW$186, DW_AT_accessibility(DW_ACCESS_public)
    1986              $C$DW$187       .dwtag  DW_TAG_member
    1987                      .dwattr $C$DW$187, DW_AT_type(*$C$DW$T$21)
    1988                      .dwattr $C$DW$187, DW_AT_name("RSVD4")
    1989                      .dwattr $C$DW$187, DW_AT_TI_symbol_name("_RSVD4")
    1990                      .dwattr $C$DW$187, DW_AT_data_member_location[DW_OP_plus_uconst 0x12]
    1991                      .dwattr $C$DW$187, DW_AT_accessibility(DW_ACCESS_public)
    1992              $C$DW$188       .dwtag  DW_TAG_member
    1993                      .dwattr $C$DW$188, DW_AT_type(*$C$DW$T$20)
    1994                      .dwattr $C$DW$188, DW_AT_name("LCDLIDDCS0ADDR")
    1995                      .dwattr $C$DW$188, DW_AT_TI_symbol_name("_LCDLIDDCS0ADDR")
    1996                      .dwattr $C$DW$188, DW_AT_data_member_location[DW_OP_plus_uconst 0x14]
    1997                      .dwattr $C$DW$188, DW_AT_accessibility(DW_ACCESS_public)
    1998              $C$DW$189       .dwtag  DW_TAG_member
    1999                      .dwattr $C$DW$189, DW_AT_type(*$C$DW$T$22)
    2000                      .dwattr $C$DW$189, DW_AT_name("RSVD5")
    2001                      .dwattr $C$DW$189, DW_AT_TI_symbol_name("_RSVD5")
    2002                      .dwattr $C$DW$189, DW_AT_data_member_location[DW_OP_plus_uconst 0x15]
    2003                      .dwattr $C$DW$189, DW_AT_accessibility(DW_ACCESS_public)
    2004              $C$DW$190       .dwtag  DW_TAG_member
    2005                      .dwattr $C$DW$190, DW_AT_type(*$C$DW$T$20)
    2006                      .dwattr $C$DW$190, DW_AT_name("LCDLIDDCS0DATA")
    2007                      .dwattr $C$DW$190, DW_AT_TI_symbol_name("_LCDLIDDCS0DATA")
TMS320C55x Assembler PC v4.4.1 Sat Sep 29 23:09:27 2018

Tools Copyright (c) 1996-2012 Texas Instruments Incorporated
csl_lcdc_262kColorModeExample.asm                                    PAGE   52

    2008                      .dwattr $C$DW$190, DW_AT_data_member_location[DW_OP_plus_uconst 0x18]
    2009                      .dwattr $C$DW$190, DW_AT_accessibility(DW_ACCESS_public)
    2010              $C$DW$191       .dwtag  DW_TAG_member
    2011                      .dwattr $C$DW$191, DW_AT_type(*$C$DW$T$22)
    2012                      .dwattr $C$DW$191, DW_AT_name("RSVD6")
    2013                      .dwattr $C$DW$191, DW_AT_TI_symbol_name("_RSVD6")
    2014                      .dwattr $C$DW$191, DW_AT_data_member_location[DW_OP_plus_uconst 0x19]
    2015                      .dwattr $C$DW$191, DW_AT_accessibility(DW_ACCESS_public)
    2016              $C$DW$192       .dwtag  DW_TAG_member
    2017                      .dwattr $C$DW$192, DW_AT_type(*$C$DW$T$20)
    2018                      .dwattr $C$DW$192, DW_AT_name("LCDLIDDCS1CONFIG0")
    2019                      .dwattr $C$DW$192, DW_AT_TI_symbol_name("_LCDLIDDCS1CONFIG0")
    2020                      .dwattr $C$DW$192, DW_AT_data_member_location[DW_OP_plus_uconst 0x1c]
    2021                      .dwattr $C$DW$192, DW_AT_accessibility(DW_ACCESS_public)
    2022              $C$DW$193       .dwtag  DW_TAG_member
    2023                      .dwattr $C$DW$193, DW_AT_type(*$C$DW$T$20)
    2024                      .dwattr $C$DW$193, DW_AT_name("LCDLIDDCS1CONFIG1")
    2025                      .dwattr $C$DW$193, DW_AT_TI_symbol_name("_LCDLIDDCS1CONFIG1")
    2026                      .dwattr $C$DW$193, DW_AT_data_member_location[DW_OP_plus_uconst 0x1d]
    2027                      .dwattr $C$DW$193, DW_AT_accessibility(DW_ACCESS_public)
    2028              $C$DW$194       .dwtag  DW_TAG_member
    2029                      .dwattr $C$DW$194, DW_AT_type(*$C$DW$T$21)
    2030                      .dwattr $C$DW$194, DW_AT_name("RSVD7")
    2031                      .dwattr $C$DW$194, DW_AT_TI_symbol_name("_RSVD7")
    2032                      .dwattr $C$DW$194, DW_AT_data_member_location[DW_OP_plus_uconst 0x1e]
    2033                      .dwattr $C$DW$194, DW_AT_accessibility(DW_ACCESS_public)
    2034              $C$DW$195       .dwtag  DW_TAG_member
    2035                      .dwattr $C$DW$195, DW_AT_type(*$C$DW$T$20)
    2036                      .dwattr $C$DW$195, DW_AT_name("LCDLIDDCS1ADDR")
    2037                      .dwattr $C$DW$195, DW_AT_TI_symbol_name("_LCDLIDDCS1ADDR")
    2038                      .dwattr $C$DW$195, DW_AT_data_member_location[DW_OP_plus_uconst 0x20]
    2039                      .dwattr $C$DW$195, DW_AT_accessibility(DW_ACCESS_public)
    2040              $C$DW$196       .dwtag  DW_TAG_member
    2041                      .dwattr $C$DW$196, DW_AT_type(*$C$DW$T$22)
    2042                      .dwattr $C$DW$196, DW_AT_name("RSVD8")
    2043                      .dwattr $C$DW$196, DW_AT_TI_symbol_name("_RSVD8")
    2044                      .dwattr $C$DW$196, DW_AT_data_member_location[DW_OP_plus_uconst 0x21]
    2045                      .dwattr $C$DW$196, DW_AT_accessibility(DW_ACCESS_public)
    2046              $C$DW$197       .dwtag  DW_TAG_member
    2047                      .dwattr $C$DW$197, DW_AT_type(*$C$DW$T$20)
    2048                      .dwattr $C$DW$197, DW_AT_name("LCDLIDDCS1DATA")
    2049                      .dwattr $C$DW$197, DW_AT_TI_symbol_name("_LCDLIDDCS1DATA")
    2050                      .dwattr $C$DW$197, DW_AT_data_member_location[DW_OP_plus_uconst 0x24]
    2051                      .dwattr $C$DW$197, DW_AT_accessibility(DW_ACCESS_public)
    2052              $C$DW$198       .dwtag  DW_TAG_member
    2053                      .dwattr $C$DW$198, DW_AT_type(*$C$DW$T$23)
    2054                      .dwattr $C$DW$198, DW_AT_name("RSVD9")
    2055                      .dwattr $C$DW$198, DW_AT_TI_symbol_name("_RSVD9")
    2056                      .dwattr $C$DW$198, DW_AT_data_member_location[DW_OP_plus_uconst 0x25]
    2057                      .dwattr $C$DW$198, DW_AT_accessibility(DW_ACCESS_public)
    2058              $C$DW$199       .dwtag  DW_TAG_member
    2059                      .dwattr $C$DW$199, DW_AT_type(*$C$DW$T$20)
    2060                      .dwattr $C$DW$199, DW_AT_name("LCDDMACR")
    2061                      .dwattr $C$DW$199, DW_AT_TI_symbol_name("_LCDDMACR")
    2062                      .dwattr $C$DW$199, DW_AT_data_member_location[DW_OP_plus_uconst 0x40]
TMS320C55x Assembler PC v4.4.1 Sat Sep 29 23:09:27 2018

Tools Copyright (c) 1996-2012 Texas Instruments Incorporated
csl_lcdc_262kColorModeExample.asm                                    PAGE   53

    2063                      .dwattr $C$DW$199, DW_AT_accessibility(DW_ACCESS_public)
    2064              $C$DW$200       .dwtag  DW_TAG_member
    2065                      .dwattr $C$DW$200, DW_AT_type(*$C$DW$T$22)
    2066                      .dwattr $C$DW$200, DW_AT_name("RSVD10")
    2067                      .dwattr $C$DW$200, DW_AT_TI_symbol_name("_RSVD10")
    2068                      .dwattr $C$DW$200, DW_AT_data_member_location[DW_OP_plus_uconst 0x41]
    2069                      .dwattr $C$DW$200, DW_AT_accessibility(DW_ACCESS_public)
    2070              $C$DW$201       .dwtag  DW_TAG_member
    2071                      .dwattr $C$DW$201, DW_AT_type(*$C$DW$T$20)
    2072                      .dwattr $C$DW$201, DW_AT_name("LCDDMAFB0BAR0")
    2073                      .dwattr $C$DW$201, DW_AT_TI_symbol_name("_LCDDMAFB0BAR0")
    2074                      .dwattr $C$DW$201, DW_AT_data_member_location[DW_OP_plus_uconst 0x44]
    2075                      .dwattr $C$DW$201, DW_AT_accessibility(DW_ACCESS_public)
    2076              $C$DW$202       .dwtag  DW_TAG_member
    2077                      .dwattr $C$DW$202, DW_AT_type(*$C$DW$T$20)
    2078                      .dwattr $C$DW$202, DW_AT_name("LCDDMAFB0BAR1")
    2079                      .dwattr $C$DW$202, DW_AT_TI_symbol_name("_LCDDMAFB0BAR1")
    2080                      .dwattr $C$DW$202, DW_AT_data_member_location[DW_OP_plus_uconst 0x45]
    2081                      .dwattr $C$DW$202, DW_AT_accessibility(DW_ACCESS_public)
    2082              $C$DW$203       .dwtag  DW_TAG_member
    2083                      .dwattr $C$DW$203, DW_AT_type(*$C$DW$T$21)
    2084                      .dwattr $C$DW$203, DW_AT_name("RSVD11")
    2085                      .dwattr $C$DW$203, DW_AT_TI_symbol_name("_RSVD11")
    2086                      .dwattr $C$DW$203, DW_AT_data_member_location[DW_OP_plus_uconst 0x46]
    2087                      .dwattr $C$DW$203, DW_AT_accessibility(DW_ACCESS_public)
    2088              $C$DW$204       .dwtag  DW_TAG_member
    2089                      .dwattr $C$DW$204, DW_AT_type(*$C$DW$T$20)
    2090                      .dwattr $C$DW$204, DW_AT_name("LCDDMAFB0CAR0")
    2091                      .dwattr $C$DW$204, DW_AT_TI_symbol_name("_LCDDMAFB0CAR0")
    2092                      .dwattr $C$DW$204, DW_AT_data_member_location[DW_OP_plus_uconst 0x48]
    2093                      .dwattr $C$DW$204, DW_AT_accessibility(DW_ACCESS_public)
    2094              $C$DW$205       .dwtag  DW_TAG_member
    2095                      .dwattr $C$DW$205, DW_AT_type(*$C$DW$T$20)
    2096                      .dwattr $C$DW$205, DW_AT_name("LCDDMAFB0CAR1")
    2097                      .dwattr $C$DW$205, DW_AT_TI_symbol_name("_LCDDMAFB0CAR1")
    2098                      .dwattr $C$DW$205, DW_AT_data_member_location[DW_OP_plus_uconst 0x49]
    2099                      .dwattr $C$DW$205, DW_AT_accessibility(DW_ACCESS_public)
    2100              $C$DW$206       .dwtag  DW_TAG_member
    2101                      .dwattr $C$DW$206, DW_AT_type(*$C$DW$T$21)
    2102                      .dwattr $C$DW$206, DW_AT_name("RSVD12")
    2103                      .dwattr $C$DW$206, DW_AT_TI_symbol_name("_RSVD12")
    2104                      .dwattr $C$DW$206, DW_AT_data_member_location[DW_OP_plus_uconst 0x4a]
    2105                      .dwattr $C$DW$206, DW_AT_accessibility(DW_ACCESS_public)
    2106              $C$DW$207       .dwtag  DW_TAG_member
    2107                      .dwattr $C$DW$207, DW_AT_type(*$C$DW$T$20)
    2108                      .dwattr $C$DW$207, DW_AT_name("LCDDMAFB1BAR0")
    2109                      .dwattr $C$DW$207, DW_AT_TI_symbol_name("_LCDDMAFB1BAR0")
    2110                      .dwattr $C$DW$207, DW_AT_data_member_location[DW_OP_plus_uconst 0x4c]
    2111                      .dwattr $C$DW$207, DW_AT_accessibility(DW_ACCESS_public)
    2112              $C$DW$208       .dwtag  DW_TAG_member
    2113                      .dwattr $C$DW$208, DW_AT_type(*$C$DW$T$20)
    2114                      .dwattr $C$DW$208, DW_AT_name("LCDDMAFB1BAR1")
    2115                      .dwattr $C$DW$208, DW_AT_TI_symbol_name("_LCDDMAFB1BAR1")
    2116                      .dwattr $C$DW$208, DW_AT_data_member_location[DW_OP_plus_uconst 0x4d]
    2117                      .dwattr $C$DW$208, DW_AT_accessibility(DW_ACCESS_public)
TMS320C55x Assembler PC v4.4.1 Sat Sep 29 23:09:27 2018

Tools Copyright (c) 1996-2012 Texas Instruments Incorporated
csl_lcdc_262kColorModeExample.asm                                    PAGE   54

    2118              $C$DW$209       .dwtag  DW_TAG_member
    2119                      .dwattr $C$DW$209, DW_AT_type(*$C$DW$T$21)
    2120                      .dwattr $C$DW$209, DW_AT_name("RSVD13")
    2121                      .dwattr $C$DW$209, DW_AT_TI_symbol_name("_RSVD13")
    2122                      .dwattr $C$DW$209, DW_AT_data_member_location[DW_OP_plus_uconst 0x4e]
    2123                      .dwattr $C$DW$209, DW_AT_accessibility(DW_ACCESS_public)
    2124              $C$DW$210       .dwtag  DW_TAG_member
    2125                      .dwattr $C$DW$210, DW_AT_type(*$C$DW$T$20)
    2126                      .dwattr $C$DW$210, DW_AT_name("LCDDMAFB1CAR0")
    2127                      .dwattr $C$DW$210, DW_AT_TI_symbol_name("_LCDDMAFB1CAR0")
    2128                      .dwattr $C$DW$210, DW_AT_data_member_location[DW_OP_plus_uconst 0x50]
    2129                      .dwattr $C$DW$210, DW_AT_accessibility(DW_ACCESS_public)
    2130              $C$DW$211       .dwtag  DW_TAG_member
    2131                      .dwattr $C$DW$211, DW_AT_type(*$C$DW$T$20)
    2132                      .dwattr $C$DW$211, DW_AT_name("LCDDMAFB1CAR1")
    2133                      .dwattr $C$DW$211, DW_AT_TI_symbol_name("_LCDDMAFB1CAR1")
    2134                      .dwattr $C$DW$211, DW_AT_data_member_location[DW_OP_plus_uconst 0x51]
    2135                      .dwattr $C$DW$211, DW_AT_accessibility(DW_ACCESS_public)
    2136                      .dwendtag $C$DW$T$24
    2137              
    2138              $C$DW$T$56      .dwtag  DW_TAG_typedef, DW_AT_name("CSL_LcdcRegs")
    2139                      .dwattr $C$DW$T$56, DW_AT_type(*$C$DW$T$24)
    2140                      .dwattr $C$DW$T$56, DW_AT_language(DW_LANG_C)
    2141              $C$DW$212       .dwtag  DW_TAG_TI_far_type
    2142                      .dwattr $C$DW$212, DW_AT_type(*$C$DW$T$56)
    2143              $C$DW$213       .dwtag  DW_TAG_TI_ioport_type
    2144                      .dwattr $C$DW$213, DW_AT_type(*$C$DW$212)
    2145              $C$DW$T$57      .dwtag  DW_TAG_volatile_type
    2146                      .dwattr $C$DW$T$57, DW_AT_type(*$C$DW$213)
    2147              $C$DW$T$58      .dwtag  DW_TAG_pointer_type
    2148                      .dwattr $C$DW$T$58, DW_AT_type(*$C$DW$T$57)
    2149                      .dwattr $C$DW$T$58, DW_AT_address_class(0x10)
    2150              $C$DW$T$59      .dwtag  DW_TAG_typedef, DW_AT_name("CSL_LcdcRegsOvly")
    2151                      .dwattr $C$DW$T$59, DW_AT_type(*$C$DW$T$58)
    2152                      .dwattr $C$DW$T$59, DW_AT_language(DW_LANG_C)
    2153              
    2154              $C$DW$T$34      .dwtag  DW_TAG_structure_type
    2155                      .dwattr $C$DW$T$34, DW_AT_byte_size(0x06)
    2156              $C$DW$214       .dwtag  DW_TAG_member
    2157                      .dwattr $C$DW$214, DW_AT_type(*$C$DW$T$19)
    2158                      .dwattr $C$DW$214, DW_AT_name("clkDiv")
    2159                      .dwattr $C$DW$214, DW_AT_TI_symbol_name("_clkDiv")
    2160                      .dwattr $C$DW$214, DW_AT_data_member_location[DW_OP_plus_uconst 0x0]
    2161                      .dwattr $C$DW$214, DW_AT_accessibility(DW_ACCESS_public)
    2162              $C$DW$215       .dwtag  DW_TAG_member
    2163                      .dwattr $C$DW$215, DW_AT_type(*$C$DW$T$26)
    2164                      .dwattr $C$DW$215, DW_AT_name("fdoneIntEn")
    2165                      .dwattr $C$DW$215, DW_AT_TI_symbol_name("_fdoneIntEn")
    2166                      .dwattr $C$DW$215, DW_AT_data_member_location[DW_OP_plus_uconst 0x1]
    2167                      .dwattr $C$DW$215, DW_AT_accessibility(DW_ACCESS_public)
    2168              $C$DW$216       .dwtag  DW_TAG_member
    2169                      .dwattr $C$DW$216, DW_AT_type(*$C$DW$T$28)
    2170                      .dwattr $C$DW$216, DW_AT_name("dmaCs0Cs1")
    2171                      .dwattr $C$DW$216, DW_AT_TI_symbol_name("_dmaCs0Cs1")
    2172                      .dwattr $C$DW$216, DW_AT_data_member_location[DW_OP_plus_uconst 0x2]
TMS320C55x Assembler PC v4.4.1 Sat Sep 29 23:09:27 2018

Tools Copyright (c) 1996-2012 Texas Instruments Incorporated
csl_lcdc_262kColorModeExample.asm                                    PAGE   55

    2173                      .dwattr $C$DW$216, DW_AT_accessibility(DW_ACCESS_public)
    2174              $C$DW$217       .dwtag  DW_TAG_member
    2175                      .dwattr $C$DW$217, DW_AT_type(*$C$DW$T$30)
    2176                      .dwattr $C$DW$217, DW_AT_name("dmaEnable")
    2177                      .dwattr $C$DW$217, DW_AT_TI_symbol_name("_dmaEnable")
    2178                      .dwattr $C$DW$217, DW_AT_data_member_location[DW_OP_plus_uconst 0x3]
    2179                      .dwattr $C$DW$217, DW_AT_accessibility(DW_ACCESS_public)
    2180              $C$DW$218       .dwtag  DW_TAG_member
    2181                      .dwattr $C$DW$218, DW_AT_type(*$C$DW$T$31)
    2182                      .dwattr $C$DW$218, DW_AT_name("polControl")
    2183                      .dwattr $C$DW$218, DW_AT_TI_symbol_name("_polControl")
    2184                      .dwattr $C$DW$218, DW_AT_data_member_location[DW_OP_plus_uconst 0x4]
    2185                      .dwattr $C$DW$218, DW_AT_accessibility(DW_ACCESS_public)
    2186              $C$DW$219       .dwtag  DW_TAG_member
    2187                      .dwattr $C$DW$219, DW_AT_type(*$C$DW$T$33)
    2188                      .dwattr $C$DW$219, DW_AT_name("modeSel")
    2189                      .dwattr $C$DW$219, DW_AT_TI_symbol_name("_modeSel")
    2190                      .dwattr $C$DW$219, DW_AT_data_member_location[DW_OP_plus_uconst 0x5]
    2191                      .dwattr $C$DW$219, DW_AT_accessibility(DW_ACCESS_public)
    2192                      .dwendtag $C$DW$T$34
    2193              
    2194              $C$DW$T$36      .dwtag  DW_TAG_typedef, DW_AT_name("CSL_LcdcConfigLidd")
    2195                      .dwattr $C$DW$T$36, DW_AT_type(*$C$DW$T$34)
    2196                      .dwattr $C$DW$T$36, DW_AT_language(DW_LANG_C)
    2197              
    2198              $C$DW$T$35      .dwtag  DW_TAG_structure_type
    2199                      .dwattr $C$DW$T$35, DW_AT_byte_size(0x07)
    2200              $C$DW$220       .dwtag  DW_TAG_member
    2201                      .dwattr $C$DW$220, DW_AT_type(*$C$DW$T$19)
    2202                      .dwattr $C$DW$220, DW_AT_name("wSu")
    2203                      .dwattr $C$DW$220, DW_AT_TI_symbol_name("_wSu")
    2204                      .dwattr $C$DW$220, DW_AT_data_member_location[DW_OP_plus_uconst 0x0]
    2205                      .dwattr $C$DW$220, DW_AT_accessibility(DW_ACCESS_public)
    2206              $C$DW$221       .dwtag  DW_TAG_member
    2207                      .dwattr $C$DW$221, DW_AT_type(*$C$DW$T$19)
    2208                      .dwattr $C$DW$221, DW_AT_name("wStrobe")
    2209                      .dwattr $C$DW$221, DW_AT_TI_symbol_name("_wStrobe")
    2210                      .dwattr $C$DW$221, DW_AT_data_member_location[DW_OP_plus_uconst 0x1]
    2211                      .dwattr $C$DW$221, DW_AT_accessibility(DW_ACCESS_public)
    2212              $C$DW$222       .dwtag  DW_TAG_member
    2213                      .dwattr $C$DW$222, DW_AT_type(*$C$DW$T$19)
    2214                      .dwattr $C$DW$222, DW_AT_name("wHold")
    2215                      .dwattr $C$DW$222, DW_AT_TI_symbol_name("_wHold")
    2216                      .dwattr $C$DW$222, DW_AT_data_member_location[DW_OP_plus_uconst 0x2]
    2217                      .dwattr $C$DW$222, DW_AT_accessibility(DW_ACCESS_public)
    2218              $C$DW$223       .dwtag  DW_TAG_member
    2219                      .dwattr $C$DW$223, DW_AT_type(*$C$DW$T$19)
    2220                      .dwattr $C$DW$223, DW_AT_name("rSu")
    2221                      .dwattr $C$DW$223, DW_AT_TI_symbol_name("_rSu")
    2222                      .dwattr $C$DW$223, DW_AT_data_member_location[DW_OP_plus_uconst 0x3]
    2223                      .dwattr $C$DW$223, DW_AT_accessibility(DW_ACCESS_public)
    2224              $C$DW$224       .dwtag  DW_TAG_member
    2225                      .dwattr $C$DW$224, DW_AT_type(*$C$DW$T$19)
    2226                      .dwattr $C$DW$224, DW_AT_name("rStrobe")
    2227                      .dwattr $C$DW$224, DW_AT_TI_symbol_name("_rStrobe")
TMS320C55x Assembler PC v4.4.1 Sat Sep 29 23:09:27 2018

Tools Copyright (c) 1996-2012 Texas Instruments Incorporated
csl_lcdc_262kColorModeExample.asm                                    PAGE   56

    2228                      .dwattr $C$DW$224, DW_AT_data_member_location[DW_OP_plus_uconst 0x4]
    2229                      .dwattr $C$DW$224, DW_AT_accessibility(DW_ACCESS_public)
    2230              $C$DW$225       .dwtag  DW_TAG_member
    2231                      .dwattr $C$DW$225, DW_AT_type(*$C$DW$T$19)
    2232                      .dwattr $C$DW$225, DW_AT_name("rHold")
    2233                      .dwattr $C$DW$225, DW_AT_TI_symbol_name("_rHold")
    2234                      .dwattr $C$DW$225, DW_AT_data_member_location[DW_OP_plus_uconst 0x5]
    2235                      .dwattr $C$DW$225, DW_AT_accessibility(DW_ACCESS_public)
    2236              $C$DW$226       .dwtag  DW_TAG_member
    2237                      .dwattr $C$DW$226, DW_AT_type(*$C$DW$T$19)
    2238                      .dwattr $C$DW$226, DW_AT_name("ta")
    2239                      .dwattr $C$DW$226, DW_AT_TI_symbol_name("_ta")
    2240                      .dwattr $C$DW$226, DW_AT_data_member_location[DW_OP_plus_uconst 0x6]
    2241                      .dwattr $C$DW$226, DW_AT_accessibility(DW_ACCESS_public)
    2242                      .dwendtag $C$DW$T$35
    2243              
    2244              $C$DW$T$37      .dwtag  DW_TAG_typedef, DW_AT_name("CSL_LcdcLiddTiming")
    2245                      .dwattr $C$DW$T$37, DW_AT_type(*$C$DW$T$35)
    2246                      .dwattr $C$DW$T$37, DW_AT_language(DW_LANG_C)
    2247              
    2248              $C$DW$T$40      .dwtag  DW_TAG_structure_type
    2249                      .dwattr $C$DW$T$40, DW_AT_byte_size(0x18)
    2250              $C$DW$227       .dwtag  DW_TAG_member
    2251                      .dwattr $C$DW$227, DW_AT_type(*$C$DW$T$3)
    2252                      .dwattr $C$DW$227, DW_AT_name("extendSetup")
    2253                      .dwattr $C$DW$227, DW_AT_TI_symbol_name("_extendSetup")
    2254                      .dwattr $C$DW$227, DW_AT_data_member_location[DW_OP_plus_uconst 0x0]
    2255                      .dwattr $C$DW$227, DW_AT_accessibility(DW_ACCESS_public)
    2256              $C$DW$228       .dwtag  DW_TAG_member
    2257                      .dwattr $C$DW$228, DW_AT_type(*$C$DW$T$36)
    2258                      .dwattr $C$DW$228, DW_AT_name("config")
    2259                      .dwattr $C$DW$228, DW_AT_TI_symbol_name("_config")
    2260                      .dwattr $C$DW$228, DW_AT_data_member_location[DW_OP_plus_uconst 0x2]
    2261                      .dwattr $C$DW$228, DW_AT_accessibility(DW_ACCESS_public)
    2262              $C$DW$229       .dwtag  DW_TAG_member
    2263                      .dwattr $C$DW$229, DW_AT_type(*$C$DW$T$37)
    2264                      .dwattr $C$DW$229, DW_AT_name("timingCs0")
    2265                      .dwattr $C$DW$229, DW_AT_TI_symbol_name("_timingCs0")
    2266                      .dwattr $C$DW$229, DW_AT_data_member_location[DW_OP_plus_uconst 0x8]
    2267                      .dwattr $C$DW$229, DW_AT_accessibility(DW_ACCESS_public)
    2268              $C$DW$230       .dwtag  DW_TAG_member
    2269                      .dwattr $C$DW$230, DW_AT_type(*$C$DW$T$39)
    2270                      .dwattr $C$DW$230, DW_AT_name("useCs1")
    2271                      .dwattr $C$DW$230, DW_AT_TI_symbol_name("_useCs1")
    2272                      .dwattr $C$DW$230, DW_AT_data_member_location[DW_OP_plus_uconst 0xf]
    2273                      .dwattr $C$DW$230, DW_AT_accessibility(DW_ACCESS_public)
    2274              $C$DW$231       .dwtag  DW_TAG_member
    2275                      .dwattr $C$DW$231, DW_AT_type(*$C$DW$T$37)
    2276                      .dwattr $C$DW$231, DW_AT_name("timingCs1")
    2277                      .dwattr $C$DW$231, DW_AT_TI_symbol_name("_timingCs1")
    2278                      .dwattr $C$DW$231, DW_AT_data_member_location[DW_OP_plus_uconst 0x10]
    2279                      .dwattr $C$DW$231, DW_AT_accessibility(DW_ACCESS_public)
    2280                      .dwendtag $C$DW$T$40
    2281              
    2282              $C$DW$T$63      .dwtag  DW_TAG_typedef, DW_AT_name("CSL_LcdcHwSetup")
TMS320C55x Assembler PC v4.4.1 Sat Sep 29 23:09:27 2018

Tools Copyright (c) 1996-2012 Texas Instruments Incorporated
csl_lcdc_262kColorModeExample.asm                                    PAGE   57

    2283                      .dwattr $C$DW$T$63, DW_AT_type(*$C$DW$T$40)
    2284                      .dwattr $C$DW$T$63, DW_AT_language(DW_LANG_C)
    2285              $C$DW$T$64      .dwtag  DW_TAG_pointer_type
    2286                      .dwattr $C$DW$T$64, DW_AT_type(*$C$DW$T$63)
    2287                      .dwattr $C$DW$T$64, DW_AT_address_class(0x17)
    2288              
    2289              $C$DW$T$50      .dwtag  DW_TAG_structure_type
    2290                      .dwattr $C$DW$T$50, DW_AT_byte_size(0x0c)
    2291              $C$DW$232       .dwtag  DW_TAG_member
    2292                      .dwattr $C$DW$232, DW_AT_type(*$C$DW$T$42)
    2293                      .dwattr $C$DW$232, DW_AT_name("burstSize")
    2294                      .dwattr $C$DW$232, DW_AT_TI_symbol_name("_burstSize")
    2295                      .dwattr $C$DW$232, DW_AT_data_member_location[DW_OP_plus_uconst 0x0]
    2296                      .dwattr $C$DW$232, DW_AT_accessibility(DW_ACCESS_public)
    2297              $C$DW$233       .dwtag  DW_TAG_member
    2298                      .dwattr $C$DW$233, DW_AT_type(*$C$DW$T$44)
    2299                      .dwattr $C$DW$233, DW_AT_name("eofIntEn")
    2300                      .dwattr $C$DW$233, DW_AT_TI_symbol_name("_eofIntEn")
    2301                      .dwattr $C$DW$233, DW_AT_data_member_location[DW_OP_plus_uconst 0x1]
    2302                      .dwattr $C$DW$233, DW_AT_accessibility(DW_ACCESS_public)
    2303              $C$DW$234       .dwtag  DW_TAG_member
    2304                      .dwattr $C$DW$234, DW_AT_type(*$C$DW$T$46)
    2305                      .dwattr $C$DW$234, DW_AT_name("bigEndian")
    2306                      .dwattr $C$DW$234, DW_AT_TI_symbol_name("_bigEndian")
    2307                      .dwattr $C$DW$234, DW_AT_data_member_location[DW_OP_plus_uconst 0x2]
    2308                      .dwattr $C$DW$234, DW_AT_accessibility(DW_ACCESS_public)
    2309              $C$DW$235       .dwtag  DW_TAG_member
    2310                      .dwattr $C$DW$235, DW_AT_type(*$C$DW$T$48)
    2311                      .dwattr $C$DW$235, DW_AT_name("frameMode")
    2312                      .dwattr $C$DW$235, DW_AT_TI_symbol_name("_frameMode")
    2313                      .dwattr $C$DW$235, DW_AT_data_member_location[DW_OP_plus_uconst 0x3]
    2314                      .dwattr $C$DW$235, DW_AT_accessibility(DW_ACCESS_public)
    2315              $C$DW$236       .dwtag  DW_TAG_member
    2316                      .dwattr $C$DW$236, DW_AT_type(*$C$DW$T$49)
    2317                      .dwattr $C$DW$236, DW_AT_name("fb0Base")
    2318                      .dwattr $C$DW$236, DW_AT_TI_symbol_name("_fb0Base")
    2319                      .dwattr $C$DW$236, DW_AT_data_member_location[DW_OP_plus_uconst 0x4]
    2320                      .dwattr $C$DW$236, DW_AT_accessibility(DW_ACCESS_public)
    2321              $C$DW$237       .dwtag  DW_TAG_member
    2322                      .dwattr $C$DW$237, DW_AT_type(*$C$DW$T$49)
    2323                      .dwattr $C$DW$237, DW_AT_name("fb0Ceil")
    2324                      .dwattr $C$DW$237, DW_AT_TI_symbol_name("_fb0Ceil")
    2325                      .dwattr $C$DW$237, DW_AT_data_member_location[DW_OP_plus_uconst 0x6]
    2326                      .dwattr $C$DW$237, DW_AT_accessibility(DW_ACCESS_public)
    2327              $C$DW$238       .dwtag  DW_TAG_member
    2328                      .dwattr $C$DW$238, DW_AT_type(*$C$DW$T$49)
    2329                      .dwattr $C$DW$238, DW_AT_name("fb1Base")
    2330                      .dwattr $C$DW$238, DW_AT_TI_symbol_name("_fb1Base")
    2331                      .dwattr $C$DW$238, DW_AT_data_member_location[DW_OP_plus_uconst 0x8]
    2332                      .dwattr $C$DW$238, DW_AT_accessibility(DW_ACCESS_public)
    2333              $C$DW$239       .dwtag  DW_TAG_member
    2334                      .dwattr $C$DW$239, DW_AT_type(*$C$DW$T$49)
    2335                      .dwattr $C$DW$239, DW_AT_name("fb1Ceil")
    2336                      .dwattr $C$DW$239, DW_AT_TI_symbol_name("_fb1Ceil")
    2337                      .dwattr $C$DW$239, DW_AT_data_member_location[DW_OP_plus_uconst 0xa]
TMS320C55x Assembler PC v4.4.1 Sat Sep 29 23:09:27 2018

Tools Copyright (c) 1996-2012 Texas Instruments Incorporated
csl_lcdc_262kColorModeExample.asm                                    PAGE   58

    2338                      .dwattr $C$DW$239, DW_AT_accessibility(DW_ACCESS_public)
    2339                      .dwendtag $C$DW$T$50
    2340              
    2341              $C$DW$T$65      .dwtag  DW_TAG_typedef, DW_AT_name("CSL_LcdcConfigDma")
    2342                      .dwattr $C$DW$T$65, DW_AT_type(*$C$DW$T$50)
    2343                      .dwattr $C$DW$T$65, DW_AT_language(DW_LANG_C)
    2344              $C$DW$T$66      .dwtag  DW_TAG_pointer_type
    2345                      .dwattr $C$DW$T$66, DW_AT_type(*$C$DW$T$65)
    2346                      .dwattr $C$DW$T$66, DW_AT_address_class(0x17)
    2347              
    2348              $C$DW$T$53      .dwtag  DW_TAG_structure_type
    2349                      .dwattr $C$DW$T$53, DW_AT_byte_size(0x48)
    2350              $C$DW$240       .dwtag  DW_TAG_member
    2351                      .dwattr $C$DW$240, DW_AT_type(*$C$DW$T$20)
    2352                      .dwattr $C$DW$240, DW_AT_name("EBSR")
    2353                      .dwattr $C$DW$240, DW_AT_TI_symbol_name("_EBSR")
    2354                      .dwattr $C$DW$240, DW_AT_data_member_location[DW_OP_plus_uconst 0x0]
    2355                      .dwattr $C$DW$240, DW_AT_accessibility(DW_ACCESS_public)
    2356              $C$DW$241       .dwtag  DW_TAG_member
    2357                      .dwattr $C$DW$241, DW_AT_type(*$C$DW$T$20)
    2358                      .dwattr $C$DW$241, DW_AT_name("RSVD0")
    2359                      .dwattr $C$DW$241, DW_AT_TI_symbol_name("_RSVD0")
    2360                      .dwattr $C$DW$241, DW_AT_data_member_location[DW_OP_plus_uconst 0x1]
    2361                      .dwattr $C$DW$241, DW_AT_accessibility(DW_ACCESS_public)
    2362              $C$DW$242       .dwtag  DW_TAG_member
    2363                      .dwattr $C$DW$242, DW_AT_type(*$C$DW$T$20)
    2364                      .dwattr $C$DW$242, DW_AT_name("PCGCR1")
    2365                      .dwattr $C$DW$242, DW_AT_TI_symbol_name("_PCGCR1")
    2366                      .dwattr $C$DW$242, DW_AT_data_member_location[DW_OP_plus_uconst 0x2]
    2367                      .dwattr $C$DW$242, DW_AT_accessibility(DW_ACCESS_public)
    2368              $C$DW$243       .dwtag  DW_TAG_member
    2369                      .dwattr $C$DW$243, DW_AT_type(*$C$DW$T$20)
    2370                      .dwattr $C$DW$243, DW_AT_name("PCGCR2")
    2371                      .dwattr $C$DW$243, DW_AT_TI_symbol_name("_PCGCR2")
    2372                      .dwattr $C$DW$243, DW_AT_data_member_location[DW_OP_plus_uconst 0x3]
    2373                      .dwattr $C$DW$243, DW_AT_accessibility(DW_ACCESS_public)
    2374              $C$DW$244       .dwtag  DW_TAG_member
    2375                      .dwattr $C$DW$244, DW_AT_type(*$C$DW$T$20)
    2376                      .dwattr $C$DW$244, DW_AT_name("PSRCR")
    2377                      .dwattr $C$DW$244, DW_AT_TI_symbol_name("_PSRCR")
    2378                      .dwattr $C$DW$244, DW_AT_data_member_location[DW_OP_plus_uconst 0x4]
    2379                      .dwattr $C$DW$244, DW_AT_accessibility(DW_ACCESS_public)
    2380              $C$DW$245       .dwtag  DW_TAG_member
    2381                      .dwattr $C$DW$245, DW_AT_type(*$C$DW$T$20)
    2382                      .dwattr $C$DW$245, DW_AT_name("PRCR")
    2383                      .dwattr $C$DW$245, DW_AT_TI_symbol_name("_PRCR")
    2384                      .dwattr $C$DW$245, DW_AT_data_member_location[DW_OP_plus_uconst 0x5]
    2385                      .dwattr $C$DW$245, DW_AT_accessibility(DW_ACCESS_public)
    2386              $C$DW$246       .dwtag  DW_TAG_member
    2387                      .dwattr $C$DW$246, DW_AT_type(*$C$DW$T$51)
    2388                      .dwattr $C$DW$246, DW_AT_name("RSVD1")
    2389                      .dwattr $C$DW$246, DW_AT_TI_symbol_name("_RSVD1")
    2390                      .dwattr $C$DW$246, DW_AT_data_member_location[DW_OP_plus_uconst 0x6]
    2391                      .dwattr $C$DW$246, DW_AT_accessibility(DW_ACCESS_public)
    2392              $C$DW$247       .dwtag  DW_TAG_member
TMS320C55x Assembler PC v4.4.1 Sat Sep 29 23:09:27 2018

Tools Copyright (c) 1996-2012 Texas Instruments Incorporated
csl_lcdc_262kColorModeExample.asm                                    PAGE   59

    2393                      .dwattr $C$DW$247, DW_AT_type(*$C$DW$T$20)
    2394                      .dwattr $C$DW$247, DW_AT_name("TIAFR")
    2395                      .dwattr $C$DW$247, DW_AT_TI_symbol_name("_TIAFR")
    2396                      .dwattr $C$DW$247, DW_AT_data_member_location[DW_OP_plus_uconst 0x14]
    2397                      .dwattr $C$DW$247, DW_AT_accessibility(DW_ACCESS_public)
    2398              $C$DW$248       .dwtag  DW_TAG_member
    2399                      .dwattr $C$DW$248, DW_AT_type(*$C$DW$T$20)
    2400                      .dwattr $C$DW$248, DW_AT_name("RSVD2")
    2401                      .dwattr $C$DW$248, DW_AT_TI_symbol_name("_RSVD2")
    2402                      .dwattr $C$DW$248, DW_AT_data_member_location[DW_OP_plus_uconst 0x15]
    2403                      .dwattr $C$DW$248, DW_AT_accessibility(DW_ACCESS_public)
    2404              $C$DW$249       .dwtag  DW_TAG_member
    2405                      .dwattr $C$DW$249, DW_AT_type(*$C$DW$T$20)
    2406                      .dwattr $C$DW$249, DW_AT_name("ODSCR")
    2407                      .dwattr $C$DW$249, DW_AT_TI_symbol_name("_ODSCR")
    2408                      .dwattr $C$DW$249, DW_AT_data_member_location[DW_OP_plus_uconst 0x16]
    2409                      .dwattr $C$DW$249, DW_AT_accessibility(DW_ACCESS_public)
    2410              $C$DW$250       .dwtag  DW_TAG_member
    2411                      .dwattr $C$DW$250, DW_AT_type(*$C$DW$T$20)
    2412                      .dwattr $C$DW$250, DW_AT_name("PDINHIBR1")
    2413                      .dwattr $C$DW$250, DW_AT_TI_symbol_name("_PDINHIBR1")
    2414                      .dwattr $C$DW$250, DW_AT_data_member_location[DW_OP_plus_uconst 0x17]
    2415                      .dwattr $C$DW$250, DW_AT_accessibility(DW_ACCESS_public)
    2416              $C$DW$251       .dwtag  DW_TAG_member
    2417                      .dwattr $C$DW$251, DW_AT_type(*$C$DW$T$20)
    2418                      .dwattr $C$DW$251, DW_AT_name("PDINHIBR2")
    2419                      .dwattr $C$DW$251, DW_AT_TI_symbol_name("_PDINHIBR2")
    2420                      .dwattr $C$DW$251, DW_AT_data_member_location[DW_OP_plus_uconst 0x18]
    2421                      .dwattr $C$DW$251, DW_AT_accessibility(DW_ACCESS_public)
    2422              $C$DW$252       .dwtag  DW_TAG_member
    2423                      .dwattr $C$DW$252, DW_AT_type(*$C$DW$T$20)
    2424                      .dwattr $C$DW$252, DW_AT_name("PDINHIBR3")
    2425                      .dwattr $C$DW$252, DW_AT_TI_symbol_name("_PDINHIBR3")
    2426                      .dwattr $C$DW$252, DW_AT_data_member_location[DW_OP_plus_uconst 0x19]
    2427                      .dwattr $C$DW$252, DW_AT_accessibility(DW_ACCESS_public)
    2428              $C$DW$253       .dwtag  DW_TAG_member
    2429                      .dwattr $C$DW$253, DW_AT_type(*$C$DW$T$20)
    2430                      .dwattr $C$DW$253, DW_AT_name("DMA0CESR1")
    2431                      .dwattr $C$DW$253, DW_AT_TI_symbol_name("_DMA0CESR1")
    2432                      .dwattr $C$DW$253, DW_AT_data_member_location[DW_OP_plus_uconst 0x1a]
    2433                      .dwattr $C$DW$253, DW_AT_accessibility(DW_ACCESS_public)
    2434              $C$DW$254       .dwtag  DW_TAG_member
    2435                      .dwattr $C$DW$254, DW_AT_type(*$C$DW$T$20)
    2436                      .dwattr $C$DW$254, DW_AT_name("DMA0CESR2")
    2437                      .dwattr $C$DW$254, DW_AT_TI_symbol_name("_DMA0CESR2")
    2438                      .dwattr $C$DW$254, DW_AT_data_member_location[DW_OP_plus_uconst 0x1b]
    2439                      .dwattr $C$DW$254, DW_AT_accessibility(DW_ACCESS_public)
    2440              $C$DW$255       .dwtag  DW_TAG_member
    2441                      .dwattr $C$DW$255, DW_AT_type(*$C$DW$T$20)
    2442                      .dwattr $C$DW$255, DW_AT_name("DMA1CESR1")
    2443                      .dwattr $C$DW$255, DW_AT_TI_symbol_name("_DMA1CESR1")
    2444                      .dwattr $C$DW$255, DW_AT_data_member_location[DW_OP_plus_uconst 0x1c]
    2445                      .dwattr $C$DW$255, DW_AT_accessibility(DW_ACCESS_public)
    2446              $C$DW$256       .dwtag  DW_TAG_member
    2447                      .dwattr $C$DW$256, DW_AT_type(*$C$DW$T$20)
TMS320C55x Assembler PC v4.4.1 Sat Sep 29 23:09:27 2018

Tools Copyright (c) 1996-2012 Texas Instruments Incorporated
csl_lcdc_262kColorModeExample.asm                                    PAGE   60

    2448                      .dwattr $C$DW$256, DW_AT_name("DMA1CESR2")
    2449                      .dwattr $C$DW$256, DW_AT_TI_symbol_name("_DMA1CESR2")
    2450                      .dwattr $C$DW$256, DW_AT_data_member_location[DW_OP_plus_uconst 0x1d]
    2451                      .dwattr $C$DW$256, DW_AT_accessibility(DW_ACCESS_public)
    2452              $C$DW$257       .dwtag  DW_TAG_member
    2453                      .dwattr $C$DW$257, DW_AT_type(*$C$DW$T$20)
    2454                      .dwattr $C$DW$257, DW_AT_name("SDRAMCCR")
    2455                      .dwattr $C$DW$257, DW_AT_TI_symbol_name("_SDRAMCCR")
    2456                      .dwattr $C$DW$257, DW_AT_data_member_location[DW_OP_plus_uconst 0x1e]
    2457                      .dwattr $C$DW$257, DW_AT_accessibility(DW_ACCESS_public)
    2458              $C$DW$258       .dwtag  DW_TAG_member
    2459                      .dwattr $C$DW$258, DW_AT_type(*$C$DW$T$20)
    2460                      .dwattr $C$DW$258, DW_AT_name("CCR2")
    2461                      .dwattr $C$DW$258, DW_AT_TI_symbol_name("_CCR2")
    2462                      .dwattr $C$DW$258, DW_AT_data_member_location[DW_OP_plus_uconst 0x1f]
    2463                      .dwattr $C$DW$258, DW_AT_accessibility(DW_ACCESS_public)
    2464              $C$DW$259       .dwtag  DW_TAG_member
    2465                      .dwattr $C$DW$259, DW_AT_type(*$C$DW$T$20)
    2466                      .dwattr $C$DW$259, DW_AT_name("CGCR1")
    2467                      .dwattr $C$DW$259, DW_AT_TI_symbol_name("_CGCR1")
    2468                      .dwattr $C$DW$259, DW_AT_data_member_location[DW_OP_plus_uconst 0x20]
    2469                      .dwattr $C$DW$259, DW_AT_accessibility(DW_ACCESS_public)
    2470              $C$DW$260       .dwtag  DW_TAG_member
    2471                      .dwattr $C$DW$260, DW_AT_type(*$C$DW$T$20)
    2472                      .dwattr $C$DW$260, DW_AT_name("CGICR")
    2473                      .dwattr $C$DW$260, DW_AT_TI_symbol_name("_CGICR")
    2474                      .dwattr $C$DW$260, DW_AT_data_member_location[DW_OP_plus_uconst 0x21]
    2475                      .dwattr $C$DW$260, DW_AT_accessibility(DW_ACCESS_public)
    2476              $C$DW$261       .dwtag  DW_TAG_member
    2477                      .dwattr $C$DW$261, DW_AT_type(*$C$DW$T$20)
    2478                      .dwattr $C$DW$261, DW_AT_name("CGCR2")
    2479                      .dwattr $C$DW$261, DW_AT_TI_symbol_name("_CGCR2")
    2480                      .dwattr $C$DW$261, DW_AT_data_member_location[DW_OP_plus_uconst 0x22]
    2481                      .dwattr $C$DW$261, DW_AT_accessibility(DW_ACCESS_public)
    2482              $C$DW$262       .dwtag  DW_TAG_member
    2483                      .dwattr $C$DW$262, DW_AT_type(*$C$DW$T$20)
    2484                      .dwattr $C$DW$262, DW_AT_name("CGOCR")
    2485                      .dwattr $C$DW$262, DW_AT_TI_symbol_name("_CGOCR")
    2486                      .dwattr $C$DW$262, DW_AT_data_member_location[DW_OP_plus_uconst 0x23]
    2487                      .dwattr $C$DW$262, DW_AT_accessibility(DW_ACCESS_public)
    2488              $C$DW$263       .dwtag  DW_TAG_member
    2489                      .dwattr $C$DW$263, DW_AT_type(*$C$DW$T$20)
    2490                      .dwattr $C$DW$263, DW_AT_name("CCSSR")
    2491                      .dwattr $C$DW$263, DW_AT_TI_symbol_name("_CCSSR")
    2492                      .dwattr $C$DW$263, DW_AT_data_member_location[DW_OP_plus_uconst 0x24]
    2493                      .dwattr $C$DW$263, DW_AT_accessibility(DW_ACCESS_public)
    2494              $C$DW$264       .dwtag  DW_TAG_member
    2495                      .dwattr $C$DW$264, DW_AT_type(*$C$DW$T$20)
    2496                      .dwattr $C$DW$264, DW_AT_name("RSVD3")
    2497                      .dwattr $C$DW$264, DW_AT_TI_symbol_name("_RSVD3")
    2498                      .dwattr $C$DW$264, DW_AT_data_member_location[DW_OP_plus_uconst 0x25]
    2499                      .dwattr $C$DW$264, DW_AT_accessibility(DW_ACCESS_public)
    2500              $C$DW$265       .dwtag  DW_TAG_member
    2501                      .dwattr $C$DW$265, DW_AT_type(*$C$DW$T$20)
    2502                      .dwattr $C$DW$265, DW_AT_name("ECDR")
TMS320C55x Assembler PC v4.4.1 Sat Sep 29 23:09:27 2018

Tools Copyright (c) 1996-2012 Texas Instruments Incorporated
csl_lcdc_262kColorModeExample.asm                                    PAGE   61

    2503                      .dwattr $C$DW$265, DW_AT_TI_symbol_name("_ECDR")
    2504                      .dwattr $C$DW$265, DW_AT_data_member_location[DW_OP_plus_uconst 0x26]
    2505                      .dwattr $C$DW$265, DW_AT_accessibility(DW_ACCESS_public)
    2506              $C$DW$266       .dwtag  DW_TAG_member
    2507                      .dwattr $C$DW$266, DW_AT_type(*$C$DW$T$20)
    2508                      .dwattr $C$DW$266, DW_AT_name("RSVD4")
    2509                      .dwattr $C$DW$266, DW_AT_TI_symbol_name("_RSVD4")
    2510                      .dwattr $C$DW$266, DW_AT_data_member_location[DW_OP_plus_uconst 0x27]
    2511                      .dwattr $C$DW$266, DW_AT_accessibility(DW_ACCESS_public)
    2512              $C$DW$267       .dwtag  DW_TAG_member
    2513                      .dwattr $C$DW$267, DW_AT_type(*$C$DW$T$20)
    2514                      .dwattr $C$DW$267, DW_AT_name("RAMSLPMDCNTLR1")
    2515                      .dwattr $C$DW$267, DW_AT_TI_symbol_name("_RAMSLPMDCNTLR1")
    2516                      .dwattr $C$DW$267, DW_AT_data_member_location[DW_OP_plus_uconst 0x28]
    2517                      .dwattr $C$DW$267, DW_AT_accessibility(DW_ACCESS_public)
    2518              $C$DW$268       .dwtag  DW_TAG_member
    2519                      .dwattr $C$DW$268, DW_AT_type(*$C$DW$T$20)
    2520                      .dwattr $C$DW$268, DW_AT_name("RSVD5")
    2521                      .dwattr $C$DW$268, DW_AT_TI_symbol_name("_RSVD5")
    2522                      .dwattr $C$DW$268, DW_AT_data_member_location[DW_OP_plus_uconst 0x29]
    2523                      .dwattr $C$DW$268, DW_AT_accessibility(DW_ACCESS_public)
    2524              $C$DW$269       .dwtag  DW_TAG_member
    2525                      .dwattr $C$DW$269, DW_AT_type(*$C$DW$T$20)
    2526                      .dwattr $C$DW$269, DW_AT_name("RAMSLPMDCNTLR2")
    2527                      .dwattr $C$DW$269, DW_AT_TI_symbol_name("_RAMSLPMDCNTLR2")
    2528                      .dwattr $C$DW$269, DW_AT_data_member_location[DW_OP_plus_uconst 0x2a]
    2529                      .dwattr $C$DW$269, DW_AT_accessibility(DW_ACCESS_public)
    2530              $C$DW$270       .dwtag  DW_TAG_member
    2531                      .dwattr $C$DW$270, DW_AT_type(*$C$DW$T$20)
    2532                      .dwattr $C$DW$270, DW_AT_name("RAMSLPMDCNTLR3")
    2533                      .dwattr $C$DW$270, DW_AT_TI_symbol_name("_RAMSLPMDCNTLR3")
    2534                      .dwattr $C$DW$270, DW_AT_data_member_location[DW_OP_plus_uconst 0x2b]
    2535                      .dwattr $C$DW$270, DW_AT_accessibility(DW_ACCESS_public)
    2536              $C$DW$271       .dwtag  DW_TAG_member
    2537                      .dwattr $C$DW$271, DW_AT_type(*$C$DW$T$20)
    2538                      .dwattr $C$DW$271, DW_AT_name("RAMSLPMDCNTLR4")
    2539                      .dwattr $C$DW$271, DW_AT_TI_symbol_name("_RAMSLPMDCNTLR4")
    2540                      .dwattr $C$DW$271, DW_AT_data_member_location[DW_OP_plus_uconst 0x2c]
    2541                      .dwattr $C$DW$271, DW_AT_accessibility(DW_ACCESS_public)
    2542              $C$DW$272       .dwtag  DW_TAG_member
    2543                      .dwattr $C$DW$272, DW_AT_type(*$C$DW$T$20)
    2544                      .dwattr $C$DW$272, DW_AT_name("RAMSLPMDCNTLR5")
    2545                      .dwattr $C$DW$272, DW_AT_TI_symbol_name("_RAMSLPMDCNTLR5")
    2546                      .dwattr $C$DW$272, DW_AT_data_member_location[DW_OP_plus_uconst 0x2d]
    2547                      .dwattr $C$DW$272, DW_AT_accessibility(DW_ACCESS_public)
    2548              $C$DW$273       .dwtag  DW_TAG_member
    2549                      .dwattr $C$DW$273, DW_AT_type(*$C$DW$T$21)
    2550                      .dwattr $C$DW$273, DW_AT_name("RSVD6")
    2551                      .dwattr $C$DW$273, DW_AT_TI_symbol_name("_RSVD6")
    2552                      .dwattr $C$DW$273, DW_AT_data_member_location[DW_OP_plus_uconst 0x2e]
    2553                      .dwattr $C$DW$273, DW_AT_accessibility(DW_ACCESS_public)
    2554              $C$DW$274       .dwtag  DW_TAG_member
    2555                      .dwattr $C$DW$274, DW_AT_type(*$C$DW$T$20)
    2556                      .dwattr $C$DW$274, DW_AT_name("DMAIFR")
    2557                      .dwattr $C$DW$274, DW_AT_TI_symbol_name("_DMAIFR")
TMS320C55x Assembler PC v4.4.1 Sat Sep 29 23:09:27 2018

Tools Copyright (c) 1996-2012 Texas Instruments Incorporated
csl_lcdc_262kColorModeExample.asm                                    PAGE   62

    2558                      .dwattr $C$DW$274, DW_AT_data_member_location[DW_OP_plus_uconst 0x30]
    2559                      .dwattr $C$DW$274, DW_AT_accessibility(DW_ACCESS_public)
    2560              $C$DW$275       .dwtag  DW_TAG_member
    2561                      .dwattr $C$DW$275, DW_AT_type(*$C$DW$T$20)
    2562                      .dwattr $C$DW$275, DW_AT_name("DMAIER")
    2563                      .dwattr $C$DW$275, DW_AT_TI_symbol_name("_DMAIER")
    2564                      .dwattr $C$DW$275, DW_AT_data_member_location[DW_OP_plus_uconst 0x31]
    2565                      .dwattr $C$DW$275, DW_AT_accessibility(DW_ACCESS_public)
    2566              $C$DW$276       .dwtag  DW_TAG_member
    2567                      .dwattr $C$DW$276, DW_AT_type(*$C$DW$T$20)
    2568                      .dwattr $C$DW$276, DW_AT_name("USBSCR")
    2569                      .dwattr $C$DW$276, DW_AT_TI_symbol_name("_USBSCR")
    2570                      .dwattr $C$DW$276, DW_AT_data_member_location[DW_OP_plus_uconst 0x32]
    2571                      .dwattr $C$DW$276, DW_AT_accessibility(DW_ACCESS_public)
    2572              $C$DW$277       .dwtag  DW_TAG_member
    2573                      .dwattr $C$DW$277, DW_AT_type(*$C$DW$T$20)
    2574                      .dwattr $C$DW$277, DW_AT_name("ESCR")
    2575                      .dwattr $C$DW$277, DW_AT_TI_symbol_name("_ESCR")
    2576                      .dwattr $C$DW$277, DW_AT_data_member_location[DW_OP_plus_uconst 0x33]
    2577                      .dwattr $C$DW$277, DW_AT_accessibility(DW_ACCESS_public)
    2578              $C$DW$278       .dwtag  DW_TAG_member
    2579                      .dwattr $C$DW$278, DW_AT_type(*$C$DW$T$21)
    2580                      .dwattr $C$DW$278, DW_AT_name("RSVD7")
    2581                      .dwattr $C$DW$278, DW_AT_TI_symbol_name("_RSVD7")
    2582                      .dwattr $C$DW$278, DW_AT_data_member_location[DW_OP_plus_uconst 0x34]
    2583                      .dwattr $C$DW$278, DW_AT_accessibility(DW_ACCESS_public)
    2584              $C$DW$279       .dwtag  DW_TAG_member
    2585                      .dwattr $C$DW$279, DW_AT_type(*$C$DW$T$20)
    2586                      .dwattr $C$DW$279, DW_AT_name("DMA2CESR1")
    2587                      .dwattr $C$DW$279, DW_AT_TI_symbol_name("_DMA2CESR1")
    2588                      .dwattr $C$DW$279, DW_AT_data_member_location[DW_OP_plus_uconst 0x36]
    2589                      .dwattr $C$DW$279, DW_AT_accessibility(DW_ACCESS_public)
    2590              $C$DW$280       .dwtag  DW_TAG_member
    2591                      .dwattr $C$DW$280, DW_AT_type(*$C$DW$T$20)
    2592                      .dwattr $C$DW$280, DW_AT_name("DMA2CESR2")
    2593                      .dwattr $C$DW$280, DW_AT_TI_symbol_name("_DMA2CESR2")
    2594                      .dwattr $C$DW$280, DW_AT_data_member_location[DW_OP_plus_uconst 0x37]
    2595                      .dwattr $C$DW$280, DW_AT_accessibility(DW_ACCESS_public)
    2596              $C$DW$281       .dwtag  DW_TAG_member
    2597                      .dwattr $C$DW$281, DW_AT_type(*$C$DW$T$20)
    2598                      .dwattr $C$DW$281, DW_AT_name("DMA3CESR1")
    2599                      .dwattr $C$DW$281, DW_AT_TI_symbol_name("_DMA3CESR1")
    2600                      .dwattr $C$DW$281, DW_AT_data_member_location[DW_OP_plus_uconst 0x38]
    2601                      .dwattr $C$DW$281, DW_AT_accessibility(DW_ACCESS_public)
    2602              $C$DW$282       .dwtag  DW_TAG_member
    2603                      .dwattr $C$DW$282, DW_AT_type(*$C$DW$T$20)
    2604                      .dwattr $C$DW$282, DW_AT_name("DMA3CESR2")
    2605                      .dwattr $C$DW$282, DW_AT_TI_symbol_name("_DMA3CESR2")
    2606                      .dwattr $C$DW$282, DW_AT_data_member_location[DW_OP_plus_uconst 0x39]
    2607                      .dwattr $C$DW$282, DW_AT_accessibility(DW_ACCESS_public)
    2608              $C$DW$283       .dwtag  DW_TAG_member
    2609                      .dwattr $C$DW$283, DW_AT_type(*$C$DW$T$20)
    2610                      .dwattr $C$DW$283, DW_AT_name("CLKSTOP")
    2611                      .dwattr $C$DW$283, DW_AT_TI_symbol_name("_CLKSTOP")
    2612                      .dwattr $C$DW$283, DW_AT_data_member_location[DW_OP_plus_uconst 0x3a]
TMS320C55x Assembler PC v4.4.1 Sat Sep 29 23:09:27 2018

Tools Copyright (c) 1996-2012 Texas Instruments Incorporated
csl_lcdc_262kColorModeExample.asm                                    PAGE   63

    2613                      .dwattr $C$DW$283, DW_AT_accessibility(DW_ACCESS_public)
    2614              $C$DW$284       .dwtag  DW_TAG_member
    2615                      .dwattr $C$DW$284, DW_AT_type(*$C$DW$T$52)
    2616                      .dwattr $C$DW$284, DW_AT_name("RSVD8")
    2617                      .dwattr $C$DW$284, DW_AT_TI_symbol_name("_RSVD8")
    2618                      .dwattr $C$DW$284, DW_AT_data_member_location[DW_OP_plus_uconst 0x3b]
    2619                      .dwattr $C$DW$284, DW_AT_accessibility(DW_ACCESS_public)
    2620              $C$DW$285       .dwtag  DW_TAG_member
    2621                      .dwattr $C$DW$285, DW_AT_type(*$C$DW$T$20)
    2622                      .dwattr $C$DW$285, DW_AT_name("DIEIDR0")
    2623                      .dwattr $C$DW$285, DW_AT_TI_symbol_name("_DIEIDR0")
    2624                      .dwattr $C$DW$285, DW_AT_data_member_location[DW_OP_plus_uconst 0x40]
    2625                      .dwattr $C$DW$285, DW_AT_accessibility(DW_ACCESS_public)
    2626              $C$DW$286       .dwtag  DW_TAG_member
    2627                      .dwattr $C$DW$286, DW_AT_type(*$C$DW$T$20)
    2628                      .dwattr $C$DW$286, DW_AT_name("DIEIDR1")
    2629                      .dwattr $C$DW$286, DW_AT_TI_symbol_name("_DIEIDR1")
    2630                      .dwattr $C$DW$286, DW_AT_data_member_location[DW_OP_plus_uconst 0x41]
    2631                      .dwattr $C$DW$286, DW_AT_accessibility(DW_ACCESS_public)
    2632              $C$DW$287       .dwtag  DW_TAG_member
    2633                      .dwattr $C$DW$287, DW_AT_type(*$C$DW$T$20)
    2634                      .dwattr $C$DW$287, DW_AT_name("DIEIDR2")
    2635                      .dwattr $C$DW$287, DW_AT_TI_symbol_name("_DIEIDR2")
    2636                      .dwattr $C$DW$287, DW_AT_data_member_location[DW_OP_plus_uconst 0x42]
    2637                      .dwattr $C$DW$287, DW_AT_accessibility(DW_ACCESS_public)
    2638              $C$DW$288       .dwtag  DW_TAG_member
    2639                      .dwattr $C$DW$288, DW_AT_type(*$C$DW$T$20)
    2640                      .dwattr $C$DW$288, DW_AT_name("DIEIDR3")
    2641                      .dwattr $C$DW$288, DW_AT_TI_symbol_name("_DIEIDR3")
    2642                      .dwattr $C$DW$288, DW_AT_data_member_location[DW_OP_plus_uconst 0x43]
    2643                      .dwattr $C$DW$288, DW_AT_accessibility(DW_ACCESS_public)
    2644              $C$DW$289       .dwtag  DW_TAG_member
    2645                      .dwattr $C$DW$289, DW_AT_type(*$C$DW$T$20)
    2646                      .dwattr $C$DW$289, DW_AT_name("DIEIDR4")
    2647                      .dwattr $C$DW$289, DW_AT_TI_symbol_name("_DIEIDR4")
    2648                      .dwattr $C$DW$289, DW_AT_data_member_location[DW_OP_plus_uconst 0x44]
    2649                      .dwattr $C$DW$289, DW_AT_accessibility(DW_ACCESS_public)
    2650              $C$DW$290       .dwtag  DW_TAG_member
    2651                      .dwattr $C$DW$290, DW_AT_type(*$C$DW$T$20)
    2652                      .dwattr $C$DW$290, DW_AT_name("DIEIDR5")
    2653                      .dwattr $C$DW$290, DW_AT_TI_symbol_name("_DIEIDR5")
    2654                      .dwattr $C$DW$290, DW_AT_data_member_location[DW_OP_plus_uconst 0x45]
    2655                      .dwattr $C$DW$290, DW_AT_accessibility(DW_ACCESS_public)
    2656              $C$DW$291       .dwtag  DW_TAG_member
    2657                      .dwattr $C$DW$291, DW_AT_type(*$C$DW$T$20)
    2658                      .dwattr $C$DW$291, DW_AT_name("DIEIDR6")
    2659                      .dwattr $C$DW$291, DW_AT_TI_symbol_name("_DIEIDR6")
    2660                      .dwattr $C$DW$291, DW_AT_data_member_location[DW_OP_plus_uconst 0x46]
    2661                      .dwattr $C$DW$291, DW_AT_accessibility(DW_ACCESS_public)
    2662              $C$DW$292       .dwtag  DW_TAG_member
    2663                      .dwattr $C$DW$292, DW_AT_type(*$C$DW$T$20)
    2664                      .dwattr $C$DW$292, DW_AT_name("DIEIDR7")
    2665                      .dwattr $C$DW$292, DW_AT_TI_symbol_name("_DIEIDR7")
    2666                      .dwattr $C$DW$292, DW_AT_data_member_location[DW_OP_plus_uconst 0x47]
    2667                      .dwattr $C$DW$292, DW_AT_accessibility(DW_ACCESS_public)
TMS320C55x Assembler PC v4.4.1 Sat Sep 29 23:09:27 2018

Tools Copyright (c) 1996-2012 Texas Instruments Incorporated
csl_lcdc_262kColorModeExample.asm                                    PAGE   64

    2668                      .dwendtag $C$DW$T$53
    2669              
    2670              $C$DW$T$67      .dwtag  DW_TAG_typedef, DW_AT_name("CSL_SysRegs")
    2671                      .dwattr $C$DW$T$67, DW_AT_type(*$C$DW$T$53)
    2672                      .dwattr $C$DW$T$67, DW_AT_language(DW_LANG_C)
    2673              $C$DW$293       .dwtag  DW_TAG_TI_far_type
    2674                      .dwattr $C$DW$293, DW_AT_type(*$C$DW$T$67)
    2675              $C$DW$294       .dwtag  DW_TAG_TI_ioport_type
    2676                      .dwattr $C$DW$294, DW_AT_type(*$C$DW$293)
    2677              $C$DW$T$68      .dwtag  DW_TAG_volatile_type
    2678                      .dwattr $C$DW$T$68, DW_AT_type(*$C$DW$294)
    2679              $C$DW$T$69      .dwtag  DW_TAG_pointer_type
    2680                      .dwattr $C$DW$T$69, DW_AT_type(*$C$DW$T$68)
    2681                      .dwattr $C$DW$T$69, DW_AT_address_class(0x10)
    2682              $C$DW$T$70      .dwtag  DW_TAG_typedef, DW_AT_name("CSL_SysRegsOvly")
    2683                      .dwattr $C$DW$T$70, DW_AT_type(*$C$DW$T$69)
    2684                      .dwattr $C$DW$T$70, DW_AT_language(DW_LANG_C)
    2685              
    2686              $C$DW$T$55      .dwtag  DW_TAG_structure_type
    2687                      .dwattr $C$DW$T$55, DW_AT_byte_size(0x12)
    2688              $C$DW$295       .dwtag  DW_TAG_member
    2689                      .dwattr $C$DW$295, DW_AT_type(*$C$DW$T$54)
    2690                      .dwattr $C$DW$295, DW_AT_name("RSVD0")
    2691                      .dwattr $C$DW$295, DW_AT_TI_symbol_name("_RSVD0")
    2692                      .dwattr $C$DW$295, DW_AT_data_member_location[DW_OP_plus_uconst 0x0]
    2693                      .dwattr $C$DW$295, DW_AT_accessibility(DW_ACCESS_public)
    2694              $C$DW$296       .dwtag  DW_TAG_member
    2695                      .dwattr $C$DW$296, DW_AT_type(*$C$DW$T$20)
    2696                      .dwattr $C$DW$296, DW_AT_name("IODIR1")
    2697                      .dwattr $C$DW$296, DW_AT_TI_symbol_name("_IODIR1")
    2698                      .dwattr $C$DW$296, DW_AT_data_member_location[DW_OP_plus_uconst 0x6]
    2699                      .dwattr $C$DW$296, DW_AT_accessibility(DW_ACCESS_public)
    2700              $C$DW$297       .dwtag  DW_TAG_member
    2701                      .dwattr $C$DW$297, DW_AT_type(*$C$DW$T$20)
    2702                      .dwattr $C$DW$297, DW_AT_name("IODIR2")
    2703                      .dwattr $C$DW$297, DW_AT_TI_symbol_name("_IODIR2")
    2704                      .dwattr $C$DW$297, DW_AT_data_member_location[DW_OP_plus_uconst 0x7]
    2705                      .dwattr $C$DW$297, DW_AT_accessibility(DW_ACCESS_public)
    2706              $C$DW$298       .dwtag  DW_TAG_member
    2707                      .dwattr $C$DW$298, DW_AT_type(*$C$DW$T$20)
    2708                      .dwattr $C$DW$298, DW_AT_name("IOINDATA1")
    2709                      .dwattr $C$DW$298, DW_AT_TI_symbol_name("_IOINDATA1")
    2710                      .dwattr $C$DW$298, DW_AT_data_member_location[DW_OP_plus_uconst 0x8]
    2711                      .dwattr $C$DW$298, DW_AT_accessibility(DW_ACCESS_public)
    2712              $C$DW$299       .dwtag  DW_TAG_member
    2713                      .dwattr $C$DW$299, DW_AT_type(*$C$DW$T$20)
    2714                      .dwattr $C$DW$299, DW_AT_name("IOINDATA2")
    2715                      .dwattr $C$DW$299, DW_AT_TI_symbol_name("_IOINDATA2")
    2716                      .dwattr $C$DW$299, DW_AT_data_member_location[DW_OP_plus_uconst 0x9]
    2717                      .dwattr $C$DW$299, DW_AT_accessibility(DW_ACCESS_public)
    2718              $C$DW$300       .dwtag  DW_TAG_member
    2719                      .dwattr $C$DW$300, DW_AT_type(*$C$DW$T$20)
    2720                      .dwattr $C$DW$300, DW_AT_name("IOOUTDATA1")
    2721                      .dwattr $C$DW$300, DW_AT_TI_symbol_name("_IOOUTDATA1")
    2722                      .dwattr $C$DW$300, DW_AT_data_member_location[DW_OP_plus_uconst 0xa]
TMS320C55x Assembler PC v4.4.1 Sat Sep 29 23:09:27 2018

Tools Copyright (c) 1996-2012 Texas Instruments Incorporated
csl_lcdc_262kColorModeExample.asm                                    PAGE   65

    2723                      .dwattr $C$DW$300, DW_AT_accessibility(DW_ACCESS_public)
    2724              $C$DW$301       .dwtag  DW_TAG_member
    2725                      .dwattr $C$DW$301, DW_AT_type(*$C$DW$T$20)
    2726                      .dwattr $C$DW$301, DW_AT_name("IOOUTDATA2")
    2727                      .dwattr $C$DW$301, DW_AT_TI_symbol_name("_IOOUTDATA2")
    2728                      .dwattr $C$DW$301, DW_AT_data_member_location[DW_OP_plus_uconst 0xb]
    2729                      .dwattr $C$DW$301, DW_AT_accessibility(DW_ACCESS_public)
    2730              $C$DW$302       .dwtag  DW_TAG_member
    2731                      .dwattr $C$DW$302, DW_AT_type(*$C$DW$T$20)
    2732                      .dwattr $C$DW$302, DW_AT_name("IOINTEDG1")
    2733                      .dwattr $C$DW$302, DW_AT_TI_symbol_name("_IOINTEDG1")
    2734                      .dwattr $C$DW$302, DW_AT_data_member_location[DW_OP_plus_uconst 0xc]
    2735                      .dwattr $C$DW$302, DW_AT_accessibility(DW_ACCESS_public)
    2736              $C$DW$303       .dwtag  DW_TAG_member
    2737                      .dwattr $C$DW$303, DW_AT_type(*$C$DW$T$20)
    2738                      .dwattr $C$DW$303, DW_AT_name("IOINTEDG2")
    2739                      .dwattr $C$DW$303, DW_AT_TI_symbol_name("_IOINTEDG2")
    2740                      .dwattr $C$DW$303, DW_AT_data_member_location[DW_OP_plus_uconst 0xd]
    2741                      .dwattr $C$DW$303, DW_AT_accessibility(DW_ACCESS_public)
    2742              $C$DW$304       .dwtag  DW_TAG_member
    2743                      .dwattr $C$DW$304, DW_AT_type(*$C$DW$T$20)
    2744                      .dwattr $C$DW$304, DW_AT_name("IOINTEN1")
    2745                      .dwattr $C$DW$304, DW_AT_TI_symbol_name("_IOINTEN1")
    2746                      .dwattr $C$DW$304, DW_AT_data_member_location[DW_OP_plus_uconst 0xe]
    2747                      .dwattr $C$DW$304, DW_AT_accessibility(DW_ACCESS_public)
    2748              $C$DW$305       .dwtag  DW_TAG_member
    2749                      .dwattr $C$DW$305, DW_AT_type(*$C$DW$T$20)
    2750                      .dwattr $C$DW$305, DW_AT_name("IOINTEN2")
    2751                      .dwattr $C$DW$305, DW_AT_TI_symbol_name("_IOINTEN2")
    2752                      .dwattr $C$DW$305, DW_AT_data_member_location[DW_OP_plus_uconst 0xf]
    2753                      .dwattr $C$DW$305, DW_AT_accessibility(DW_ACCESS_public)
    2754              $C$DW$306       .dwtag  DW_TAG_member
    2755                      .dwattr $C$DW$306, DW_AT_type(*$C$DW$T$20)
    2756                      .dwattr $C$DW$306, DW_AT_name("IOINTFLG1")
    2757                      .dwattr $C$DW$306, DW_AT_TI_symbol_name("_IOINTFLG1")
    2758                      .dwattr $C$DW$306, DW_AT_data_member_location[DW_OP_plus_uconst 0x10]
    2759                      .dwattr $C$DW$306, DW_AT_accessibility(DW_ACCESS_public)
    2760              $C$DW$307       .dwtag  DW_TAG_member
    2761                      .dwattr $C$DW$307, DW_AT_type(*$C$DW$T$20)
    2762                      .dwattr $C$DW$307, DW_AT_name("IOINTFLG2")
    2763                      .dwattr $C$DW$307, DW_AT_TI_symbol_name("_IOINTFLG2")
    2764                      .dwattr $C$DW$307, DW_AT_data_member_location[DW_OP_plus_uconst 0x11]
    2765                      .dwattr $C$DW$307, DW_AT_accessibility(DW_ACCESS_public)
    2766                      .dwendtag $C$DW$T$55
    2767              
    2768              $C$DW$T$71      .dwtag  DW_TAG_typedef, DW_AT_name("CSL_GpioRegs")
    2769                      .dwattr $C$DW$T$71, DW_AT_type(*$C$DW$T$55)
    2770                      .dwattr $C$DW$T$71, DW_AT_language(DW_LANG_C)
    2771              $C$DW$308       .dwtag  DW_TAG_TI_far_type
    2772                      .dwattr $C$DW$308, DW_AT_type(*$C$DW$T$71)
    2773              $C$DW$309       .dwtag  DW_TAG_TI_ioport_type
    2774                      .dwattr $C$DW$309, DW_AT_type(*$C$DW$308)
    2775              $C$DW$T$72      .dwtag  DW_TAG_volatile_type
    2776                      .dwattr $C$DW$T$72, DW_AT_type(*$C$DW$309)
    2777              $C$DW$T$73      .dwtag  DW_TAG_pointer_type
TMS320C55x Assembler PC v4.4.1 Sat Sep 29 23:09:27 2018

Tools Copyright (c) 1996-2012 Texas Instruments Incorporated
csl_lcdc_262kColorModeExample.asm                                    PAGE   66

    2778                      .dwattr $C$DW$T$73, DW_AT_type(*$C$DW$T$72)
    2779                      .dwattr $C$DW$T$73, DW_AT_address_class(0x10)
    2780              $C$DW$T$74      .dwtag  DW_TAG_typedef, DW_AT_name("CSL_GpioRegsOvly")
    2781                      .dwattr $C$DW$T$74, DW_AT_type(*$C$DW$T$73)
    2782                      .dwattr $C$DW$T$74, DW_AT_language(DW_LANG_C)
    2783              
    2784              $C$DW$T$62      .dwtag  DW_TAG_structure_type
    2785                      .dwattr $C$DW$T$62, DW_AT_name("CSL_LcdcObj")
    2786                      .dwattr $C$DW$T$62, DW_AT_byte_size(0x02)
    2787              $C$DW$310       .dwtag  DW_TAG_member
    2788                      .dwattr $C$DW$310, DW_AT_type(*$C$DW$T$59)
    2789                      .dwattr $C$DW$310, DW_AT_name("regs")
    2790                      .dwattr $C$DW$310, DW_AT_TI_symbol_name("_regs")
    2791                      .dwattr $C$DW$310, DW_AT_data_member_location[DW_OP_plus_uconst 0x0]
    2792                      .dwattr $C$DW$310, DW_AT_accessibility(DW_ACCESS_public)
    2793              $C$DW$311       .dwtag  DW_TAG_member
    2794                      .dwattr $C$DW$311, DW_AT_type(*$C$DW$T$61)
    2795                      .dwattr $C$DW$311, DW_AT_name("perNum")
    2796                      .dwattr $C$DW$311, DW_AT_TI_symbol_name("_perNum")
    2797                      .dwattr $C$DW$311, DW_AT_data_member_location[DW_OP_plus_uconst 0x1]
    2798                      .dwattr $C$DW$311, DW_AT_accessibility(DW_ACCESS_public)
    2799                      .dwendtag $C$DW$T$62
    2800              
    2801              $C$DW$T$75      .dwtag  DW_TAG_typedef, DW_AT_name("CSL_LcdcObj")
    2802                      .dwattr $C$DW$T$75, DW_AT_type(*$C$DW$T$62)
    2803                      .dwattr $C$DW$T$75, DW_AT_language(DW_LANG_C)
    2804              $C$DW$T$76      .dwtag  DW_TAG_pointer_type
    2805                      .dwattr $C$DW$T$76, DW_AT_type(*$C$DW$T$75)
    2806                      .dwattr $C$DW$T$76, DW_AT_address_class(0x17)
    2807              $C$DW$T$77      .dwtag  DW_TAG_typedef, DW_AT_name("CSL_LcdcHandle")
    2808                      .dwattr $C$DW$T$77, DW_AT_type(*$C$DW$T$76)
    2809                      .dwattr $C$DW$T$77, DW_AT_language(DW_LANG_C)
    2810              $C$DW$T$3       .dwtag  DW_TAG_pointer_type
    2811                      .dwattr $C$DW$T$3, DW_AT_address_class(0x17)
    2812              
    2813              $C$DW$T$92      .dwtag  DW_TAG_subroutine_type
    2814                      .dwattr $C$DW$T$92, DW_AT_language(DW_LANG_C)
    2815              $C$DW$T$93      .dwtag  DW_TAG_pointer_type
    2816                      .dwattr $C$DW$T$93, DW_AT_type(*$C$DW$T$92)
    2817                      .dwattr $C$DW$T$93, DW_AT_address_class(0x20)
    2818              $C$DW$T$94      .dwtag  DW_TAG_typedef, DW_AT_name("IRQ_IsrPtr")
    2819                      .dwattr $C$DW$T$94, DW_AT_type(*$C$DW$T$93)
    2820                      .dwattr $C$DW$T$94, DW_AT_language(DW_LANG_C)
    2821              $C$DW$T$4       .dwtag  DW_TAG_base_type
    2822                      .dwattr $C$DW$T$4, DW_AT_encoding(DW_ATE_boolean)
    2823                      .dwattr $C$DW$T$4, DW_AT_name("bool")
    2824                      .dwattr $C$DW$T$4, DW_AT_byte_size(0x01)
    2825              $C$DW$T$5       .dwtag  DW_TAG_base_type
    2826                      .dwattr $C$DW$T$5, DW_AT_encoding(DW_ATE_signed_char)
    2827                      .dwattr $C$DW$T$5, DW_AT_name("signed char")
    2828                      .dwattr $C$DW$T$5, DW_AT_byte_size(0x01)
    2829              $C$DW$T$6       .dwtag  DW_TAG_base_type
    2830                      .dwattr $C$DW$T$6, DW_AT_encoding(DW_ATE_unsigned_char)
    2831                      .dwattr $C$DW$T$6, DW_AT_name("unsigned char")
    2832                      .dwattr $C$DW$T$6, DW_AT_byte_size(0x01)
TMS320C55x Assembler PC v4.4.1 Sat Sep 29 23:09:27 2018

Tools Copyright (c) 1996-2012 Texas Instruments Incorporated
csl_lcdc_262kColorModeExample.asm                                    PAGE   67

    2833              $C$DW$T$7       .dwtag  DW_TAG_base_type
    2834                      .dwattr $C$DW$T$7, DW_AT_encoding(DW_ATE_signed_char)
    2835                      .dwattr $C$DW$T$7, DW_AT_name("wchar_t")
    2836                      .dwattr $C$DW$T$7, DW_AT_byte_size(0x01)
    2837              $C$DW$T$8       .dwtag  DW_TAG_base_type
    2838                      .dwattr $C$DW$T$8, DW_AT_encoding(DW_ATE_signed)
    2839                      .dwattr $C$DW$T$8, DW_AT_name("short")
    2840                      .dwattr $C$DW$T$8, DW_AT_byte_size(0x01)
    2841              $C$DW$T$60      .dwtag  DW_TAG_typedef, DW_AT_name("Int16")
    2842                      .dwattr $C$DW$T$60, DW_AT_type(*$C$DW$T$8)
    2843                      .dwattr $C$DW$T$60, DW_AT_language(DW_LANG_C)
    2844              $C$DW$T$61      .dwtag  DW_TAG_typedef, DW_AT_name("CSL_InstNum")
    2845                      .dwattr $C$DW$T$61, DW_AT_type(*$C$DW$T$60)
    2846                      .dwattr $C$DW$T$61, DW_AT_language(DW_LANG_C)
    2847              $C$DW$T$78      .dwtag  DW_TAG_typedef, DW_AT_name("CSL_Status")
    2848                      .dwattr $C$DW$T$78, DW_AT_type(*$C$DW$T$60)
    2849                      .dwattr $C$DW$T$78, DW_AT_language(DW_LANG_C)
    2850              $C$DW$T$79      .dwtag  DW_TAG_pointer_type
    2851                      .dwattr $C$DW$T$79, DW_AT_type(*$C$DW$T$78)
    2852                      .dwattr $C$DW$T$79, DW_AT_address_class(0x17)
    2853              $C$DW$312       .dwtag  DW_TAG_TI_far_type
    2854                      .dwattr $C$DW$312, DW_AT_type(*$C$DW$T$60)
    2855              $C$DW$T$107     .dwtag  DW_TAG_volatile_type
    2856                      .dwattr $C$DW$T$107, DW_AT_type(*$C$DW$312)
    2857              $C$DW$T$9       .dwtag  DW_TAG_base_type
    2858                      .dwattr $C$DW$T$9, DW_AT_encoding(DW_ATE_unsigned)
    2859                      .dwattr $C$DW$T$9, DW_AT_name("unsigned short")
    2860                      .dwattr $C$DW$T$9, DW_AT_byte_size(0x01)
    2861              $C$DW$T$19      .dwtag  DW_TAG_typedef, DW_AT_name("Uint16")
    2862                      .dwattr $C$DW$T$19, DW_AT_type(*$C$DW$T$9)
    2863                      .dwattr $C$DW$T$19, DW_AT_language(DW_LANG_C)
    2864              $C$DW$T$31      .dwtag  DW_TAG_typedef, DW_AT_name("CSL_BitMask16")
    2865                      .dwattr $C$DW$T$31, DW_AT_type(*$C$DW$T$19)
    2866                      .dwattr $C$DW$T$31, DW_AT_language(DW_LANG_C)
    2867              $C$DW$313       .dwtag  DW_TAG_TI_far_type
    2868                      .dwattr $C$DW$313, DW_AT_type(*$C$DW$T$19)
    2869              $C$DW$T$20      .dwtag  DW_TAG_volatile_type
    2870                      .dwattr $C$DW$T$20, DW_AT_type(*$C$DW$313)
    2871              
    2872              $C$DW$T$21      .dwtag  DW_TAG_array_type
    2873                      .dwattr $C$DW$T$21, DW_AT_type(*$C$DW$T$20)
    2874                      .dwattr $C$DW$T$21, DW_AT_language(DW_LANG_C)
    2875                      .dwattr $C$DW$T$21, DW_AT_byte_size(0x02)
    2876              $C$DW$314       .dwtag  DW_TAG_subrange_type
    2877                      .dwattr $C$DW$314, DW_AT_upper_bound(0x01)
    2878                      .dwendtag $C$DW$T$21
    2879              
    2880              
    2881              $C$DW$T$22      .dwtag  DW_TAG_array_type
    2882                      .dwattr $C$DW$T$22, DW_AT_type(*$C$DW$T$20)
    2883                      .dwattr $C$DW$T$22, DW_AT_language(DW_LANG_C)
    2884                      .dwattr $C$DW$T$22, DW_AT_byte_size(0x03)
    2885              $C$DW$315       .dwtag  DW_TAG_subrange_type
    2886                      .dwattr $C$DW$315, DW_AT_upper_bound(0x02)
    2887                      .dwendtag $C$DW$T$22
TMS320C55x Assembler PC v4.4.1 Sat Sep 29 23:09:27 2018

Tools Copyright (c) 1996-2012 Texas Instruments Incorporated
csl_lcdc_262kColorModeExample.asm                                    PAGE   68

    2888              
    2889              
    2890              $C$DW$T$23      .dwtag  DW_TAG_array_type
    2891                      .dwattr $C$DW$T$23, DW_AT_type(*$C$DW$T$20)
    2892                      .dwattr $C$DW$T$23, DW_AT_language(DW_LANG_C)
    2893                      .dwattr $C$DW$T$23, DW_AT_byte_size(0x1b)
    2894              $C$DW$316       .dwtag  DW_TAG_subrange_type
    2895                      .dwattr $C$DW$316, DW_AT_upper_bound(0x1a)
    2896                      .dwendtag $C$DW$T$23
    2897              
    2898              
    2899              $C$DW$T$51      .dwtag  DW_TAG_array_type
    2900                      .dwattr $C$DW$T$51, DW_AT_type(*$C$DW$T$20)
    2901                      .dwattr $C$DW$T$51, DW_AT_language(DW_LANG_C)
    2902                      .dwattr $C$DW$T$51, DW_AT_byte_size(0x0e)
    2903              $C$DW$317       .dwtag  DW_TAG_subrange_type
    2904                      .dwattr $C$DW$317, DW_AT_upper_bound(0x0d)
    2905                      .dwendtag $C$DW$T$51
    2906              
    2907              
    2908              $C$DW$T$52      .dwtag  DW_TAG_array_type
    2909                      .dwattr $C$DW$T$52, DW_AT_type(*$C$DW$T$20)
    2910                      .dwattr $C$DW$T$52, DW_AT_language(DW_LANG_C)
    2911                      .dwattr $C$DW$T$52, DW_AT_byte_size(0x05)
    2912              $C$DW$318       .dwtag  DW_TAG_subrange_type
    2913                      .dwattr $C$DW$318, DW_AT_upper_bound(0x04)
    2914                      .dwendtag $C$DW$T$52
    2915              
    2916              
    2917              $C$DW$T$54      .dwtag  DW_TAG_array_type
    2918                      .dwattr $C$DW$T$54, DW_AT_type(*$C$DW$T$20)
    2919                      .dwattr $C$DW$T$54, DW_AT_language(DW_LANG_C)
    2920                      .dwattr $C$DW$T$54, DW_AT_byte_size(0x06)
    2921              $C$DW$319       .dwtag  DW_TAG_subrange_type
    2922                      .dwattr $C$DW$319, DW_AT_upper_bound(0x05)
    2923                      .dwendtag $C$DW$T$54
    2924              
    2925              
    2926              $C$DW$T$111     .dwtag  DW_TAG_array_type
    2927                      .dwattr $C$DW$T$111, DW_AT_type(*$C$DW$T$19)
    2928                      .dwattr $C$DW$T$111, DW_AT_language(DW_LANG_C)
    2929                      .dwattr $C$DW$T$111, DW_AT_byte_size(0x5460)
    2930              $C$DW$320       .dwtag  DW_TAG_subrange_type
    2931                      .dwattr $C$DW$320, DW_AT_upper_bound(0x545f)
    2932                      .dwendtag $C$DW$T$111
    2933              
    2934              $C$DW$T$10      .dwtag  DW_TAG_base_type
    2935                      .dwattr $C$DW$T$10, DW_AT_encoding(DW_ATE_signed)
    2936                      .dwattr $C$DW$T$10, DW_AT_name("int")
    2937                      .dwattr $C$DW$T$10, DW_AT_byte_size(0x01)
    2938              $C$DW$T$114     .dwtag  DW_TAG_typedef, DW_AT_name("Bool")
    2939                      .dwattr $C$DW$T$114, DW_AT_type(*$C$DW$T$10)
    2940                      .dwattr $C$DW$T$114, DW_AT_language(DW_LANG_C)
    2941              $C$DW$T$11      .dwtag  DW_TAG_base_type
    2942                      .dwattr $C$DW$T$11, DW_AT_encoding(DW_ATE_unsigned)
TMS320C55x Assembler PC v4.4.1 Sat Sep 29 23:09:27 2018

Tools Copyright (c) 1996-2012 Texas Instruments Incorporated
csl_lcdc_262kColorModeExample.asm                                    PAGE   69

    2943                      .dwattr $C$DW$T$11, DW_AT_name("unsigned int")
    2944                      .dwattr $C$DW$T$11, DW_AT_byte_size(0x01)
    2945              $C$DW$T$12      .dwtag  DW_TAG_base_type
    2946                      .dwattr $C$DW$T$12, DW_AT_encoding(DW_ATE_signed)
    2947                      .dwattr $C$DW$T$12, DW_AT_name("long")
    2948                      .dwattr $C$DW$T$12, DW_AT_byte_size(0x02)
    2949              $C$DW$T$13      .dwtag  DW_TAG_base_type
    2950                      .dwattr $C$DW$T$13, DW_AT_encoding(DW_ATE_unsigned)
    2951                      .dwattr $C$DW$T$13, DW_AT_name("unsigned long")
    2952                      .dwattr $C$DW$T$13, DW_AT_byte_size(0x02)
    2953              $C$DW$T$49      .dwtag  DW_TAG_typedef, DW_AT_name("Uint32")
    2954                      .dwattr $C$DW$T$49, DW_AT_type(*$C$DW$T$13)
    2955                      .dwattr $C$DW$T$49, DW_AT_language(DW_LANG_C)
    2956              $C$DW$T$14      .dwtag  DW_TAG_base_type
    2957                      .dwattr $C$DW$T$14, DW_AT_encoding(DW_ATE_signed)
    2958                      .dwattr $C$DW$T$14, DW_AT_name("long long")
    2959                      .dwattr $C$DW$T$14, DW_AT_byte_size(0x04)
    2960                      .dwattr $C$DW$T$14, DW_AT_bit_size(0x28)
    2961                      .dwattr $C$DW$T$14, DW_AT_bit_offset(0x18)
    2962              $C$DW$T$15      .dwtag  DW_TAG_base_type
    2963                      .dwattr $C$DW$T$15, DW_AT_encoding(DW_ATE_unsigned)
    2964                      .dwattr $C$DW$T$15, DW_AT_name("unsigned long long")
    2965                      .dwattr $C$DW$T$15, DW_AT_byte_size(0x04)
    2966                      .dwattr $C$DW$T$15, DW_AT_bit_size(0x28)
    2967                      .dwattr $C$DW$T$15, DW_AT_bit_offset(0x18)
    2968              $C$DW$T$16      .dwtag  DW_TAG_base_type
    2969                      .dwattr $C$DW$T$16, DW_AT_encoding(DW_ATE_float)
    2970                      .dwattr $C$DW$T$16, DW_AT_name("float")
    2971                      .dwattr $C$DW$T$16, DW_AT_byte_size(0x02)
    2972              $C$DW$T$17      .dwtag  DW_TAG_base_type
    2973                      .dwattr $C$DW$T$17, DW_AT_encoding(DW_ATE_float)
    2974                      .dwattr $C$DW$T$17, DW_AT_name("double")
    2975                      .dwattr $C$DW$T$17, DW_AT_byte_size(0x02)
    2976              $C$DW$T$18      .dwtag  DW_TAG_base_type
    2977                      .dwattr $C$DW$T$18, DW_AT_encoding(DW_ATE_float)
    2978                      .dwattr $C$DW$T$18, DW_AT_name("long double")
    2979                      .dwattr $C$DW$T$18, DW_AT_byte_size(0x02)
    2980              $C$DW$T$88      .dwtag  DW_TAG_base_type
    2981                      .dwattr $C$DW$T$88, DW_AT_encoding(DW_ATE_signed_char)
    2982                      .dwattr $C$DW$T$88, DW_AT_name("signed char")
    2983                      .dwattr $C$DW$T$88, DW_AT_byte_size(0x01)
    2984              $C$DW$T$89      .dwtag  DW_TAG_pointer_type
    2985                      .dwattr $C$DW$T$89, DW_AT_type(*$C$DW$T$88)
    2986                      .dwattr $C$DW$T$89, DW_AT_address_class(0x17)
    2987              $C$DW$321       .dwtag  DW_TAG_TI_far_type
    2988                      .dwattr $C$DW$321, DW_AT_type(*$C$DW$T$88)
    2989              $C$DW$T$117     .dwtag  DW_TAG_const_type
    2990                      .dwattr $C$DW$T$117, DW_AT_type(*$C$DW$321)
    2991              $C$DW$T$118     .dwtag  DW_TAG_pointer_type
    2992                      .dwattr $C$DW$T$118, DW_AT_type(*$C$DW$T$117)
    2993                      .dwattr $C$DW$T$118, DW_AT_address_class(0x17)
    2994                      .dwattr $C$DW$CU, DW_AT_language(DW_LANG_C)
    2995              
    2996              ;***************************************************************
    2997              ;* DWARF CIE ENTRIES                                           *
TMS320C55x Assembler PC v4.4.1 Sat Sep 29 23:09:27 2018

Tools Copyright (c) 1996-2012 Texas Instruments Incorporated
csl_lcdc_262kColorModeExample.asm                                    PAGE   70

    2998              ;***************************************************************
    2999              
    3000              $C$DW$CIE       .dwcie 91
    3001                      .dwcfi  cfa_register, 36
    3002                      .dwcfi  cfa_offset, 0
    3003                      .dwcfi  undefined, 0
    3004                      .dwcfi  undefined, 1
    3005                      .dwcfi  undefined, 2
    3006                      .dwcfi  undefined, 3
    3007                      .dwcfi  undefined, 4
    3008                      .dwcfi  undefined, 5
    3009                      .dwcfi  undefined, 6
    3010                      .dwcfi  undefined, 7
    3011                      .dwcfi  undefined, 8
    3012                      .dwcfi  undefined, 9
    3013                      .dwcfi  undefined, 10
    3014                      .dwcfi  undefined, 11
    3015                      .dwcfi  undefined, 12
    3016                      .dwcfi  undefined, 13
    3017                      .dwcfi  same_value, 14
    3018                      .dwcfi  same_value, 15
    3019                      .dwcfi  undefined, 16
    3020                      .dwcfi  undefined, 17
    3021                      .dwcfi  undefined, 18
    3022                      .dwcfi  undefined, 19
    3023                      .dwcfi  undefined, 20
    3024                      .dwcfi  undefined, 21
    3025                      .dwcfi  undefined, 22
    3026                      .dwcfi  undefined, 23
