TMS320C55x Assembler PC v4.4.1 Sun Oct 07 10:05:05 2018

Tools Copyright (c) 1996-2012 Texas Instruments Incorporated
main.asm                                                             PAGE    1

    4763              ; Temporary Registers Used: None
       1              ;*******************************************************************************
       2              ;* TMS320C55x C/C++ Codegen                                          PC v4.4.1 *
       3              ;* Date/Time created: Sun Oct 07 10:05:05 2018                                 *
       4              ;*******************************************************************************
       5                      .compiler_opts --hll_source=on --mem_model:code=flat --mem_model:data=large --object_format=coff --si
       6                      .mmregs
       7                      .cpl_on
       8                      .arms_on
       9                      .c54cm_off
      10                      .asg AR6, FP
      11                      .asg XAR6, XFP
      12                      .asg DPH, MDP
      13                      .model call=c55_std
      14                      .model mem=large
      15                      .noremark 5002  ; code respects overwrite rules
      16              ;*******************************************************************************
      17              ;* GLOBAL FILE PARAMETERS                                                      *
      18              ;*                                                                             *
      19              ;*   Architecture       : TMS320C55x                                           *
      20              ;*   Optimizing for     : Speed                                                *
      21              ;*   Memory             : Large Model (23-Bit Data Pointers)                   *
      22              ;*   Calls              : Normal Library ASM calls                             *
      23              ;*   Debug Info         : Standard TI Debug Information                        *
      24              ;*******************************************************************************
      25              
      26              $C$DW$CU        .dwtag  DW_TAG_compile_unit
      27                      .dwattr $C$DW$CU, DW_AT_name("../FreeRTOS/Demo/c5515_CCS/main.c")
      28                      .dwattr $C$DW$CU, DW_AT_producer("TMS320C55x C/C++ Codegen PC v4.4.1 Copyright (c) 1996-2012 Texas In
      29                      .dwattr $C$DW$CU, DW_AT_TI_version(0x01)
      30                      .dwattr $C$DW$CU, DW_AT_comp_dir("F:\eZdsp_DBG\tmp1\c55x-sim2\foo\Debug")
      31              ;******************************************************************************
      32              ;* CINIT RECORDS                                                              *
      33              ;******************************************************************************
      34 000000               .sect   ".cinit"
      35                      .align  1
      36 000000 0001          .field          1,16
      37 000001 0000-         .field          _fSineWave+0,24
         000002 0000 
      38 000002 0000          .field          0,8
      39 000003 0000          .field  0,16                    ; _fSineWave @ 0
      40              
      41 000004               .sect   ".cinit"
      42                      .align  1
      43 000004 0001          .field          1,16
      44 000005 0000-         .field          _f1KToneOn+0,24
         000006 0100 
      45 000006 0100          .field          0,8
      46 000007 0000          .field  0,16                    ; _f1KToneOn @ 0
      47              
      48 000008               .sect   ".cinit"
      49                      .align  1
      50 000008 0001          .field          1,16
      51 000009 0000-         .field          _f2KToneOn+0,24
         00000a 0200 
TMS320C55x Assembler PC v4.4.1 Sun Oct 07 10:05:05 2018

Tools Copyright (c) 1996-2012 Texas Instruments Incorporated
main.asm                                                             PAGE    2

      52 00000a 0200          .field          0,8
      53 00000b 0000          .field  0,16                    ; _f2KToneOn @ 0
      54              
      55 00000c               .sect   ".cinit"
      56                      .align  1
      57 00000c 0002          .field          2,16
      58 00000d 0000-         .field          _led_tsks_running+0,24
         00000e 0400 
      59 00000e 0400          .field          0,8
      60 00000f 0000          .field  0,32                    ; _led_tsks_running @ 0
         000010 0000 
      61              
      62 000011               .sect   ".cinit"
      63                      .align  1
      64 000011 0002          .field          2,16
      65 000012 0000-         .field          _xSemaphoreR+0,24
         000013 1C00 
      66 000013 1C00          .field          0,8
      67 000014 0000          .field  0,32                    ; _xSemaphoreR @ 0
         000015 0000 
      68              
      69 000016               .sect   ".cinit"
      70                      .align  1
      71 000016 0002          .field          2,16
      72 000017 0000-         .field          _xSemaphoreB+0,24
         000018 1E00 
      73 000018 1E00          .field          0,8
      74 000019 0000          .field  0,32                    ; _xSemaphoreB @ 0
         00001a 0000 
      75              
      76 00001b               .sect   ".cinit"
      77                      .align  1
      78 00001b 0002          .field          2,16
      79 00001c 0000-         .field          _xSemaphoreY+0,24
         00001d 2000 
      80 00001d 2000          .field          0,8
      81 00001e 0000          .field  0,32                    ; _xSemaphoreY @ 0
         00001f 0000 
      82              
      83 000020               .sect   ".cinit"
      84                      .align  1
      85 000020 0002          .field          2,16
      86 000021 0000-         .field          _xSemaphoreO+0,24
         000022 2200 
      87 000022 2200          .field          0,8
      88 000023 0000          .field  0,32                    ; _xSemaphoreO @ 0
         000024 0000 
      89              
      90 000025               .sect   ".cinit"
      91                      .align  1
      92 000025 0002          .field          2,16
      93 000026 0000-         .field          _xSemaphoreXF+0,24
         000027 2400 
      94 000027 2400          .field          0,8
      95 000028 0000          .field  0,32                    ; _xSemaphoreXF @ 0
TMS320C55x Assembler PC v4.4.1 Sun Oct 07 10:05:05 2018

Tools Copyright (c) 1996-2012 Texas Instruments Incorporated
main.asm                                                             PAGE    3

         000029 0000 
      96              
      97 00002a               .sect   ".cinit"
      98                      .align  1
      99 00002a 0002          .field          2,16
     100 00002b 0000-         .field          _xSemaphoreBaton+0,24
         00002c 2600 
     101 00002c 2600          .field          0,8
     102 00002d 0000          .field  0,32                    ; _xSemaphoreBaton @ 0
         00002e 0000 
     103              
     104 00002f               .sect   ".cinit"
     105                      .align  1
     106 00002f 0002          .field          2,16
     107 000030 0000-         .field          _ulIdleLoops+0,24
         000031 2800 
     108 000031 2800          .field          0,8
     109 000032 0000          .field  0,32                    ; _ulIdleLoops @ 0
         000033 0000 
     110              
     111 000034               .sect   ".cinit"
     112                      .align  1
     113 000034 0001          .field          1,16
     114 000035 0000-         .field          _counter$3+0,24
         000036 2A00 
     115 000036 2A00          .field          0,8
     116 000037 0000          .field  0,16                    ; _counter$3 @ 0
     117              
     118 000038               .sect   ".cinit"
     119                      .align  1
     120 000038 0001          .field          1,16
     121 000039 0000-         .field          _counter$4+0,24
         00003a 2B00 
     122 00003a 2B00          .field          0,8
     123 00003b 0000          .field  0,16                    ; _counter$4 @ 0
     124              
     125 00003c               .sect   ".cinit"
     126                      .align  1
     127 00003c 0001          .field          1,16
     128 00003d 0000-         .field          _counter$5+0,24
         00003e 2C00 
     129 00003e 2C00          .field          0,8
     130 00003f 0000          .field  0,16                    ; _counter$5 @ 0
     131              
     132 000040               .sect   ".cinit"
     133                      .align  1
     134 000040 0001          .field          1,16
     135 000041 0000-         .field          _ctr$8+0,24
         000042 2F00 
     136 000042 2F00          .field          0,8
     137 000043 0000          .field  0,16                    ; _ctr$8 @ 0
     138              
     139 000044               .sect   ".cinit"
     140                      .align  1
     141 000044 0001          .field          1,16
TMS320C55x Assembler PC v4.4.1 Sun Oct 07 10:05:05 2018

Tools Copyright (c) 1996-2012 Texas Instruments Incorporated
main.asm                                                             PAGE    4

     142 000045 0000-         .field          _ctr$11+0,24
         000046 3200 
     143 000046 3200          .field          0,8
     144 000047 0000          .field  0,16                    ; _ctr$11 @ 0
     145              
     146 000048               .sect   ".cinit"
     147                      .align  1
     148 000048 0001          .field          1,16
     149 000049 0000-         .field          _ctr$12+0,24
         00004a 3300 
     150 00004a 3300          .field          0,8
     151 00004b 0000          .field  0,16                    ; _ctr$12 @ 0
     152              
     153 00004c               .sect   ".cinit"
     154                      .align  1
     155 00004c 0001          .field          1,16
     156 00004d 0000-         .field          _ctr$13+0,24
         00004e 3400 
     157 00004e 3400          .field          0,8
     158 00004f 0000          .field  0,16                    ; _ctr$13 @ 0
     159              
     160 000050               .sect   ".cinit"
     161                      .align  1
     162 000050 0001          .field          1,16
     163 000051 0000-         .field          _ctr$14+0,24
         000052 3500 
     164 000052 3500          .field          0,8
     165 000053 0000          .field  0,16                    ; _ctr$14 @ 0
     166              
     167              
     168              $C$DW$1 .dwtag  DW_TAG_subprogram, DW_AT_name("EZDSP5535_init")
     169                      .dwattr $C$DW$1, DW_AT_TI_symbol_name("_EZDSP5535_init")
     170                      .dwattr $C$DW$1, DW_AT_type(*$C$DW$T$88)
     171                      .dwattr $C$DW$1, DW_AT_declaration
     172                      .dwattr $C$DW$1, DW_AT_external
     173              
     174              $C$DW$2 .dwtag  DW_TAG_subprogram, DW_AT_name("xTaskCreate")
     175                      .dwattr $C$DW$2, DW_AT_TI_symbol_name("_xTaskCreate")
     176                      .dwattr $C$DW$2, DW_AT_type(*$C$DW$T$73)
     177                      .dwattr $C$DW$2, DW_AT_declaration
     178                      .dwattr $C$DW$2, DW_AT_external
     179              $C$DW$3 .dwtag  DW_TAG_formal_parameter
     180                      .dwattr $C$DW$3, DW_AT_type(*$C$DW$T$53)
     181              $C$DW$4 .dwtag  DW_TAG_formal_parameter
     182                      .dwattr $C$DW$4, DW_AT_type(*$C$DW$T$77)
     183              $C$DW$5 .dwtag  DW_TAG_formal_parameter
     184                      .dwattr $C$DW$5, DW_AT_type(*$C$DW$T$79)
     185              $C$DW$6 .dwtag  DW_TAG_formal_parameter
     186                      .dwattr $C$DW$6, DW_AT_type(*$C$DW$T$50)
     187              $C$DW$7 .dwtag  DW_TAG_formal_parameter
     188                      .dwattr $C$DW$7, DW_AT_type(*$C$DW$T$44)
     189              $C$DW$8 .dwtag  DW_TAG_formal_parameter
     190                      .dwattr $C$DW$8, DW_AT_type(*$C$DW$T$81)
     191                      .dwendtag $C$DW$2
     192              
TMS320C55x Assembler PC v4.4.1 Sun Oct 07 10:05:05 2018

Tools Copyright (c) 1996-2012 Texas Instruments Incorporated
main.asm                                                             PAGE    5

     193              
     194              $C$DW$9 .dwtag  DW_TAG_subprogram, DW_AT_name("vTaskDelay")
     195                      .dwattr $C$DW$9, DW_AT_TI_symbol_name("_vTaskDelay")
     196                      .dwattr $C$DW$9, DW_AT_declaration
     197                      .dwattr $C$DW$9, DW_AT_external
     198              $C$DW$10        .dwtag  DW_TAG_formal_parameter
     199                      .dwattr $C$DW$10, DW_AT_type(*$C$DW$T$55)
     200                      .dwendtag $C$DW$9
     201              
     202              
     203              $C$DW$11        .dwtag  DW_TAG_subprogram, DW_AT_name("vTaskSuspend")
     204                      .dwattr $C$DW$11, DW_AT_TI_symbol_name("_vTaskSuspend")
     205                      .dwattr $C$DW$11, DW_AT_declaration
     206                      .dwattr $C$DW$11, DW_AT_external
     207              $C$DW$12        .dwtag  DW_TAG_formal_parameter
     208                      .dwattr $C$DW$12, DW_AT_type(*$C$DW$T$59)
     209                      .dwendtag $C$DW$11
     210              
     211              
     212              $C$DW$13        .dwtag  DW_TAG_subprogram, DW_AT_name("vTaskResume")
     213                      .dwattr $C$DW$13, DW_AT_TI_symbol_name("_vTaskResume")
     214                      .dwattr $C$DW$13, DW_AT_declaration
     215                      .dwattr $C$DW$13, DW_AT_external
     216              $C$DW$14        .dwtag  DW_TAG_formal_parameter
     217                      .dwattr $C$DW$14, DW_AT_type(*$C$DW$T$59)
     218                      .dwendtag $C$DW$13
     219              
     220              
     221              $C$DW$15        .dwtag  DW_TAG_subprogram, DW_AT_name("vTaskStartScheduler")
     222                      .dwattr $C$DW$15, DW_AT_TI_symbol_name("_vTaskStartScheduler")
     223                      .dwattr $C$DW$15, DW_AT_declaration
     224                      .dwattr $C$DW$15, DW_AT_external
     225              
     226              $C$DW$16        .dwtag  DW_TAG_subprogram, DW_AT_name("xQueueGenericSend")
     227                      .dwattr $C$DW$16, DW_AT_TI_symbol_name("_xQueueGenericSend")
     228                      .dwattr $C$DW$16, DW_AT_type(*$C$DW$T$73)
     229                      .dwattr $C$DW$16, DW_AT_declaration
     230                      .dwattr $C$DW$16, DW_AT_external
     231              $C$DW$17        .dwtag  DW_TAG_formal_parameter
     232                      .dwattr $C$DW$17, DW_AT_type(*$C$DW$T$42)
     233              $C$DW$18        .dwtag  DW_TAG_formal_parameter
     234                      .dwattr $C$DW$18, DW_AT_type(*$C$DW$T$66)
     235              $C$DW$19        .dwtag  DW_TAG_formal_parameter
     236                      .dwattr $C$DW$19, DW_AT_type(*$C$DW$T$54)
     237              $C$DW$20        .dwtag  DW_TAG_formal_parameter
     238                      .dwattr $C$DW$20, DW_AT_type(*$C$DW$T$74)
     239                      .dwendtag $C$DW$16
     240              
     241              
     242              $C$DW$21        .dwtag  DW_TAG_subprogram, DW_AT_name("xQueueSemaphoreTake")
     243                      .dwattr $C$DW$21, DW_AT_TI_symbol_name("_xQueueSemaphoreTake")
     244                      .dwattr $C$DW$21, DW_AT_type(*$C$DW$T$73)
     245                      .dwattr $C$DW$21, DW_AT_declaration
     246                      .dwattr $C$DW$21, DW_AT_external
     247              $C$DW$22        .dwtag  DW_TAG_formal_parameter
TMS320C55x Assembler PC v4.4.1 Sun Oct 07 10:05:05 2018

Tools Copyright (c) 1996-2012 Texas Instruments Incorporated
main.asm                                                             PAGE    6

     248                      .dwattr $C$DW$22, DW_AT_type(*$C$DW$T$42)
     249              $C$DW$23        .dwtag  DW_TAG_formal_parameter
     250                      .dwattr $C$DW$23, DW_AT_type(*$C$DW$T$54)
     251                      .dwendtag $C$DW$21
     252              
     253              
     254              $C$DW$24        .dwtag  DW_TAG_subprogram, DW_AT_name("xQueueGenericCreate")
     255                      .dwattr $C$DW$24, DW_AT_TI_symbol_name("_xQueueGenericCreate")
     256                      .dwattr $C$DW$24, DW_AT_type(*$C$DW$T$42)
     257                      .dwattr $C$DW$24, DW_AT_declaration
     258                      .dwattr $C$DW$24, DW_AT_external
     259              $C$DW$25        .dwtag  DW_TAG_formal_parameter
     260                      .dwattr $C$DW$25, DW_AT_type(*$C$DW$T$45)
     261              $C$DW$26        .dwtag  DW_TAG_formal_parameter
     262                      .dwattr $C$DW$26, DW_AT_type(*$C$DW$T$45)
     263              $C$DW$27        .dwtag  DW_TAG_formal_parameter
     264                      .dwattr $C$DW$27, DW_AT_type(*$C$DW$T$47)
     265                      .dwendtag $C$DW$24
     266              
     267              
     268              $C$DW$28        .dwtag  DW_TAG_subprogram, DW_AT_name("set_dma0_ch0_i2s0_Lout")
     269                      .dwattr $C$DW$28, DW_AT_TI_symbol_name("_set_dma0_ch0_i2s0_Lout")
     270                      .dwattr $C$DW$28, DW_AT_type(*$C$DW$T$21)
     271                      .dwattr $C$DW$28, DW_AT_declaration
     272                      .dwattr $C$DW$28, DW_AT_external
     273              
     274              $C$DW$29        .dwtag  DW_TAG_subprogram, DW_AT_name("set_dma0_ch1_i2s0_Rout")
     275                      .dwattr $C$DW$29, DW_AT_TI_symbol_name("_set_dma0_ch1_i2s0_Rout")
     276                      .dwattr $C$DW$29, DW_AT_type(*$C$DW$T$21)
     277                      .dwattr $C$DW$29, DW_AT_declaration
     278                      .dwattr $C$DW$29, DW_AT_external
     279              
     280              $C$DW$30        .dwtag  DW_TAG_subprogram, DW_AT_name("set_dma0_ch0_stop")
     281                      .dwattr $C$DW$30, DW_AT_TI_symbol_name("_set_dma0_ch0_stop")
     282                      .dwattr $C$DW$30, DW_AT_declaration
     283                      .dwattr $C$DW$30, DW_AT_external
     284              
     285              $C$DW$31        .dwtag  DW_TAG_subprogram, DW_AT_name("set_dma0_ch1_stop")
     286                      .dwattr $C$DW$31, DW_AT_TI_symbol_name("_set_dma0_ch1_stop")
     287                      .dwattr $C$DW$31, DW_AT_declaration
     288                      .dwattr $C$DW$31, DW_AT_external
     289              
     290              $C$DW$32        .dwtag  DW_TAG_subprogram, DW_AT_name("EZDSP5535_LED_init")
     291                      .dwattr $C$DW$32, DW_AT_TI_symbol_name("_EZDSP5535_LED_init")
     292                      .dwattr $C$DW$32, DW_AT_type(*$C$DW$T$88)
     293                      .dwattr $C$DW$32, DW_AT_declaration
     294                      .dwattr $C$DW$32, DW_AT_external
     295              
     296              $C$DW$33        .dwtag  DW_TAG_subprogram, DW_AT_name("EZDSP5535_LED_on")
     297                      .dwattr $C$DW$33, DW_AT_TI_symbol_name("_EZDSP5535_LED_on")
     298                      .dwattr $C$DW$33, DW_AT_type(*$C$DW$T$88)
     299                      .dwattr $C$DW$33, DW_AT_declaration
     300                      .dwattr $C$DW$33, DW_AT_external
     301              $C$DW$34        .dwtag  DW_TAG_formal_parameter
     302                      .dwattr $C$DW$34, DW_AT_type(*$C$DW$T$21)
TMS320C55x Assembler PC v4.4.1 Sun Oct 07 10:05:05 2018

Tools Copyright (c) 1996-2012 Texas Instruments Incorporated
main.asm                                                             PAGE    7

     303                      .dwendtag $C$DW$33
     304              
     305              
     306              $C$DW$35        .dwtag  DW_TAG_subprogram, DW_AT_name("EZDSP5535_XF_toggle")
     307                      .dwattr $C$DW$35, DW_AT_TI_symbol_name("_EZDSP5535_XF_toggle")
     308                      .dwattr $C$DW$35, DW_AT_type(*$C$DW$T$88)
     309                      .dwattr $C$DW$35, DW_AT_declaration
     310                      .dwattr $C$DW$35, DW_AT_external
     311              
     312              $C$DW$36        .dwtag  DW_TAG_subprogram, DW_AT_name("EZDSP5535_GPIO_init")
     313                      .dwattr $C$DW$36, DW_AT_TI_symbol_name("_EZDSP5535_GPIO_init")
     314                      .dwattr $C$DW$36, DW_AT_type(*$C$DW$T$88)
     315                      .dwattr $C$DW$36, DW_AT_declaration
     316                      .dwattr $C$DW$36, DW_AT_external
     317              
     318              $C$DW$37        .dwtag  DW_TAG_subprogram, DW_AT_name("EZDSP5535_GPIO_setOutput")
     319                      .dwattr $C$DW$37, DW_AT_TI_symbol_name("_EZDSP5535_GPIO_setOutput")
     320                      .dwattr $C$DW$37, DW_AT_type(*$C$DW$T$88)
     321                      .dwattr $C$DW$37, DW_AT_declaration
     322                      .dwattr $C$DW$37, DW_AT_external
     323              $C$DW$38        .dwtag  DW_TAG_formal_parameter
     324                      .dwattr $C$DW$38, DW_AT_type(*$C$DW$T$21)
     325              $C$DW$39        .dwtag  DW_TAG_formal_parameter
     326                      .dwattr $C$DW$39, DW_AT_type(*$C$DW$T$21)
     327                      .dwendtag $C$DW$37
     328              
     329              
     330              $C$DW$40        .dwtag  DW_TAG_subprogram, DW_AT_name("EZDSP5535_SAR_init")
     331                      .dwattr $C$DW$40, DW_AT_TI_symbol_name("_EZDSP5535_SAR_init")
     332                      .dwattr $C$DW$40, DW_AT_type(*$C$DW$T$70)
     333                      .dwattr $C$DW$40, DW_AT_declaration
     334                      .dwattr $C$DW$40, DW_AT_external
     335              
     336              $C$DW$41        .dwtag  DW_TAG_subprogram, DW_AT_name("PLL_init")
     337                      .dwattr $C$DW$41, DW_AT_TI_symbol_name("_PLL_init")
     338                      .dwattr $C$DW$41, DW_AT_type(*$C$DW$T$89)
     339                      .dwattr $C$DW$41, DW_AT_declaration
     340                      .dwattr $C$DW$41, DW_AT_external
     341              $C$DW$42        .dwtag  DW_TAG_formal_parameter
     342                      .dwattr $C$DW$42, DW_AT_type(*$C$DW$T$38)
     343              $C$DW$43        .dwtag  DW_TAG_formal_parameter
     344                      .dwattr $C$DW$43, DW_AT_type(*$C$DW$T$30)
     345                      .dwendtag $C$DW$41
     346              
     347              
     348              $C$DW$44        .dwtag  DW_TAG_subprogram, DW_AT_name("PLL_config")
     349                      .dwattr $C$DW$44, DW_AT_TI_symbol_name("_PLL_config")
     350                      .dwattr $C$DW$44, DW_AT_type(*$C$DW$T$89)
     351                      .dwattr $C$DW$44, DW_AT_declaration
     352                      .dwattr $C$DW$44, DW_AT_external
     353              $C$DW$45        .dwtag  DW_TAG_formal_parameter
     354                      .dwattr $C$DW$45, DW_AT_type(*$C$DW$T$40)
     355              $C$DW$46        .dwtag  DW_TAG_formal_parameter
     356                      .dwattr $C$DW$46, DW_AT_type(*$C$DW$T$29)
     357                      .dwendtag $C$DW$44
TMS320C55x Assembler PC v4.4.1 Sun Oct 07 10:05:05 2018

Tools Copyright (c) 1996-2012 Texas Instruments Incorporated
main.asm                                                             PAGE    8

     358              
     359              
     360              $C$DW$47        .dwtag  DW_TAG_subprogram, DW_AT_name("PLL_reset")
     361                      .dwattr $C$DW$47, DW_AT_TI_symbol_name("_PLL_reset")
     362                      .dwattr $C$DW$47, DW_AT_type(*$C$DW$T$89)
     363                      .dwattr $C$DW$47, DW_AT_declaration
     364                      .dwattr $C$DW$47, DW_AT_external
     365              $C$DW$48        .dwtag  DW_TAG_formal_parameter
     366                      .dwattr $C$DW$48, DW_AT_type(*$C$DW$T$40)
     367                      .dwendtag $C$DW$47
     368              
     369              
     370              $C$DW$49        .dwtag  DW_TAG_subprogram, DW_AT_name("mem_test")
     371                      .dwattr $C$DW$49, DW_AT_TI_symbol_name("_mem_test")
     372                      .dwattr $C$DW$49, DW_AT_type(*$C$DW$T$88)
     373                      .dwattr $C$DW$49, DW_AT_declaration
     374                      .dwattr $C$DW$49, DW_AT_external
     375                      .global _fSineWave
     376 000000               .bss    _fSineWave,1,0,0
     377              $C$DW$50        .dwtag  DW_TAG_variable, DW_AT_name("fSineWave")
     378                      .dwattr $C$DW$50, DW_AT_TI_symbol_name("_fSineWave")
     379                      .dwattr $C$DW$50, DW_AT_location[DW_OP_addr _fSineWave]
     380                      .dwattr $C$DW$50, DW_AT_type(*$C$DW$T$21)
     381                      .dwattr $C$DW$50, DW_AT_external
     382                      .global _f1KToneOn
     383 000001               .bss    _f1KToneOn,1,0,0
     384              $C$DW$51        .dwtag  DW_TAG_variable, DW_AT_name("f1KToneOn")
     385                      .dwattr $C$DW$51, DW_AT_TI_symbol_name("_f1KToneOn")
     386                      .dwattr $C$DW$51, DW_AT_location[DW_OP_addr _f1KToneOn]
     387                      .dwattr $C$DW$51, DW_AT_type(*$C$DW$T$21)
     388                      .dwattr $C$DW$51, DW_AT_external
     389                      .global _f2KToneOn
     390 000002               .bss    _f2KToneOn,1,0,0
     391              $C$DW$52        .dwtag  DW_TAG_variable, DW_AT_name("f2KToneOn")
     392                      .dwattr $C$DW$52, DW_AT_TI_symbol_name("_f2KToneOn")
     393                      .dwattr $C$DW$52, DW_AT_location[DW_OP_addr _f2KToneOn]
     394                      .dwattr $C$DW$52, DW_AT_type(*$C$DW$T$21)
     395                      .dwattr $C$DW$52, DW_AT_external
     396              $C$DW$53        .dwtag  DW_TAG_variable, DW_AT_name("fTimer")
     397                      .dwattr $C$DW$53, DW_AT_TI_symbol_name("_fTimer")
     398                      .dwattr $C$DW$53, DW_AT_type(*$C$DW$T$21)
     399                      .dwattr $C$DW$53, DW_AT_declaration
     400                      .dwattr $C$DW$53, DW_AT_external
     401              $C$DW$54        .dwtag  DW_TAG_variable, DW_AT_name("Flag_RTC")
     402                      .dwattr $C$DW$54, DW_AT_TI_symbol_name("_Flag_RTC")
     403                      .dwattr $C$DW$54, DW_AT_type(*$C$DW$T$21)
     404                      .dwattr $C$DW$54, DW_AT_declaration
     405                      .dwattr $C$DW$54, DW_AT_external
     406              $C$DW$55        .dwtag  DW_TAG_variable, DW_AT_name("Conunt_RTC")
     407                      .dwattr $C$DW$55, DW_AT_TI_symbol_name("_Conunt_RTC")
     408                      .dwattr $C$DW$55, DW_AT_type(*$C$DW$T$21)
     409                      .dwattr $C$DW$55, DW_AT_declaration
     410                      .dwattr $C$DW$55, DW_AT_external
     411                      .global _led_tsks_running
     412 000004               .bss    _led_tsks_running,2,0,2
TMS320C55x Assembler PC v4.4.1 Sun Oct 07 10:05:05 2018

Tools Copyright (c) 1996-2012 Texas Instruments Incorporated
main.asm                                                             PAGE    9

     413              $C$DW$56        .dwtag  DW_TAG_variable, DW_AT_name("led_tsks_running")
     414                      .dwattr $C$DW$56, DW_AT_TI_symbol_name("_led_tsks_running")
     415                      .dwattr $C$DW$56, DW_AT_location[DW_OP_addr _led_tsks_running]
     416                      .dwattr $C$DW$56, DW_AT_type(*$C$DW$T$114)
     417                      .dwattr $C$DW$56, DW_AT_external
     418                      .global _blueTaskHandle
     419 000006               .bss    _blueTaskHandle,2,0,2
     420              $C$DW$57        .dwtag  DW_TAG_variable, DW_AT_name("blueTaskHandle")
     421                      .dwattr $C$DW$57, DW_AT_TI_symbol_name("_blueTaskHandle")
     422                      .dwattr $C$DW$57, DW_AT_location[DW_OP_addr _blueTaskHandle]
     423                      .dwattr $C$DW$57, DW_AT_type(*$C$DW$T$59)
     424                      .dwattr $C$DW$57, DW_AT_external
     425                      .global _redTaskHandle
     426 000008               .bss    _redTaskHandle,2,0,2
     427              $C$DW$58        .dwtag  DW_TAG_variable, DW_AT_name("redTaskHandle")
     428                      .dwattr $C$DW$58, DW_AT_TI_symbol_name("_redTaskHandle")
     429                      .dwattr $C$DW$58, DW_AT_location[DW_OP_addr _redTaskHandle]
     430                      .dwattr $C$DW$58, DW_AT_type(*$C$DW$T$59)
     431                      .dwattr $C$DW$58, DW_AT_external
     432                      .global _greenTaskHandle
     433 00000a               .bss    _greenTaskHandle,2,0,2
     434              $C$DW$59        .dwtag  DW_TAG_variable, DW_AT_name("greenTaskHandle")
     435                      .dwattr $C$DW$59, DW_AT_TI_symbol_name("_greenTaskHandle")
     436                      .dwattr $C$DW$59, DW_AT_location[DW_OP_addr _greenTaskHandle]
     437                      .dwattr $C$DW$59, DW_AT_type(*$C$DW$T$59)
     438                      .dwattr $C$DW$59, DW_AT_external
     439                      .global _xfTaskHandle
     440 00000c               .bss    _xfTaskHandle,2,0,2
     441              $C$DW$60        .dwtag  DW_TAG_variable, DW_AT_name("xfTaskHandle")
     442                      .dwattr $C$DW$60, DW_AT_TI_symbol_name("_xfTaskHandle")
     443                      .dwattr $C$DW$60, DW_AT_location[DW_OP_addr _xfTaskHandle]
     444                      .dwattr $C$DW$60, DW_AT_type(*$C$DW$T$59)
     445                      .dwattr $C$DW$60, DW_AT_external
     446                      .global _xf2TaskHandle
     447 00000e               .bss    _xf2TaskHandle,2,0,2
     448              $C$DW$61        .dwtag  DW_TAG_variable, DW_AT_name("xf2TaskHandle")
     449                      .dwattr $C$DW$61, DW_AT_TI_symbol_name("_xf2TaskHandle")
     450                      .dwattr $C$DW$61, DW_AT_location[DW_OP_addr _xf2TaskHandle]
     451                      .dwattr $C$DW$61, DW_AT_type(*$C$DW$T$59)
     452                      .dwattr $C$DW$61, DW_AT_external
     453                      .global _controlTaskHandle
     454 000010               .bss    _controlTaskHandle,2,0,2
     455              $C$DW$62        .dwtag  DW_TAG_variable, DW_AT_name("controlTaskHandle")
     456                      .dwattr $C$DW$62, DW_AT_TI_symbol_name("_controlTaskHandle")
     457                      .dwattr $C$DW$62, DW_AT_location[DW_OP_addr _controlTaskHandle]
     458                      .dwattr $C$DW$62, DW_AT_type(*$C$DW$T$59)
     459                      .dwattr $C$DW$62, DW_AT_external
     460                      .global _startUpTaskHandle
     461 000012               .bss    _startUpTaskHandle,2,0,2
     462              $C$DW$63        .dwtag  DW_TAG_variable, DW_AT_name("startUpTaskHandle")
     463                      .dwattr $C$DW$63, DW_AT_TI_symbol_name("_startUpTaskHandle")
     464                      .dwattr $C$DW$63, DW_AT_location[DW_OP_addr _startUpTaskHandle]
     465                      .dwattr $C$DW$63, DW_AT_type(*$C$DW$T$59)
     466                      .dwattr $C$DW$63, DW_AT_external
     467                      .global _TestTask1Handle
TMS320C55x Assembler PC v4.4.1 Sun Oct 07 10:05:05 2018

Tools Copyright (c) 1996-2012 Texas Instruments Incorporated
main.asm                                                             PAGE   10

     468 000014               .bss    _TestTask1Handle,2,0,2
     469              $C$DW$64        .dwtag  DW_TAG_variable, DW_AT_name("TestTask1Handle")
     470                      .dwattr $C$DW$64, DW_AT_TI_symbol_name("_TestTask1Handle")
     471                      .dwattr $C$DW$64, DW_AT_location[DW_OP_addr _TestTask1Handle]
     472                      .dwattr $C$DW$64, DW_AT_type(*$C$DW$T$59)
     473                      .dwattr $C$DW$64, DW_AT_external
     474                      .global _TestTask2Handle
     475 000016               .bss    _TestTask2Handle,2,0,2
     476              $C$DW$65        .dwtag  DW_TAG_variable, DW_AT_name("TestTask2Handle")
     477                      .dwattr $C$DW$65, DW_AT_TI_symbol_name("_TestTask2Handle")
     478                      .dwattr $C$DW$65, DW_AT_location[DW_OP_addr _TestTask2Handle]
     479                      .dwattr $C$DW$65, DW_AT_type(*$C$DW$T$59)
     480                      .dwattr $C$DW$65, DW_AT_external
     481                      .global _TestTask3Handle
     482 000018               .bss    _TestTask3Handle,2,0,2
     483              $C$DW$66        .dwtag  DW_TAG_variable, DW_AT_name("TestTask3Handle")
     484                      .dwattr $C$DW$66, DW_AT_TI_symbol_name("_TestTask3Handle")
     485                      .dwattr $C$DW$66, DW_AT_location[DW_OP_addr _TestTask3Handle]
     486                      .dwattr $C$DW$66, DW_AT_type(*$C$DW$T$59)
     487                      .dwattr $C$DW$66, DW_AT_external
     488                      .global _TestTask4Handle
     489 00001a               .bss    _TestTask4Handle,2,0,2
     490              $C$DW$67        .dwtag  DW_TAG_variable, DW_AT_name("TestTask4Handle")
     491                      .dwattr $C$DW$67, DW_AT_TI_symbol_name("_TestTask4Handle")
     492                      .dwattr $C$DW$67, DW_AT_location[DW_OP_addr _TestTask4Handle]
     493                      .dwattr $C$DW$67, DW_AT_type(*$C$DW$T$59)
     494                      .dwattr $C$DW$67, DW_AT_external
     495                      .global _xSemaphoreR
     496 00001c               .bss    _xSemaphoreR,2,0,2
     497              $C$DW$68        .dwtag  DW_TAG_variable, DW_AT_name("xSemaphoreR")
     498                      .dwattr $C$DW$68, DW_AT_TI_symbol_name("_xSemaphoreR")
     499                      .dwattr $C$DW$68, DW_AT_location[DW_OP_addr _xSemaphoreR]
     500                      .dwattr $C$DW$68, DW_AT_type(*$C$DW$T$43)
     501                      .dwattr $C$DW$68, DW_AT_external
     502                      .global _xSemaphoreB
     503 00001e               .bss    _xSemaphoreB,2,0,2
     504              $C$DW$69        .dwtag  DW_TAG_variable, DW_AT_name("xSemaphoreB")
     505                      .dwattr $C$DW$69, DW_AT_TI_symbol_name("_xSemaphoreB")
     506                      .dwattr $C$DW$69, DW_AT_location[DW_OP_addr _xSemaphoreB]
     507                      .dwattr $C$DW$69, DW_AT_type(*$C$DW$T$43)
     508                      .dwattr $C$DW$69, DW_AT_external
     509                      .global _xSemaphoreY
     510 000020               .bss    _xSemaphoreY,2,0,2
     511              $C$DW$70        .dwtag  DW_TAG_variable, DW_AT_name("xSemaphoreY")
     512                      .dwattr $C$DW$70, DW_AT_TI_symbol_name("_xSemaphoreY")
     513                      .dwattr $C$DW$70, DW_AT_location[DW_OP_addr _xSemaphoreY]
     514                      .dwattr $C$DW$70, DW_AT_type(*$C$DW$T$43)
     515                      .dwattr $C$DW$70, DW_AT_external
     516                      .global _xSemaphoreO
     517 000022               .bss    _xSemaphoreO,2,0,2
     518              $C$DW$71        .dwtag  DW_TAG_variable, DW_AT_name("xSemaphoreO")
     519                      .dwattr $C$DW$71, DW_AT_TI_symbol_name("_xSemaphoreO")
     520                      .dwattr $C$DW$71, DW_AT_location[DW_OP_addr _xSemaphoreO]
     521                      .dwattr $C$DW$71, DW_AT_type(*$C$DW$T$43)
     522                      .dwattr $C$DW$71, DW_AT_external
TMS320C55x Assembler PC v4.4.1 Sun Oct 07 10:05:05 2018

Tools Copyright (c) 1996-2012 Texas Instruments Incorporated
main.asm                                                             PAGE   11

     523                      .global _xSemaphoreXF
     524 000024               .bss    _xSemaphoreXF,2,0,2
     525              $C$DW$72        .dwtag  DW_TAG_variable, DW_AT_name("xSemaphoreXF")
     526                      .dwattr $C$DW$72, DW_AT_TI_symbol_name("_xSemaphoreXF")
     527                      .dwattr $C$DW$72, DW_AT_location[DW_OP_addr _xSemaphoreXF]
     528                      .dwattr $C$DW$72, DW_AT_type(*$C$DW$T$43)
     529                      .dwattr $C$DW$72, DW_AT_external
     530                      .global _xSemaphoreBaton
     531 000026               .bss    _xSemaphoreBaton,2,0,2
     532              $C$DW$73        .dwtag  DW_TAG_variable, DW_AT_name("xSemaphoreBaton")
     533                      .dwattr $C$DW$73, DW_AT_TI_symbol_name("_xSemaphoreBaton")
     534                      .dwattr $C$DW$73, DW_AT_location[DW_OP_addr _xSemaphoreBaton]
     535                      .dwattr $C$DW$73, DW_AT_type(*$C$DW$T$43)
     536                      .dwattr $C$DW$73, DW_AT_external
     537                      .global _ulIdleLoops
     538 000028               .bss    _ulIdleLoops,2,0,2
     539              $C$DW$74        .dwtag  DW_TAG_variable, DW_AT_name("ulIdleLoops")
     540                      .dwattr $C$DW$74, DW_AT_TI_symbol_name("_ulIdleLoops")
     541                      .dwattr $C$DW$74, DW_AT_location[DW_OP_addr _ulIdleLoops]
     542                      .dwattr $C$DW$74, DW_AT_type(*$C$DW$T$114)
     543                      .dwattr $C$DW$74, DW_AT_external
     544              $C$DW$75        .dwtag  DW_TAG_variable, DW_AT_name("VECSTART")
     545                      .dwattr $C$DW$75, DW_AT_TI_symbol_name("_VECSTART")
     546                      .dwattr $C$DW$75, DW_AT_type(*$C$DW$T$9)
     547                      .dwattr $C$DW$75, DW_AT_declaration
     548                      .dwattr $C$DW$75, DW_AT_external
     549 000003               .bss    _i$1,1,0,0
     550 000000               .sect   ".const:_$P$T0$2"
     551                      .clink
     552                      .align  1
     553 000000       _$P$T0$2:
     554 000000 8BE8          .field  35816,16                        ; _$P$T0$2._PLLCNTL1 @ 0
     555 000001 8000          .field  32768,16                        ; _$P$T0$2._PLLINCNTL @ 16
     556 000002 0806          .field  2054,16                 ; _$P$T0$2._PLLCNTL2 @ 32
     557 000003 0000          .field  0,16                    ; _$P$T0$2._PLLOUTCNTL @ 48
     558              
     559              $C$DW$76        .dwtag  DW_TAG_variable, DW_AT_name("$P$T0$2")
     560                      .dwattr $C$DW$76, DW_AT_TI_symbol_name("_$P$T0$2")
     561                      .dwattr $C$DW$76, DW_AT_type(*$C$DW$T$36)
     562                      .dwattr $C$DW$76, DW_AT_location[DW_OP_addr _$P$T0$2]
     563 00002a               .bss    _counter$3,1,0,0
     564 00002b               .bss    _counter$4,1,0,0
     565 00002c               .bss    _counter$5,1,0,0
     566 00002d               .bss    _counter$6,1,0,0
     567 00002e               .bss    _ctr$7,1,0,0
     568 00002f               .bss    _ctr$8,1,0,0
     569 000030               .bss    _counter$9,1,0,0
     570 000031               .bss    _ctr$10,1,0,0
     571 000032               .bss    _ctr$11,1,0,0
     572 000033               .bss    _ctr$12,1,0,0
     573 000034               .bss    _ctr$13,1,0,0
     574 000035               .bss    _ctr$14,1,0,0
     575              ;       F:\t\cc5p5\ccsv5\tools\compiler\c5500_4.4.1\bin\acp55.exe -@f:\\AppData\\Local\\Temp\\2114812 
     576 000000               .sect   ".text"
     577                      .align 4
TMS320C55x Assembler PC v4.4.1 Sun Oct 07 10:05:05 2018

Tools Copyright (c) 1996-2012 Texas Instruments Incorporated
main.asm                                                             PAGE   12

     578                      .global _main
     579              
     580              $C$DW$77        .dwtag  DW_TAG_subprogram, DW_AT_name("main")
     581                      .dwattr $C$DW$77, DW_AT_low_pc(_main)
     582                      .dwattr $C$DW$77, DW_AT_high_pc(0x00)
     583                      .dwattr $C$DW$77, DW_AT_TI_symbol_name("_main")
     584                      .dwattr $C$DW$77, DW_AT_external
     585                      .dwattr $C$DW$77, DW_AT_type(*$C$DW$T$10)
     586                      .dwattr $C$DW$77, DW_AT_TI_begin_file("../FreeRTOS/Demo/c5515_CCS/main.c")
     587                      .dwattr $C$DW$77, DW_AT_TI_begin_line(0x113)
     588                      .dwattr $C$DW$77, DW_AT_TI_begin_column(0x05)
     589                      .dwattr $C$DW$77, DW_AT_TI_max_frame_size(0x04)
     590                      .dwpsn  file "../FreeRTOS/Demo/c5515_CCS/main.c",line 276,column 1,is_stmt,address _main
     591              
     592                      .dwfde $C$DW$CIE, _main
     593              ;*******************************************************************************
     594              ;* FUNCTION NAME: main                                                         *
     595              ;*                                                                             *
     596              ;*   Function Uses Regs : AC0,AC0,T0,T1,AR0,XAR0,AR1,XAR1,AR2,XAR2,AR3,XAR3,SP,*
     597              ;*                        CARRY,TC1,M40,SATA,SATD,RDM,FRCT,SMUL                *
     598              ;*   Stack Frame        : Compact (No Frame Pointer, w/ debug)                 *
     599              ;*   Total Frame Size   : 4 words                                              *
     600              ;*                        (2 return address/alignment)                         *
     601              ;*                        (2 local values)                                     *
     602              ;*   Min System Stack   : 1 word                                               *
     603              ;*******************************************************************************
     604 000000       _main:
     605                      .dwcfi  cfa_offset, 1
     606                      .dwcfi  save_reg_to_mem, 91, -1
     607 000000 4EFD          AADD #-3, SP
     608                      .dwcfi  cfa_offset, 4
     609              $C$DW$78        .dwtag  DW_TAG_variable, DW_AT_name("temp1")
     610                      .dwattr $C$DW$78, DW_AT_TI_symbol_name("_temp1")
     611                      .dwattr $C$DW$78, DW_AT_type(*$C$DW$T$13)
     612                      .dwattr $C$DW$78, DW_AT_location[DW_OP_bregx 0x24 0]
     613                      .dwpsn  file "../FreeRTOS/Demo/c5515_CCS/main.c",line 280,column 2,is_stmt
     614              $C$DW$79        .dwtag  DW_TAG_TI_branch
     615                      .dwattr $C$DW$79, DW_AT_low_pc(0x00)
     616                      .dwattr $C$DW$79, DW_AT_name("_SYS_GlobalIntDisable")
     617                      .dwattr $C$DW$79, DW_AT_TI_call
     618 000002 0803          CALL #_SYS_GlobalIntDisable ; |280| 
         000004 DF   
     619                                                      ; call occurs [#_SYS_GlobalIntDisable] ; |280| 
     620                      .dwpsn  file "../FreeRTOS/Demo/c5515_CCS/main.c",line 282,column 2,is_stmt
     621 000005 7A00          MOV #(_VECSTART >> 16) << #16, AC0 ; |282| 
         000007 000A%
     622 000009 7E00          OR #(_VECSTART & 0xffff), AC0, AC0 ; |282| 
         00000b 0000%
     623 00000d EB00          MOV AC0, dbl(*SP(#0)) ; |282| 
         00000f 08   
     624                      .dwpsn  file "../FreeRTOS/Demo/c5515_CCS/main.c",line 283,column 2,is_stmt
     625 000010 ED00          MOV dbl(*SP(#0)), AC0 ; |283| 
         000012 08   
     626 000013 1007          SFTL AC0, #-8, AC0 ; |283| 
         000015 38   
TMS320C55x Assembler PC v4.4.1 Sun Oct 07 10:05:05 2018

Tools Copyright (c) 1996-2012 Texas Instruments Incorporated
main.asm                                                             PAGE   13

     627 000016 EB00          MOV AC0, dbl(*SP(#0)) ; |283| 
         000018 08   
     628                      .dwpsn  file "../FreeRTOS/Demo/c5515_CCS/main.c",line 284,column 2,is_stmt
     629 000019 A902          MOV *SP(#1), AR1 ; |284| 
     630 00001b C931          MOV AR1, *(#73) ; |284| 
         00001d 0000 
         00001f 49   
     631                      .dwpsn  file "../FreeRTOS/Demo/c5515_CCS/main.c",line 285,column 2,is_stmt
     632 000020 C931          MOV AR1, *(#74) ; |285| 
         000022 0000 
         000024 4A   
     633 000025 20            NOP
     634 000026 20            NOP
     635 000027 20            NOP
     636                      .dwpsn  file "../FreeRTOS/Demo/c5515_CCS/main.c",line 287,column 2,is_stmt
     637 000028 4652   bclr C54CM
     638                      .dwpsn  file "../FreeRTOS/Demo/c5515_CCS/main.c",line 290,column 2,is_stmt
     639 00002a DC31          BTST #2, *(#71), TC1 ; |290| 
         00002c 2000 
         00002e 0047 
     640 000030 65E4          BCC $C$L1,TC1 ; |290| 
     641                                                      ; branchcc occurs ; |290| 
     642                      .dwpsn  file "../FreeRTOS/Demo/c5515_CCS/main.c",line 292,column 3,is_stmt
     643 000032 F531          OR #0x0004, *(#71) ; |292| 
         000034 0004 
         000036 0000 
         000038 47   
     644                      .dwpsn  file "../FreeRTOS/Demo/c5515_CCS/main.c",line 293,column 3,is_stmt
     645 000039 9400   reset
     646                      .dwpsn  file "../FreeRTOS/Demo/c5515_CCS/main.c",line 294,column 2,is_stmt
     647 00003b 4A07          B $C$L2   ; |294| 
     648                                                      ; branch occurs ; |294| 
     649 00003d       $C$L1:    
     650                      .dwpsn  file "../FreeRTOS/Demo/c5515_CCS/main.c",line 297,column 3,is_stmt
     651 00003d F431          AND #0xfffb, *(#71) ; |297| 
         00003f FFFB 
         000041 0000 
         000043 47   
     652 000044       $C$L2:    
     653                      .dwpsn  file "../FreeRTOS/Demo/c5515_CCS/main.c",line 299,column 3,is_stmt
     654 000044 4652   bclr C54CM
     655                      .dwpsn  file "../FreeRTOS/Demo/c5515_CCS/main.c",line 312,column 3,is_stmt
     656              $C$DW$80        .dwtag  DW_TAG_TI_branch
     657                      .dwattr $C$DW$80, DW_AT_low_pc(0x00)
     658                      .dwattr $C$DW$80, DW_AT_name("_prvSetupHardware")
     659                      .dwattr $C$DW$80, DW_AT_TI_call
     660 000046 0802          CALL #_prvSetupHardware ; |312| 
         000048 E3   
     661                                                      ; call occurs [#_prvSetupHardware] ; |312| 
     662                      .dwpsn  file "../FreeRTOS/Demo/c5515_CCS/main.c",line 315,column 6,is_stmt
     663              $C$DW$81        .dwtag  DW_TAG_TI_branch
     664                      .dwattr $C$DW$81, DW_AT_low_pc(0x00)
     665                      .dwattr $C$DW$81, DW_AT_name("_systemInit")
     666                      .dwattr $C$DW$81, DW_AT_TI_call
     667 000049 0804          CALL #_systemInit ; |315| 
TMS320C55x Assembler PC v4.4.1 Sun Oct 07 10:05:05 2018

Tools Copyright (c) 1996-2012 Texas Instruments Incorporated
main.asm                                                             PAGE   14

         00004b 68   
     668                                                      ; call occurs [#_systemInit] ; |315| 
     669                      .dwpsn  file "../FreeRTOS/Demo/c5515_CCS/main.c",line 316,column 6,is_stmt
     670              $C$DW$82        .dwtag  DW_TAG_TI_branch
     671                      .dwattr $C$DW$82, DW_AT_low_pc(0x00)
     672                      .dwattr $C$DW$82, DW_AT_name("_EZDSP5535_init")
     673                      .dwattr $C$DW$82, DW_AT_TI_call
     674 00004c 6C00          CALL #_EZDSP5535_init ; |316| 
         00004e 0000!
     675                                                      ; call occurs [#_EZDSP5535_init] ; |316| 
     676                      .dwpsn  file "../FreeRTOS/Demo/c5515_CCS/main.c",line 317,column 6,is_stmt
     677              $C$DW$83        .dwtag  DW_TAG_TI_branch
     678                      .dwattr $C$DW$83, DW_AT_low_pc(0x00)
     679                      .dwattr $C$DW$83, DW_AT_name("_EZDSP5535_GPIO_init")
     680                      .dwattr $C$DW$83, DW_AT_TI_call
     681 000050 6C00          CALL #_EZDSP5535_GPIO_init ; |317| 
         000052 0000!
     682                                                      ; call occurs [#_EZDSP5535_GPIO_init] ; |317| 
     683                      .dwpsn  file "../FreeRTOS/Demo/c5515_CCS/main.c",line 318,column 6,is_stmt
     684              $C$DW$84        .dwtag  DW_TAG_TI_branch
     685                      .dwattr $C$DW$84, DW_AT_low_pc(0x00)
     686                      .dwattr $C$DW$84, DW_AT_name("_EZDSP5535_LED_init")
     687                      .dwattr $C$DW$84, DW_AT_TI_call
     688 000054 6C00          CALL #_EZDSP5535_LED_init ; |318| 
         000056 0000!
     689                                                      ; call occurs [#_EZDSP5535_LED_init] ; |318| 
     690                      .dwpsn  file "../FreeRTOS/Demo/c5515_CCS/main.c",line 324,column 6,is_stmt
     691              $C$DW$85        .dwtag  DW_TAG_TI_branch
     692                      .dwattr $C$DW$85, DW_AT_low_pc(0x00)
     693                      .dwattr $C$DW$85, DW_AT_name("_EZDSP5535_SAR_init")
     694                      .dwattr $C$DW$85, DW_AT_TI_call
     695 000058 6C00          CALL #_EZDSP5535_SAR_init ; |324| 
         00005a 0000!
     696                                                      ; call occurs [#_EZDSP5535_SAR_init] ; |324| 
     697                      .dwpsn  file "../FreeRTOS/Demo/c5515_CCS/main.c",line 328,column 6,is_stmt
     698              $C$DW$86        .dwtag  DW_TAG_TI_branch
     699                      .dwattr $C$DW$86, DW_AT_low_pc(0x00)
     700                      .dwattr $C$DW$86, DW_AT_name("_mem_test")
     701                      .dwattr $C$DW$86, DW_AT_TI_call
     702 00005c 6C00          CALL #_mem_test ; |328| 
         00005e 0000!
     703                                                      ; call occurs [#_mem_test] ; |328| 
     704 000060 6314          BCC $C$L3,T0 != #0 ; |328| 
     705                                                      ; branchcc occurs ; |328| 
     706                      .dwpsn  file "../FreeRTOS/Demo/c5515_CCS/main.c",line 329,column 10,is_stmt
     707              $C$DW$87        .dwtag  DW_TAG_TI_branch
     708                      .dwattr $C$DW$87, DW_AT_low_pc(0x00)
     709                      .dwattr $C$DW$87, DW_AT_name("_EZDSP5535_LED_on")
     710                      .dwattr $C$DW$87, DW_AT_TI_call
     711              
     712 000062 6C00          CALL #_EZDSP5535_LED_on ; |329| 
         000064 0000!
     713 000066 3D04  ||      MOV #0, T0
     714              
     715                                                      ; call occurs [#_EZDSP5535_LED_on] ; |329| 
TMS320C55x Assembler PC v4.4.1 Sun Oct 07 10:05:05 2018

Tools Copyright (c) 1996-2012 Texas Instruments Incorporated
main.asm                                                             PAGE   15

     716 000068       $C$L3:    
     717                      .dwpsn  file "../FreeRTOS/Demo/c5515_CCS/main.c",line 373,column 6,is_stmt
     718              $C$DW$88        .dwtag  DW_TAG_TI_branch
     719                      .dwattr $C$DW$88, DW_AT_low_pc(0x00)
     720                      .dwattr $C$DW$88, DW_AT_name("_EZDSP5535_LED_on")
     721                      .dwattr $C$DW$88, DW_AT_TI_call
     722              
     723 000068 6C00          CALL #_EZDSP5535_LED_on ; |373| 
         00006a 0000!
     724 00006c 3D34  ||      MOV #3, T0
     725              
     726                                                      ; call occurs [#_EZDSP5535_LED_on] ; |373| 
     727                      .dwpsn  file "../FreeRTOS/Demo/c5515_CCS/main.c",line 402,column 9,is_stmt
     728              $C$DW$89        .dwtag  DW_TAG_TI_branch
     729                      .dwattr $C$DW$89, DW_AT_low_pc(0x00)
     730                      .dwattr $C$DW$89, DW_AT_name("_BlinkLED")
     731                      .dwattr $C$DW$89, DW_AT_TI_call
     732 00006e 0803          CALL #_BlinkLED ; |402| 
         000070 7F   
     733                                                      ; call occurs [#_BlinkLED] ; |402| 
     734                      .dwpsn  file "../FreeRTOS/Demo/c5515_CCS/main.c",line 474,column 6,is_stmt
     735              $C$DW$90        .dwtag  DW_TAG_TI_branch
     736                      .dwattr $C$DW$90, DW_AT_low_pc(0x00)
     737                      .dwattr $C$DW$90, DW_AT_name("_SYS_GlobalIntDisable")
     738                      .dwattr $C$DW$90, DW_AT_TI_call
     739 000071 0803          CALL #_SYS_GlobalIntDisable ; |474| 
         000073 70   
     740                                                      ; call occurs [#_SYS_GlobalIntDisable] ; |474| 
     741                      .dwpsn  file "../FreeRTOS/Demo/c5515_CCS/main.c",line 484,column 7,is_stmt
     742              
     743 000074 3C05          MOV #0, T1
     744 000076 3D38  ||      MOV #3, AR0
     745              
     746              $C$DW$91        .dwtag  DW_TAG_TI_branch
     747                      .dwattr $C$DW$91, DW_AT_low_pc(0x00)
     748                      .dwattr $C$DW$91, DW_AT_name("_xQueueGenericCreate")
     749                      .dwattr $C$DW$91, DW_AT_TI_call
     750              
     751 000078 6C00          CALL #_xQueueGenericCreate ; |484| 
         00007a 0000!
     752 00007c 3D14  ||      MOV #1, T0
     753              
     754                                                      ; call occurs [#_xQueueGenericCreate] ; |484| 
     755 00007e EB31          MOV XAR0, dbl(*(#_xSemaphoreB))
         000080 8500 
         000082 001E-
     756                      .dwpsn  file "../FreeRTOS/Demo/c5515_CCS/main.c",line 485,column 7,is_stmt
     757 000084 ED31          MOV dbl(*(#_xSemaphoreB)), XAR3
         000086 BF00 
         000088 001E-
     758 00008a 90B0          MOV XAR3, AC0
     759 00008c 6110          BCC $C$L5,AC0 != #0 ; |485| 
     760                                                      ; branchcc occurs ; |485| 
     761                      .dwpsn  file "../FreeRTOS/Demo/c5515_CCS/main.c",line 486,column 19,is_stmt
     762 00008e       $C$L4:    
TMS320C55x Assembler PC v4.4.1 Sun Oct 07 10:05:05 2018

Tools Copyright (c) 1996-2012 Texas Instruments Incorporated
main.asm                                                             PAGE   16

     763 00008e       $C$DW$L$_main$8$B:
     764 00008e 4A7E          B $C$L4   ; |486| 
     765                                                      ; branch occurs ; |486| 
     766 000090       $C$DW$L$_main$8$E:
     767 000090       $C$L5:    
     768                      .dwpsn  file "../FreeRTOS/Demo/c5515_CCS/main.c",line 488,column 7,is_stmt
     769              
     770 000090 3C14          MOV #1, T0
     771 000092 3D05  ||      MOV #0, T1
     772              
     773              $C$DW$92        .dwtag  DW_TAG_TI_branch
     774                      .dwattr $C$DW$92, DW_AT_low_pc(0x00)
     775                      .dwattr $C$DW$92, DW_AT_name("_xQueueGenericCreate")
     776                      .dwattr $C$DW$92, DW_AT_TI_call
     777              
     778 000094 6C00          CALL #_xQueueGenericCreate ; |488| 
         000096 0000!
     779 000098 3D38  ||      MOV #3, AR0
     780              
     781                                                      ; call occurs [#_xQueueGenericCreate] ; |488| 
     782 00009a EB31          MOV XAR0, dbl(*(#_xSemaphoreR))
         00009c 8500 
         00009e 001C-
     783                      .dwpsn  file "../FreeRTOS/Demo/c5515_CCS/main.c",line 489,column 12,is_stmt
     784 0000a0 ED31          MOV dbl(*(#_xSemaphoreR)), XAR3
         0000a2 BF00 
         0000a4 001C-
     785 0000a6 90B0          MOV XAR3, AC0
     786 0000a8 6110          BCC $C$L7,AC0 != #0 ; |489| 
     787                                                      ; branchcc occurs ; |489| 
     788                      .dwpsn  file "../FreeRTOS/Demo/c5515_CCS/main.c",line 490,column 24,is_stmt
     789 0000aa       $C$L6:    
     790 0000aa       $C$DW$L$_main$11$B:
     791 0000aa 4A7E          B $C$L6   ; |490| 
     792                                                      ; branch occurs ; |490| 
     793 0000ac       $C$DW$L$_main$11$E:
     794 0000ac       $C$L7:    
     795                      .dwpsn  file "../FreeRTOS/Demo/c5515_CCS/main.c",line 492,column 7,is_stmt
     796              
     797 0000ac 3C14          MOV #1, T0
     798 0000ae 3D05  ||      MOV #0, T1
     799              
     800              $C$DW$93        .dwtag  DW_TAG_TI_branch
     801                      .dwattr $C$DW$93, DW_AT_low_pc(0x00)
     802                      .dwattr $C$DW$93, DW_AT_name("_xQueueGenericCreate")
     803                      .dwattr $C$DW$93, DW_AT_TI_call
     804              
     805 0000b0 6C00          CALL #_xQueueGenericCreate ; |492| 
         0000b2 0000!
     806 0000b4 3D38  ||      MOV #3, AR0
     807              
     808                                                      ; call occurs [#_xQueueGenericCreate] ; |492| 
     809 0000b6 EB31          MOV XAR0, dbl(*(#_xSemaphoreO))
         0000b8 8500 
         0000ba 0022-
TMS320C55x Assembler PC v4.4.1 Sun Oct 07 10:05:05 2018

Tools Copyright (c) 1996-2012 Texas Instruments Incorporated
main.asm                                                             PAGE   17

     810                      .dwpsn  file "../FreeRTOS/Demo/c5515_CCS/main.c",line 493,column 12,is_stmt
     811 0000bc ED31          MOV dbl(*(#_xSemaphoreO)), XAR3
         0000be BF00 
         0000c0 0022-
     812 0000c2 90B0          MOV XAR3, AC0
     813 0000c4 6110          BCC $C$L9,AC0 != #0 ; |493| 
     814                                                      ; branchcc occurs ; |493| 
     815                      .dwpsn  file "../FreeRTOS/Demo/c5515_CCS/main.c",line 494,column 24,is_stmt
     816 0000c6       $C$L8:    
     817 0000c6       $C$DW$L$_main$14$B:
     818 0000c6 4A7E          B $C$L8   ; |494| 
     819                                                      ; branch occurs ; |494| 
     820 0000c8       $C$DW$L$_main$14$E:
     821 0000c8       $C$L9:    
     822                      .dwpsn  file "../FreeRTOS/Demo/c5515_CCS/main.c",line 496,column 7,is_stmt
     823              
     824 0000c8 3C14          MOV #1, T0
     825 0000ca 3D05  ||      MOV #0, T1
     826              
     827              $C$DW$94        .dwtag  DW_TAG_TI_branch
     828                      .dwattr $C$DW$94, DW_AT_low_pc(0x00)
     829                      .dwattr $C$DW$94, DW_AT_name("_xQueueGenericCreate")
     830                      .dwattr $C$DW$94, DW_AT_TI_call
     831              
     832 0000cc 6C00          CALL #_xQueueGenericCreate ; |496| 
         0000ce 0000!
     833 0000d0 3D38  ||      MOV #3, AR0
     834              
     835                                                      ; call occurs [#_xQueueGenericCreate] ; |496| 
     836 0000d2 EB31          MOV XAR0, dbl(*(#_xSemaphoreY))
         0000d4 8500 
         0000d6 0020-
     837                      .dwpsn  file "../FreeRTOS/Demo/c5515_CCS/main.c",line 497,column 17,is_stmt
     838 0000d8 ED31          MOV dbl(*(#_xSemaphoreY)), XAR3
         0000da BF00 
         0000dc 0020-
     839 0000de 90B0          MOV XAR3, AC0
     840 0000e0 6110          BCC $C$L11,AC0 != #0 ; |497| 
     841                                                      ; branchcc occurs ; |497| 
     842                      .dwpsn  file "../FreeRTOS/Demo/c5515_CCS/main.c",line 498,column 29,is_stmt
     843 0000e2       $C$L10:    
     844 0000e2       $C$DW$L$_main$17$B:
     845 0000e2 4A7E          B $C$L10  ; |498| 
     846                                                      ; branch occurs ; |498| 
     847 0000e4       $C$DW$L$_main$17$E:
     848 0000e4       $C$L11:    
     849                      .dwpsn  file "../FreeRTOS/Demo/c5515_CCS/main.c",line 500,column 7,is_stmt
     850              
     851 0000e4 3C14          MOV #1, T0
     852 0000e6 3D05  ||      MOV #0, T1
     853              
     854              $C$DW$95        .dwtag  DW_TAG_TI_branch
     855                      .dwattr $C$DW$95, DW_AT_low_pc(0x00)
     856                      .dwattr $C$DW$95, DW_AT_name("_xQueueGenericCreate")
     857                      .dwattr $C$DW$95, DW_AT_TI_call
TMS320C55x Assembler PC v4.4.1 Sun Oct 07 10:05:05 2018

Tools Copyright (c) 1996-2012 Texas Instruments Incorporated
main.asm                                                             PAGE   18

     858              
     859 0000e8 6C00          CALL #_xQueueGenericCreate ; |500| 
         0000ea 0000!
     860 0000ec 3D38  ||      MOV #3, AR0
     861              
     862                                                      ; call occurs [#_xQueueGenericCreate] ; |500| 
     863 0000ee EB31          MOV XAR0, dbl(*(#_xSemaphoreBaton))
         0000f0 8500 
         0000f2 0026-
     864                      .dwpsn  file "../FreeRTOS/Demo/c5515_CCS/main.c",line 501,column 15,is_stmt
     865 0000f4 ED31          MOV dbl(*(#_xSemaphoreBaton)), XAR3
         0000f6 BF00 
         0000f8 0026-
     866 0000fa 90B0          MOV XAR3, AC0
     867 0000fc 6110          BCC $C$L13,AC0 != #0 ; |501| 
     868                                                      ; branchcc occurs ; |501| 
     869                      .dwpsn  file "../FreeRTOS/Demo/c5515_CCS/main.c",line 502,column 25,is_stmt
     870 0000fe       $C$L12:    
     871 0000fe       $C$DW$L$_main$20$B:
     872 0000fe 4A7E          B $C$L12  ; |502| 
     873                                                      ; branch occurs ; |502| 
     874 000100       $C$DW$L$_main$20$E:
     875 000100       $C$L13:    
     876                      .dwpsn  file "../FreeRTOS/Demo/c5515_CCS/main.c",line 504,column 15,is_stmt
     877              
     878 000100 3C14          MOV #1, T0
     879 000102 3D05  ||      MOV #0, T1
     880              
     881              $C$DW$96        .dwtag  DW_TAG_TI_branch
     882                      .dwattr $C$DW$96, DW_AT_low_pc(0x00)
     883                      .dwattr $C$DW$96, DW_AT_name("_xQueueGenericCreate")
     884                      .dwattr $C$DW$96, DW_AT_TI_call
     885              
     886 000104 6C00          CALL #_xQueueGenericCreate ; |504| 
         000106 0000!
     887 000108 3D38  ||      MOV #3, AR0
     888              
     889                                                      ; call occurs [#_xQueueGenericCreate] ; |504| 
     890 00010a EB31          MOV XAR0, dbl(*(#_xSemaphoreXF))
         00010c 8500 
         00010e 0024-
     891                      .dwpsn  file "../FreeRTOS/Demo/c5515_CCS/main.c",line 505,column 21,is_stmt
     892 000110 ED31          MOV dbl(*(#_xSemaphoreXF)), XAR3
         000112 BF00 
         000114 0024-
     893 000116 90B0          MOV XAR3, AC0
     894 000118 6110          BCC $C$L15,AC0 != #0 ; |505| 
     895                                                      ; branchcc occurs ; |505| 
     896                      .dwpsn  file "../FreeRTOS/Demo/c5515_CCS/main.c",line 506,column 31,is_stmt
     897 00011a       $C$L14:    
     898 00011a       $C$DW$L$_main$23$B:
     899 00011a 4A7E          B $C$L14  ; |506| 
     900                                                      ; branch occurs ; |506| 
     901 00011c       $C$DW$L$_main$23$E:
     902 00011c       $C$L15:    
TMS320C55x Assembler PC v4.4.1 Sun Oct 07 10:05:05 2018

Tools Copyright (c) 1996-2012 Texas Instruments Incorporated
main.asm                                                             PAGE   19

     903                      .dwpsn  file "../FreeRTOS/Demo/c5515_CCS/main.c",line 508,column 21,is_stmt
     904 00011c 7A00          MOV #(_StartUpTask >> 16) << #16, AC0 ; |508| 
         00011e 000A%
     905 000120 EC31          AMOV #_startUpTaskHandle, XAR2 ; |508| 
         000122 AE00 
         000124 0012-
     906 000126 EC31          AMOV #2, XAR1 ; |508| 
         000128 9E00 
         00012a 0002 
     907 00012c EC31          AMOV #$C$FSL1, XAR0 ; |508| 
         00012e 8E00 
         000130 0000+
     908 000132 7601          MOV #256, T0 ; |508| 
         000134 0048 
     909 000136 7E00          OR #(_StartUpTask & 0xffff), AC0, AC0 ; |508| 
         000138 0000%
     910              $C$DW$97        .dwtag  DW_TAG_TI_branch
     911                      .dwattr $C$DW$97, DW_AT_low_pc(0x00)
     912                      .dwattr $C$DW$97, DW_AT_name("_xTaskCreate")
     913                      .dwattr $C$DW$97, DW_AT_TI_call
     914              
     915 00013a 6C00          CALL #_xTaskCreate ; |508| 
         00013c 0000!
     916 00013e 3D35  ||      MOV #3, T1
     917              
     918                                                      ; call occurs [#_xTaskCreate] ; |508| 
     919                      .dwpsn  file "../FreeRTOS/Demo/c5515_CCS/main.c",line 516,column 21,is_stmt
     920 000140 7601          MOV #256, T0 ; |516| 
         000142 0048 
     921 000144 EC31          AMOV #_blueTaskHandle, XAR2 ; |516| 
         000146 AE00 
         000148 0006-
     922 00014a EC31          AMOV #2, XAR1 ; |516| 
         00014c 9E00 
         00014e 0002 
     923 000150 EC31          AMOV #$C$FSL2, XAR0 ; |516| 
         000152 8E00 
         000154 0006+
     924 000156 7A00          MOV #(_LED_TaskBlue >> 16) << #16, AC0 ; |516| 
         000158 000A%
     925 00015a 7E00          OR #(_LED_TaskBlue & 0xffff), AC0, AC0 ; |516| 
         00015c 0000%
     926              $C$DW$98        .dwtag  DW_TAG_TI_branch
     927                      .dwattr $C$DW$98, DW_AT_low_pc(0x00)
     928                      .dwattr $C$DW$98, DW_AT_name("_xTaskCreate")
     929                      .dwattr $C$DW$98, DW_AT_TI_call
     930              
     931 00015e 6C00          CALL #_xTaskCreate ; |516| 
         000160 0000!
     932 000162 3D15  ||      MOV #1, T1
     933              
     934                                                      ; call occurs [#_xTaskCreate] ; |516| 
     935                      .dwpsn  file "../FreeRTOS/Demo/c5515_CCS/main.c",line 523,column 21,is_stmt
     936 000164 ED31          MOV dbl(*(#_blueTaskHandle)), XAR0
         000166 8F00 
TMS320C55x Assembler PC v4.4.1 Sun Oct 07 10:05:05 2018

Tools Copyright (c) 1996-2012 Texas Instruments Incorporated
main.asm                                                             PAGE   20

         000168 0006-
     937              $C$DW$99        .dwtag  DW_TAG_TI_branch
     938                      .dwattr $C$DW$99, DW_AT_low_pc(0x00)
     939                      .dwattr $C$DW$99, DW_AT_name("_vTaskSuspend")
     940                      .dwattr $C$DW$99, DW_AT_TI_call
     941 00016a 6C00          CALL #_vTaskSuspend ; |523| 
         00016c 0000!
     942                                                      ; call occurs [#_vTaskSuspend] ; |523| 
     943                      .dwpsn  file "../FreeRTOS/Demo/c5515_CCS/main.c",line 524,column 27,is_stmt
     944 00016e EC31          AMOV #$C$FSL3, XAR0 ; |524| 
         000170 8E00 
         000172 000E+
     945 000174 7601          MOV #256, T0 ; |524| 
         000176 0048 
     946 000178 EC31          AMOV #_TestTask1Handle, XAR2 ; |524| 
         00017a AE00 
         00017c 0014-
     947 00017e EC31          AMOV #2, XAR1 ; |524| 
         000180 9E00 
         000182 0002 
     948 000184 7A00          MOV #(_TestTask1 >> 16) << #16, AC0 ; |524| 
         000186 000A%
     949 000188 7E00          OR #(_TestTask1 & 0xffff), AC0, AC0 ; |524| 
         00018a 0000%
     950              $C$DW$100       .dwtag  DW_TAG_TI_branch
     951                      .dwattr $C$DW$100, DW_AT_low_pc(0x00)
     952                      .dwattr $C$DW$100, DW_AT_name("_xTaskCreate")
     953                      .dwattr $C$DW$100, DW_AT_TI_call
     954              
     955 00018c 6C00          CALL #_xTaskCreate ; |524| 
         00018e 0000!
     956 000190 3D25  ||      MOV #2, T1
     957              
     958                                                      ; call occurs [#_xTaskCreate] ; |524| 
     959                      .dwpsn  file "../FreeRTOS/Demo/c5515_CCS/main.c",line 532,column 27,is_stmt
     960 000192 ED31          MOV dbl(*(#_TestTask1Handle)), XAR0
         000194 8F00 
         000196 0014-
     961              $C$DW$101       .dwtag  DW_TAG_TI_branch
     962                      .dwattr $C$DW$101, DW_AT_low_pc(0x00)
     963                      .dwattr $C$DW$101, DW_AT_name("_vTaskSuspend")
     964                      .dwattr $C$DW$101, DW_AT_TI_call
     965 000198 6C00          CALL #_vTaskSuspend ; |532| 
         00019a 0000!
     966                                                      ; call occurs [#_vTaskSuspend] ; |532| 
     967                      .dwpsn  file "../FreeRTOS/Demo/c5515_CCS/main.c",line 534,column 27,is_stmt
     968 00019c EC31          AMOV #$C$FSL4, XAR0 ; |534| 
         00019e 8E00 
         0001a0 0018+
     969 0001a2 7601          MOV #256, T0 ; |534| 
         0001a4 0048 
     970 0001a6 EC31          AMOV #_TestTask2Handle, XAR2 ; |534| 
         0001a8 AE00 
         0001aa 0016-
     971 0001ac EC31          AMOV #2, XAR1 ; |534| 
TMS320C55x Assembler PC v4.4.1 Sun Oct 07 10:05:05 2018

Tools Copyright (c) 1996-2012 Texas Instruments Incorporated
main.asm                                                             PAGE   21

         0001ae 9E00 
         0001b0 0002 
     972 0001b2 7A00          MOV #(_TestTask2 >> 16) << #16, AC0 ; |534| 
         0001b4 000A%
     973 0001b6 7E00          OR #(_TestTask2 & 0xffff), AC0, AC0 ; |534| 
         0001b8 0000%
     974              $C$DW$102       .dwtag  DW_TAG_TI_branch
     975                      .dwattr $C$DW$102, DW_AT_low_pc(0x00)
     976                      .dwattr $C$DW$102, DW_AT_name("_xTaskCreate")
     977                      .dwattr $C$DW$102, DW_AT_TI_call
     978              
     979 0001ba 6C00          CALL #_xTaskCreate ; |534| 
         0001bc 0000!
     980 0001be 3D15  ||      MOV #1, T1
     981              
     982                                                      ; call occurs [#_xTaskCreate] ; |534| 
     983                      .dwpsn  file "../FreeRTOS/Demo/c5515_CCS/main.c",line 542,column 20,is_stmt
     984 0001c0 ED31          MOV dbl(*(#_TestTask2Handle)), XAR0
         0001c2 8F00 
         0001c4 0016-
     985              $C$DW$103       .dwtag  DW_TAG_TI_branch
     986                      .dwattr $C$DW$103, DW_AT_low_pc(0x00)
     987                      .dwattr $C$DW$103, DW_AT_name("_vTaskSuspend")
     988                      .dwattr $C$DW$103, DW_AT_TI_call
     989 0001c6 6C00          CALL #_vTaskSuspend ; |542| 
         0001c8 0000!
     990                                                      ; call occurs [#_vTaskSuspend] ; |542| 
     991                      .dwpsn  file "../FreeRTOS/Demo/c5515_CCS/main.c",line 544,column 27,is_stmt
     992 0001ca EC31          AMOV #$C$FSL5, XAR0 ; |544| 
         0001cc 8E00 
         0001ce 0022+
     993 0001d0 7601          MOV #256, T0 ; |544| 
         0001d2 0048 
     994 0001d4 EC31          AMOV #_TestTask3Handle, XAR2 ; |544| 
         0001d6 AE00 
         0001d8 0018-
     995 0001da EC31          AMOV #2, XAR1 ; |544| 
         0001dc 9E00 
         0001de 0002 
     996 0001e0 7A00          MOV #(_TestTask3 >> 16) << #16, AC0 ; |544| 
         0001e2 000A%
     997 0001e4 7E00          OR #(_TestTask3 & 0xffff), AC0, AC0 ; |544| 
         0001e6 0000%
     998              $C$DW$104       .dwtag  DW_TAG_TI_branch
     999                      .dwattr $C$DW$104, DW_AT_low_pc(0x00)
    1000                      .dwattr $C$DW$104, DW_AT_name("_xTaskCreate")
    1001                      .dwattr $C$DW$104, DW_AT_TI_call
    1002              
    1003 0001e8 6C00          CALL #_xTaskCreate ; |544| 
         0001ea 0000!
    1004 0001ec 3D25  ||      MOV #2, T1
    1005              
    1006                                                      ; call occurs [#_xTaskCreate] ; |544| 
    1007                      .dwpsn  file "../FreeRTOS/Demo/c5515_CCS/main.c",line 551,column 27,is_stmt
    1008 0001ee ED31          MOV dbl(*(#_TestTask3Handle)), XAR0
TMS320C55x Assembler PC v4.4.1 Sun Oct 07 10:05:05 2018

Tools Copyright (c) 1996-2012 Texas Instruments Incorporated
main.asm                                                             PAGE   22

         0001f0 8F00 
         0001f2 0018-
    1009              $C$DW$105       .dwtag  DW_TAG_TI_branch
    1010                      .dwattr $C$DW$105, DW_AT_low_pc(0x00)
    1011                      .dwattr $C$DW$105, DW_AT_name("_vTaskSuspend")
    1012                      .dwattr $C$DW$105, DW_AT_TI_call
    1013 0001f4 6C00          CALL #_vTaskSuspend ; |551| 
         0001f6 0000!
    1014                                                      ; call occurs [#_vTaskSuspend] ; |551| 
    1015                      .dwpsn  file "../FreeRTOS/Demo/c5515_CCS/main.c",line 553,column 27,is_stmt
    1016 0001f8 EC31          AMOV #$C$FSL6, XAR0 ; |553| 
         0001fa 8E00 
         0001fc 002C+
    1017 0001fe 7601          MOV #256, T0 ; |553| 
         000200 0048 
    1018 000202 EC31          AMOV #_TestTask4Handle, XAR2 ; |553| 
         000204 AE00 
         000206 001A-
    1019 000208 EC31          AMOV #2, XAR1 ; |553| 
         00020a 9E00 
         00020c 0002 
    1020 00020e 7A00          MOV #(_TestTask4 >> 16) << #16, AC0 ; |553| 
         000210 000A%
    1021 000212 7E00          OR #(_TestTask4 & 0xffff), AC0, AC0 ; |553| 
         000214 0000%
    1022              $C$DW$106       .dwtag  DW_TAG_TI_branch
    1023                      .dwattr $C$DW$106, DW_AT_low_pc(0x00)
    1024                      .dwattr $C$DW$106, DW_AT_name("_xTaskCreate")
    1025                      .dwattr $C$DW$106, DW_AT_TI_call
    1026              
    1027 000216 6C00          CALL #_xTaskCreate ; |553| 
         000218 0000!
    1028 00021a 3D25  ||      MOV #2, T1
    1029              
    1030                                                      ; call occurs [#_xTaskCreate] ; |553| 
    1031                      .dwpsn  file "../FreeRTOS/Demo/c5515_CCS/main.c",line 560,column 41,is_stmt
    1032 00021c ED31          MOV dbl(*(#_TestTask4Handle)), XAR0
         00021e 8F00 
         000220 001A-
    1033              $C$DW$107       .dwtag  DW_TAG_TI_branch
    1034                      .dwattr $C$DW$107, DW_AT_low_pc(0x00)
    1035                      .dwattr $C$DW$107, DW_AT_name("_vTaskSuspend")
    1036                      .dwattr $C$DW$107, DW_AT_TI_call
    1037 000222 6C00          CALL #_vTaskSuspend ; |560| 
         000224 0000!
    1038                                                      ; call occurs [#_vTaskSuspend] ; |560| 
    1039                      .dwpsn  file "../FreeRTOS/Demo/c5515_CCS/main.c",line 567,column 9,is_stmt
    1040 000226 7A00          MOV #(_LED_TaskXF >> 16) << #16, AC0 ; |567| 
         000228 000A%
    1041 00022a EC31          AMOV #_xfTaskHandle, XAR2 ; |567| 
         00022c AE00 
         00022e 000C-
    1042 000230 EC31          AMOV #2, XAR1 ; |567| 
         000232 9E00 
         000234 0002 
TMS320C55x Assembler PC v4.4.1 Sun Oct 07 10:05:05 2018

Tools Copyright (c) 1996-2012 Texas Instruments Incorporated
main.asm                                                             PAGE   23

    1043 000236 EC31          AMOV #$C$FSL7, XAR0 ; |567| 
         000238 8E00 
         00023a 0036+
    1044 00023c 7601          MOV #256, T0 ; |567| 
         00023e 0048 
    1045 000240 7E00          OR #(_LED_TaskXF & 0xffff), AC0, AC0 ; |567| 
         000242 0000%
    1046              $C$DW$108       .dwtag  DW_TAG_TI_branch
    1047                      .dwattr $C$DW$108, DW_AT_low_pc(0x00)
    1048                      .dwattr $C$DW$108, DW_AT_name("_xTaskCreate")
    1049                      .dwattr $C$DW$108, DW_AT_TI_call
    1050              
    1051 000244 6C00          CALL #_xTaskCreate ; |567| 
         000246 0000!
    1052 000248 3D25  ||      MOV #2, T1
    1053              
    1054                                                      ; call occurs [#_xTaskCreate] ; |567| 
    1055                      .dwpsn  file "../FreeRTOS/Demo/c5515_CCS/main.c",line 574,column 9,is_stmt
    1056 00024a ED31          MOV dbl(*(#_xfTaskHandle)), XAR0
         00024c 8F00 
         00024e 000C-
    1057              $C$DW$109       .dwtag  DW_TAG_TI_branch
    1058                      .dwattr $C$DW$109, DW_AT_low_pc(0x00)
    1059                      .dwattr $C$DW$109, DW_AT_name("_vTaskSuspend")
    1060                      .dwattr $C$DW$109, DW_AT_TI_call
    1061 000250 6C00          CALL #_vTaskSuspend ; |574| 
         000252 0000!
    1062                                                      ; call occurs [#_vTaskSuspend] ; |574| 
    1063                      .dwpsn  file "../FreeRTOS/Demo/c5515_CCS/main.c",line 575,column 9,is_stmt
    1064 000254 EC31          AMOV #$C$FSL8, XAR0 ; |575| 
         000256 8E00 
         000258 0040+
    1065 00025a 7601          MOV #256, T0 ; |575| 
         00025c 0048 
    1066 00025e EC31          AMOV #_greenTaskHandle, XAR2 ; |575| 
         000260 AE00 
         000262 000A-
    1067 000264 EC31          AMOV #2, XAR1 ; |575| 
         000266 9E00 
         000268 0002 
    1068 00026a 7A00          MOV #(_LED_TaskGreen >> 16) << #16, AC0 ; |575| 
         00026c 000A%
    1069 00026e 7E00          OR #(_LED_TaskGreen & 0xffff), AC0, AC0 ; |575| 
         000270 0000%
    1070              $C$DW$110       .dwtag  DW_TAG_TI_branch
    1071                      .dwattr $C$DW$110, DW_AT_low_pc(0x00)
    1072                      .dwattr $C$DW$110, DW_AT_name("_xTaskCreate")
    1073                      .dwattr $C$DW$110, DW_AT_TI_call
    1074              
    1075 000272 6C00          CALL #_xTaskCreate ; |575| 
         000274 0000!
    1076 000276 3D15  ||      MOV #1, T1
    1077              
    1078                                                      ; call occurs [#_xTaskCreate] ; |575| 
    1079                      .dwpsn  file "../FreeRTOS/Demo/c5515_CCS/main.c",line 582,column 9,is_stmt
TMS320C55x Assembler PC v4.4.1 Sun Oct 07 10:05:05 2018

Tools Copyright (c) 1996-2012 Texas Instruments Incorporated
main.asm                                                             PAGE   24

    1080 000278 ED31          MOV dbl(*(#_greenTaskHandle)), XAR0
         00027a 8F00 
         00027c 000A-
    1081              $C$DW$111       .dwtag  DW_TAG_TI_branch
    1082                      .dwattr $C$DW$111, DW_AT_low_pc(0x00)
    1083                      .dwattr $C$DW$111, DW_AT_name("_vTaskSuspend")
    1084                      .dwattr $C$DW$111, DW_AT_TI_call
    1085 00027e 6C00          CALL #_vTaskSuspend ; |582| 
         000280 0000!
    1086                                                      ; call occurs [#_vTaskSuspend] ; |582| 
    1087                      .dwpsn  file "../FreeRTOS/Demo/c5515_CCS/main.c",line 584,column 9,is_stmt
    1088 000282 EC31          AMOV #$C$FSL9, XAR0 ; |584| 
         000284 8E00 
         000286 0048+
    1089 000288 7601          MOV #256, T0 ; |584| 
         00028a 0048 
    1090 00028c EC31          AMOV #_xf2TaskHandle, XAR2 ; |584| 
         00028e AE00 
         000290 000E-
    1091 000292 EC31          AMOV #2, XAR1 ; |584| 
         000294 9E00 
         000296 0002 
    1092 000298 7A00          MOV #(_LED_TaskXF2 >> 16) << #16, AC0 ; |584| 
         00029a 000A%
    1093 00029c 7E00          OR #(_LED_TaskXF2 & 0xffff), AC0, AC0 ; |584| 
         00029e 0000%
    1094              $C$DW$112       .dwtag  DW_TAG_TI_branch
    1095                      .dwattr $C$DW$112, DW_AT_low_pc(0x00)
    1096                      .dwattr $C$DW$112, DW_AT_name("_xTaskCreate")
    1097                      .dwattr $C$DW$112, DW_AT_TI_call
    1098              
    1099 0002a0 6C00          CALL #_xTaskCreate ; |584| 
         0002a2 0000!
    1100 0002a4 3D25  ||      MOV #2, T1
    1101              
    1102                                                      ; call occurs [#_xTaskCreate] ; |584| 
    1103                      .dwpsn  file "../FreeRTOS/Demo/c5515_CCS/main.c",line 591,column 9,is_stmt
    1104 0002a6 ED31          MOV dbl(*(#_xf2TaskHandle)), XAR0
         0002a8 8F00 
         0002aa 000E-
    1105              $C$DW$113       .dwtag  DW_TAG_TI_branch
    1106                      .dwattr $C$DW$113, DW_AT_low_pc(0x00)
    1107                      .dwattr $C$DW$113, DW_AT_name("_vTaskSuspend")
    1108                      .dwattr $C$DW$113, DW_AT_TI_call
    1109 0002ac 6C00          CALL #_vTaskSuspend ; |591| 
         0002ae 0000!
    1110                                                      ; call occurs [#_vTaskSuspend] ; |591| 
    1111                      .dwpsn  file "../FreeRTOS/Demo/c5515_CCS/main.c",line 593,column 9,is_stmt
    1112 0002b0 EC31          AMOV #$C$FSL10, XAR0 ; |593| 
         0002b2 8E00 
         0002b4 0052+
    1113 0002b6 7601          MOV #256, T0 ; |593| 
         0002b8 0048 
    1114 0002ba EC31          AMOV #_controlTaskHandle, XAR2 ; |593| 
         0002bc AE00 
TMS320C55x Assembler PC v4.4.1 Sun Oct 07 10:05:05 2018

Tools Copyright (c) 1996-2012 Texas Instruments Incorporated
main.asm                                                             PAGE   25

         0002be 0010-
    1115 0002c0 EC31          AMOV #2, XAR1 ; |593| 
         0002c2 9E00 
         0002c4 0002 
    1116 0002c6 7A00          MOV #(_LED_Control >> 16) << #16, AC0 ; |593| 
         0002c8 000A%
    1117 0002ca 7E00          OR #(_LED_Control & 0xffff), AC0, AC0 ; |593| 
         0002cc 0000%
    1118              $C$DW$114       .dwtag  DW_TAG_TI_branch
    1119                      .dwattr $C$DW$114, DW_AT_low_pc(0x00)
    1120                      .dwattr $C$DW$114, DW_AT_name("_xTaskCreate")
    1121                      .dwattr $C$DW$114, DW_AT_TI_call
    1122              
    1123 0002ce 6C00          CALL #_xTaskCreate ; |593| 
         0002d0 0000!
    1124 0002d2 3D15  ||      MOV #1, T1
    1125              
    1126                                                      ; call occurs [#_xTaskCreate] ; |593| 
    1127                      .dwpsn  file "../FreeRTOS/Demo/c5515_CCS/main.c",line 600,column 8,is_stmt
    1128 0002d4 ED31          MOV dbl(*(#_controlTaskHandle)), XAR0
         0002d6 8F00 
         0002d8 0010-
    1129              $C$DW$115       .dwtag  DW_TAG_TI_branch
    1130                      .dwattr $C$DW$115, DW_AT_low_pc(0x00)
    1131                      .dwattr $C$DW$115, DW_AT_name("_vTaskSuspend")
    1132                      .dwattr $C$DW$115, DW_AT_TI_call
    1133 0002da 6C00          CALL #_vTaskSuspend ; |600| 
         0002dc 0000!
    1134                                                      ; call occurs [#_vTaskSuspend] ; |600| 
    1135                      .dwpsn  file "../FreeRTOS/Demo/c5515_CCS/main.c",line 603,column 9,is_stmt
    1136 0002de EC31          AMOV #$C$FSL11, XAR0 ; |603| 
         0002e0 8E00 
         0002e2 005A+
    1137 0002e4 7601          MOV #256, T0 ; |603| 
         0002e6 0048 
    1138 0002e8 EC31          AMOV #_redTaskHandle, XAR2 ; |603| 
         0002ea AE00 
         0002ec 0008-
    1139 0002ee EC31          AMOV #2, XAR1 ; |603| 
         0002f0 9E00 
         0002f2 0002 
    1140 0002f4 7A00          MOV #(_LED_TaskRed >> 16) << #16, AC0 ; |603| 
         0002f6 000A%
    1141 0002f8 7E00          OR #(_LED_TaskRed & 0xffff), AC0, AC0 ; |603| 
         0002fa 0000%
    1142              $C$DW$116       .dwtag  DW_TAG_TI_branch
    1143                      .dwattr $C$DW$116, DW_AT_low_pc(0x00)
    1144                      .dwattr $C$DW$116, DW_AT_name("_xTaskCreate")
    1145                      .dwattr $C$DW$116, DW_AT_TI_call
    1146              
    1147 0002fc 6C00          CALL #_xTaskCreate ; |603| 
         0002fe 0000!
    1148 000300 3D25  ||      MOV #2, T1
    1149              
    1150                                                      ; call occurs [#_xTaskCreate] ; |603| 
TMS320C55x Assembler PC v4.4.1 Sun Oct 07 10:05:05 2018

Tools Copyright (c) 1996-2012 Texas Instruments Incorporated
main.asm                                                             PAGE   26

    1151                      .dwpsn  file "../FreeRTOS/Demo/c5515_CCS/main.c",line 610,column 10,is_stmt
    1152 000302 ED31          MOV dbl(*(#_redTaskHandle)), XAR0
         000304 8F00 
         000306 0008-
    1153              $C$DW$117       .dwtag  DW_TAG_TI_branch
    1154                      .dwattr $C$DW$117, DW_AT_low_pc(0x00)
    1155                      .dwattr $C$DW$117, DW_AT_name("_vTaskSuspend")
    1156                      .dwattr $C$DW$117, DW_AT_TI_call
    1157 000308 6C00          CALL #_vTaskSuspend ; |610| 
         00030a 0000!
    1158                                                      ; call occurs [#_vTaskSuspend] ; |610| 
    1159                      .dwpsn  file "../FreeRTOS/Demo/c5515_CCS/main.c",line 612,column 10,is_stmt
    1160 00030c ED31          MOV dbl(*(#_controlTaskHandle)), XAR0
         00030e 8F00 
         000310 0010-
    1161              $C$DW$118       .dwtag  DW_TAG_TI_branch
    1162                      .dwattr $C$DW$118, DW_AT_low_pc(0x00)
    1163                      .dwattr $C$DW$118, DW_AT_name("_vTaskSuspend")
    1164                      .dwattr $C$DW$118, DW_AT_TI_call
    1165 000312 6C00          CALL #_vTaskSuspend ; |612| 
         000314 0000!
    1166                                                      ; call occurs [#_vTaskSuspend] ; |612| 
    1167                      .dwpsn  file "../FreeRTOS/Demo/c5515_CCS/main.c",line 625,column 2,is_stmt
    1168              $C$DW$119       .dwtag  DW_TAG_TI_branch
    1169                      .dwattr $C$DW$119, DW_AT_low_pc(0x00)
    1170                      .dwattr $C$DW$119, DW_AT_name("_SYS_GlobalIntDisable")
    1171                      .dwattr $C$DW$119, DW_AT_TI_call
    1172 000316 0800          CALL #_SYS_GlobalIntDisable ; |625| 
         000318 CB   
    1173                                                      ; call occurs [#_SYS_GlobalIntDisable] ; |625| 
    1174                      .dwpsn  file "../FreeRTOS/Demo/c5515_CCS/main.c",line 627,column 2,is_stmt
    1175 000319 F431          AND #0xdfff, *(#0) ; |627| 
         00031b DFFF 
         00031d 0000 
         00031f 00   
    1176                      .dwpsn  file "../FreeRTOS/Demo/c5515_CCS/main.c",line 648,column 2,is_stmt
    1177              $C$DW$120       .dwtag  DW_TAG_TI_branch
    1178                      .dwattr $C$DW$120, DW_AT_low_pc(0x00)
    1179                      .dwattr $C$DW$120, DW_AT_name("_vTaskStartScheduler")
    1180                      .dwattr $C$DW$120, DW_AT_TI_call
    1181 000320 6C00          CALL #_vTaskStartScheduler ; |648| 
         000322 0000!
    1182                                                      ; call occurs [#_vTaskStartScheduler] ; |648| 
    1183                      .dwpsn  file "../FreeRTOS/Demo/c5515_CCS/main.c",line 652,column 2,is_stmt
    1184 000324 3C04          MOV #0, T0
    1185                      .dwpsn  file "../FreeRTOS/Demo/c5515_CCS/main.c",line 653,column 1,is_stmt
    1186 000326 4E03          AADD #3, SP
    1187                      .dwcfi  cfa_offset, 1
    1188              $C$DW$121       .dwtag  DW_TAG_TI_branch
    1189                      .dwattr $C$DW$121, DW_AT_low_pc(0x00)
    1190                      .dwattr $C$DW$121, DW_AT_TI_return
    1191 000328 4804          RET
    1192                                                      ; return occurs
    1193              
    1194              $C$DW$122       .dwtag  DW_TAG_TI_loop
TMS320C55x Assembler PC v4.4.1 Sun Oct 07 10:05:05 2018

Tools Copyright (c) 1996-2012 Texas Instruments Incorporated
main.asm                                                             PAGE   27

    1195                      .dwattr $C$DW$122, DW_AT_name("F:\eZdsp_DBG\tmp1\c55x-sim2\foo\Debug\main.asm:$C$L14:1:1538931905")
    1196                      .dwattr $C$DW$122, DW_AT_TI_begin_file("../FreeRTOS/Demo/c5515_CCS/main.c")
    1197                      .dwattr $C$DW$122, DW_AT_TI_begin_line(0x1fa)
    1198                      .dwattr $C$DW$122, DW_AT_TI_end_line(0x1fa)
    1199              $C$DW$123       .dwtag  DW_TAG_TI_loop_range
    1200                      .dwattr $C$DW$123, DW_AT_low_pc($C$DW$L$_main$23$B)
    1201                      .dwattr $C$DW$123, DW_AT_high_pc($C$DW$L$_main$23$E)
    1202                      .dwendtag $C$DW$122
    1203              
    1204              
    1205              $C$DW$124       .dwtag  DW_TAG_TI_loop
    1206                      .dwattr $C$DW$124, DW_AT_name("F:\eZdsp_DBG\tmp1\c55x-sim2\foo\Debug\main.asm:$C$L12:1:1538931905")
    1207                      .dwattr $C$DW$124, DW_AT_TI_begin_file("../FreeRTOS/Demo/c5515_CCS/main.c")
    1208                      .dwattr $C$DW$124, DW_AT_TI_begin_line(0x1f6)
    1209                      .dwattr $C$DW$124, DW_AT_TI_end_line(0x1f6)
    1210              $C$DW$125       .dwtag  DW_TAG_TI_loop_range
    1211                      .dwattr $C$DW$125, DW_AT_low_pc($C$DW$L$_main$20$B)
    1212                      .dwattr $C$DW$125, DW_AT_high_pc($C$DW$L$_main$20$E)
    1213                      .dwendtag $C$DW$124
    1214              
    1215              
    1216              $C$DW$126       .dwtag  DW_TAG_TI_loop
    1217                      .dwattr $C$DW$126, DW_AT_name("F:\eZdsp_DBG\tmp1\c55x-sim2\foo\Debug\main.asm:$C$L10:1:1538931905")
    1218                      .dwattr $C$DW$126, DW_AT_TI_begin_file("../FreeRTOS/Demo/c5515_CCS/main.c")
    1219                      .dwattr $C$DW$126, DW_AT_TI_begin_line(0x1f2)
    1220                      .dwattr $C$DW$126, DW_AT_TI_end_line(0x1f2)
    1221              $C$DW$127       .dwtag  DW_TAG_TI_loop_range
    1222                      .dwattr $C$DW$127, DW_AT_low_pc($C$DW$L$_main$17$B)
    1223                      .dwattr $C$DW$127, DW_AT_high_pc($C$DW$L$_main$17$E)
    1224                      .dwendtag $C$DW$126
    1225              
    1226              
    1227              $C$DW$128       .dwtag  DW_TAG_TI_loop
    1228                      .dwattr $C$DW$128, DW_AT_name("F:\eZdsp_DBG\tmp1\c55x-sim2\foo\Debug\main.asm:$C$L8:1:1538931905")
    1229                      .dwattr $C$DW$128, DW_AT_TI_begin_file("../FreeRTOS/Demo/c5515_CCS/main.c")
    1230                      .dwattr $C$DW$128, DW_AT_TI_begin_line(0x1ee)
    1231                      .dwattr $C$DW$128, DW_AT_TI_end_line(0x1ee)
    1232              $C$DW$129       .dwtag  DW_TAG_TI_loop_range
    1233                      .dwattr $C$DW$129, DW_AT_low_pc($C$DW$L$_main$14$B)
    1234                      .dwattr $C$DW$129, DW_AT_high_pc($C$DW$L$_main$14$E)
    1235                      .dwendtag $C$DW$128
    1236              
    1237              
    1238              $C$DW$130       .dwtag  DW_TAG_TI_loop
    1239                      .dwattr $C$DW$130, DW_AT_name("F:\eZdsp_DBG\tmp1\c55x-sim2\foo\Debug\main.asm:$C$L6:1:1538931905")
    1240                      .dwattr $C$DW$130, DW_AT_TI_begin_file("../FreeRTOS/Demo/c5515_CCS/main.c")
    1241                      .dwattr $C$DW$130, DW_AT_TI_begin_line(0x1ea)
    1242                      .dwattr $C$DW$130, DW_AT_TI_end_line(0x1ea)
    1243              $C$DW$131       .dwtag  DW_TAG_TI_loop_range
    1244                      .dwattr $C$DW$131, DW_AT_low_pc($C$DW$L$_main$11$B)
    1245                      .dwattr $C$DW$131, DW_AT_high_pc($C$DW$L$_main$11$E)
    1246                      .dwendtag $C$DW$130
    1247              
    1248              
    1249              $C$DW$132       .dwtag  DW_TAG_TI_loop
TMS320C55x Assembler PC v4.4.1 Sun Oct 07 10:05:05 2018

Tools Copyright (c) 1996-2012 Texas Instruments Incorporated
main.asm                                                             PAGE   28

    1250                      .dwattr $C$DW$132, DW_AT_name("F:\eZdsp_DBG\tmp1\c55x-sim2\foo\Debug\main.asm:$C$L4:1:1538931905")
    1251                      .dwattr $C$DW$132, DW_AT_TI_begin_file("../FreeRTOS/Demo/c5515_CCS/main.c")
    1252                      .dwattr $C$DW$132, DW_AT_TI_begin_line(0x1e6)
    1253                      .dwattr $C$DW$132, DW_AT_TI_end_line(0x1e6)
    1254              $C$DW$133       .dwtag  DW_TAG_TI_loop_range
    1255                      .dwattr $C$DW$133, DW_AT_low_pc($C$DW$L$_main$8$B)
    1256                      .dwattr $C$DW$133, DW_AT_high_pc($C$DW$L$_main$8$E)
    1257                      .dwendtag $C$DW$132
    1258              
    1259                      .dwattr $C$DW$77, DW_AT_TI_end_file("../FreeRTOS/Demo/c5515_CCS/main.c")
    1260                      .dwattr $C$DW$77, DW_AT_TI_end_line(0x28d)
    1261                      .dwattr $C$DW$77, DW_AT_TI_end_column(0x01)
    1262                      .dwendentry
    1263                      .dwendtag $C$DW$77
    1264              
    1265 00032a               .sect   ".text"
    1266                      .align 4
    1267              
    1268              $C$DW$134       .dwtag  DW_TAG_subprogram, DW_AT_name("prvSetupHardware")
    1269                      .dwattr $C$DW$134, DW_AT_low_pc(_prvSetupHardware)
    1270                      .dwattr $C$DW$134, DW_AT_high_pc(0x00)
    1271                      .dwattr $C$DW$134, DW_AT_TI_symbol_name("_prvSetupHardware")
    1272                      .dwattr $C$DW$134, DW_AT_TI_begin_file("../FreeRTOS/Demo/c5515_CCS/main.c")
    1273                      .dwattr $C$DW$134, DW_AT_TI_begin_line(0x2db)
    1274                      .dwattr $C$DW$134, DW_AT_TI_begin_column(0x0d)
    1275                      .dwattr $C$DW$134, DW_AT_TI_max_frame_size(0x02)
    1276                      .dwpsn  file "../FreeRTOS/Demo/c5515_CCS/main.c",line 732,column 1,is_stmt,address _prvSetupHardware
    1277              
    1278                      .dwfde $C$DW$CIE, _prvSetupHardware
    1279              ;*******************************************************************************
    1280              ;* FUNCTION NAME: prvSetupHardware                                             *
    1281              ;*                                                                             *
    1282              ;*   Function Uses Regs : SP,M40,SATA,SATD,RDM,FRCT,SMUL                       *
    1283              ;*   Stack Frame        : Compact (No Frame Pointer, w/ debug)                 *
    1284              ;*   Total Frame Size   : 2 words                                              *
    1285              ;*                        (2 return address/alignment)                         *
    1286              ;*   Min System Stack   : 1 word                                               *
    1287              ;*******************************************************************************
    1288 00032c       _prvSetupHardware:
    1289                      .dwcfi  cfa_offset, 1
    1290                      .dwcfi  save_reg_to_mem, 91, -1
    1291 00032c 4EFF          AADD #-1, SP
    1292                      .dwcfi  cfa_offset, 2
    1293                      .dwpsn  file "../FreeRTOS/Demo/c5515_CCS/main.c",line 736,column 7,is_stmt
    1294              $C$DW$135       .dwtag  DW_TAG_TI_branch
    1295                      .dwattr $C$DW$135, DW_AT_low_pc(0x00)
    1296                      .dwattr $C$DW$135, DW_AT_name("_systemInit")
    1297                      .dwattr $C$DW$135, DW_AT_TI_call
    1298 00032e 0801          CALL #_systemInit ; |736| 
         000330 83   
    1299                                                      ; call occurs [#_systemInit] ; |736| 
    1300                      .dwpsn  file "../FreeRTOS/Demo/c5515_CCS/main.c",line 783,column 1,is_stmt
    1301 000331 4E01          AADD #1, SP
    1302                      .dwcfi  cfa_offset, 1
    1303              $C$DW$136       .dwtag  DW_TAG_TI_branch
TMS320C55x Assembler PC v4.4.1 Sun Oct 07 10:05:05 2018

Tools Copyright (c) 1996-2012 Texas Instruments Incorporated
main.asm                                                             PAGE   29

    1304                      .dwattr $C$DW$136, DW_AT_low_pc(0x00)
    1305                      .dwattr $C$DW$136, DW_AT_TI_return
    1306 000333 4804          RET
    1307                                                      ; return occurs
    1308                      .dwattr $C$DW$134, DW_AT_TI_end_file("../FreeRTOS/Demo/c5515_CCS/main.c")
    1309                      .dwattr $C$DW$134, DW_AT_TI_end_line(0x30f)
    1310                      .dwattr $C$DW$134, DW_AT_TI_end_column(0x01)
    1311                      .dwendentry
    1312                      .dwendtag $C$DW$134
    1313              
    1314 000335               .sect   ".text"
    1315                      .align 4
    1316                      .global _vApplicationIdleHook
    1317              
    1318              $C$DW$137       .dwtag  DW_TAG_subprogram, DW_AT_name("vApplicationIdleHook")
    1319                      .dwattr $C$DW$137, DW_AT_low_pc(_vApplicationIdleHook)
    1320                      .dwattr $C$DW$137, DW_AT_high_pc(0x00)
    1321                      .dwattr $C$DW$137, DW_AT_TI_symbol_name("_vApplicationIdleHook")
    1322                      .dwattr $C$DW$137, DW_AT_external
    1323                      .dwattr $C$DW$137, DW_AT_TI_begin_file("../FreeRTOS/Demo/c5515_CCS/main.c")
    1324                      .dwattr $C$DW$137, DW_AT_TI_begin_line(0x312)
    1325                      .dwattr $C$DW$137, DW_AT_TI_begin_column(0x06)
    1326                      .dwattr $C$DW$137, DW_AT_TI_max_frame_size(0x02)
    1327                      .dwpsn  file "../FreeRTOS/Demo/c5515_CCS/main.c",line 787,column 1,is_stmt,address _vApplicationIdleH
    1328              
    1329                      .dwfde $C$DW$CIE, _vApplicationIdleHook
    1330              $C$DW$138       .dwtag  DW_TAG_variable, DW_AT_name("i")
    1331                      .dwattr $C$DW$138, DW_AT_TI_symbol_name("_i$1")
    1332                      .dwattr $C$DW$138, DW_AT_type(*$C$DW$T$9)
    1333                      .dwattr $C$DW$138, DW_AT_location[DW_OP_addr _i$1]
    1334              ;*******************************************************************************
    1335              ;* FUNCTION NAME: vApplicationIdleHook                                         *
    1336              ;*                                                                             *
    1337              ;*   Function Uses Regs : AC0,AC0,AC1,AC1,AR3,XAR3,SP,CARRY,TC1,M40,SATA,SATD, *
    1338              ;*                        RDM,FRCT,SMUL                                        *
    1339              ;*   Stack Frame        : Compact (No Frame Pointer, w/ debug)                 *
    1340              ;*   Total Frame Size   : 2 words                                              *
    1341              ;*                        (2 return address/alignment)                         *
    1342              ;*   Min System Stack   : 1 word                                               *
    1343              ;*******************************************************************************
    1344 000338       _vApplicationIdleHook:
    1345                      .dwcfi  cfa_offset, 1
    1346                      .dwcfi  save_reg_to_mem, 91, -1
    1347 000338 4EFF          AADD #-1, SP
    1348                      .dwcfi  cfa_offset, 2
    1349 00033a       $C$L16:    
    1350 00033a       $C$DW$L$_vApplicationIdleHook$2$B:
    1351                      .dwpsn  file "../FreeRTOS/Demo/c5515_CCS/main.c",line 796,column 2,is_stmt
    1352 00033a ED31          MOV dbl(*(#_ulIdleLoops)), AC0 ; |796| 
         00033c 0800 
         00033e 0028-
    1353 000340 4010          ADD #1, AC0 ; |796| 
    1354 000342 EB31          MOV AC0, dbl(*(#_ulIdleLoops)) ; |796| 
         000344 0800 
         000346 0028-
TMS320C55x Assembler PC v4.4.1 Sun Oct 07 10:05:05 2018

Tools Copyright (c) 1996-2012 Texas Instruments Incorporated
main.asm                                                             PAGE   30

    1355 000348 20            NOP
    1356 000349 20            NOP
    1357                      .dwpsn  file "../FreeRTOS/Demo/c5515_CCS/main.c",line 800,column 2,is_stmt
    1358 00034a EC31          AMOV #500000, XAR3 ; |800| 
         00034c BE07 
         00034e A120 
    1359 000350 ED31          MOV dbl(*(#_ulIdleLoops)), AC1 ; |800| 
         000352 1800 
         000354 0028-
    1360 000356 90B0          MOV XAR3, AC0
    1361 000358 1208          CMPU AC1 <= AC0, TC1 ; |800| 
         00035a 14   
    1362 00035b 0464          BCC $C$L16,TC1 ; |800| 
         00035d DC   
    1363                                                      ; branchcc occurs ; |800| 
    1364 00035e       $C$DW$L$_vApplicationIdleHook$2$E:
    1365 00035e       $C$DW$L$_vApplicationIdleHook$3$B:
    1366                      .dwpsn  file "../FreeRTOS/Demo/c5515_CCS/main.c",line 805,column 6,is_stmt
    1367              $C$DW$139       .dwtag  DW_TAG_TI_branch
    1368                      .dwattr $C$DW$139, DW_AT_low_pc(0x00)
    1369                      .dwattr $C$DW$139, DW_AT_name("_redLedToggle")
    1370                      .dwattr $C$DW$139, DW_AT_TI_call
    1371 00035e 0802          CALL #_redLedToggle ; |805| 
         000360 8F   
    1372                                                      ; call occurs [#_redLedToggle] ; |805| 
    1373                      .dwpsn  file "../FreeRTOS/Demo/c5515_CCS/main.c",line 883,column 9,is_stmt
    1374 000361 3C00          MOV #0, AC0 ; |883| 
    1375 000363 EB31          MOV AC0, dbl(*(#_ulIdleLoops)) ; |883| 
         000365 0800 
         000367 0028-
    1376                      .dwpsn  file "../FreeRTOS/Demo/c5515_CCS/main.c",line 893,column 2,is_stmt
    1377 000369 4A4F          B $C$L16  ; |893| 
    1378                                                      ; branch occurs ; |893| 
    1379 00036b       $C$DW$L$_vApplicationIdleHook$3$E:
    1380                      .dwcfi  cfa_offset, 1
    1381              
    1382              $C$DW$140       .dwtag  DW_TAG_TI_loop
    1383                      .dwattr $C$DW$140, DW_AT_name("F:\eZdsp_DBG\tmp1\c55x-sim2\foo\Debug\main.asm:$C$L16:1:1538931905")
    1384                      .dwattr $C$DW$140, DW_AT_TI_begin_file("../FreeRTOS/Demo/c5515_CCS/main.c")
    1385                      .dwattr $C$DW$140, DW_AT_TI_begin_line(0x319)
    1386                      .dwattr $C$DW$140, DW_AT_TI_end_line(0x37d)
    1387              $C$DW$141       .dwtag  DW_TAG_TI_loop_range
    1388                      .dwattr $C$DW$141, DW_AT_low_pc($C$DW$L$_vApplicationIdleHook$2$B)
    1389                      .dwattr $C$DW$141, DW_AT_high_pc($C$DW$L$_vApplicationIdleHook$2$E)
    1390              $C$DW$142       .dwtag  DW_TAG_TI_loop_range
    1391                      .dwattr $C$DW$142, DW_AT_low_pc($C$DW$L$_vApplicationIdleHook$3$B)
    1392                      .dwattr $C$DW$142, DW_AT_high_pc($C$DW$L$_vApplicationIdleHook$3$E)
    1393                      .dwendtag $C$DW$140
    1394              
    1395                      .dwattr $C$DW$137, DW_AT_TI_end_file("../FreeRTOS/Demo/c5515_CCS/main.c")
    1396                      .dwattr $C$DW$137, DW_AT_TI_end_line(0x37f)
    1397                      .dwattr $C$DW$137, DW_AT_TI_end_column(0x01)
    1398                      .dwendentry
    1399                      .dwendtag $C$DW$137
    1400              
TMS320C55x Assembler PC v4.4.1 Sun Oct 07 10:05:05 2018

Tools Copyright (c) 1996-2012 Texas Instruments Incorporated
main.asm                                                             PAGE   31

    1401 00036b               .sect   ".text"
    1402                      .align 4
    1403                      .global _InitSystem
    1404              
    1405              $C$DW$143       .dwtag  DW_TAG_subprogram, DW_AT_name("InitSystem")
    1406                      .dwattr $C$DW$143, DW_AT_low_pc(_InitSystem)
    1407                      .dwattr $C$DW$143, DW_AT_high_pc(0x00)
    1408                      .dwattr $C$DW$143, DW_AT_TI_symbol_name("_InitSystem")
    1409                      .dwattr $C$DW$143, DW_AT_external
    1410                      .dwattr $C$DW$143, DW_AT_TI_begin_file("../FreeRTOS/Demo/c5515_CCS/main.c")
    1411                      .dwattr $C$DW$143, DW_AT_TI_begin_line(0x382)
    1412                      .dwattr $C$DW$143, DW_AT_TI_begin_column(0x06)
    1413                      .dwattr $C$DW$143, DW_AT_TI_max_frame_size(0x02)
    1414                      .dwpsn  file "../FreeRTOS/Demo/c5515_CCS/main.c",line 899,column 1,is_stmt,address _InitSystem
    1415              
    1416                      .dwfde $C$DW$CIE, _InitSystem
    1417              ;*******************************************************************************
    1418              ;* FUNCTION NAME: InitSystem                                                   *
    1419              ;*                                                                             *
    1420              ;*   Function Uses Regs : AR1,AR2,SP,CARRY,TC1,M40,SATA,SATD,RDM,FRCT,SMUL     *
    1421              ;*   Stack Frame        : Compact (No Frame Pointer, w/ debug)                 *
    1422              ;*   Total Frame Size   : 2 words                                              *
    1423              ;*                        (1 return address/alignment)                         *
    1424              ;*                        (1 local values)                                     *
    1425              ;*   Min System Stack   : 1 word                                               *
    1426              ;*******************************************************************************
    1427 00036c       _InitSystem:
    1428                      .dwcfi  cfa_offset, 1
    1429                      .dwcfi  save_reg_to_mem, 91, -1
    1430 00036c 4EFF          AADD #-1, SP
    1431                      .dwcfi  cfa_offset, 2
    1432              $C$DW$144       .dwtag  DW_TAG_variable, DW_AT_name("i")
    1433                      .dwattr $C$DW$144, DW_AT_TI_symbol_name("_i")
    1434                      .dwattr $C$DW$144, DW_AT_type(*$C$DW$T$10)
    1435                      .dwattr $C$DW$144, DW_AT_location[DW_OP_bregx 0x24 0]
    1436                      .dwpsn  file "../FreeRTOS/Demo/c5515_CCS/main.c",line 903,column 5,is_stmt
    1437 00036e E651          MOV #0, *port(#7199) ; |903| 
         000370 001C 
         000372 1F   
    1438                      .dwpsn  file "../FreeRTOS/Demo/c5515_CCS/main.c",line 906,column 5,is_stmt
    1439 000373 FB51          MOV #32768, *port(#7201) ; |906| 
         000375 8000 
         000377 1C21 
    1440                      .dwpsn  file "../FreeRTOS/Demo/c5515_CCS/main.c",line 907,column 5,is_stmt
    1441 000379 E651          MOV #0, *port(#7203) ; |907| 
         00037b 001C 
         00037d 23   
    1442                      .dwpsn  file "../FreeRTOS/Demo/c5515_CCS/main.c",line 908,column 5,is_stmt
    1443 00037e FB51          MOV #2054, *port(#7202) ; |908| 
         000380 0806 
         000382 1C22 
    1444                      .dwpsn  file "../FreeRTOS/Demo/c5515_CCS/main.c",line 909,column 5,is_stmt
    1445 000384 FB51          MOV #35816, *port(#7200) ; |909| 
         000386 8BE8 
         000388 1C20 
TMS320C55x Assembler PC v4.4.1 Sun Oct 07 10:05:05 2018

Tools Copyright (c) 1996-2012 Texas Instruments Incorporated
main.asm                                                             PAGE   32

    1446                      .dwpsn  file "../FreeRTOS/Demo/c5515_CCS/main.c",line 924,column 13,is_stmt
    1447 00038a DC51          BTST #3, *port(#7202), TC1 ; |924| 
         00038c 301C 
         00038e 22   
    1448 00038f 6464          BCC $C$L18,TC1 ; |924| 
    1449                                                      ; branchcc occurs ; |924| 
    1450 000391       $C$L17:    
    1451 000391       $C$DW$L$_InitSystem$2$B:
    1452 000391 DC51          BTST #3, *port(#7202), TC1 ; |924| 
         000393 301C 
         000395 22   
    1453 000396 0474          BCC $C$L17,!TC1 ; |924| 
         000398 F8   
    1454                                                      ; branchcc occurs ; |924| 
    1455 000399       $C$DW$L$_InitSystem$2$E:
    1456 000399       $C$L18:    
    1457                      .dwpsn  file "../FreeRTOS/Demo/c5515_CCS/main.c",line 926,column 5,is_stmt
    1458 000399 E651          MOV #1, *port(#7199) ; |926| 
         00039b 011C 
         00039d 1F   
    1459                      .dwpsn  file "../FreeRTOS/Demo/c5515_CCS/main.c",line 930,column 5,is_stmt
    1460 00039e E651          MOV #0, *port(#7170) ; |930| 
         0003a0 001C 
         0003a2 02   
    1461                      .dwpsn  file "../FreeRTOS/Demo/c5515_CCS/main.c",line 931,column 5,is_stmt
    1462 0003a3 FB51          MOV #65412, *port(#7171) ; |931| 
         0003a5 FF84 
         0003a7 1C03 
    1463                      .dwpsn  file "../FreeRTOS/Demo/c5515_CCS/main.c",line 935,column 5,is_stmt
    1464 0003a9 E651          MOV #2, *port(#7172) ; |935| 
         0003ab 021C 
         0003ad 04   
    1465                      .dwpsn  file "../FreeRTOS/Demo/c5515_CCS/main.c",line 936,column 5,is_stmt
    1466 0003ae FB51          MOV #251, *port(#7173) ; |936| 
         0003b0 00FB 
         0003b2 1C05 
    1467                      .dwpsn  file "../FreeRTOS/Demo/c5515_CCS/main.c",line 937,column 10,is_stmt
    1468 0003b4 E600          MOV #0, *SP(#0) ; |937| 
         0003b6 00   
    1469                      .dwpsn  file "../FreeRTOS/Demo/c5515_CCS/main.c",line 937,column 15,is_stmt
    1470 0003b7 7600          MOV #200, AR2 ; |937| 
         0003b9 C8A8 
    1471 0003bb A900          MOV *SP(#0), AR1 ; |937| 
    1472 0003bd 1298          CMP AR1 >= AR2, TC1 ; |937| 
         0003bf A0   
    1473 0003c0 6664          BCC $C$L20,TC1 ; |937| 
    1474                                                      ; branchcc occurs ; |937| 
    1475 0003c2       $C$L19:    
    1476 0003c2       $C$DW$L$_InitSystem$4$B:
    1477                      .dwpsn  file "../FreeRTOS/Demo/c5515_CCS/main.c",line 937,column 23,is_stmt
    1478 0003c2 F700          ADD #1, *SP(#0) ; |937| 
         0003c4 0001 
    1479                      .dwpsn  file "../FreeRTOS/Demo/c5515_CCS/main.c",line 937,column 15,is_stmt
    1480 0003c6 A900          MOV *SP(#0), AR1 ; |937| 
    1481 0003c8 1294          CMP AR1 < AR2, TC1 ; |937| 
TMS320C55x Assembler PC v4.4.1 Sun Oct 07 10:05:05 2018

Tools Copyright (c) 1996-2012 Texas Instruments Incorporated
main.asm                                                             PAGE   33

         0003ca A0   
    1482 0003cb 0464          BCC $C$L19,TC1 ; |937| 
         0003cd F4   
    1483                                                      ; branchcc occurs ; |937| 
    1484 0003ce       $C$DW$L$_InitSystem$4$E:
    1485                      .dwpsn  file "../FreeRTOS/Demo/c5515_CCS/main.c",line 939,column 1,is_stmt
    1486 0003ce       $C$L20:    
    1487 0003ce 4E01          AADD #1, SP
    1488                      .dwcfi  cfa_offset, 1
    1489              $C$DW$145       .dwtag  DW_TAG_TI_branch
    1490                      .dwattr $C$DW$145, DW_AT_low_pc(0x00)
    1491                      .dwattr $C$DW$145, DW_AT_TI_return
    1492 0003d0 4804          RET
    1493                                                      ; return occurs
    1494              
    1495              $C$DW$146       .dwtag  DW_TAG_TI_loop
    1496                      .dwattr $C$DW$146, DW_AT_name("F:\eZdsp_DBG\tmp1\c55x-sim2\foo\Debug\main.asm:$C$L19:1:1538931905")
    1497                      .dwattr $C$DW$146, DW_AT_TI_begin_file("../FreeRTOS/Demo/c5515_CCS/main.c")
    1498                      .dwattr $C$DW$146, DW_AT_TI_begin_line(0x3a9)
    1499                      .dwattr $C$DW$146, DW_AT_TI_end_line(0x3a9)
    1500              $C$DW$147       .dwtag  DW_TAG_TI_loop_range
    1501                      .dwattr $C$DW$147, DW_AT_low_pc($C$DW$L$_InitSystem$4$B)
    1502                      .dwattr $C$DW$147, DW_AT_high_pc($C$DW$L$_InitSystem$4$E)
    1503                      .dwendtag $C$DW$146
    1504              
    1505              
    1506              $C$DW$148       .dwtag  DW_TAG_TI_loop
    1507                      .dwattr $C$DW$148, DW_AT_name("F:\eZdsp_DBG\tmp1\c55x-sim2\foo\Debug\main.asm:$C$L17:1:1538931905")
    1508                      .dwattr $C$DW$148, DW_AT_TI_begin_file("../FreeRTOS/Demo/c5515_CCS/main.c")
    1509                      .dwattr $C$DW$148, DW_AT_TI_begin_line(0x39c)
    1510                      .dwattr $C$DW$148, DW_AT_TI_end_line(0x39c)
    1511              $C$DW$149       .dwtag  DW_TAG_TI_loop_range
    1512                      .dwattr $C$DW$149, DW_AT_low_pc($C$DW$L$_InitSystem$2$B)
    1513                      .dwattr $C$DW$149, DW_AT_high_pc($C$DW$L$_InitSystem$2$E)
    1514                      .dwendtag $C$DW$148
    1515              
    1516                      .dwattr $C$DW$143, DW_AT_TI_end_file("../FreeRTOS/Demo/c5515_CCS/main.c")
    1517                      .dwattr $C$DW$143, DW_AT_TI_end_line(0x3ab)
    1518                      .dwattr $C$DW$143, DW_AT_TI_end_column(0x01)
    1519                      .dwendentry
    1520                      .dwendtag $C$DW$143
    1521              
    1522 0003d2               .sect   ".text"
    1523                      .align 4
    1524                      .global _ConfigPort
    1525              
    1526              $C$DW$150       .dwtag  DW_TAG_subprogram, DW_AT_name("ConfigPort")
    1527                      .dwattr $C$DW$150, DW_AT_low_pc(_ConfigPort)
    1528                      .dwattr $C$DW$150, DW_AT_high_pc(0x00)
    1529                      .dwattr $C$DW$150, DW_AT_TI_symbol_name("_ConfigPort")
    1530                      .dwattr $C$DW$150, DW_AT_external
    1531                      .dwattr $C$DW$150, DW_AT_TI_begin_file("../FreeRTOS/Demo/c5515_CCS/main.c")
    1532                      .dwattr $C$DW$150, DW_AT_TI_begin_line(0x3ac)
    1533                      .dwattr $C$DW$150, DW_AT_TI_begin_column(0x06)
    1534                      .dwattr $C$DW$150, DW_AT_TI_max_frame_size(0x01)
TMS320C55x Assembler PC v4.4.1 Sun Oct 07 10:05:05 2018

Tools Copyright (c) 1996-2012 Texas Instruments Incorporated
main.asm                                                             PAGE   34

    1535                      .dwpsn  file "../FreeRTOS/Demo/c5515_CCS/main.c",line 941,column 1,is_stmt,address _ConfigPort
    1536              
    1537                      .dwfde $C$DW$CIE, _ConfigPort
    1538              ;*******************************************************************************
    1539              ;* FUNCTION NAME: ConfigPort                                                   *
    1540              ;*                                                                             *
    1541              ;*   Function Uses Regs : SP,M40,SATA,SATD,RDM,FRCT,SMUL                       *
    1542              ;*   Stack Frame        : Compact (No Frame Pointer, w/ debug)                 *
    1543              ;*   Total Frame Size   : 1 word                                               *
    1544              ;*                        (1 return address/alignment)                         *
    1545              ;*   Min System Stack   : 1 word                                               *
    1546              ;*******************************************************************************
    1547 0003d4       _ConfigPort:
    1548                      .dwcfi  cfa_offset, 1
    1549                      .dwcfi  save_reg_to_mem, 91, -1
    1550                      .dwpsn  file "../FreeRTOS/Demo/c5515_CCS/main.c",line 943,column 5,is_stmt
    1551 0003d4 FB51          MOV #26880, *port(#7168) ; |943| 
         0003d6 6900 
         0003d8 1C00 
    1552                      .dwpsn  file "../FreeRTOS/Demo/c5515_CCS/main.c",line 945,column 1,is_stmt
    1553              $C$DW$151       .dwtag  DW_TAG_TI_branch
    1554                      .dwattr $C$DW$151, DW_AT_low_pc(0x00)
    1555                      .dwattr $C$DW$151, DW_AT_TI_return
    1556 0003da 4804          RET
    1557                                                      ; return occurs
    1558                      .dwattr $C$DW$150, DW_AT_TI_end_file("../FreeRTOS/Demo/c5515_CCS/main.c")
    1559                      .dwattr $C$DW$150, DW_AT_TI_end_line(0x3b1)
    1560                      .dwattr $C$DW$150, DW_AT_TI_end_column(0x01)
    1561                      .dwendentry
    1562                      .dwendtag $C$DW$150
    1563              
    1564 0003dc               .sect   ".text"
    1565                      .align 4
    1566                      .global _SYS_GlobalIntEnable
    1567              
    1568              $C$DW$152       .dwtag  DW_TAG_subprogram, DW_AT_name("SYS_GlobalIntEnable")
    1569                      .dwattr $C$DW$152, DW_AT_low_pc(_SYS_GlobalIntEnable)
    1570                      .dwattr $C$DW$152, DW_AT_high_pc(0x00)
    1571                      .dwattr $C$DW$152, DW_AT_TI_symbol_name("_SYS_GlobalIntEnable")
    1572                      .dwattr $C$DW$152, DW_AT_external
    1573                      .dwattr $C$DW$152, DW_AT_TI_begin_file("../FreeRTOS/Demo/c5515_CCS/main.c")
    1574                      .dwattr $C$DW$152, DW_AT_TI_begin_line(0x3b3)
    1575                      .dwattr $C$DW$152, DW_AT_TI_begin_column(0x06)
    1576                      .dwattr $C$DW$152, DW_AT_TI_max_frame_size(0x01)
    1577                      .dwpsn  file "../FreeRTOS/Demo/c5515_CCS/main.c",line 948,column 1,is_stmt,address _SYS_GlobalIntEnab
    1578              
    1579                      .dwfde $C$DW$CIE, _SYS_GlobalIntEnable
    1580              ;*******************************************************************************
    1581              ;* FUNCTION NAME: SYS_GlobalIntEnable                                          *
    1582              ;*                                                                             *
    1583              ;*   Function Uses Regs : SP,M40,SATA,SATD,RDM,FRCT,SMUL                       *
    1584              ;*   Stack Frame        : Compact (No Frame Pointer, w/ debug)                 *
    1585              ;*   Total Frame Size   : 1 word                                               *
    1586              ;*                        (1 return address/alignment)                         *
    1587              ;*   Min System Stack   : 1 word                                               *
TMS320C55x Assembler PC v4.4.1 Sun Oct 07 10:05:05 2018

Tools Copyright (c) 1996-2012 Texas Instruments Incorporated
main.asm                                                             PAGE   35

    1588              ;*******************************************************************************
    1589 0003dc       _SYS_GlobalIntEnable:
    1590                      .dwcfi  cfa_offset, 1
    1591                      .dwcfi  save_reg_to_mem, 91, -1
    1592                      .dwpsn  file "../FreeRTOS/Demo/c5515_CCS/main.c",line 956,column 2,is_stmt
    1593 0003dc 20     nop
    1594                      .dwpsn  file "../FreeRTOS/Demo/c5515_CCS/main.c",line 957,column 2,is_stmt
    1595 0003dd 46B2   bclr INTM
    1596                      .dwpsn  file "../FreeRTOS/Demo/c5515_CCS/main.c",line 958,column 1,is_stmt
    1597              $C$DW$153       .dwtag  DW_TAG_TI_branch
    1598                      .dwattr $C$DW$153, DW_AT_low_pc(0x00)
    1599                      .dwattr $C$DW$153, DW_AT_TI_return
    1600 0003df 4804          RET
    1601                                                      ; return occurs
    1602                      .dwattr $C$DW$152, DW_AT_TI_end_file("../FreeRTOS/Demo/c5515_CCS/main.c")
    1603                      .dwattr $C$DW$152, DW_AT_TI_end_line(0x3be)
    1604                      .dwattr $C$DW$152, DW_AT_TI_end_column(0x01)
    1605                      .dwendentry
    1606                      .dwendtag $C$DW$152
    1607              
    1608 0003e1               .sect   ".text"
    1609                      .align 4
    1610                      .global _SYS_GlobalIntDisable
    1611              
    1612              $C$DW$154       .dwtag  DW_TAG_subprogram, DW_AT_name("SYS_GlobalIntDisable")
    1613                      .dwattr $C$DW$154, DW_AT_low_pc(_SYS_GlobalIntDisable)
    1614                      .dwattr $C$DW$154, DW_AT_high_pc(0x00)
    1615                      .dwattr $C$DW$154, DW_AT_TI_symbol_name("_SYS_GlobalIntDisable")
    1616                      .dwattr $C$DW$154, DW_AT_external
    1617                      .dwattr $C$DW$154, DW_AT_TI_begin_file("../FreeRTOS/Demo/c5515_CCS/main.c")
    1618                      .dwattr $C$DW$154, DW_AT_TI_begin_line(0x3c0)
    1619                      .dwattr $C$DW$154, DW_AT_TI_begin_column(0x06)
    1620                      .dwattr $C$DW$154, DW_AT_TI_max_frame_size(0x01)
    1621                      .dwpsn  file "../FreeRTOS/Demo/c5515_CCS/main.c",line 962,column 1,is_stmt,address _SYS_GlobalIntDisa
    1622              
    1623                      .dwfde $C$DW$CIE, _SYS_GlobalIntDisable
    1624              ;*******************************************************************************
    1625              ;* FUNCTION NAME: SYS_GlobalIntDisable                                         *
    1626              ;*                                                                             *
    1627              ;*   Function Uses Regs : SP,M40,SATA,SATD,RDM,FRCT,SMUL                       *
    1628              ;*   Stack Frame        : Compact (No Frame Pointer, w/ debug)                 *
    1629              ;*   Total Frame Size   : 1 word                                               *
    1630              ;*                        (1 return address/alignment)                         *
    1631              ;*   Min System Stack   : 1 word                                               *
    1632              ;*******************************************************************************
    1633 0003e4       _SYS_GlobalIntDisable:
    1634                      .dwcfi  cfa_offset, 1
    1635                      .dwcfi  save_reg_to_mem, 91, -1
    1636                      .dwpsn  file "../FreeRTOS/Demo/c5515_CCS/main.c",line 968,column 2,is_stmt
    1637 0003e4 20     nop
    1638                      .dwpsn  file "../FreeRTOS/Demo/c5515_CCS/main.c",line 969,column 2,is_stmt
    1639 0003e5 46B3   bset INTM
    1640                      .dwpsn  file "../FreeRTOS/Demo/c5515_CCS/main.c",line 970,column 1,is_stmt
    1641              $C$DW$155       .dwtag  DW_TAG_TI_branch
    1642                      .dwattr $C$DW$155, DW_AT_low_pc(0x00)
TMS320C55x Assembler PC v4.4.1 Sun Oct 07 10:05:05 2018

Tools Copyright (c) 1996-2012 Texas Instruments Incorporated
main.asm                                                             PAGE   36

    1643                      .dwattr $C$DW$155, DW_AT_TI_return
    1644 0003e7 4804          RET
    1645                                                      ; return occurs
    1646                      .dwattr $C$DW$154, DW_AT_TI_end_file("../FreeRTOS/Demo/c5515_CCS/main.c")
    1647                      .dwattr $C$DW$154, DW_AT_TI_end_line(0x3ca)
    1648                      .dwattr $C$DW$154, DW_AT_TI_end_column(0x01)
    1649                      .dwendentry
    1650                      .dwendtag $C$DW$154
    1651              
    1652 0003e9               .sect   ".text"
    1653                      .align 4
    1654              
    1655              $C$DW$156       .dwtag  DW_TAG_subprogram, DW_AT_name("toggleLEDlocal")
    1656                      .dwattr $C$DW$156, DW_AT_low_pc(_toggleLEDlocal)
    1657                      .dwattr $C$DW$156, DW_AT_high_pc(0x00)
    1658                      .dwattr $C$DW$156, DW_AT_TI_symbol_name("_toggleLEDlocal")
    1659                      .dwattr $C$DW$156, DW_AT_TI_begin_file("../FreeRTOS/Demo/c5515_CCS/main.c")
    1660                      .dwattr $C$DW$156, DW_AT_TI_begin_line(0x3cc)
    1661                      .dwattr $C$DW$156, DW_AT_TI_begin_column(0x0d)
    1662                      .dwattr $C$DW$156, DW_AT_TI_max_frame_size(0x01)
    1663                      .dwpsn  file "../FreeRTOS/Demo/c5515_CCS/main.c",line 973,column 1,is_stmt,address _toggleLEDlocal
    1664              
    1665                      .dwfde $C$DW$CIE, _toggleLEDlocal
    1666              ;*******************************************************************************
    1667              ;* FUNCTION NAME: toggleLEDlocal                                               *
    1668              ;*                                                                             *
    1669              ;*   Function Uses Regs : SP,M40,SATA,SATD,RDM,FRCT,SMUL                       *
    1670              ;*   Stack Frame        : Compact (No Frame Pointer, w/ debug)                 *
    1671              ;*   Total Frame Size   : 1 word                                               *
    1672              ;*                        (1 return address/alignment)                         *
    1673              ;*   Min System Stack   : 1 word                                               *
    1674              ;*******************************************************************************
    1675 0003ec       _toggleLEDlocal:
    1676                      .dwcfi  cfa_offset, 1
    1677                      .dwcfi  save_reg_to_mem, 91, -1
    1678                      .dwpsn  file "../FreeRTOS/Demo/c5515_CCS/main.c",line 1062,column 1,is_stmt
    1679              $C$DW$157       .dwtag  DW_TAG_TI_branch
    1680                      .dwattr $C$DW$157, DW_AT_low_pc(0x00)
    1681                      .dwattr $C$DW$157, DW_AT_TI_return
    1682 0003ec 4804          RET
    1683                                                      ; return occurs
    1684                      .dwattr $C$DW$156, DW_AT_TI_end_file("../FreeRTOS/Demo/c5515_CCS/main.c")
    1685                      .dwattr $C$DW$156, DW_AT_TI_end_line(0x426)
    1686                      .dwattr $C$DW$156, DW_AT_TI_end_column(0x01)
    1687                      .dwendentry
    1688                      .dwendtag $C$DW$156
    1689              
    1690 0003ee               .sect   ".text"
    1691                      .align 4
    1692                      .global _BlinkLED
    1693              
    1694              $C$DW$158       .dwtag  DW_TAG_subprogram, DW_AT_name("BlinkLED")
    1695                      .dwattr $C$DW$158, DW_AT_low_pc(_BlinkLED)
    1696                      .dwattr $C$DW$158, DW_AT_high_pc(0x00)
    1697                      .dwattr $C$DW$158, DW_AT_TI_symbol_name("_BlinkLED")
TMS320C55x Assembler PC v4.4.1 Sun Oct 07 10:05:05 2018

Tools Copyright (c) 1996-2012 Texas Instruments Incorporated
main.asm                                                             PAGE   37

    1698                      .dwattr $C$DW$158, DW_AT_external
    1699                      .dwattr $C$DW$158, DW_AT_TI_begin_file("../FreeRTOS/Demo/c5515_CCS/main.c")
    1700                      .dwattr $C$DW$158, DW_AT_TI_begin_line(0x429)
    1701                      .dwattr $C$DW$158, DW_AT_TI_begin_column(0x06)
    1702                      .dwattr $C$DW$158, DW_AT_TI_max_frame_size(0x02)
    1703                      .dwpsn  file "../FreeRTOS/Demo/c5515_CCS/main.c",line 1066,column 1,is_stmt,address _BlinkLED
    1704              
    1705                      .dwfde $C$DW$CIE, _BlinkLED
    1706              ;*******************************************************************************
    1707              ;* FUNCTION NAME: BlinkLED                                                     *
    1708              ;*                                                                             *
    1709              ;*   Function Uses Regs : SP,TC1,M40,SATA,SATD,RDM,FRCT,SMUL                   *
    1710              ;*   Stack Frame        : Compact (No Frame Pointer, w/ debug)                 *
    1711              ;*   Total Frame Size   : 2 words                                              *
    1712              ;*                        (2 return address/alignment)                         *
    1713              ;*   Min System Stack   : 1 word                                               *
    1714              ;*******************************************************************************
    1715 0003f0       _BlinkLED:
    1716                      .dwcfi  cfa_offset, 1
    1717                      .dwcfi  save_reg_to_mem, 91, -1
    1718 0003f0 4EFF          AADD #-1, SP
    1719                      .dwcfi  cfa_offset, 2
    1720                      .dwpsn  file "../FreeRTOS/Demo/c5515_CCS/main.c",line 1068,column 2,is_stmt
    1721 0003f2 F031          CMP *(#_fSineWave) == #1, TC1 ; |1068| 
         0003f4 0001 
         0003f6 0000 
         0003f8 00-  
    1722 0003f9 0474          BCC $C$L21,!TC1 ; |1068| 
         0003fb 15   
    1723                                                      ; branchcc occurs ; |1068| 
    1724                      .dwpsn  file "../FreeRTOS/Demo/c5515_CCS/main.c",line 1070,column 6,is_stmt
    1725 0003fc F031          CMP *(#_Flag_RTC) == #1, TC1 ; |1070| 
         0003fe 0001 
         000400 0000 
         000402 00!  
    1726 000403 0474          BCC $C$L22,!TC1 ; |1070| 
         000405 1D   
    1727                                                      ; branchcc occurs ; |1070| 
    1728                      .dwpsn  file "../FreeRTOS/Demo/c5515_CCS/main.c",line 1072,column 9,is_stmt
    1729 000406 E631          MOV #0, *(#_Flag_RTC) ; |1072| 
         000408 0000 
         00040a 0000!
    1730                      .dwpsn  file "../FreeRTOS/Demo/c5515_CCS/main.c",line 1073,column 4,is_stmt
    1731              $C$DW$159       .dwtag  DW_TAG_TI_branch
    1732                      .dwattr $C$DW$159, DW_AT_low_pc(0x00)
    1733                      .dwattr $C$DW$159, DW_AT_name("_toggleLEDlocal")
    1734                      .dwattr $C$DW$159, DW_AT_TI_call
    1735 00040c 08FF          CALL #_toggleLEDlocal ; |1073| 
         00040e DD   
    1736                                                      ; call occurs [#_toggleLEDlocal] ; |1073| 
    1737                      .dwpsn  file "../FreeRTOS/Demo/c5515_CCS/main.c",line 1076,column 2,is_stmt
    1738 00040f 4A12          B $C$L22  ; |1076| 
    1739                                                      ; branch occurs ; |1076| 
    1740 000411       $C$L21:    
    1741                      .dwpsn  file "../FreeRTOS/Demo/c5515_CCS/main.c",line 1079,column 6,is_stmt
TMS320C55x Assembler PC v4.4.1 Sun Oct 07 10:05:05 2018

Tools Copyright (c) 1996-2012 Texas Instruments Incorporated
main.asm                                                             PAGE   38

    1742 000411 F031          CMP *(#_fTimer) == #1, TC1 ; |1079| 
         000413 0001 
         000415 0000 
         000417 00!  
    1743 000418 64F4          BCC $C$L22,!TC1 ; |1079| 
    1744                                                      ; branchcc occurs ; |1079| 
    1745                      .dwpsn  file "../FreeRTOS/Demo/c5515_CCS/main.c",line 1081,column 9,is_stmt
    1746 00041a E631          MOV #0, *(#_fTimer) ; |1081| 
         00041c 0000 
         00041e 0000!
    1747                      .dwpsn  file "../FreeRTOS/Demo/c5515_CCS/main.c",line 1082,column 4,is_stmt
    1748              $C$DW$160       .dwtag  DW_TAG_TI_branch
    1749                      .dwattr $C$DW$160, DW_AT_low_pc(0x00)
    1750                      .dwattr $C$DW$160, DW_AT_name("_toggleLEDlocal")
    1751                      .dwattr $C$DW$160, DW_AT_TI_call
    1752 000420 08FF          CALL #_toggleLEDlocal ; |1082| 
         000422 C9   
    1753                                                      ; call occurs [#_toggleLEDlocal] ; |1082| 
    1754                      .dwpsn  file "../FreeRTOS/Demo/c5515_CCS/main.c",line 1094,column 1,is_stmt
    1755 000423       $C$L22:    
    1756 000423 4E01          AADD #1, SP
    1757                      .dwcfi  cfa_offset, 1
    1758              $C$DW$161       .dwtag  DW_TAG_TI_branch
    1759                      .dwattr $C$DW$161, DW_AT_low_pc(0x00)
    1760                      .dwattr $C$DW$161, DW_AT_TI_return
    1761 000425 4804          RET
    1762                                                      ; return occurs
    1763                      .dwattr $C$DW$158, DW_AT_TI_end_file("../FreeRTOS/Demo/c5515_CCS/main.c")
    1764                      .dwattr $C$DW$158, DW_AT_TI_end_line(0x446)
    1765                      .dwattr $C$DW$158, DW_AT_TI_end_column(0x01)
    1766                      .dwendentry
    1767                      .dwendtag $C$DW$158
    1768              
    1769 000427               .sect   ".text"
    1770                      .align 4
    1771                      .global _GenerateAudioTone
    1772              
    1773              $C$DW$162       .dwtag  DW_TAG_subprogram, DW_AT_name("GenerateAudioTone")
    1774                      .dwattr $C$DW$162, DW_AT_low_pc(_GenerateAudioTone)
    1775                      .dwattr $C$DW$162, DW_AT_high_pc(0x00)
    1776                      .dwattr $C$DW$162, DW_AT_TI_symbol_name("_GenerateAudioTone")
    1777                      .dwattr $C$DW$162, DW_AT_external
    1778                      .dwattr $C$DW$162, DW_AT_TI_begin_file("../FreeRTOS/Demo/c5515_CCS/main.c")
    1779                      .dwattr $C$DW$162, DW_AT_TI_begin_line(0x448)
    1780                      .dwattr $C$DW$162, DW_AT_TI_begin_column(0x06)
    1781                      .dwattr $C$DW$162, DW_AT_TI_max_frame_size(0x02)
    1782                      .dwpsn  file "../FreeRTOS/Demo/c5515_CCS/main.c",line 1097,column 1,is_stmt,address _GenerateAudioTon
    1783              
    1784                      .dwfde $C$DW$CIE, _GenerateAudioTone
    1785              ;*******************************************************************************
    1786              ;* FUNCTION NAME: GenerateAudioTone                                            *
    1787              ;*                                                                             *
    1788              ;*   Function Uses Regs : AR1,AR2,SP,TC1,M40,SATA,SATD,RDM,FRCT,SMUL           *
    1789              ;*   Stack Frame        : Compact (No Frame Pointer, w/ debug)                 *
    1790              ;*   Total Frame Size   : 2 words                                              *
TMS320C55x Assembler PC v4.4.1 Sun Oct 07 10:05:05 2018

Tools Copyright (c) 1996-2012 Texas Instruments Incorporated
main.asm                                                             PAGE   39

    1791              ;*                        (2 return address/alignment)                         *
    1792              ;*   Min System Stack   : 1 word                                               *
    1793              ;*******************************************************************************
    1794 000428       _GenerateAudioTone:
    1795                      .dwcfi  cfa_offset, 1
    1796                      .dwcfi  save_reg_to_mem, 91, -1
    1797 000428 4EFF          AADD #-1, SP
    1798                      .dwcfi  cfa_offset, 2
    1799                      .dwpsn  file "../FreeRTOS/Demo/c5515_CCS/main.c",line 1098,column 2,is_stmt
    1800 00042a 3CAA          MOV #10, AR2
    1801 00042c A931          MOV *(#_Conunt_RTC), AR1 ; |1098| 
         00042e 0000 
         000430 00!  
    1802 000431 1298          CMPU AR1 >= AR2, TC1 ; |1098| 
         000433 A4   
    1803 000434 0464          BCC $C$L23,TC1 ; |1098| 
         000436 2F   
    1804                                                      ; branchcc occurs ; |1098| 
    1805                      .dwpsn  file "../FreeRTOS/Demo/c5515_CCS/main.c",line 1100,column 3,is_stmt
    1806 000437 F031          CMP *(#_f1KToneOn) == #1, TC1 ; |1100| 
         000439 0001 
         00043b 0000 
         00043d 01-  
    1807 00043e 0464          BCC $C$L25,TC1 ; |1100| 
         000440 6F   
    1808                                                      ; branchcc occurs ; |1100| 
    1809                      .dwpsn  file "../FreeRTOS/Demo/c5515_CCS/main.c",line 1101,column 4,is_stmt
    1810                      .dwpsn  file "../FreeRTOS/Demo/c5515_CCS/main.c",line 1103,column 3,is_stmt
    1811 000441 E631          MOV #1, *(#_fSineWave) ; |1103| 
         000443 0100 
         000445 0000-
    1812                      .dwpsn  file "../FreeRTOS/Demo/c5515_CCS/main.c",line 1104,column 3,is_stmt
    1813 000447 E631          MOV #1, *(#_f1KToneOn) ; |1104| 
         000449 0100 
         00044b 0001-
    1814                      .dwpsn  file "../FreeRTOS/Demo/c5515_CCS/main.c",line 1105,column 3,is_stmt
    1815 00044d E631          MOV #0, *(#_f2KToneOn) ; |1105| 
         00044f 0000 
         000451 0002-
    1816                      .dwpsn  file "../FreeRTOS/Demo/c5515_CCS/main.c",line 1106,column 9,is_stmt
    1817              $C$DW$163       .dwtag  DW_TAG_TI_branch
    1818                      .dwattr $C$DW$163, DW_AT_low_pc(0x00)
    1819                      .dwattr $C$DW$163, DW_AT_name("_set_dma0_ch0_stop")
    1820                      .dwattr $C$DW$163, DW_AT_TI_call
    1821 000453 6C00          CALL #_set_dma0_ch0_stop ; |1106| 
         000455 0000!
    1822                                                      ; call occurs [#_set_dma0_ch0_stop] ; |1106| 
    1823                      .dwpsn  file "../FreeRTOS/Demo/c5515_CCS/main.c",line 1107,column 6,is_stmt
    1824              $C$DW$164       .dwtag  DW_TAG_TI_branch
    1825                      .dwattr $C$DW$164, DW_AT_low_pc(0x00)
    1826                      .dwattr $C$DW$164, DW_AT_name("_set_dma0_ch1_stop")
    1827                      .dwattr $C$DW$164, DW_AT_TI_call
    1828 000457 6C00          CALL #_set_dma0_ch1_stop ; |1107| 
         000459 0000!
    1829                                                      ; call occurs [#_set_dma0_ch1_stop] ; |1107| 
TMS320C55x Assembler PC v4.4.1 Sun Oct 07 10:05:05 2018

Tools Copyright (c) 1996-2012 Texas Instruments Incorporated
main.asm                                                             PAGE   40

    1830                      .dwpsn  file "../FreeRTOS/Demo/c5515_CCS/main.c",line 1108,column 9,is_stmt
    1831              $C$DW$165       .dwtag  DW_TAG_TI_branch
    1832                      .dwattr $C$DW$165, DW_AT_low_pc(0x00)
    1833                      .dwattr $C$DW$165, DW_AT_name("_set_dma0_ch0_i2s0_Lout")
    1834                      .dwattr $C$DW$165, DW_AT_TI_call
    1835 00045b 6C00          CALL #_set_dma0_ch0_i2s0_Lout ; |1108| 
         00045d 0000!
    1836                                                      ; call occurs [#_set_dma0_ch0_i2s0_Lout] ; |1108| 
    1837                      .dwpsn  file "../FreeRTOS/Demo/c5515_CCS/main.c",line 1109,column 6,is_stmt
    1838              $C$DW$166       .dwtag  DW_TAG_TI_branch
    1839                      .dwattr $C$DW$166, DW_AT_low_pc(0x00)
    1840                      .dwattr $C$DW$166, DW_AT_name("_set_dma0_ch1_i2s0_Rout")
    1841                      .dwattr $C$DW$166, DW_AT_TI_call
    1842 00045f 6C00          CALL #_set_dma0_ch1_i2s0_Rout ; |1109| 
         000461 0000!
    1843                                                      ; call occurs [#_set_dma0_ch1_i2s0_Rout] ; |1109| 
    1844                      .dwpsn  file "../FreeRTOS/Demo/c5515_CCS/main.c",line 1110,column 2,is_stmt
    1845 000463 0600          B $C$L25  ; |1110| 
         000465 4A   
    1846                                                      ; branch occurs ; |1110| 
    1847 000466       $C$L23:    
    1848                      .dwpsn  file "../FreeRTOS/Demo/c5515_CCS/main.c",line 1111,column 7,is_stmt
    1849 000466 7600          MOV #20, AR2 ; |1111| 
         000468 14A8 
    1850 00046a 1298          CMPU AR1 >= AR2, TC1 ; |1111| 
         00046c A4   
    1851 00046d 0464          BCC $C$L24,TC1 ; |1111| 
         00046f 2E   
    1852                                                      ; branchcc occurs ; |1111| 
    1853                      .dwpsn  file "../FreeRTOS/Demo/c5515_CCS/main.c",line 1113,column 3,is_stmt
    1854 000470 F031          CMP *(#_f2KToneOn) == #1, TC1 ; |1113| 
         000472 0001 
         000474 0000 
         000476 02-  
    1855 000477 0464          BCC $C$L25,TC1 ; |1113| 
         000479 36   
    1856                                                      ; branchcc occurs ; |1113| 
    1857                      .dwpsn  file "../FreeRTOS/Demo/c5515_CCS/main.c",line 1114,column 4,is_stmt
    1858                      .dwpsn  file "../FreeRTOS/Demo/c5515_CCS/main.c",line 1116,column 3,is_stmt
    1859 00047a E631          MOV #0, *(#_fSineWave) ; |1116| 
         00047c 0000 
         00047e 0000-
    1860                      .dwpsn  file "../FreeRTOS/Demo/c5515_CCS/main.c",line 1117,column 3,is_stmt
    1861 000480 E631          MOV #0, *(#_f1KToneOn) ; |1117| 
         000482 0000 
         000484 0001-
    1862                      .dwpsn  file "../FreeRTOS/Demo/c5515_CCS/main.c",line 1118,column 3,is_stmt
    1863 000486 E631          MOV #1, *(#_f2KToneOn) ; |1118| 
         000488 0100 
         00048a 0002-
    1864                      .dwpsn  file "../FreeRTOS/Demo/c5515_CCS/main.c",line 1119,column 9,is_stmt
    1865              $C$DW$167       .dwtag  DW_TAG_TI_branch
    1866                      .dwattr $C$DW$167, DW_AT_low_pc(0x00)
    1867                      .dwattr $C$DW$167, DW_AT_name("_set_dma0_ch0_stop")
    1868                      .dwattr $C$DW$167, DW_AT_TI_call
TMS320C55x Assembler PC v4.4.1 Sun Oct 07 10:05:05 2018

Tools Copyright (c) 1996-2012 Texas Instruments Incorporated
main.asm                                                             PAGE   41

    1869 00048c 6C00          CALL #_set_dma0_ch0_stop ; |1119| 
         00048e 0000!
    1870                                                      ; call occurs [#_set_dma0_ch0_stop] ; |1119| 
    1871                      .dwpsn  file "../FreeRTOS/Demo/c5515_CCS/main.c",line 1120,column 6,is_stmt
    1872              $C$DW$168       .dwtag  DW_TAG_TI_branch
    1873                      .dwattr $C$DW$168, DW_AT_low_pc(0x00)
    1874                      .dwattr $C$DW$168, DW_AT_name("_set_dma0_ch1_stop")
    1875                      .dwattr $C$DW$168, DW_AT_TI_call
    1876 000490 6C00          CALL #_set_dma0_ch1_stop ; |1120| 
         000492 0000!
    1877                                                      ; call occurs [#_set_dma0_ch1_stop] ; |1120| 
    1878                      .dwpsn  file "../FreeRTOS/Demo/c5515_CCS/main.c",line 1121,column 9,is_stmt
    1879              $C$DW$169       .dwtag  DW_TAG_TI_branch
    1880                      .dwattr $C$DW$169, DW_AT_low_pc(0x00)
    1881                      .dwattr $C$DW$169, DW_AT_name("_set_dma0_ch0_i2s0_Lout")
    1882                      .dwattr $C$DW$169, DW_AT_TI_call
    1883 000494 6C00          CALL #_set_dma0_ch0_i2s0_Lout ; |1121| 
         000496 0000!
    1884                                                      ; call occurs [#_set_dma0_ch0_i2s0_Lout] ; |1121| 
    1885                      .dwpsn  file "../FreeRTOS/Demo/c5515_CCS/main.c",line 1122,column 6,is_stmt
    1886              $C$DW$170       .dwtag  DW_TAG_TI_branch
    1887                      .dwattr $C$DW$170, DW_AT_low_pc(0x00)
    1888                      .dwattr $C$DW$170, DW_AT_name("_set_dma0_ch1_i2s0_Rout")
    1889                      .dwattr $C$DW$170, DW_AT_TI_call
    1890 000498 6C00          CALL #_set_dma0_ch1_i2s0_Rout ; |1122| 
         00049a 0000!
    1891                                                      ; call occurs [#_set_dma0_ch1_i2s0_Rout] ; |1122| 
    1892                      .dwpsn  file "../FreeRTOS/Demo/c5515_CCS/main.c",line 1123,column 2,is_stmt
    1893 00049c 4A12          B $C$L25  ; |1123| 
    1894                                                      ; branch occurs ; |1123| 
    1895 00049e       $C$L24:    
    1896                      .dwpsn  file "../FreeRTOS/Demo/c5515_CCS/main.c",line 1126,column 3,is_stmt
    1897 00049e E631          MOV #0, *(#_Conunt_RTC) ; |1126| 
         0004a0 0000 
         0004a2 0000!
    1898                      .dwpsn  file "../FreeRTOS/Demo/c5515_CCS/main.c",line 1127,column 3,is_stmt
    1899 0004a4 E631          MOV #0, *(#_f1KToneOn) ; |1127| 
         0004a6 0000 
         0004a8 0001-
    1900                      .dwpsn  file "../FreeRTOS/Demo/c5515_CCS/main.c",line 1128,column 3,is_stmt
    1901 0004aa E631          MOV #1, *(#_f2KToneOn) ; |1128| 
         0004ac 0100 
         0004ae 0002-
    1902                      .dwpsn  file "../FreeRTOS/Demo/c5515_CCS/main.c",line 1131,column 1,is_stmt
    1903 0004b0       $C$L25:    
    1904 0004b0 4E01          AADD #1, SP
    1905                      .dwcfi  cfa_offset, 1
    1906              $C$DW$171       .dwtag  DW_TAG_TI_branch
    1907                      .dwattr $C$DW$171, DW_AT_low_pc(0x00)
    1908                      .dwattr $C$DW$171, DW_AT_TI_return
    1909 0004b2 4804          RET
    1910                                                      ; return occurs
    1911                      .dwattr $C$DW$162, DW_AT_TI_end_file("../FreeRTOS/Demo/c5515_CCS/main.c")
    1912                      .dwattr $C$DW$162, DW_AT_TI_end_line(0x46b)
    1913                      .dwattr $C$DW$162, DW_AT_TI_end_column(0x01)
TMS320C55x Assembler PC v4.4.1 Sun Oct 07 10:05:05 2018

Tools Copyright (c) 1996-2012 Texas Instruments Incorporated
main.asm                                                             PAGE   42

    1914                      .dwendentry
    1915                      .dwendtag $C$DW$162
    1916              
    1917 0004b4               .sect   ".text"
    1918                      .align 4
    1919                      .global _systemInit
    1920              
    1921              $C$DW$172       .dwtag  DW_TAG_subprogram, DW_AT_name("systemInit")
    1922                      .dwattr $C$DW$172, DW_AT_low_pc(_systemInit)
    1923                      .dwattr $C$DW$172, DW_AT_high_pc(0x00)
    1924                      .dwattr $C$DW$172, DW_AT_TI_symbol_name("_systemInit")
    1925                      .dwattr $C$DW$172, DW_AT_external
    1926                      .dwattr $C$DW$172, DW_AT_TI_begin_file("../FreeRTOS/Demo/c5515_CCS/main.c")
    1927                      .dwattr $C$DW$172, DW_AT_TI_begin_line(0x46c)
    1928                      .dwattr $C$DW$172, DW_AT_TI_begin_column(0x06)
    1929                      .dwattr $C$DW$172, DW_AT_TI_max_frame_size(0x14)
    1930                      .dwpsn  file "../FreeRTOS/Demo/c5515_CCS/main.c",line 1133,column 1,is_stmt,address _systemInit
    1931              
    1932                      .dwfde $C$DW$CIE, _systemInit
    1933              ;*******************************************************************************
    1934              ;* FUNCTION NAME: systemInit                                                   *
    1935              ;*                                                                             *
    1936              ;*   Function Uses Regs : AC0,AC0,T0,AR0,XAR0,AR1,XAR1,AR2,XAR2,AR3,XAR3,SP,   *
    1937              ;*                        CSR,RPTC,CARRY,TC1,M40,SATA,SATD,RDM,FRCT,SMUL       *
    1938              ;*   Stack Frame        : Compact (No Frame Pointer, w/ debug)                 *
    1939              ;*   Total Frame Size   : 20 words                                             *
    1940              ;*                        (2 return address/alignment)                         *
    1941              ;*                        (18 local values)                                    *
    1942              ;*   Min System Stack   : 1 word                                               *
    1943              ;*******************************************************************************
    1944 0004b4       _systemInit:
    1945                      .dwcfi  cfa_offset, 1
    1946                      .dwcfi  save_reg_to_mem, 91, -1
    1947 0004b4 4EED          AADD #-19, SP
    1948                      .dwcfi  cfa_offset, 20
    1949              $C$DW$173       .dwtag  DW_TAG_variable, DW_AT_name("i")
    1950                      .dwattr $C$DW$173, DW_AT_TI_symbol_name("_i")
    1951                      .dwattr $C$DW$173, DW_AT_type(*$C$DW$T$21)
    1952                      .dwattr $C$DW$173, DW_AT_location[DW_OP_bregx 0x24 0]
    1953              $C$DW$174       .dwtag  DW_TAG_variable, DW_AT_name("pllObj")
    1954                      .dwattr $C$DW$174, DW_AT_TI_symbol_name("_pllObj")
    1955                      .dwattr $C$DW$174, DW_AT_type(*$C$DW$T$37)
    1956                      .dwattr $C$DW$174, DW_AT_location[DW_OP_bregx 0x24 2]
    1957              $C$DW$175       .dwtag  DW_TAG_variable, DW_AT_name("status")
    1958                      .dwattr $C$DW$175, DW_AT_TI_symbol_name("_status")
    1959                      .dwattr $C$DW$175, DW_AT_type(*$C$DW$T$89)
    1960                      .dwattr $C$DW$175, DW_AT_location[DW_OP_bregx 0x24 8]
    1961              $C$DW$176       .dwtag  DW_TAG_variable, DW_AT_name("hPll")
    1962                      .dwattr $C$DW$176, DW_AT_TI_symbol_name("_hPll")
    1963                      .dwattr $C$DW$176, DW_AT_type(*$C$DW$T$40)
    1964                      .dwattr $C$DW$176, DW_AT_location[DW_OP_bregx 0x24 10]
    1965              $C$DW$177       .dwtag  DW_TAG_variable, DW_AT_name("pConfigInfo")
    1966                      .dwattr $C$DW$177, DW_AT_TI_symbol_name("_pConfigInfo")
    1967                      .dwattr $C$DW$177, DW_AT_type(*$C$DW$T$29)
    1968                      .dwattr $C$DW$177, DW_AT_location[DW_OP_bregx 0x24 12]
TMS320C55x Assembler PC v4.4.1 Sun Oct 07 10:05:05 2018

Tools Copyright (c) 1996-2012 Texas Instruments Incorporated
main.asm                                                             PAGE   43

    1969              $C$DW$178       .dwtag  DW_TAG_variable, DW_AT_name("pllCfg_v2_100MHz")
    1970                      .dwattr $C$DW$178, DW_AT_TI_symbol_name("_pllCfg_v2_100MHz")
    1971                      .dwattr $C$DW$178, DW_AT_type(*$C$DW$T$28)
    1972                      .dwattr $C$DW$178, DW_AT_location[DW_OP_bregx 0x24 14]
    1973                      .dwpsn  file "../FreeRTOS/Demo/c5515_CCS/main.c",line 1140,column 16,is_stmt
    1974 0004b6 EC31          AMOV #_$P$T0$2, XAR3 ; |1140| 
         0004b8 BE00 
         0004ba 0000+
    1975              
    1976 0004bf 4D03          RPT #3    ; |1140| 
    1977 0004bc EC1C  ||      AMAR *SP(#14), XAR2
         0004be AE   
    1978              
    1979                                                          ; loop starts ; |1140| 
    1980 0004c1       $C$L26:    
    1981 0004c1       $C$DW$L$_systemInit$2$B:
    1982 0004c1 8065              MOV *AR3+, *AR2+ ; |1140| 
         0004c3 14   
    1983                                                      ; loop ends ; |1140| 
    1984 0004c4       $C$DW$L$_systemInit$2$E:
    1985 0004c4       $C$L27:    
    1986                      .dwpsn  file "../FreeRTOS/Demo/c5515_CCS/main.c",line 1144,column 5,is_stmt
    1987 0004c4 FB51          MOV #65326, *port(#1) ; |1144| 
         0004c6 FF2E 
         0004c8 0001 
    1988                      .dwpsn  file "../FreeRTOS/Demo/c5515_CCS/main.c",line 1145,column 5,is_stmt
    1989 0004ca 7A00   IDLE
         0004cc 000C 
    1990                      .dwpsn  file "../FreeRTOS/Demo/c5515_CCS/main.c",line 1148,column 5,is_stmt
    1991 0004ce 3C00          MOV #0, AC0 ; |1148| 
    1992 0004d0 A951          MOV *port(#7172), AR1 ; |1148| 
         0004d2 1C04 
    1993 0004d4 EC02          BSET @#1, AC0 ; |1148| 
         0004d6 00   
    1994 0004d7 C051          MOV AC0, *port(#7172) ; |1148| 
         0004d9 1C04 
    1995                      .dwpsn  file "../FreeRTOS/Demo/c5515_CCS/main.c",line 1149,column 5,is_stmt
    1996 0004db FB51          MOV #251, *port(#7173) ; |1149| 
         0004dd 00FB 
         0004df 1C05 
    1997                      .dwpsn  file "../FreeRTOS/Demo/c5515_CCS/main.c",line 1152,column 10,is_stmt
    1998 0004e1 E600          MOV #0, *SP(#0) ; |1152| 
         0004e3 00   
    1999                      .dwpsn  file "../FreeRTOS/Demo/c5515_CCS/main.c",line 1152,column 15,is_stmt
    2000 0004e4 7600          MOV #200, AR2 ; |1152| 
         0004e6 C8A8 
    2001 0004e8 A900          MOV *SP(#0), AR1 ; |1152| 
    2002 0004ea 1298          CMPU AR1 >= AR2, TC1 ; |1152| 
         0004ec A4   
    2003 0004ed 6664          BCC $C$L29,TC1 ; |1152| 
    2004                                                      ; branchcc occurs ; |1152| 
    2005 0004ef       $C$L28:    
    2006 0004ef       $C$DW$L$_systemInit$4$B:
    2007                      .dwpsn  file "../FreeRTOS/Demo/c5515_CCS/main.c",line 1152,column 23,is_stmt
    2008 0004ef F700          ADD #1, *SP(#0) ; |1152| 
TMS320C55x Assembler PC v4.4.1 Sun Oct 07 10:05:05 2018

Tools Copyright (c) 1996-2012 Texas Instruments Incorporated
main.asm                                                             PAGE   44

         0004f1 0001 
    2009                      .dwpsn  file "../FreeRTOS/Demo/c5515_CCS/main.c",line 1152,column 15,is_stmt
    2010 0004f3 A900          MOV *SP(#0), AR1 ; |1152| 
    2011 0004f5 1294          CMPU AR1 < AR2, TC1 ; |1152| 
         0004f7 A4   
    2012 0004f8 0464          BCC $C$L28,TC1 ; |1152| 
         0004fa F4   
    2013                                                      ; branchcc occurs ; |1152| 
    2014 0004fb       $C$DW$L$_systemInit$4$E:
    2015 0004fb       $C$L29:    
    2016                      .dwpsn  file "../FreeRTOS/Demo/c5515_CCS/main.c",line 1155,column 5,is_stmt
    2017 0004fb EC04          AMAR *SP(#2), XAR0
         0004fd 8E   
    2018              $C$DW$179       .dwtag  DW_TAG_TI_branch
    2019                      .dwattr $C$DW$179, DW_AT_low_pc(0x00)
    2020                      .dwattr $C$DW$179, DW_AT_name("_PLL_init")
    2021                      .dwattr $C$DW$179, DW_AT_TI_call
    2022              
    2023 0004fe 6C00          CALL #_PLL_init ; |1155| 
         000500 0000!
    2024 000502 3D00  ||      MOV #0, AC0 ; |1155| 
    2025              
    2026                                                      ; call occurs [#_PLL_init] ; |1155| 
    2027 000504 C410          MOV T0, *SP(#8) ; |1155| 
    2028                      .dwpsn  file "../FreeRTOS/Demo/c5515_CCS/main.c",line 1156,column 5,is_stmt
    2029 000506 EC04          AMAR *SP(#2), XAR3
         000508 BE   
    2030 000509 EB14          MOV XAR3, dbl(*SP(#10))
         00050b B5   
    2031                      .dwpsn  file "../FreeRTOS/Demo/c5515_CCS/main.c",line 1157,column 5,is_stmt
    2032 00050c ED14          MOV dbl(*SP(#10)), XAR0
         00050e 8F   
    2033              $C$DW$180       .dwtag  DW_TAG_TI_branch
    2034                      .dwattr $C$DW$180, DW_AT_low_pc(0x00)
    2035                      .dwattr $C$DW$180, DW_AT_name("_PLL_reset")
    2036                      .dwattr $C$DW$180, DW_AT_TI_call
    2037 00050f 6C00          CALL #_PLL_reset ; |1157| 
         000511 0000!
    2038                                                      ; call occurs [#_PLL_reset] ; |1157| 
    2039                      .dwpsn  file "../FreeRTOS/Demo/c5515_CCS/main.c",line 1158,column 5,is_stmt
    2040 000513 EC1C          AMAR *SP(#14), XAR3
         000515 BE   
    2041 000516 EB18          MOV XAR3, dbl(*SP(#12))
         000518 B5   
    2042                      .dwpsn  file "../FreeRTOS/Demo/c5515_CCS/main.c",line 1160,column 5,is_stmt
    2043 000519 ED14          MOV dbl(*SP(#10)), XAR0
         00051b 8F   
    2044 00051c ED18          MOV dbl(*SP(#12)), XAR1
         00051e 9F   
    2045              $C$DW$181       .dwtag  DW_TAG_TI_branch
    2046                      .dwattr $C$DW$181, DW_AT_low_pc(0x00)
    2047                      .dwattr $C$DW$181, DW_AT_name("_PLL_config")
    2048                      .dwattr $C$DW$181, DW_AT_TI_call
    2049 00051f 6C00          CALL #_PLL_config ; |1160| 
         000521 0000!
TMS320C55x Assembler PC v4.4.1 Sun Oct 07 10:05:05 2018

Tools Copyright (c) 1996-2012 Texas Instruments Incorporated
main.asm                                                             PAGE   45

    2050                                                      ; call occurs [#_PLL_config] ; |1160| 
    2051 000523 C410          MOV T0, *SP(#8) ; |1160| 
    2052                      .dwpsn  file "../FreeRTOS/Demo/c5515_CCS/main.c",line 1167,column 5,is_stmt
    2053 000525 E651          MOV #1, *port(#7199) ; |1167| 
         000527 011C 
         000529 1F   
    2054                      .dwpsn  file "../FreeRTOS/Demo/c5515_CCS/main.c",line 1170,column 6,is_stmt
    2055 00052a A951          MOV *port(#7204), AR1 ; |1170| 
         00052c 1C24 
    2056 00052e 7DFF          AND #0xfff0, AR1, AR1 ; |1170| 
         000530 F099 
    2057 000532 1A0B          OR #0x000b, AR1, AR1 ; |1170| 
         000534 99   
    2058 000535 C951          MOV AR1, *port(#7204) ; |1170| 
         000537 1C24 
    2059                      .dwpsn  file "../FreeRTOS/Demo/c5515_CCS/main.c",line 1171,column 1,is_stmt
    2060 000539 4E13          AADD #19, SP
    2061                      .dwcfi  cfa_offset, 1
    2062              $C$DW$182       .dwtag  DW_TAG_TI_branch
    2063                      .dwattr $C$DW$182, DW_AT_low_pc(0x00)
    2064                      .dwattr $C$DW$182, DW_AT_TI_return
    2065 00053b 4804          RET
    2066                                                      ; return occurs
    2067              
    2068              $C$DW$183       .dwtag  DW_TAG_TI_loop
    2069                      .dwattr $C$DW$183, DW_AT_name("F:\eZdsp_DBG\tmp1\c55x-sim2\foo\Debug\main.asm:$C$L28:1:1538931905")
    2070                      .dwattr $C$DW$183, DW_AT_TI_begin_file("../FreeRTOS/Demo/c5515_CCS/main.c")
    2071                      .dwattr $C$DW$183, DW_AT_TI_begin_line(0x480)
    2072                      .dwattr $C$DW$183, DW_AT_TI_end_line(0x480)
    2073              $C$DW$184       .dwtag  DW_TAG_TI_loop_range
    2074                      .dwattr $C$DW$184, DW_AT_low_pc($C$DW$L$_systemInit$4$B)
    2075                      .dwattr $C$DW$184, DW_AT_high_pc($C$DW$L$_systemInit$4$E)
    2076                      .dwendtag $C$DW$183
    2077              
    2078              
    2079              $C$DW$185       .dwtag  DW_TAG_TI_loop
    2080                      .dwattr $C$DW$185, DW_AT_name("F:\eZdsp_DBG\tmp1\c55x-sim2\foo\Debug\main.asm:$C$L26:1:1538931905")
    2081                      .dwattr $C$DW$185, DW_AT_TI_begin_file("../FreeRTOS/Demo/c5515_CCS/main.c")
    2082                      .dwattr $C$DW$185, DW_AT_TI_begin_line(0x474)
    2083                      .dwattr $C$DW$185, DW_AT_TI_end_line(0x474)
    2084              $C$DW$186       .dwtag  DW_TAG_TI_loop_range
    2085                      .dwattr $C$DW$186, DW_AT_low_pc($C$DW$L$_systemInit$2$B)
    2086                      .dwattr $C$DW$186, DW_AT_high_pc($C$DW$L$_systemInit$2$E)
    2087                      .dwendtag $C$DW$185
    2088              
    2089                      .dwattr $C$DW$172, DW_AT_TI_end_file("../FreeRTOS/Demo/c5515_CCS/main.c")
    2090                      .dwattr $C$DW$172, DW_AT_TI_end_line(0x493)
    2091                      .dwattr $C$DW$172, DW_AT_TI_end_column(0x01)
    2092                      .dwendentry
    2093                      .dwendtag $C$DW$172
    2094              
    2095 00053d               .sect   ".text"
    2096                      .align 4
    2097                      .global _vApplicationMallocFailedHook
    2098              
TMS320C55x Assembler PC v4.4.1 Sun Oct 07 10:05:05 2018

Tools Copyright (c) 1996-2012 Texas Instruments Incorporated
main.asm                                                             PAGE   46

    2099              $C$DW$187       .dwtag  DW_TAG_subprogram, DW_AT_name("vApplicationMallocFailedHook")
    2100                      .dwattr $C$DW$187, DW_AT_low_pc(_vApplicationMallocFailedHook)
    2101                      .dwattr $C$DW$187, DW_AT_high_pc(0x00)
    2102                      .dwattr $C$DW$187, DW_AT_TI_symbol_name("_vApplicationMallocFailedHook")
    2103                      .dwattr $C$DW$187, DW_AT_external
    2104                      .dwattr $C$DW$187, DW_AT_TI_begin_file("../FreeRTOS/Demo/c5515_CCS/main.c")
    2105                      .dwattr $C$DW$187, DW_AT_TI_begin_line(0x495)
    2106                      .dwattr $C$DW$187, DW_AT_TI_begin_column(0x06)
    2107                      .dwattr $C$DW$187, DW_AT_TI_max_frame_size(0x01)
    2108                      .dwpsn  file "../FreeRTOS/Demo/c5515_CCS/main.c",line 1174,column 1,is_stmt,address _vApplicationMall
    2109              
    2110                      .dwfde $C$DW$CIE, _vApplicationMallocFailedHook
    2111              ;*******************************************************************************
    2112              ;* FUNCTION NAME: vApplicationMallocFailedHook                                 *
    2113              ;*                                                                             *
    2114              ;*   Function Uses Regs : SP,M40,SATA,SATD,RDM,FRCT,SMUL                       *
    2115              ;*   Stack Frame        : Compact (No Frame Pointer, w/ debug)                 *
    2116              ;*   Total Frame Size   : 1 word                                               *
    2117              ;*                        (1 return address/alignment)                         *
    2118              ;*   Min System Stack   : 1 word                                               *
    2119              ;*******************************************************************************
    2120 000540       _vApplicationMallocFailedHook:
    2121                      .dwcfi  cfa_offset, 1
    2122                      .dwcfi  save_reg_to_mem, 91, -1
    2123                      .dwpsn  file "../FreeRTOS/Demo/c5515_CCS/main.c",line 1179,column 2,is_stmt
    2124 000540 20     nop
    2125 000541 46B3   bset INTM
    2126 000543       $C$L30:    
    2127 000543       $C$DW$L$_vApplicationMallocFailedHook$2$B:
    2128                      .dwpsn  file "../FreeRTOS/Demo/c5515_CCS/main.c",line 1180,column 2,is_stmt
    2129 000543 4A7E          B $C$L30  ; |1180| 
    2130                                                      ; branch occurs ; |1180| 
    2131              $C$DW$L$_vApplicationMallocFailedHook$2$E:
    2132              
    2133              $C$DW$188       .dwtag  DW_TAG_TI_loop
    2134                      .dwattr $C$DW$188, DW_AT_name("F:\eZdsp_DBG\tmp1\c55x-sim2\foo\Debug\main.asm:$C$L30:1:1538931905")
    2135                      .dwattr $C$DW$188, DW_AT_TI_begin_file("../FreeRTOS/Demo/c5515_CCS/main.c")
    2136                      .dwattr $C$DW$188, DW_AT_TI_begin_line(0x49c)
    2137                      .dwattr $C$DW$188, DW_AT_TI_end_line(0x49c)
    2138              $C$DW$189       .dwtag  DW_TAG_TI_loop_range
    2139                      .dwattr $C$DW$189, DW_AT_low_pc($C$DW$L$_vApplicationMallocFailedHook$2$B)
    2140                      .dwattr $C$DW$189, DW_AT_high_pc($C$DW$L$_vApplicationMallocFailedHook$2$E)
    2141                      .dwendtag $C$DW$188
    2142              
    2143                      .dwattr $C$DW$187, DW_AT_TI_end_file("../FreeRTOS/Demo/c5515_CCS/main.c")
    2144                      .dwattr $C$DW$187, DW_AT_TI_end_line(0x49d)
    2145                      .dwattr $C$DW$187, DW_AT_TI_end_column(0x01)
    2146                      .dwendentry
    2147                      .dwendtag $C$DW$187
    2148              
    2149 000545               .sect   ".text"
    2150                      .align 4
    2151                      .global _vApplicationStackOverflowHook
    2152              
    2153              $C$DW$190       .dwtag  DW_TAG_subprogram, DW_AT_name("vApplicationStackOverflowHook")
TMS320C55x Assembler PC v4.4.1 Sun Oct 07 10:05:05 2018

Tools Copyright (c) 1996-2012 Texas Instruments Incorporated
main.asm                                                             PAGE   47

    2154                      .dwattr $C$DW$190, DW_AT_low_pc(_vApplicationStackOverflowHook)
    2155                      .dwattr $C$DW$190, DW_AT_high_pc(0x00)
    2156                      .dwattr $C$DW$190, DW_AT_TI_symbol_name("_vApplicationStackOverflowHook")
    2157                      .dwattr $C$DW$190, DW_AT_external
    2158                      .dwattr $C$DW$190, DW_AT_TI_begin_file("../FreeRTOS/Demo/c5515_CCS/main.c")
    2159                      .dwattr $C$DW$190, DW_AT_TI_begin_line(0x4a0)
    2160                      .dwattr $C$DW$190, DW_AT_TI_begin_column(0x06)
    2161                      .dwattr $C$DW$190, DW_AT_TI_max_frame_size(0x06)
    2162                      .dwpsn  file "../FreeRTOS/Demo/c5515_CCS/main.c",line 1185,column 1,is_stmt,address _vApplicationStac
    2163              
    2164                      .dwfde $C$DW$CIE, _vApplicationStackOverflowHook
    2165              $C$DW$191       .dwtag  DW_TAG_formal_parameter, DW_AT_name("pxTask")
    2166                      .dwattr $C$DW$191, DW_AT_TI_symbol_name("_pxTask")
    2167                      .dwattr $C$DW$191, DW_AT_type(*$C$DW$T$59)
    2168                      .dwattr $C$DW$191, DW_AT_location[DW_OP_reg17]
    2169              $C$DW$192       .dwtag  DW_TAG_formal_parameter, DW_AT_name("pcTaskName")
    2170                      .dwattr $C$DW$192, DW_AT_TI_symbol_name("_pcTaskName")
    2171                      .dwattr $C$DW$192, DW_AT_type(*$C$DW$T$68)
    2172                      .dwattr $C$DW$192, DW_AT_location[DW_OP_reg19]
    2173              ;*******************************************************************************
    2174              ;* FUNCTION NAME: vApplicationStackOverflowHook                                *
    2175              ;*                                                                             *
    2176              ;*   Function Uses Regs : AR0,XAR0,AR1,XAR1,SP,M40,SATA,SATD,RDM,FRCT,SMUL     *
    2177              ;*   Stack Frame        : Compact (No Frame Pointer, w/ debug)                 *
    2178              ;*   Total Frame Size   : 6 words                                              *
    2179              ;*                        (2 return address/alignment)                         *
    2180              ;*                        (4 local values)                                     *
    2181              ;*   Min System Stack   : 1 word                                               *
    2182              ;*******************************************************************************
    2183 000548       _vApplicationStackOverflowHook:
    2184                      .dwcfi  cfa_offset, 1
    2185                      .dwcfi  save_reg_to_mem, 91, -1
    2186 000548 4EFB          AADD #-5, SP
    2187                      .dwcfi  cfa_offset, 6
    2188              $C$DW$193       .dwtag  DW_TAG_variable, DW_AT_name("pxTask")
    2189                      .dwattr $C$DW$193, DW_AT_TI_symbol_name("_pxTask")
    2190                      .dwattr $C$DW$193, DW_AT_type(*$C$DW$T$59)
    2191                      .dwattr $C$DW$193, DW_AT_location[DW_OP_bregx 0x24 0]
    2192              $C$DW$194       .dwtag  DW_TAG_variable, DW_AT_name("pcTaskName")
    2193                      .dwattr $C$DW$194, DW_AT_TI_symbol_name("_pcTaskName")
    2194                      .dwattr $C$DW$194, DW_AT_type(*$C$DW$T$68)
    2195                      .dwattr $C$DW$194, DW_AT_location[DW_OP_bregx 0x24 2]
    2196 00054a EB04          MOV XAR1, dbl(*SP(#2))
         00054c 95   
    2197 00054d EB00          MOV XAR0, dbl(*SP(#0))
         00054f 85   
    2198                      .dwpsn  file "../FreeRTOS/Demo/c5515_CCS/main.c",line 1186,column 2,is_stmt
    2199                      .dwpsn  file "../FreeRTOS/Demo/c5515_CCS/main.c",line 1187,column 2,is_stmt
    2200                      .dwpsn  file "../FreeRTOS/Demo/c5515_CCS/main.c",line 1192,column 2,is_stmt
    2201 000550 20     nop
    2202 000551 46B3   bset INTM
    2203 000553       $C$L31:    
    2204 000553       $C$DW$L$_vApplicationStackOverflowHook$2$B:
    2205                      .dwpsn  file "../FreeRTOS/Demo/c5515_CCS/main.c",line 1193,column 2,is_stmt
    2206 000553 4A7E          B $C$L31  ; |1193| 
TMS320C55x Assembler PC v4.4.1 Sun Oct 07 10:05:05 2018

Tools Copyright (c) 1996-2012 Texas Instruments Incorporated
main.asm                                                             PAGE   48

    2207                                                      ; branch occurs ; |1193| 
    2208 000555       $C$DW$L$_vApplicationStackOverflowHook$2$E:
    2209                      .dwcfi  cfa_offset, 1
    2210              
    2211              $C$DW$195       .dwtag  DW_TAG_TI_loop
    2212                      .dwattr $C$DW$195, DW_AT_name("F:\eZdsp_DBG\tmp1\c55x-sim2\foo\Debug\main.asm:$C$L31:1:1538931905")
    2213                      .dwattr $C$DW$195, DW_AT_TI_begin_file("../FreeRTOS/Demo/c5515_CCS/main.c")
    2214                      .dwattr $C$DW$195, DW_AT_TI_begin_line(0x4a9)
    2215                      .dwattr $C$DW$195, DW_AT_TI_end_line(0x4a9)
    2216              $C$DW$196       .dwtag  DW_TAG_TI_loop_range
    2217                      .dwattr $C$DW$196, DW_AT_low_pc($C$DW$L$_vApplicationStackOverflowHook$2$B)
    2218                      .dwattr $C$DW$196, DW_AT_high_pc($C$DW$L$_vApplicationStackOverflowHook$2$E)
    2219                      .dwendtag $C$DW$195
    2220              
    2221                      .dwattr $C$DW$190, DW_AT_TI_end_file("../FreeRTOS/Demo/c5515_CCS/main.c")
    2222                      .dwattr $C$DW$190, DW_AT_TI_end_line(0x4aa)
    2223                      .dwattr $C$DW$190, DW_AT_TI_end_column(0x01)
    2224                      .dwendentry
    2225                      .dwendtag $C$DW$190
    2226              
    2227 000555               .sect   ".text"
    2228                      .align 4
    2229                      .global _LED_TaskBlue
    2230              
    2231              $C$DW$197       .dwtag  DW_TAG_subprogram, DW_AT_name("LED_TaskBlue")
    2232                      .dwattr $C$DW$197, DW_AT_low_pc(_LED_TaskBlue)
    2233                      .dwattr $C$DW$197, DW_AT_high_pc(0x00)
    2234                      .dwattr $C$DW$197, DW_AT_TI_symbol_name("_LED_TaskBlue")
    2235                      .dwattr $C$DW$197, DW_AT_external
    2236                      .dwattr $C$DW$197, DW_AT_TI_begin_file("../FreeRTOS/Demo/c5515_CCS/main.c")
    2237                      .dwattr $C$DW$197, DW_AT_TI_begin_line(0x4ac)
    2238                      .dwattr $C$DW$197, DW_AT_TI_begin_column(0x06)
    2239                      .dwattr $C$DW$197, DW_AT_TI_max_frame_size(0x04)
    2240                      .dwpsn  file "../FreeRTOS/Demo/c5515_CCS/main.c",line 1197,column 1,is_stmt,address _LED_TaskBlue
    2241              
    2242                      .dwfde $C$DW$CIE, _LED_TaskBlue
    2243              $C$DW$198       .dwtag  DW_TAG_formal_parameter, DW_AT_name("pvParameters")
    2244                      .dwattr $C$DW$198, DW_AT_TI_symbol_name("_pvParameters")
    2245                      .dwattr $C$DW$198, DW_AT_type(*$C$DW$T$3)
    2246                      .dwattr $C$DW$198, DW_AT_location[DW_OP_reg17]
    2247              ;*******************************************************************************
    2248              ;* FUNCTION NAME: LED_TaskBlue                                                 *
    2249              ;*                                                                             *
    2250              ;*   Function Uses Regs : AC0,AC0,T0,T2,AR0,XAR0,SP,CARRY,TC1,M40,SATA,SATD,   *
    2251              ;*                        RDM,FRCT,SMUL                                        *
    2252              ;*   Save On Entry Regs : T2                                                   *
    2253              ;*   Stack Frame        : Compact (No Frame Pointer, w/ debug)                 *
    2254              ;*   Total Frame Size   : 4 words                                              *
    2255              ;*                        (1 return address/alignment)                         *
    2256              ;*                        (2 local values)                                     *
    2257              ;*                        (1 register save area)                               *
    2258              ;*   Min System Stack   : 1 word                                               *
    2259              ;*******************************************************************************
    2260 000558       _LED_TaskBlue:
    2261                      .dwcfi  cfa_offset, 1
TMS320C55x Assembler PC v4.4.1 Sun Oct 07 10:05:05 2018

Tools Copyright (c) 1996-2012 Texas Instruments Incorporated
main.asm                                                             PAGE   49

    2262                      .dwcfi  save_reg_to_mem, 91, -1
    2263 000558 5066          PSH T2
    2264                      .dwcfi  cfa_offset, 2
    2265                      .dwcfi  save_reg_to_mem, 14, -2
    2266 00055a 4EFE          AADD #-2, SP
    2267                      .dwcfi  cfa_offset, 4
    2268              $C$DW$199       .dwtag  DW_TAG_variable, DW_AT_name("pvParameters")
    2269                      .dwattr $C$DW$199, DW_AT_TI_symbol_name("_pvParameters")
    2270                      .dwattr $C$DW$199, DW_AT_type(*$C$DW$T$3)
    2271                      .dwattr $C$DW$199, DW_AT_location[DW_OP_bregx 0x24 0]
    2272              
    2273 00055c EB00          MOV XAR0, dbl(*SP(#0))
         00055e 85   
    2274 00055f 3D16  ||      MOV #1, T2
    2275              
    2276 000561       $C$L32:    
    2277 000561       $C$DW$L$_LED_TaskBlue$2$B:
    2278                      .dwpsn  file "../FreeRTOS/Demo/c5515_CCS/main.c",line 1200,column 3,is_stmt
    2279 000561 ED31          MOV dbl(*(#_xSemaphoreB)), XAR0
         000563 8F00 
         000565 001E-
    2280 000567 7600          MOV #100, AC0 ; |1200| 
         000569 6408 
    2281              $C$DW$200       .dwtag  DW_TAG_TI_branch
    2282                      .dwattr $C$DW$200, DW_AT_low_pc(0x00)
    2283                      .dwattr $C$DW$200, DW_AT_name("_xQueueSemaphoreTake")
    2284                      .dwattr $C$DW$200, DW_AT_TI_call
    2285 00056b 6C00          CALL #_xQueueSemaphoreTake ; |1200| 
         00056d 0000!
    2286                                                      ; call occurs [#_xQueueSemaphoreTake] ; |1200| 
    2287 00056f 124C          CMP T0 != T2, TC1 ; |1200| 
         000571 60   
    2288 000572 0464          BCC $C$L33,TC1 ; |1200| 
         000574 11   
    2289                                                      ; branchcc occurs ; |1200| 
    2290 000575       $C$DW$L$_LED_TaskBlue$2$E:
    2291 000575       $C$DW$L$_LED_TaskBlue$3$B:
    2292                      .dwpsn  file "../FreeRTOS/Demo/c5515_CCS/main.c",line 1202,column 4,is_stmt
    2293              $C$DW$201       .dwtag  DW_TAG_TI_branch
    2294                      .dwattr $C$DW$201, DW_AT_low_pc(0x00)
    2295                      .dwattr $C$DW$201, DW_AT_name("_blueLedToggle")
    2296                      .dwattr $C$DW$201, DW_AT_TI_call
    2297 000575 0800          CALL #_blueLedToggle ; |1202| 
         000577 50   
    2298                                                      ; call occurs [#_blueLedToggle] ; |1202| 
    2299                      .dwpsn  file "../FreeRTOS/Demo/c5515_CCS/main.c",line 1206,column 4,is_stmt
    2300 000578 ED31          MOV dbl(*(#_led_tsks_running)), AC0 ; |1206| 
         00057a 0800 
         00057c 0004-
    2301 00057e 4010          ADD #1, AC0 ; |1206| 
    2302 000580 EB31          MOV AC0, dbl(*(#_led_tsks_running)) ; |1206| 
         000582 0800 
         000584 0004-
    2303 000586       $C$DW$L$_LED_TaskBlue$3$E:
    2304 000586       $C$L33:    
TMS320C55x Assembler PC v4.4.1 Sun Oct 07 10:05:05 2018

Tools Copyright (c) 1996-2012 Texas Instruments Incorporated
main.asm                                                             PAGE   50

    2305 000586       $C$DW$L$_LED_TaskBlue$4$B:
    2306                      .dwpsn  file "../FreeRTOS/Demo/c5515_CCS/main.c",line 1221,column 3,is_stmt
    2307 000586 7600          MOV #100, AC0 ; |1221| 
         000588 6408 
    2308              $C$DW$202       .dwtag  DW_TAG_TI_branch
    2309                      .dwattr $C$DW$202, DW_AT_low_pc(0x00)
    2310                      .dwattr $C$DW$202, DW_AT_name("_vTaskDelay")
    2311                      .dwattr $C$DW$202, DW_AT_TI_call
    2312 00058a 6C00          CALL #_vTaskDelay ; |1221| 
         00058c 0000!
    2313                                                      ; call occurs [#_vTaskDelay] ; |1221| 
    2314                      .dwpsn  file "../FreeRTOS/Demo/c5515_CCS/main.c",line 1222,column 1,is_stmt
    2315 00058e 4A51          B $C$L32  ; |1222| 
    2316                                                      ; branch occurs ; |1222| 
    2317 000590       $C$DW$L$_LED_TaskBlue$4$E:
    2318                      .dwcfi  cfa_offset, 2
    2319                      .dwcfi  restore_reg, 14
    2320                      .dwcfi  cfa_offset, 1
    2321              
    2322              $C$DW$203       .dwtag  DW_TAG_TI_loop
    2323                      .dwattr $C$DW$203, DW_AT_name("F:\eZdsp_DBG\tmp1\c55x-sim2\foo\Debug\main.asm:$C$L32:1:1538931905")
    2324                      .dwattr $C$DW$203, DW_AT_TI_begin_file("../FreeRTOS/Demo/c5515_CCS/main.c")
    2325                      .dwattr $C$DW$203, DW_AT_TI_begin_line(0x4ae)
    2326                      .dwattr $C$DW$203, DW_AT_TI_end_line(0x4c6)
    2327              $C$DW$204       .dwtag  DW_TAG_TI_loop_range
    2328                      .dwattr $C$DW$204, DW_AT_low_pc($C$DW$L$_LED_TaskBlue$2$B)
    2329                      .dwattr $C$DW$204, DW_AT_high_pc($C$DW$L$_LED_TaskBlue$2$E)
    2330              $C$DW$205       .dwtag  DW_TAG_TI_loop_range
    2331                      .dwattr $C$DW$205, DW_AT_low_pc($C$DW$L$_LED_TaskBlue$3$B)
    2332                      .dwattr $C$DW$205, DW_AT_high_pc($C$DW$L$_LED_TaskBlue$3$E)
    2333              $C$DW$206       .dwtag  DW_TAG_TI_loop_range
    2334                      .dwattr $C$DW$206, DW_AT_low_pc($C$DW$L$_LED_TaskBlue$4$B)
    2335                      .dwattr $C$DW$206, DW_AT_high_pc($C$DW$L$_LED_TaskBlue$4$E)
    2336                      .dwendtag $C$DW$203
    2337              
    2338                      .dwattr $C$DW$197, DW_AT_TI_end_file("../FreeRTOS/Demo/c5515_CCS/main.c")
    2339                      .dwattr $C$DW$197, DW_AT_TI_end_line(0x4c7)
    2340                      .dwattr $C$DW$197, DW_AT_TI_end_column(0x01)
    2341                      .dwendentry
    2342                      .dwendtag $C$DW$197
    2343              
    2344 000590               .sect   ".text"
    2345                      .align 4
    2346                      .global _LED_TaskRed
    2347              
    2348              $C$DW$207       .dwtag  DW_TAG_subprogram, DW_AT_name("LED_TaskRed")
    2349                      .dwattr $C$DW$207, DW_AT_low_pc(_LED_TaskRed)
    2350                      .dwattr $C$DW$207, DW_AT_high_pc(0x00)
    2351                      .dwattr $C$DW$207, DW_AT_TI_symbol_name("_LED_TaskRed")
    2352                      .dwattr $C$DW$207, DW_AT_external
    2353                      .dwattr $C$DW$207, DW_AT_TI_begin_file("../FreeRTOS/Demo/c5515_CCS/main.c")
    2354                      .dwattr $C$DW$207, DW_AT_TI_begin_line(0x4ca)
    2355                      .dwattr $C$DW$207, DW_AT_TI_begin_column(0x06)
    2356                      .dwattr $C$DW$207, DW_AT_TI_max_frame_size(0x04)
    2357                      .dwpsn  file "../FreeRTOS/Demo/c5515_CCS/main.c",line 1227,column 1,is_stmt,address _LED_TaskRed
TMS320C55x Assembler PC v4.4.1 Sun Oct 07 10:05:05 2018

Tools Copyright (c) 1996-2012 Texas Instruments Incorporated
main.asm                                                             PAGE   51

    2358              
    2359                      .dwfde $C$DW$CIE, _LED_TaskRed
    2360              $C$DW$208       .dwtag  DW_TAG_formal_parameter, DW_AT_name("pvParameters")
    2361                      .dwattr $C$DW$208, DW_AT_TI_symbol_name("_pvParameters")
    2362                      .dwattr $C$DW$208, DW_AT_type(*$C$DW$T$3)
    2363                      .dwattr $C$DW$208, DW_AT_location[DW_OP_reg17]
    2364              ;*******************************************************************************
    2365              ;* FUNCTION NAME: LED_TaskRed                                                  *
    2366              ;*                                                                             *
    2367              ;*   Function Uses Regs : AC0,AC0,T0,T2,AR0,XAR0,SP,CARRY,TC1,M40,SATA,SATD,   *
    2368              ;*                        RDM,FRCT,SMUL                                        *
    2369              ;*   Save On Entry Regs : T2                                                   *
    2370              ;*   Stack Frame        : Compact (No Frame Pointer, w/ debug)                 *
    2371              ;*   Total Frame Size   : 4 words                                              *
    2372              ;*                        (1 return address/alignment)                         *
    2373              ;*                        (2 local values)                                     *
    2374              ;*                        (1 register save area)                               *
    2375              ;*   Min System Stack   : 1 word                                               *
    2376              ;*******************************************************************************
    2377 000590       _LED_TaskRed:
    2378                      .dwcfi  cfa_offset, 1
    2379                      .dwcfi  save_reg_to_mem, 91, -1
    2380 000590 5066          PSH T2
    2381                      .dwcfi  cfa_offset, 2
    2382                      .dwcfi  save_reg_to_mem, 14, -2
    2383 000592 4EFE          AADD #-2, SP
    2384                      .dwcfi  cfa_offset, 4
    2385              $C$DW$209       .dwtag  DW_TAG_variable, DW_AT_name("pvParameters")
    2386                      .dwattr $C$DW$209, DW_AT_TI_symbol_name("_pvParameters")
    2387                      .dwattr $C$DW$209, DW_AT_type(*$C$DW$T$3)
    2388                      .dwattr $C$DW$209, DW_AT_location[DW_OP_bregx 0x24 0]
    2389              
    2390 000594 EB00          MOV XAR0, dbl(*SP(#0))
         000596 85   
    2391 000597 3D16  ||      MOV #1, T2
    2392              
    2393 000599       $C$L34:    
    2394 000599       $C$DW$L$_LED_TaskRed$2$B:
    2395                      .dwpsn  file "../FreeRTOS/Demo/c5515_CCS/main.c",line 1230,column 3,is_stmt
    2396 000599 ED31          MOV dbl(*(#_xSemaphoreR)), XAR0
         00059b 8F00 
         00059d 001C-
    2397 00059f 7600          MOV #250, AC0 ; |1230| 
         0005a1 FA08 
    2398              $C$DW$210       .dwtag  DW_TAG_TI_branch
    2399                      .dwattr $C$DW$210, DW_AT_low_pc(0x00)
    2400                      .dwattr $C$DW$210, DW_AT_name("_xQueueSemaphoreTake")
    2401                      .dwattr $C$DW$210, DW_AT_TI_call
    2402 0005a3 6C00          CALL #_xQueueSemaphoreTake ; |1230| 
         0005a5 0000!
    2403                                                      ; call occurs [#_xQueueSemaphoreTake] ; |1230| 
    2404 0005a7 124C          CMP T0 != T2, TC1 ; |1230| 
         0005a9 60   
    2405 0005aa 0464          BCC $C$L35,TC1 ; |1230| 
         0005ac 11   
TMS320C55x Assembler PC v4.4.1 Sun Oct 07 10:05:05 2018

Tools Copyright (c) 1996-2012 Texas Instruments Incorporated
main.asm                                                             PAGE   52

    2406                                                      ; branchcc occurs ; |1230| 
    2407 0005ad       $C$DW$L$_LED_TaskRed$2$E:
    2408 0005ad       $C$DW$L$_LED_TaskRed$3$B:
    2409                      .dwpsn  file "../FreeRTOS/Demo/c5515_CCS/main.c",line 1232,column 4,is_stmt
    2410              $C$DW$211       .dwtag  DW_TAG_TI_branch
    2411                      .dwattr $C$DW$211, DW_AT_low_pc(0x00)
    2412                      .dwattr $C$DW$211, DW_AT_name("_redLedToggle")
    2413                      .dwattr $C$DW$211, DW_AT_TI_call
    2414 0005ad 0800          CALL #_redLedToggle ; |1232| 
         0005af 40   
    2415                                                      ; call occurs [#_redLedToggle] ; |1232| 
    2416                      .dwpsn  file "../FreeRTOS/Demo/c5515_CCS/main.c",line 1236,column 4,is_stmt
    2417 0005b0 ED31          MOV dbl(*(#_led_tsks_running)), AC0 ; |1236| 
         0005b2 0800 
         0005b4 0004-
    2418 0005b6 4010          ADD #1, AC0 ; |1236| 
    2419 0005b8 EB31          MOV AC0, dbl(*(#_led_tsks_running)) ; |1236| 
         0005ba 0800 
         0005bc 0004-
    2420 0005be       $C$DW$L$_LED_TaskRed$3$E:
    2421 0005be       $C$L35:    
    2422 0005be       $C$DW$L$_LED_TaskRed$4$B:
    2423                      .dwpsn  file "../FreeRTOS/Demo/c5515_CCS/main.c",line 1248,column 2,is_stmt
    2424 0005be 7600          MOV #200, AC0 ; |1248| 
         0005c0 C808 
    2425              $C$DW$212       .dwtag  DW_TAG_TI_branch
    2426                      .dwattr $C$DW$212, DW_AT_low_pc(0x00)
    2427                      .dwattr $C$DW$212, DW_AT_name("_vTaskDelay")
    2428                      .dwattr $C$DW$212, DW_AT_TI_call
    2429 0005c2 6C00          CALL #_vTaskDelay ; |1248| 
         0005c4 0000!
    2430                                                      ; call occurs [#_vTaskDelay] ; |1248| 
    2431                      .dwpsn  file "../FreeRTOS/Demo/c5515_CCS/main.c",line 1249,column 2,is_stmt
    2432 0005c6 4A51          B $C$L34  ; |1249| 
    2433                                                      ; branch occurs ; |1249| 
    2434 0005c8       $C$DW$L$_LED_TaskRed$4$E:
    2435                      .dwcfi  cfa_offset, 2
    2436                      .dwcfi  restore_reg, 14
    2437                      .dwcfi  cfa_offset, 1
    2438              
    2439              $C$DW$213       .dwtag  DW_TAG_TI_loop
    2440                      .dwattr $C$DW$213, DW_AT_name("F:\eZdsp_DBG\tmp1\c55x-sim2\foo\Debug\main.asm:$C$L34:1:1538931905")
    2441                      .dwattr $C$DW$213, DW_AT_TI_begin_file("../FreeRTOS/Demo/c5515_CCS/main.c")
    2442                      .dwattr $C$DW$213, DW_AT_TI_begin_line(0x4cc)
    2443                      .dwattr $C$DW$213, DW_AT_TI_end_line(0x4e1)
    2444              $C$DW$214       .dwtag  DW_TAG_TI_loop_range
    2445                      .dwattr $C$DW$214, DW_AT_low_pc($C$DW$L$_LED_TaskRed$2$B)
    2446                      .dwattr $C$DW$214, DW_AT_high_pc($C$DW$L$_LED_TaskRed$2$E)
    2447              $C$DW$215       .dwtag  DW_TAG_TI_loop_range
    2448                      .dwattr $C$DW$215, DW_AT_low_pc($C$DW$L$_LED_TaskRed$3$B)
    2449                      .dwattr $C$DW$215, DW_AT_high_pc($C$DW$L$_LED_TaskRed$3$E)
    2450              $C$DW$216       .dwtag  DW_TAG_TI_loop_range
    2451                      .dwattr $C$DW$216, DW_AT_low_pc($C$DW$L$_LED_TaskRed$4$B)
    2452                      .dwattr $C$DW$216, DW_AT_high_pc($C$DW$L$_LED_TaskRed$4$E)
    2453                      .dwendtag $C$DW$213
TMS320C55x Assembler PC v4.4.1 Sun Oct 07 10:05:05 2018

Tools Copyright (c) 1996-2012 Texas Instruments Incorporated
main.asm                                                             PAGE   53

    2454              
    2455                      .dwattr $C$DW$207, DW_AT_TI_end_file("../FreeRTOS/Demo/c5515_CCS/main.c")
    2456                      .dwattr $C$DW$207, DW_AT_TI_end_line(0x4e2)
    2457                      .dwattr $C$DW$207, DW_AT_TI_end_column(0x01)
    2458                      .dwendentry
    2459                      .dwendtag $C$DW$207
    2460              
    2461 0005c8               .sect   ".text"
    2462                      .align 4
    2463                      .global _blueLedToggle
    2464              
    2465              $C$DW$217       .dwtag  DW_TAG_subprogram, DW_AT_name("blueLedToggle")
    2466                      .dwattr $C$DW$217, DW_AT_low_pc(_blueLedToggle)
    2467                      .dwattr $C$DW$217, DW_AT_high_pc(0x00)
    2468                      .dwattr $C$DW$217, DW_AT_TI_symbol_name("_blueLedToggle")
    2469                      .dwattr $C$DW$217, DW_AT_external
    2470                      .dwattr $C$DW$217, DW_AT_TI_begin_file("../FreeRTOS/Demo/c5515_CCS/main.c")
    2471                      .dwattr $C$DW$217, DW_AT_TI_begin_line(0x4e5)
    2472                      .dwattr $C$DW$217, DW_AT_TI_begin_column(0x07)
    2473                      .dwattr $C$DW$217, DW_AT_TI_max_frame_size(0x02)
    2474                      .dwpsn  file "../FreeRTOS/Demo/c5515_CCS/main.c",line 1254,column 1,is_stmt,address _blueLedToggle
    2475              
    2476                      .dwfde $C$DW$CIE, _blueLedToggle
    2477              $C$DW$218       .dwtag  DW_TAG_variable, DW_AT_name("counter")
    2478                      .dwattr $C$DW$218, DW_AT_TI_symbol_name("_counter$3")
    2479                      .dwattr $C$DW$218, DW_AT_type(*$C$DW$T$9)
    2480                      .dwattr $C$DW$218, DW_AT_location[DW_OP_addr _counter$3]
    2481              ;*******************************************************************************
    2482              ;* FUNCTION NAME: blueLedToggle                                                *
    2483              ;*                                                                             *
    2484              ;*   Function Uses Regs : T0,T1,SP,CARRY,TC1,M40,SATA,SATD,RDM,FRCT,SMUL       *
    2485              ;*   Stack Frame        : Compact (No Frame Pointer, w/ debug)                 *
    2486              ;*   Total Frame Size   : 2 words                                              *
    2487              ;*                        (2 return address/alignment)                         *
    2488              ;*   Min System Stack   : 1 word                                               *
    2489              ;*******************************************************************************
    2490 0005c8       _blueLedToggle:
    2491                      .dwcfi  cfa_offset, 1
    2492                      .dwcfi  save_reg_to_mem, 91, -1
    2493 0005c8 4EFF          AADD #-1, SP
    2494                      .dwcfi  cfa_offset, 2
    2495                      .dwpsn  file "../FreeRTOS/Demo/c5515_CCS/main.c",line 1257,column 2,is_stmt
    2496 0005ca F731          ADD #1, *(#_counter$3) ; |1257| 
         0005cc 0001 
         0005ce 0000 
         0005d0 2A-  
    2497                      .dwpsn  file "../FreeRTOS/Demo/c5515_CCS/main.c",line 1258,column 2,is_stmt
    2498 0005d1 DC31          BTST #0, *(#_counter$3), TC1 ; |1258| 
         0005d3 0000 
         0005d5 002A-
    2499 0005d7 6574          BCC $C$L36,!TC1 ; |1258| 
    2500                                                      ; branchcc occurs ; |1258| 
    2501                      .dwpsn  file "../FreeRTOS/Demo/c5515_CCS/main.c",line 1260,column 3,is_stmt
    2502 0005d9 3CE4          MOV #14, T0
    2503              $C$DW$219       .dwtag  DW_TAG_TI_branch
TMS320C55x Assembler PC v4.4.1 Sun Oct 07 10:05:05 2018

Tools Copyright (c) 1996-2012 Texas Instruments Incorporated
main.asm                                                             PAGE   54

    2504                      .dwattr $C$DW$219, DW_AT_low_pc(0x00)
    2505                      .dwattr $C$DW$219, DW_AT_name("_EZDSP5535_GPIO_setOutput")
    2506                      .dwattr $C$DW$219, DW_AT_TI_call
    2507              
    2508 0005db 6C00          CALL #_EZDSP5535_GPIO_setOutput ; |1260| 
         0005dd 0000!
    2509 0005df 3D15  ||      MOV #1, T1
    2510              
    2511                                                      ; call occurs [#_EZDSP5535_GPIO_setOutput] ; |1260| 
    2512                      .dwpsn  file "../FreeRTOS/Demo/c5515_CCS/main.c",line 1261,column 2,is_stmt
    2513 0005e1 4A08          B $C$L37  ; |1261| 
    2514                                                      ; branch occurs ; |1261| 
    2515 0005e3       $C$L36:    
    2516                      .dwpsn  file "../FreeRTOS/Demo/c5515_CCS/main.c",line 1264,column 3,is_stmt
    2517              
    2518 0005e3 3CE4          MOV #14, T0
    2519 0005e5 3D05  ||      MOV #0, T1
    2520              
    2521              $C$DW$220       .dwtag  DW_TAG_TI_branch
    2522                      .dwattr $C$DW$220, DW_AT_low_pc(0x00)
    2523                      .dwattr $C$DW$220, DW_AT_name("_EZDSP5535_GPIO_setOutput")
    2524                      .dwattr $C$DW$220, DW_AT_TI_call
    2525 0005e7 6C00          CALL #_EZDSP5535_GPIO_setOutput ; |1264| 
         0005e9 0000!
    2526                                                      ; call occurs [#_EZDSP5535_GPIO_setOutput] ; |1264| 
    2527                      .dwpsn  file "../FreeRTOS/Demo/c5515_CCS/main.c",line 1266,column 1,is_stmt
    2528 0005eb       $C$L37:    
    2529 0005eb 4E01          AADD #1, SP
    2530                      .dwcfi  cfa_offset, 1
    2531              $C$DW$221       .dwtag  DW_TAG_TI_branch
    2532                      .dwattr $C$DW$221, DW_AT_low_pc(0x00)
    2533                      .dwattr $C$DW$221, DW_AT_TI_return
    2534 0005ed 4804          RET
    2535                                                      ; return occurs
    2536                      .dwattr $C$DW$217, DW_AT_TI_end_file("../FreeRTOS/Demo/c5515_CCS/main.c")
    2537                      .dwattr $C$DW$217, DW_AT_TI_end_line(0x4f2)
    2538                      .dwattr $C$DW$217, DW_AT_TI_end_column(0x01)
    2539                      .dwendentry
    2540                      .dwendtag $C$DW$217
    2541              
    2542 0005ef               .sect   ".text"
    2543                      .align 4
    2544                      .global _redLedToggle
    2545              
    2546              $C$DW$222       .dwtag  DW_TAG_subprogram, DW_AT_name("redLedToggle")
    2547                      .dwattr $C$DW$222, DW_AT_low_pc(_redLedToggle)
    2548                      .dwattr $C$DW$222, DW_AT_high_pc(0x00)
    2549                      .dwattr $C$DW$222, DW_AT_TI_symbol_name("_redLedToggle")
    2550                      .dwattr $C$DW$222, DW_AT_external
    2551                      .dwattr $C$DW$222, DW_AT_TI_begin_file("../FreeRTOS/Demo/c5515_CCS/main.c")
    2552                      .dwattr $C$DW$222, DW_AT_TI_begin_line(0x4f4)
    2553                      .dwattr $C$DW$222, DW_AT_TI_begin_column(0x07)
    2554                      .dwattr $C$DW$222, DW_AT_TI_max_frame_size(0x02)
    2555                      .dwpsn  file "../FreeRTOS/Demo/c5515_CCS/main.c",line 1269,column 1,is_stmt,address _redLedToggle
    2556              
TMS320C55x Assembler PC v4.4.1 Sun Oct 07 10:05:05 2018

Tools Copyright (c) 1996-2012 Texas Instruments Incorporated
main.asm                                                             PAGE   55

    2557                      .dwfde $C$DW$CIE, _redLedToggle
    2558              $C$DW$223       .dwtag  DW_TAG_variable, DW_AT_name("counter")
    2559                      .dwattr $C$DW$223, DW_AT_TI_symbol_name("_counter$4")
    2560                      .dwattr $C$DW$223, DW_AT_type(*$C$DW$T$9)
    2561                      .dwattr $C$DW$223, DW_AT_location[DW_OP_addr _counter$4]
    2562              ;*******************************************************************************
    2563              ;* FUNCTION NAME: redLedToggle                                                 *
    2564              ;*                                                                             *
    2565              ;*   Function Uses Regs : T0,T1,SP,CARRY,TC1,M40,SATA,SATD,RDM,FRCT,SMUL       *
    2566              ;*   Stack Frame        : Compact (No Frame Pointer, w/ debug)                 *
    2567              ;*   Total Frame Size   : 2 words                                              *
    2568              ;*                        (2 return address/alignment)                         *
    2569              ;*   Min System Stack   : 1 word                                               *
    2570              ;*******************************************************************************
    2571 0005f0       _redLedToggle:
    2572                      .dwcfi  cfa_offset, 1
    2573                      .dwcfi  save_reg_to_mem, 91, -1
    2574 0005f0 4EFF          AADD #-1, SP
    2575                      .dwcfi  cfa_offset, 2
    2576                      .dwpsn  file "../FreeRTOS/Demo/c5515_CCS/main.c",line 1272,column 2,is_stmt
    2577 0005f2 F731          ADD #1, *(#_counter$4) ; |1272| 
         0005f4 0001 
         0005f6 0000 
         0005f8 2B-  
    2578                      .dwpsn  file "../FreeRTOS/Demo/c5515_CCS/main.c",line 1273,column 2,is_stmt
    2579 0005f9 DC31          BTST #0, *(#_counter$4), TC1 ; |1273| 
         0005fb 0000 
         0005fd 002B-
    2580 0005ff 6674          BCC $C$L38,!TC1 ; |1273| 
    2581                                                      ; branchcc occurs ; |1273| 
    2582                      .dwpsn  file "../FreeRTOS/Demo/c5515_CCS/main.c",line 1275,column 3,is_stmt
    2583 000601 7600          MOV #16, T0 ; |1275| 
         000603 1048 
    2584              $C$DW$224       .dwtag  DW_TAG_TI_branch
    2585                      .dwattr $C$DW$224, DW_AT_low_pc(0x00)
    2586                      .dwattr $C$DW$224, DW_AT_name("_EZDSP5535_GPIO_setOutput")
    2587                      .dwattr $C$DW$224, DW_AT_TI_call
    2588              
    2589 000605 6C00          CALL #_EZDSP5535_GPIO_setOutput ; |1275| 
         000607 0000!
    2590 000609 3D15  ||      MOV #1, T1
    2591              
    2592                                                      ; call occurs [#_EZDSP5535_GPIO_setOutput] ; |1275| 
    2593                      .dwpsn  file "../FreeRTOS/Demo/c5515_CCS/main.c",line 1276,column 2,is_stmt
    2594 00060b 4A0A          B $C$L39  ; |1276| 
    2595                                                      ; branch occurs ; |1276| 
    2596 00060d       $C$L38:    
    2597                      .dwpsn  file "../FreeRTOS/Demo/c5515_CCS/main.c",line 1279,column 3,is_stmt
    2598              
    2599 00060d 7600          MOV #16, T0 ; |1279| 
         00060f 1048 
    2600 000611 3D05  ||      MOV #0, T1
    2601              
    2602              $C$DW$225       .dwtag  DW_TAG_TI_branch
    2603                      .dwattr $C$DW$225, DW_AT_low_pc(0x00)
TMS320C55x Assembler PC v4.4.1 Sun Oct 07 10:05:05 2018

Tools Copyright (c) 1996-2012 Texas Instruments Incorporated
main.asm                                                             PAGE   56

    2604                      .dwattr $C$DW$225, DW_AT_name("_EZDSP5535_GPIO_setOutput")
    2605                      .dwattr $C$DW$225, DW_AT_TI_call
    2606 000613 6C00          CALL #_EZDSP5535_GPIO_setOutput ; |1279| 
         000615 0000!
    2607                                                      ; call occurs [#_EZDSP5535_GPIO_setOutput] ; |1279| 
    2608                      .dwpsn  file "../FreeRTOS/Demo/c5515_CCS/main.c",line 1281,column 1,is_stmt
    2609 000617       $C$L39:    
    2610 000617 4E01          AADD #1, SP
    2611                      .dwcfi  cfa_offset, 1
    2612              $C$DW$226       .dwtag  DW_TAG_TI_branch
    2613                      .dwattr $C$DW$226, DW_AT_low_pc(0x00)
    2614                      .dwattr $C$DW$226, DW_AT_TI_return
    2615 000619 4804          RET
    2616                                                      ; return occurs
    2617                      .dwattr $C$DW$222, DW_AT_TI_end_file("../FreeRTOS/Demo/c5515_CCS/main.c")
    2618                      .dwattr $C$DW$222, DW_AT_TI_end_line(0x501)
    2619                      .dwattr $C$DW$222, DW_AT_TI_end_column(0x01)
    2620                      .dwendentry
    2621                      .dwendtag $C$DW$222
    2622              
    2623 00061b               .sect   ".text"
    2624                      .align 4
    2625                      .global _LED_TaskXF
    2626              
    2627              $C$DW$227       .dwtag  DW_TAG_subprogram, DW_AT_name("LED_TaskXF")
    2628                      .dwattr $C$DW$227, DW_AT_low_pc(_LED_TaskXF)
    2629                      .dwattr $C$DW$227, DW_AT_high_pc(0x00)
    2630                      .dwattr $C$DW$227, DW_AT_TI_symbol_name("_LED_TaskXF")
    2631                      .dwattr $C$DW$227, DW_AT_external
    2632                      .dwattr $C$DW$227, DW_AT_TI_begin_file("../FreeRTOS/Demo/c5515_CCS/main.c")
    2633                      .dwattr $C$DW$227, DW_AT_TI_begin_line(0x502)
    2634                      .dwattr $C$DW$227, DW_AT_TI_begin_column(0x06)
    2635                      .dwattr $C$DW$227, DW_AT_TI_max_frame_size(0x04)
    2636                      .dwpsn  file "../FreeRTOS/Demo/c5515_CCS/main.c",line 1283,column 1,is_stmt,address _LED_TaskXF
    2637              
    2638                      .dwfde $C$DW$CIE, _LED_TaskXF
    2639              $C$DW$228       .dwtag  DW_TAG_variable, DW_AT_name("counter")
    2640                      .dwattr $C$DW$228, DW_AT_TI_symbol_name("_counter$5")
    2641                      .dwattr $C$DW$228, DW_AT_type(*$C$DW$T$9)
    2642                      .dwattr $C$DW$228, DW_AT_location[DW_OP_addr _counter$5]
    2643              $C$DW$229       .dwtag  DW_TAG_formal_parameter, DW_AT_name("pvParameters")
    2644                      .dwattr $C$DW$229, DW_AT_TI_symbol_name("_pvParameters")
    2645                      .dwattr $C$DW$229, DW_AT_type(*$C$DW$T$3)
    2646                      .dwattr $C$DW$229, DW_AT_location[DW_OP_reg17]
    2647              ;*******************************************************************************
    2648              ;* FUNCTION NAME: LED_TaskXF                                                   *
    2649              ;*                                                                             *
    2650              ;*   Function Uses Regs : AC0,AC0,T0,T1,T2,AR0,XAR0,SP,CARRY,TC1,M40,SATA,SATD,*
    2651              ;*                        RDM,FRCT,SMUL                                        *
    2652              ;*   Save On Entry Regs : T2                                                   *
    2653              ;*   Stack Frame        : Compact (No Frame Pointer, w/ debug)                 *
    2654              ;*   Total Frame Size   : 4 words                                              *
    2655              ;*                        (1 return address/alignment)                         *
    2656              ;*                        (2 local values)                                     *
    2657              ;*                        (1 register save area)                               *
TMS320C55x Assembler PC v4.4.1 Sun Oct 07 10:05:05 2018

Tools Copyright (c) 1996-2012 Texas Instruments Incorporated
main.asm                                                             PAGE   57

    2658              ;*   Min System Stack   : 1 word                                               *
    2659              ;*******************************************************************************
    2660 00061c       _LED_TaskXF:
    2661                      .dwcfi  cfa_offset, 1
    2662                      .dwcfi  save_reg_to_mem, 91, -1
    2663 00061c 5066          PSH T2
    2664                      .dwcfi  cfa_offset, 2
    2665                      .dwcfi  save_reg_to_mem, 14, -2
    2666 00061e 4EFE          AADD #-2, SP
    2667                      .dwcfi  cfa_offset, 4
    2668              $C$DW$230       .dwtag  DW_TAG_variable, DW_AT_name("pvParameters")
    2669                      .dwattr $C$DW$230, DW_AT_TI_symbol_name("_pvParameters")
    2670                      .dwattr $C$DW$230, DW_AT_type(*$C$DW$T$3)
    2671                      .dwattr $C$DW$230, DW_AT_location[DW_OP_bregx 0x24 0]
    2672              
    2673 000620 EB00          MOV XAR0, dbl(*SP(#0))
         000622 85   
    2674 000623 3D16  ||      MOV #1, T2
    2675              
    2676 000625       $C$L40:    
    2677 000625       $C$DW$L$_LED_TaskXF$2$B:
    2678                      .dwpsn  file "../FreeRTOS/Demo/c5515_CCS/main.c",line 1300,column 3,is_stmt
    2679 000625 ED31          MOV dbl(*(#_xSemaphoreO)), XAR0
         000627 8F00 
         000629 0022-
    2680 00062b 7600          MOV #250, AC0 ; |1300| 
         00062d FA08 
    2681              $C$DW$231       .dwtag  DW_TAG_TI_branch
    2682                      .dwattr $C$DW$231, DW_AT_low_pc(0x00)
    2683                      .dwattr $C$DW$231, DW_AT_name("_xQueueSemaphoreTake")
    2684                      .dwattr $C$DW$231, DW_AT_TI_call
    2685 00062f 6C00          CALL #_xQueueSemaphoreTake ; |1300| 
         000631 0000!
    2686                                                      ; call occurs [#_xQueueSemaphoreTake] ; |1300| 
    2687 000633 124C          CMP T0 != T2, TC1 ; |1300| 
         000635 60   
    2688 000636 0464          BCC $C$L42,TC1 ; |1300| 
         000638 21   
    2689                                                      ; branchcc occurs ; |1300| 
    2690 000639       $C$DW$L$_LED_TaskXF$2$E:
    2691 000639       $C$DW$L$_LED_TaskXF$3$B:
    2692                      .dwpsn  file "../FreeRTOS/Demo/c5515_CCS/main.c",line 1304,column 2,is_stmt
    2693 000639 F731          ADD #1, *(#_counter$5) ; |1304| 
         00063b 0001 
         00063d 0000 
         00063f 2C-  
    2694                      .dwpsn  file "../FreeRTOS/Demo/c5515_CCS/main.c",line 1305,column 2,is_stmt
    2695 000640 DC31          BTST #0, *(#_counter$5), TC1 ; |1305| 
         000642 0000 
         000644 002C-
    2696 000646 6574          BCC $C$L41,!TC1 ; |1305| 
    2697                                                      ; branchcc occurs ; |1305| 
    2698 000648       $C$DW$L$_LED_TaskXF$3$E:
    2699 000648       $C$DW$L$_LED_TaskXF$4$B:
    2700                      .dwpsn  file "../FreeRTOS/Demo/c5515_CCS/main.c",line 1307,column 3,is_stmt
TMS320C55x Assembler PC v4.4.1 Sun Oct 07 10:05:05 2018

Tools Copyright (c) 1996-2012 Texas Instruments Incorporated
main.asm                                                             PAGE   58

    2701 000648 3CF4          MOV #15, T0
    2702              $C$DW$232       .dwtag  DW_TAG_TI_branch
    2703                      .dwattr $C$DW$232, DW_AT_low_pc(0x00)
    2704                      .dwattr $C$DW$232, DW_AT_name("_EZDSP5535_GPIO_setOutput")
    2705                      .dwattr $C$DW$232, DW_AT_TI_call
    2706              
    2707 00064a 6C00          CALL #_EZDSP5535_GPIO_setOutput ; |1307| 
         00064c 0000!
    2708 00064e 3D05  ||      MOV #0, T1
    2709              
    2710                                                      ; call occurs [#_EZDSP5535_GPIO_setOutput] ; |1307| 
    2711                      .dwpsn  file "../FreeRTOS/Demo/c5515_CCS/main.c",line 1308,column 2,is_stmt
    2712 000650 4A08          B $C$L42  ; |1308| 
    2713                                                      ; branch occurs ; |1308| 
    2714 000652       $C$DW$L$_LED_TaskXF$4$E:
    2715 000652       $C$L41:    
    2716 000652       $C$DW$L$_LED_TaskXF$5$B:
    2717                      .dwpsn  file "../FreeRTOS/Demo/c5515_CCS/main.c",line 1311,column 3,is_stmt
    2718 000652 3CF4          MOV #15, T0
    2719              $C$DW$233       .dwtag  DW_TAG_TI_branch
    2720                      .dwattr $C$DW$233, DW_AT_low_pc(0x00)
    2721                      .dwattr $C$DW$233, DW_AT_name("_EZDSP5535_GPIO_setOutput")
    2722                      .dwattr $C$DW$233, DW_AT_TI_call
    2723              
    2724 000654 6C00          CALL #_EZDSP5535_GPIO_setOutput ; |1311| 
         000656 0000!
    2725 000658 3D15  ||      MOV #1, T1
    2726              
    2727                                                      ; call occurs [#_EZDSP5535_GPIO_setOutput] ; |1311| 
    2728 00065a       $C$DW$L$_LED_TaskXF$5$E:
    2729 00065a       $C$L42:    
    2730 00065a       $C$DW$L$_LED_TaskXF$6$B:
    2731                      .dwpsn  file "../FreeRTOS/Demo/c5515_CCS/main.c",line 1329,column 3,is_stmt
    2732 00065a 7600          MOV #200, AC0 ; |1329| 
         00065c C808 
    2733              $C$DW$234       .dwtag  DW_TAG_TI_branch
    2734                      .dwattr $C$DW$234, DW_AT_low_pc(0x00)
    2735                      .dwattr $C$DW$234, DW_AT_name("_vTaskDelay")
    2736                      .dwattr $C$DW$234, DW_AT_TI_call
    2737 00065e 6C00          CALL #_vTaskDelay ; |1329| 
         000660 0000!
    2738                                                      ; call occurs [#_vTaskDelay] ; |1329| 
    2739                      .dwpsn  file "../FreeRTOS/Demo/c5515_CCS/main.c",line 1330,column 2,is_stmt
    2740 000662 4A41          B $C$L40  ; |1330| 
    2741                                                      ; branch occurs ; |1330| 
    2742 000664       $C$DW$L$_LED_TaskXF$6$E:
    2743                      .dwcfi  cfa_offset, 2
    2744                      .dwcfi  restore_reg, 14
    2745                      .dwcfi  cfa_offset, 1
    2746              
    2747              $C$DW$235       .dwtag  DW_TAG_TI_loop
    2748                      .dwattr $C$DW$235, DW_AT_name("F:\eZdsp_DBG\tmp1\c55x-sim2\foo\Debug\main.asm:$C$L40:1:1538931905")
    2749                      .dwattr $C$DW$235, DW_AT_TI_begin_file("../FreeRTOS/Demo/c5515_CCS/main.c")
    2750                      .dwattr $C$DW$235, DW_AT_TI_begin_line(0x510)
    2751                      .dwattr $C$DW$235, DW_AT_TI_end_line(0x532)
TMS320C55x Assembler PC v4.4.1 Sun Oct 07 10:05:05 2018

Tools Copyright (c) 1996-2012 Texas Instruments Incorporated
main.asm                                                             PAGE   59

    2752              $C$DW$236       .dwtag  DW_TAG_TI_loop_range
    2753                      .dwattr $C$DW$236, DW_AT_low_pc($C$DW$L$_LED_TaskXF$2$B)
    2754                      .dwattr $C$DW$236, DW_AT_high_pc($C$DW$L$_LED_TaskXF$2$E)
    2755              $C$DW$237       .dwtag  DW_TAG_TI_loop_range
    2756                      .dwattr $C$DW$237, DW_AT_low_pc($C$DW$L$_LED_TaskXF$3$B)
    2757                      .dwattr $C$DW$237, DW_AT_high_pc($C$DW$L$_LED_TaskXF$3$E)
    2758              $C$DW$238       .dwtag  DW_TAG_TI_loop_range
    2759                      .dwattr $C$DW$238, DW_AT_low_pc($C$DW$L$_LED_TaskXF$4$B)
    2760                      .dwattr $C$DW$238, DW_AT_high_pc($C$DW$L$_LED_TaskXF$4$E)
    2761              $C$DW$239       .dwtag  DW_TAG_TI_loop_range
    2762                      .dwattr $C$DW$239, DW_AT_low_pc($C$DW$L$_LED_TaskXF$5$B)
    2763                      .dwattr $C$DW$239, DW_AT_high_pc($C$DW$L$_LED_TaskXF$5$E)
    2764              $C$DW$240       .dwtag  DW_TAG_TI_loop_range
    2765                      .dwattr $C$DW$240, DW_AT_low_pc($C$DW$L$_LED_TaskXF$6$B)
    2766                      .dwattr $C$DW$240, DW_AT_high_pc($C$DW$L$_LED_TaskXF$6$E)
    2767                      .dwendtag $C$DW$235
    2768              
    2769                      .dwattr $C$DW$227, DW_AT_TI_end_file("../FreeRTOS/Demo/c5515_CCS/main.c")
    2770                      .dwattr $C$DW$227, DW_AT_TI_end_line(0x533)
    2771                      .dwattr $C$DW$227, DW_AT_TI_end_column(0x01)
    2772                      .dwendentry
    2773                      .dwendtag $C$DW$227
    2774              
    2775 000664               .sect   ".text"
    2776                      .align 4
    2777                      .global _LED_TaskGreen
    2778              
    2779              $C$DW$241       .dwtag  DW_TAG_subprogram, DW_AT_name("LED_TaskGreen")
    2780                      .dwattr $C$DW$241, DW_AT_low_pc(_LED_TaskGreen)
    2781                      .dwattr $C$DW$241, DW_AT_high_pc(0x00)
    2782                      .dwattr $C$DW$241, DW_AT_TI_symbol_name("_LED_TaskGreen")
    2783                      .dwattr $C$DW$241, DW_AT_external
    2784                      .dwattr $C$DW$241, DW_AT_TI_begin_file("../FreeRTOS/Demo/c5515_CCS/main.c")
    2785                      .dwattr $C$DW$241, DW_AT_TI_begin_line(0x535)
    2786                      .dwattr $C$DW$241, DW_AT_TI_begin_column(0x06)
    2787                      .dwattr $C$DW$241, DW_AT_TI_max_frame_size(0x04)
    2788                      .dwpsn  file "../FreeRTOS/Demo/c5515_CCS/main.c",line 1334,column 1,is_stmt,address _LED_TaskGreen
    2789              
    2790                      .dwfde $C$DW$CIE, _LED_TaskGreen
    2791              $C$DW$242       .dwtag  DW_TAG_variable, DW_AT_name("counter")
    2792                      .dwattr $C$DW$242, DW_AT_TI_symbol_name("_counter$6")
    2793                      .dwattr $C$DW$242, DW_AT_type(*$C$DW$T$9)
    2794                      .dwattr $C$DW$242, DW_AT_location[DW_OP_addr _counter$6]
    2795              $C$DW$243       .dwtag  DW_TAG_variable, DW_AT_name("ctr")
    2796                      .dwattr $C$DW$243, DW_AT_TI_symbol_name("_ctr$7")
    2797                      .dwattr $C$DW$243, DW_AT_type(*$C$DW$T$9)
    2798                      .dwattr $C$DW$243, DW_AT_location[DW_OP_addr _ctr$7]
    2799              $C$DW$244       .dwtag  DW_TAG_formal_parameter, DW_AT_name("pvParameters")
    2800                      .dwattr $C$DW$244, DW_AT_TI_symbol_name("_pvParameters")
    2801                      .dwattr $C$DW$244, DW_AT_type(*$C$DW$T$3)
    2802                      .dwattr $C$DW$244, DW_AT_location[DW_OP_reg17]
    2803              ;*******************************************************************************
    2804              ;* FUNCTION NAME: LED_TaskGreen                                                *
    2805              ;*                                                                             *
    2806              ;*   Function Uses Regs : AC0,AC0,T0,T1,T2,AR0,XAR0,SP,CARRY,TC1,M40,SATA,SATD,*
TMS320C55x Assembler PC v4.4.1 Sun Oct 07 10:05:05 2018

Tools Copyright (c) 1996-2012 Texas Instruments Incorporated
main.asm                                                             PAGE   60

    2807              ;*                        RDM,FRCT,SMUL                                        *
    2808              ;*   Save On Entry Regs : T2                                                   *
    2809              ;*   Stack Frame        : Compact (No Frame Pointer, w/ debug)                 *
    2810              ;*   Total Frame Size   : 4 words                                              *
    2811              ;*                        (1 return address/alignment)                         *
    2812              ;*                        (2 local values)                                     *
    2813              ;*                        (1 register save area)                               *
    2814              ;*   Min System Stack   : 1 word                                               *
    2815              ;*******************************************************************************
    2816 000664       _LED_TaskGreen:
    2817                      .dwcfi  cfa_offset, 1
    2818                      .dwcfi  save_reg_to_mem, 91, -1
    2819 000664 5066          PSH T2
    2820                      .dwcfi  cfa_offset, 2
    2821                      .dwcfi  save_reg_to_mem, 14, -2
    2822 000666 4EFE          AADD #-2, SP
    2823                      .dwcfi  cfa_offset, 4
    2824              $C$DW$245       .dwtag  DW_TAG_variable, DW_AT_name("pvParameters")
    2825                      .dwattr $C$DW$245, DW_AT_TI_symbol_name("_pvParameters")
    2826                      .dwattr $C$DW$245, DW_AT_type(*$C$DW$T$3)
    2827                      .dwattr $C$DW$245, DW_AT_location[DW_OP_bregx 0x24 0]
    2828              
    2829 000668 EB00          MOV XAR0, dbl(*SP(#0))
         00066a 85   
    2830 00066b 3D16  ||      MOV #1, T2
    2831              
    2832 00066d       $C$L43:    
    2833 00066d       $C$DW$L$_LED_TaskGreen$2$B:
    2834                      .dwpsn  file "../FreeRTOS/Demo/c5515_CCS/main.c",line 1339,column 3,is_stmt
    2835 00066d ED31          MOV dbl(*(#_xSemaphoreBaton)), XAR0
         00066f 8F00 
         000671 0026-
    2836 000673 7600          MOV #250, AC0 ; |1339| 
         000675 FA08 
    2837              $C$DW$246       .dwtag  DW_TAG_TI_branch
    2838                      .dwattr $C$DW$246, DW_AT_low_pc(0x00)
    2839                      .dwattr $C$DW$246, DW_AT_name("_xQueueSemaphoreTake")
    2840                      .dwattr $C$DW$246, DW_AT_TI_call
    2841 000677 6C00          CALL #_xQueueSemaphoreTake ; |1339| 
         000679 0000!
    2842                                                      ; call occurs [#_xQueueSemaphoreTake] ; |1339| 
    2843 00067b 124C          CMP T0 != T2, TC1 ; |1339| 
         00067d 60   
    2844 00067e 0464          BCC $C$L45,TC1 ; |1339| 
         000680 25   
    2845                                                      ; branchcc occurs ; |1339| 
    2846 000681       $C$DW$L$_LED_TaskGreen$2$E:
    2847 000681       $C$DW$L$_LED_TaskGreen$3$B:
    2848                      .dwpsn  file "../FreeRTOS/Demo/c5515_CCS/main.c",line 1342,column 2,is_stmt
    2849 000681 F731          ADD #1, *(#_counter$6) ; |1342| 
         000683 0001 
         000685 0000 
         000687 2D-  
    2850                      .dwpsn  file "../FreeRTOS/Demo/c5515_CCS/main.c",line 1343,column 2,is_stmt
    2851 000688 DC31          BTST #0, *(#_counter$6), TC1 ; |1343| 
TMS320C55x Assembler PC v4.4.1 Sun Oct 07 10:05:05 2018

Tools Copyright (c) 1996-2012 Texas Instruments Incorporated
main.asm                                                             PAGE   61

         00068a 0000 
         00068c 002D-
    2852 00068e 6674          BCC $C$L44,!TC1 ; |1343| 
    2853                                                      ; branchcc occurs ; |1343| 
    2854 000690       $C$DW$L$_LED_TaskGreen$3$E:
    2855 000690       $C$DW$L$_LED_TaskGreen$4$B:
    2856                      .dwpsn  file "../FreeRTOS/Demo/c5515_CCS/main.c",line 1345,column 3,is_stmt
    2857 000690 7600          MOV #17, T0 ; |1345| 
         000692 1148 
    2858              $C$DW$247       .dwtag  DW_TAG_TI_branch
    2859                      .dwattr $C$DW$247, DW_AT_low_pc(0x00)
    2860                      .dwattr $C$DW$247, DW_AT_name("_EZDSP5535_GPIO_setOutput")
    2861                      .dwattr $C$DW$247, DW_AT_TI_call
    2862              
    2863 000694 6C00          CALL #_EZDSP5535_GPIO_setOutput ; |1345| 
         000696 0000!
    2864 000698 3D15  ||      MOV #1, T1
    2865              
    2866                                                      ; call occurs [#_EZDSP5535_GPIO_setOutput] ; |1345| 
    2867                      .dwpsn  file "../FreeRTOS/Demo/c5515_CCS/main.c",line 1350,column 2,is_stmt
    2868 00069a 4A0A          B $C$L45  ; |1350| 
    2869                                                      ; branch occurs ; |1350| 
    2870 00069c       $C$DW$L$_LED_TaskGreen$4$E:
    2871 00069c       $C$L44:    
    2872 00069c       $C$DW$L$_LED_TaskGreen$5$B:
    2873                      .dwpsn  file "../FreeRTOS/Demo/c5515_CCS/main.c",line 1353,column 3,is_stmt
    2874 00069c 7600          MOV #17, T0 ; |1353| 
         00069e 1148 
    2875              $C$DW$248       .dwtag  DW_TAG_TI_branch
    2876                      .dwattr $C$DW$248, DW_AT_low_pc(0x00)
    2877                      .dwattr $C$DW$248, DW_AT_name("_EZDSP5535_GPIO_setOutput")
    2878                      .dwattr $C$DW$248, DW_AT_TI_call
    2879              
    2880 0006a0 6C00          CALL #_EZDSP5535_GPIO_setOutput ; |1353| 
         0006a2 0000!
    2881 0006a4 3D05  ||      MOV #0, T1
    2882              
    2883                                                      ; call occurs [#_EZDSP5535_GPIO_setOutput] ; |1353| 
    2884 0006a6       $C$DW$L$_LED_TaskGreen$5$E:
    2885 0006a6       $C$L45:    
    2886 0006a6       $C$DW$L$_LED_TaskGreen$6$B:
    2887                      .dwpsn  file "../FreeRTOS/Demo/c5515_CCS/main.c",line 1372,column 3,is_stmt
    2888 0006a6 7600          MOV #200, AC0 ; |1372| 
         0006a8 C808 
    2889              $C$DW$249       .dwtag  DW_TAG_TI_branch
    2890                      .dwattr $C$DW$249, DW_AT_low_pc(0x00)
    2891                      .dwattr $C$DW$249, DW_AT_name("_vTaskDelay")
    2892                      .dwattr $C$DW$249, DW_AT_TI_call
    2893 0006aa 6C00          CALL #_vTaskDelay ; |1372| 
         0006ac 0000!
    2894                                                      ; call occurs [#_vTaskDelay] ; |1372| 
    2895                      .dwpsn  file "../FreeRTOS/Demo/c5515_CCS/main.c",line 1374,column 2,is_stmt
    2896 0006ae 06FF          B $C$L43  ; |1374| 
         0006b0 BC   
    2897                                                      ; branch occurs ; |1374| 
TMS320C55x Assembler PC v4.4.1 Sun Oct 07 10:05:05 2018

Tools Copyright (c) 1996-2012 Texas Instruments Incorporated
main.asm                                                             PAGE   62

    2898 0006b1       $C$DW$L$_LED_TaskGreen$6$E:
    2899                      .dwcfi  cfa_offset, 2
    2900                      .dwcfi  restore_reg, 14
    2901                      .dwcfi  cfa_offset, 1
    2902              
    2903              $C$DW$250       .dwtag  DW_TAG_TI_loop
    2904                      .dwattr $C$DW$250, DW_AT_name("F:\eZdsp_DBG\tmp1\c55x-sim2\foo\Debug\main.asm:$C$L43:1:1538931905")
    2905                      .dwattr $C$DW$250, DW_AT_TI_begin_file("../FreeRTOS/Demo/c5515_CCS/main.c")
    2906                      .dwattr $C$DW$250, DW_AT_TI_begin_line(0x539)
    2907                      .dwattr $C$DW$250, DW_AT_TI_end_line(0x55e)
    2908              $C$DW$251       .dwtag  DW_TAG_TI_loop_range
    2909                      .dwattr $C$DW$251, DW_AT_low_pc($C$DW$L$_LED_TaskGreen$2$B)
    2910                      .dwattr $C$DW$251, DW_AT_high_pc($C$DW$L$_LED_TaskGreen$2$E)
    2911              $C$DW$252       .dwtag  DW_TAG_TI_loop_range
    2912                      .dwattr $C$DW$252, DW_AT_low_pc($C$DW$L$_LED_TaskGreen$3$B)
    2913                      .dwattr $C$DW$252, DW_AT_high_pc($C$DW$L$_LED_TaskGreen$3$E)
    2914              $C$DW$253       .dwtag  DW_TAG_TI_loop_range
    2915                      .dwattr $C$DW$253, DW_AT_low_pc($C$DW$L$_LED_TaskGreen$4$B)
    2916                      .dwattr $C$DW$253, DW_AT_high_pc($C$DW$L$_LED_TaskGreen$4$E)
    2917              $C$DW$254       .dwtag  DW_TAG_TI_loop_range
    2918                      .dwattr $C$DW$254, DW_AT_low_pc($C$DW$L$_LED_TaskGreen$5$B)
    2919                      .dwattr $C$DW$254, DW_AT_high_pc($C$DW$L$_LED_TaskGreen$5$E)
    2920              $C$DW$255       .dwtag  DW_TAG_TI_loop_range
    2921                      .dwattr $C$DW$255, DW_AT_low_pc($C$DW$L$_LED_TaskGreen$6$B)
    2922                      .dwattr $C$DW$255, DW_AT_high_pc($C$DW$L$_LED_TaskGreen$6$E)
    2923                      .dwendtag $C$DW$250
    2924              
    2925                      .dwattr $C$DW$241, DW_AT_TI_end_file("../FreeRTOS/Demo/c5515_CCS/main.c")
    2926                      .dwattr $C$DW$241, DW_AT_TI_end_line(0x55f)
    2927                      .dwattr $C$DW$241, DW_AT_TI_end_column(0x01)
    2928                      .dwendentry
    2929                      .dwendtag $C$DW$241
    2930              
    2931 0006b1               .sect   ".text"
    2932                      .align 4
    2933                      .global _LED_Control
    2934              
    2935              $C$DW$256       .dwtag  DW_TAG_subprogram, DW_AT_name("LED_Control")
    2936                      .dwattr $C$DW$256, DW_AT_low_pc(_LED_Control)
    2937                      .dwattr $C$DW$256, DW_AT_high_pc(0x00)
    2938                      .dwattr $C$DW$256, DW_AT_TI_symbol_name("_LED_Control")
    2939                      .dwattr $C$DW$256, DW_AT_external
    2940                      .dwattr $C$DW$256, DW_AT_TI_begin_file("../FreeRTOS/Demo/c5515_CCS/main.c")
    2941                      .dwattr $C$DW$256, DW_AT_TI_begin_line(0x561)
    2942                      .dwattr $C$DW$256, DW_AT_TI_begin_column(0x06)
    2943                      .dwattr $C$DW$256, DW_AT_TI_max_frame_size(0x04)
    2944                      .dwpsn  file "../FreeRTOS/Demo/c5515_CCS/main.c",line 1378,column 1,is_stmt,address _LED_Control
    2945              
    2946                      .dwfde $C$DW$CIE, _LED_Control
    2947              $C$DW$257       .dwtag  DW_TAG_variable, DW_AT_name("ctr")
    2948                      .dwattr $C$DW$257, DW_AT_TI_symbol_name("_ctr$8")
    2949                      .dwattr $C$DW$257, DW_AT_type(*$C$DW$T$8)
    2950                      .dwattr $C$DW$257, DW_AT_location[DW_OP_addr _ctr$8]
    2951              $C$DW$258       .dwtag  DW_TAG_formal_parameter, DW_AT_name("pvParameters")
    2952                      .dwattr $C$DW$258, DW_AT_TI_symbol_name("_pvParameters")
TMS320C55x Assembler PC v4.4.1 Sun Oct 07 10:05:05 2018

Tools Copyright (c) 1996-2012 Texas Instruments Incorporated
main.asm                                                             PAGE   63

    2953                      .dwattr $C$DW$258, DW_AT_type(*$C$DW$T$3)
    2954                      .dwattr $C$DW$258, DW_AT_location[DW_OP_reg17]
    2955              ;*******************************************************************************
    2956              ;* FUNCTION NAME: LED_Control                                                  *
    2957              ;*                                                                             *
    2958              ;*   Function Uses Regs : AC0,AC0,T0,T2,AR0,XAR0,AR1,XAR1,SP,CARRY,TC1,M40,    *
    2959              ;*                        SATA,SATD,RDM,FRCT,SMUL                              *
    2960              ;*   Save On Entry Regs : T2                                                   *
    2961              ;*   Stack Frame        : Compact (No Frame Pointer, w/ debug)                 *
    2962              ;*   Total Frame Size   : 4 words                                              *
    2963              ;*                        (1 return address/alignment)                         *
    2964              ;*                        (2 local values)                                     *
    2965              ;*                        (1 register save area)                               *
    2966              ;*   Min System Stack   : 1 word                                               *
    2967              ;*******************************************************************************
    2968 0006b4       _LED_Control:
    2969                      .dwcfi  cfa_offset, 1
    2970                      .dwcfi  save_reg_to_mem, 91, -1
    2971 0006b4 5066          PSH T2
    2972                      .dwcfi  cfa_offset, 2
    2973                      .dwcfi  save_reg_to_mem, 14, -2
    2974 0006b6 4EFE          AADD #-2, SP
    2975                      .dwcfi  cfa_offset, 4
    2976              $C$DW$259       .dwtag  DW_TAG_variable, DW_AT_name("pvParameters")
    2977                      .dwattr $C$DW$259, DW_AT_TI_symbol_name("_pvParameters")
    2978                      .dwattr $C$DW$259, DW_AT_type(*$C$DW$T$3)
    2979                      .dwattr $C$DW$259, DW_AT_location[DW_OP_bregx 0x24 0]
    2980              
    2981 0006b8 EB00          MOV XAR0, dbl(*SP(#0))
         0006ba 85   
    2982 0006bb 3D16  ||      MOV #1, T2
    2983              
    2984 0006bd       $C$L46:    
    2985 0006bd       $C$DW$L$_LED_Control$2$B:
    2986                      .dwpsn  file "../FreeRTOS/Demo/c5515_CCS/main.c",line 1462,column 6,is_stmt
    2987 0006bd ED31          MOV dbl(*(#_xSemaphoreBaton)), XAR0
         0006bf 8F00 
         0006c1 0026-
    2988 0006c3 EC31          AMOV #0, XAR1 ; |1462| 
         0006c5 9E00 
         0006c7 0000 
    2989 0006c9 3C00          MOV #0, AC0 ; |1462| 
    2990              $C$DW$260       .dwtag  DW_TAG_TI_branch
    2991                      .dwattr $C$DW$260, DW_AT_low_pc(0x00)
    2992                      .dwattr $C$DW$260, DW_AT_name("_xQueueGenericSend")
    2993                      .dwattr $C$DW$260, DW_AT_TI_call
    2994              
    2995 0006cb 6C00          CALL #_xQueueGenericSend ; |1462| 
         0006cd 0000!
    2996 0006cf 3D04  ||      MOV #0, T0
    2997              
    2998                                                      ; call occurs [#_xQueueGenericSend] ; |1462| 
    2999 0006d1 1240          CMP T0 == T2, TC1 ; |1462| 
         0006d3 60   
    3000 0006d4 63E4          BCC $C$L47,TC1 ; |1462| 
TMS320C55x Assembler PC v4.4.1 Sun Oct 07 10:05:05 2018

Tools Copyright (c) 1996-2012 Texas Instruments Incorporated
main.asm                                                             PAGE   64

    3001                                                      ; branchcc occurs ; |1462| 
    3002 0006d6       $C$DW$L$_LED_Control$2$E:
    3003 0006d6       $C$DW$L$_LED_Control$3$B:
    3004                      .dwpsn  file "../FreeRTOS/Demo/c5515_CCS/main.c",line 1464,column 7,is_stmt
    3005 0006d6 F731          ADD #1, *(#_ctr$8) ; |1464| 
         0006d8 0001 
         0006da 0000 
         0006dc 2F-  
    3006 0006dd       $C$DW$L$_LED_Control$3$E:
    3007 0006dd       $C$L47:    
    3008 0006dd       $C$DW$L$_LED_Control$4$B:
    3009                      .dwpsn  file "../FreeRTOS/Demo/c5515_CCS/main.c",line 1466,column 6,is_stmt
    3010 0006dd 7600          MOV #200, AC0 ; |1466| 
         0006df C808 
    3011              $C$DW$261       .dwtag  DW_TAG_TI_branch
    3012                      .dwattr $C$DW$261, DW_AT_low_pc(0x00)
    3013                      .dwattr $C$DW$261, DW_AT_name("_vTaskDelay")
    3014                      .dwattr $C$DW$261, DW_AT_TI_call
    3015 0006e1 6C00          CALL #_vTaskDelay ; |1466| 
         0006e3 0000!
    3016                                                      ; call occurs [#_vTaskDelay] ; |1466| 
    3017                      .dwpsn  file "../FreeRTOS/Demo/c5515_CCS/main.c",line 1467,column 2,is_stmt
    3018 0006e5 4A56          B $C$L46  ; |1467| 
    3019                                                      ; branch occurs ; |1467| 
    3020 0006e7       $C$DW$L$_LED_Control$4$E:
    3021                      .dwcfi  cfa_offset, 2
    3022                      .dwcfi  restore_reg, 14
    3023                      .dwcfi  cfa_offset, 1
    3024              
    3025              $C$DW$262       .dwtag  DW_TAG_TI_loop
    3026                      .dwattr $C$DW$262, DW_AT_name("F:\eZdsp_DBG\tmp1\c55x-sim2\foo\Debug\main.asm:$C$L46:1:1538931905")
    3027                      .dwattr $C$DW$262, DW_AT_TI_begin_file("../FreeRTOS/Demo/c5515_CCS/main.c")
    3028                      .dwattr $C$DW$262, DW_AT_TI_begin_line(0x565)
    3029                      .dwattr $C$DW$262, DW_AT_TI_end_line(0x5bb)
    3030              $C$DW$263       .dwtag  DW_TAG_TI_loop_range
    3031                      .dwattr $C$DW$263, DW_AT_low_pc($C$DW$L$_LED_Control$2$B)
    3032                      .dwattr $C$DW$263, DW_AT_high_pc($C$DW$L$_LED_Control$2$E)
    3033              $C$DW$264       .dwtag  DW_TAG_TI_loop_range
    3034                      .dwattr $C$DW$264, DW_AT_low_pc($C$DW$L$_LED_Control$3$B)
    3035                      .dwattr $C$DW$264, DW_AT_high_pc($C$DW$L$_LED_Control$3$E)
    3036              $C$DW$265       .dwtag  DW_TAG_TI_loop_range
    3037                      .dwattr $C$DW$265, DW_AT_low_pc($C$DW$L$_LED_Control$4$B)
    3038                      .dwattr $C$DW$265, DW_AT_high_pc($C$DW$L$_LED_Control$4$E)
    3039                      .dwendtag $C$DW$262
    3040              
    3041                      .dwattr $C$DW$256, DW_AT_TI_end_file("../FreeRTOS/Demo/c5515_CCS/main.c")
    3042                      .dwattr $C$DW$256, DW_AT_TI_end_line(0x5bc)
    3043                      .dwattr $C$DW$256, DW_AT_TI_end_column(0x01)
    3044                      .dwendentry
    3045                      .dwendtag $C$DW$256
    3046              
    3047 0006e7               .sect   ".text"
    3048                      .align 4
    3049                      .global _LED_TaskXF2
    3050              
TMS320C55x Assembler PC v4.4.1 Sun Oct 07 10:05:05 2018

Tools Copyright (c) 1996-2012 Texas Instruments Incorporated
main.asm                                                             PAGE   65

    3051              $C$DW$266       .dwtag  DW_TAG_subprogram, DW_AT_name("LED_TaskXF2")
    3052                      .dwattr $C$DW$266, DW_AT_low_pc(_LED_TaskXF2)
    3053                      .dwattr $C$DW$266, DW_AT_high_pc(0x00)
    3054                      .dwattr $C$DW$266, DW_AT_TI_symbol_name("_LED_TaskXF2")
    3055                      .dwattr $C$DW$266, DW_AT_external
    3056                      .dwattr $C$DW$266, DW_AT_TI_begin_file("../FreeRTOS/Demo/c5515_CCS/main.c")
    3057                      .dwattr $C$DW$266, DW_AT_TI_begin_line(0x5be)
    3058                      .dwattr $C$DW$266, DW_AT_TI_begin_column(0x06)
    3059                      .dwattr $C$DW$266, DW_AT_TI_max_frame_size(0x04)
    3060                      .dwpsn  file "../FreeRTOS/Demo/c5515_CCS/main.c",line 1471,column 1,is_stmt,address _LED_TaskXF2
    3061              
    3062                      .dwfde $C$DW$CIE, _LED_TaskXF2
    3063              $C$DW$267       .dwtag  DW_TAG_variable, DW_AT_name("counter")
    3064                      .dwattr $C$DW$267, DW_AT_TI_symbol_name("_counter$9")
    3065                      .dwattr $C$DW$267, DW_AT_type(*$C$DW$T$9)
    3066                      .dwattr $C$DW$267, DW_AT_location[DW_OP_addr _counter$9]
    3067              $C$DW$268       .dwtag  DW_TAG_formal_parameter, DW_AT_name("pvParameters")
    3068                      .dwattr $C$DW$268, DW_AT_TI_symbol_name("_pvParameters")
    3069                      .dwattr $C$DW$268, DW_AT_type(*$C$DW$T$3)
    3070                      .dwattr $C$DW$268, DW_AT_location[DW_OP_reg17]
    3071              ;*******************************************************************************
    3072              ;* FUNCTION NAME: LED_TaskXF2                                                  *
    3073              ;*                                                                             *
    3074              ;*   Function Uses Regs : AC0,AC0,T0,T2,AR0,XAR0,SP,TC1,M40,SATA,SATD,RDM,FRCT,*
    3075              ;*                        SMUL                                                 *
    3076              ;*   Save On Entry Regs : T2                                                   *
    3077              ;*   Stack Frame        : Compact (No Frame Pointer, w/ debug)                 *
    3078              ;*   Total Frame Size   : 4 words                                              *
    3079              ;*                        (1 return address/alignment)                         *
    3080              ;*                        (2 local values)                                     *
    3081              ;*                        (1 register save area)                               *
    3082              ;*   Min System Stack   : 1 word                                               *
    3083              ;*******************************************************************************
    3084 0006e8       _LED_TaskXF2:
    3085                      .dwcfi  cfa_offset, 1
    3086                      .dwcfi  save_reg_to_mem, 91, -1
    3087 0006e8 5066          PSH T2
    3088                      .dwcfi  cfa_offset, 2
    3089                      .dwcfi  save_reg_to_mem, 14, -2
    3090 0006ea 4EFE          AADD #-2, SP
    3091                      .dwcfi  cfa_offset, 4
    3092              $C$DW$269       .dwtag  DW_TAG_variable, DW_AT_name("pvParameters")
    3093                      .dwattr $C$DW$269, DW_AT_TI_symbol_name("_pvParameters")
    3094                      .dwattr $C$DW$269, DW_AT_type(*$C$DW$T$3)
    3095                      .dwattr $C$DW$269, DW_AT_location[DW_OP_bregx 0x24 0]
    3096              
    3097 0006ec EB00          MOV XAR0, dbl(*SP(#0))
         0006ee 85   
    3098 0006ef 3D16  ||      MOV #1, T2
    3099              
    3100 0006f1       $C$L48:    
    3101 0006f1       $C$DW$L$_LED_TaskXF2$2$B:
    3102                      .dwpsn  file "../FreeRTOS/Demo/c5515_CCS/main.c",line 1488,column 2,is_stmt
    3103 0006f1 ED31          MOV dbl(*(#_xSemaphoreXF)), XAR0
         0006f3 8F00 
TMS320C55x Assembler PC v4.4.1 Sun Oct 07 10:05:05 2018

Tools Copyright (c) 1996-2012 Texas Instruments Incorporated
main.asm                                                             PAGE   66

         0006f5 0024-
    3104 0006f7 7600          MOV #250, AC0 ; |1488| 
         0006f9 FA08 
    3105              $C$DW$270       .dwtag  DW_TAG_TI_branch
    3106                      .dwattr $C$DW$270, DW_AT_low_pc(0x00)
    3107                      .dwattr $C$DW$270, DW_AT_name("_xQueueSemaphoreTake")
    3108                      .dwattr $C$DW$270, DW_AT_TI_call
    3109 0006fb 6C00          CALL #_xQueueSemaphoreTake ; |1488| 
         0006fd 0000!
    3110                                                      ; call occurs [#_xQueueSemaphoreTake] ; |1488| 
    3111 0006ff 124C          CMP T0 != T2, TC1 ; |1488| 
         000701 60   
    3112 000702 6264          BCC $C$L49,TC1 ; |1488| 
    3113                                                      ; branchcc occurs ; |1488| 
    3114 000704       $C$DW$L$_LED_TaskXF2$2$E:
    3115 000704       $C$DW$L$_LED_TaskXF2$3$B:
    3116                      .dwpsn  file "../FreeRTOS/Demo/c5515_CCS/main.c",line 1503,column 2,is_stmt
    3117              $C$DW$271       .dwtag  DW_TAG_TI_branch
    3118                      .dwattr $C$DW$271, DW_AT_low_pc(0x00)
    3119                      .dwattr $C$DW$271, DW_AT_name("_EZDSP5535_XF_toggle")
    3120                      .dwattr $C$DW$271, DW_AT_TI_call
    3121 000704 6C00          CALL #_EZDSP5535_XF_toggle ; |1503| 
         000706 0000!
    3122                                                      ; call occurs [#_EZDSP5535_XF_toggle] ; |1503| 
    3123 000708       $C$DW$L$_LED_TaskXF2$3$E:
    3124 000708       $C$L49:    
    3125 000708       $C$DW$L$_LED_TaskXF2$4$B:
    3126                      .dwpsn  file "../FreeRTOS/Demo/c5515_CCS/main.c",line 1517,column 3,is_stmt
    3127 000708 7600          MOV #200, AC0 ; |1517| 
         00070a C808 
    3128              $C$DW$272       .dwtag  DW_TAG_TI_branch
    3129                      .dwattr $C$DW$272, DW_AT_low_pc(0x00)
    3130                      .dwattr $C$DW$272, DW_AT_name("_vTaskDelay")
    3131                      .dwattr $C$DW$272, DW_AT_TI_call
    3132 00070c 6C00          CALL #_vTaskDelay ; |1517| 
         00070e 0000!
    3133                                                      ; call occurs [#_vTaskDelay] ; |1517| 
    3134                      .dwpsn  file "../FreeRTOS/Demo/c5515_CCS/main.c",line 1518,column 2,is_stmt
    3135 000710 4A5F          B $C$L48  ; |1518| 
    3136                                                      ; branch occurs ; |1518| 
    3137 000712       $C$DW$L$_LED_TaskXF2$4$E:
    3138                      .dwcfi  cfa_offset, 2
    3139                      .dwcfi  restore_reg, 14
    3140                      .dwcfi  cfa_offset, 1
    3141              
    3142              $C$DW$273       .dwtag  DW_TAG_TI_loop
    3143                      .dwattr $C$DW$273, DW_AT_name("F:\eZdsp_DBG\tmp1\c55x-sim2\foo\Debug\main.asm:$C$L48:1:1538931905")
    3144                      .dwattr $C$DW$273, DW_AT_TI_begin_file("../FreeRTOS/Demo/c5515_CCS/main.c")
    3145                      .dwattr $C$DW$273, DW_AT_TI_begin_line(0x5cc)
    3146                      .dwattr $C$DW$273, DW_AT_TI_end_line(0x5ee)
    3147              $C$DW$274       .dwtag  DW_TAG_TI_loop_range
    3148                      .dwattr $C$DW$274, DW_AT_low_pc($C$DW$L$_LED_TaskXF2$2$B)
    3149                      .dwattr $C$DW$274, DW_AT_high_pc($C$DW$L$_LED_TaskXF2$2$E)
    3150              $C$DW$275       .dwtag  DW_TAG_TI_loop_range
    3151                      .dwattr $C$DW$275, DW_AT_low_pc($C$DW$L$_LED_TaskXF2$3$B)
TMS320C55x Assembler PC v4.4.1 Sun Oct 07 10:05:05 2018

Tools Copyright (c) 1996-2012 Texas Instruments Incorporated
main.asm                                                             PAGE   67

    3152                      .dwattr $C$DW$275, DW_AT_high_pc($C$DW$L$_LED_TaskXF2$3$E)
    3153              $C$DW$276       .dwtag  DW_TAG_TI_loop_range
    3154                      .dwattr $C$DW$276, DW_AT_low_pc($C$DW$L$_LED_TaskXF2$4$B)
    3155                      .dwattr $C$DW$276, DW_AT_high_pc($C$DW$L$_LED_TaskXF2$4$E)
    3156                      .dwendtag $C$DW$273
    3157              
    3158                      .dwattr $C$DW$266, DW_AT_TI_end_file("../FreeRTOS/Demo/c5515_CCS/main.c")
    3159                      .dwattr $C$DW$266, DW_AT_TI_end_line(0x5ef)
    3160                      .dwattr $C$DW$266, DW_AT_TI_end_column(0x01)
    3161                      .dwendentry
    3162                      .dwendtag $C$DW$266
    3163              
    3164 000712               .sect   ".text"
    3165                      .align 4
    3166                      .global _StartUpTask
    3167              
    3168              $C$DW$277       .dwtag  DW_TAG_subprogram, DW_AT_name("StartUpTask")
    3169                      .dwattr $C$DW$277, DW_AT_low_pc(_StartUpTask)
    3170                      .dwattr $C$DW$277, DW_AT_high_pc(0x00)
    3171                      .dwattr $C$DW$277, DW_AT_TI_symbol_name("_StartUpTask")
    3172                      .dwattr $C$DW$277, DW_AT_external
    3173                      .dwattr $C$DW$277, DW_AT_TI_begin_file("../FreeRTOS/Demo/c5515_CCS/main.c")
    3174                      .dwattr $C$DW$277, DW_AT_TI_begin_line(0x5f1)
    3175                      .dwattr $C$DW$277, DW_AT_TI_begin_column(0x06)
    3176                      .dwattr $C$DW$277, DW_AT_TI_max_frame_size(0x04)
    3177                      .dwpsn  file "../FreeRTOS/Demo/c5515_CCS/main.c",line 1522,column 1,is_stmt,address _StartUpTask
    3178              
    3179                      .dwfde $C$DW$CIE, _StartUpTask
    3180              $C$DW$278       .dwtag  DW_TAG_variable, DW_AT_name("ctr")
    3181                      .dwattr $C$DW$278, DW_AT_TI_symbol_name("_ctr$10")
    3182                      .dwattr $C$DW$278, DW_AT_type(*$C$DW$T$9)
    3183                      .dwattr $C$DW$278, DW_AT_location[DW_OP_addr _ctr$10]
    3184              $C$DW$279       .dwtag  DW_TAG_formal_parameter, DW_AT_name("pvParameters")
    3185                      .dwattr $C$DW$279, DW_AT_TI_symbol_name("_pvParameters")
    3186                      .dwattr $C$DW$279, DW_AT_type(*$C$DW$T$3)
    3187                      .dwattr $C$DW$279, DW_AT_location[DW_OP_reg17]
    3188              ;*******************************************************************************
    3189              ;* FUNCTION NAME: StartUpTask                                                  *
    3190              ;*                                                                             *
    3191              ;*   Function Uses Regs : AC0,AC0,AR0,XAR0,SP,M40,SATA,SATD,RDM,FRCT,SMUL      *
    3192              ;*   Stack Frame        : Compact (No Frame Pointer, w/ debug)                 *
    3193              ;*   Total Frame Size   : 4 words                                              *
    3194              ;*                        (2 return address/alignment)                         *
    3195              ;*                        (2 local values)                                     *
    3196              ;*   Min System Stack   : 1 word                                               *
    3197              ;*******************************************************************************
    3198 000714       _StartUpTask:
    3199                      .dwcfi  cfa_offset, 1
    3200                      .dwcfi  save_reg_to_mem, 91, -1
    3201 000714 4EFD          AADD #-3, SP
    3202                      .dwcfi  cfa_offset, 4
    3203              $C$DW$280       .dwtag  DW_TAG_variable, DW_AT_name("pvParameters")
    3204                      .dwattr $C$DW$280, DW_AT_TI_symbol_name("_pvParameters")
    3205                      .dwattr $C$DW$280, DW_AT_type(*$C$DW$T$3)
    3206                      .dwattr $C$DW$280, DW_AT_location[DW_OP_bregx 0x24 0]
TMS320C55x Assembler PC v4.4.1 Sun Oct 07 10:05:05 2018

Tools Copyright (c) 1996-2012 Texas Instruments Incorporated
main.asm                                                             PAGE   68

    3207 000716 EB00          MOV XAR0, dbl(*SP(#0))
         000718 85   
    3208 000719       $C$L50:    
    3209 000719       $C$DW$L$_StartUpTask$2$B:
    3210                      .dwpsn  file "../FreeRTOS/Demo/c5515_CCS/main.c",line 1562,column 3,is_stmt
    3211 000719 ED31          MOV dbl(*(#_blueTaskHandle)), XAR0
         00071b 8F00 
         00071d 0006-
    3212              $C$DW$281       .dwtag  DW_TAG_TI_branch
    3213                      .dwattr $C$DW$281, DW_AT_low_pc(0x00)
    3214                      .dwattr $C$DW$281, DW_AT_name("_vTaskResume")
    3215                      .dwattr $C$DW$281, DW_AT_TI_call
    3216 00071f 6C00          CALL #_vTaskResume ; |1562| 
         000721 0000!
    3217                                                      ; call occurs [#_vTaskResume] ; |1562| 
    3218                      .dwpsn  file "../FreeRTOS/Demo/c5515_CCS/main.c",line 1563,column 3,is_stmt
    3219 000723 ED31          MOV dbl(*(#_TestTask1Handle)), XAR0
         000725 8F00 
         000727 0014-
    3220              $C$DW$282       .dwtag  DW_TAG_TI_branch
    3221                      .dwattr $C$DW$282, DW_AT_low_pc(0x00)
    3222                      .dwattr $C$DW$282, DW_AT_name("_vTaskResume")
    3223                      .dwattr $C$DW$282, DW_AT_TI_call
    3224 000729 6C00          CALL #_vTaskResume ; |1563| 
         00072b 0000!
