TMS320C55x Assembler PC v4.4.1 Sun Sep 30 06:35:16 2018

Tools Copyright (c) 1996-2012 Texas Instruments Incorporated
main.asm                                                             PAGE    1

    4747              ; Temporary Registers Used: None
       1              ;*******************************************************************************
       2              ;* TMS320C55x C/C++ Codegen                                          PC v4.4.1 *
       3              ;* Date/Time created: Sun Sep 30 06:35:15 2018                                 *
       4              ;*******************************************************************************
       5                      .compiler_opts --hll_source=on --mem_model:code=flat --mem_model:data=large --object_format=coff --si
       6                      .mmregs
       7                      .cpl_on
       8                      .arms_on
       9                      .c54cm_off
      10                      .asg AR6, FP
      11                      .asg XAR6, XFP
      12                      .asg DPH, MDP
      13                      .model call=c55_std
      14                      .model mem=large
      15                      .noremark 5002  ; code respects overwrite rules
      16              ;*******************************************************************************
      17              ;* GLOBAL FILE PARAMETERS                                                      *
      18              ;*                                                                             *
      19              ;*   Architecture       : TMS320C55x                                           *
      20              ;*   Optimizing for     : Speed                                                *
      21              ;*   Memory             : Large Model (23-Bit Data Pointers)                   *
      22              ;*   Calls              : Normal Library ASM calls                             *
      23              ;*   Debug Info         : Standard TI Debug Information                        *
      24              ;*******************************************************************************
      25              
      26              $C$DW$CU        .dwtag  DW_TAG_compile_unit
      27                      .dwattr $C$DW$CU, DW_AT_name("../FreeRTOS/Demo/c5515_CCS/main.c")
      28                      .dwattr $C$DW$CU, DW_AT_producer("TMS320C55x C/C++ Codegen PC v4.4.1 Copyright (c) 1996-2012 Texas In
      29                      .dwattr $C$DW$CU, DW_AT_TI_version(0x01)
      30                      .dwattr $C$DW$CU, DW_AT_comp_dir("F:\eZdsp_DBG\tmp1\c55x-sim2\foo\Debug")
      31              ;******************************************************************************
      32              ;* CINIT RECORDS                                                              *
      33              ;******************************************************************************
      34 000000               .sect   ".cinit"
      35                      .align  1
      36 000000 0001          .field          1,16
      37 000001 0000-         .field          _fSineWave+0,24
         000002 0000 
      38 000002 0000          .field          0,8
      39 000003 0000          .field  0,16                    ; _fSineWave @ 0
      40              
      41 000004               .sect   ".cinit"
      42                      .align  1
      43 000004 0001          .field          1,16
      44 000005 0000-         .field          _f1KToneOn+0,24
         000006 0100 
      45 000006 0100          .field          0,8
      46 000007 0000          .field  0,16                    ; _f1KToneOn @ 0
      47              
      48 000008               .sect   ".cinit"
      49                      .align  1
      50 000008 0001          .field          1,16
      51 000009 0000-         .field          _f2KToneOn+0,24
         00000a 0200 
TMS320C55x Assembler PC v4.4.1 Sun Sep 30 06:35:16 2018

Tools Copyright (c) 1996-2012 Texas Instruments Incorporated
main.asm                                                             PAGE    2

      52 00000a 0200          .field          0,8
      53 00000b 0000          .field  0,16                    ; _f2KToneOn @ 0
      54              
      55 00000c               .sect   ".cinit"
      56                      .align  1
      57 00000c 0002          .field          2,16
      58 00000d 0000-         .field          _led_tsks_running+0,24
         00000e 0400 
      59 00000e 0400          .field          0,8
      60 00000f 0000          .field  0,32                    ; _led_tsks_running @ 0
         000010 0000 
      61              
      62 000011               .sect   ".cinit"
      63                      .align  1
      64 000011 0002          .field          2,16
      65 000012 0000-         .field          _xSemaphoreR+0,24
         000013 1C00 
      66 000013 1C00          .field          0,8
      67 000014 0000          .field  0,32                    ; _xSemaphoreR @ 0
         000015 0000 
      68              
      69 000016               .sect   ".cinit"
      70                      .align  1
      71 000016 0002          .field          2,16
      72 000017 0000-         .field          _xSemaphoreB+0,24
         000018 1E00 
      73 000018 1E00          .field          0,8
      74 000019 0000          .field  0,32                    ; _xSemaphoreB @ 0
         00001a 0000 
      75              
      76 00001b               .sect   ".cinit"
      77                      .align  1
      78 00001b 0002          .field          2,16
      79 00001c 0000-         .field          _xSemaphoreY+0,24
         00001d 2000 
      80 00001d 2000          .field          0,8
      81 00001e 0000          .field  0,32                    ; _xSemaphoreY @ 0
         00001f 0000 
      82              
      83 000020               .sect   ".cinit"
      84                      .align  1
      85 000020 0002          .field          2,16
      86 000021 0000-         .field          _xSemaphoreO+0,24
         000022 2200 
      87 000022 2200          .field          0,8
      88 000023 0000          .field  0,32                    ; _xSemaphoreO @ 0
         000024 0000 
      89              
      90 000025               .sect   ".cinit"
      91                      .align  1
      92 000025 0002          .field          2,16
      93 000026 0000-         .field          _xSemaphoreXF+0,24
         000027 2400 
      94 000027 2400          .field          0,8
      95 000028 0000          .field  0,32                    ; _xSemaphoreXF @ 0
TMS320C55x Assembler PC v4.4.1 Sun Sep 30 06:35:16 2018

Tools Copyright (c) 1996-2012 Texas Instruments Incorporated
main.asm                                                             PAGE    3

         000029 0000 
      96              
      97 00002a               .sect   ".cinit"
      98                      .align  1
      99 00002a 0002          .field          2,16
     100 00002b 0000-         .field          _xSemaphoreBaton+0,24
         00002c 2600 
     101 00002c 2600          .field          0,8
     102 00002d 0000          .field  0,32                    ; _xSemaphoreBaton @ 0
         00002e 0000 
     103              
     104 00002f               .sect   ".cinit"
     105                      .align  1
     106 00002f 0002          .field          2,16
     107 000030 0000-         .field          _ulIdleLoops+0,24
         000031 2800 
     108 000031 2800          .field          0,8
     109 000032 0000          .field  0,32                    ; _ulIdleLoops @ 0
         000033 0000 
     110              
     111 000034               .sect   ".cinit"
     112                      .align  1
     113 000034 0001          .field          1,16
     114 000035 0000-         .field          _counter$3+0,24
         000036 2A00 
     115 000036 2A00          .field          0,8
     116 000037 0000          .field  0,16                    ; _counter$3 @ 0
     117              
     118 000038               .sect   ".cinit"
     119                      .align  1
     120 000038 0001          .field          1,16
     121 000039 0000-         .field          _counter$4+0,24
         00003a 2B00 
     122 00003a 2B00          .field          0,8
     123 00003b 0000          .field  0,16                    ; _counter$4 @ 0
     124              
     125 00003c               .sect   ".cinit"
     126                      .align  1
     127 00003c 0001          .field          1,16
     128 00003d 0000-         .field          _counter$5+0,24
         00003e 2C00 
     129 00003e 2C00          .field          0,8
     130 00003f 0000          .field  0,16                    ; _counter$5 @ 0
     131              
     132 000040               .sect   ".cinit"
     133                      .align  1
     134 000040 0001          .field          1,16
     135 000041 0000-         .field          _ctr$8+0,24
         000042 2F00 
     136 000042 2F00          .field          0,8
     137 000043 0000          .field  0,16                    ; _ctr$8 @ 0
     138              
     139 000044               .sect   ".cinit"
     140                      .align  1
     141 000044 0001          .field          1,16
TMS320C55x Assembler PC v4.4.1 Sun Sep 30 06:35:16 2018

Tools Copyright (c) 1996-2012 Texas Instruments Incorporated
main.asm                                                             PAGE    4

     142 000045 0000-         .field          _ctr$11+0,24
         000046 3200 
     143 000046 3200          .field          0,8
     144 000047 0000          .field  0,16                    ; _ctr$11 @ 0
     145              
     146 000048               .sect   ".cinit"
     147                      .align  1
     148 000048 0001          .field          1,16
     149 000049 0000-         .field          _ctr$12+0,24
         00004a 3300 
     150 00004a 3300          .field          0,8
     151 00004b 0000          .field  0,16                    ; _ctr$12 @ 0
     152              
     153 00004c               .sect   ".cinit"
     154                      .align  1
     155 00004c 0001          .field          1,16
     156 00004d 0000-         .field          _ctr$13+0,24
         00004e 3400 
     157 00004e 3400          .field          0,8
     158 00004f 0000          .field  0,16                    ; _ctr$13 @ 0
     159              
     160 000050               .sect   ".cinit"
     161                      .align  1
     162 000050 0001          .field          1,16
     163 000051 0000-         .field          _ctr$14+0,24
         000052 3500 
     164 000052 3500          .field          0,8
     165 000053 0000          .field  0,16                    ; _ctr$14 @ 0
     166              
     167              
     168              $C$DW$1 .dwtag  DW_TAG_subprogram, DW_AT_name("EZDSP5535_init")
     169                      .dwattr $C$DW$1, DW_AT_TI_symbol_name("_EZDSP5535_init")
     170                      .dwattr $C$DW$1, DW_AT_type(*$C$DW$T$88)
     171                      .dwattr $C$DW$1, DW_AT_declaration
     172                      .dwattr $C$DW$1, DW_AT_external
     173              
     174              $C$DW$2 .dwtag  DW_TAG_subprogram, DW_AT_name("xTaskCreate")
     175                      .dwattr $C$DW$2, DW_AT_TI_symbol_name("_xTaskCreate")
     176                      .dwattr $C$DW$2, DW_AT_type(*$C$DW$T$73)
     177                      .dwattr $C$DW$2, DW_AT_declaration
     178                      .dwattr $C$DW$2, DW_AT_external
     179              $C$DW$3 .dwtag  DW_TAG_formal_parameter
     180                      .dwattr $C$DW$3, DW_AT_type(*$C$DW$T$53)
     181              $C$DW$4 .dwtag  DW_TAG_formal_parameter
     182                      .dwattr $C$DW$4, DW_AT_type(*$C$DW$T$77)
     183              $C$DW$5 .dwtag  DW_TAG_formal_parameter
     184                      .dwattr $C$DW$5, DW_AT_type(*$C$DW$T$79)
     185              $C$DW$6 .dwtag  DW_TAG_formal_parameter
     186                      .dwattr $C$DW$6, DW_AT_type(*$C$DW$T$50)
     187              $C$DW$7 .dwtag  DW_TAG_formal_parameter
     188                      .dwattr $C$DW$7, DW_AT_type(*$C$DW$T$44)
     189              $C$DW$8 .dwtag  DW_TAG_formal_parameter
     190                      .dwattr $C$DW$8, DW_AT_type(*$C$DW$T$81)
     191                      .dwendtag $C$DW$2
     192              
TMS320C55x Assembler PC v4.4.1 Sun Sep 30 06:35:16 2018

Tools Copyright (c) 1996-2012 Texas Instruments Incorporated
main.asm                                                             PAGE    5

     193              
     194              $C$DW$9 .dwtag  DW_TAG_subprogram, DW_AT_name("vTaskDelay")
     195                      .dwattr $C$DW$9, DW_AT_TI_symbol_name("_vTaskDelay")
     196                      .dwattr $C$DW$9, DW_AT_declaration
     197                      .dwattr $C$DW$9, DW_AT_external
     198              $C$DW$10        .dwtag  DW_TAG_formal_parameter
     199                      .dwattr $C$DW$10, DW_AT_type(*$C$DW$T$55)
     200                      .dwendtag $C$DW$9
     201              
     202              
     203              $C$DW$11        .dwtag  DW_TAG_subprogram, DW_AT_name("vTaskSuspend")
     204                      .dwattr $C$DW$11, DW_AT_TI_symbol_name("_vTaskSuspend")
     205                      .dwattr $C$DW$11, DW_AT_declaration
     206                      .dwattr $C$DW$11, DW_AT_external
     207              $C$DW$12        .dwtag  DW_TAG_formal_parameter
     208                      .dwattr $C$DW$12, DW_AT_type(*$C$DW$T$59)
     209                      .dwendtag $C$DW$11
     210              
     211              
     212              $C$DW$13        .dwtag  DW_TAG_subprogram, DW_AT_name("vTaskResume")
     213                      .dwattr $C$DW$13, DW_AT_TI_symbol_name("_vTaskResume")
     214                      .dwattr $C$DW$13, DW_AT_declaration
     215                      .dwattr $C$DW$13, DW_AT_external
     216              $C$DW$14        .dwtag  DW_TAG_formal_parameter
     217                      .dwattr $C$DW$14, DW_AT_type(*$C$DW$T$59)
     218                      .dwendtag $C$DW$13
     219              
     220              
     221              $C$DW$15        .dwtag  DW_TAG_subprogram, DW_AT_name("vTaskStartScheduler")
     222                      .dwattr $C$DW$15, DW_AT_TI_symbol_name("_vTaskStartScheduler")
     223                      .dwattr $C$DW$15, DW_AT_declaration
     224                      .dwattr $C$DW$15, DW_AT_external
     225              
     226              $C$DW$16        .dwtag  DW_TAG_subprogram, DW_AT_name("xQueueGenericSend")
     227                      .dwattr $C$DW$16, DW_AT_TI_symbol_name("_xQueueGenericSend")
     228                      .dwattr $C$DW$16, DW_AT_type(*$C$DW$T$73)
     229                      .dwattr $C$DW$16, DW_AT_declaration
     230                      .dwattr $C$DW$16, DW_AT_external
     231              $C$DW$17        .dwtag  DW_TAG_formal_parameter
     232                      .dwattr $C$DW$17, DW_AT_type(*$C$DW$T$42)
     233              $C$DW$18        .dwtag  DW_TAG_formal_parameter
     234                      .dwattr $C$DW$18, DW_AT_type(*$C$DW$T$66)
     235              $C$DW$19        .dwtag  DW_TAG_formal_parameter
     236                      .dwattr $C$DW$19, DW_AT_type(*$C$DW$T$54)
     237              $C$DW$20        .dwtag  DW_TAG_formal_parameter
     238                      .dwattr $C$DW$20, DW_AT_type(*$C$DW$T$74)
     239                      .dwendtag $C$DW$16
     240              
     241              
     242              $C$DW$21        .dwtag  DW_TAG_subprogram, DW_AT_name("xQueueSemaphoreTake")
     243                      .dwattr $C$DW$21, DW_AT_TI_symbol_name("_xQueueSemaphoreTake")
     244                      .dwattr $C$DW$21, DW_AT_type(*$C$DW$T$73)
     245                      .dwattr $C$DW$21, DW_AT_declaration
     246                      .dwattr $C$DW$21, DW_AT_external
     247              $C$DW$22        .dwtag  DW_TAG_formal_parameter
TMS320C55x Assembler PC v4.4.1 Sun Sep 30 06:35:16 2018

Tools Copyright (c) 1996-2012 Texas Instruments Incorporated
main.asm                                                             PAGE    6

     248                      .dwattr $C$DW$22, DW_AT_type(*$C$DW$T$42)
     249              $C$DW$23        .dwtag  DW_TAG_formal_parameter
     250                      .dwattr $C$DW$23, DW_AT_type(*$C$DW$T$54)
     251                      .dwendtag $C$DW$21
     252              
     253              
     254              $C$DW$24        .dwtag  DW_TAG_subprogram, DW_AT_name("xQueueGenericCreate")
     255                      .dwattr $C$DW$24, DW_AT_TI_symbol_name("_xQueueGenericCreate")
     256                      .dwattr $C$DW$24, DW_AT_type(*$C$DW$T$42)
     257                      .dwattr $C$DW$24, DW_AT_declaration
     258                      .dwattr $C$DW$24, DW_AT_external
     259              $C$DW$25        .dwtag  DW_TAG_formal_parameter
     260                      .dwattr $C$DW$25, DW_AT_type(*$C$DW$T$45)
     261              $C$DW$26        .dwtag  DW_TAG_formal_parameter
     262                      .dwattr $C$DW$26, DW_AT_type(*$C$DW$T$45)
     263              $C$DW$27        .dwtag  DW_TAG_formal_parameter
     264                      .dwattr $C$DW$27, DW_AT_type(*$C$DW$T$47)
     265                      .dwendtag $C$DW$24
     266              
     267              
     268              $C$DW$28        .dwtag  DW_TAG_subprogram, DW_AT_name("set_dma0_ch0_i2s0_Lout")
     269                      .dwattr $C$DW$28, DW_AT_TI_symbol_name("_set_dma0_ch0_i2s0_Lout")
     270                      .dwattr $C$DW$28, DW_AT_type(*$C$DW$T$21)
     271                      .dwattr $C$DW$28, DW_AT_declaration
     272                      .dwattr $C$DW$28, DW_AT_external
     273              
     274              $C$DW$29        .dwtag  DW_TAG_subprogram, DW_AT_name("set_dma0_ch1_i2s0_Rout")
     275                      .dwattr $C$DW$29, DW_AT_TI_symbol_name("_set_dma0_ch1_i2s0_Rout")
     276                      .dwattr $C$DW$29, DW_AT_type(*$C$DW$T$21)
     277                      .dwattr $C$DW$29, DW_AT_declaration
     278                      .dwattr $C$DW$29, DW_AT_external
     279              
     280              $C$DW$30        .dwtag  DW_TAG_subprogram, DW_AT_name("set_dma0_ch0_stop")
     281                      .dwattr $C$DW$30, DW_AT_TI_symbol_name("_set_dma0_ch0_stop")
     282                      .dwattr $C$DW$30, DW_AT_declaration
     283                      .dwattr $C$DW$30, DW_AT_external
     284              
     285              $C$DW$31        .dwtag  DW_TAG_subprogram, DW_AT_name("set_dma0_ch1_stop")
     286                      .dwattr $C$DW$31, DW_AT_TI_symbol_name("_set_dma0_ch1_stop")
     287                      .dwattr $C$DW$31, DW_AT_declaration
     288                      .dwattr $C$DW$31, DW_AT_external
     289              
     290              $C$DW$32        .dwtag  DW_TAG_subprogram, DW_AT_name("EZDSP5535_LED_init")
     291                      .dwattr $C$DW$32, DW_AT_TI_symbol_name("_EZDSP5535_LED_init")
     292                      .dwattr $C$DW$32, DW_AT_type(*$C$DW$T$88)
     293                      .dwattr $C$DW$32, DW_AT_declaration
     294                      .dwattr $C$DW$32, DW_AT_external
     295              
     296              $C$DW$33        .dwtag  DW_TAG_subprogram, DW_AT_name("EZDSP5535_LED_on")
     297                      .dwattr $C$DW$33, DW_AT_TI_symbol_name("_EZDSP5535_LED_on")
     298                      .dwattr $C$DW$33, DW_AT_type(*$C$DW$T$88)
     299                      .dwattr $C$DW$33, DW_AT_declaration
     300                      .dwattr $C$DW$33, DW_AT_external
     301              $C$DW$34        .dwtag  DW_TAG_formal_parameter
     302                      .dwattr $C$DW$34, DW_AT_type(*$C$DW$T$21)
TMS320C55x Assembler PC v4.4.1 Sun Sep 30 06:35:16 2018

Tools Copyright (c) 1996-2012 Texas Instruments Incorporated
main.asm                                                             PAGE    7

     303                      .dwendtag $C$DW$33
     304              
     305              
     306              $C$DW$35        .dwtag  DW_TAG_subprogram, DW_AT_name("EZDSP5535_XF_toggle")
     307                      .dwattr $C$DW$35, DW_AT_TI_symbol_name("_EZDSP5535_XF_toggle")
     308                      .dwattr $C$DW$35, DW_AT_type(*$C$DW$T$88)
     309                      .dwattr $C$DW$35, DW_AT_declaration
     310                      .dwattr $C$DW$35, DW_AT_external
     311              
     312              $C$DW$36        .dwtag  DW_TAG_subprogram, DW_AT_name("EZDSP5535_GPIO_init")
     313                      .dwattr $C$DW$36, DW_AT_TI_symbol_name("_EZDSP5535_GPIO_init")
     314                      .dwattr $C$DW$36, DW_AT_type(*$C$DW$T$88)
     315                      .dwattr $C$DW$36, DW_AT_declaration
     316                      .dwattr $C$DW$36, DW_AT_external
     317              
     318              $C$DW$37        .dwtag  DW_TAG_subprogram, DW_AT_name("EZDSP5535_GPIO_setOutput")
     319                      .dwattr $C$DW$37, DW_AT_TI_symbol_name("_EZDSP5535_GPIO_setOutput")
     320                      .dwattr $C$DW$37, DW_AT_type(*$C$DW$T$88)
     321                      .dwattr $C$DW$37, DW_AT_declaration
     322                      .dwattr $C$DW$37, DW_AT_external
     323              $C$DW$38        .dwtag  DW_TAG_formal_parameter
     324                      .dwattr $C$DW$38, DW_AT_type(*$C$DW$T$21)
     325              $C$DW$39        .dwtag  DW_TAG_formal_parameter
     326                      .dwattr $C$DW$39, DW_AT_type(*$C$DW$T$21)
     327                      .dwendtag $C$DW$37
     328              
     329              
     330              $C$DW$40        .dwtag  DW_TAG_subprogram, DW_AT_name("EZDSP5535_SAR_init")
     331                      .dwattr $C$DW$40, DW_AT_TI_symbol_name("_EZDSP5535_SAR_init")
     332                      .dwattr $C$DW$40, DW_AT_type(*$C$DW$T$70)
     333                      .dwattr $C$DW$40, DW_AT_declaration
     334                      .dwattr $C$DW$40, DW_AT_external
     335              
     336              $C$DW$41        .dwtag  DW_TAG_subprogram, DW_AT_name("PLL_init")
     337                      .dwattr $C$DW$41, DW_AT_TI_symbol_name("_PLL_init")
     338                      .dwattr $C$DW$41, DW_AT_type(*$C$DW$T$89)
     339                      .dwattr $C$DW$41, DW_AT_declaration
     340                      .dwattr $C$DW$41, DW_AT_external
     341              $C$DW$42        .dwtag  DW_TAG_formal_parameter
     342                      .dwattr $C$DW$42, DW_AT_type(*$C$DW$T$38)
     343              $C$DW$43        .dwtag  DW_TAG_formal_parameter
     344                      .dwattr $C$DW$43, DW_AT_type(*$C$DW$T$30)
     345                      .dwendtag $C$DW$41
     346              
     347              
     348              $C$DW$44        .dwtag  DW_TAG_subprogram, DW_AT_name("PLL_config")
     349                      .dwattr $C$DW$44, DW_AT_TI_symbol_name("_PLL_config")
     350                      .dwattr $C$DW$44, DW_AT_type(*$C$DW$T$89)
     351                      .dwattr $C$DW$44, DW_AT_declaration
     352                      .dwattr $C$DW$44, DW_AT_external
     353              $C$DW$45        .dwtag  DW_TAG_formal_parameter
     354                      .dwattr $C$DW$45, DW_AT_type(*$C$DW$T$40)
     355              $C$DW$46        .dwtag  DW_TAG_formal_parameter
     356                      .dwattr $C$DW$46, DW_AT_type(*$C$DW$T$29)
     357                      .dwendtag $C$DW$44
TMS320C55x Assembler PC v4.4.1 Sun Sep 30 06:35:16 2018

Tools Copyright (c) 1996-2012 Texas Instruments Incorporated
main.asm                                                             PAGE    8

     358              
     359              
     360              $C$DW$47        .dwtag  DW_TAG_subprogram, DW_AT_name("PLL_reset")
     361                      .dwattr $C$DW$47, DW_AT_TI_symbol_name("_PLL_reset")
     362                      .dwattr $C$DW$47, DW_AT_type(*$C$DW$T$89)
     363                      .dwattr $C$DW$47, DW_AT_declaration
     364                      .dwattr $C$DW$47, DW_AT_external
     365              $C$DW$48        .dwtag  DW_TAG_formal_parameter
     366                      .dwattr $C$DW$48, DW_AT_type(*$C$DW$T$40)
     367                      .dwendtag $C$DW$47
     368              
     369              
     370              $C$DW$49        .dwtag  DW_TAG_subprogram, DW_AT_name("mem_test")
     371                      .dwattr $C$DW$49, DW_AT_TI_symbol_name("_mem_test")
     372                      .dwattr $C$DW$49, DW_AT_type(*$C$DW$T$88)
     373                      .dwattr $C$DW$49, DW_AT_declaration
     374                      .dwattr $C$DW$49, DW_AT_external
     375                      .global _fSineWave
     376 000000               .bss    _fSineWave,1,0,0
     377              $C$DW$50        .dwtag  DW_TAG_variable, DW_AT_name("fSineWave")
     378                      .dwattr $C$DW$50, DW_AT_TI_symbol_name("_fSineWave")
     379                      .dwattr $C$DW$50, DW_AT_location[DW_OP_addr _fSineWave]
     380                      .dwattr $C$DW$50, DW_AT_type(*$C$DW$T$21)
     381                      .dwattr $C$DW$50, DW_AT_external
     382                      .global _f1KToneOn
     383 000001               .bss    _f1KToneOn,1,0,0
     384              $C$DW$51        .dwtag  DW_TAG_variable, DW_AT_name("f1KToneOn")
     385                      .dwattr $C$DW$51, DW_AT_TI_symbol_name("_f1KToneOn")
     386                      .dwattr $C$DW$51, DW_AT_location[DW_OP_addr _f1KToneOn]
     387                      .dwattr $C$DW$51, DW_AT_type(*$C$DW$T$21)
     388                      .dwattr $C$DW$51, DW_AT_external
     389                      .global _f2KToneOn
     390 000002               .bss    _f2KToneOn,1,0,0
     391              $C$DW$52        .dwtag  DW_TAG_variable, DW_AT_name("f2KToneOn")
     392                      .dwattr $C$DW$52, DW_AT_TI_symbol_name("_f2KToneOn")
     393                      .dwattr $C$DW$52, DW_AT_location[DW_OP_addr _f2KToneOn]
     394                      .dwattr $C$DW$52, DW_AT_type(*$C$DW$T$21)
     395                      .dwattr $C$DW$52, DW_AT_external
     396              $C$DW$53        .dwtag  DW_TAG_variable, DW_AT_name("fTimer")
     397                      .dwattr $C$DW$53, DW_AT_TI_symbol_name("_fTimer")
     398                      .dwattr $C$DW$53, DW_AT_type(*$C$DW$T$21)
     399                      .dwattr $C$DW$53, DW_AT_declaration
     400                      .dwattr $C$DW$53, DW_AT_external
     401              $C$DW$54        .dwtag  DW_TAG_variable, DW_AT_name("Flag_RTC")
     402                      .dwattr $C$DW$54, DW_AT_TI_symbol_name("_Flag_RTC")
     403                      .dwattr $C$DW$54, DW_AT_type(*$C$DW$T$21)
     404                      .dwattr $C$DW$54, DW_AT_declaration
     405                      .dwattr $C$DW$54, DW_AT_external
     406              $C$DW$55        .dwtag  DW_TAG_variable, DW_AT_name("Conunt_RTC")
     407                      .dwattr $C$DW$55, DW_AT_TI_symbol_name("_Conunt_RTC")
     408                      .dwattr $C$DW$55, DW_AT_type(*$C$DW$T$21)
     409                      .dwattr $C$DW$55, DW_AT_declaration
     410                      .dwattr $C$DW$55, DW_AT_external
     411                      .global _led_tsks_running
     412 000004               .bss    _led_tsks_running,2,0,2
TMS320C55x Assembler PC v4.4.1 Sun Sep 30 06:35:16 2018

Tools Copyright (c) 1996-2012 Texas Instruments Incorporated
main.asm                                                             PAGE    9

     413              $C$DW$56        .dwtag  DW_TAG_variable, DW_AT_name("led_tsks_running")
     414                      .dwattr $C$DW$56, DW_AT_TI_symbol_name("_led_tsks_running")
     415                      .dwattr $C$DW$56, DW_AT_location[DW_OP_addr _led_tsks_running]
     416                      .dwattr $C$DW$56, DW_AT_type(*$C$DW$T$114)
     417                      .dwattr $C$DW$56, DW_AT_external
     418                      .global _blueTaskHandle
     419 000006               .bss    _blueTaskHandle,2,0,2
     420              $C$DW$57        .dwtag  DW_TAG_variable, DW_AT_name("blueTaskHandle")
     421                      .dwattr $C$DW$57, DW_AT_TI_symbol_name("_blueTaskHandle")
     422                      .dwattr $C$DW$57, DW_AT_location[DW_OP_addr _blueTaskHandle]
     423                      .dwattr $C$DW$57, DW_AT_type(*$C$DW$T$59)
     424                      .dwattr $C$DW$57, DW_AT_external
     425                      .global _redTaskHandle
     426 000008               .bss    _redTaskHandle,2,0,2
     427              $C$DW$58        .dwtag  DW_TAG_variable, DW_AT_name("redTaskHandle")
     428                      .dwattr $C$DW$58, DW_AT_TI_symbol_name("_redTaskHandle")
     429                      .dwattr $C$DW$58, DW_AT_location[DW_OP_addr _redTaskHandle]
     430                      .dwattr $C$DW$58, DW_AT_type(*$C$DW$T$59)
     431                      .dwattr $C$DW$58, DW_AT_external
     432                      .global _greenTaskHandle
     433 00000a               .bss    _greenTaskHandle,2,0,2
     434              $C$DW$59        .dwtag  DW_TAG_variable, DW_AT_name("greenTaskHandle")
     435                      .dwattr $C$DW$59, DW_AT_TI_symbol_name("_greenTaskHandle")
     436                      .dwattr $C$DW$59, DW_AT_location[DW_OP_addr _greenTaskHandle]
     437                      .dwattr $C$DW$59, DW_AT_type(*$C$DW$T$59)
     438                      .dwattr $C$DW$59, DW_AT_external
     439                      .global _xfTaskHandle
     440 00000c               .bss    _xfTaskHandle,2,0,2
     441              $C$DW$60        .dwtag  DW_TAG_variable, DW_AT_name("xfTaskHandle")
     442                      .dwattr $C$DW$60, DW_AT_TI_symbol_name("_xfTaskHandle")
     443                      .dwattr $C$DW$60, DW_AT_location[DW_OP_addr _xfTaskHandle]
     444                      .dwattr $C$DW$60, DW_AT_type(*$C$DW$T$59)
     445                      .dwattr $C$DW$60, DW_AT_external
     446                      .global _xf2TaskHandle
     447 00000e               .bss    _xf2TaskHandle,2,0,2
     448              $C$DW$61        .dwtag  DW_TAG_variable, DW_AT_name("xf2TaskHandle")
     449                      .dwattr $C$DW$61, DW_AT_TI_symbol_name("_xf2TaskHandle")
     450                      .dwattr $C$DW$61, DW_AT_location[DW_OP_addr _xf2TaskHandle]
     451                      .dwattr $C$DW$61, DW_AT_type(*$C$DW$T$59)
     452                      .dwattr $C$DW$61, DW_AT_external
     453                      .global _controlTaskHandle
     454 000010               .bss    _controlTaskHandle,2,0,2
     455              $C$DW$62        .dwtag  DW_TAG_variable, DW_AT_name("controlTaskHandle")
     456                      .dwattr $C$DW$62, DW_AT_TI_symbol_name("_controlTaskHandle")
     457                      .dwattr $C$DW$62, DW_AT_location[DW_OP_addr _controlTaskHandle]
     458                      .dwattr $C$DW$62, DW_AT_type(*$C$DW$T$59)
     459                      .dwattr $C$DW$62, DW_AT_external
     460                      .global _startUpTaskHandle
     461 000012               .bss    _startUpTaskHandle,2,0,2
     462              $C$DW$63        .dwtag  DW_TAG_variable, DW_AT_name("startUpTaskHandle")
     463                      .dwattr $C$DW$63, DW_AT_TI_symbol_name("_startUpTaskHandle")
     464                      .dwattr $C$DW$63, DW_AT_location[DW_OP_addr _startUpTaskHandle]
     465                      .dwattr $C$DW$63, DW_AT_type(*$C$DW$T$59)
     466                      .dwattr $C$DW$63, DW_AT_external
     467                      .global _TestTask1Handle
TMS320C55x Assembler PC v4.4.1 Sun Sep 30 06:35:16 2018

Tools Copyright (c) 1996-2012 Texas Instruments Incorporated
main.asm                                                             PAGE   10

     468 000014               .bss    _TestTask1Handle,2,0,2
     469              $C$DW$64        .dwtag  DW_TAG_variable, DW_AT_name("TestTask1Handle")
     470                      .dwattr $C$DW$64, DW_AT_TI_symbol_name("_TestTask1Handle")
     471                      .dwattr $C$DW$64, DW_AT_location[DW_OP_addr _TestTask1Handle]
     472                      .dwattr $C$DW$64, DW_AT_type(*$C$DW$T$59)
     473                      .dwattr $C$DW$64, DW_AT_external
     474                      .global _TestTask2Handle
     475 000016               .bss    _TestTask2Handle,2,0,2
     476              $C$DW$65        .dwtag  DW_TAG_variable, DW_AT_name("TestTask2Handle")
     477                      .dwattr $C$DW$65, DW_AT_TI_symbol_name("_TestTask2Handle")
     478                      .dwattr $C$DW$65, DW_AT_location[DW_OP_addr _TestTask2Handle]
     479                      .dwattr $C$DW$65, DW_AT_type(*$C$DW$T$59)
     480                      .dwattr $C$DW$65, DW_AT_external
     481                      .global _TestTask3Handle
     482 000018               .bss    _TestTask3Handle,2,0,2
     483              $C$DW$66        .dwtag  DW_TAG_variable, DW_AT_name("TestTask3Handle")
     484                      .dwattr $C$DW$66, DW_AT_TI_symbol_name("_TestTask3Handle")
     485                      .dwattr $C$DW$66, DW_AT_location[DW_OP_addr _TestTask3Handle]
     486                      .dwattr $C$DW$66, DW_AT_type(*$C$DW$T$59)
     487                      .dwattr $C$DW$66, DW_AT_external
     488                      .global _TestTask4Handle
     489 00001a               .bss    _TestTask4Handle,2,0,2
     490              $C$DW$67        .dwtag  DW_TAG_variable, DW_AT_name("TestTask4Handle")
     491                      .dwattr $C$DW$67, DW_AT_TI_symbol_name("_TestTask4Handle")
     492                      .dwattr $C$DW$67, DW_AT_location[DW_OP_addr _TestTask4Handle]
     493                      .dwattr $C$DW$67, DW_AT_type(*$C$DW$T$59)
     494                      .dwattr $C$DW$67, DW_AT_external
     495                      .global _xSemaphoreR
     496 00001c               .bss    _xSemaphoreR,2,0,2
     497              $C$DW$68        .dwtag  DW_TAG_variable, DW_AT_name("xSemaphoreR")
     498                      .dwattr $C$DW$68, DW_AT_TI_symbol_name("_xSemaphoreR")
     499                      .dwattr $C$DW$68, DW_AT_location[DW_OP_addr _xSemaphoreR]
     500                      .dwattr $C$DW$68, DW_AT_type(*$C$DW$T$43)
     501                      .dwattr $C$DW$68, DW_AT_external
     502                      .global _xSemaphoreB
     503 00001e               .bss    _xSemaphoreB,2,0,2
     504              $C$DW$69        .dwtag  DW_TAG_variable, DW_AT_name("xSemaphoreB")
     505                      .dwattr $C$DW$69, DW_AT_TI_symbol_name("_xSemaphoreB")
     506                      .dwattr $C$DW$69, DW_AT_location[DW_OP_addr _xSemaphoreB]
     507                      .dwattr $C$DW$69, DW_AT_type(*$C$DW$T$43)
     508                      .dwattr $C$DW$69, DW_AT_external
     509                      .global _xSemaphoreY
     510 000020               .bss    _xSemaphoreY,2,0,2
     511              $C$DW$70        .dwtag  DW_TAG_variable, DW_AT_name("xSemaphoreY")
     512                      .dwattr $C$DW$70, DW_AT_TI_symbol_name("_xSemaphoreY")
     513                      .dwattr $C$DW$70, DW_AT_location[DW_OP_addr _xSemaphoreY]
     514                      .dwattr $C$DW$70, DW_AT_type(*$C$DW$T$43)
     515                      .dwattr $C$DW$70, DW_AT_external
     516                      .global _xSemaphoreO
     517 000022               .bss    _xSemaphoreO,2,0,2
     518              $C$DW$71        .dwtag  DW_TAG_variable, DW_AT_name("xSemaphoreO")
     519                      .dwattr $C$DW$71, DW_AT_TI_symbol_name("_xSemaphoreO")
     520                      .dwattr $C$DW$71, DW_AT_location[DW_OP_addr _xSemaphoreO]
     521                      .dwattr $C$DW$71, DW_AT_type(*$C$DW$T$43)
     522                      .dwattr $C$DW$71, DW_AT_external
TMS320C55x Assembler PC v4.4.1 Sun Sep 30 06:35:16 2018

Tools Copyright (c) 1996-2012 Texas Instruments Incorporated
main.asm                                                             PAGE   11

     523                      .global _xSemaphoreXF
     524 000024               .bss    _xSemaphoreXF,2,0,2
     525              $C$DW$72        .dwtag  DW_TAG_variable, DW_AT_name("xSemaphoreXF")
     526                      .dwattr $C$DW$72, DW_AT_TI_symbol_name("_xSemaphoreXF")
     527                      .dwattr $C$DW$72, DW_AT_location[DW_OP_addr _xSemaphoreXF]
     528                      .dwattr $C$DW$72, DW_AT_type(*$C$DW$T$43)
     529                      .dwattr $C$DW$72, DW_AT_external
     530                      .global _xSemaphoreBaton
     531 000026               .bss    _xSemaphoreBaton,2,0,2
     532              $C$DW$73        .dwtag  DW_TAG_variable, DW_AT_name("xSemaphoreBaton")
     533                      .dwattr $C$DW$73, DW_AT_TI_symbol_name("_xSemaphoreBaton")
     534                      .dwattr $C$DW$73, DW_AT_location[DW_OP_addr _xSemaphoreBaton]
     535                      .dwattr $C$DW$73, DW_AT_type(*$C$DW$T$43)
     536                      .dwattr $C$DW$73, DW_AT_external
     537                      .global _ulIdleLoops
     538 000028               .bss    _ulIdleLoops,2,0,2
     539              $C$DW$74        .dwtag  DW_TAG_variable, DW_AT_name("ulIdleLoops")
     540                      .dwattr $C$DW$74, DW_AT_TI_symbol_name("_ulIdleLoops")
     541                      .dwattr $C$DW$74, DW_AT_location[DW_OP_addr _ulIdleLoops]
     542                      .dwattr $C$DW$74, DW_AT_type(*$C$DW$T$114)
     543                      .dwattr $C$DW$74, DW_AT_external
     544              $C$DW$75        .dwtag  DW_TAG_variable, DW_AT_name("VECSTART")
     545                      .dwattr $C$DW$75, DW_AT_TI_symbol_name("_VECSTART")
     546                      .dwattr $C$DW$75, DW_AT_type(*$C$DW$T$9)
     547                      .dwattr $C$DW$75, DW_AT_declaration
     548                      .dwattr $C$DW$75, DW_AT_external
     549 000003               .bss    _i$1,1,0,0
     550 000000               .sect   ".const:_$P$T0$2"
     551                      .clink
     552                      .align  1
     553 000000       _$P$T0$2:
     554 000000 8BE8          .field  35816,16                        ; _$P$T0$2._PLLCNTL1 @ 0
     555 000001 8000          .field  32768,16                        ; _$P$T0$2._PLLINCNTL @ 16
     556 000002 0806          .field  2054,16                 ; _$P$T0$2._PLLCNTL2 @ 32
     557 000003 0000          .field  0,16                    ; _$P$T0$2._PLLOUTCNTL @ 48
     558              
     559              $C$DW$76        .dwtag  DW_TAG_variable, DW_AT_name("$P$T0$2")
     560                      .dwattr $C$DW$76, DW_AT_TI_symbol_name("_$P$T0$2")
     561                      .dwattr $C$DW$76, DW_AT_type(*$C$DW$T$36)
     562                      .dwattr $C$DW$76, DW_AT_location[DW_OP_addr _$P$T0$2]
     563 00002a               .bss    _counter$3,1,0,0
     564 00002b               .bss    _counter$4,1,0,0
     565 00002c               .bss    _counter$5,1,0,0
     566 00002d               .bss    _counter$6,1,0,0
     567 00002e               .bss    _ctr$7,1,0,0
     568 00002f               .bss    _ctr$8,1,0,0
     569 000030               .bss    _counter$9,1,0,0
     570 000031               .bss    _ctr$10,1,0,0
     571 000032               .bss    _ctr$11,1,0,0
     572 000033               .bss    _ctr$12,1,0,0
     573 000034               .bss    _ctr$13,1,0,0
     574 000035               .bss    _ctr$14,1,0,0
     575              ;       F:\t\cc5p5\ccsv5\tools\compiler\c5500_4.4.1\bin\acp55.exe -@f:\\AppData\\Local\\Temp\\1402012 
     576 000000               .sect   ".text"
     577                      .align 4
TMS320C55x Assembler PC v4.4.1 Sun Sep 30 06:35:16 2018

Tools Copyright (c) 1996-2012 Texas Instruments Incorporated
main.asm                                                             PAGE   12

     578                      .global _main
     579              
     580              $C$DW$77        .dwtag  DW_TAG_subprogram, DW_AT_name("main")
     581                      .dwattr $C$DW$77, DW_AT_low_pc(_main)
     582                      .dwattr $C$DW$77, DW_AT_high_pc(0x00)
     583                      .dwattr $C$DW$77, DW_AT_TI_symbol_name("_main")
     584                      .dwattr $C$DW$77, DW_AT_external
     585                      .dwattr $C$DW$77, DW_AT_type(*$C$DW$T$10)
     586                      .dwattr $C$DW$77, DW_AT_TI_begin_file("../FreeRTOS/Demo/c5515_CCS/main.c")
     587                      .dwattr $C$DW$77, DW_AT_TI_begin_line(0x113)
     588                      .dwattr $C$DW$77, DW_AT_TI_begin_column(0x05)
     589                      .dwattr $C$DW$77, DW_AT_TI_max_frame_size(0x04)
     590                      .dwpsn  file "../FreeRTOS/Demo/c5515_CCS/main.c",line 276,column 1,is_stmt,address _main
     591              
     592                      .dwfde $C$DW$CIE, _main
     593              ;*******************************************************************************
     594              ;* FUNCTION NAME: main                                                         *
     595              ;*                                                                             *
     596              ;*   Function Uses Regs : AC0,AC0,T0,T1,AR0,XAR0,AR1,XAR1,AR2,XAR2,AR3,XAR3,SP,*
     597              ;*                        CARRY,TC1,M40,SATA,SATD,RDM,FRCT,SMUL                *
     598              ;*   Stack Frame        : Compact (No Frame Pointer, w/ debug)                 *
     599              ;*   Total Frame Size   : 4 words                                              *
     600              ;*                        (2 return address/alignment)                         *
     601              ;*                        (2 local values)                                     *
     602              ;*   Min System Stack   : 1 word                                               *
     603              ;*******************************************************************************
     604 000000       _main:
     605                      .dwcfi  cfa_offset, 1
     606                      .dwcfi  save_reg_to_mem, 91, -1
     607 000000 4EFD          AADD #-3, SP
     608                      .dwcfi  cfa_offset, 4
     609              $C$DW$78        .dwtag  DW_TAG_variable, DW_AT_name("temp1")
     610                      .dwattr $C$DW$78, DW_AT_TI_symbol_name("_temp1")
     611                      .dwattr $C$DW$78, DW_AT_type(*$C$DW$T$13)
     612                      .dwattr $C$DW$78, DW_AT_location[DW_OP_bregx 0x24 0]
     613                      .dwpsn  file "../FreeRTOS/Demo/c5515_CCS/main.c",line 280,column 2,is_stmt
     614              $C$DW$79        .dwtag  DW_TAG_TI_branch
     615                      .dwattr $C$DW$79, DW_AT_low_pc(0x00)
     616                      .dwattr $C$DW$79, DW_AT_name("_SYS_GlobalIntDisable")
     617                      .dwattr $C$DW$79, DW_AT_TI_call
     618 000002 0803          CALL #_SYS_GlobalIntDisable ; |280| 
         000004 D3   
     619                                                      ; call occurs [#_SYS_GlobalIntDisable] ; |280| 
     620                      .dwpsn  file "../FreeRTOS/Demo/c5515_CCS/main.c",line 282,column 2,is_stmt
     621 000005 7A00          MOV #(_VECSTART >> 16) << #16, AC0 ; |282| 
         000007 000A%
     622 000009 7E00          OR #(_VECSTART & 0xffff), AC0, AC0 ; |282| 
         00000b 0000%
     623 00000d EB00          MOV AC0, dbl(*SP(#0)) ; |282| 
         00000f 08   
     624                      .dwpsn  file "../FreeRTOS/Demo/c5515_CCS/main.c",line 283,column 2,is_stmt
     625 000010 ED00          MOV dbl(*SP(#0)), AC0 ; |283| 
         000012 08   
     626 000013 1007          SFTL AC0, #-8, AC0 ; |283| 
         000015 38   
TMS320C55x Assembler PC v4.4.1 Sun Sep 30 06:35:16 2018

Tools Copyright (c) 1996-2012 Texas Instruments Incorporated
main.asm                                                             PAGE   13

     627 000016 EB00          MOV AC0, dbl(*SP(#0)) ; |283| 
         000018 08   
     628                      .dwpsn  file "../FreeRTOS/Demo/c5515_CCS/main.c",line 284,column 2,is_stmt
     629 000019 A902          MOV *SP(#1), AR1 ; |284| 
     630 00001b C931          MOV AR1, *(#73) ; |284| 
         00001d 0000 
         00001f 49   
     631                      .dwpsn  file "../FreeRTOS/Demo/c5515_CCS/main.c",line 285,column 2,is_stmt
     632 000020 C931          MOV AR1, *(#74) ; |285| 
         000022 0000 
         000024 4A   
     633 000025 20            NOP
     634 000026 20            NOP
     635 000027 20            NOP
     636                      .dwpsn  file "../FreeRTOS/Demo/c5515_CCS/main.c",line 287,column 2,is_stmt
     637 000028 4652   bclr C54CM
     638                      .dwpsn  file "../FreeRTOS/Demo/c5515_CCS/main.c",line 290,column 2,is_stmt
     639 00002a DC31          BTST #2, *(#71), TC1 ; |290| 
         00002c 2000 
         00002e 0047 
     640 000030 65E4          BCC $C$L1,TC1 ; |290| 
     641                                                      ; branchcc occurs ; |290| 
     642                      .dwpsn  file "../FreeRTOS/Demo/c5515_CCS/main.c",line 292,column 3,is_stmt
     643 000032 F531          OR #0x0004, *(#71) ; |292| 
         000034 0004 
         000036 0000 
         000038 47   
     644                      .dwpsn  file "../FreeRTOS/Demo/c5515_CCS/main.c",line 293,column 3,is_stmt
     645 000039 9400   reset
     646                      .dwpsn  file "../FreeRTOS/Demo/c5515_CCS/main.c",line 294,column 2,is_stmt
     647 00003b 4A07          B $C$L2   ; |294| 
     648                                                      ; branch occurs ; |294| 
     649 00003d       $C$L1:    
     650                      .dwpsn  file "../FreeRTOS/Demo/c5515_CCS/main.c",line 297,column 3,is_stmt
     651 00003d F431          AND #0xfffb, *(#71) ; |297| 
         00003f FFFB 
         000041 0000 
         000043 47   
     652 000044       $C$L2:    
     653                      .dwpsn  file "../FreeRTOS/Demo/c5515_CCS/main.c",line 299,column 3,is_stmt
     654 000044 4652   bclr C54CM
     655                      .dwpsn  file "../FreeRTOS/Demo/c5515_CCS/main.c",line 312,column 3,is_stmt
     656              $C$DW$80        .dwtag  DW_TAG_TI_branch
     657                      .dwattr $C$DW$80, DW_AT_low_pc(0x00)
     658                      .dwattr $C$DW$80, DW_AT_name("_prvSetupHardware")
     659                      .dwattr $C$DW$80, DW_AT_TI_call
     660 000046 0802          CALL #_prvSetupHardware ; |312| 
         000048 D7   
     661                                                      ; call occurs [#_prvSetupHardware] ; |312| 
     662                      .dwpsn  file "../FreeRTOS/Demo/c5515_CCS/main.c",line 315,column 6,is_stmt
     663              $C$DW$81        .dwtag  DW_TAG_TI_branch
     664                      .dwattr $C$DW$81, DW_AT_low_pc(0x00)
     665                      .dwattr $C$DW$81, DW_AT_name("_systemInit")
     666                      .dwattr $C$DW$81, DW_AT_TI_call
     667 000049 0804          CALL #_systemInit ; |315| 
TMS320C55x Assembler PC v4.4.1 Sun Sep 30 06:35:16 2018

Tools Copyright (c) 1996-2012 Texas Instruments Incorporated
main.asm                                                             PAGE   14

         00004b 5C   
     668                                                      ; call occurs [#_systemInit] ; |315| 
     669                      .dwpsn  file "../FreeRTOS/Demo/c5515_CCS/main.c",line 316,column 6,is_stmt
     670              $C$DW$82        .dwtag  DW_TAG_TI_branch
     671                      .dwattr $C$DW$82, DW_AT_low_pc(0x00)
     672                      .dwattr $C$DW$82, DW_AT_name("_EZDSP5535_init")
     673                      .dwattr $C$DW$82, DW_AT_TI_call
     674 00004c 6C00          CALL #_EZDSP5535_init ; |316| 
         00004e 0000!
     675                                                      ; call occurs [#_EZDSP5535_init] ; |316| 
     676                      .dwpsn  file "../FreeRTOS/Demo/c5515_CCS/main.c",line 317,column 6,is_stmt
     677              $C$DW$83        .dwtag  DW_TAG_TI_branch
     678                      .dwattr $C$DW$83, DW_AT_low_pc(0x00)
     679                      .dwattr $C$DW$83, DW_AT_name("_EZDSP5535_GPIO_init")
     680                      .dwattr $C$DW$83, DW_AT_TI_call
     681 000050 6C00          CALL #_EZDSP5535_GPIO_init ; |317| 
         000052 0000!
     682                                                      ; call occurs [#_EZDSP5535_GPIO_init] ; |317| 
     683                      .dwpsn  file "../FreeRTOS/Demo/c5515_CCS/main.c",line 318,column 6,is_stmt
     684              $C$DW$84        .dwtag  DW_TAG_TI_branch
     685                      .dwattr $C$DW$84, DW_AT_low_pc(0x00)
     686                      .dwattr $C$DW$84, DW_AT_name("_EZDSP5535_LED_init")
     687                      .dwattr $C$DW$84, DW_AT_TI_call
     688 000054 6C00          CALL #_EZDSP5535_LED_init ; |318| 
         000056 0000!
     689                                                      ; call occurs [#_EZDSP5535_LED_init] ; |318| 
     690                      .dwpsn  file "../FreeRTOS/Demo/c5515_CCS/main.c",line 324,column 6,is_stmt
     691              $C$DW$85        .dwtag  DW_TAG_TI_branch
     692                      .dwattr $C$DW$85, DW_AT_low_pc(0x00)
     693                      .dwattr $C$DW$85, DW_AT_name("_EZDSP5535_SAR_init")
     694                      .dwattr $C$DW$85, DW_AT_TI_call
     695 000058 6C00          CALL #_EZDSP5535_SAR_init ; |324| 
         00005a 0000!
     696                                                      ; call occurs [#_EZDSP5535_SAR_init] ; |324| 
     697                      .dwpsn  file "../FreeRTOS/Demo/c5515_CCS/main.c",line 328,column 6,is_stmt
     698              $C$DW$86        .dwtag  DW_TAG_TI_branch
     699                      .dwattr $C$DW$86, DW_AT_low_pc(0x00)
     700                      .dwattr $C$DW$86, DW_AT_name("_mem_test")
     701                      .dwattr $C$DW$86, DW_AT_TI_call
     702 00005c 6C00          CALL #_mem_test ; |328| 
         00005e 0000!
     703                                                      ; call occurs [#_mem_test] ; |328| 
     704 000060 6314          BCC $C$L3,T0 != #0 ; |328| 
     705                                                      ; branchcc occurs ; |328| 
     706                      .dwpsn  file "../FreeRTOS/Demo/c5515_CCS/main.c",line 329,column 10,is_stmt
     707              $C$DW$87        .dwtag  DW_TAG_TI_branch
     708                      .dwattr $C$DW$87, DW_AT_low_pc(0x00)
     709                      .dwattr $C$DW$87, DW_AT_name("_EZDSP5535_LED_on")
     710                      .dwattr $C$DW$87, DW_AT_TI_call
     711              
     712 000062 6C00          CALL #_EZDSP5535_LED_on ; |329| 
         000064 0000!
     713 000066 3D04  ||      MOV #0, T0
     714              
     715                                                      ; call occurs [#_EZDSP5535_LED_on] ; |329| 
TMS320C55x Assembler PC v4.4.1 Sun Sep 30 06:35:16 2018

Tools Copyright (c) 1996-2012 Texas Instruments Incorporated
main.asm                                                             PAGE   15

     716 000068       $C$L3:    
     717                      .dwpsn  file "../FreeRTOS/Demo/c5515_CCS/main.c",line 373,column 6,is_stmt
     718              $C$DW$88        .dwtag  DW_TAG_TI_branch
     719                      .dwattr $C$DW$88, DW_AT_low_pc(0x00)
     720                      .dwattr $C$DW$88, DW_AT_name("_EZDSP5535_LED_on")
     721                      .dwattr $C$DW$88, DW_AT_TI_call
     722              
     723 000068 6C00          CALL #_EZDSP5535_LED_on ; |373| 
         00006a 0000!
     724 00006c 3D34  ||      MOV #3, T0
     725              
     726                                                      ; call occurs [#_EZDSP5535_LED_on] ; |373| 
     727                      .dwpsn  file "../FreeRTOS/Demo/c5515_CCS/main.c",line 402,column 9,is_stmt
     728              $C$DW$89        .dwtag  DW_TAG_TI_branch
     729                      .dwattr $C$DW$89, DW_AT_low_pc(0x00)
     730                      .dwattr $C$DW$89, DW_AT_name("_BlinkLED")
     731                      .dwattr $C$DW$89, DW_AT_TI_call
     732 00006e 0803          CALL #_BlinkLED ; |402| 
         000070 73   
     733                                                      ; call occurs [#_BlinkLED] ; |402| 
     734                      .dwpsn  file "../FreeRTOS/Demo/c5515_CCS/main.c",line 474,column 6,is_stmt
     735              $C$DW$90        .dwtag  DW_TAG_TI_branch
     736                      .dwattr $C$DW$90, DW_AT_low_pc(0x00)
     737                      .dwattr $C$DW$90, DW_AT_name("_SYS_GlobalIntDisable")
     738                      .dwattr $C$DW$90, DW_AT_TI_call
     739 000071 0803          CALL #_SYS_GlobalIntDisable ; |474| 
         000073 64   
     740                                                      ; call occurs [#_SYS_GlobalIntDisable] ; |474| 
     741                      .dwpsn  file "../FreeRTOS/Demo/c5515_CCS/main.c",line 484,column 7,is_stmt
     742              
     743 000074 3C05          MOV #0, T1
     744 000076 3D38  ||      MOV #3, AR0
     745              
     746              $C$DW$91        .dwtag  DW_TAG_TI_branch
     747                      .dwattr $C$DW$91, DW_AT_low_pc(0x00)
     748                      .dwattr $C$DW$91, DW_AT_name("_xQueueGenericCreate")
     749                      .dwattr $C$DW$91, DW_AT_TI_call
     750              
     751 000078 6C00          CALL #_xQueueGenericCreate ; |484| 
         00007a 0000!
     752 00007c 3D14  ||      MOV #1, T0
     753              
     754                                                      ; call occurs [#_xQueueGenericCreate] ; |484| 
     755 00007e EB31          MOV XAR0, dbl(*(#_xSemaphoreB))
         000080 8500 
         000082 001E-
     756                      .dwpsn  file "../FreeRTOS/Demo/c5515_CCS/main.c",line 485,column 7,is_stmt
     757 000084 ED31          MOV dbl(*(#_xSemaphoreB)), XAR3
         000086 BF00 
         000088 001E-
     758 00008a 90B0          MOV XAR3, AC0
     759 00008c 6110          BCC $C$L5,AC0 != #0 ; |485| 
     760                                                      ; branchcc occurs ; |485| 
     761                      .dwpsn  file "../FreeRTOS/Demo/c5515_CCS/main.c",line 486,column 19,is_stmt
     762 00008e       $C$L4:    
TMS320C55x Assembler PC v4.4.1 Sun Sep 30 06:35:16 2018

Tools Copyright (c) 1996-2012 Texas Instruments Incorporated
main.asm                                                             PAGE   16

     763 00008e       $C$DW$L$_main$8$B:
     764 00008e 4A7E          B $C$L4   ; |486| 
     765                                                      ; branch occurs ; |486| 
     766 000090       $C$DW$L$_main$8$E:
     767 000090       $C$L5:    
     768                      .dwpsn  file "../FreeRTOS/Demo/c5515_CCS/main.c",line 488,column 7,is_stmt
     769              
     770 000090 3C14          MOV #1, T0
     771 000092 3D05  ||      MOV #0, T1
     772              
     773              $C$DW$92        .dwtag  DW_TAG_TI_branch
     774                      .dwattr $C$DW$92, DW_AT_low_pc(0x00)
     775                      .dwattr $C$DW$92, DW_AT_name("_xQueueGenericCreate")
     776                      .dwattr $C$DW$92, DW_AT_TI_call
     777              
     778 000094 6C00          CALL #_xQueueGenericCreate ; |488| 
         000096 0000!
     779 000098 3D38  ||      MOV #3, AR0
     780              
     781                                                      ; call occurs [#_xQueueGenericCreate] ; |488| 
     782 00009a EB31          MOV XAR0, dbl(*(#_xSemaphoreR))
         00009c 8500 
         00009e 001C-
     783                      .dwpsn  file "../FreeRTOS/Demo/c5515_CCS/main.c",line 489,column 12,is_stmt
     784 0000a0 ED31          MOV dbl(*(#_xSemaphoreR)), XAR3
         0000a2 BF00 
         0000a4 001C-
     785 0000a6 90B0          MOV XAR3, AC0
     786 0000a8 6110          BCC $C$L7,AC0 != #0 ; |489| 
     787                                                      ; branchcc occurs ; |489| 
     788                      .dwpsn  file "../FreeRTOS/Demo/c5515_CCS/main.c",line 490,column 24,is_stmt
     789 0000aa       $C$L6:    
     790 0000aa       $C$DW$L$_main$11$B:
     791 0000aa 4A7E          B $C$L6   ; |490| 
     792                                                      ; branch occurs ; |490| 
     793 0000ac       $C$DW$L$_main$11$E:
     794 0000ac       $C$L7:    
     795                      .dwpsn  file "../FreeRTOS/Demo/c5515_CCS/main.c",line 492,column 7,is_stmt
     796              
     797 0000ac 3C14          MOV #1, T0
     798 0000ae 3D05  ||      MOV #0, T1
     799              
     800              $C$DW$93        .dwtag  DW_TAG_TI_branch
     801                      .dwattr $C$DW$93, DW_AT_low_pc(0x00)
     802                      .dwattr $C$DW$93, DW_AT_name("_xQueueGenericCreate")
     803                      .dwattr $C$DW$93, DW_AT_TI_call
     804              
     805 0000b0 6C00          CALL #_xQueueGenericCreate ; |492| 
         0000b2 0000!
     806 0000b4 3D38  ||      MOV #3, AR0
     807              
     808                                                      ; call occurs [#_xQueueGenericCreate] ; |492| 
     809 0000b6 EB31          MOV XAR0, dbl(*(#_xSemaphoreO))
         0000b8 8500 
         0000ba 0022-
TMS320C55x Assembler PC v4.4.1 Sun Sep 30 06:35:16 2018

Tools Copyright (c) 1996-2012 Texas Instruments Incorporated
main.asm                                                             PAGE   17

     810                      .dwpsn  file "../FreeRTOS/Demo/c5515_CCS/main.c",line 493,column 12,is_stmt
     811 0000bc ED31          MOV dbl(*(#_xSemaphoreO)), XAR3
         0000be BF00 
         0000c0 0022-
     812 0000c2 90B0          MOV XAR3, AC0
     813 0000c4 6110          BCC $C$L9,AC0 != #0 ; |493| 
     814                                                      ; branchcc occurs ; |493| 
     815                      .dwpsn  file "../FreeRTOS/Demo/c5515_CCS/main.c",line 494,column 24,is_stmt
     816 0000c6       $C$L8:    
     817 0000c6       $C$DW$L$_main$14$B:
     818 0000c6 4A7E          B $C$L8   ; |494| 
     819                                                      ; branch occurs ; |494| 
     820 0000c8       $C$DW$L$_main$14$E:
     821 0000c8       $C$L9:    
     822                      .dwpsn  file "../FreeRTOS/Demo/c5515_CCS/main.c",line 496,column 7,is_stmt
     823              
     824 0000c8 3C14          MOV #1, T0
     825 0000ca 3D05  ||      MOV #0, T1
     826              
     827              $C$DW$94        .dwtag  DW_TAG_TI_branch
     828                      .dwattr $C$DW$94, DW_AT_low_pc(0x00)
     829                      .dwattr $C$DW$94, DW_AT_name("_xQueueGenericCreate")
     830                      .dwattr $C$DW$94, DW_AT_TI_call
     831              
     832 0000cc 6C00          CALL #_xQueueGenericCreate ; |496| 
         0000ce 0000!
     833 0000d0 3D38  ||      MOV #3, AR0
     834              
     835                                                      ; call occurs [#_xQueueGenericCreate] ; |496| 
     836 0000d2 EB31          MOV XAR0, dbl(*(#_xSemaphoreY))
         0000d4 8500 
         0000d6 0020-
     837                      .dwpsn  file "../FreeRTOS/Demo/c5515_CCS/main.c",line 497,column 17,is_stmt
     838 0000d8 ED31          MOV dbl(*(#_xSemaphoreY)), XAR3
         0000da BF00 
         0000dc 0020-
     839 0000de 90B0          MOV XAR3, AC0
     840 0000e0 6110          BCC $C$L11,AC0 != #0 ; |497| 
     841                                                      ; branchcc occurs ; |497| 
     842                      .dwpsn  file "../FreeRTOS/Demo/c5515_CCS/main.c",line 498,column 29,is_stmt
     843 0000e2       $C$L10:    
     844 0000e2       $C$DW$L$_main$17$B:
     845 0000e2 4A7E          B $C$L10  ; |498| 
     846                                                      ; branch occurs ; |498| 
     847 0000e4       $C$DW$L$_main$17$E:
     848 0000e4       $C$L11:    
     849                      .dwpsn  file "../FreeRTOS/Demo/c5515_CCS/main.c",line 500,column 7,is_stmt
     850              
     851 0000e4 3C14          MOV #1, T0
     852 0000e6 3D05  ||      MOV #0, T1
     853              
     854              $C$DW$95        .dwtag  DW_TAG_TI_branch
     855                      .dwattr $C$DW$95, DW_AT_low_pc(0x00)
     856                      .dwattr $C$DW$95, DW_AT_name("_xQueueGenericCreate")
     857                      .dwattr $C$DW$95, DW_AT_TI_call
TMS320C55x Assembler PC v4.4.1 Sun Sep 30 06:35:16 2018

Tools Copyright (c) 1996-2012 Texas Instruments Incorporated
main.asm                                                             PAGE   18

     858              
     859 0000e8 6C00          CALL #_xQueueGenericCreate ; |500| 
         0000ea 0000!
     860 0000ec 3D38  ||      MOV #3, AR0
     861              
     862                                                      ; call occurs [#_xQueueGenericCreate] ; |500| 
     863 0000ee EB31          MOV XAR0, dbl(*(#_xSemaphoreBaton))
         0000f0 8500 
         0000f2 0026-
     864                      .dwpsn  file "../FreeRTOS/Demo/c5515_CCS/main.c",line 501,column 15,is_stmt
     865 0000f4 ED31          MOV dbl(*(#_xSemaphoreBaton)), XAR3
         0000f6 BF00 
         0000f8 0026-
     866 0000fa 90B0          MOV XAR3, AC0
     867 0000fc 6110          BCC $C$L13,AC0 != #0 ; |501| 
     868                                                      ; branchcc occurs ; |501| 
     869                      .dwpsn  file "../FreeRTOS/Demo/c5515_CCS/main.c",line 502,column 25,is_stmt
     870 0000fe       $C$L12:    
     871 0000fe       $C$DW$L$_main$20$B:
     872 0000fe 4A7E          B $C$L12  ; |502| 
     873                                                      ; branch occurs ; |502| 
     874 000100       $C$DW$L$_main$20$E:
     875 000100       $C$L13:    
     876                      .dwpsn  file "../FreeRTOS/Demo/c5515_CCS/main.c",line 504,column 15,is_stmt
     877              
     878 000100 3C14          MOV #1, T0
     879 000102 3D05  ||      MOV #0, T1
     880              
     881              $C$DW$96        .dwtag  DW_TAG_TI_branch
     882                      .dwattr $C$DW$96, DW_AT_low_pc(0x00)
     883                      .dwattr $C$DW$96, DW_AT_name("_xQueueGenericCreate")
     884                      .dwattr $C$DW$96, DW_AT_TI_call
     885              
     886 000104 6C00          CALL #_xQueueGenericCreate ; |504| 
         000106 0000!
     887 000108 3D38  ||      MOV #3, AR0
     888              
     889                                                      ; call occurs [#_xQueueGenericCreate] ; |504| 
     890 00010a EB31          MOV XAR0, dbl(*(#_xSemaphoreXF))
         00010c 8500 
         00010e 0024-
     891                      .dwpsn  file "../FreeRTOS/Demo/c5515_CCS/main.c",line 505,column 21,is_stmt
     892 000110 ED31          MOV dbl(*(#_xSemaphoreXF)), XAR3
         000112 BF00 
         000114 0024-
     893 000116 90B0          MOV XAR3, AC0
     894 000118 6110          BCC $C$L15,AC0 != #0 ; |505| 
     895                                                      ; branchcc occurs ; |505| 
     896                      .dwpsn  file "../FreeRTOS/Demo/c5515_CCS/main.c",line 506,column 31,is_stmt
     897 00011a       $C$L14:    
     898 00011a       $C$DW$L$_main$23$B:
     899 00011a 4A7E          B $C$L14  ; |506| 
     900                                                      ; branch occurs ; |506| 
     901 00011c       $C$DW$L$_main$23$E:
     902 00011c       $C$L15:    
TMS320C55x Assembler PC v4.4.1 Sun Sep 30 06:35:16 2018

Tools Copyright (c) 1996-2012 Texas Instruments Incorporated
main.asm                                                             PAGE   19

     903                      .dwpsn  file "../FreeRTOS/Demo/c5515_CCS/main.c",line 508,column 21,is_stmt
     904 00011c 7A00          MOV #(_StartUpTask >> 16) << #16, AC0 ; |508| 
         00011e 000A%
     905 000120 EC31          AMOV #_startUpTaskHandle, XAR2 ; |508| 
         000122 AE00 
         000124 0012-
     906 000126 EC31          AMOV #2, XAR1 ; |508| 
         000128 9E00 
         00012a 0002 
     907 00012c EC31          AMOV #$C$FSL1, XAR0 ; |508| 
         00012e 8E00 
         000130 0000+
     908 000132 7601          MOV #256, T0 ; |508| 
         000134 0048 
     909 000136 7E00          OR #(_StartUpTask & 0xffff), AC0, AC0 ; |508| 
         000138 0000%
     910              $C$DW$97        .dwtag  DW_TAG_TI_branch
     911                      .dwattr $C$DW$97, DW_AT_low_pc(0x00)
     912                      .dwattr $C$DW$97, DW_AT_name("_xTaskCreate")
     913                      .dwattr $C$DW$97, DW_AT_TI_call
     914              
     915 00013a 6C00          CALL #_xTaskCreate ; |508| 
         00013c 0000!
     916 00013e 3D35  ||      MOV #3, T1
     917              
     918                                                      ; call occurs [#_xTaskCreate] ; |508| 
     919                      .dwpsn  file "../FreeRTOS/Demo/c5515_CCS/main.c",line 515,column 21,is_stmt
     920 000140 ED31          MOV dbl(*(#_startUpTaskHandle)), XAR0
         000142 8F00 
         000144 0012-
     921              $C$DW$98        .dwtag  DW_TAG_TI_branch
     922                      .dwattr $C$DW$98, DW_AT_low_pc(0x00)
     923                      .dwattr $C$DW$98, DW_AT_name("_vTaskSuspend")
     924                      .dwattr $C$DW$98, DW_AT_TI_call
     925 000146 6C00          CALL #_vTaskSuspend ; |515| 
         000148 0000!
     926                                                      ; call occurs [#_vTaskSuspend] ; |515| 
     927                      .dwpsn  file "../FreeRTOS/Demo/c5515_CCS/main.c",line 516,column 21,is_stmt
     928 00014a EC31          AMOV #$C$FSL2, XAR0 ; |516| 
         00014c 8E00 
         00014e 0006+
     929 000150 7601          MOV #256, T0 ; |516| 
         000152 0048 
     930 000154 EC31          AMOV #_blueTaskHandle, XAR2 ; |516| 
         000156 AE00 
         000158 0006-
     931 00015a EC31          AMOV #2, XAR1 ; |516| 
         00015c 9E00 
         00015e 0002 
     932 000160 7A00          MOV #(_LED_TaskBlue >> 16) << #16, AC0 ; |516| 
         000162 000A%
     933 000164 7E00          OR #(_LED_TaskBlue & 0xffff), AC0, AC0 ; |516| 
         000166 0000%
     934              $C$DW$99        .dwtag  DW_TAG_TI_branch
     935                      .dwattr $C$DW$99, DW_AT_low_pc(0x00)
TMS320C55x Assembler PC v4.4.1 Sun Sep 30 06:35:16 2018

Tools Copyright (c) 1996-2012 Texas Instruments Incorporated
main.asm                                                             PAGE   20

     936                      .dwattr $C$DW$99, DW_AT_name("_xTaskCreate")
     937                      .dwattr $C$DW$99, DW_AT_TI_call
     938              
     939 000168 6C00          CALL #_xTaskCreate ; |516| 
         00016a 0000!
     940 00016c 3D15  ||      MOV #1, T1
     941              
     942                                                      ; call occurs [#_xTaskCreate] ; |516| 
     943                      .dwpsn  file "../FreeRTOS/Demo/c5515_CCS/main.c",line 524,column 27,is_stmt
     944 00016e 7601          MOV #256, T0 ; |524| 
         000170 0048 
     945 000172 EC31          AMOV #_TestTask1Handle, XAR2 ; |524| 
         000174 AE00 
         000176 0014-
     946 000178 EC31          AMOV #2, XAR1 ; |524| 
         00017a 9E00 
         00017c 0002 
     947 00017e EC31          AMOV #$C$FSL3, XAR0 ; |524| 
         000180 8E00 
         000182 000E+
     948 000184 7A00          MOV #(_TestTask1 >> 16) << #16, AC0 ; |524| 
         000186 000A%
     949 000188 7E00          OR #(_TestTask1 & 0xffff), AC0, AC0 ; |524| 
         00018a 0000%
     950              $C$DW$100       .dwtag  DW_TAG_TI_branch
     951                      .dwattr $C$DW$100, DW_AT_low_pc(0x00)
     952                      .dwattr $C$DW$100, DW_AT_name("_xTaskCreate")
     953                      .dwattr $C$DW$100, DW_AT_TI_call
     954              
     955 00018c 6C00          CALL #_xTaskCreate ; |524| 
         00018e 0000!
     956 000190 3D25  ||      MOV #2, T1
     957              
     958                                                      ; call occurs [#_xTaskCreate] ; |524| 
     959                      .dwpsn  file "../FreeRTOS/Demo/c5515_CCS/main.c",line 534,column 27,is_stmt
     960 000192 7601          MOV #256, T0 ; |534| 
         000194 0048 
     961 000196 EC31          AMOV #_TestTask2Handle, XAR2 ; |534| 
         000198 AE00 
         00019a 0016-
     962 00019c EC31          AMOV #2, XAR1 ; |534| 
         00019e 9E00 
         0001a0 0002 
     963 0001a2 EC31          AMOV #$C$FSL4, XAR0 ; |534| 
         0001a4 8E00 
         0001a6 0018+
     964 0001a8 7A00          MOV #(_TestTask2 >> 16) << #16, AC0 ; |534| 
         0001aa 000A%
     965 0001ac 7E00          OR #(_TestTask2 & 0xffff), AC0, AC0 ; |534| 
         0001ae 0000%
     966              $C$DW$101       .dwtag  DW_TAG_TI_branch
     967                      .dwattr $C$DW$101, DW_AT_low_pc(0x00)
     968                      .dwattr $C$DW$101, DW_AT_name("_xTaskCreate")
     969                      .dwattr $C$DW$101, DW_AT_TI_call
     970              
TMS320C55x Assembler PC v4.4.1 Sun Sep 30 06:35:16 2018

Tools Copyright (c) 1996-2012 Texas Instruments Incorporated
main.asm                                                             PAGE   21

     971 0001b0 6C00          CALL #_xTaskCreate ; |534| 
         0001b2 0000!
     972 0001b4 3D15  ||      MOV #1, T1
     973              
     974                                                      ; call occurs [#_xTaskCreate] ; |534| 
     975                      .dwpsn  file "../FreeRTOS/Demo/c5515_CCS/main.c",line 542,column 20,is_stmt
     976 0001b6 ED31          MOV dbl(*(#_TestTask2Handle)), XAR0
         0001b8 8F00 
         0001ba 0016-
     977              $C$DW$102       .dwtag  DW_TAG_TI_branch
     978                      .dwattr $C$DW$102, DW_AT_low_pc(0x00)
     979                      .dwattr $C$DW$102, DW_AT_name("_vTaskSuspend")
     980                      .dwattr $C$DW$102, DW_AT_TI_call
     981 0001bc 6C00          CALL #_vTaskSuspend ; |542| 
         0001be 0000!
     982                                                      ; call occurs [#_vTaskSuspend] ; |542| 
     983                      .dwpsn  file "../FreeRTOS/Demo/c5515_CCS/main.c",line 544,column 27,is_stmt
     984 0001c0 EC31          AMOV #$C$FSL5, XAR0 ; |544| 
         0001c2 8E00 
         0001c4 0022+
     985 0001c6 7601          MOV #256, T0 ; |544| 
         0001c8 0048 
     986 0001ca EC31          AMOV #_TestTask3Handle, XAR2 ; |544| 
         0001cc AE00 
         0001ce 0018-
     987 0001d0 EC31          AMOV #2, XAR1 ; |544| 
         0001d2 9E00 
         0001d4 0002 
     988 0001d6 7A00          MOV #(_TestTask3 >> 16) << #16, AC0 ; |544| 
         0001d8 000A%
     989 0001da 7E00          OR #(_TestTask3 & 0xffff), AC0, AC0 ; |544| 
         0001dc 0000%
     990              $C$DW$103       .dwtag  DW_TAG_TI_branch
     991                      .dwattr $C$DW$103, DW_AT_low_pc(0x00)
     992                      .dwattr $C$DW$103, DW_AT_name("_xTaskCreate")
     993                      .dwattr $C$DW$103, DW_AT_TI_call
     994              
     995 0001de 6C00          CALL #_xTaskCreate ; |544| 
         0001e0 0000!
     996 0001e2 3D25  ||      MOV #2, T1
     997              
     998                                                      ; call occurs [#_xTaskCreate] ; |544| 
     999                      .dwpsn  file "../FreeRTOS/Demo/c5515_CCS/main.c",line 551,column 27,is_stmt
    1000 0001e4 ED31          MOV dbl(*(#_TestTask3Handle)), XAR0
         0001e6 8F00 
         0001e8 0018-
    1001              $C$DW$104       .dwtag  DW_TAG_TI_branch
    1002                      .dwattr $C$DW$104, DW_AT_low_pc(0x00)
    1003                      .dwattr $C$DW$104, DW_AT_name("_vTaskSuspend")
    1004                      .dwattr $C$DW$104, DW_AT_TI_call
    1005 0001ea 6C00          CALL #_vTaskSuspend ; |551| 
         0001ec 0000!
    1006                                                      ; call occurs [#_vTaskSuspend] ; |551| 
    1007                      .dwpsn  file "../FreeRTOS/Demo/c5515_CCS/main.c",line 553,column 27,is_stmt
    1008 0001ee EC31          AMOV #$C$FSL6, XAR0 ; |553| 
TMS320C55x Assembler PC v4.4.1 Sun Sep 30 06:35:16 2018

Tools Copyright (c) 1996-2012 Texas Instruments Incorporated
main.asm                                                             PAGE   22

         0001f0 8E00 
         0001f2 002C+
    1009 0001f4 7601          MOV #256, T0 ; |553| 
         0001f6 0048 
    1010 0001f8 EC31          AMOV #_TestTask4Handle, XAR2 ; |553| 
         0001fa AE00 
         0001fc 001A-
    1011 0001fe EC31          AMOV #2, XAR1 ; |553| 
         000200 9E00 
         000202 0002 
    1012 000204 7A00          MOV #(_TestTask4 >> 16) << #16, AC0 ; |553| 
         000206 000A%
    1013 000208 7E00          OR #(_TestTask4 & 0xffff), AC0, AC0 ; |553| 
         00020a 0000%
    1014              $C$DW$105       .dwtag  DW_TAG_TI_branch
    1015                      .dwattr $C$DW$105, DW_AT_low_pc(0x00)
    1016                      .dwattr $C$DW$105, DW_AT_name("_xTaskCreate")
    1017                      .dwattr $C$DW$105, DW_AT_TI_call
    1018              
    1019 00020c 6C00          CALL #_xTaskCreate ; |553| 
         00020e 0000!
    1020 000210 3D25  ||      MOV #2, T1
    1021              
    1022                                                      ; call occurs [#_xTaskCreate] ; |553| 
    1023                      .dwpsn  file "../FreeRTOS/Demo/c5515_CCS/main.c",line 560,column 41,is_stmt
    1024 000212 ED31          MOV dbl(*(#_TestTask4Handle)), XAR0
         000214 8F00 
         000216 001A-
    1025              $C$DW$106       .dwtag  DW_TAG_TI_branch
    1026                      .dwattr $C$DW$106, DW_AT_low_pc(0x00)
    1027                      .dwattr $C$DW$106, DW_AT_name("_vTaskSuspend")
    1028                      .dwattr $C$DW$106, DW_AT_TI_call
    1029 000218 6C00          CALL #_vTaskSuspend ; |560| 
         00021a 0000!
    1030                                                      ; call occurs [#_vTaskSuspend] ; |560| 
    1031                      .dwpsn  file "../FreeRTOS/Demo/c5515_CCS/main.c",line 567,column 9,is_stmt
    1032 00021c EC31          AMOV #$C$FSL7, XAR0 ; |567| 
         00021e 8E00 
         000220 0036+
    1033 000222 7601          MOV #256, T0 ; |567| 
         000224 0048 
    1034 000226 EC31          AMOV #_xfTaskHandle, XAR2 ; |567| 
         000228 AE00 
         00022a 000C-
    1035 00022c EC31          AMOV #2, XAR1 ; |567| 
         00022e 9E00 
         000230 0002 
    1036 000232 7A00          MOV #(_LED_TaskXF >> 16) << #16, AC0 ; |567| 
         000234 000A%
    1037 000236 7E00          OR #(_LED_TaskXF & 0xffff), AC0, AC0 ; |567| 
         000238 0000%
    1038              $C$DW$107       .dwtag  DW_TAG_TI_branch
    1039                      .dwattr $C$DW$107, DW_AT_low_pc(0x00)
    1040                      .dwattr $C$DW$107, DW_AT_name("_xTaskCreate")
    1041                      .dwattr $C$DW$107, DW_AT_TI_call
TMS320C55x Assembler PC v4.4.1 Sun Sep 30 06:35:16 2018

Tools Copyright (c) 1996-2012 Texas Instruments Incorporated
main.asm                                                             PAGE   23

    1042              
    1043 00023a 6C00          CALL #_xTaskCreate ; |567| 
         00023c 0000!
    1044 00023e 3D25  ||      MOV #2, T1
    1045              
    1046                                                      ; call occurs [#_xTaskCreate] ; |567| 
    1047                      .dwpsn  file "../FreeRTOS/Demo/c5515_CCS/main.c",line 574,column 9,is_stmt
    1048 000240 ED31          MOV dbl(*(#_xfTaskHandle)), XAR0
         000242 8F00 
         000244 000C-
    1049              $C$DW$108       .dwtag  DW_TAG_TI_branch
    1050                      .dwattr $C$DW$108, DW_AT_low_pc(0x00)
    1051                      .dwattr $C$DW$108, DW_AT_name("_vTaskSuspend")
    1052                      .dwattr $C$DW$108, DW_AT_TI_call
    1053 000246 6C00          CALL #_vTaskSuspend ; |574| 
         000248 0000!
    1054                                                      ; call occurs [#_vTaskSuspend] ; |574| 
    1055                      .dwpsn  file "../FreeRTOS/Demo/c5515_CCS/main.c",line 575,column 9,is_stmt
    1056 00024a 7A00          MOV #(_LED_TaskGreen >> 16) << #16, AC0 ; |575| 
         00024c 000A%
    1057 00024e 7601          MOV #256, T0 ; |575| 
         000250 0048 
    1058 000252 EC31          AMOV #_greenTaskHandle, XAR2 ; |575| 
         000254 AE00 
         000256 000A-
    1059 000258 EC31          AMOV #2, XAR1 ; |575| 
         00025a 9E00 
         00025c 0002 
    1060 00025e EC31          AMOV #$C$FSL8, XAR0 ; |575| 
         000260 8E00 
         000262 0040+
    1061 000264 7E00          OR #(_LED_TaskGreen & 0xffff), AC0, AC0 ; |575| 
         000266 0000%
    1062              $C$DW$109       .dwtag  DW_TAG_TI_branch
    1063                      .dwattr $C$DW$109, DW_AT_low_pc(0x00)
    1064                      .dwattr $C$DW$109, DW_AT_name("_xTaskCreate")
    1065                      .dwattr $C$DW$109, DW_AT_TI_call
    1066              
    1067 000268 6C00          CALL #_xTaskCreate ; |575| 
         00026a 0000!
    1068 00026c 3D15  ||      MOV #1, T1
    1069              
    1070                                                      ; call occurs [#_xTaskCreate] ; |575| 
    1071                      .dwpsn  file "../FreeRTOS/Demo/c5515_CCS/main.c",line 582,column 9,is_stmt
    1072 00026e ED31          MOV dbl(*(#_greenTaskHandle)), XAR0
         000270 8F00 
         000272 000A-
    1073              $C$DW$110       .dwtag  DW_TAG_TI_branch
    1074                      .dwattr $C$DW$110, DW_AT_low_pc(0x00)
    1075                      .dwattr $C$DW$110, DW_AT_name("_vTaskSuspend")
    1076                      .dwattr $C$DW$110, DW_AT_TI_call
    1077 000274 6C00          CALL #_vTaskSuspend ; |582| 
         000276 0000!
    1078                                                      ; call occurs [#_vTaskSuspend] ; |582| 
    1079                      .dwpsn  file "../FreeRTOS/Demo/c5515_CCS/main.c",line 584,column 9,is_stmt
TMS320C55x Assembler PC v4.4.1 Sun Sep 30 06:35:16 2018

Tools Copyright (c) 1996-2012 Texas Instruments Incorporated
main.asm                                                             PAGE   24

    1080 000278 EC31          AMOV #$C$FSL9, XAR0 ; |584| 
         00027a 8E00 
         00027c 0048+
    1081 00027e 7601          MOV #256, T0 ; |584| 
         000280 0048 
    1082 000282 EC31          AMOV #_xf2TaskHandle, XAR2 ; |584| 
         000284 AE00 
         000286 000E-
    1083 000288 EC31          AMOV #2, XAR1 ; |584| 
         00028a 9E00 
         00028c 0002 
    1084 00028e 7A00          MOV #(_LED_TaskXF2 >> 16) << #16, AC0 ; |584| 
         000290 000A%
    1085 000292 7E00          OR #(_LED_TaskXF2 & 0xffff), AC0, AC0 ; |584| 
         000294 0000%
    1086              $C$DW$111       .dwtag  DW_TAG_TI_branch
    1087                      .dwattr $C$DW$111, DW_AT_low_pc(0x00)
    1088                      .dwattr $C$DW$111, DW_AT_name("_xTaskCreate")
    1089                      .dwattr $C$DW$111, DW_AT_TI_call
    1090              
    1091 000296 6C00          CALL #_xTaskCreate ; |584| 
         000298 0000!
    1092 00029a 3D25  ||      MOV #2, T1
    1093              
    1094                                                      ; call occurs [#_xTaskCreate] ; |584| 
    1095                      .dwpsn  file "../FreeRTOS/Demo/c5515_CCS/main.c",line 591,column 9,is_stmt
    1096 00029c ED31          MOV dbl(*(#_xf2TaskHandle)), XAR0
         00029e 8F00 
         0002a0 000E-
    1097              $C$DW$112       .dwtag  DW_TAG_TI_branch
    1098                      .dwattr $C$DW$112, DW_AT_low_pc(0x00)
    1099                      .dwattr $C$DW$112, DW_AT_name("_vTaskSuspend")
    1100                      .dwattr $C$DW$112, DW_AT_TI_call
    1101 0002a2 6C00          CALL #_vTaskSuspend ; |591| 
         0002a4 0000!
    1102                                                      ; call occurs [#_vTaskSuspend] ; |591| 
    1103                      .dwpsn  file "../FreeRTOS/Demo/c5515_CCS/main.c",line 593,column 9,is_stmt
    1104 0002a6 EC31          AMOV #$C$FSL10, XAR0 ; |593| 
         0002a8 8E00 
         0002aa 0052+
    1105 0002ac 7601          MOV #256, T0 ; |593| 
         0002ae 0048 
    1106 0002b0 EC31          AMOV #_controlTaskHandle, XAR2 ; |593| 
         0002b2 AE00 
         0002b4 0010-
    1107 0002b6 EC31          AMOV #2, XAR1 ; |593| 
         0002b8 9E00 
         0002ba 0002 
    1108 0002bc 7A00          MOV #(_LED_Control >> 16) << #16, AC0 ; |593| 
         0002be 000A%
    1109 0002c0 7E00          OR #(_LED_Control & 0xffff), AC0, AC0 ; |593| 
         0002c2 0000%
    1110              $C$DW$113       .dwtag  DW_TAG_TI_branch
    1111                      .dwattr $C$DW$113, DW_AT_low_pc(0x00)
    1112                      .dwattr $C$DW$113, DW_AT_name("_xTaskCreate")
TMS320C55x Assembler PC v4.4.1 Sun Sep 30 06:35:16 2018

Tools Copyright (c) 1996-2012 Texas Instruments Incorporated
main.asm                                                             PAGE   25

    1113                      .dwattr $C$DW$113, DW_AT_TI_call
    1114              
    1115 0002c4 6C00          CALL #_xTaskCreate ; |593| 
         0002c6 0000!
    1116 0002c8 3D15  ||      MOV #1, T1
    1117              
    1118                                                      ; call occurs [#_xTaskCreate] ; |593| 
    1119                      .dwpsn  file "../FreeRTOS/Demo/c5515_CCS/main.c",line 600,column 8,is_stmt
    1120 0002ca ED31          MOV dbl(*(#_controlTaskHandle)), XAR0
         0002cc 8F00 
         0002ce 0010-
    1121              $C$DW$114       .dwtag  DW_TAG_TI_branch
    1122                      .dwattr $C$DW$114, DW_AT_low_pc(0x00)
    1123                      .dwattr $C$DW$114, DW_AT_name("_vTaskSuspend")
    1124                      .dwattr $C$DW$114, DW_AT_TI_call
    1125 0002d0 6C00          CALL #_vTaskSuspend ; |600| 
         0002d2 0000!
    1126                                                      ; call occurs [#_vTaskSuspend] ; |600| 
    1127                      .dwpsn  file "../FreeRTOS/Demo/c5515_CCS/main.c",line 603,column 9,is_stmt
    1128 0002d4 EC31          AMOV #$C$FSL11, XAR0 ; |603| 
         0002d6 8E00 
         0002d8 005A+
    1129 0002da 7601          MOV #256, T0 ; |603| 
         0002dc 0048 
    1130 0002de EC31          AMOV #_redTaskHandle, XAR2 ; |603| 
         0002e0 AE00 
         0002e2 0008-
    1131 0002e4 EC31          AMOV #2, XAR1 ; |603| 
         0002e6 9E00 
         0002e8 0002 
    1132 0002ea 7A00          MOV #(_LED_TaskRed >> 16) << #16, AC0 ; |603| 
         0002ec 000A%
    1133 0002ee 7E00          OR #(_LED_TaskRed & 0xffff), AC0, AC0 ; |603| 
         0002f0 0000%
    1134              $C$DW$115       .dwtag  DW_TAG_TI_branch
    1135                      .dwattr $C$DW$115, DW_AT_low_pc(0x00)
    1136                      .dwattr $C$DW$115, DW_AT_name("_xTaskCreate")
    1137                      .dwattr $C$DW$115, DW_AT_TI_call
    1138              
    1139 0002f2 6C00          CALL #_xTaskCreate ; |603| 
         0002f4 0000!
    1140 0002f6 3D25  ||      MOV #2, T1
    1141              
    1142                                                      ; call occurs [#_xTaskCreate] ; |603| 
    1143                      .dwpsn  file "../FreeRTOS/Demo/c5515_CCS/main.c",line 610,column 10,is_stmt
    1144 0002f8 ED31          MOV dbl(*(#_redTaskHandle)), XAR0
         0002fa 8F00 
         0002fc 0008-
    1145              $C$DW$116       .dwtag  DW_TAG_TI_branch
    1146                      .dwattr $C$DW$116, DW_AT_low_pc(0x00)
    1147                      .dwattr $C$DW$116, DW_AT_name("_vTaskSuspend")
    1148                      .dwattr $C$DW$116, DW_AT_TI_call
    1149 0002fe 6C00          CALL #_vTaskSuspend ; |610| 
         000300 0000!
    1150                                                      ; call occurs [#_vTaskSuspend] ; |610| 
TMS320C55x Assembler PC v4.4.1 Sun Sep 30 06:35:16 2018

Tools Copyright (c) 1996-2012 Texas Instruments Incorporated
main.asm                                                             PAGE   26

    1151                      .dwpsn  file "../FreeRTOS/Demo/c5515_CCS/main.c",line 612,column 10,is_stmt
    1152 000302 ED31          MOV dbl(*(#_controlTaskHandle)), XAR0
         000304 8F00 
         000306 0010-
    1153              $C$DW$117       .dwtag  DW_TAG_TI_branch
    1154                      .dwattr $C$DW$117, DW_AT_low_pc(0x00)
    1155                      .dwattr $C$DW$117, DW_AT_name("_vTaskSuspend")
    1156                      .dwattr $C$DW$117, DW_AT_TI_call
    1157 000308 6C00          CALL #_vTaskSuspend ; |612| 
         00030a 0000!
    1158                                                      ; call occurs [#_vTaskSuspend] ; |612| 
    1159                      .dwpsn  file "../FreeRTOS/Demo/c5515_CCS/main.c",line 625,column 2,is_stmt
    1160              $C$DW$118       .dwtag  DW_TAG_TI_branch
    1161                      .dwattr $C$DW$118, DW_AT_low_pc(0x00)
    1162                      .dwattr $C$DW$118, DW_AT_name("_SYS_GlobalIntDisable")
    1163                      .dwattr $C$DW$118, DW_AT_TI_call
    1164 00030c 0800          CALL #_SYS_GlobalIntDisable ; |625| 
         00030e C9   
    1165                                                      ; call occurs [#_SYS_GlobalIntDisable] ; |625| 
    1166                      .dwpsn  file "../FreeRTOS/Demo/c5515_CCS/main.c",line 627,column 2,is_stmt
    1167 00030f F431          AND #0xdfff, *(#0) ; |627| 
         000311 DFFF 
         000313 0000 
         000315 00   
    1168                      .dwpsn  file "../FreeRTOS/Demo/c5515_CCS/main.c",line 648,column 2,is_stmt
    1169              $C$DW$119       .dwtag  DW_TAG_TI_branch
    1170                      .dwattr $C$DW$119, DW_AT_low_pc(0x00)
    1171                      .dwattr $C$DW$119, DW_AT_name("_vTaskStartScheduler")
    1172                      .dwattr $C$DW$119, DW_AT_TI_call
    1173 000316 6C00          CALL #_vTaskStartScheduler ; |648| 
         000318 0000!
    1174                                                      ; call occurs [#_vTaskStartScheduler] ; |648| 
    1175                      .dwpsn  file "../FreeRTOS/Demo/c5515_CCS/main.c",line 652,column 2,is_stmt
    1176 00031a 3C04          MOV #0, T0
    1177                      .dwpsn  file "../FreeRTOS/Demo/c5515_CCS/main.c",line 653,column 1,is_stmt
    1178 00031c 4E03          AADD #3, SP
    1179                      .dwcfi  cfa_offset, 1
    1180              $C$DW$120       .dwtag  DW_TAG_TI_branch
    1181                      .dwattr $C$DW$120, DW_AT_low_pc(0x00)
    1182                      .dwattr $C$DW$120, DW_AT_TI_return
    1183 00031e 4804          RET
    1184                                                      ; return occurs
    1185              
    1186              $C$DW$121       .dwtag  DW_TAG_TI_loop
    1187                      .dwattr $C$DW$121, DW_AT_name("F:\eZdsp_DBG\tmp1\c55x-sim2\foo\Debug\main.asm:$C$L14:1:1538314515")
    1188                      .dwattr $C$DW$121, DW_AT_TI_begin_file("../FreeRTOS/Demo/c5515_CCS/main.c")
    1189                      .dwattr $C$DW$121, DW_AT_TI_begin_line(0x1fa)
    1190                      .dwattr $C$DW$121, DW_AT_TI_end_line(0x1fa)
    1191              $C$DW$122       .dwtag  DW_TAG_TI_loop_range
    1192                      .dwattr $C$DW$122, DW_AT_low_pc($C$DW$L$_main$23$B)
    1193                      .dwattr $C$DW$122, DW_AT_high_pc($C$DW$L$_main$23$E)
    1194                      .dwendtag $C$DW$121
    1195              
    1196              
    1197              $C$DW$123       .dwtag  DW_TAG_TI_loop
TMS320C55x Assembler PC v4.4.1 Sun Sep 30 06:35:16 2018

Tools Copyright (c) 1996-2012 Texas Instruments Incorporated
main.asm                                                             PAGE   27

    1198                      .dwattr $C$DW$123, DW_AT_name("F:\eZdsp_DBG\tmp1\c55x-sim2\foo\Debug\main.asm:$C$L12:1:1538314515")
    1199                      .dwattr $C$DW$123, DW_AT_TI_begin_file("../FreeRTOS/Demo/c5515_CCS/main.c")
    1200                      .dwattr $C$DW$123, DW_AT_TI_begin_line(0x1f6)
    1201                      .dwattr $C$DW$123, DW_AT_TI_end_line(0x1f6)
    1202              $C$DW$124       .dwtag  DW_TAG_TI_loop_range
    1203                      .dwattr $C$DW$124, DW_AT_low_pc($C$DW$L$_main$20$B)
    1204                      .dwattr $C$DW$124, DW_AT_high_pc($C$DW$L$_main$20$E)
    1205                      .dwendtag $C$DW$123
    1206              
    1207              
    1208              $C$DW$125       .dwtag  DW_TAG_TI_loop
    1209                      .dwattr $C$DW$125, DW_AT_name("F:\eZdsp_DBG\tmp1\c55x-sim2\foo\Debug\main.asm:$C$L10:1:1538314515")
    1210                      .dwattr $C$DW$125, DW_AT_TI_begin_file("../FreeRTOS/Demo/c5515_CCS/main.c")
    1211                      .dwattr $C$DW$125, DW_AT_TI_begin_line(0x1f2)
    1212                      .dwattr $C$DW$125, DW_AT_TI_end_line(0x1f2)
    1213              $C$DW$126       .dwtag  DW_TAG_TI_loop_range
    1214                      .dwattr $C$DW$126, DW_AT_low_pc($C$DW$L$_main$17$B)
    1215                      .dwattr $C$DW$126, DW_AT_high_pc($C$DW$L$_main$17$E)
    1216                      .dwendtag $C$DW$125
    1217              
    1218              
    1219              $C$DW$127       .dwtag  DW_TAG_TI_loop
    1220                      .dwattr $C$DW$127, DW_AT_name("F:\eZdsp_DBG\tmp1\c55x-sim2\foo\Debug\main.asm:$C$L8:1:1538314515")
    1221                      .dwattr $C$DW$127, DW_AT_TI_begin_file("../FreeRTOS/Demo/c5515_CCS/main.c")
    1222                      .dwattr $C$DW$127, DW_AT_TI_begin_line(0x1ee)
    1223                      .dwattr $C$DW$127, DW_AT_TI_end_line(0x1ee)
    1224              $C$DW$128       .dwtag  DW_TAG_TI_loop_range
    1225                      .dwattr $C$DW$128, DW_AT_low_pc($C$DW$L$_main$14$B)
    1226                      .dwattr $C$DW$128, DW_AT_high_pc($C$DW$L$_main$14$E)
    1227                      .dwendtag $C$DW$127
    1228              
    1229              
    1230              $C$DW$129       .dwtag  DW_TAG_TI_loop
    1231                      .dwattr $C$DW$129, DW_AT_name("F:\eZdsp_DBG\tmp1\c55x-sim2\foo\Debug\main.asm:$C$L6:1:1538314515")
    1232                      .dwattr $C$DW$129, DW_AT_TI_begin_file("../FreeRTOS/Demo/c5515_CCS/main.c")
    1233                      .dwattr $C$DW$129, DW_AT_TI_begin_line(0x1ea)
    1234                      .dwattr $C$DW$129, DW_AT_TI_end_line(0x1ea)
    1235              $C$DW$130       .dwtag  DW_TAG_TI_loop_range
    1236                      .dwattr $C$DW$130, DW_AT_low_pc($C$DW$L$_main$11$B)
    1237                      .dwattr $C$DW$130, DW_AT_high_pc($C$DW$L$_main$11$E)
    1238                      .dwendtag $C$DW$129
    1239              
    1240              
    1241              $C$DW$131       .dwtag  DW_TAG_TI_loop
    1242                      .dwattr $C$DW$131, DW_AT_name("F:\eZdsp_DBG\tmp1\c55x-sim2\foo\Debug\main.asm:$C$L4:1:1538314515")
    1243                      .dwattr $C$DW$131, DW_AT_TI_begin_file("../FreeRTOS/Demo/c5515_CCS/main.c")
    1244                      .dwattr $C$DW$131, DW_AT_TI_begin_line(0x1e6)
    1245                      .dwattr $C$DW$131, DW_AT_TI_end_line(0x1e6)
    1246              $C$DW$132       .dwtag  DW_TAG_TI_loop_range
    1247                      .dwattr $C$DW$132, DW_AT_low_pc($C$DW$L$_main$8$B)
    1248                      .dwattr $C$DW$132, DW_AT_high_pc($C$DW$L$_main$8$E)
    1249                      .dwendtag $C$DW$131
    1250              
    1251                      .dwattr $C$DW$77, DW_AT_TI_end_file("../FreeRTOS/Demo/c5515_CCS/main.c")
    1252                      .dwattr $C$DW$77, DW_AT_TI_end_line(0x28d)
TMS320C55x Assembler PC v4.4.1 Sun Sep 30 06:35:16 2018

Tools Copyright (c) 1996-2012 Texas Instruments Incorporated
main.asm                                                             PAGE   28

    1253                      .dwattr $C$DW$77, DW_AT_TI_end_column(0x01)
    1254                      .dwendentry
    1255                      .dwendtag $C$DW$77
    1256              
    1257 000320               .sect   ".text"
    1258                      .align 4
    1259              
    1260              $C$DW$133       .dwtag  DW_TAG_subprogram, DW_AT_name("prvSetupHardware")
    1261                      .dwattr $C$DW$133, DW_AT_low_pc(_prvSetupHardware)
    1262                      .dwattr $C$DW$133, DW_AT_high_pc(0x00)
    1263                      .dwattr $C$DW$133, DW_AT_TI_symbol_name("_prvSetupHardware")
    1264                      .dwattr $C$DW$133, DW_AT_TI_begin_file("../FreeRTOS/Demo/c5515_CCS/main.c")
    1265                      .dwattr $C$DW$133, DW_AT_TI_begin_line(0x2db)
    1266                      .dwattr $C$DW$133, DW_AT_TI_begin_column(0x0d)
    1267                      .dwattr $C$DW$133, DW_AT_TI_max_frame_size(0x02)
    1268                      .dwpsn  file "../FreeRTOS/Demo/c5515_CCS/main.c",line 732,column 1,is_stmt,address _prvSetupHardware
    1269              
    1270                      .dwfde $C$DW$CIE, _prvSetupHardware
    1271              ;*******************************************************************************
    1272              ;* FUNCTION NAME: prvSetupHardware                                             *
    1273              ;*                                                                             *
    1274              ;*   Function Uses Regs : SP,M40,SATA,SATD,RDM,FRCT,SMUL                       *
    1275              ;*   Stack Frame        : Compact (No Frame Pointer, w/ debug)                 *
    1276              ;*   Total Frame Size   : 2 words                                              *
    1277              ;*                        (2 return address/alignment)                         *
    1278              ;*   Min System Stack   : 1 word                                               *
    1279              ;*******************************************************************************
    1280 000320       _prvSetupHardware:
    1281                      .dwcfi  cfa_offset, 1
    1282                      .dwcfi  save_reg_to_mem, 91, -1
    1283 000320 4EFF          AADD #-1, SP
    1284                      .dwcfi  cfa_offset, 2
    1285                      .dwpsn  file "../FreeRTOS/Demo/c5515_CCS/main.c",line 736,column 7,is_stmt
    1286              $C$DW$134       .dwtag  DW_TAG_TI_branch
    1287                      .dwattr $C$DW$134, DW_AT_low_pc(0x00)
    1288                      .dwattr $C$DW$134, DW_AT_name("_systemInit")
    1289                      .dwattr $C$DW$134, DW_AT_TI_call
    1290 000322 0801          CALL #_systemInit ; |736| 
         000324 83   
    1291                                                      ; call occurs [#_systemInit] ; |736| 
    1292                      .dwpsn  file "../FreeRTOS/Demo/c5515_CCS/main.c",line 783,column 1,is_stmt
    1293 000325 4E01          AADD #1, SP
    1294                      .dwcfi  cfa_offset, 1
    1295              $C$DW$135       .dwtag  DW_TAG_TI_branch
    1296                      .dwattr $C$DW$135, DW_AT_low_pc(0x00)
    1297                      .dwattr $C$DW$135, DW_AT_TI_return
    1298 000327 4804          RET
    1299                                                      ; return occurs
    1300                      .dwattr $C$DW$133, DW_AT_TI_end_file("../FreeRTOS/Demo/c5515_CCS/main.c")
    1301                      .dwattr $C$DW$133, DW_AT_TI_end_line(0x30f)
    1302                      .dwattr $C$DW$133, DW_AT_TI_end_column(0x01)
    1303                      .dwendentry
    1304                      .dwendtag $C$DW$133
    1305              
    1306 000329               .sect   ".text"
TMS320C55x Assembler PC v4.4.1 Sun Sep 30 06:35:16 2018

Tools Copyright (c) 1996-2012 Texas Instruments Incorporated
main.asm                                                             PAGE   29

    1307                      .align 4
    1308                      .global _vApplicationIdleHook
    1309              
    1310              $C$DW$136       .dwtag  DW_TAG_subprogram, DW_AT_name("vApplicationIdleHook")
    1311                      .dwattr $C$DW$136, DW_AT_low_pc(_vApplicationIdleHook)
    1312                      .dwattr $C$DW$136, DW_AT_high_pc(0x00)
    1313                      .dwattr $C$DW$136, DW_AT_TI_symbol_name("_vApplicationIdleHook")
    1314                      .dwattr $C$DW$136, DW_AT_external
    1315                      .dwattr $C$DW$136, DW_AT_TI_begin_file("../FreeRTOS/Demo/c5515_CCS/main.c")
    1316                      .dwattr $C$DW$136, DW_AT_TI_begin_line(0x312)
    1317                      .dwattr $C$DW$136, DW_AT_TI_begin_column(0x06)
    1318                      .dwattr $C$DW$136, DW_AT_TI_max_frame_size(0x02)
    1319                      .dwpsn  file "../FreeRTOS/Demo/c5515_CCS/main.c",line 787,column 1,is_stmt,address _vApplicationIdleH
    1320              
    1321                      .dwfde $C$DW$CIE, _vApplicationIdleHook
    1322              $C$DW$137       .dwtag  DW_TAG_variable, DW_AT_name("i")
    1323                      .dwattr $C$DW$137, DW_AT_TI_symbol_name("_i$1")
    1324                      .dwattr $C$DW$137, DW_AT_type(*$C$DW$T$9)
    1325                      .dwattr $C$DW$137, DW_AT_location[DW_OP_addr _i$1]
    1326              ;*******************************************************************************
    1327              ;* FUNCTION NAME: vApplicationIdleHook                                         *
    1328              ;*                                                                             *
    1329              ;*   Function Uses Regs : AC0,AC0,AC1,AC1,AR3,XAR3,SP,CARRY,TC1,M40,SATA,SATD, *
    1330              ;*                        RDM,FRCT,SMUL                                        *
    1331              ;*   Stack Frame        : Compact (No Frame Pointer, w/ debug)                 *
    1332              ;*   Total Frame Size   : 2 words                                              *
    1333              ;*                        (2 return address/alignment)                         *
    1334              ;*   Min System Stack   : 1 word                                               *
    1335              ;*******************************************************************************
    1336 00032c       _vApplicationIdleHook:
    1337                      .dwcfi  cfa_offset, 1
    1338                      .dwcfi  save_reg_to_mem, 91, -1
    1339 00032c 4EFF          AADD #-1, SP
    1340                      .dwcfi  cfa_offset, 2
    1341 00032e       $C$L16:    
    1342 00032e       $C$DW$L$_vApplicationIdleHook$2$B:
    1343                      .dwpsn  file "../FreeRTOS/Demo/c5515_CCS/main.c",line 796,column 2,is_stmt
    1344 00032e ED31          MOV dbl(*(#_ulIdleLoops)), AC0 ; |796| 
         000330 0800 
         000332 0028-
    1345 000334 4010          ADD #1, AC0 ; |796| 
    1346 000336 EB31          MOV AC0, dbl(*(#_ulIdleLoops)) ; |796| 
         000338 0800 
         00033a 0028-
    1347 00033c 20            NOP
    1348 00033d 20            NOP
    1349                      .dwpsn  file "../FreeRTOS/Demo/c5515_CCS/main.c",line 800,column 2,is_stmt
    1350 00033e EC31          AMOV #500000, XAR3 ; |800| 
         000340 BE07 
         000342 A120 
    1351 000344 ED31          MOV dbl(*(#_ulIdleLoops)), AC1 ; |800| 
         000346 1800 
         000348 0028-
    1352 00034a 90B0          MOV XAR3, AC0
    1353 00034c 1208          CMPU AC1 <= AC0, TC1 ; |800| 
TMS320C55x Assembler PC v4.4.1 Sun Sep 30 06:35:16 2018

Tools Copyright (c) 1996-2012 Texas Instruments Incorporated
main.asm                                                             PAGE   30

         00034e 14   
    1354 00034f 0464          BCC $C$L16,TC1 ; |800| 
         000351 DC   
    1355                                                      ; branchcc occurs ; |800| 
    1356 000352       $C$DW$L$_vApplicationIdleHook$2$E:
    1357 000352       $C$DW$L$_vApplicationIdleHook$3$B:
    1358                      .dwpsn  file "../FreeRTOS/Demo/c5515_CCS/main.c",line 805,column 6,is_stmt
    1359              $C$DW$138       .dwtag  DW_TAG_TI_branch
    1360                      .dwattr $C$DW$138, DW_AT_low_pc(0x00)
    1361                      .dwattr $C$DW$138, DW_AT_name("_redLedToggle")
    1362                      .dwattr $C$DW$138, DW_AT_TI_call
    1363 000352 0802          CALL #_redLedToggle ; |805| 
         000354 8F   
    1364                                                      ; call occurs [#_redLedToggle] ; |805| 
    1365                      .dwpsn  file "../FreeRTOS/Demo/c5515_CCS/main.c",line 883,column 9,is_stmt
    1366 000355 3C00          MOV #0, AC0 ; |883| 
    1367 000357 EB31          MOV AC0, dbl(*(#_ulIdleLoops)) ; |883| 
         000359 0800 
         00035b 0028-
    1368                      .dwpsn  file "../FreeRTOS/Demo/c5515_CCS/main.c",line 893,column 2,is_stmt
    1369 00035d 4A4F          B $C$L16  ; |893| 
    1370                                                      ; branch occurs ; |893| 
    1371 00035f       $C$DW$L$_vApplicationIdleHook$3$E:
    1372                      .dwcfi  cfa_offset, 1
    1373              
    1374              $C$DW$139       .dwtag  DW_TAG_TI_loop
    1375                      .dwattr $C$DW$139, DW_AT_name("F:\eZdsp_DBG\tmp1\c55x-sim2\foo\Debug\main.asm:$C$L16:1:1538314515")
    1376                      .dwattr $C$DW$139, DW_AT_TI_begin_file("../FreeRTOS/Demo/c5515_CCS/main.c")
    1377                      .dwattr $C$DW$139, DW_AT_TI_begin_line(0x319)
    1378                      .dwattr $C$DW$139, DW_AT_TI_end_line(0x37d)
    1379              $C$DW$140       .dwtag  DW_TAG_TI_loop_range
    1380                      .dwattr $C$DW$140, DW_AT_low_pc($C$DW$L$_vApplicationIdleHook$2$B)
    1381                      .dwattr $C$DW$140, DW_AT_high_pc($C$DW$L$_vApplicationIdleHook$2$E)
    1382              $C$DW$141       .dwtag  DW_TAG_TI_loop_range
    1383                      .dwattr $C$DW$141, DW_AT_low_pc($C$DW$L$_vApplicationIdleHook$3$B)
    1384                      .dwattr $C$DW$141, DW_AT_high_pc($C$DW$L$_vApplicationIdleHook$3$E)
    1385                      .dwendtag $C$DW$139
    1386              
    1387                      .dwattr $C$DW$136, DW_AT_TI_end_file("../FreeRTOS/Demo/c5515_CCS/main.c")
    1388                      .dwattr $C$DW$136, DW_AT_TI_end_line(0x37f)
    1389                      .dwattr $C$DW$136, DW_AT_TI_end_column(0x01)
    1390                      .dwendentry
    1391                      .dwendtag $C$DW$136
    1392              
    1393 00035f               .sect   ".text"
    1394                      .align 4
    1395                      .global _InitSystem
    1396              
    1397              $C$DW$142       .dwtag  DW_TAG_subprogram, DW_AT_name("InitSystem")
    1398                      .dwattr $C$DW$142, DW_AT_low_pc(_InitSystem)
    1399                      .dwattr $C$DW$142, DW_AT_high_pc(0x00)
    1400                      .dwattr $C$DW$142, DW_AT_TI_symbol_name("_InitSystem")
    1401                      .dwattr $C$DW$142, DW_AT_external
    1402                      .dwattr $C$DW$142, DW_AT_TI_begin_file("../FreeRTOS/Demo/c5515_CCS/main.c")
    1403                      .dwattr $C$DW$142, DW_AT_TI_begin_line(0x382)
TMS320C55x Assembler PC v4.4.1 Sun Sep 30 06:35:16 2018

Tools Copyright (c) 1996-2012 Texas Instruments Incorporated
main.asm                                                             PAGE   31

    1404                      .dwattr $C$DW$142, DW_AT_TI_begin_column(0x06)
    1405                      .dwattr $C$DW$142, DW_AT_TI_max_frame_size(0x02)
    1406                      .dwpsn  file "../FreeRTOS/Demo/c5515_CCS/main.c",line 899,column 1,is_stmt,address _InitSystem
    1407              
    1408                      .dwfde $C$DW$CIE, _InitSystem
    1409              ;*******************************************************************************
    1410              ;* FUNCTION NAME: InitSystem                                                   *
    1411              ;*                                                                             *
    1412              ;*   Function Uses Regs : AR1,AR2,SP,CARRY,TC1,M40,SATA,SATD,RDM,FRCT,SMUL     *
    1413              ;*   Stack Frame        : Compact (No Frame Pointer, w/ debug)                 *
    1414              ;*   Total Frame Size   : 2 words                                              *
    1415              ;*                        (1 return address/alignment)                         *
    1416              ;*                        (1 local values)                                     *
    1417              ;*   Min System Stack   : 1 word                                               *
    1418              ;*******************************************************************************
    1419 000360       _InitSystem:
    1420                      .dwcfi  cfa_offset, 1
    1421                      .dwcfi  save_reg_to_mem, 91, -1
    1422 000360 4EFF          AADD #-1, SP
    1423                      .dwcfi  cfa_offset, 2
    1424              $C$DW$143       .dwtag  DW_TAG_variable, DW_AT_name("i")
    1425                      .dwattr $C$DW$143, DW_AT_TI_symbol_name("_i")
    1426                      .dwattr $C$DW$143, DW_AT_type(*$C$DW$T$10)
    1427                      .dwattr $C$DW$143, DW_AT_location[DW_OP_bregx 0x24 0]
    1428                      .dwpsn  file "../FreeRTOS/Demo/c5515_CCS/main.c",line 903,column 5,is_stmt
    1429 000362 E651          MOV #0, *port(#7199) ; |903| 
         000364 001C 
         000366 1F   
    1430                      .dwpsn  file "../FreeRTOS/Demo/c5515_CCS/main.c",line 906,column 5,is_stmt
    1431 000367 FB51          MOV #32768, *port(#7201) ; |906| 
         000369 8000 
         00036b 1C21 
    1432                      .dwpsn  file "../FreeRTOS/Demo/c5515_CCS/main.c",line 907,column 5,is_stmt
    1433 00036d E651          MOV #0, *port(#7203) ; |907| 
         00036f 001C 
         000371 23   
    1434                      .dwpsn  file "../FreeRTOS/Demo/c5515_CCS/main.c",line 908,column 5,is_stmt
    1435 000372 FB51          MOV #2054, *port(#7202) ; |908| 
         000374 0806 
         000376 1C22 
    1436                      .dwpsn  file "../FreeRTOS/Demo/c5515_CCS/main.c",line 909,column 5,is_stmt
    1437 000378 FB51          MOV #35816, *port(#7200) ; |909| 
         00037a 8BE8 
         00037c 1C20 
    1438                      .dwpsn  file "../FreeRTOS/Demo/c5515_CCS/main.c",line 924,column 13,is_stmt
    1439 00037e DC51          BTST #3, *port(#7202), TC1 ; |924| 
         000380 301C 
         000382 22   
    1440 000383 6464          BCC $C$L18,TC1 ; |924| 
    1441                                                      ; branchcc occurs ; |924| 
    1442 000385       $C$L17:    
    1443 000385       $C$DW$L$_InitSystem$2$B:
    1444 000385 DC51          BTST #3, *port(#7202), TC1 ; |924| 
         000387 301C 
         000389 22   
TMS320C55x Assembler PC v4.4.1 Sun Sep 30 06:35:16 2018

Tools Copyright (c) 1996-2012 Texas Instruments Incorporated
main.asm                                                             PAGE   32

    1445 00038a 0474          BCC $C$L17,!TC1 ; |924| 
         00038c F8   
    1446                                                      ; branchcc occurs ; |924| 
    1447 00038d       $C$DW$L$_InitSystem$2$E:
    1448 00038d       $C$L18:    
    1449                      .dwpsn  file "../FreeRTOS/Demo/c5515_CCS/main.c",line 926,column 5,is_stmt
    1450 00038d E651          MOV #1, *port(#7199) ; |926| 
         00038f 011C 
         000391 1F   
    1451                      .dwpsn  file "../FreeRTOS/Demo/c5515_CCS/main.c",line 930,column 5,is_stmt
    1452 000392 E651          MOV #0, *port(#7170) ; |930| 
         000394 001C 
         000396 02   
    1453                      .dwpsn  file "../FreeRTOS/Demo/c5515_CCS/main.c",line 931,column 5,is_stmt
    1454 000397 FB51          MOV #65412, *port(#7171) ; |931| 
         000399 FF84 
         00039b 1C03 
    1455                      .dwpsn  file "../FreeRTOS/Demo/c5515_CCS/main.c",line 935,column 5,is_stmt
    1456 00039d E651          MOV #2, *port(#7172) ; |935| 
         00039f 021C 
         0003a1 04   
    1457                      .dwpsn  file "../FreeRTOS/Demo/c5515_CCS/main.c",line 936,column 5,is_stmt
    1458 0003a2 FB51          MOV #251, *port(#7173) ; |936| 
         0003a4 00FB 
         0003a6 1C05 
    1459                      .dwpsn  file "../FreeRTOS/Demo/c5515_CCS/main.c",line 937,column 10,is_stmt
    1460 0003a8 E600          MOV #0, *SP(#0) ; |937| 
         0003aa 00   
    1461                      .dwpsn  file "../FreeRTOS/Demo/c5515_CCS/main.c",line 937,column 15,is_stmt
    1462 0003ab 7600          MOV #200, AR2 ; |937| 
         0003ad C8A8 
    1463 0003af A900          MOV *SP(#0), AR1 ; |937| 
    1464 0003b1 1298          CMP AR1 >= AR2, TC1 ; |937| 
         0003b3 A0   
    1465 0003b4 6664          BCC $C$L20,TC1 ; |937| 
    1466                                                      ; branchcc occurs ; |937| 
    1467 0003b6       $C$L19:    
    1468 0003b6       $C$DW$L$_InitSystem$4$B:
    1469                      .dwpsn  file "../FreeRTOS/Demo/c5515_CCS/main.c",line 937,column 23,is_stmt
    1470 0003b6 F700          ADD #1, *SP(#0) ; |937| 
         0003b8 0001 
    1471                      .dwpsn  file "../FreeRTOS/Demo/c5515_CCS/main.c",line 937,column 15,is_stmt
    1472 0003ba A900          MOV *SP(#0), AR1 ; |937| 
    1473 0003bc 1294          CMP AR1 < AR2, TC1 ; |937| 
         0003be A0   
    1474 0003bf 0464          BCC $C$L19,TC1 ; |937| 
         0003c1 F4   
    1475                                                      ; branchcc occurs ; |937| 
    1476 0003c2       $C$DW$L$_InitSystem$4$E:
    1477                      .dwpsn  file "../FreeRTOS/Demo/c5515_CCS/main.c",line 939,column 1,is_stmt
    1478 0003c2       $C$L20:    
    1479 0003c2 4E01          AADD #1, SP
    1480                      .dwcfi  cfa_offset, 1
    1481              $C$DW$144       .dwtag  DW_TAG_TI_branch
    1482                      .dwattr $C$DW$144, DW_AT_low_pc(0x00)
TMS320C55x Assembler PC v4.4.1 Sun Sep 30 06:35:16 2018

Tools Copyright (c) 1996-2012 Texas Instruments Incorporated
main.asm                                                             PAGE   33

    1483                      .dwattr $C$DW$144, DW_AT_TI_return
    1484 0003c4 4804          RET
    1485                                                      ; return occurs
    1486              
    1487              $C$DW$145       .dwtag  DW_TAG_TI_loop
    1488                      .dwattr $C$DW$145, DW_AT_name("F:\eZdsp_DBG\tmp1\c55x-sim2\foo\Debug\main.asm:$C$L19:1:1538314515")
    1489                      .dwattr $C$DW$145, DW_AT_TI_begin_file("../FreeRTOS/Demo/c5515_CCS/main.c")
    1490                      .dwattr $C$DW$145, DW_AT_TI_begin_line(0x3a9)
    1491                      .dwattr $C$DW$145, DW_AT_TI_end_line(0x3a9)
    1492              $C$DW$146       .dwtag  DW_TAG_TI_loop_range
    1493                      .dwattr $C$DW$146, DW_AT_low_pc($C$DW$L$_InitSystem$4$B)
    1494                      .dwattr $C$DW$146, DW_AT_high_pc($C$DW$L$_InitSystem$4$E)
    1495                      .dwendtag $C$DW$145
    1496              
    1497              
    1498              $C$DW$147       .dwtag  DW_TAG_TI_loop
    1499                      .dwattr $C$DW$147, DW_AT_name("F:\eZdsp_DBG\tmp1\c55x-sim2\foo\Debug\main.asm:$C$L17:1:1538314515")
    1500                      .dwattr $C$DW$147, DW_AT_TI_begin_file("../FreeRTOS/Demo/c5515_CCS/main.c")
    1501                      .dwattr $C$DW$147, DW_AT_TI_begin_line(0x39c)
    1502                      .dwattr $C$DW$147, DW_AT_TI_end_line(0x39c)
    1503              $C$DW$148       .dwtag  DW_TAG_TI_loop_range
    1504                      .dwattr $C$DW$148, DW_AT_low_pc($C$DW$L$_InitSystem$2$B)
    1505                      .dwattr $C$DW$148, DW_AT_high_pc($C$DW$L$_InitSystem$2$E)
    1506                      .dwendtag $C$DW$147
    1507              
    1508                      .dwattr $C$DW$142, DW_AT_TI_end_file("../FreeRTOS/Demo/c5515_CCS/main.c")
    1509                      .dwattr $C$DW$142, DW_AT_TI_end_line(0x3ab)
    1510                      .dwattr $C$DW$142, DW_AT_TI_end_column(0x01)
    1511                      .dwendentry
    1512                      .dwendtag $C$DW$142
    1513              
    1514 0003c6               .sect   ".text"
    1515                      .align 4
    1516                      .global _ConfigPort
    1517              
    1518              $C$DW$149       .dwtag  DW_TAG_subprogram, DW_AT_name("ConfigPort")
    1519                      .dwattr $C$DW$149, DW_AT_low_pc(_ConfigPort)
    1520                      .dwattr $C$DW$149, DW_AT_high_pc(0x00)
    1521                      .dwattr $C$DW$149, DW_AT_TI_symbol_name("_ConfigPort")
    1522                      .dwattr $C$DW$149, DW_AT_external
    1523                      .dwattr $C$DW$149, DW_AT_TI_begin_file("../FreeRTOS/Demo/c5515_CCS/main.c")
    1524                      .dwattr $C$DW$149, DW_AT_TI_begin_line(0x3ac)
    1525                      .dwattr $C$DW$149, DW_AT_TI_begin_column(0x06)
    1526                      .dwattr $C$DW$149, DW_AT_TI_max_frame_size(0x01)
    1527                      .dwpsn  file "../FreeRTOS/Demo/c5515_CCS/main.c",line 941,column 1,is_stmt,address _ConfigPort
    1528              
    1529                      .dwfde $C$DW$CIE, _ConfigPort
    1530              ;*******************************************************************************
    1531              ;* FUNCTION NAME: ConfigPort                                                   *
    1532              ;*                                                                             *
    1533              ;*   Function Uses Regs : SP,M40,SATA,SATD,RDM,FRCT,SMUL                       *
    1534              ;*   Stack Frame        : Compact (No Frame Pointer, w/ debug)                 *
    1535              ;*   Total Frame Size   : 1 word                                               *
    1536              ;*                        (1 return address/alignment)                         *
    1537              ;*   Min System Stack   : 1 word                                               *
TMS320C55x Assembler PC v4.4.1 Sun Sep 30 06:35:16 2018

Tools Copyright (c) 1996-2012 Texas Instruments Incorporated
main.asm                                                             PAGE   34

    1538              ;*******************************************************************************
    1539 0003c8       _ConfigPort:
    1540                      .dwcfi  cfa_offset, 1
    1541                      .dwcfi  save_reg_to_mem, 91, -1
    1542                      .dwpsn  file "../FreeRTOS/Demo/c5515_CCS/main.c",line 943,column 5,is_stmt
    1543 0003c8 FB51          MOV #26880, *port(#7168) ; |943| 
         0003ca 6900 
         0003cc 1C00 
    1544                      .dwpsn  file "../FreeRTOS/Demo/c5515_CCS/main.c",line 945,column 1,is_stmt
    1545              $C$DW$150       .dwtag  DW_TAG_TI_branch
    1546                      .dwattr $C$DW$150, DW_AT_low_pc(0x00)
    1547                      .dwattr $C$DW$150, DW_AT_TI_return
    1548 0003ce 4804          RET
    1549                                                      ; return occurs
    1550                      .dwattr $C$DW$149, DW_AT_TI_end_file("../FreeRTOS/Demo/c5515_CCS/main.c")
    1551                      .dwattr $C$DW$149, DW_AT_TI_end_line(0x3b1)
    1552                      .dwattr $C$DW$149, DW_AT_TI_end_column(0x01)
    1553                      .dwendentry
    1554                      .dwendtag $C$DW$149
    1555              
    1556 0003d0               .sect   ".text"
    1557                      .align 4
    1558                      .global _SYS_GlobalIntEnable
    1559              
    1560              $C$DW$151       .dwtag  DW_TAG_subprogram, DW_AT_name("SYS_GlobalIntEnable")
    1561                      .dwattr $C$DW$151, DW_AT_low_pc(_SYS_GlobalIntEnable)
    1562                      .dwattr $C$DW$151, DW_AT_high_pc(0x00)
    1563                      .dwattr $C$DW$151, DW_AT_TI_symbol_name("_SYS_GlobalIntEnable")
    1564                      .dwattr $C$DW$151, DW_AT_external
    1565                      .dwattr $C$DW$151, DW_AT_TI_begin_file("../FreeRTOS/Demo/c5515_CCS/main.c")
    1566                      .dwattr $C$DW$151, DW_AT_TI_begin_line(0x3b3)
    1567                      .dwattr $C$DW$151, DW_AT_TI_begin_column(0x06)
    1568                      .dwattr $C$DW$151, DW_AT_TI_max_frame_size(0x01)
    1569                      .dwpsn  file "../FreeRTOS/Demo/c5515_CCS/main.c",line 948,column 1,is_stmt,address _SYS_GlobalIntEnab
    1570              
    1571                      .dwfde $C$DW$CIE, _SYS_GlobalIntEnable
    1572              ;*******************************************************************************
    1573              ;* FUNCTION NAME: SYS_GlobalIntEnable                                          *
    1574              ;*                                                                             *
    1575              ;*   Function Uses Regs : SP,M40,SATA,SATD,RDM,FRCT,SMUL                       *
    1576              ;*   Stack Frame        : Compact (No Frame Pointer, w/ debug)                 *
    1577              ;*   Total Frame Size   : 1 word                                               *
    1578              ;*                        (1 return address/alignment)                         *
    1579              ;*   Min System Stack   : 1 word                                               *
    1580              ;*******************************************************************************
    1581 0003d0       _SYS_GlobalIntEnable:
    1582                      .dwcfi  cfa_offset, 1
    1583                      .dwcfi  save_reg_to_mem, 91, -1
    1584                      .dwpsn  file "../FreeRTOS/Demo/c5515_CCS/main.c",line 956,column 2,is_stmt
    1585 0003d0 20     nop
    1586                      .dwpsn  file "../FreeRTOS/Demo/c5515_CCS/main.c",line 957,column 2,is_stmt
    1587 0003d1 46B2   bclr INTM
    1588                      .dwpsn  file "../FreeRTOS/Demo/c5515_CCS/main.c",line 958,column 1,is_stmt
    1589              $C$DW$152       .dwtag  DW_TAG_TI_branch
    1590                      .dwattr $C$DW$152, DW_AT_low_pc(0x00)
TMS320C55x Assembler PC v4.4.1 Sun Sep 30 06:35:16 2018

Tools Copyright (c) 1996-2012 Texas Instruments Incorporated
main.asm                                                             PAGE   35

    1591                      .dwattr $C$DW$152, DW_AT_TI_return
    1592 0003d3 4804          RET
    1593                                                      ; return occurs
    1594                      .dwattr $C$DW$151, DW_AT_TI_end_file("../FreeRTOS/Demo/c5515_CCS/main.c")
    1595                      .dwattr $C$DW$151, DW_AT_TI_end_line(0x3be)
    1596                      .dwattr $C$DW$151, DW_AT_TI_end_column(0x01)
    1597                      .dwendentry
    1598                      .dwendtag $C$DW$151
    1599              
    1600 0003d5               .sect   ".text"
    1601                      .align 4
    1602                      .global _SYS_GlobalIntDisable
    1603              
    1604              $C$DW$153       .dwtag  DW_TAG_subprogram, DW_AT_name("SYS_GlobalIntDisable")
    1605                      .dwattr $C$DW$153, DW_AT_low_pc(_SYS_GlobalIntDisable)
    1606                      .dwattr $C$DW$153, DW_AT_high_pc(0x00)
    1607                      .dwattr $C$DW$153, DW_AT_TI_symbol_name("_SYS_GlobalIntDisable")
    1608                      .dwattr $C$DW$153, DW_AT_external
    1609                      .dwattr $C$DW$153, DW_AT_TI_begin_file("../FreeRTOS/Demo/c5515_CCS/main.c")
    1610                      .dwattr $C$DW$153, DW_AT_TI_begin_line(0x3c0)
    1611                      .dwattr $C$DW$153, DW_AT_TI_begin_column(0x06)
    1612                      .dwattr $C$DW$153, DW_AT_TI_max_frame_size(0x01)
    1613                      .dwpsn  file "../FreeRTOS/Demo/c5515_CCS/main.c",line 962,column 1,is_stmt,address _SYS_GlobalIntDisa
    1614              
    1615                      .dwfde $C$DW$CIE, _SYS_GlobalIntDisable
    1616              ;*******************************************************************************
    1617              ;* FUNCTION NAME: SYS_GlobalIntDisable                                         *
    1618              ;*                                                                             *
    1619              ;*   Function Uses Regs : SP,M40,SATA,SATD,RDM,FRCT,SMUL                       *
    1620              ;*   Stack Frame        : Compact (No Frame Pointer, w/ debug)                 *
    1621              ;*   Total Frame Size   : 1 word                                               *
    1622              ;*                        (1 return address/alignment)                         *
    1623              ;*   Min System Stack   : 1 word                                               *
    1624              ;*******************************************************************************
    1625 0003d8       _SYS_GlobalIntDisable:
    1626                      .dwcfi  cfa_offset, 1
    1627                      .dwcfi  save_reg_to_mem, 91, -1
    1628                      .dwpsn  file "../FreeRTOS/Demo/c5515_CCS/main.c",line 968,column 2,is_stmt
    1629 0003d8 20     nop
    1630                      .dwpsn  file "../FreeRTOS/Demo/c5515_CCS/main.c",line 969,column 2,is_stmt
    1631 0003d9 46B3   bset INTM
    1632                      .dwpsn  file "../FreeRTOS/Demo/c5515_CCS/main.c",line 970,column 1,is_stmt
    1633              $C$DW$154       .dwtag  DW_TAG_TI_branch
    1634                      .dwattr $C$DW$154, DW_AT_low_pc(0x00)
    1635                      .dwattr $C$DW$154, DW_AT_TI_return
    1636 0003db 4804          RET
    1637                                                      ; return occurs
    1638                      .dwattr $C$DW$153, DW_AT_TI_end_file("../FreeRTOS/Demo/c5515_CCS/main.c")
    1639                      .dwattr $C$DW$153, DW_AT_TI_end_line(0x3ca)
    1640                      .dwattr $C$DW$153, DW_AT_TI_end_column(0x01)
    1641                      .dwendentry
    1642                      .dwendtag $C$DW$153
    1643              
    1644 0003dd               .sect   ".text"
    1645                      .align 4
TMS320C55x Assembler PC v4.4.1 Sun Sep 30 06:35:16 2018

Tools Copyright (c) 1996-2012 Texas Instruments Incorporated
main.asm                                                             PAGE   36

    1646              
    1647              $C$DW$155       .dwtag  DW_TAG_subprogram, DW_AT_name("toggleLEDlocal")
    1648                      .dwattr $C$DW$155, DW_AT_low_pc(_toggleLEDlocal)
    1649                      .dwattr $C$DW$155, DW_AT_high_pc(0x00)
    1650                      .dwattr $C$DW$155, DW_AT_TI_symbol_name("_toggleLEDlocal")
    1651                      .dwattr $C$DW$155, DW_AT_TI_begin_file("../FreeRTOS/Demo/c5515_CCS/main.c")
    1652                      .dwattr $C$DW$155, DW_AT_TI_begin_line(0x3cc)
    1653                      .dwattr $C$DW$155, DW_AT_TI_begin_column(0x0d)
    1654                      .dwattr $C$DW$155, DW_AT_TI_max_frame_size(0x01)
    1655                      .dwpsn  file "../FreeRTOS/Demo/c5515_CCS/main.c",line 973,column 1,is_stmt,address _toggleLEDlocal
    1656              
    1657                      .dwfde $C$DW$CIE, _toggleLEDlocal
    1658              ;*******************************************************************************
    1659              ;* FUNCTION NAME: toggleLEDlocal                                               *
    1660              ;*                                                                             *
    1661              ;*   Function Uses Regs : SP,M40,SATA,SATD,RDM,FRCT,SMUL                       *
    1662              ;*   Stack Frame        : Compact (No Frame Pointer, w/ debug)                 *
    1663              ;*   Total Frame Size   : 1 word                                               *
    1664              ;*                        (1 return address/alignment)                         *
    1665              ;*   Min System Stack   : 1 word                                               *
    1666              ;*******************************************************************************
    1667 0003e0       _toggleLEDlocal:
    1668                      .dwcfi  cfa_offset, 1
    1669                      .dwcfi  save_reg_to_mem, 91, -1
    1670                      .dwpsn  file "../FreeRTOS/Demo/c5515_CCS/main.c",line 1062,column 1,is_stmt
    1671              $C$DW$156       .dwtag  DW_TAG_TI_branch
    1672                      .dwattr $C$DW$156, DW_AT_low_pc(0x00)
    1673                      .dwattr $C$DW$156, DW_AT_TI_return
    1674 0003e0 4804          RET
    1675                                                      ; return occurs
    1676                      .dwattr $C$DW$155, DW_AT_TI_end_file("../FreeRTOS/Demo/c5515_CCS/main.c")
    1677                      .dwattr $C$DW$155, DW_AT_TI_end_line(0x426)
    1678                      .dwattr $C$DW$155, DW_AT_TI_end_column(0x01)
    1679                      .dwendentry
    1680                      .dwendtag $C$DW$155
    1681              
    1682 0003e2               .sect   ".text"
    1683                      .align 4
    1684                      .global _BlinkLED
    1685              
    1686              $C$DW$157       .dwtag  DW_TAG_subprogram, DW_AT_name("BlinkLED")
    1687                      .dwattr $C$DW$157, DW_AT_low_pc(_BlinkLED)
    1688                      .dwattr $C$DW$157, DW_AT_high_pc(0x00)
    1689                      .dwattr $C$DW$157, DW_AT_TI_symbol_name("_BlinkLED")
    1690                      .dwattr $C$DW$157, DW_AT_external
    1691                      .dwattr $C$DW$157, DW_AT_TI_begin_file("../FreeRTOS/Demo/c5515_CCS/main.c")
    1692                      .dwattr $C$DW$157, DW_AT_TI_begin_line(0x429)
    1693                      .dwattr $C$DW$157, DW_AT_TI_begin_column(0x06)
    1694                      .dwattr $C$DW$157, DW_AT_TI_max_frame_size(0x02)
    1695                      .dwpsn  file "../FreeRTOS/Demo/c5515_CCS/main.c",line 1066,column 1,is_stmt,address _BlinkLED
    1696              
    1697                      .dwfde $C$DW$CIE, _BlinkLED
    1698              ;*******************************************************************************
    1699              ;* FUNCTION NAME: BlinkLED                                                     *
    1700              ;*                                                                             *
TMS320C55x Assembler PC v4.4.1 Sun Sep 30 06:35:16 2018

Tools Copyright (c) 1996-2012 Texas Instruments Incorporated
main.asm                                                             PAGE   37

    1701              ;*   Function Uses Regs : SP,TC1,M40,SATA,SATD,RDM,FRCT,SMUL                   *
    1702              ;*   Stack Frame        : Compact (No Frame Pointer, w/ debug)                 *
    1703              ;*   Total Frame Size   : 2 words                                              *
    1704              ;*                        (2 return address/alignment)                         *
    1705              ;*   Min System Stack   : 1 word                                               *
    1706              ;*******************************************************************************
    1707 0003e4       _BlinkLED:
    1708                      .dwcfi  cfa_offset, 1
    1709                      .dwcfi  save_reg_to_mem, 91, -1
    1710 0003e4 4EFF          AADD #-1, SP
    1711                      .dwcfi  cfa_offset, 2
    1712                      .dwpsn  file "../FreeRTOS/Demo/c5515_CCS/main.c",line 1068,column 2,is_stmt
    1713 0003e6 F031          CMP *(#_fSineWave) == #1, TC1 ; |1068| 
         0003e8 0001 
         0003ea 0000 
         0003ec 00-  
    1714 0003ed 0474          BCC $C$L21,!TC1 ; |1068| 
         0003ef 15   
    1715                                                      ; branchcc occurs ; |1068| 
    1716                      .dwpsn  file "../FreeRTOS/Demo/c5515_CCS/main.c",line 1070,column 6,is_stmt
    1717 0003f0 F031          CMP *(#_Flag_RTC) == #1, TC1 ; |1070| 
         0003f2 0001 
         0003f4 0000 
         0003f6 00!  
    1718 0003f7 0474          BCC $C$L22,!TC1 ; |1070| 
         0003f9 1D   
    1719                                                      ; branchcc occurs ; |1070| 
    1720                      .dwpsn  file "../FreeRTOS/Demo/c5515_CCS/main.c",line 1072,column 9,is_stmt
    1721 0003fa E631          MOV #0, *(#_Flag_RTC) ; |1072| 
         0003fc 0000 
         0003fe 0000!
    1722                      .dwpsn  file "../FreeRTOS/Demo/c5515_CCS/main.c",line 1073,column 4,is_stmt
    1723              $C$DW$158       .dwtag  DW_TAG_TI_branch
    1724                      .dwattr $C$DW$158, DW_AT_low_pc(0x00)
    1725                      .dwattr $C$DW$158, DW_AT_name("_toggleLEDlocal")
    1726                      .dwattr $C$DW$158, DW_AT_TI_call
    1727 000400 08FF          CALL #_toggleLEDlocal ; |1073| 
         000402 DD   
    1728                                                      ; call occurs [#_toggleLEDlocal] ; |1073| 
    1729                      .dwpsn  file "../FreeRTOS/Demo/c5515_CCS/main.c",line 1076,column 2,is_stmt
    1730 000403 4A12          B $C$L22  ; |1076| 
    1731                                                      ; branch occurs ; |1076| 
    1732 000405       $C$L21:    
    1733                      .dwpsn  file "../FreeRTOS/Demo/c5515_CCS/main.c",line 1079,column 6,is_stmt
    1734 000405 F031          CMP *(#_fTimer) == #1, TC1 ; |1079| 
         000407 0001 
         000409 0000 
         00040b 00!  
    1735 00040c 64F4          BCC $C$L22,!TC1 ; |1079| 
    1736                                                      ; branchcc occurs ; |1079| 
    1737                      .dwpsn  file "../FreeRTOS/Demo/c5515_CCS/main.c",line 1081,column 9,is_stmt
    1738 00040e E631          MOV #0, *(#_fTimer) ; |1081| 
         000410 0000 
         000412 0000!
    1739                      .dwpsn  file "../FreeRTOS/Demo/c5515_CCS/main.c",line 1082,column 4,is_stmt
TMS320C55x Assembler PC v4.4.1 Sun Sep 30 06:35:16 2018

Tools Copyright (c) 1996-2012 Texas Instruments Incorporated
main.asm                                                             PAGE   38

    1740              $C$DW$159       .dwtag  DW_TAG_TI_branch
    1741                      .dwattr $C$DW$159, DW_AT_low_pc(0x00)
    1742                      .dwattr $C$DW$159, DW_AT_name("_toggleLEDlocal")
    1743                      .dwattr $C$DW$159, DW_AT_TI_call
    1744 000414 08FF          CALL #_toggleLEDlocal ; |1082| 
         000416 C9   
    1745                                                      ; call occurs [#_toggleLEDlocal] ; |1082| 
    1746                      .dwpsn  file "../FreeRTOS/Demo/c5515_CCS/main.c",line 1094,column 1,is_stmt
    1747 000417       $C$L22:    
    1748 000417 4E01          AADD #1, SP
    1749                      .dwcfi  cfa_offset, 1
    1750              $C$DW$160       .dwtag  DW_TAG_TI_branch
    1751                      .dwattr $C$DW$160, DW_AT_low_pc(0x00)
    1752                      .dwattr $C$DW$160, DW_AT_TI_return
    1753 000419 4804          RET
    1754                                                      ; return occurs
    1755                      .dwattr $C$DW$157, DW_AT_TI_end_file("../FreeRTOS/Demo/c5515_CCS/main.c")
    1756                      .dwattr $C$DW$157, DW_AT_TI_end_line(0x446)
    1757                      .dwattr $C$DW$157, DW_AT_TI_end_column(0x01)
    1758                      .dwendentry
    1759                      .dwendtag $C$DW$157
    1760              
    1761 00041b               .sect   ".text"
    1762                      .align 4
    1763                      .global _GenerateAudioTone
    1764              
    1765              $C$DW$161       .dwtag  DW_TAG_subprogram, DW_AT_name("GenerateAudioTone")
    1766                      .dwattr $C$DW$161, DW_AT_low_pc(_GenerateAudioTone)
    1767                      .dwattr $C$DW$161, DW_AT_high_pc(0x00)
    1768                      .dwattr $C$DW$161, DW_AT_TI_symbol_name("_GenerateAudioTone")
    1769                      .dwattr $C$DW$161, DW_AT_external
    1770                      .dwattr $C$DW$161, DW_AT_TI_begin_file("../FreeRTOS/Demo/c5515_CCS/main.c")
    1771                      .dwattr $C$DW$161, DW_AT_TI_begin_line(0x448)
    1772                      .dwattr $C$DW$161, DW_AT_TI_begin_column(0x06)
    1773                      .dwattr $C$DW$161, DW_AT_TI_max_frame_size(0x02)
    1774                      .dwpsn  file "../FreeRTOS/Demo/c5515_CCS/main.c",line 1097,column 1,is_stmt,address _GenerateAudioTon
    1775              
    1776                      .dwfde $C$DW$CIE, _GenerateAudioTone
    1777              ;*******************************************************************************
    1778              ;* FUNCTION NAME: GenerateAudioTone                                            *
    1779              ;*                                                                             *
    1780              ;*   Function Uses Regs : AR1,AR2,SP,TC1,M40,SATA,SATD,RDM,FRCT,SMUL           *
    1781              ;*   Stack Frame        : Compact (No Frame Pointer, w/ debug)                 *
    1782              ;*   Total Frame Size   : 2 words                                              *
    1783              ;*                        (2 return address/alignment)                         *
    1784              ;*   Min System Stack   : 1 word                                               *
    1785              ;*******************************************************************************
    1786 00041c       _GenerateAudioTone:
    1787                      .dwcfi  cfa_offset, 1
    1788                      .dwcfi  save_reg_to_mem, 91, -1
    1789 00041c 4EFF          AADD #-1, SP
    1790                      .dwcfi  cfa_offset, 2
    1791                      .dwpsn  file "../FreeRTOS/Demo/c5515_CCS/main.c",line 1098,column 2,is_stmt
    1792 00041e 3CAA          MOV #10, AR2
    1793 000420 A931          MOV *(#_Conunt_RTC), AR1 ; |1098| 
TMS320C55x Assembler PC v4.4.1 Sun Sep 30 06:35:16 2018

Tools Copyright (c) 1996-2012 Texas Instruments Incorporated
main.asm                                                             PAGE   39

         000422 0000 
         000424 00!  
    1794 000425 1298          CMPU AR1 >= AR2, TC1 ; |1098| 
         000427 A4   
    1795 000428 0464          BCC $C$L23,TC1 ; |1098| 
         00042a 2F   
    1796                                                      ; branchcc occurs ; |1098| 
    1797                      .dwpsn  file "../FreeRTOS/Demo/c5515_CCS/main.c",line 1100,column 3,is_stmt
    1798 00042b F031          CMP *(#_f1KToneOn) == #1, TC1 ; |1100| 
         00042d 0001 
         00042f 0000 
         000431 01-  
    1799 000432 0464          BCC $C$L25,TC1 ; |1100| 
         000434 6F   
    1800                                                      ; branchcc occurs ; |1100| 
    1801                      .dwpsn  file "../FreeRTOS/Demo/c5515_CCS/main.c",line 1101,column 4,is_stmt
    1802                      .dwpsn  file "../FreeRTOS/Demo/c5515_CCS/main.c",line 1103,column 3,is_stmt
    1803 000435 E631          MOV #1, *(#_fSineWave) ; |1103| 
         000437 0100 
         000439 0000-
    1804                      .dwpsn  file "../FreeRTOS/Demo/c5515_CCS/main.c",line 1104,column 3,is_stmt
    1805 00043b E631          MOV #1, *(#_f1KToneOn) ; |1104| 
         00043d 0100 
         00043f 0001-
    1806                      .dwpsn  file "../FreeRTOS/Demo/c5515_CCS/main.c",line 1105,column 3,is_stmt
    1807 000441 E631          MOV #0, *(#_f2KToneOn) ; |1105| 
         000443 0000 
         000445 0002-
    1808                      .dwpsn  file "../FreeRTOS/Demo/c5515_CCS/main.c",line 1106,column 9,is_stmt
    1809              $C$DW$162       .dwtag  DW_TAG_TI_branch
    1810                      .dwattr $C$DW$162, DW_AT_low_pc(0x00)
    1811                      .dwattr $C$DW$162, DW_AT_name("_set_dma0_ch0_stop")
    1812                      .dwattr $C$DW$162, DW_AT_TI_call
    1813 000447 6C00          CALL #_set_dma0_ch0_stop ; |1106| 
         000449 0000!
    1814                                                      ; call occurs [#_set_dma0_ch0_stop] ; |1106| 
    1815                      .dwpsn  file "../FreeRTOS/Demo/c5515_CCS/main.c",line 1107,column 6,is_stmt
    1816              $C$DW$163       .dwtag  DW_TAG_TI_branch
    1817                      .dwattr $C$DW$163, DW_AT_low_pc(0x00)
    1818                      .dwattr $C$DW$163, DW_AT_name("_set_dma0_ch1_stop")
    1819                      .dwattr $C$DW$163, DW_AT_TI_call
    1820 00044b 6C00          CALL #_set_dma0_ch1_stop ; |1107| 
         00044d 0000!
    1821                                                      ; call occurs [#_set_dma0_ch1_stop] ; |1107| 
    1822                      .dwpsn  file "../FreeRTOS/Demo/c5515_CCS/main.c",line 1108,column 9,is_stmt
    1823              $C$DW$164       .dwtag  DW_TAG_TI_branch
    1824                      .dwattr $C$DW$164, DW_AT_low_pc(0x00)
    1825                      .dwattr $C$DW$164, DW_AT_name("_set_dma0_ch0_i2s0_Lout")
    1826                      .dwattr $C$DW$164, DW_AT_TI_call
    1827 00044f 6C00          CALL #_set_dma0_ch0_i2s0_Lout ; |1108| 
         000451 0000!
    1828                                                      ; call occurs [#_set_dma0_ch0_i2s0_Lout] ; |1108| 
    1829                      .dwpsn  file "../FreeRTOS/Demo/c5515_CCS/main.c",line 1109,column 6,is_stmt
    1830              $C$DW$165       .dwtag  DW_TAG_TI_branch
    1831                      .dwattr $C$DW$165, DW_AT_low_pc(0x00)
TMS320C55x Assembler PC v4.4.1 Sun Sep 30 06:35:16 2018

Tools Copyright (c) 1996-2012 Texas Instruments Incorporated
main.asm                                                             PAGE   40

    1832                      .dwattr $C$DW$165, DW_AT_name("_set_dma0_ch1_i2s0_Rout")
    1833                      .dwattr $C$DW$165, DW_AT_TI_call
    1834 000453 6C00          CALL #_set_dma0_ch1_i2s0_Rout ; |1109| 
         000455 0000!
    1835                                                      ; call occurs [#_set_dma0_ch1_i2s0_Rout] ; |1109| 
    1836                      .dwpsn  file "../FreeRTOS/Demo/c5515_CCS/main.c",line 1110,column 2,is_stmt
    1837 000457 0600          B $C$L25  ; |1110| 
         000459 4A   
    1838                                                      ; branch occurs ; |1110| 
    1839 00045a       $C$L23:    
    1840                      .dwpsn  file "../FreeRTOS/Demo/c5515_CCS/main.c",line 1111,column 7,is_stmt
    1841 00045a 7600          MOV #20, AR2 ; |1111| 
         00045c 14A8 
    1842 00045e 1298          CMPU AR1 >= AR2, TC1 ; |1111| 
         000460 A4   
    1843 000461 0464          BCC $C$L24,TC1 ; |1111| 
         000463 2E   
    1844                                                      ; branchcc occurs ; |1111| 
    1845                      .dwpsn  file "../FreeRTOS/Demo/c5515_CCS/main.c",line 1113,column 3,is_stmt
    1846 000464 F031          CMP *(#_f2KToneOn) == #1, TC1 ; |1113| 
         000466 0001 
         000468 0000 
         00046a 02-  
    1847 00046b 0464          BCC $C$L25,TC1 ; |1113| 
         00046d 36   
    1848                                                      ; branchcc occurs ; |1113| 
    1849                      .dwpsn  file "../FreeRTOS/Demo/c5515_CCS/main.c",line 1114,column 4,is_stmt
    1850                      .dwpsn  file "../FreeRTOS/Demo/c5515_CCS/main.c",line 1116,column 3,is_stmt
    1851 00046e E631          MOV #0, *(#_fSineWave) ; |1116| 
         000470 0000 
         000472 0000-
    1852                      .dwpsn  file "../FreeRTOS/Demo/c5515_CCS/main.c",line 1117,column 3,is_stmt
    1853 000474 E631          MOV #0, *(#_f1KToneOn) ; |1117| 
         000476 0000 
         000478 0001-
    1854                      .dwpsn  file "../FreeRTOS/Demo/c5515_CCS/main.c",line 1118,column 3,is_stmt
    1855 00047a E631          MOV #1, *(#_f2KToneOn) ; |1118| 
         00047c 0100 
         00047e 0002-
    1856                      .dwpsn  file "../FreeRTOS/Demo/c5515_CCS/main.c",line 1119,column 9,is_stmt
    1857              $C$DW$166       .dwtag  DW_TAG_TI_branch
    1858                      .dwattr $C$DW$166, DW_AT_low_pc(0x00)
    1859                      .dwattr $C$DW$166, DW_AT_name("_set_dma0_ch0_stop")
    1860                      .dwattr $C$DW$166, DW_AT_TI_call
    1861 000480 6C00          CALL #_set_dma0_ch0_stop ; |1119| 
         000482 0000!
    1862                                                      ; call occurs [#_set_dma0_ch0_stop] ; |1119| 
    1863                      .dwpsn  file "../FreeRTOS/Demo/c5515_CCS/main.c",line 1120,column 6,is_stmt
    1864              $C$DW$167       .dwtag  DW_TAG_TI_branch
    1865                      .dwattr $C$DW$167, DW_AT_low_pc(0x00)
    1866                      .dwattr $C$DW$167, DW_AT_name("_set_dma0_ch1_stop")
    1867                      .dwattr $C$DW$167, DW_AT_TI_call
    1868 000484 6C00          CALL #_set_dma0_ch1_stop ; |1120| 
         000486 0000!
    1869                                                      ; call occurs [#_set_dma0_ch1_stop] ; |1120| 
TMS320C55x Assembler PC v4.4.1 Sun Sep 30 06:35:16 2018

Tools Copyright (c) 1996-2012 Texas Instruments Incorporated
main.asm                                                             PAGE   41

    1870                      .dwpsn  file "../FreeRTOS/Demo/c5515_CCS/main.c",line 1121,column 9,is_stmt
    1871              $C$DW$168       .dwtag  DW_TAG_TI_branch
    1872                      .dwattr $C$DW$168, DW_AT_low_pc(0x00)
    1873                      .dwattr $C$DW$168, DW_AT_name("_set_dma0_ch0_i2s0_Lout")
    1874                      .dwattr $C$DW$168, DW_AT_TI_call
    1875 000488 6C00          CALL #_set_dma0_ch0_i2s0_Lout ; |1121| 
         00048a 0000!
    1876                                                      ; call occurs [#_set_dma0_ch0_i2s0_Lout] ; |1121| 
    1877                      .dwpsn  file "../FreeRTOS/Demo/c5515_CCS/main.c",line 1122,column 6,is_stmt
    1878              $C$DW$169       .dwtag  DW_TAG_TI_branch
    1879                      .dwattr $C$DW$169, DW_AT_low_pc(0x00)
    1880                      .dwattr $C$DW$169, DW_AT_name("_set_dma0_ch1_i2s0_Rout")
    1881                      .dwattr $C$DW$169, DW_AT_TI_call
    1882 00048c 6C00          CALL #_set_dma0_ch1_i2s0_Rout ; |1122| 
         00048e 0000!
    1883                                                      ; call occurs [#_set_dma0_ch1_i2s0_Rout] ; |1122| 
    1884                      .dwpsn  file "../FreeRTOS/Demo/c5515_CCS/main.c",line 1123,column 2,is_stmt
    1885 000490 4A12          B $C$L25  ; |1123| 
    1886                                                      ; branch occurs ; |1123| 
    1887 000492       $C$L24:    
    1888                      .dwpsn  file "../FreeRTOS/Demo/c5515_CCS/main.c",line 1126,column 3,is_stmt
    1889 000492 E631          MOV #0, *(#_Conunt_RTC) ; |1126| 
         000494 0000 
         000496 0000!
    1890                      .dwpsn  file "../FreeRTOS/Demo/c5515_CCS/main.c",line 1127,column 3,is_stmt
    1891 000498 E631          MOV #0, *(#_f1KToneOn) ; |1127| 
         00049a 0000 
         00049c 0001-
    1892                      .dwpsn  file "../FreeRTOS/Demo/c5515_CCS/main.c",line 1128,column 3,is_stmt
    1893 00049e E631          MOV #1, *(#_f2KToneOn) ; |1128| 
         0004a0 0100 
         0004a2 0002-
    1894                      .dwpsn  file "../FreeRTOS/Demo/c5515_CCS/main.c",line 1131,column 1,is_stmt
    1895 0004a4       $C$L25:    
    1896 0004a4 4E01          AADD #1, SP
    1897                      .dwcfi  cfa_offset, 1
    1898              $C$DW$170       .dwtag  DW_TAG_TI_branch
    1899                      .dwattr $C$DW$170, DW_AT_low_pc(0x00)
    1900                      .dwattr $C$DW$170, DW_AT_TI_return
    1901 0004a6 4804          RET
    1902                                                      ; return occurs
    1903                      .dwattr $C$DW$161, DW_AT_TI_end_file("../FreeRTOS/Demo/c5515_CCS/main.c")
    1904                      .dwattr $C$DW$161, DW_AT_TI_end_line(0x46b)
    1905                      .dwattr $C$DW$161, DW_AT_TI_end_column(0x01)
    1906                      .dwendentry
    1907                      .dwendtag $C$DW$161
    1908              
    1909 0004a8               .sect   ".text"
    1910                      .align 4
    1911                      .global _systemInit
    1912              
    1913              $C$DW$171       .dwtag  DW_TAG_subprogram, DW_AT_name("systemInit")
    1914                      .dwattr $C$DW$171, DW_AT_low_pc(_systemInit)
    1915                      .dwattr $C$DW$171, DW_AT_high_pc(0x00)
    1916                      .dwattr $C$DW$171, DW_AT_TI_symbol_name("_systemInit")
TMS320C55x Assembler PC v4.4.1 Sun Sep 30 06:35:16 2018

Tools Copyright (c) 1996-2012 Texas Instruments Incorporated
main.asm                                                             PAGE   42

    1917                      .dwattr $C$DW$171, DW_AT_external
    1918                      .dwattr $C$DW$171, DW_AT_TI_begin_file("../FreeRTOS/Demo/c5515_CCS/main.c")
    1919                      .dwattr $C$DW$171, DW_AT_TI_begin_line(0x46c)
    1920                      .dwattr $C$DW$171, DW_AT_TI_begin_column(0x06)
    1921                      .dwattr $C$DW$171, DW_AT_TI_max_frame_size(0x14)
    1922                      .dwpsn  file "../FreeRTOS/Demo/c5515_CCS/main.c",line 1133,column 1,is_stmt,address _systemInit
    1923              
    1924                      .dwfde $C$DW$CIE, _systemInit
    1925              ;*******************************************************************************
    1926              ;* FUNCTION NAME: systemInit                                                   *
    1927              ;*                                                                             *
    1928              ;*   Function Uses Regs : AC0,AC0,T0,AR0,XAR0,AR1,XAR1,AR2,XAR2,AR3,XAR3,SP,   *
    1929              ;*                        CSR,RPTC,CARRY,TC1,M40,SATA,SATD,RDM,FRCT,SMUL       *
    1930              ;*   Stack Frame        : Compact (No Frame Pointer, w/ debug)                 *
    1931              ;*   Total Frame Size   : 20 words                                             *
    1932              ;*                        (2 return address/alignment)                         *
    1933              ;*                        (18 local values)                                    *
    1934              ;*   Min System Stack   : 1 word                                               *
    1935              ;*******************************************************************************
    1936 0004a8       _systemInit:
    1937                      .dwcfi  cfa_offset, 1
    1938                      .dwcfi  save_reg_to_mem, 91, -1
    1939 0004a8 4EED          AADD #-19, SP
    1940                      .dwcfi  cfa_offset, 20
    1941              $C$DW$172       .dwtag  DW_TAG_variable, DW_AT_name("i")
    1942                      .dwattr $C$DW$172, DW_AT_TI_symbol_name("_i")
    1943                      .dwattr $C$DW$172, DW_AT_type(*$C$DW$T$21)
    1944                      .dwattr $C$DW$172, DW_AT_location[DW_OP_bregx 0x24 0]
    1945              $C$DW$173       .dwtag  DW_TAG_variable, DW_AT_name("pllObj")
    1946                      .dwattr $C$DW$173, DW_AT_TI_symbol_name("_pllObj")
    1947                      .dwattr $C$DW$173, DW_AT_type(*$C$DW$T$37)
    1948                      .dwattr $C$DW$173, DW_AT_location[DW_OP_bregx 0x24 2]
    1949              $C$DW$174       .dwtag  DW_TAG_variable, DW_AT_name("status")
    1950                      .dwattr $C$DW$174, DW_AT_TI_symbol_name("_status")
    1951                      .dwattr $C$DW$174, DW_AT_type(*$C$DW$T$89)
    1952                      .dwattr $C$DW$174, DW_AT_location[DW_OP_bregx 0x24 8]
    1953              $C$DW$175       .dwtag  DW_TAG_variable, DW_AT_name("hPll")
    1954                      .dwattr $C$DW$175, DW_AT_TI_symbol_name("_hPll")
    1955                      .dwattr $C$DW$175, DW_AT_type(*$C$DW$T$40)
    1956                      .dwattr $C$DW$175, DW_AT_location[DW_OP_bregx 0x24 10]
    1957              $C$DW$176       .dwtag  DW_TAG_variable, DW_AT_name("pConfigInfo")
    1958                      .dwattr $C$DW$176, DW_AT_TI_symbol_name("_pConfigInfo")
    1959                      .dwattr $C$DW$176, DW_AT_type(*$C$DW$T$29)
    1960                      .dwattr $C$DW$176, DW_AT_location[DW_OP_bregx 0x24 12]
    1961              $C$DW$177       .dwtag  DW_TAG_variable, DW_AT_name("pllCfg_v2_100MHz")
    1962                      .dwattr $C$DW$177, DW_AT_TI_symbol_name("_pllCfg_v2_100MHz")
    1963                      .dwattr $C$DW$177, DW_AT_type(*$C$DW$T$28)
    1964                      .dwattr $C$DW$177, DW_AT_location[DW_OP_bregx 0x24 14]
    1965                      .dwpsn  file "../FreeRTOS/Demo/c5515_CCS/main.c",line 1140,column 16,is_stmt
    1966 0004aa EC31          AMOV #_$P$T0$2, XAR3 ; |1140| 
         0004ac BE00 
         0004ae 0000+
    1967              
    1968 0004b3 4D03          RPT #3    ; |1140| 
    1969 0004b0 EC1C  ||      AMAR *SP(#14), XAR2
TMS320C55x Assembler PC v4.4.1 Sun Sep 30 06:35:16 2018

Tools Copyright (c) 1996-2012 Texas Instruments Incorporated
main.asm                                                             PAGE   43

         0004b2 AE   
    1970              
    1971                                                          ; loop starts ; |1140| 
    1972 0004b5       $C$L26:    
    1973 0004b5       $C$DW$L$_systemInit$2$B:
    1974 0004b5 8065              MOV *AR3+, *AR2+ ; |1140| 
         0004b7 14   
    1975                                                      ; loop ends ; |1140| 
    1976 0004b8       $C$DW$L$_systemInit$2$E:
    1977 0004b8       $C$L27:    
    1978                      .dwpsn  file "../FreeRTOS/Demo/c5515_CCS/main.c",line 1144,column 5,is_stmt
    1979 0004b8 FB51          MOV #65326, *port(#1) ; |1144| 
         0004ba FF2E 
         0004bc 0001 
    1980                      .dwpsn  file "../FreeRTOS/Demo/c5515_CCS/main.c",line 1145,column 5,is_stmt
    1981 0004be 7A00   IDLE
         0004c0 000C 
    1982                      .dwpsn  file "../FreeRTOS/Demo/c5515_CCS/main.c",line 1148,column 5,is_stmt
    1983 0004c2 3C00          MOV #0, AC0 ; |1148| 
    1984 0004c4 A951          MOV *port(#7172), AR1 ; |1148| 
         0004c6 1C04 
    1985 0004c8 EC02          BSET @#1, AC0 ; |1148| 
         0004ca 00   
    1986 0004cb C051          MOV AC0, *port(#7172) ; |1148| 
         0004cd 1C04 
    1987                      .dwpsn  file "../FreeRTOS/Demo/c5515_CCS/main.c",line 1149,column 5,is_stmt
    1988 0004cf FB51          MOV #251, *port(#7173) ; |1149| 
         0004d1 00FB 
         0004d3 1C05 
    1989                      .dwpsn  file "../FreeRTOS/Demo/c5515_CCS/main.c",line 1152,column 10,is_stmt
    1990 0004d5 E600          MOV #0, *SP(#0) ; |1152| 
         0004d7 00   
    1991                      .dwpsn  file "../FreeRTOS/Demo/c5515_CCS/main.c",line 1152,column 15,is_stmt
    1992 0004d8 7600          MOV #200, AR2 ; |1152| 
         0004da C8A8 
    1993 0004dc A900          MOV *SP(#0), AR1 ; |1152| 
    1994 0004de 1298          CMPU AR1 >= AR2, TC1 ; |1152| 
         0004e0 A4   
    1995 0004e1 6664          BCC $C$L29,TC1 ; |1152| 
    1996                                                      ; branchcc occurs ; |1152| 
    1997 0004e3       $C$L28:    
    1998 0004e3       $C$DW$L$_systemInit$4$B:
    1999                      .dwpsn  file "../FreeRTOS/Demo/c5515_CCS/main.c",line 1152,column 23,is_stmt
    2000 0004e3 F700          ADD #1, *SP(#0) ; |1152| 
         0004e5 0001 
    2001                      .dwpsn  file "../FreeRTOS/Demo/c5515_CCS/main.c",line 1152,column 15,is_stmt
    2002 0004e7 A900          MOV *SP(#0), AR1 ; |1152| 
    2003 0004e9 1294          CMPU AR1 < AR2, TC1 ; |1152| 
         0004eb A4   
    2004 0004ec 0464          BCC $C$L28,TC1 ; |1152| 
         0004ee F4   
    2005                                                      ; branchcc occurs ; |1152| 
    2006 0004ef       $C$DW$L$_systemInit$4$E:
    2007 0004ef       $C$L29:    
    2008                      .dwpsn  file "../FreeRTOS/Demo/c5515_CCS/main.c",line 1155,column 5,is_stmt
TMS320C55x Assembler PC v4.4.1 Sun Sep 30 06:35:16 2018

Tools Copyright (c) 1996-2012 Texas Instruments Incorporated
main.asm                                                             PAGE   44

    2009 0004ef EC04          AMAR *SP(#2), XAR0
         0004f1 8E   
    2010              $C$DW$178       .dwtag  DW_TAG_TI_branch
    2011                      .dwattr $C$DW$178, DW_AT_low_pc(0x00)
    2012                      .dwattr $C$DW$178, DW_AT_name("_PLL_init")
    2013                      .dwattr $C$DW$178, DW_AT_TI_call
    2014              
    2015 0004f2 6C00          CALL #_PLL_init ; |1155| 
         0004f4 0000!
    2016 0004f6 3D00  ||      MOV #0, AC0 ; |1155| 
    2017              
    2018                                                      ; call occurs [#_PLL_init] ; |1155| 
    2019 0004f8 C410          MOV T0, *SP(#8) ; |1155| 
    2020                      .dwpsn  file "../FreeRTOS/Demo/c5515_CCS/main.c",line 1156,column 5,is_stmt
    2021 0004fa EC04          AMAR *SP(#2), XAR3
         0004fc BE   
    2022 0004fd EB14          MOV XAR3, dbl(*SP(#10))
         0004ff B5   
    2023                      .dwpsn  file "../FreeRTOS/Demo/c5515_CCS/main.c",line 1157,column 5,is_stmt
    2024 000500 ED14          MOV dbl(*SP(#10)), XAR0
         000502 8F   
    2025              $C$DW$179       .dwtag  DW_TAG_TI_branch
    2026                      .dwattr $C$DW$179, DW_AT_low_pc(0x00)
    2027                      .dwattr $C$DW$179, DW_AT_name("_PLL_reset")
    2028                      .dwattr $C$DW$179, DW_AT_TI_call
    2029 000503 6C00          CALL #_PLL_reset ; |1157| 
         000505 0000!
    2030                                                      ; call occurs [#_PLL_reset] ; |1157| 
    2031                      .dwpsn  file "../FreeRTOS/Demo/c5515_CCS/main.c",line 1158,column 5,is_stmt
    2032 000507 EC1C          AMAR *SP(#14), XAR3
         000509 BE   
    2033 00050a EB18          MOV XAR3, dbl(*SP(#12))
         00050c B5   
    2034                      .dwpsn  file "../FreeRTOS/Demo/c5515_CCS/main.c",line 1160,column 5,is_stmt
    2035 00050d ED14          MOV dbl(*SP(#10)), XAR0
         00050f 8F   
    2036 000510 ED18          MOV dbl(*SP(#12)), XAR1
         000512 9F   
    2037              $C$DW$180       .dwtag  DW_TAG_TI_branch
    2038                      .dwattr $C$DW$180, DW_AT_low_pc(0x00)
    2039                      .dwattr $C$DW$180, DW_AT_name("_PLL_config")
    2040                      .dwattr $C$DW$180, DW_AT_TI_call
    2041 000513 6C00          CALL #_PLL_config ; |1160| 
         000515 0000!
    2042                                                      ; call occurs [#_PLL_config] ; |1160| 
    2043 000517 C410          MOV T0, *SP(#8) ; |1160| 
    2044                      .dwpsn  file "../FreeRTOS/Demo/c5515_CCS/main.c",line 1167,column 5,is_stmt
    2045 000519 E651          MOV #1, *port(#7199) ; |1167| 
         00051b 011C 
         00051d 1F   
    2046                      .dwpsn  file "../FreeRTOS/Demo/c5515_CCS/main.c",line 1170,column 6,is_stmt
    2047 00051e A951          MOV *port(#7204), AR1 ; |1170| 
         000520 1C24 
    2048 000522 7DFF          AND #0xfff0, AR1, AR1 ; |1170| 
         000524 F099 
TMS320C55x Assembler PC v4.4.1 Sun Sep 30 06:35:16 2018

Tools Copyright (c) 1996-2012 Texas Instruments Incorporated
main.asm                                                             PAGE   45

    2049 000526 1A0B          OR #0x000b, AR1, AR1 ; |1170| 
         000528 99   
    2050 000529 C951          MOV AR1, *port(#7204) ; |1170| 
         00052b 1C24 
    2051                      .dwpsn  file "../FreeRTOS/Demo/c5515_CCS/main.c",line 1171,column 1,is_stmt
    2052 00052d 4E13          AADD #19, SP
    2053                      .dwcfi  cfa_offset, 1
    2054              $C$DW$181       .dwtag  DW_TAG_TI_branch
    2055                      .dwattr $C$DW$181, DW_AT_low_pc(0x00)
    2056                      .dwattr $C$DW$181, DW_AT_TI_return
    2057 00052f 4804          RET
    2058                                                      ; return occurs
    2059              
    2060              $C$DW$182       .dwtag  DW_TAG_TI_loop
    2061                      .dwattr $C$DW$182, DW_AT_name("F:\eZdsp_DBG\tmp1\c55x-sim2\foo\Debug\main.asm:$C$L28:1:1538314515")
    2062                      .dwattr $C$DW$182, DW_AT_TI_begin_file("../FreeRTOS/Demo/c5515_CCS/main.c")
    2063                      .dwattr $C$DW$182, DW_AT_TI_begin_line(0x480)
    2064                      .dwattr $C$DW$182, DW_AT_TI_end_line(0x480)
    2065              $C$DW$183       .dwtag  DW_TAG_TI_loop_range
    2066                      .dwattr $C$DW$183, DW_AT_low_pc($C$DW$L$_systemInit$4$B)
    2067                      .dwattr $C$DW$183, DW_AT_high_pc($C$DW$L$_systemInit$4$E)
    2068                      .dwendtag $C$DW$182
    2069              
    2070              
    2071              $C$DW$184       .dwtag  DW_TAG_TI_loop
    2072                      .dwattr $C$DW$184, DW_AT_name("F:\eZdsp_DBG\tmp1\c55x-sim2\foo\Debug\main.asm:$C$L26:1:1538314515")
    2073                      .dwattr $C$DW$184, DW_AT_TI_begin_file("../FreeRTOS/Demo/c5515_CCS/main.c")
    2074                      .dwattr $C$DW$184, DW_AT_TI_begin_line(0x474)
    2075                      .dwattr $C$DW$184, DW_AT_TI_end_line(0x474)
    2076              $C$DW$185       .dwtag  DW_TAG_TI_loop_range
    2077                      .dwattr $C$DW$185, DW_AT_low_pc($C$DW$L$_systemInit$2$B)
    2078                      .dwattr $C$DW$185, DW_AT_high_pc($C$DW$L$_systemInit$2$E)
    2079                      .dwendtag $C$DW$184
    2080              
    2081                      .dwattr $C$DW$171, DW_AT_TI_end_file("../FreeRTOS/Demo/c5515_CCS/main.c")
    2082                      .dwattr $C$DW$171, DW_AT_TI_end_line(0x493)
    2083                      .dwattr $C$DW$171, DW_AT_TI_end_column(0x01)
    2084                      .dwendentry
    2085                      .dwendtag $C$DW$171
    2086              
    2087 000531               .sect   ".text"
    2088                      .align 4
    2089                      .global _vApplicationMallocFailedHook
    2090              
    2091              $C$DW$186       .dwtag  DW_TAG_subprogram, DW_AT_name("vApplicationMallocFailedHook")
    2092                      .dwattr $C$DW$186, DW_AT_low_pc(_vApplicationMallocFailedHook)
    2093                      .dwattr $C$DW$186, DW_AT_high_pc(0x00)
    2094                      .dwattr $C$DW$186, DW_AT_TI_symbol_name("_vApplicationMallocFailedHook")
    2095                      .dwattr $C$DW$186, DW_AT_external
    2096                      .dwattr $C$DW$186, DW_AT_TI_begin_file("../FreeRTOS/Demo/c5515_CCS/main.c")
    2097                      .dwattr $C$DW$186, DW_AT_TI_begin_line(0x495)
    2098                      .dwattr $C$DW$186, DW_AT_TI_begin_column(0x06)
    2099                      .dwattr $C$DW$186, DW_AT_TI_max_frame_size(0x01)
    2100                      .dwpsn  file "../FreeRTOS/Demo/c5515_CCS/main.c",line 1174,column 1,is_stmt,address _vApplicationMall
    2101              
TMS320C55x Assembler PC v4.4.1 Sun Sep 30 06:35:16 2018

Tools Copyright (c) 1996-2012 Texas Instruments Incorporated
main.asm                                                             PAGE   46

    2102                      .dwfde $C$DW$CIE, _vApplicationMallocFailedHook
    2103              ;*******************************************************************************
    2104              ;* FUNCTION NAME: vApplicationMallocFailedHook                                 *
    2105              ;*                                                                             *
    2106              ;*   Function Uses Regs : SP,M40,SATA,SATD,RDM,FRCT,SMUL                       *
    2107              ;*   Stack Frame        : Compact (No Frame Pointer, w/ debug)                 *
    2108              ;*   Total Frame Size   : 1 word                                               *
    2109              ;*                        (1 return address/alignment)                         *
    2110              ;*   Min System Stack   : 1 word                                               *
    2111              ;*******************************************************************************
    2112 000534       _vApplicationMallocFailedHook:
    2113                      .dwcfi  cfa_offset, 1
    2114                      .dwcfi  save_reg_to_mem, 91, -1
    2115                      .dwpsn  file "../FreeRTOS/Demo/c5515_CCS/main.c",line 1179,column 2,is_stmt
    2116 000534 20     nop
    2117 000535 46B3   bset INTM
    2118 000537       $C$L30:    
    2119 000537       $C$DW$L$_vApplicationMallocFailedHook$2$B:
    2120                      .dwpsn  file "../FreeRTOS/Demo/c5515_CCS/main.c",line 1180,column 2,is_stmt
    2121 000537 4A7E          B $C$L30  ; |1180| 
    2122                                                      ; branch occurs ; |1180| 
    2123              $C$DW$L$_vApplicationMallocFailedHook$2$E:
    2124              
    2125              $C$DW$187       .dwtag  DW_TAG_TI_loop
    2126                      .dwattr $C$DW$187, DW_AT_name("F:\eZdsp_DBG\tmp1\c55x-sim2\foo\Debug\main.asm:$C$L30:1:1538314515")
    2127                      .dwattr $C$DW$187, DW_AT_TI_begin_file("../FreeRTOS/Demo/c5515_CCS/main.c")
    2128                      .dwattr $C$DW$187, DW_AT_TI_begin_line(0x49c)
    2129                      .dwattr $C$DW$187, DW_AT_TI_end_line(0x49c)
    2130              $C$DW$188       .dwtag  DW_TAG_TI_loop_range
    2131                      .dwattr $C$DW$188, DW_AT_low_pc($C$DW$L$_vApplicationMallocFailedHook$2$B)
    2132                      .dwattr $C$DW$188, DW_AT_high_pc($C$DW$L$_vApplicationMallocFailedHook$2$E)
    2133                      .dwendtag $C$DW$187
    2134              
    2135                      .dwattr $C$DW$186, DW_AT_TI_end_file("../FreeRTOS/Demo/c5515_CCS/main.c")
    2136                      .dwattr $C$DW$186, DW_AT_TI_end_line(0x49d)
    2137                      .dwattr $C$DW$186, DW_AT_TI_end_column(0x01)
    2138                      .dwendentry
    2139                      .dwendtag $C$DW$186
    2140              
    2141 000539               .sect   ".text"
    2142                      .align 4
    2143                      .global _vApplicationStackOverflowHook
    2144              
    2145              $C$DW$189       .dwtag  DW_TAG_subprogram, DW_AT_name("vApplicationStackOverflowHook")
    2146                      .dwattr $C$DW$189, DW_AT_low_pc(_vApplicationStackOverflowHook)
    2147                      .dwattr $C$DW$189, DW_AT_high_pc(0x00)
    2148                      .dwattr $C$DW$189, DW_AT_TI_symbol_name("_vApplicationStackOverflowHook")
    2149                      .dwattr $C$DW$189, DW_AT_external
    2150                      .dwattr $C$DW$189, DW_AT_TI_begin_file("../FreeRTOS/Demo/c5515_CCS/main.c")
    2151                      .dwattr $C$DW$189, DW_AT_TI_begin_line(0x4a0)
    2152                      .dwattr $C$DW$189, DW_AT_TI_begin_column(0x06)
    2153                      .dwattr $C$DW$189, DW_AT_TI_max_frame_size(0x06)
    2154                      .dwpsn  file "../FreeRTOS/Demo/c5515_CCS/main.c",line 1185,column 1,is_stmt,address _vApplicationStac
    2155              
    2156                      .dwfde $C$DW$CIE, _vApplicationStackOverflowHook
TMS320C55x Assembler PC v4.4.1 Sun Sep 30 06:35:16 2018

Tools Copyright (c) 1996-2012 Texas Instruments Incorporated
main.asm                                                             PAGE   47

    2157              $C$DW$190       .dwtag  DW_TAG_formal_parameter, DW_AT_name("pxTask")
    2158                      .dwattr $C$DW$190, DW_AT_TI_symbol_name("_pxTask")
    2159                      .dwattr $C$DW$190, DW_AT_type(*$C$DW$T$59)
    2160                      .dwattr $C$DW$190, DW_AT_location[DW_OP_reg17]
    2161              $C$DW$191       .dwtag  DW_TAG_formal_parameter, DW_AT_name("pcTaskName")
    2162                      .dwattr $C$DW$191, DW_AT_TI_symbol_name("_pcTaskName")
    2163                      .dwattr $C$DW$191, DW_AT_type(*$C$DW$T$68)
    2164                      .dwattr $C$DW$191, DW_AT_location[DW_OP_reg19]
    2165              ;*******************************************************************************
    2166              ;* FUNCTION NAME: vApplicationStackOverflowHook                                *
    2167              ;*                                                                             *
    2168              ;*   Function Uses Regs : AR0,XAR0,AR1,XAR1,SP,M40,SATA,SATD,RDM,FRCT,SMUL     *
    2169              ;*   Stack Frame        : Compact (No Frame Pointer, w/ debug)                 *
    2170              ;*   Total Frame Size   : 6 words                                              *
    2171              ;*                        (2 return address/alignment)                         *
    2172              ;*                        (4 local values)                                     *
    2173              ;*   Min System Stack   : 1 word                                               *
    2174              ;*******************************************************************************
    2175 00053c       _vApplicationStackOverflowHook:
    2176                      .dwcfi  cfa_offset, 1
    2177                      .dwcfi  save_reg_to_mem, 91, -1
    2178 00053c 4EFB          AADD #-5, SP
    2179                      .dwcfi  cfa_offset, 6
    2180              $C$DW$192       .dwtag  DW_TAG_variable, DW_AT_name("pxTask")
    2181                      .dwattr $C$DW$192, DW_AT_TI_symbol_name("_pxTask")
    2182                      .dwattr $C$DW$192, DW_AT_type(*$C$DW$T$59)
    2183                      .dwattr $C$DW$192, DW_AT_location[DW_OP_bregx 0x24 0]
    2184              $C$DW$193       .dwtag  DW_TAG_variable, DW_AT_name("pcTaskName")
    2185                      .dwattr $C$DW$193, DW_AT_TI_symbol_name("_pcTaskName")
    2186                      .dwattr $C$DW$193, DW_AT_type(*$C$DW$T$68)
    2187                      .dwattr $C$DW$193, DW_AT_location[DW_OP_bregx 0x24 2]
    2188 00053e EB04          MOV XAR1, dbl(*SP(#2))
         000540 95   
    2189 000541 EB00          MOV XAR0, dbl(*SP(#0))
         000543 85   
    2190                      .dwpsn  file "../FreeRTOS/Demo/c5515_CCS/main.c",line 1186,column 2,is_stmt
    2191                      .dwpsn  file "../FreeRTOS/Demo/c5515_CCS/main.c",line 1187,column 2,is_stmt
    2192                      .dwpsn  file "../FreeRTOS/Demo/c5515_CCS/main.c",line 1192,column 2,is_stmt
    2193 000544 20     nop
    2194 000545 46B3   bset INTM
    2195 000547       $C$L31:    
    2196 000547       $C$DW$L$_vApplicationStackOverflowHook$2$B:
    2197                      .dwpsn  file "../FreeRTOS/Demo/c5515_CCS/main.c",line 1193,column 2,is_stmt
    2198 000547 4A7E          B $C$L31  ; |1193| 
    2199                                                      ; branch occurs ; |1193| 
    2200 000549       $C$DW$L$_vApplicationStackOverflowHook$2$E:
    2201                      .dwcfi  cfa_offset, 1
    2202              
    2203              $C$DW$194       .dwtag  DW_TAG_TI_loop
    2204                      .dwattr $C$DW$194, DW_AT_name("F:\eZdsp_DBG\tmp1\c55x-sim2\foo\Debug\main.asm:$C$L31:1:1538314515")
    2205                      .dwattr $C$DW$194, DW_AT_TI_begin_file("../FreeRTOS/Demo/c5515_CCS/main.c")
    2206                      .dwattr $C$DW$194, DW_AT_TI_begin_line(0x4a9)
    2207                      .dwattr $C$DW$194, DW_AT_TI_end_line(0x4a9)
    2208              $C$DW$195       .dwtag  DW_TAG_TI_loop_range
    2209                      .dwattr $C$DW$195, DW_AT_low_pc($C$DW$L$_vApplicationStackOverflowHook$2$B)
TMS320C55x Assembler PC v4.4.1 Sun Sep 30 06:35:16 2018

Tools Copyright (c) 1996-2012 Texas Instruments Incorporated
main.asm                                                             PAGE   48

    2210                      .dwattr $C$DW$195, DW_AT_high_pc($C$DW$L$_vApplicationStackOverflowHook$2$E)
    2211                      .dwendtag $C$DW$194
    2212              
    2213                      .dwattr $C$DW$189, DW_AT_TI_end_file("../FreeRTOS/Demo/c5515_CCS/main.c")
    2214                      .dwattr $C$DW$189, DW_AT_TI_end_line(0x4aa)
    2215                      .dwattr $C$DW$189, DW_AT_TI_end_column(0x01)
    2216                      .dwendentry
    2217                      .dwendtag $C$DW$189
    2218              
    2219 000549               .sect   ".text"
    2220                      .align 4
    2221                      .global _LED_TaskBlue
    2222              
    2223              $C$DW$196       .dwtag  DW_TAG_subprogram, DW_AT_name("LED_TaskBlue")
    2224                      .dwattr $C$DW$196, DW_AT_low_pc(_LED_TaskBlue)
    2225                      .dwattr $C$DW$196, DW_AT_high_pc(0x00)
    2226                      .dwattr $C$DW$196, DW_AT_TI_symbol_name("_LED_TaskBlue")
    2227                      .dwattr $C$DW$196, DW_AT_external
    2228                      .dwattr $C$DW$196, DW_AT_TI_begin_file("../FreeRTOS/Demo/c5515_CCS/main.c")
    2229                      .dwattr $C$DW$196, DW_AT_TI_begin_line(0x4ac)
    2230                      .dwattr $C$DW$196, DW_AT_TI_begin_column(0x06)
    2231                      .dwattr $C$DW$196, DW_AT_TI_max_frame_size(0x04)
    2232                      .dwpsn  file "../FreeRTOS/Demo/c5515_CCS/main.c",line 1197,column 1,is_stmt,address _LED_TaskBlue
    2233              
    2234                      .dwfde $C$DW$CIE, _LED_TaskBlue
    2235              $C$DW$197       .dwtag  DW_TAG_formal_parameter, DW_AT_name("pvParameters")
    2236                      .dwattr $C$DW$197, DW_AT_TI_symbol_name("_pvParameters")
    2237                      .dwattr $C$DW$197, DW_AT_type(*$C$DW$T$3)
    2238                      .dwattr $C$DW$197, DW_AT_location[DW_OP_reg17]
    2239              ;*******************************************************************************
    2240              ;* FUNCTION NAME: LED_TaskBlue                                                 *
    2241              ;*                                                                             *
    2242              ;*   Function Uses Regs : AC0,AC0,T0,T2,AR0,XAR0,SP,CARRY,TC1,M40,SATA,SATD,   *
    2243              ;*                        RDM,FRCT,SMUL                                        *
    2244              ;*   Save On Entry Regs : T2                                                   *
    2245              ;*   Stack Frame        : Compact (No Frame Pointer, w/ debug)                 *
    2246              ;*   Total Frame Size   : 4 words                                              *
    2247              ;*                        (1 return address/alignment)                         *
    2248              ;*                        (2 local values)                                     *
    2249              ;*                        (1 register save area)                               *
    2250              ;*   Min System Stack   : 1 word                                               *
    2251              ;*******************************************************************************
    2252 00054c       _LED_TaskBlue:
    2253                      .dwcfi  cfa_offset, 1
    2254                      .dwcfi  save_reg_to_mem, 91, -1
    2255 00054c 5066          PSH T2
    2256                      .dwcfi  cfa_offset, 2
    2257                      .dwcfi  save_reg_to_mem, 14, -2
    2258 00054e 4EFE          AADD #-2, SP
    2259                      .dwcfi  cfa_offset, 4
    2260              $C$DW$198       .dwtag  DW_TAG_variable, DW_AT_name("pvParameters")
    2261                      .dwattr $C$DW$198, DW_AT_TI_symbol_name("_pvParameters")
    2262                      .dwattr $C$DW$198, DW_AT_type(*$C$DW$T$3)
    2263                      .dwattr $C$DW$198, DW_AT_location[DW_OP_bregx 0x24 0]
    2264              
TMS320C55x Assembler PC v4.4.1 Sun Sep 30 06:35:16 2018

Tools Copyright (c) 1996-2012 Texas Instruments Incorporated
main.asm                                                             PAGE   49

    2265 000550 EB00          MOV XAR0, dbl(*SP(#0))
         000552 85   
    2266 000553 3D16  ||      MOV #1, T2
    2267              
    2268 000555       $C$L32:    
    2269 000555       $C$DW$L$_LED_TaskBlue$2$B:
    2270                      .dwpsn  file "../FreeRTOS/Demo/c5515_CCS/main.c",line 1200,column 3,is_stmt
    2271 000555 ED31          MOV dbl(*(#_xSemaphoreB)), XAR0
         000557 8F00 
         000559 001E-
    2272 00055b 7600          MOV #100, AC0 ; |1200| 
         00055d 6408 
    2273              $C$DW$199       .dwtag  DW_TAG_TI_branch
    2274                      .dwattr $C$DW$199, DW_AT_low_pc(0x00)
    2275                      .dwattr $C$DW$199, DW_AT_name("_xQueueSemaphoreTake")
    2276                      .dwattr $C$DW$199, DW_AT_TI_call
    2277 00055f 6C00          CALL #_xQueueSemaphoreTake ; |1200| 
         000561 0000!
    2278                                                      ; call occurs [#_xQueueSemaphoreTake] ; |1200| 
    2279 000563 124C          CMP T0 != T2, TC1 ; |1200| 
         000565 60   
    2280 000566 0464          BCC $C$L33,TC1 ; |1200| 
         000568 11   
    2281                                                      ; branchcc occurs ; |1200| 
    2282 000569       $C$DW$L$_LED_TaskBlue$2$E:
    2283 000569       $C$DW$L$_LED_TaskBlue$3$B:
    2284                      .dwpsn  file "../FreeRTOS/Demo/c5515_CCS/main.c",line 1202,column 4,is_stmt
    2285              $C$DW$200       .dwtag  DW_TAG_TI_branch
    2286                      .dwattr $C$DW$200, DW_AT_low_pc(0x00)
    2287                      .dwattr $C$DW$200, DW_AT_name("_blueLedToggle")
    2288                      .dwattr $C$DW$200, DW_AT_TI_call
    2289 000569 0800          CALL #_blueLedToggle ; |1202| 
         00056b 50   
    2290                                                      ; call occurs [#_blueLedToggle] ; |1202| 
    2291                      .dwpsn  file "../FreeRTOS/Demo/c5515_CCS/main.c",line 1206,column 4,is_stmt
    2292 00056c ED31          MOV dbl(*(#_led_tsks_running)), AC0 ; |1206| 
         00056e 0800 
         000570 0004-
    2293 000572 4010          ADD #1, AC0 ; |1206| 
    2294 000574 EB31          MOV AC0, dbl(*(#_led_tsks_running)) ; |1206| 
         000576 0800 
         000578 0004-
    2295 00057a       $C$DW$L$_LED_TaskBlue$3$E:
    2296 00057a       $C$L33:    
    2297 00057a       $C$DW$L$_LED_TaskBlue$4$B:
    2298                      .dwpsn  file "../FreeRTOS/Demo/c5515_CCS/main.c",line 1221,column 3,is_stmt
    2299 00057a 7603          MOV #1000, AC0 ; |1221| 
         00057c E808 
    2300              $C$DW$201       .dwtag  DW_TAG_TI_branch
    2301                      .dwattr $C$DW$201, DW_AT_low_pc(0x00)
    2302                      .dwattr $C$DW$201, DW_AT_name("_vTaskDelay")
    2303                      .dwattr $C$DW$201, DW_AT_TI_call
    2304 00057e 6C00          CALL #_vTaskDelay ; |1221| 
         000580 0000!
    2305                                                      ; call occurs [#_vTaskDelay] ; |1221| 
TMS320C55x Assembler PC v4.4.1 Sun Sep 30 06:35:16 2018

Tools Copyright (c) 1996-2012 Texas Instruments Incorporated
main.asm                                                             PAGE   50

    2306                      .dwpsn  file "../FreeRTOS/Demo/c5515_CCS/main.c",line 1222,column 1,is_stmt
    2307 000582 4A51          B $C$L32  ; |1222| 
    2308                                                      ; branch occurs ; |1222| 
    2309 000584       $C$DW$L$_LED_TaskBlue$4$E:
    2310                      .dwcfi  cfa_offset, 2
    2311                      .dwcfi  restore_reg, 14
    2312                      .dwcfi  cfa_offset, 1
    2313              
    2314              $C$DW$202       .dwtag  DW_TAG_TI_loop
    2315                      .dwattr $C$DW$202, DW_AT_name("F:\eZdsp_DBG\tmp1\c55x-sim2\foo\Debug\main.asm:$C$L32:1:1538314515")
    2316                      .dwattr $C$DW$202, DW_AT_TI_begin_file("../FreeRTOS/Demo/c5515_CCS/main.c")
    2317                      .dwattr $C$DW$202, DW_AT_TI_begin_line(0x4ae)
    2318                      .dwattr $C$DW$202, DW_AT_TI_end_line(0x4c6)
    2319              $C$DW$203       .dwtag  DW_TAG_TI_loop_range
    2320                      .dwattr $C$DW$203, DW_AT_low_pc($C$DW$L$_LED_TaskBlue$2$B)
    2321                      .dwattr $C$DW$203, DW_AT_high_pc($C$DW$L$_LED_TaskBlue$2$E)
    2322              $C$DW$204       .dwtag  DW_TAG_TI_loop_range
    2323                      .dwattr $C$DW$204, DW_AT_low_pc($C$DW$L$_LED_TaskBlue$3$B)
    2324                      .dwattr $C$DW$204, DW_AT_high_pc($C$DW$L$_LED_TaskBlue$3$E)
    2325              $C$DW$205       .dwtag  DW_TAG_TI_loop_range
    2326                      .dwattr $C$DW$205, DW_AT_low_pc($C$DW$L$_LED_TaskBlue$4$B)
    2327                      .dwattr $C$DW$205, DW_AT_high_pc($C$DW$L$_LED_TaskBlue$4$E)
    2328                      .dwendtag $C$DW$202
    2329              
    2330                      .dwattr $C$DW$196, DW_AT_TI_end_file("../FreeRTOS/Demo/c5515_CCS/main.c")
    2331                      .dwattr $C$DW$196, DW_AT_TI_end_line(0x4c7)
    2332                      .dwattr $C$DW$196, DW_AT_TI_end_column(0x01)
    2333                      .dwendentry
    2334                      .dwendtag $C$DW$196
    2335              
    2336 000584               .sect   ".text"
    2337                      .align 4
    2338                      .global _LED_TaskRed
    2339              
    2340              $C$DW$206       .dwtag  DW_TAG_subprogram, DW_AT_name("LED_TaskRed")
    2341                      .dwattr $C$DW$206, DW_AT_low_pc(_LED_TaskRed)
    2342                      .dwattr $C$DW$206, DW_AT_high_pc(0x00)
    2343                      .dwattr $C$DW$206, DW_AT_TI_symbol_name("_LED_TaskRed")
    2344                      .dwattr $C$DW$206, DW_AT_external
    2345                      .dwattr $C$DW$206, DW_AT_TI_begin_file("../FreeRTOS/Demo/c5515_CCS/main.c")
    2346                      .dwattr $C$DW$206, DW_AT_TI_begin_line(0x4ca)
    2347                      .dwattr $C$DW$206, DW_AT_TI_begin_column(0x06)
    2348                      .dwattr $C$DW$206, DW_AT_TI_max_frame_size(0x04)
    2349                      .dwpsn  file "../FreeRTOS/Demo/c5515_CCS/main.c",line 1227,column 1,is_stmt,address _LED_TaskRed
    2350              
    2351                      .dwfde $C$DW$CIE, _LED_TaskRed
    2352              $C$DW$207       .dwtag  DW_TAG_formal_parameter, DW_AT_name("pvParameters")
    2353                      .dwattr $C$DW$207, DW_AT_TI_symbol_name("_pvParameters")
    2354                      .dwattr $C$DW$207, DW_AT_type(*$C$DW$T$3)
    2355                      .dwattr $C$DW$207, DW_AT_location[DW_OP_reg17]
    2356              ;*******************************************************************************
    2357              ;* FUNCTION NAME: LED_TaskRed                                                  *
    2358              ;*                                                                             *
    2359              ;*   Function Uses Regs : AC0,AC0,T0,T2,AR0,XAR0,SP,CARRY,TC1,M40,SATA,SATD,   *
    2360              ;*                        RDM,FRCT,SMUL                                        *
TMS320C55x Assembler PC v4.4.1 Sun Sep 30 06:35:16 2018

Tools Copyright (c) 1996-2012 Texas Instruments Incorporated
main.asm                                                             PAGE   51

    2361              ;*   Save On Entry Regs : T2                                                   *
    2362              ;*   Stack Frame        : Compact (No Frame Pointer, w/ debug)                 *
    2363              ;*   Total Frame Size   : 4 words                                              *
    2364              ;*                        (1 return address/alignment)                         *
    2365              ;*                        (2 local values)                                     *
    2366              ;*                        (1 register save area)                               *
    2367              ;*   Min System Stack   : 1 word                                               *
    2368              ;*******************************************************************************
    2369 000584       _LED_TaskRed:
    2370                      .dwcfi  cfa_offset, 1
    2371                      .dwcfi  save_reg_to_mem, 91, -1
    2372 000584 5066          PSH T2
    2373                      .dwcfi  cfa_offset, 2
    2374                      .dwcfi  save_reg_to_mem, 14, -2
    2375 000586 4EFE          AADD #-2, SP
    2376                      .dwcfi  cfa_offset, 4
    2377              $C$DW$208       .dwtag  DW_TAG_variable, DW_AT_name("pvParameters")
    2378                      .dwattr $C$DW$208, DW_AT_TI_symbol_name("_pvParameters")
    2379                      .dwattr $C$DW$208, DW_AT_type(*$C$DW$T$3)
    2380                      .dwattr $C$DW$208, DW_AT_location[DW_OP_bregx 0x24 0]
    2381              
    2382 000588 EB00          MOV XAR0, dbl(*SP(#0))
         00058a 85   
    2383 00058b 3D16  ||      MOV #1, T2
    2384              
    2385 00058d       $C$L34:    
    2386 00058d       $C$DW$L$_LED_TaskRed$2$B:
    2387                      .dwpsn  file "../FreeRTOS/Demo/c5515_CCS/main.c",line 1230,column 3,is_stmt
    2388 00058d ED31          MOV dbl(*(#_xSemaphoreR)), XAR0
         00058f 8F00 
         000591 001C-
    2389 000593 7600          MOV #250, AC0 ; |1230| 
         000595 FA08 
    2390              $C$DW$209       .dwtag  DW_TAG_TI_branch
    2391                      .dwattr $C$DW$209, DW_AT_low_pc(0x00)
    2392                      .dwattr $C$DW$209, DW_AT_name("_xQueueSemaphoreTake")
    2393                      .dwattr $C$DW$209, DW_AT_TI_call
    2394 000597 6C00          CALL #_xQueueSemaphoreTake ; |1230| 
         000599 0000!
    2395                                                      ; call occurs [#_xQueueSemaphoreTake] ; |1230| 
    2396 00059b 124C          CMP T0 != T2, TC1 ; |1230| 
         00059d 60   
    2397 00059e 0464          BCC $C$L35,TC1 ; |1230| 
         0005a0 11   
    2398                                                      ; branchcc occurs ; |1230| 
    2399 0005a1       $C$DW$L$_LED_TaskRed$2$E:
    2400 0005a1       $C$DW$L$_LED_TaskRed$3$B:
    2401                      .dwpsn  file "../FreeRTOS/Demo/c5515_CCS/main.c",line 1232,column 4,is_stmt
    2402              $C$DW$210       .dwtag  DW_TAG_TI_branch
    2403                      .dwattr $C$DW$210, DW_AT_low_pc(0x00)
    2404                      .dwattr $C$DW$210, DW_AT_name("_redLedToggle")
    2405                      .dwattr $C$DW$210, DW_AT_TI_call
    2406 0005a1 0800          CALL #_redLedToggle ; |1232| 
         0005a3 40   
    2407                                                      ; call occurs [#_redLedToggle] ; |1232| 
TMS320C55x Assembler PC v4.4.1 Sun Sep 30 06:35:16 2018

Tools Copyright (c) 1996-2012 Texas Instruments Incorporated
main.asm                                                             PAGE   52

    2408                      .dwpsn  file "../FreeRTOS/Demo/c5515_CCS/main.c",line 1236,column 4,is_stmt
    2409 0005a4 ED31          MOV dbl(*(#_led_tsks_running)), AC0 ; |1236| 
         0005a6 0800 
         0005a8 0004-
    2410 0005aa 4010          ADD #1, AC0 ; |1236| 
    2411 0005ac EB31          MOV AC0, dbl(*(#_led_tsks_running)) ; |1236| 
         0005ae 0800 
         0005b0 0004-
    2412 0005b2       $C$DW$L$_LED_TaskRed$3$E:
    2413 0005b2       $C$L35:    
    2414 0005b2       $C$DW$L$_LED_TaskRed$4$B:
    2415                      .dwpsn  file "../FreeRTOS/Demo/c5515_CCS/main.c",line 1248,column 2,is_stmt
    2416 0005b2 7600          MOV #200, AC0 ; |1248| 
         0005b4 C808 
    2417              $C$DW$211       .dwtag  DW_TAG_TI_branch
    2418                      .dwattr $C$DW$211, DW_AT_low_pc(0x00)
    2419                      .dwattr $C$DW$211, DW_AT_name("_vTaskDelay")
    2420                      .dwattr $C$DW$211, DW_AT_TI_call
    2421 0005b6 6C00          CALL #_vTaskDelay ; |1248| 
         0005b8 0000!
    2422                                                      ; call occurs [#_vTaskDelay] ; |1248| 
    2423                      .dwpsn  file "../FreeRTOS/Demo/c5515_CCS/main.c",line 1249,column 2,is_stmt
    2424 0005ba 4A51          B $C$L34  ; |1249| 
    2425                                                      ; branch occurs ; |1249| 
    2426 0005bc       $C$DW$L$_LED_TaskRed$4$E:
    2427                      .dwcfi  cfa_offset, 2
    2428                      .dwcfi  restore_reg, 14
    2429                      .dwcfi  cfa_offset, 1
    2430              
    2431              $C$DW$212       .dwtag  DW_TAG_TI_loop
    2432                      .dwattr $C$DW$212, DW_AT_name("F:\eZdsp_DBG\tmp1\c55x-sim2\foo\Debug\main.asm:$C$L34:1:1538314515")
    2433                      .dwattr $C$DW$212, DW_AT_TI_begin_file("../FreeRTOS/Demo/c5515_CCS/main.c")
    2434                      .dwattr $C$DW$212, DW_AT_TI_begin_line(0x4cc)
    2435                      .dwattr $C$DW$212, DW_AT_TI_end_line(0x4e1)
    2436              $C$DW$213       .dwtag  DW_TAG_TI_loop_range
    2437                      .dwattr $C$DW$213, DW_AT_low_pc($C$DW$L$_LED_TaskRed$2$B)
    2438                      .dwattr $C$DW$213, DW_AT_high_pc($C$DW$L$_LED_TaskRed$2$E)
    2439              $C$DW$214       .dwtag  DW_TAG_TI_loop_range
    2440                      .dwattr $C$DW$214, DW_AT_low_pc($C$DW$L$_LED_TaskRed$3$B)
    2441                      .dwattr $C$DW$214, DW_AT_high_pc($C$DW$L$_LED_TaskRed$3$E)
    2442              $C$DW$215       .dwtag  DW_TAG_TI_loop_range
    2443                      .dwattr $C$DW$215, DW_AT_low_pc($C$DW$L$_LED_TaskRed$4$B)
    2444                      .dwattr $C$DW$215, DW_AT_high_pc($C$DW$L$_LED_TaskRed$4$E)
    2445                      .dwendtag $C$DW$212
    2446              
    2447                      .dwattr $C$DW$206, DW_AT_TI_end_file("../FreeRTOS/Demo/c5515_CCS/main.c")
    2448                      .dwattr $C$DW$206, DW_AT_TI_end_line(0x4e2)
    2449                      .dwattr $C$DW$206, DW_AT_TI_end_column(0x01)
    2450                      .dwendentry
    2451                      .dwendtag $C$DW$206
    2452              
    2453 0005bc               .sect   ".text"
    2454                      .align 4
    2455                      .global _blueLedToggle
    2456              
TMS320C55x Assembler PC v4.4.1 Sun Sep 30 06:35:16 2018

Tools Copyright (c) 1996-2012 Texas Instruments Incorporated
main.asm                                                             PAGE   53

    2457              $C$DW$216       .dwtag  DW_TAG_subprogram, DW_AT_name("blueLedToggle")
    2458                      .dwattr $C$DW$216, DW_AT_low_pc(_blueLedToggle)
    2459                      .dwattr $C$DW$216, DW_AT_high_pc(0x00)
    2460                      .dwattr $C$DW$216, DW_AT_TI_symbol_name("_blueLedToggle")
    2461                      .dwattr $C$DW$216, DW_AT_external
    2462                      .dwattr $C$DW$216, DW_AT_TI_begin_file("../FreeRTOS/Demo/c5515_CCS/main.c")
    2463                      .dwattr $C$DW$216, DW_AT_TI_begin_line(0x4e5)
    2464                      .dwattr $C$DW$216, DW_AT_TI_begin_column(0x07)
    2465                      .dwattr $C$DW$216, DW_AT_TI_max_frame_size(0x02)
    2466                      .dwpsn  file "../FreeRTOS/Demo/c5515_CCS/main.c",line 1254,column 1,is_stmt,address _blueLedToggle
    2467              
    2468                      .dwfde $C$DW$CIE, _blueLedToggle
    2469              $C$DW$217       .dwtag  DW_TAG_variable, DW_AT_name("counter")
    2470                      .dwattr $C$DW$217, DW_AT_TI_symbol_name("_counter$3")
    2471                      .dwattr $C$DW$217, DW_AT_type(*$C$DW$T$9)
    2472                      .dwattr $C$DW$217, DW_AT_location[DW_OP_addr _counter$3]
    2473              ;*******************************************************************************
    2474              ;* FUNCTION NAME: blueLedToggle                                                *
    2475              ;*                                                                             *
    2476              ;*   Function Uses Regs : T0,T1,SP,CARRY,TC1,M40,SATA,SATD,RDM,FRCT,SMUL       *
    2477              ;*   Stack Frame        : Compact (No Frame Pointer, w/ debug)                 *
    2478              ;*   Total Frame Size   : 2 words                                              *
    2479              ;*                        (2 return address/alignment)                         *
    2480              ;*   Min System Stack   : 1 word                                               *
    2481              ;*******************************************************************************
    2482 0005bc       _blueLedToggle:
    2483                      .dwcfi  cfa_offset, 1
    2484                      .dwcfi  save_reg_to_mem, 91, -1
    2485 0005bc 4EFF          AADD #-1, SP
    2486                      .dwcfi  cfa_offset, 2
    2487                      .dwpsn  file "../FreeRTOS/Demo/c5515_CCS/main.c",line 1257,column 2,is_stmt
    2488 0005be F731          ADD #1, *(#_counter$3) ; |1257| 
         0005c0 0001 
         0005c2 0000 
         0005c4 2A-  
    2489                      .dwpsn  file "../FreeRTOS/Demo/c5515_CCS/main.c",line 1258,column 2,is_stmt
    2490 0005c5 DC31          BTST #0, *(#_counter$3), TC1 ; |1258| 
         0005c7 0000 
         0005c9 002A-
    2491 0005cb 6574          BCC $C$L36,!TC1 ; |1258| 
    2492                                                      ; branchcc occurs ; |1258| 
    2493                      .dwpsn  file "../FreeRTOS/Demo/c5515_CCS/main.c",line 1260,column 3,is_stmt
    2494 0005cd 3CE4          MOV #14, T0
    2495              $C$DW$218       .dwtag  DW_TAG_TI_branch
    2496                      .dwattr $C$DW$218, DW_AT_low_pc(0x00)
    2497                      .dwattr $C$DW$218, DW_AT_name("_EZDSP5535_GPIO_setOutput")
    2498                      .dwattr $C$DW$218, DW_AT_TI_call
    2499              
    2500 0005cf 6C00          CALL #_EZDSP5535_GPIO_setOutput ; |1260| 
         0005d1 0000!
    2501 0005d3 3D15  ||      MOV #1, T1
    2502              
    2503                                                      ; call occurs [#_EZDSP5535_GPIO_setOutput] ; |1260| 
    2504                      .dwpsn  file "../FreeRTOS/Demo/c5515_CCS/main.c",line 1261,column 2,is_stmt
    2505 0005d5 4A08          B $C$L37  ; |1261| 
TMS320C55x Assembler PC v4.4.1 Sun Sep 30 06:35:16 2018

Tools Copyright (c) 1996-2012 Texas Instruments Incorporated
main.asm                                                             PAGE   54

    2506                                                      ; branch occurs ; |1261| 
    2507 0005d7       $C$L36:    
    2508                      .dwpsn  file "../FreeRTOS/Demo/c5515_CCS/main.c",line 1264,column 3,is_stmt
    2509              
    2510 0005d7 3CE4          MOV #14, T0
    2511 0005d9 3D05  ||      MOV #0, T1
    2512              
    2513              $C$DW$219       .dwtag  DW_TAG_TI_branch
    2514                      .dwattr $C$DW$219, DW_AT_low_pc(0x00)
    2515                      .dwattr $C$DW$219, DW_AT_name("_EZDSP5535_GPIO_setOutput")
    2516                      .dwattr $C$DW$219, DW_AT_TI_call
    2517 0005db 6C00          CALL #_EZDSP5535_GPIO_setOutput ; |1264| 
         0005dd 0000!
    2518                                                      ; call occurs [#_EZDSP5535_GPIO_setOutput] ; |1264| 
    2519                      .dwpsn  file "../FreeRTOS/Demo/c5515_CCS/main.c",line 1266,column 1,is_stmt
    2520 0005df       $C$L37:    
    2521 0005df 4E01          AADD #1, SP
    2522                      .dwcfi  cfa_offset, 1
    2523              $C$DW$220       .dwtag  DW_TAG_TI_branch
    2524                      .dwattr $C$DW$220, DW_AT_low_pc(0x00)
    2525                      .dwattr $C$DW$220, DW_AT_TI_return
    2526 0005e1 4804          RET
    2527                                                      ; return occurs
    2528                      .dwattr $C$DW$216, DW_AT_TI_end_file("../FreeRTOS/Demo/c5515_CCS/main.c")
    2529                      .dwattr $C$DW$216, DW_AT_TI_end_line(0x4f2)
    2530                      .dwattr $C$DW$216, DW_AT_TI_end_column(0x01)
    2531                      .dwendentry
    2532                      .dwendtag $C$DW$216
    2533              
    2534 0005e3               .sect   ".text"
    2535                      .align 4
    2536                      .global _redLedToggle
    2537              
    2538              $C$DW$221       .dwtag  DW_TAG_subprogram, DW_AT_name("redLedToggle")
    2539                      .dwattr $C$DW$221, DW_AT_low_pc(_redLedToggle)
    2540                      .dwattr $C$DW$221, DW_AT_high_pc(0x00)
    2541                      .dwattr $C$DW$221, DW_AT_TI_symbol_name("_redLedToggle")
    2542                      .dwattr $C$DW$221, DW_AT_external
    2543                      .dwattr $C$DW$221, DW_AT_TI_begin_file("../FreeRTOS/Demo/c5515_CCS/main.c")
    2544                      .dwattr $C$DW$221, DW_AT_TI_begin_line(0x4f4)
    2545                      .dwattr $C$DW$221, DW_AT_TI_begin_column(0x07)
    2546                      .dwattr $C$DW$221, DW_AT_TI_max_frame_size(0x02)
    2547                      .dwpsn  file "../FreeRTOS/Demo/c5515_CCS/main.c",line 1269,column 1,is_stmt,address _redLedToggle
    2548              
    2549                      .dwfde $C$DW$CIE, _redLedToggle
    2550              $C$DW$222       .dwtag  DW_TAG_variable, DW_AT_name("counter")
    2551                      .dwattr $C$DW$222, DW_AT_TI_symbol_name("_counter$4")
    2552                      .dwattr $C$DW$222, DW_AT_type(*$C$DW$T$9)
    2553                      .dwattr $C$DW$222, DW_AT_location[DW_OP_addr _counter$4]
    2554              ;*******************************************************************************
    2555              ;* FUNCTION NAME: redLedToggle                                                 *
    2556              ;*                                                                             *
    2557              ;*   Function Uses Regs : T0,T1,SP,CARRY,TC1,M40,SATA,SATD,RDM,FRCT,SMUL       *
    2558              ;*   Stack Frame        : Compact (No Frame Pointer, w/ debug)                 *
    2559              ;*   Total Frame Size   : 2 words                                              *
TMS320C55x Assembler PC v4.4.1 Sun Sep 30 06:35:16 2018

Tools Copyright (c) 1996-2012 Texas Instruments Incorporated
main.asm                                                             PAGE   55

    2560              ;*                        (2 return address/alignment)                         *
    2561              ;*   Min System Stack   : 1 word                                               *
    2562              ;*******************************************************************************
    2563 0005e4       _redLedToggle:
    2564                      .dwcfi  cfa_offset, 1
    2565                      .dwcfi  save_reg_to_mem, 91, -1
    2566 0005e4 4EFF          AADD #-1, SP
    2567                      .dwcfi  cfa_offset, 2
    2568                      .dwpsn  file "../FreeRTOS/Demo/c5515_CCS/main.c",line 1272,column 2,is_stmt
    2569 0005e6 F731          ADD #1, *(#_counter$4) ; |1272| 
         0005e8 0001 
         0005ea 0000 
         0005ec 2B-  
    2570                      .dwpsn  file "../FreeRTOS/Demo/c5515_CCS/main.c",line 1273,column 2,is_stmt
    2571 0005ed DC31          BTST #0, *(#_counter$4), TC1 ; |1273| 
         0005ef 0000 
         0005f1 002B-
    2572 0005f3 6674          BCC $C$L38,!TC1 ; |1273| 
    2573                                                      ; branchcc occurs ; |1273| 
    2574                      .dwpsn  file "../FreeRTOS/Demo/c5515_CCS/main.c",line 1275,column 3,is_stmt
    2575 0005f5 7600          MOV #16, T0 ; |1275| 
         0005f7 1048 
    2576              $C$DW$223       .dwtag  DW_TAG_TI_branch
    2577                      .dwattr $C$DW$223, DW_AT_low_pc(0x00)
    2578                      .dwattr $C$DW$223, DW_AT_name("_EZDSP5535_GPIO_setOutput")
    2579                      .dwattr $C$DW$223, DW_AT_TI_call
    2580              
    2581 0005f9 6C00          CALL #_EZDSP5535_GPIO_setOutput ; |1275| 
         0005fb 0000!
    2582 0005fd 3D15  ||      MOV #1, T1
    2583              
    2584                                                      ; call occurs [#_EZDSP5535_GPIO_setOutput] ; |1275| 
    2585                      .dwpsn  file "../FreeRTOS/Demo/c5515_CCS/main.c",line 1276,column 2,is_stmt
    2586 0005ff 4A0A          B $C$L39  ; |1276| 
    2587                                                      ; branch occurs ; |1276| 
    2588 000601       $C$L38:    
    2589                      .dwpsn  file "../FreeRTOS/Demo/c5515_CCS/main.c",line 1279,column 3,is_stmt
    2590              
    2591 000601 7600          MOV #16, T0 ; |1279| 
         000603 1048 
    2592 000605 3D05  ||      MOV #0, T1
    2593              
    2594              $C$DW$224       .dwtag  DW_TAG_TI_branch
    2595                      .dwattr $C$DW$224, DW_AT_low_pc(0x00)
    2596                      .dwattr $C$DW$224, DW_AT_name("_EZDSP5535_GPIO_setOutput")
    2597                      .dwattr $C$DW$224, DW_AT_TI_call
    2598 000607 6C00          CALL #_EZDSP5535_GPIO_setOutput ; |1279| 
         000609 0000!
    2599                                                      ; call occurs [#_EZDSP5535_GPIO_setOutput] ; |1279| 
    2600                      .dwpsn  file "../FreeRTOS/Demo/c5515_CCS/main.c",line 1281,column 1,is_stmt
    2601 00060b       $C$L39:    
    2602 00060b 4E01          AADD #1, SP
    2603                      .dwcfi  cfa_offset, 1
    2604              $C$DW$225       .dwtag  DW_TAG_TI_branch
    2605                      .dwattr $C$DW$225, DW_AT_low_pc(0x00)
TMS320C55x Assembler PC v4.4.1 Sun Sep 30 06:35:16 2018

Tools Copyright (c) 1996-2012 Texas Instruments Incorporated
main.asm                                                             PAGE   56

    2606                      .dwattr $C$DW$225, DW_AT_TI_return
    2607 00060d 4804          RET
    2608                                                      ; return occurs
    2609                      .dwattr $C$DW$221, DW_AT_TI_end_file("../FreeRTOS/Demo/c5515_CCS/main.c")
    2610                      .dwattr $C$DW$221, DW_AT_TI_end_line(0x501)
    2611                      .dwattr $C$DW$221, DW_AT_TI_end_column(0x01)
    2612                      .dwendentry
    2613                      .dwendtag $C$DW$221
    2614              
    2615 00060f               .sect   ".text"
    2616                      .align 4
    2617                      .global _LED_TaskXF
    2618              
    2619              $C$DW$226       .dwtag  DW_TAG_subprogram, DW_AT_name("LED_TaskXF")
    2620                      .dwattr $C$DW$226, DW_AT_low_pc(_LED_TaskXF)
    2621                      .dwattr $C$DW$226, DW_AT_high_pc(0x00)
    2622                      .dwattr $C$DW$226, DW_AT_TI_symbol_name("_LED_TaskXF")
    2623                      .dwattr $C$DW$226, DW_AT_external
    2624                      .dwattr $C$DW$226, DW_AT_TI_begin_file("../FreeRTOS/Demo/c5515_CCS/main.c")
    2625                      .dwattr $C$DW$226, DW_AT_TI_begin_line(0x502)
    2626                      .dwattr $C$DW$226, DW_AT_TI_begin_column(0x06)
    2627                      .dwattr $C$DW$226, DW_AT_TI_max_frame_size(0x04)
    2628                      .dwpsn  file "../FreeRTOS/Demo/c5515_CCS/main.c",line 1283,column 1,is_stmt,address _LED_TaskXF
    2629              
    2630                      .dwfde $C$DW$CIE, _LED_TaskXF
    2631              $C$DW$227       .dwtag  DW_TAG_variable, DW_AT_name("counter")
    2632                      .dwattr $C$DW$227, DW_AT_TI_symbol_name("_counter$5")
    2633                      .dwattr $C$DW$227, DW_AT_type(*$C$DW$T$9)
    2634                      .dwattr $C$DW$227, DW_AT_location[DW_OP_addr _counter$5]
    2635              $C$DW$228       .dwtag  DW_TAG_formal_parameter, DW_AT_name("pvParameters")
    2636                      .dwattr $C$DW$228, DW_AT_TI_symbol_name("_pvParameters")
    2637                      .dwattr $C$DW$228, DW_AT_type(*$C$DW$T$3)
    2638                      .dwattr $C$DW$228, DW_AT_location[DW_OP_reg17]
    2639              ;*******************************************************************************
    2640              ;* FUNCTION NAME: LED_TaskXF                                                   *
    2641              ;*                                                                             *
    2642              ;*   Function Uses Regs : AC0,AC0,T0,T1,T2,AR0,XAR0,SP,CARRY,TC1,M40,SATA,SATD,*
    2643              ;*                        RDM,FRCT,SMUL                                        *
    2644              ;*   Save On Entry Regs : T2                                                   *
    2645              ;*   Stack Frame        : Compact (No Frame Pointer, w/ debug)                 *
    2646              ;*   Total Frame Size   : 4 words                                              *
    2647              ;*                        (1 return address/alignment)                         *
    2648              ;*                        (2 local values)                                     *
    2649              ;*                        (1 register save area)                               *
    2650              ;*   Min System Stack   : 1 word                                               *
    2651              ;*******************************************************************************
    2652 000610       _LED_TaskXF:
    2653                      .dwcfi  cfa_offset, 1
    2654                      .dwcfi  save_reg_to_mem, 91, -1
    2655 000610 5066          PSH T2
    2656                      .dwcfi  cfa_offset, 2
    2657                      .dwcfi  save_reg_to_mem, 14, -2
    2658 000612 4EFE          AADD #-2, SP
    2659                      .dwcfi  cfa_offset, 4
    2660              $C$DW$229       .dwtag  DW_TAG_variable, DW_AT_name("pvParameters")
TMS320C55x Assembler PC v4.4.1 Sun Sep 30 06:35:16 2018

Tools Copyright (c) 1996-2012 Texas Instruments Incorporated
main.asm                                                             PAGE   57

    2661                      .dwattr $C$DW$229, DW_AT_TI_symbol_name("_pvParameters")
    2662                      .dwattr $C$DW$229, DW_AT_type(*$C$DW$T$3)
    2663                      .dwattr $C$DW$229, DW_AT_location[DW_OP_bregx 0x24 0]
    2664              
    2665 000614 EB00          MOV XAR0, dbl(*SP(#0))
         000616 85   
    2666 000617 3D16  ||      MOV #1, T2
    2667              
    2668 000619       $C$L40:    
    2669 000619       $C$DW$L$_LED_TaskXF$2$B:
    2670                      .dwpsn  file "../FreeRTOS/Demo/c5515_CCS/main.c",line 1300,column 3,is_stmt
    2671 000619 ED31          MOV dbl(*(#_xSemaphoreO)), XAR0
         00061b 8F00 
         00061d 0022-
    2672 00061f 7600          MOV #250, AC0 ; |1300| 
         000621 FA08 
    2673              $C$DW$230       .dwtag  DW_TAG_TI_branch
    2674                      .dwattr $C$DW$230, DW_AT_low_pc(0x00)
    2675                      .dwattr $C$DW$230, DW_AT_name("_xQueueSemaphoreTake")
    2676                      .dwattr $C$DW$230, DW_AT_TI_call
    2677 000623 6C00          CALL #_xQueueSemaphoreTake ; |1300| 
         000625 0000!
    2678                                                      ; call occurs [#_xQueueSemaphoreTake] ; |1300| 
    2679 000627 124C          CMP T0 != T2, TC1 ; |1300| 
         000629 60   
    2680 00062a 0464          BCC $C$L42,TC1 ; |1300| 
         00062c 21   
    2681                                                      ; branchcc occurs ; |1300| 
    2682 00062d       $C$DW$L$_LED_TaskXF$2$E:
    2683 00062d       $C$DW$L$_LED_TaskXF$3$B:
    2684                      .dwpsn  file "../FreeRTOS/Demo/c5515_CCS/main.c",line 1304,column 2,is_stmt
    2685 00062d F731          ADD #1, *(#_counter$5) ; |1304| 
         00062f 0001 
         000631 0000 
         000633 2C-  
    2686                      .dwpsn  file "../FreeRTOS/Demo/c5515_CCS/main.c",line 1305,column 2,is_stmt
    2687 000634 DC31          BTST #0, *(#_counter$5), TC1 ; |1305| 
         000636 0000 
         000638 002C-
    2688 00063a 6574          BCC $C$L41,!TC1 ; |1305| 
    2689                                                      ; branchcc occurs ; |1305| 
    2690 00063c       $C$DW$L$_LED_TaskXF$3$E:
    2691 00063c       $C$DW$L$_LED_TaskXF$4$B:
    2692                      .dwpsn  file "../FreeRTOS/Demo/c5515_CCS/main.c",line 1307,column 3,is_stmt
    2693 00063c 3CF4          MOV #15, T0
    2694              $C$DW$231       .dwtag  DW_TAG_TI_branch
    2695                      .dwattr $C$DW$231, DW_AT_low_pc(0x00)
    2696                      .dwattr $C$DW$231, DW_AT_name("_EZDSP5535_GPIO_setOutput")
    2697                      .dwattr $C$DW$231, DW_AT_TI_call
    2698              
    2699 00063e 6C00          CALL #_EZDSP5535_GPIO_setOutput ; |1307| 
         000640 0000!
    2700 000642 3D05  ||      MOV #0, T1
    2701              
    2702                                                      ; call occurs [#_EZDSP5535_GPIO_setOutput] ; |1307| 
TMS320C55x Assembler PC v4.4.1 Sun Sep 30 06:35:16 2018

Tools Copyright (c) 1996-2012 Texas Instruments Incorporated
main.asm                                                             PAGE   58

    2703                      .dwpsn  file "../FreeRTOS/Demo/c5515_CCS/main.c",line 1308,column 2,is_stmt
    2704 000644 4A08          B $C$L42  ; |1308| 
    2705                                                      ; branch occurs ; |1308| 
    2706 000646       $C$DW$L$_LED_TaskXF$4$E:
    2707 000646       $C$L41:    
    2708 000646       $C$DW$L$_LED_TaskXF$5$B:
    2709                      .dwpsn  file "../FreeRTOS/Demo/c5515_CCS/main.c",line 1311,column 3,is_stmt
    2710 000646 3CF4          MOV #15, T0
    2711              $C$DW$232       .dwtag  DW_TAG_TI_branch
    2712                      .dwattr $C$DW$232, DW_AT_low_pc(0x00)
    2713                      .dwattr $C$DW$232, DW_AT_name("_EZDSP5535_GPIO_setOutput")
    2714                      .dwattr $C$DW$232, DW_AT_TI_call
    2715              
    2716 000648 6C00          CALL #_EZDSP5535_GPIO_setOutput ; |1311| 
         00064a 0000!
    2717 00064c 3D15  ||      MOV #1, T1
    2718              
    2719                                                      ; call occurs [#_EZDSP5535_GPIO_setOutput] ; |1311| 
    2720 00064e       $C$DW$L$_LED_TaskXF$5$E:
    2721 00064e       $C$L42:    
    2722 00064e       $C$DW$L$_LED_TaskXF$6$B:
    2723                      .dwpsn  file "../FreeRTOS/Demo/c5515_CCS/main.c",line 1329,column 3,is_stmt
    2724 00064e 7600          MOV #200, AC0 ; |1329| 
         000650 C808 
    2725              $C$DW$233       .dwtag  DW_TAG_TI_branch
    2726                      .dwattr $C$DW$233, DW_AT_low_pc(0x00)
    2727                      .dwattr $C$DW$233, DW_AT_name("_vTaskDelay")
    2728                      .dwattr $C$DW$233, DW_AT_TI_call
    2729 000652 6C00          CALL #_vTaskDelay ; |1329| 
         000654 0000!
    2730                                                      ; call occurs [#_vTaskDelay] ; |1329| 
    2731                      .dwpsn  file "../FreeRTOS/Demo/c5515_CCS/main.c",line 1330,column 2,is_stmt
    2732 000656 4A41          B $C$L40  ; |1330| 
    2733                                                      ; branch occurs ; |1330| 
    2734 000658       $C$DW$L$_LED_TaskXF$6$E:
    2735                      .dwcfi  cfa_offset, 2
    2736                      .dwcfi  restore_reg, 14
    2737                      .dwcfi  cfa_offset, 1
    2738              
    2739              $C$DW$234       .dwtag  DW_TAG_TI_loop
    2740                      .dwattr $C$DW$234, DW_AT_name("F:\eZdsp_DBG\tmp1\c55x-sim2\foo\Debug\main.asm:$C$L40:1:1538314515")
    2741                      .dwattr $C$DW$234, DW_AT_TI_begin_file("../FreeRTOS/Demo/c5515_CCS/main.c")
    2742                      .dwattr $C$DW$234, DW_AT_TI_begin_line(0x510)
    2743                      .dwattr $C$DW$234, DW_AT_TI_end_line(0x532)
    2744              $C$DW$235       .dwtag  DW_TAG_TI_loop_range
    2745                      .dwattr $C$DW$235, DW_AT_low_pc($C$DW$L$_LED_TaskXF$2$B)
    2746                      .dwattr $C$DW$235, DW_AT_high_pc($C$DW$L$_LED_TaskXF$2$E)
    2747              $C$DW$236       .dwtag  DW_TAG_TI_loop_range
    2748                      .dwattr $C$DW$236, DW_AT_low_pc($C$DW$L$_LED_TaskXF$3$B)
    2749                      .dwattr $C$DW$236, DW_AT_high_pc($C$DW$L$_LED_TaskXF$3$E)
    2750              $C$DW$237       .dwtag  DW_TAG_TI_loop_range
    2751                      .dwattr $C$DW$237, DW_AT_low_pc($C$DW$L$_LED_TaskXF$4$B)
    2752                      .dwattr $C$DW$237, DW_AT_high_pc($C$DW$L$_LED_TaskXF$4$E)
    2753              $C$DW$238       .dwtag  DW_TAG_TI_loop_range
    2754                      .dwattr $C$DW$238, DW_AT_low_pc($C$DW$L$_LED_TaskXF$5$B)
TMS320C55x Assembler PC v4.4.1 Sun Sep 30 06:35:16 2018

Tools Copyright (c) 1996-2012 Texas Instruments Incorporated
main.asm                                                             PAGE   59

    2755                      .dwattr $C$DW$238, DW_AT_high_pc($C$DW$L$_LED_TaskXF$5$E)
    2756              $C$DW$239       .dwtag  DW_TAG_TI_loop_range
    2757                      .dwattr $C$DW$239, DW_AT_low_pc($C$DW$L$_LED_TaskXF$6$B)
    2758                      .dwattr $C$DW$239, DW_AT_high_pc($C$DW$L$_LED_TaskXF$6$E)
    2759                      .dwendtag $C$DW$234
    2760              
    2761                      .dwattr $C$DW$226, DW_AT_TI_end_file("../FreeRTOS/Demo/c5515_CCS/main.c")
    2762                      .dwattr $C$DW$226, DW_AT_TI_end_line(0x533)
    2763                      .dwattr $C$DW$226, DW_AT_TI_end_column(0x01)
    2764                      .dwendentry
    2765                      .dwendtag $C$DW$226
    2766              
    2767 000658               .sect   ".text"
    2768                      .align 4
    2769                      .global _LED_TaskGreen
    2770              
    2771              $C$DW$240       .dwtag  DW_TAG_subprogram, DW_AT_name("LED_TaskGreen")
    2772                      .dwattr $C$DW$240, DW_AT_low_pc(_LED_TaskGreen)
    2773                      .dwattr $C$DW$240, DW_AT_high_pc(0x00)
    2774                      .dwattr $C$DW$240, DW_AT_TI_symbol_name("_LED_TaskGreen")
    2775                      .dwattr $C$DW$240, DW_AT_external
    2776                      .dwattr $C$DW$240, DW_AT_TI_begin_file("../FreeRTOS/Demo/c5515_CCS/main.c")
    2777                      .dwattr $C$DW$240, DW_AT_TI_begin_line(0x535)
    2778                      .dwattr $C$DW$240, DW_AT_TI_begin_column(0x06)
    2779                      .dwattr $C$DW$240, DW_AT_TI_max_frame_size(0x04)
    2780                      .dwpsn  file "../FreeRTOS/Demo/c5515_CCS/main.c",line 1334,column 1,is_stmt,address _LED_TaskGreen
    2781              
    2782                      .dwfde $C$DW$CIE, _LED_TaskGreen
    2783              $C$DW$241       .dwtag  DW_TAG_variable, DW_AT_name("counter")
    2784                      .dwattr $C$DW$241, DW_AT_TI_symbol_name("_counter$6")
    2785                      .dwattr $C$DW$241, DW_AT_type(*$C$DW$T$9)
    2786                      .dwattr $C$DW$241, DW_AT_location[DW_OP_addr _counter$6]
    2787              $C$DW$242       .dwtag  DW_TAG_variable, DW_AT_name("ctr")
    2788                      .dwattr $C$DW$242, DW_AT_TI_symbol_name("_ctr$7")
    2789                      .dwattr $C$DW$242, DW_AT_type(*$C$DW$T$9)
    2790                      .dwattr $C$DW$242, DW_AT_location[DW_OP_addr _ctr$7]
    2791              $C$DW$243       .dwtag  DW_TAG_formal_parameter, DW_AT_name("pvParameters")
    2792                      .dwattr $C$DW$243, DW_AT_TI_symbol_name("_pvParameters")
    2793                      .dwattr $C$DW$243, DW_AT_type(*$C$DW$T$3)
    2794                      .dwattr $C$DW$243, DW_AT_location[DW_OP_reg17]
    2795              ;*******************************************************************************
    2796              ;* FUNCTION NAME: LED_TaskGreen                                                *
    2797              ;*                                                                             *
    2798              ;*   Function Uses Regs : AC0,AC0,T0,T1,T2,AR0,XAR0,SP,CARRY,TC1,M40,SATA,SATD,*
    2799              ;*                        RDM,FRCT,SMUL                                        *
    2800              ;*   Save On Entry Regs : T2                                                   *
    2801              ;*   Stack Frame        : Compact (No Frame Pointer, w/ debug)                 *
    2802              ;*   Total Frame Size   : 4 words                                              *
    2803              ;*                        (1 return address/alignment)                         *
    2804              ;*                        (2 local values)                                     *
    2805              ;*                        (1 register save area)                               *
    2806              ;*   Min System Stack   : 1 word                                               *
    2807              ;*******************************************************************************
    2808 000658       _LED_TaskGreen:
    2809                      .dwcfi  cfa_offset, 1
TMS320C55x Assembler PC v4.4.1 Sun Sep 30 06:35:16 2018

Tools Copyright (c) 1996-2012 Texas Instruments Incorporated
main.asm                                                             PAGE   60

    2810                      .dwcfi  save_reg_to_mem, 91, -1
    2811 000658 5066          PSH T2
    2812                      .dwcfi  cfa_offset, 2
    2813                      .dwcfi  save_reg_to_mem, 14, -2
    2814 00065a 4EFE          AADD #-2, SP
    2815                      .dwcfi  cfa_offset, 4
    2816              $C$DW$244       .dwtag  DW_TAG_variable, DW_AT_name("pvParameters")
    2817                      .dwattr $C$DW$244, DW_AT_TI_symbol_name("_pvParameters")
    2818                      .dwattr $C$DW$244, DW_AT_type(*$C$DW$T$3)
    2819                      .dwattr $C$DW$244, DW_AT_location[DW_OP_bregx 0x24 0]
    2820              
    2821 00065c EB00          MOV XAR0, dbl(*SP(#0))
         00065e 85   
    2822 00065f 3D16  ||      MOV #1, T2
    2823              
    2824 000661       $C$L43:    
    2825 000661       $C$DW$L$_LED_TaskGreen$2$B:
    2826                      .dwpsn  file "../FreeRTOS/Demo/c5515_CCS/main.c",line 1339,column 3,is_stmt
    2827 000661 ED31          MOV dbl(*(#_xSemaphoreBaton)), XAR0
         000663 8F00 
         000665 0026-
    2828 000667 7600          MOV #250, AC0 ; |1339| 
         000669 FA08 
    2829              $C$DW$245       .dwtag  DW_TAG_TI_branch
    2830                      .dwattr $C$DW$245, DW_AT_low_pc(0x00)
    2831                      .dwattr $C$DW$245, DW_AT_name("_xQueueSemaphoreTake")
    2832                      .dwattr $C$DW$245, DW_AT_TI_call
    2833 00066b 6C00          CALL #_xQueueSemaphoreTake ; |1339| 
         00066d 0000!
    2834                                                      ; call occurs [#_xQueueSemaphoreTake] ; |1339| 
    2835 00066f 124C          CMP T0 != T2, TC1 ; |1339| 
         000671 60   
    2836 000672 0464          BCC $C$L45,TC1 ; |1339| 
         000674 25   
    2837                                                      ; branchcc occurs ; |1339| 
    2838 000675       $C$DW$L$_LED_TaskGreen$2$E:
    2839 000675       $C$DW$L$_LED_TaskGreen$3$B:
    2840                      .dwpsn  file "../FreeRTOS/Demo/c5515_CCS/main.c",line 1342,column 2,is_stmt
    2841 000675 F731          ADD #1, *(#_counter$6) ; |1342| 
         000677 0001 
         000679 0000 
         00067b 2D-  
    2842                      .dwpsn  file "../FreeRTOS/Demo/c5515_CCS/main.c",line 1343,column 2,is_stmt
    2843 00067c DC31          BTST #0, *(#_counter$6), TC1 ; |1343| 
         00067e 0000 
         000680 002D-
    2844 000682 6674          BCC $C$L44,!TC1 ; |1343| 
    2845                                                      ; branchcc occurs ; |1343| 
    2846 000684       $C$DW$L$_LED_TaskGreen$3$E:
    2847 000684       $C$DW$L$_LED_TaskGreen$4$B:
    2848                      .dwpsn  file "../FreeRTOS/Demo/c5515_CCS/main.c",line 1345,column 3,is_stmt
    2849 000684 7600          MOV #17, T0 ; |1345| 
         000686 1148 
    2850              $C$DW$246       .dwtag  DW_TAG_TI_branch
    2851                      .dwattr $C$DW$246, DW_AT_low_pc(0x00)
TMS320C55x Assembler PC v4.4.1 Sun Sep 30 06:35:16 2018

Tools Copyright (c) 1996-2012 Texas Instruments Incorporated
main.asm                                                             PAGE   61

    2852                      .dwattr $C$DW$246, DW_AT_name("_EZDSP5535_GPIO_setOutput")
    2853                      .dwattr $C$DW$246, DW_AT_TI_call
    2854              
    2855 000688 6C00          CALL #_EZDSP5535_GPIO_setOutput ; |1345| 
         00068a 0000!
    2856 00068c 3D15  ||      MOV #1, T1
    2857              
    2858                                                      ; call occurs [#_EZDSP5535_GPIO_setOutput] ; |1345| 
    2859                      .dwpsn  file "../FreeRTOS/Demo/c5515_CCS/main.c",line 1350,column 2,is_stmt
    2860 00068e 4A0A          B $C$L45  ; |1350| 
    2861                                                      ; branch occurs ; |1350| 
    2862 000690       $C$DW$L$_LED_TaskGreen$4$E:
    2863 000690       $C$L44:    
    2864 000690       $C$DW$L$_LED_TaskGreen$5$B:
    2865                      .dwpsn  file "../FreeRTOS/Demo/c5515_CCS/main.c",line 1353,column 3,is_stmt
    2866 000690 7600          MOV #17, T0 ; |1353| 
         000692 1148 
    2867              $C$DW$247       .dwtag  DW_TAG_TI_branch
    2868                      .dwattr $C$DW$247, DW_AT_low_pc(0x00)
    2869                      .dwattr $C$DW$247, DW_AT_name("_EZDSP5535_GPIO_setOutput")
    2870                      .dwattr $C$DW$247, DW_AT_TI_call
    2871              
    2872 000694 6C00          CALL #_EZDSP5535_GPIO_setOutput ; |1353| 
         000696 0000!
    2873 000698 3D05  ||      MOV #0, T1
    2874              
    2875                                                      ; call occurs [#_EZDSP5535_GPIO_setOutput] ; |1353| 
    2876 00069a       $C$DW$L$_LED_TaskGreen$5$E:
    2877 00069a       $C$L45:    
    2878 00069a       $C$DW$L$_LED_TaskGreen$6$B:
    2879                      .dwpsn  file "../FreeRTOS/Demo/c5515_CCS/main.c",line 1372,column 3,is_stmt
    2880 00069a 7600          MOV #200, AC0 ; |1372| 
         00069c C808 
    2881              $C$DW$248       .dwtag  DW_TAG_TI_branch
    2882                      .dwattr $C$DW$248, DW_AT_low_pc(0x00)
    2883                      .dwattr $C$DW$248, DW_AT_name("_vTaskDelay")
    2884                      .dwattr $C$DW$248, DW_AT_TI_call
    2885 00069e 6C00          CALL #_vTaskDelay ; |1372| 
         0006a0 0000!
    2886                                                      ; call occurs [#_vTaskDelay] ; |1372| 
    2887                      .dwpsn  file "../FreeRTOS/Demo/c5515_CCS/main.c",line 1374,column 2,is_stmt
    2888 0006a2 06FF          B $C$L43  ; |1374| 
         0006a4 BC   
    2889                                                      ; branch occurs ; |1374| 
    2890 0006a5       $C$DW$L$_LED_TaskGreen$6$E:
    2891                      .dwcfi  cfa_offset, 2
    2892                      .dwcfi  restore_reg, 14
    2893                      .dwcfi  cfa_offset, 1
    2894              
    2895              $C$DW$249       .dwtag  DW_TAG_TI_loop
    2896                      .dwattr $C$DW$249, DW_AT_name("F:\eZdsp_DBG\tmp1\c55x-sim2\foo\Debug\main.asm:$C$L43:1:1538314515")
    2897                      .dwattr $C$DW$249, DW_AT_TI_begin_file("../FreeRTOS/Demo/c5515_CCS/main.c")
    2898                      .dwattr $C$DW$249, DW_AT_TI_begin_line(0x539)
    2899                      .dwattr $C$DW$249, DW_AT_TI_end_line(0x55e)
    2900              $C$DW$250       .dwtag  DW_TAG_TI_loop_range
TMS320C55x Assembler PC v4.4.1 Sun Sep 30 06:35:16 2018

Tools Copyright (c) 1996-2012 Texas Instruments Incorporated
main.asm                                                             PAGE   62

    2901                      .dwattr $C$DW$250, DW_AT_low_pc($C$DW$L$_LED_TaskGreen$2$B)
    2902                      .dwattr $C$DW$250, DW_AT_high_pc($C$DW$L$_LED_TaskGreen$2$E)
    2903              $C$DW$251       .dwtag  DW_TAG_TI_loop_range
    2904                      .dwattr $C$DW$251, DW_AT_low_pc($C$DW$L$_LED_TaskGreen$3$B)
    2905                      .dwattr $C$DW$251, DW_AT_high_pc($C$DW$L$_LED_TaskGreen$3$E)
    2906              $C$DW$252       .dwtag  DW_TAG_TI_loop_range
    2907                      .dwattr $C$DW$252, DW_AT_low_pc($C$DW$L$_LED_TaskGreen$4$B)
    2908                      .dwattr $C$DW$252, DW_AT_high_pc($C$DW$L$_LED_TaskGreen$4$E)
    2909              $C$DW$253       .dwtag  DW_TAG_TI_loop_range
    2910                      .dwattr $C$DW$253, DW_AT_low_pc($C$DW$L$_LED_TaskGreen$5$B)
    2911                      .dwattr $C$DW$253, DW_AT_high_pc($C$DW$L$_LED_TaskGreen$5$E)
    2912              $C$DW$254       .dwtag  DW_TAG_TI_loop_range
    2913                      .dwattr $C$DW$254, DW_AT_low_pc($C$DW$L$_LED_TaskGreen$6$B)
    2914                      .dwattr $C$DW$254, DW_AT_high_pc($C$DW$L$_LED_TaskGreen$6$E)
    2915                      .dwendtag $C$DW$249
    2916              
    2917                      .dwattr $C$DW$240, DW_AT_TI_end_file("../FreeRTOS/Demo/c5515_CCS/main.c")
    2918                      .dwattr $C$DW$240, DW_AT_TI_end_line(0x55f)
    2919                      .dwattr $C$DW$240, DW_AT_TI_end_column(0x01)
    2920                      .dwendentry
    2921                      .dwendtag $C$DW$240
    2922              
    2923 0006a5               .sect   ".text"
    2924                      .align 4
    2925                      .global _LED_Control
    2926              
    2927              $C$DW$255       .dwtag  DW_TAG_subprogram, DW_AT_name("LED_Control")
    2928                      .dwattr $C$DW$255, DW_AT_low_pc(_LED_Control)
    2929                      .dwattr $C$DW$255, DW_AT_high_pc(0x00)
    2930                      .dwattr $C$DW$255, DW_AT_TI_symbol_name("_LED_Control")
    2931                      .dwattr $C$DW$255, DW_AT_external
    2932                      .dwattr $C$DW$255, DW_AT_TI_begin_file("../FreeRTOS/Demo/c5515_CCS/main.c")
    2933                      .dwattr $C$DW$255, DW_AT_TI_begin_line(0x561)
    2934                      .dwattr $C$DW$255, DW_AT_TI_begin_column(0x06)
    2935                      .dwattr $C$DW$255, DW_AT_TI_max_frame_size(0x04)
    2936                      .dwpsn  file "../FreeRTOS/Demo/c5515_CCS/main.c",line 1378,column 1,is_stmt,address _LED_Control
    2937              
    2938                      .dwfde $C$DW$CIE, _LED_Control
    2939              $C$DW$256       .dwtag  DW_TAG_variable, DW_AT_name("ctr")
    2940                      .dwattr $C$DW$256, DW_AT_TI_symbol_name("_ctr$8")
    2941                      .dwattr $C$DW$256, DW_AT_type(*$C$DW$T$8)
    2942                      .dwattr $C$DW$256, DW_AT_location[DW_OP_addr _ctr$8]
    2943              $C$DW$257       .dwtag  DW_TAG_formal_parameter, DW_AT_name("pvParameters")
    2944                      .dwattr $C$DW$257, DW_AT_TI_symbol_name("_pvParameters")
    2945                      .dwattr $C$DW$257, DW_AT_type(*$C$DW$T$3)
    2946                      .dwattr $C$DW$257, DW_AT_location[DW_OP_reg17]
    2947              ;*******************************************************************************
    2948              ;* FUNCTION NAME: LED_Control                                                  *
    2949              ;*                                                                             *
    2950              ;*   Function Uses Regs : AC0,AC0,T0,T2,AR0,XAR0,AR1,XAR1,SP,CARRY,TC1,M40,    *
    2951              ;*                        SATA,SATD,RDM,FRCT,SMUL                              *
    2952              ;*   Save On Entry Regs : T2                                                   *
    2953              ;*   Stack Frame        : Compact (No Frame Pointer, w/ debug)                 *
    2954              ;*   Total Frame Size   : 4 words                                              *
    2955              ;*                        (1 return address/alignment)                         *
TMS320C55x Assembler PC v4.4.1 Sun Sep 30 06:35:16 2018

Tools Copyright (c) 1996-2012 Texas Instruments Incorporated
main.asm                                                             PAGE   63

    2956              ;*                        (2 local values)                                     *
    2957              ;*                        (1 register save area)                               *
    2958              ;*   Min System Stack   : 1 word                                               *
    2959              ;*******************************************************************************
    2960 0006a8       _LED_Control:
    2961                      .dwcfi  cfa_offset, 1
    2962                      .dwcfi  save_reg_to_mem, 91, -1
    2963 0006a8 5066          PSH T2
    2964                      .dwcfi  cfa_offset, 2
    2965                      .dwcfi  save_reg_to_mem, 14, -2
    2966 0006aa 4EFE          AADD #-2, SP
    2967                      .dwcfi  cfa_offset, 4
    2968              $C$DW$258       .dwtag  DW_TAG_variable, DW_AT_name("pvParameters")
    2969                      .dwattr $C$DW$258, DW_AT_TI_symbol_name("_pvParameters")
    2970                      .dwattr $C$DW$258, DW_AT_type(*$C$DW$T$3)
    2971                      .dwattr $C$DW$258, DW_AT_location[DW_OP_bregx 0x24 0]
    2972              
    2973 0006ac EB00          MOV XAR0, dbl(*SP(#0))
         0006ae 85   
    2974 0006af 3D16  ||      MOV #1, T2
    2975              
    2976 0006b1       $C$L46:    
    2977 0006b1       $C$DW$L$_LED_Control$2$B:
    2978                      .dwpsn  file "../FreeRTOS/Demo/c5515_CCS/main.c",line 1462,column 6,is_stmt
    2979 0006b1 ED31          MOV dbl(*(#_xSemaphoreBaton)), XAR0
         0006b3 8F00 
         0006b5 0026-
    2980 0006b7 EC31          AMOV #0, XAR1 ; |1462| 
         0006b9 9E00 
         0006bb 0000 
    2981 0006bd 3C00          MOV #0, AC0 ; |1462| 
    2982              $C$DW$259       .dwtag  DW_TAG_TI_branch
    2983                      .dwattr $C$DW$259, DW_AT_low_pc(0x00)
    2984                      .dwattr $C$DW$259, DW_AT_name("_xQueueGenericSend")
    2985                      .dwattr $C$DW$259, DW_AT_TI_call
    2986              
    2987 0006bf 6C00          CALL #_xQueueGenericSend ; |1462| 
         0006c1 0000!
    2988 0006c3 3D04  ||      MOV #0, T0
    2989              
    2990                                                      ; call occurs [#_xQueueGenericSend] ; |1462| 
    2991 0006c5 1240          CMP T0 == T2, TC1 ; |1462| 
         0006c7 60   
    2992 0006c8 63E4          BCC $C$L47,TC1 ; |1462| 
    2993                                                      ; branchcc occurs ; |1462| 
    2994 0006ca       $C$DW$L$_LED_Control$2$E:
    2995 0006ca       $C$DW$L$_LED_Control$3$B:
    2996                      .dwpsn  file "../FreeRTOS/Demo/c5515_CCS/main.c",line 1464,column 7,is_stmt
    2997 0006ca F731          ADD #1, *(#_ctr$8) ; |1464| 
         0006cc 0001 
         0006ce 0000 
         0006d0 2F-  
    2998 0006d1       $C$DW$L$_LED_Control$3$E:
    2999 0006d1       $C$L47:    
    3000 0006d1       $C$DW$L$_LED_Control$4$B:
TMS320C55x Assembler PC v4.4.1 Sun Sep 30 06:35:16 2018

Tools Copyright (c) 1996-2012 Texas Instruments Incorporated
main.asm                                                             PAGE   64

    3001                      .dwpsn  file "../FreeRTOS/Demo/c5515_CCS/main.c",line 1466,column 6,is_stmt
    3002 0006d1 7600          MOV #200, AC0 ; |1466| 
         0006d3 C808 
    3003              $C$DW$260       .dwtag  DW_TAG_TI_branch
    3004                      .dwattr $C$DW$260, DW_AT_low_pc(0x00)
    3005                      .dwattr $C$DW$260, DW_AT_name("_vTaskDelay")
    3006                      .dwattr $C$DW$260, DW_AT_TI_call
    3007 0006d5 6C00          CALL #_vTaskDelay ; |1466| 
         0006d7 0000!
    3008                                                      ; call occurs [#_vTaskDelay] ; |1466| 
    3009                      .dwpsn  file "../FreeRTOS/Demo/c5515_CCS/main.c",line 1467,column 2,is_stmt
    3010 0006d9 4A56          B $C$L46  ; |1467| 
    3011                                                      ; branch occurs ; |1467| 
    3012 0006db       $C$DW$L$_LED_Control$4$E:
    3013                      .dwcfi  cfa_offset, 2
    3014                      .dwcfi  restore_reg, 14
    3015                      .dwcfi  cfa_offset, 1
    3016              
    3017              $C$DW$261       .dwtag  DW_TAG_TI_loop
    3018                      .dwattr $C$DW$261, DW_AT_name("F:\eZdsp_DBG\tmp1\c55x-sim2\foo\Debug\main.asm:$C$L46:1:1538314515")
    3019                      .dwattr $C$DW$261, DW_AT_TI_begin_file("../FreeRTOS/Demo/c5515_CCS/main.c")
    3020                      .dwattr $C$DW$261, DW_AT_TI_begin_line(0x565)
    3021                      .dwattr $C$DW$261, DW_AT_TI_end_line(0x5bb)
    3022              $C$DW$262       .dwtag  DW_TAG_TI_loop_range
    3023                      .dwattr $C$DW$262, DW_AT_low_pc($C$DW$L$_LED_Control$2$B)
    3024                      .dwattr $C$DW$262, DW_AT_high_pc($C$DW$L$_LED_Control$2$E)
    3025              $C$DW$263       .dwtag  DW_TAG_TI_loop_range
    3026                      .dwattr $C$DW$263, DW_AT_low_pc($C$DW$L$_LED_Control$3$B)
    3027                      .dwattr $C$DW$263, DW_AT_high_pc($C$DW$L$_LED_Control$3$E)
    3028              $C$DW$264       .dwtag  DW_TAG_TI_loop_range
    3029                      .dwattr $C$DW$264, DW_AT_low_pc($C$DW$L$_LED_Control$4$B)
    3030                      .dwattr $C$DW$264, DW_AT_high_pc($C$DW$L$_LED_Control$4$E)
    3031                      .dwendtag $C$DW$261
    3032              
    3033                      .dwattr $C$DW$255, DW_AT_TI_end_file("../FreeRTOS/Demo/c5515_CCS/main.c")
    3034                      .dwattr $C$DW$255, DW_AT_TI_end_line(0x5bc)
    3035                      .dwattr $C$DW$255, DW_AT_TI_end_column(0x01)
    3036                      .dwendentry
    3037                      .dwendtag $C$DW$255
    3038              
    3039 0006db               .sect   ".text"
    3040                      .align 4
    3041                      .global _LED_TaskXF2
    3042              
    3043              $C$DW$265       .dwtag  DW_TAG_subprogram, DW_AT_name("LED_TaskXF2")
    3044                      .dwattr $C$DW$265, DW_AT_low_pc(_LED_TaskXF2)
    3045                      .dwattr $C$DW$265, DW_AT_high_pc(0x00)
    3046                      .dwattr $C$DW$265, DW_AT_TI_symbol_name("_LED_TaskXF2")
    3047                      .dwattr $C$DW$265, DW_AT_external
    3048                      .dwattr $C$DW$265, DW_AT_TI_begin_file("../FreeRTOS/Demo/c5515_CCS/main.c")
    3049                      .dwattr $C$DW$265, DW_AT_TI_begin_line(0x5be)
    3050                      .dwattr $C$DW$265, DW_AT_TI_begin_column(0x06)
    3051                      .dwattr $C$DW$265, DW_AT_TI_max_frame_size(0x04)
    3052                      .dwpsn  file "../FreeRTOS/Demo/c5515_CCS/main.c",line 1471,column 1,is_stmt,address _LED_TaskXF2
    3053              
TMS320C55x Assembler PC v4.4.1 Sun Sep 30 06:35:16 2018

Tools Copyright (c) 1996-2012 Texas Instruments Incorporated
main.asm                                                             PAGE   65

    3054                      .dwfde $C$DW$CIE, _LED_TaskXF2
    3055              $C$DW$266       .dwtag  DW_TAG_variable, DW_AT_name("counter")
    3056                      .dwattr $C$DW$266, DW_AT_TI_symbol_name("_counter$9")
    3057                      .dwattr $C$DW$266, DW_AT_type(*$C$DW$T$9)
    3058                      .dwattr $C$DW$266, DW_AT_location[DW_OP_addr _counter$9]
    3059              $C$DW$267       .dwtag  DW_TAG_formal_parameter, DW_AT_name("pvParameters")
    3060                      .dwattr $C$DW$267, DW_AT_TI_symbol_name("_pvParameters")
    3061                      .dwattr $C$DW$267, DW_AT_type(*$C$DW$T$3)
    3062                      .dwattr $C$DW$267, DW_AT_location[DW_OP_reg17]
    3063              ;*******************************************************************************
    3064              ;* FUNCTION NAME: LED_TaskXF2                                                  *
    3065              ;*                                                                             *
    3066              ;*   Function Uses Regs : AC0,AC0,T0,T2,AR0,XAR0,SP,TC1,M40,SATA,SATD,RDM,FRCT,*
    3067              ;*                        SMUL                                                 *
    3068              ;*   Save On Entry Regs : T2                                                   *
    3069              ;*   Stack Frame        : Compact (No Frame Pointer, w/ debug)                 *
    3070              ;*   Total Frame Size   : 4 words                                              *
    3071              ;*                        (1 return address/alignment)                         *
    3072              ;*                        (2 local values)                                     *
    3073              ;*                        (1 register save area)                               *
    3074              ;*   Min System Stack   : 1 word                                               *
    3075              ;*******************************************************************************
    3076 0006dc       _LED_TaskXF2:
    3077                      .dwcfi  cfa_offset, 1
    3078                      .dwcfi  save_reg_to_mem, 91, -1
    3079 0006dc 5066          PSH T2
    3080                      .dwcfi  cfa_offset, 2
    3081                      .dwcfi  save_reg_to_mem, 14, -2
    3082 0006de 4EFE          AADD #-2, SP
    3083                      .dwcfi  cfa_offset, 4
    3084              $C$DW$268       .dwtag  DW_TAG_variable, DW_AT_name("pvParameters")
    3085                      .dwattr $C$DW$268, DW_AT_TI_symbol_name("_pvParameters")
    3086                      .dwattr $C$DW$268, DW_AT_type(*$C$DW$T$3)
    3087                      .dwattr $C$DW$268, DW_AT_location[DW_OP_bregx 0x24 0]
    3088              
    3089 0006e0 EB00          MOV XAR0, dbl(*SP(#0))
         0006e2 85   
    3090 0006e3 3D16  ||      MOV #1, T2
    3091              
    3092 0006e5       $C$L48:    
    3093 0006e5       $C$DW$L$_LED_TaskXF2$2$B:
    3094                      .dwpsn  file "../FreeRTOS/Demo/c5515_CCS/main.c",line 1488,column 2,is_stmt
    3095 0006e5 ED31          MOV dbl(*(#_xSemaphoreXF)), XAR0
         0006e7 8F00 
         0006e9 0024-
    3096 0006eb 7600          MOV #250, AC0 ; |1488| 
         0006ed FA08 
    3097              $C$DW$269       .dwtag  DW_TAG_TI_branch
    3098                      .dwattr $C$DW$269, DW_AT_low_pc(0x00)
    3099                      .dwattr $C$DW$269, DW_AT_name("_xQueueSemaphoreTake")
    3100                      .dwattr $C$DW$269, DW_AT_TI_call
    3101 0006ef 6C00          CALL #_xQueueSemaphoreTake ; |1488| 
         0006f1 0000!
    3102                                                      ; call occurs [#_xQueueSemaphoreTake] ; |1488| 
    3103 0006f3 124C          CMP T0 != T2, TC1 ; |1488| 
TMS320C55x Assembler PC v4.4.1 Sun Sep 30 06:35:16 2018

Tools Copyright (c) 1996-2012 Texas Instruments Incorporated
main.asm                                                             PAGE   66

         0006f5 60   
    3104 0006f6 6264          BCC $C$L49,TC1 ; |1488| 
    3105                                                      ; branchcc occurs ; |1488| 
    3106 0006f8       $C$DW$L$_LED_TaskXF2$2$E:
    3107 0006f8       $C$DW$L$_LED_TaskXF2$3$B:
    3108                      .dwpsn  file "../FreeRTOS/Demo/c5515_CCS/main.c",line 1503,column 2,is_stmt
    3109              $C$DW$270       .dwtag  DW_TAG_TI_branch
    3110                      .dwattr $C$DW$270, DW_AT_low_pc(0x00)
    3111                      .dwattr $C$DW$270, DW_AT_name("_EZDSP5535_XF_toggle")
    3112                      .dwattr $C$DW$270, DW_AT_TI_call
    3113 0006f8 6C00          CALL #_EZDSP5535_XF_toggle ; |1503| 
         0006fa 0000!
    3114                                                      ; call occurs [#_EZDSP5535_XF_toggle] ; |1503| 
    3115 0006fc       $C$DW$L$_LED_TaskXF2$3$E:
    3116 0006fc       $C$L49:    
    3117 0006fc       $C$DW$L$_LED_TaskXF2$4$B:
    3118                      .dwpsn  file "../FreeRTOS/Demo/c5515_CCS/main.c",line 1517,column 3,is_stmt
    3119 0006fc 7600          MOV #200, AC0 ; |1517| 
         0006fe C808 
    3120              $C$DW$271       .dwtag  DW_TAG_TI_branch
    3121                      .dwattr $C$DW$271, DW_AT_low_pc(0x00)
    3122                      .dwattr $C$DW$271, DW_AT_name("_vTaskDelay")
    3123                      .dwattr $C$DW$271, DW_AT_TI_call
    3124 000700 6C00          CALL #_vTaskDelay ; |1517| 
         000702 0000!
    3125                                                      ; call occurs [#_vTaskDelay] ; |1517| 
    3126                      .dwpsn  file "../FreeRTOS/Demo/c5515_CCS/main.c",line 1518,column 2,is_stmt
    3127 000704 4A5F          B $C$L48  ; |1518| 
    3128                                                      ; branch occurs ; |1518| 
    3129 000706       $C$DW$L$_LED_TaskXF2$4$E:
    3130                      .dwcfi  cfa_offset, 2
    3131                      .dwcfi  restore_reg, 14
    3132                      .dwcfi  cfa_offset, 1
    3133              
    3134              $C$DW$272       .dwtag  DW_TAG_TI_loop
    3135                      .dwattr $C$DW$272, DW_AT_name("F:\eZdsp_DBG\tmp1\c55x-sim2\foo\Debug\main.asm:$C$L48:1:1538314515")
    3136                      .dwattr $C$DW$272, DW_AT_TI_begin_file("../FreeRTOS/Demo/c5515_CCS/main.c")
    3137                      .dwattr $C$DW$272, DW_AT_TI_begin_line(0x5cc)
    3138                      .dwattr $C$DW$272, DW_AT_TI_end_line(0x5ee)
    3139              $C$DW$273       .dwtag  DW_TAG_TI_loop_range
    3140                      .dwattr $C$DW$273, DW_AT_low_pc($C$DW$L$_LED_TaskXF2$2$B)
    3141                      .dwattr $C$DW$273, DW_AT_high_pc($C$DW$L$_LED_TaskXF2$2$E)
    3142              $C$DW$274       .dwtag  DW_TAG_TI_loop_range
    3143                      .dwattr $C$DW$274, DW_AT_low_pc($C$DW$L$_LED_TaskXF2$3$B)
    3144                      .dwattr $C$DW$274, DW_AT_high_pc($C$DW$L$_LED_TaskXF2$3$E)
    3145              $C$DW$275       .dwtag  DW_TAG_TI_loop_range
    3146                      .dwattr $C$DW$275, DW_AT_low_pc($C$DW$L$_LED_TaskXF2$4$B)
    3147                      .dwattr $C$DW$275, DW_AT_high_pc($C$DW$L$_LED_TaskXF2$4$E)
    3148                      .dwendtag $C$DW$272
    3149              
    3150                      .dwattr $C$DW$265, DW_AT_TI_end_file("../FreeRTOS/Demo/c5515_CCS/main.c")
    3151                      .dwattr $C$DW$265, DW_AT_TI_end_line(0x5ef)
    3152                      .dwattr $C$DW$265, DW_AT_TI_end_column(0x01)
    3153                      .dwendentry
    3154                      .dwendtag $C$DW$265
TMS320C55x Assembler PC v4.4.1 Sun Sep 30 06:35:16 2018

Tools Copyright (c) 1996-2012 Texas Instruments Incorporated
main.asm                                                             PAGE   67

    3155              
    3156 000706               .sect   ".text"
    3157                      .align 4
    3158                      .global _StartUpTask
    3159              
    3160              $C$DW$276       .dwtag  DW_TAG_subprogram, DW_AT_name("StartUpTask")
    3161                      .dwattr $C$DW$276, DW_AT_low_pc(_StartUpTask)
    3162                      .dwattr $C$DW$276, DW_AT_high_pc(0x00)
    3163                      .dwattr $C$DW$276, DW_AT_TI_symbol_name("_StartUpTask")
    3164                      .dwattr $C$DW$276, DW_AT_external
    3165                      .dwattr $C$DW$276, DW_AT_TI_begin_file("../FreeRTOS/Demo/c5515_CCS/main.c")
    3166                      .dwattr $C$DW$276, DW_AT_TI_begin_line(0x5f1)
    3167                      .dwattr $C$DW$276, DW_AT_TI_begin_column(0x06)
    3168                      .dwattr $C$DW$276, DW_AT_TI_max_frame_size(0x04)
    3169                      .dwpsn  file "../FreeRTOS/Demo/c5515_CCS/main.c",line 1522,column 1,is_stmt,address _StartUpTask
    3170              
    3171                      .dwfde $C$DW$CIE, _StartUpTask
    3172              $C$DW$277       .dwtag  DW_TAG_variable, DW_AT_name("ctr")
    3173                      .dwattr $C$DW$277, DW_AT_TI_symbol_name("_ctr$10")
    3174                      .dwattr $C$DW$277, DW_AT_type(*$C$DW$T$9)
    3175                      .dwattr $C$DW$277, DW_AT_location[DW_OP_addr _ctr$10]
    3176              $C$DW$278       .dwtag  DW_TAG_formal_parameter, DW_AT_name("pvParameters")
    3177                      .dwattr $C$DW$278, DW_AT_TI_symbol_name("_pvParameters")
    3178                      .dwattr $C$DW$278, DW_AT_type(*$C$DW$T$3)
    3179                      .dwattr $C$DW$278, DW_AT_location[DW_OP_reg17]
    3180              ;*******************************************************************************
    3181              ;* FUNCTION NAME: StartUpTask                                                  *
    3182              ;*                                                                             *
    3183              ;*   Function Uses Regs : AC0,AC0,AR0,XAR0,SP,M40,SATA,SATD,RDM,FRCT,SMUL      *
    3184              ;*   Stack Frame        : Compact (No Frame Pointer, w/ debug)                 *
    3185              ;*   Total Frame Size   : 4 words                                              *
    3186              ;*                        (2 return address/alignment)                         *
    3187              ;*                        (2 local values)                                     *
    3188              ;*   Min System Stack   : 1 word                                               *
    3189              ;*******************************************************************************
    3190 000708       _StartUpTask:
    3191                      .dwcfi  cfa_offset, 1
    3192                      .dwcfi  save_reg_to_mem, 91, -1
    3193 000708 4EFD          AADD #-3, SP
    3194                      .dwcfi  cfa_offset, 4
    3195              $C$DW$279       .dwtag  DW_TAG_variable, DW_AT_name("pvParameters")
    3196                      .dwattr $C$DW$279, DW_AT_TI_symbol_name("_pvParameters")
    3197                      .dwattr $C$DW$279, DW_AT_type(*$C$DW$T$3)
    3198                      .dwattr $C$DW$279, DW_AT_location[DW_OP_bregx 0x24 0]
    3199 00070a EB00          MOV XAR0, dbl(*SP(#0))
         00070c 85   
    3200 00070d       $C$L50:    
    3201 00070d       $C$DW$L$_StartUpTask$2$B:
    3202                      .dwpsn  file "../FreeRTOS/Demo/c5515_CCS/main.c",line 1562,column 3,is_stmt
    3203 00070d ED31          MOV dbl(*(#_blueTaskHandle)), XAR0
         00070f 8F00 
         000711 0006-
    3204              $C$DW$280       .dwtag  DW_TAG_TI_branch
    3205                      .dwattr $C$DW$280, DW_AT_low_pc(0x00)
    3206                      .dwattr $C$DW$280, DW_AT_name("_vTaskResume")
TMS320C55x Assembler PC v4.4.1 Sun Sep 30 06:35:16 2018

Tools Copyright (c) 1996-2012 Texas Instruments Incorporated
main.asm                                                             PAGE   68

    3207                      .dwattr $C$DW$280, DW_AT_TI_call
    3208 000713 6C00          CALL #_vTaskResume ; |1562| 
         000715 0000!
    3209                                                      ; call occurs [#_vTaskResume] ; |1562| 
    3210                      .dwpsn  file "../FreeRTOS/Demo/c5515_CCS/main.c",line 1563,column 3,is_stmt
    3211 000717 ED31          MOV dbl(*(#_TestTask1Handle)), XAR0
         000719 8F00 
         00071b 0014-
    3212              $C$DW$281       .dwtag  DW_TAG_TI_branch
    3213                      .dwattr $C$DW$281, DW_AT_low_pc(0x00)
    3214                      .dwattr $C$DW$281, DW_AT_name("_vTaskResume")
    3215                      .dwattr $C$DW$281, DW_AT_TI_call
    3216 00071d 6C00          CALL #_vTaskResume ; |1563| 
         00071f 0000!
    3217                                                      ; call occurs [#_vTaskResume] ; |1563| 
    3218                      .dwpsn  file "../FreeRTOS/Demo/c5515_CCS/main.c",line 1570,column 6,is_stmt
    3219 000721 7600          MOV #100, AC0 ; |1570| 
         000723 6408 
    3220              $C$DW$282       .dwtag  DW_TAG_TI_branch
    3221                      .dwattr $C$DW$282, DW_AT_low_pc(0x00)
    3222                      .dwattr $C$DW$282, DW_AT_name("_vTaskDelay")
    3223                      .dwattr $C$DW$282, DW_AT_TI_call
    3224 000725 6C00          CALL #_vTaskDelay ; |1570| 
         000727 0000!
    3225                                                      ; call occurs [#_vTaskDelay] ; |1570| 
    3226                      .dwpsn  file "../FreeRTOS/Demo/c5515_CCS/main.c",line 1571,column 6,is_stmt
    3227 000729 ED31          MOV dbl(*(#_greenTaskHandle)), XAR0
         00072b 8F00 
         00072d 000A-
    3228              $C$DW$283       .dwtag  DW_TAG_TI_branch
    3229                      .dwattr $C$DW$283, DW_AT_low_pc(0x00)
    3230                      .dwattr $C$DW$283, DW_AT_name("_vTaskResume")
    3231                      .dwattr $C$DW$283, DW_AT_TI_call
    3232 00072f 6C00          CALL #_vTaskResume ; |1571| 
         000731 0000!
    3233                                                      ; call occurs [#_vTaskResume] ; |1571| 
    3234                      .dwpsn  file "../FreeRTOS/Demo/c5515_CCS/main.c",line 1579,column 9,is_stmt
    3235 000733 ED31          MOV dbl(*(#_controlTaskHandle)), XAR0
         000735 8F00 
         000737 0010-
    3236              $C$DW$284       .dwtag  DW_TAG_TI_branch
    3237                      .dwattr $C$DW$284, DW_AT_low_pc(0x00)
    3238                      .dwattr $C$DW$284, DW_AT_name("_vTaskResume")
    3239                      .dwattr $C$DW$284, DW_AT_TI_call
    3240 000739 6C00          CALL #_vTaskResume ; |1579| 
         00073b 0000!
    3241                                                      ; call occurs [#_vTaskResume] ; |1579| 
    3242                      .dwpsn  file "../FreeRTOS/Demo/c5515_CCS/main.c",line 1588,column 9,is_stmt
    3243 00073d 7600          MOV #100, AC0 ; |1588| 
         00073f 6408 
    3244              $C$DW$285       .dwtag  DW_TAG_TI_branch
    3245                      .dwattr $C$DW$285, DW_AT_low_pc(0x00)
    3246                      .dwattr $C$DW$285, DW_AT_name("_vTaskDelay")
    3247                      .dwattr $C$DW$285, DW_AT_TI_call
    3248 000741 6C00          CALL #_vTaskDelay ; |1588| 
TMS320C55x Assembler PC v4.4.1 Sun Sep 30 06:35:16 2018

Tools Copyright (c) 1996-2012 Texas Instruments Incorporated
main.asm                                                             PAGE   69

         000743 0000!
    3249                                                      ; call occurs [#_vTaskDelay] ; |1588| 
    3250                      .dwpsn  file "../FreeRTOS/Demo/c5515_CCS/main.c",line 1593,column 6,is_stmt
    3251 000745 EC31          AMOV #0, XAR0 ; |1593| 
         000747 8E00 
         000749 0000 
    3252              $C$DW$286       .dwtag  DW_TAG_TI_branch
    3253                      .dwattr $C$DW$286, DW_AT_low_pc(0x00)
    3254                      .dwattr $C$DW$286, DW_AT_name("_vTaskSuspend")
    3255                      .dwattr $C$DW$286, DW_AT_TI_call
    3256 00074b 6C00          CALL #_vTaskSuspend ; |1593| 
         00074d 0000!
    3257                                                      ; call occurs [#_vTaskSuspend] ; |1593| 
    3258                      .dwpsn  file "../FreeRTOS/Demo/c5515_CCS/main.c",line 1604,column 9,is_stmt
    3259 00074f 7607          MOV #2000, AC0 ; |1604| 
         000751 D008 
    3260              $C$DW$287       .dwtag  DW_TAG_TI_branch
    3261                      .dwattr $C$DW$287, DW_AT_low_pc(0x00)
    3262                      .dwattr $C$DW$287, DW_AT_name("_vTaskDelay")
    3263                      .dwattr $C$DW$287, DW_AT_TI_call
    3264 000753 6C00          CALL #_vTaskDelay ; |1604| 
         000755 0000!
    3265                                                      ; call occurs [#_vTaskDelay] ; |1604| 
    3266                      .dwpsn  file "../FreeRTOS/Demo/c5515_CCS/main.c",line 1605,column 2,is_stmt
    3267 000757 06FF          B $C$L50  ; |1605| 
         000759 B3   
    3268                                                      ; branch occurs ; |1605| 
    3269 00075a       $C$DW$L$_StartUpTask$2$E:
    3270                      .dwcfi  cfa_offset, 1
    3271              
    3272              $C$DW$288       .dwtag  DW_TAG_TI_loop
    3273                      .dwattr $C$DW$288, DW_AT_name("F:\eZdsp_DBG\tmp1\c55x-sim2\foo\Debug\main.asm:$C$L50:1:1538314515")
    3274                      .dwattr $C$DW$288, DW_AT_TI_begin_file("../FreeRTOS/Demo/c5515_CCS/main.c")
    3275                      .dwattr $C$DW$288, DW_AT_TI_begin_line(0x605)
    3276                      .dwattr $C$DW$288, DW_AT_TI_end_line(0x645)
    3277              $C$DW$289       .dwtag  DW_TAG_TI_loop_range
    3278                      .dwattr $C$DW$289, DW_AT_low_pc($C$DW$L$_StartUpTask$2$B)
    3279                      .dwattr $C$DW$289, DW_AT_high_pc($C$DW$L$_StartUpTask$2$E)
    3280                      .dwendtag $C$DW$288
    3281              
    3282                      .dwattr $C$DW$276, DW_AT_TI_end_file("../FreeRTOS/Demo/c5515_CCS/main.c")
    3283                      .dwattr $C$DW$276, DW_AT_TI_end_line(0x647)
    3284                      .dwattr $C$DW$276, DW_AT_TI_end_column(0x01)
    3285                      .dwendentry
    3286                      .dwendtag $C$DW$276
    3287              
    3288 00075a               .sect   ".text"
    3289                      .align 4
    3290                      .global _TestTask1
    3291              
    3292              $C$DW$290       .dwtag  DW_TAG_subprogram, DW_AT_name("TestTask1")
    3293                      .dwattr $C$DW$290, DW_AT_low_pc(_TestTask1)
    3294                      .dwattr $C$DW$290, DW_AT_high_pc(0x00)
    3295                      .dwattr $C$DW$290, DW_AT_TI_symbol_name("_TestTask1")
    3296                      .dwattr $C$DW$290, DW_AT_external
TMS320C55x Assembler PC v4.4.1 Sun Sep 30 06:35:16 2018

Tools Copyright (c) 1996-2012 Texas Instruments Incorporated
main.asm                                                             PAGE   70

    3297                      .dwattr $C$DW$290, DW_AT_TI_begin_file("../FreeRTOS/Demo/c5515_CCS/main.c")
    3298                      .dwattr $C$DW$290, DW_AT_TI_begin_line(0x649)
    3299                      .dwattr $C$DW$290, DW_AT_TI_begin_column(0x06)
    3300                      .dwattr $C$DW$290, DW_AT_TI_max_frame_size(0x04)
    3301                      .dwpsn  file "../FreeRTOS/Demo/c5515_CCS/main.c",line 1610,column 1,is_stmt,address _TestTask1
    3302              
    3303                      .dwfde $C$DW$CIE, _TestTask1
    3304              $C$DW$291       .dwtag  DW_TAG_variable, DW_AT_name("ctr")
    3305                      .dwattr $C$DW$291, DW_AT_TI_symbol_name("_ctr$11")
    3306                      .dwattr $C$DW$291, DW_AT_type(*$C$DW$T$9)
    3307                      .dwattr $C$DW$291, DW_AT_location[DW_OP_addr _ctr$11]
    3308              $C$DW$292       .dwtag  DW_TAG_formal_parameter, DW_AT_name("pvParameters")
    3309                      .dwattr $C$DW$292, DW_AT_TI_symbol_name("_pvParameters")
    3310                      .dwattr $C$DW$292, DW_AT_type(*$C$DW$T$3)
    3311                      .dwattr $C$DW$292, DW_AT_location[DW_OP_reg17]
    3312              ;*******************************************************************************
    3313              ;* FUNCTION NAME: TestTask1                                                    *
    3314              ;*                                                                             *
    3315              ;*   Function Uses Regs : AC0,AC0,T0,T2,AR0,XAR0,AR1,XAR1,SP,CARRY,TC1,M40,    *
    3316              ;*                        SATA,SATD,RDM,FRCT,SMUL                              *
    3317              ;*   Save On Entry Regs : T2                                                   *
    3318              ;*   Stack Frame        : Compact (No Frame Pointer, w/ debug)                 *
    3319              ;*   Total Frame Size   : 4 words                                              *
    3320              ;*                        (1 return address/alignment)                         *
    3321              ;*                        (2 local values)                                     *
    3322              ;*                        (1 register save area)                               *
    3323              ;*   Min System Stack   : 1 word                                               *
    3324              ;*******************************************************************************
    3325 00075c       _TestTask1:
    3326                      .dwcfi  cfa_offset, 1
    3327                      .dwcfi  save_reg_to_mem, 91, -1
    3328 00075c 5066          PSH T2
    3329                      .dwcfi  cfa_offset, 2
    3330                      .dwcfi  save_reg_to_mem, 14, -2
    3331 00075e 4EFE          AADD #-2, SP
    3332                      .dwcfi  cfa_offset, 4
    3333              $C$DW$293       .dwtag  DW_TAG_variable, DW_AT_name("pvParameters")
    3334                      .dwattr $C$DW$293, DW_AT_TI_symbol_name("_pvParameters")
    3335                      .dwattr $C$DW$293, DW_AT_type(*$C$DW$T$3)
    3336                      .dwattr $C$DW$293, DW_AT_location[DW_OP_bregx 0x24 0]
    3337              
    3338 000760 EB00          MOV XAR0, dbl(*SP(#0))
         000762 85   
    3339 000763 3D16  ||      MOV #1, T2
    3340              
    3341 000765       $C$L51:    
    3342 000765       $C$DW$L$_TestTask1$2$B:
    3343                      .dwpsn  file "../FreeRTOS/Demo/c5515_CCS/main.c",line 1617,column 17,is_stmt
    3344 000765 ED31          MOV dbl(*(#_xSemaphoreB)), XAR0
         000767 8F00 
         000769 001E-
    3345 00076b EC31          AMOV #0, XAR1 ; |1617| 
         00076d 9E00 
         00076f 0000 
    3346 000771 3C00          MOV #0, AC0 ; |1617| 
TMS320C55x Assembler PC v4.4.1 Sun Sep 30 06:35:16 2018

Tools Copyright (c) 1996-2012 Texas Instruments Incorporated
main.asm                                                             PAGE   71

    3347              $C$DW$294       .dwtag  DW_TAG_TI_branch
    3348                      .dwattr $C$DW$294, DW_AT_low_pc(0x00)
    3349                      .dwattr $C$DW$294, DW_AT_name("_xQueueGenericSend")
    3350                      .dwattr $C$DW$294, DW_AT_TI_call
    3351              
    3352 000773 6C00          CALL #_xQueueGenericSend ; |1617| 
         000775 0000!
    3353 000777 3D04  ||      MOV #0, T0
    3354              
    3355                                                      ; call occurs [#_xQueueGenericSend] ; |1617| 
    3356 000779 1240          CMP T0 == T2, TC1 ; |1617| 
         00077b 60   
    3357 00077c 63E4          BCC $C$L52,TC1 ; |1617| 
    3358                                                      ; branchcc occurs ; |1617| 
    3359 00077e       $C$DW$L$_TestTask1$2$E:
    3360 00077e       $C$DW$L$_TestTask1$3$B:
    3361                      .dwpsn  file "../FreeRTOS/Demo/c5515_CCS/main.c",line 1619,column 25,is_stmt
    3362 00077e F731          ADD #1, *(#_ctr$11) ; |1619| 
         000780 0001 
         000782 0000 
         000784 32-  
    3363 000785       $C$DW$L$_TestTask1$3$E:
    3364 000785       $C$L52:    
    3365 000785       $C$DW$L$_TestTask1$4$B:
    3366                      .dwpsn  file "../FreeRTOS/Demo/c5515_CCS/main.c",line 1622,column 9,is_stmt
    3367 000785 7601          MOV #500, AC0 ; |1622| 
         000787 F408 
    3368              $C$DW$295       .dwtag  DW_TAG_TI_branch
    3369                      .dwattr $C$DW$295, DW_AT_low_pc(0x00)
    3370                      .dwattr $C$DW$295, DW_AT_name("_vTaskDelay")
    3371                      .dwattr $C$DW$295, DW_AT_TI_call
    3372 000789 6C00          CALL #_vTaskDelay ; |1622| 
         00078b 0000!
    3373                                                      ; call occurs [#_vTaskDelay] ; |1622| 
    3374                      .dwpsn  file "../FreeRTOS/Demo/c5515_CCS/main.c",line 1623,column 5,is_stmt
    3375 00078d 4A56          B $C$L51  ; |1623| 
    3376                                                      ; branch occurs ; |1623| 
    3377 00078f       $C$DW$L$_TestTask1$4$E:
    3378                      .dwcfi  cfa_offset, 2
    3379                      .dwcfi  restore_reg, 14
    3380                      .dwcfi  cfa_offset, 1
    3381              
    3382              $C$DW$296       .dwtag  DW_TAG_TI_loop
    3383                      .dwattr $C$DW$296, DW_AT_name("F:\eZdsp_DBG\tmp1\c55x-sim2\foo\Debug\main.asm:$C$L51:1:1538314515")
    3384                      .dwattr $C$DW$296, DW_AT_TI_begin_file("../FreeRTOS/Demo/c5515_CCS/main.c")
    3385                      .dwattr $C$DW$296, DW_AT_TI_begin_line(0x64e)
    3386                      .dwattr $C$DW$296, DW_AT_TI_end_line(0x657)
    3387              $C$DW$297       .dwtag  DW_TAG_TI_loop_range
    3388                      .dwattr $C$DW$297, DW_AT_low_pc($C$DW$L$_TestTask1$2$B)
    3389                      .dwattr $C$DW$297, DW_AT_high_pc($C$DW$L$_TestTask1$2$E)
    3390              $C$DW$298       .dwtag  DW_TAG_TI_loop_range
    3391                      .dwattr $C$DW$298, DW_AT_low_pc($C$DW$L$_TestTask1$3$B)
    3392                      .dwattr $C$DW$298, DW_AT_high_pc($C$DW$L$_TestTask1$3$E)
    3393              $C$DW$299       .dwtag  DW_TAG_TI_loop_range
    3394                      .dwattr $C$DW$299, DW_AT_low_pc($C$DW$L$_TestTask1$4$B)
TMS320C55x Assembler PC v4.4.1 Sun Sep 30 06:35:16 2018

Tools Copyright (c) 1996-2012 Texas Instruments Incorporated
main.asm                                                             PAGE   72

    3395                      .dwattr $C$DW$299, DW_AT_high_pc($C$DW$L$_TestTask1$4$E)
    3396                      .dwendtag $C$DW$296
    3397              
    3398                      .dwattr $C$DW$290, DW_AT_TI_end_file("../FreeRTOS/Demo/c5515_CCS/main.c")
    3399                      .dwattr $C$DW$290, DW_AT_TI_end_line(0x659)
    3400                      .dwattr $C$DW$290, DW_AT_TI_end_column(0x01)
    3401                      .dwendentry
    3402                      .dwendtag $C$DW$290
    3403              
    3404 00078f               .sect   ".text"
    3405                      .align 4
    3406                      .global _TestTask2
    3407              
    3408              $C$DW$300       .dwtag  DW_TAG_subprogram, DW_AT_name("TestTask2")
    3409                      .dwattr $C$DW$300, DW_AT_low_pc(_TestTask2)
    3410                      .dwattr $C$DW$300, DW_AT_high_pc(0x00)
    3411                      .dwattr $C$DW$300, DW_AT_TI_symbol_name("_TestTask2")
    3412                      .dwattr $C$DW$300, DW_AT_external
    3413                      .dwattr $C$DW$300, DW_AT_TI_begin_file("../FreeRTOS/Demo/c5515_CCS/main.c")
    3414                      .dwattr $C$DW$300, DW_AT_TI_begin_line(0x65a)
    3415                      .dwattr $C$DW$300, DW_AT_TI_begin_column(0x06)
    3416                      .dwattr $C$DW$300, DW_AT_TI_max_frame_size(0x04)
    3417                      .dwpsn  file "../FreeRTOS/Demo/c5515_CCS/main.c",line 1627,column 1,is_stmt,address _TestTask2
    3418              
    3419                      .dwfde $C$DW$CIE, _TestTask2
    3420              $C$DW$301       .dwtag  DW_TAG_variable, DW_AT_name("ctr")
    3421                      .dwattr $C$DW$301, DW_AT_TI_symbol_name("_ctr$12")
    3422                      .dwattr $C$DW$301, DW_AT_type(*$C$DW$T$9)
    3423                      .dwattr $C$DW$301, DW_AT_location[DW_OP_addr _ctr$12]
    3424              $C$DW$302       .dwtag  DW_TAG_formal_parameter, DW_AT_name("pvParameters")
    3425                      .dwattr $C$DW$302, DW_AT_TI_symbol_name("_pvParameters")
    3426                      .dwattr $C$DW$302, DW_AT_type(*$C$DW$T$3)
    3427                      .dwattr $C$DW$302, DW_AT_location[DW_OP_reg17]
    3428              ;*******************************************************************************
    3429              ;* FUNCTION NAME: TestTask2                                                    *
    3430              ;*                                                                             *
    3431              ;*   Function Uses Regs : AC0,AC0,T0,T2,AR0,XAR0,AR1,XAR1,SP,CARRY,TC1,M40,    *
    3432              ;*                        SATA,SATD,RDM,FRCT,SMUL                              *
    3433              ;*   Save On Entry Regs : T2                                                   *
    3434              ;*   Stack Frame        : Compact (No Frame Pointer, w/ debug)                 *
    3435              ;*   Total Frame Size   : 4 words                                              *
    3436              ;*                        (1 return address/alignment)                         *
    3437              ;*                        (2 local values)                                     *
    3438              ;*                        (1 register save area)                               *
    3439              ;*   Min System Stack   : 1 word                                               *
    3440              ;*******************************************************************************
    3441 000790       _TestTask2:
    3442                      .dwcfi  cfa_offset, 1
    3443                      .dwcfi  save_reg_to_mem, 91, -1
    3444 000790 5066          PSH T2
    3445                      .dwcfi  cfa_offset, 2
    3446                      .dwcfi  save_reg_to_mem, 14, -2
    3447 000792 4EFE          AADD #-2, SP
    3448                      .dwcfi  cfa_offset, 4
    3449              $C$DW$303       .dwtag  DW_TAG_variable, DW_AT_name("pvParameters")
TMS320C55x Assembler PC v4.4.1 Sun Sep 30 06:35:16 2018

Tools Copyright (c) 1996-2012 Texas Instruments Incorporated
main.asm                                                             PAGE   73

    3450                      .dwattr $C$DW$303, DW_AT_TI_symbol_name("_pvParameters")
    3451                      .dwattr $C$DW$303, DW_AT_type(*$C$DW$T$3)
    3452                      .dwattr $C$DW$303, DW_AT_location[DW_OP_bregx 0x24 0]
    3453              
    3454 000794 EB00          MOV XAR0, dbl(*SP(#0))
         000796 85   
    3455 000797 3D16  ||      MOV #1, T2
    3456              
    3457 000799       $C$L53:    
    3458 000799       $C$DW$L$_TestTask2$2$B:
    3459                      .dwpsn  file "../FreeRTOS/Demo/c5515_CCS/main.c",line 1636,column 1,is_stmt
    3460 000799 ED31          MOV dbl(*(#_xSemaphoreXF)), XAR0
         00079b 8F00 
         00079d 0024-
    3461 00079f EC31          AMOV #0, XAR1 ; |1636| 
         0007a1 9E00 
         0007a3 0000 
    3462 0007a5 3C00          MOV #0, AC0 ; |1636| 
    3463              $C$DW$304       .dwtag  DW_TAG_TI_branch
    3464                      .dwattr $C$DW$304, DW_AT_low_pc(0x00)
    3465                      .dwattr $C$DW$304, DW_AT_name("_xQueueGenericSend")
    3466                      .dwattr $C$DW$304, DW_AT_TI_call
    3467              
    3468 0007a7 6C00          CALL #_xQueueGenericSend ; |1636| 
         0007a9 0000!
    3469 0007ab 3D04  ||      MOV #0, T0
    3470              
    3471                                                      ; call occurs [#_xQueueGenericSend] ; |1636| 
    3472 0007ad 1240          CMP T0 == T2, TC1 ; |1636| 
         0007af 60   
    3473 0007b0 63E4          BCC $C$L54,TC1 ; |1636| 
    3474                                                      ; branchcc occurs ; |1636| 
    3475 0007b2       $C$DW$L$_TestTask2$2$E:
    3476 0007b2       $C$DW$L$_TestTask2$3$B:
    3477                      .dwpsn  file "../FreeRTOS/Demo/c5515_CCS/main.c",line 1638,column 12,is_stmt
    3478 0007b2 F731          ADD #1, *(#_ctr$12) ; |1638| 
         0007b4 0001 
         0007b6 0000 
         0007b8 33-  
    3479 0007b9       $C$DW$L$_TestTask2$3$E:
    3480 0007b9       $C$L54:    
    3481 0007b9       $C$DW$L$_TestTask2$4$B:
    3482                      .dwpsn  file "../FreeRTOS/Demo/c5515_CCS/main.c",line 1643,column 1,is_stmt
    3483 0007b9 7600          MOV #20, AC0 ; |1643| 
         0007bb 1408 
    3484              $C$DW$305       .dwtag  DW_TAG_TI_branch
    3485                      .dwattr $C$DW$305, DW_AT_low_pc(0x00)
    3486                      .dwattr $C$DW$305, DW_AT_name("_vTaskDelay")
    3487                      .dwattr $C$DW$305, DW_AT_TI_call
    3488 0007bd 6C00          CALL #_vTaskDelay ; |1643| 
         0007bf 0000!
    3489                                                      ; call occurs [#_vTaskDelay] ; |1643| 
    3490                      .dwpsn  file "../FreeRTOS/Demo/c5515_CCS/main.c",line 1645,column 5,is_stmt
    3491 0007c1 4A56          B $C$L53  ; |1645| 
    3492                                                      ; branch occurs ; |1645| 
TMS320C55x Assembler PC v4.4.1 Sun Sep 30 06:35:16 2018

Tools Copyright (c) 1996-2012 Texas Instruments Incorporated
main.asm                                                             PAGE   74

    3493 0007c3       $C$DW$L$_TestTask2$4$E:
    3494                      .dwcfi  cfa_offset, 2
    3495                      .dwcfi  restore_reg, 14
    3496                      .dwcfi  cfa_offset, 1
    3497              
    3498              $C$DW$306       .dwtag  DW_TAG_TI_loop
    3499                      .dwattr $C$DW$306, DW_AT_name("F:\eZdsp_DBG\tmp1\c55x-sim2\foo\Debug\main.asm:$C$L53:1:1538314515")
    3500                      .dwattr $C$DW$306, DW_AT_TI_begin_file("../FreeRTOS/Demo/c5515_CCS/main.c")
    3501                      .dwattr $C$DW$306, DW_AT_TI_begin_line(0x65f)
    3502                      .dwattr $C$DW$306, DW_AT_TI_end_line(0x66d)
    3503              $C$DW$307       .dwtag  DW_TAG_TI_loop_range
    3504                      .dwattr $C$DW$307, DW_AT_low_pc($C$DW$L$_TestTask2$2$B)
    3505                      .dwattr $C$DW$307, DW_AT_high_pc($C$DW$L$_TestTask2$2$E)
    3506              $C$DW$308       .dwtag  DW_TAG_TI_loop_range
    3507                      .dwattr $C$DW$308, DW_AT_low_pc($C$DW$L$_TestTask2$3$B)
    3508                      .dwattr $C$DW$308, DW_AT_high_pc($C$DW$L$_TestTask2$3$E)
    3509              $C$DW$309       .dwtag  DW_TAG_TI_loop_range
    3510                      .dwattr $C$DW$309, DW_AT_low_pc($C$DW$L$_TestTask2$4$B)
    3511                      .dwattr $C$DW$309, DW_AT_high_pc($C$DW$L$_TestTask2$4$E)
    3512                      .dwendtag $C$DW$306
    3513              
    3514                      .dwattr $C$DW$300, DW_AT_TI_end_file("../FreeRTOS/Demo/c5515_CCS/main.c")
    3515                      .dwattr $C$DW$300, DW_AT_TI_end_line(0x66e)
    3516                      .dwattr $C$DW$300, DW_AT_TI_end_column(0x01)
    3517                      .dwendentry
    3518                      .dwendtag $C$DW$300
    3519              
    3520 0007c3               .sect   ".text"
    3521                      .align 4
    3522                      .global _TestTask3
    3523              
    3524              $C$DW$310       .dwtag  DW_TAG_subprogram, DW_AT_name("TestTask3")
    3525                      .dwattr $C$DW$310, DW_AT_low_pc(_TestTask3)
    3526                      .dwattr $C$DW$310, DW_AT_high_pc(0x00)
    3527                      .dwattr $C$DW$310, DW_AT_TI_symbol_name("_TestTask3")
    3528                      .dwattr $C$DW$310, DW_AT_external
    3529                      .dwattr $C$DW$310, DW_AT_TI_begin_file("../FreeRTOS/Demo/c5515_CCS/main.c")
    3530                      .dwattr $C$DW$310, DW_AT_TI_begin_line(0x66f)
    3531                      .dwattr $C$DW$310, DW_AT_TI_begin_column(0x06)
    3532                      .dwattr $C$DW$310, DW_AT_TI_max_frame_size(0x04)
    3533                      .dwpsn  file "../FreeRTOS/Demo/c5515_CCS/main.c",line 1648,column 1,is_stmt,address _TestTask3
    3534              
    3535                      .dwfde $C$DW$CIE, _TestTask3
    3536              $C$DW$311       .dwtag  DW_TAG_variable, DW_AT_name("ctr")
    3537                      .dwattr $C$DW$311, DW_AT_TI_symbol_name("_ctr$13")
    3538                      .dwattr $C$DW$311, DW_AT_type(*$C$DW$T$9)
    3539                      .dwattr $C$DW$311, DW_AT_location[DW_OP_addr _ctr$13]
    3540              $C$DW$312       .dwtag  DW_TAG_formal_parameter, DW_AT_name("pvParameters")
    3541                      .dwattr $C$DW$312, DW_AT_TI_symbol_name("_pvParameters")
    3542                      .dwattr $C$DW$312, DW_AT_type(*$C$DW$T$3)
    3543                      .dwattr $C$DW$312, DW_AT_location[DW_OP_reg17]
    3544              ;*******************************************************************************
    3545              ;* FUNCTION NAME: TestTask3                                                    *
    3546              ;*                                                                             *
    3547              ;*   Function Uses Regs : AC0,AC0,T0,T2,AR0,XAR0,AR1,XAR1,SP,CARRY,TC1,M40,    *
TMS320C55x Assembler PC v4.4.1 Sun Sep 30 06:35:16 2018

Tools Copyright (c) 1996-2012 Texas Instruments Incorporated
main.asm                                                             PAGE   75

    3548              ;*                        SATA,SATD,RDM,FRCT,SMUL                              *
    3549              ;*   Save On Entry Regs : T2                                                   *
    3550              ;*   Stack Frame        : Compact (No Frame Pointer, w/ debug)                 *
    3551              ;*   Total Frame Size   : 4 words                                              *
    3552              ;*                        (1 return address/alignment)                         *
    3553              ;*                        (2 local values)                                     *
    3554              ;*                        (1 register save area)                               *
    3555              ;*   Min System Stack   : 1 word                                               *
    3556              ;*******************************************************************************
    3557 0007c4       _TestTask3:
    3558                      .dwcfi  cfa_offset, 1
    3559                      .dwcfi  save_reg_to_mem, 91, -1
    3560 0007c4 5066          PSH T2
    3561                      .dwcfi  cfa_offset, 2
    3562                      .dwcfi  save_reg_to_mem, 14, -2
    3563 0007c6 4EFE          AADD #-2, SP
    3564                      .dwcfi  cfa_offset, 4
    3565              $C$DW$313       .dwtag  DW_TAG_variable, DW_AT_name("pvParameters")
    3566                      .dwattr $C$DW$313, DW_AT_TI_symbol_name("_pvParameters")
    3567                      .dwattr $C$DW$313, DW_AT_type(*$C$DW$T$3)
    3568                      .dwattr $C$DW$313, DW_AT_location[DW_OP_bregx 0x24 0]
    3569              
    3570 0007c8 EB00          MOV XAR0, dbl(*SP(#0))
         0007ca 85   
    3571 0007cb 3D16  ||      MOV #1, T2
    3572              
    3573 0007cd       $C$L55:    
    3574 0007cd       $C$DW$L$_TestTask3$2$B:
    3575                      .dwpsn  file "../FreeRTOS/Demo/c5515_CCS/main.c",line 1655,column 1,is_stmt
    3576 0007cd ED31          MOV dbl(*(#_xSemaphoreO)), XAR0
         0007cf 8F00 
         0007d1 0022-
    3577 0007d3 EC31          AMOV #0, XAR1 ; |1655| 
         0007d5 9E00 
         0007d7 0000 
    3578 0007d9 3C00          MOV #0, AC0 ; |1655| 
    3579              $C$DW$314       .dwtag  DW_TAG_TI_branch
    3580                      .dwattr $C$DW$314, DW_AT_low_pc(0x00)
    3581                      .dwattr $C$DW$314, DW_AT_name("_xQueueGenericSend")
    3582                      .dwattr $C$DW$314, DW_AT_TI_call
    3583              
    3584 0007db 6C00          CALL #_xQueueGenericSend ; |1655| 
         0007dd 0000!
    3585 0007df 3D04  ||      MOV #0, T0
    3586              
    3587                                                      ; call occurs [#_xQueueGenericSend] ; |1655| 
    3588 0007e1 1240          CMP T0 == T2, TC1 ; |1655| 
         0007e3 60   
    3589 0007e4 63E4          BCC $C$L56,TC1 ; |1655| 
    3590                                                      ; branchcc occurs ; |1655| 
    3591 0007e6       $C$DW$L$_TestTask3$2$E:
    3592 0007e6       $C$DW$L$_TestTask3$3$B:
    3593                      .dwpsn  file "../FreeRTOS/Demo/c5515_CCS/main.c",line 1657,column 12,is_stmt
    3594 0007e6 F731          ADD #1, *(#_ctr$13) ; |1657| 
         0007e8 0001 
TMS320C55x Assembler PC v4.4.1 Sun Sep 30 06:35:16 2018

Tools Copyright (c) 1996-2012 Texas Instruments Incorporated
main.asm                                                             PAGE   76

         0007ea 0000 
         0007ec 34-  
    3595 0007ed       $C$DW$L$_TestTask3$3$E:
    3596 0007ed       $C$L56:    
    3597 0007ed       $C$DW$L$_TestTask3$4$B:
    3598                      .dwpsn  file "../FreeRTOS/Demo/c5515_CCS/main.c",line 1662,column 1,is_stmt
    3599 0007ed 760B          MOV #3000, AC0 ; |1662| 
         0007ef B808 
    3600              $C$DW$315       .dwtag  DW_TAG_TI_branch
    3601                      .dwattr $C$DW$315, DW_AT_low_pc(0x00)
    3602                      .dwattr $C$DW$315, DW_AT_name("_vTaskDelay")
    3603                      .dwattr $C$DW$315, DW_AT_TI_call
    3604 0007f1 6C00          CALL #_vTaskDelay ; |1662| 
         0007f3 0000!
    3605                                                      ; call occurs [#_vTaskDelay] ; |1662| 
    3606                      .dwpsn  file "../FreeRTOS/Demo/c5515_CCS/main.c",line 1664,column 5,is_stmt
    3607 0007f5 4A56          B $C$L55  ; |1664| 
    3608                                                      ; branch occurs ; |1664| 
    3609 0007f7       $C$DW$L$_TestTask3$4$E:
    3610                      .dwcfi  cfa_offset, 2
    3611                      .dwcfi  restore_reg, 14
    3612                      .dwcfi  cfa_offset, 1
    3613              
    3614              $C$DW$316       .dwtag  DW_TAG_TI_loop
    3615                      .dwattr $C$DW$316, DW_AT_name("F:\eZdsp_DBG\tmp1\c55x-sim2\foo\Debug\main.asm:$C$L55:1:1538314515")
    3616                      .dwattr $C$DW$316, DW_AT_TI_begin_file("../FreeRTOS/Demo/c5515_CCS/main.c")
    3617                      .dwattr $C$DW$316, DW_AT_TI_begin_line(0x674)
    3618                      .dwattr $C$DW$316, DW_AT_TI_end_line(0x680)
    3619              $C$DW$317       .dwtag  DW_TAG_TI_loop_range
    3620                      .dwattr $C$DW$317, DW_AT_low_pc($C$DW$L$_TestTask3$2$B)
    3621                      .dwattr $C$DW$317, DW_AT_high_pc($C$DW$L$_TestTask3$2$E)
    3622              $C$DW$318       .dwtag  DW_TAG_TI_loop_range
    3623                      .dwattr $C$DW$318, DW_AT_low_pc($C$DW$L$_TestTask3$3$B)
    3624                      .dwattr $C$DW$318, DW_AT_high_pc($C$DW$L$_TestTask3$3$E)
    3625              $C$DW$319       .dwtag  DW_TAG_TI_loop_range
    3626                      .dwattr $C$DW$319, DW_AT_low_pc($C$DW$L$_TestTask3$4$B)
    3627                      .dwattr $C$DW$319, DW_AT_high_pc($C$DW$L$_TestTask3$4$E)
    3628                      .dwendtag $C$DW$316
    3629              
    3630                      .dwattr $C$DW$310, DW_AT_TI_end_file("../FreeRTOS/Demo/c5515_CCS/main.c")
    3631                      .dwattr $C$DW$310, DW_AT_TI_end_line(0x681)
    3632                      .dwattr $C$DW$310, DW_AT_TI_end_column(0x01)
    3633                      .dwendentry
    3634                      .dwendtag $C$DW$310
    3635              
    3636 0007f7               .sect   ".text"
    3637                      .align 4
    3638                      .global _TestTask4
    3639              
    3640              $C$DW$320       .dwtag  DW_TAG_subprogram, DW_AT_name("TestTask4")
    3641                      .dwattr $C$DW$320, DW_AT_low_pc(_TestTask4)
    3642                      .dwattr $C$DW$320, DW_AT_high_pc(0x00)
    3643                      .dwattr $C$DW$320, DW_AT_TI_symbol_name("_TestTask4")
    3644                      .dwattr $C$DW$320, DW_AT_external
    3645                      .dwattr $C$DW$320, DW_AT_TI_begin_file("../FreeRTOS/Demo/c5515_CCS/main.c")
TMS320C55x Assembler PC v4.4.1 Sun Sep 30 06:35:16 2018

Tools Copyright (c) 1996-2012 Texas Instruments Incorporated
main.asm                                                             PAGE   77

    3646                      .dwattr $C$DW$320, DW_AT_TI_begin_line(0x683)
    3647                      .dwattr $C$DW$320, DW_AT_TI_begin_column(0x07)
    3648                      .dwattr $C$DW$320, DW_AT_TI_max_frame_size(0x04)
    3649                      .dwpsn  file "../FreeRTOS/Demo/c5515_CCS/main.c",line 1668,column 1,is_stmt,address _TestTask4
    3650              
    3651                      .dwfde $C$DW$CIE, _TestTask4
    3652              $C$DW$321       .dwtag  DW_TAG_variable, DW_AT_name("ctr")
    3653                      .dwattr $C$DW$321, DW_AT_TI_symbol_name("_ctr$14")
    3654                      .dwattr $C$DW$321, DW_AT_type(*$C$DW$T$9)
    3655                      .dwattr $C$DW$321, DW_AT_location[DW_OP_addr _ctr$14]
    3656              $C$DW$322       .dwtag  DW_TAG_formal_parameter, DW_AT_name("pvParameters")
    3657                      .dwattr $C$DW$322, DW_AT_TI_symbol_name("_pvParameters")
    3658                      .dwattr $C$DW$322, DW_AT_type(*$C$DW$T$3)
    3659                      .dwattr $C$DW$322, DW_AT_location[DW_OP_reg17]
    3660              ;*******************************************************************************
    3661              ;* FUNCTION NAME: TestTask4                                                    *
    3662              ;*                                                                             *
    3663              ;*   Function Uses Regs : AC0,AC0,T0,T2,AR0,XAR0,AR1,XAR1,SP,CARRY,TC1,M40,    *
    3664              ;*                        SATA,SATD,RDM,FRCT,SMUL                              *
    3665              ;*   Save On Entry Regs : T2                                                   *
    3666              ;*   Stack Frame        : Compact (No Frame Pointer, w/ debug)                 *
    3667              ;*   Total Frame Size   : 4 words                                              *
    3668              ;*                        (1 return address/alignment)                         *
    3669              ;*                        (2 local values)                                     *
    3670              ;*                        (1 register save area)                               *
    3671              ;*   Min System Stack   : 1 word                                               *
    3672              ;*******************************************************************************
    3673 0007f8       _TestTask4:
    3674                      .dwcfi  cfa_offset, 1
    3675                      .dwcfi  save_reg_to_mem, 91, -1
    3676 0007f8 5066          PSH T2
    3677                      .dwcfi  cfa_offset, 2
    3678                      .dwcfi  save_reg_to_mem, 14, -2
    3679 0007fa 4EFE          AADD #-2, SP
    3680                      .dwcfi  cfa_offset, 4
    3681              $C$DW$323       .dwtag  DW_TAG_variable, DW_AT_name("pvParameters")
    3682                      .dwattr $C$DW$323, DW_AT_TI_symbol_name("_pvParameters")
    3683                      .dwattr $C$DW$323, DW_AT_type(*$C$DW$T$3)
    3684                      .dwattr $C$DW$323, DW_AT_location[DW_OP_bregx 0x24 0]
    3685              
    3686 0007fc EB00          MOV XAR0, dbl(*SP(#0))
         0007fe 85   
    3687 0007ff 3D16  ||      MOV #1, T2
    3688              
    3689 000801       $C$L57:    
    3690 000801       $C$DW$L$_TestTask4$2$B:
    3691                      .dwpsn  file "../FreeRTOS/Demo/c5515_CCS/main.c",line 1675,column 1,is_stmt
    3692 000801 ED31          MOV dbl(*(#_xSemaphoreR)), XAR0
         000803 8F00 
         000805 001C-
    3693 000807 EC31          AMOV #0, XAR1 ; |1675| 
         000809 9E00 
         00080b 0000 
    3694 00080d 3C00          MOV #0, AC0 ; |1675| 
    3695              $C$DW$324       .dwtag  DW_TAG_TI_branch
TMS320C55x Assembler PC v4.4.1 Sun Sep 30 06:35:16 2018

Tools Copyright (c) 1996-2012 Texas Instruments Incorporated
main.asm                                                             PAGE   78

    3696                      .dwattr $C$DW$324, DW_AT_low_pc(0x00)
    3697                      .dwattr $C$DW$324, DW_AT_name("_xQueueGenericSend")
    3698                      .dwattr $C$DW$324, DW_AT_TI_call
    3699              
    3700 00080f 6C00          CALL #_xQueueGenericSend ; |1675| 
         000811 0000!
    3701 000813 3D04  ||      MOV #0, T0
    3702              
    3703                                                      ; call occurs [#_xQueueGenericSend] ; |1675| 
    3704 000815 1240          CMP T0 == T2, TC1 ; |1675| 
         000817 60   
    3705 000818 63E4          BCC $C$L58,TC1 ; |1675| 
    3706                                                      ; branchcc occurs ; |1675| 
    3707 00081a       $C$DW$L$_TestTask4$2$E:
    3708 00081a       $C$DW$L$_TestTask4$3$B:
    3709                      .dwpsn  file "../FreeRTOS/Demo/c5515_CCS/main.c",line 1677,column 18,is_stmt
    3710 00081a F731          ADD #1, *(#_ctr$14) ; |1677| 
         00081c 0001 
         00081e 0000 
         000820 35-  
    3711 000821       $C$DW$L$_TestTask4$3$E:
    3712 000821       $C$L58:    
    3713 000821       $C$DW$L$_TestTask4$4$B:
    3714                      .dwpsn  file "../FreeRTOS/Demo/c5515_CCS/main.c",line 1679,column 2,is_stmt
    3715 000821 7600          MOV #200, AC0 ; |1679| 
         000823 C808 
    3716              $C$DW$325       .dwtag  DW_TAG_TI_branch
    3717                      .dwattr $C$DW$325, DW_AT_low_pc(0x00)
    3718                      .dwattr $C$DW$325, DW_AT_name("_vTaskDelay")
    3719                      .dwattr $C$DW$325, DW_AT_TI_call
    3720 000825 6C00          CALL #_vTaskDelay ; |1679| 
         000827 0000!
    3721                                                      ; call occurs [#_vTaskDelay] ; |1679| 
    3722                      .dwpsn  file "../FreeRTOS/Demo/c5515_CCS/main.c",line 1680,column 1,is_stmt
    3723 000829 4A56          B $C$L57  ; |1680| 
    3724                                                      ; branch occurs ; |1680| 
    3725 00082b       $C$DW$L$_TestTask4$4$E:
    3726                      .dwcfi  cfa_offset, 2
    3727                      .dwcfi  restore_reg, 14
    3728                      .dwcfi  cfa_offset, 1
    3729              
    3730              $C$DW$326       .dwtag  DW_TAG_TI_loop
    3731                      .dwattr $C$DW$326, DW_AT_name("F:\eZdsp_DBG\tmp1\c55x-sim2\foo\Debug\main.asm:$C$L57:1:1538314515")
    3732                      .dwattr $C$DW$326, DW_AT_TI_begin_file("../FreeRTOS/Demo/c5515_CCS/main.c")
    3733                      .dwattr $C$DW$326, DW_AT_TI_begin_line(0x688)
    3734                      .dwattr $C$DW$326, DW_AT_TI_end_line(0x690)
    3735              $C$DW$327       .dwtag  DW_TAG_TI_loop_range
    3736                      .dwattr $C$DW$327, DW_AT_low_pc($C$DW$L$_TestTask4$2$B)
    3737                      .dwattr $C$DW$327, DW_AT_high_pc($C$DW$L$_TestTask4$2$E)
    3738              $C$DW$328       .dwtag  DW_TAG_TI_loop_range
    3739                      .dwattr $C$DW$328, DW_AT_low_pc($C$DW$L$_TestTask4$3$B)
    3740                      .dwattr $C$DW$328, DW_AT_high_pc($C$DW$L$_TestTask4$3$E)
    3741              $C$DW$329       .dwtag  DW_TAG_TI_loop_range
    3742                      .dwattr $C$DW$329, DW_AT_low_pc($C$DW$L$_TestTask4$4$B)
    3743                      .dwattr $C$DW$329, DW_AT_high_pc($C$DW$L$_TestTask4$4$E)
TMS320C55x Assembler PC v4.4.1 Sun Sep 30 06:35:16 2018

Tools Copyright (c) 1996-2012 Texas Instruments Incorporated
main.asm                                                             PAGE   79

    3744                      .dwendtag $C$DW$326
    3745              
    3746                      .dwattr $C$DW$320, DW_AT_TI_end_file("../FreeRTOS/Demo/c5515_CCS/main.c")
    3747                      .dwattr $C$DW$320, DW_AT_TI_end_line(0x691)
    3748                      .dwattr $C$DW$320, DW_AT_TI_end_column(0x01)
    3749                      .dwendentry
    3750                      .dwendtag $C$DW$320
    3751              
    3752              ;*******************************************************************************
    3753              ;* FAR STRINGS                                                                 *
    3754              ;*******************************************************************************
    3755 000000               .sect   ".const:.string"
    3756                      .align  2
    3757 000000 0053  $C$FSL1:        .string "Start",0
         000001 0074 
         000002 0061 
         000003 0072 
         000004 0074 
         000005 0000 
    3758                      .align  2
    3759 000006 0042  $C$FSL2:        .string "BlueLED",0
         000007 006C 
         000008 0075 
         000009 0065 
         00000a 004C 
         00000b 0045 
         00000c 0044 
         00000d 0000 
    3760                      .align  2
    3761 00000e 0054  $C$FSL3:        .string "TestTsk1",0
         00000f 0065 
         000010 0073 
         000011 0074 
         000012 0054 
         000013 0073 
         000014 006B 
         000015 0031 
         000016 0000 
    3762                      .align  2
    3763 000018 0054  $C$FSL4:        .string "TestTsk2",0
         000019 0065 
         00001a 0073 
         00001b 0074 
         00001c 0054 
         00001d 0073 
         00001e 006B 
         00001f 0032 
         000020 0000 
    3764                      .align  2
    3765 000022 0054  $C$FSL5:        .string "TestTsk3",0
         000023 0065 
         000024 0073 
         000025 0074 
         000026 0054 
         000027 0073 
TMS320C55x Assembler PC v4.4.1 Sun Sep 30 06:35:16 2018

Tools Copyright (c) 1996-2012 Texas Instruments Incorporated
main.asm                                                             PAGE   80

         000028 006B 
         000029 0033 
         00002a 0000 
    3766                      .align  2
    3767 00002c 0054  $C$FSL6:        .string "TestTsk4",0
         00002d 0065 
         00002e 0073 
         00002f 0074 
         000030 0054 
         000031 0073 
         000032 006B 
         000033 0034 
         000034 0000 
    3768                      .align  2
    3769 000036 0058  $C$FSL7:        .string "XFLEDtsk",0
         000037 0046 
         000038 004C 
         000039 0045 
         00003a 0044 
         00003b 0074 
         00003c 0073 
         00003d 006B 
         00003e 0000 
    3770                      .align  2
    3771 000040 0047  $C$FSL8:        .string "GRNLED",0
         000041 0052 
         000042 004E 
         000043 004C 
         000044 0045 
         000045 0044 
         000046 0000 
    3772                      .align  2
    3773 000048 0058  $C$FSL9:        .string "XFLDtsk2",0
         000049 0046 
         00004a 004C 
         00004b 0044 
         00004c 0074 
         00004d 0073 
         00004e 006B 
         00004f 0032 
         000050 0000 
    3774                      .align  2
    3775 000052 004C  $C$FSL10:       .string "LEDCTRL",0
         000053 0045 
         000054 0044 
         000055 0043 
         000056 0054 
         000057 0052 
         000058 004C 
         000059 0000 
    3776                      .align  2
    3777 00005a 0052  $C$FSL11:       .string "RedLED",0
         00005b 0065 
         00005c 0064 
         00005d 004C 
TMS320C55x Assembler PC v4.4.1 Sun Sep 30 06:35:16 2018

Tools Copyright (c) 1996-2012 Texas Instruments Incorporated
main.asm                                                             PAGE   81

         00005e 0045 
         00005f 0044 
         000060 0000 
    3778              ;******************************************************************************
    3779              ;* UNDEFINED EXTERNAL REFERENCES                                              *
    3780              ;******************************************************************************
    3781                      .global _EZDSP5535_init
    3782                      .global _xTaskCreate
    3783                      .global _vTaskDelay
    3784                      .global _vTaskSuspend
    3785                      .global _vTaskResume
    3786                      .global _vTaskStartScheduler
    3787                      .global _xQueueGenericSend
    3788                      .global _xQueueSemaphoreTake
    3789                      .global _xQueueGenericCreate
    3790                      .global _set_dma0_ch0_i2s0_Lout
    3791                      .global _set_dma0_ch1_i2s0_Rout
    3792                      .global _set_dma0_ch0_stop
    3793                      .global _set_dma0_ch1_stop
    3794                      .global _EZDSP5535_LED_init
    3795                      .global _EZDSP5535_LED_on
    3796                      .global _EZDSP5535_XF_toggle
    3797                      .global _EZDSP5535_GPIO_init
    3798                      .global _EZDSP5535_GPIO_setOutput
    3799                      .global _EZDSP5535_SAR_init
    3800                      .global _PLL_init
    3801                      .global _PLL_config
    3802                      .global _PLL_reset
    3803                      .global _mem_test
    3804                      .global _fTimer
    3805                      .global _Flag_RTC
    3806                      .global _Conunt_RTC
    3807                      .global _VECSTART
    3808              
    3809              ;*******************************************************************************
    3810              ;* TYPE INFORMATION                                                            *
    3811              ;*******************************************************************************
    3812              
    3813              $C$DW$T$22      .dwtag  DW_TAG_structure_type
    3814                      .dwattr $C$DW$T$22, DW_AT_byte_size(0x04)
    3815              $C$DW$330       .dwtag  DW_TAG_member
    3816                      .dwattr $C$DW$330, DW_AT_type(*$C$DW$T$21)
    3817                      .dwattr $C$DW$330, DW_AT_name("PLLCNTL1")
    3818                      .dwattr $C$DW$330, DW_AT_TI_symbol_name("_PLLCNTL1")
    3819                      .dwattr $C$DW$330, DW_AT_data_member_location[DW_OP_plus_uconst 0x0]
    3820                      .dwattr $C$DW$330, DW_AT_accessibility(DW_ACCESS_public)
    3821              $C$DW$331       .dwtag  DW_TAG_member
    3822                      .dwattr $C$DW$331, DW_AT_type(*$C$DW$T$21)
    3823                      .dwattr $C$DW$331, DW_AT_name("PLLINCNTL")
    3824                      .dwattr $C$DW$331, DW_AT_TI_symbol_name("_PLLINCNTL")
    3825                      .dwattr $C$DW$331, DW_AT_data_member_location[DW_OP_plus_uconst 0x1]
    3826                      .dwattr $C$DW$331, DW_AT_accessibility(DW_ACCESS_public)
    3827              $C$DW$332       .dwtag  DW_TAG_member
    3828                      .dwattr $C$DW$332, DW_AT_type(*$C$DW$T$21)
    3829                      .dwattr $C$DW$332, DW_AT_name("PLLCNTL2")
TMS320C55x Assembler PC v4.4.1 Sun Sep 30 06:35:16 2018

Tools Copyright (c) 1996-2012 Texas Instruments Incorporated
main.asm                                                             PAGE   82

    3830                      .dwattr $C$DW$332, DW_AT_TI_symbol_name("_PLLCNTL2")
    3831                      .dwattr $C$DW$332, DW_AT_data_member_location[DW_OP_plus_uconst 0x2]
    3832                      .dwattr $C$DW$332, DW_AT_accessibility(DW_ACCESS_public)
    3833              $C$DW$333       .dwtag  DW_TAG_member
    3834                      .dwattr $C$DW$333, DW_AT_type(*$C$DW$T$21)
    3835                      .dwattr $C$DW$333, DW_AT_name("PLLOUTCNTL")
    3836                      .dwattr $C$DW$333, DW_AT_TI_symbol_name("_PLLOUTCNTL")
    3837                      .dwattr $C$DW$333, DW_AT_data_member_location[DW_OP_plus_uconst 0x3]
    3838                      .dwattr $C$DW$333, DW_AT_accessibility(DW_ACCESS_public)
    3839                      .dwendtag $C$DW$T$22
    3840              
    3841              $C$DW$T$28      .dwtag  DW_TAG_typedef, DW_AT_name("PLL_Config")
    3842                      .dwattr $C$DW$T$28, DW_AT_type(*$C$DW$T$22)
    3843                      .dwattr $C$DW$T$28, DW_AT_language(DW_LANG_C)
    3844              $C$DW$334       .dwtag  DW_TAG_TI_far_type
    3845                      .dwattr $C$DW$334, DW_AT_type(*$C$DW$T$28)
    3846              $C$DW$T$36      .dwtag  DW_TAG_const_type
    3847                      .dwattr $C$DW$T$36, DW_AT_type(*$C$DW$334)
    3848              $C$DW$T$29      .dwtag  DW_TAG_pointer_type
    3849                      .dwattr $C$DW$T$29, DW_AT_type(*$C$DW$T$28)
    3850                      .dwattr $C$DW$T$29, DW_AT_address_class(0x17)
    3851              
    3852              $C$DW$T$27      .dwtag  DW_TAG_structure_type
    3853                      .dwattr $C$DW$T$27, DW_AT_byte_size(0x48)
    3854              $C$DW$335       .dwtag  DW_TAG_member
    3855                      .dwattr $C$DW$335, DW_AT_type(*$C$DW$T$23)
    3856                      .dwattr $C$DW$335, DW_AT_name("EBSR")
    3857                      .dwattr $C$DW$335, DW_AT_TI_symbol_name("_EBSR")
    3858                      .dwattr $C$DW$335, DW_AT_data_member_location[DW_OP_plus_uconst 0x0]
    3859                      .dwattr $C$DW$335, DW_AT_accessibility(DW_ACCESS_public)
    3860              $C$DW$336       .dwtag  DW_TAG_member
    3861                      .dwattr $C$DW$336, DW_AT_type(*$C$DW$T$23)
    3862                      .dwattr $C$DW$336, DW_AT_name("RSVD0")
    3863                      .dwattr $C$DW$336, DW_AT_TI_symbol_name("_RSVD0")
    3864                      .dwattr $C$DW$336, DW_AT_data_member_location[DW_OP_plus_uconst 0x1]
    3865                      .dwattr $C$DW$336, DW_AT_accessibility(DW_ACCESS_public)
    3866              $C$DW$337       .dwtag  DW_TAG_member
    3867                      .dwattr $C$DW$337, DW_AT_type(*$C$DW$T$23)
    3868                      .dwattr $C$DW$337, DW_AT_name("PCGCR1")
    3869                      .dwattr $C$DW$337, DW_AT_TI_symbol_name("_PCGCR1")
    3870                      .dwattr $C$DW$337, DW_AT_data_member_location[DW_OP_plus_uconst 0x2]
    3871                      .dwattr $C$DW$337, DW_AT_accessibility(DW_ACCESS_public)
    3872              $C$DW$338       .dwtag  DW_TAG_member
    3873                      .dwattr $C$DW$338, DW_AT_type(*$C$DW$T$23)
    3874                      .dwattr $C$DW$338, DW_AT_name("PCGCR2")
    3875                      .dwattr $C$DW$338, DW_AT_TI_symbol_name("_PCGCR2")
    3876                      .dwattr $C$DW$338, DW_AT_data_member_location[DW_OP_plus_uconst 0x3]
    3877                      .dwattr $C$DW$338, DW_AT_accessibility(DW_ACCESS_public)
    3878              $C$DW$339       .dwtag  DW_TAG_member
    3879                      .dwattr $C$DW$339, DW_AT_type(*$C$DW$T$23)
    3880                      .dwattr $C$DW$339, DW_AT_name("PSRCR")
    3881                      .dwattr $C$DW$339, DW_AT_TI_symbol_name("_PSRCR")
    3882                      .dwattr $C$DW$339, DW_AT_data_member_location[DW_OP_plus_uconst 0x4]
    3883                      .dwattr $C$DW$339, DW_AT_accessibility(DW_ACCESS_public)
    3884              $C$DW$340       .dwtag  DW_TAG_member
TMS320C55x Assembler PC v4.4.1 Sun Sep 30 06:35:16 2018

Tools Copyright (c) 1996-2012 Texas Instruments Incorporated
main.asm                                                             PAGE   83

    3885                      .dwattr $C$DW$340, DW_AT_type(*$C$DW$T$23)
    3886                      .dwattr $C$DW$340, DW_AT_name("PRCR")
    3887                      .dwattr $C$DW$340, DW_AT_TI_symbol_name("_PRCR")
    3888                      .dwattr $C$DW$340, DW_AT_data_member_location[DW_OP_plus_uconst 0x5]
    3889                      .dwattr $C$DW$340, DW_AT_accessibility(DW_ACCESS_public)
    3890              $C$DW$341       .dwtag  DW_TAG_member
    3891                      .dwattr $C$DW$341, DW_AT_type(*$C$DW$T$24)
    3892                      .dwattr $C$DW$341, DW_AT_name("RSVD1")
    3893                      .dwattr $C$DW$341, DW_AT_TI_symbol_name("_RSVD1")
    3894                      .dwattr $C$DW$341, DW_AT_data_member_location[DW_OP_plus_uconst 0x6]
    3895                      .dwattr $C$DW$341, DW_AT_accessibility(DW_ACCESS_public)
    3896              $C$DW$342       .dwtag  DW_TAG_member
    3897                      .dwattr $C$DW$342, DW_AT_type(*$C$DW$T$23)
    3898                      .dwattr $C$DW$342, DW_AT_name("TIAFR")
    3899                      .dwattr $C$DW$342, DW_AT_TI_symbol_name("_TIAFR")
    3900                      .dwattr $C$DW$342, DW_AT_data_member_location[DW_OP_plus_uconst 0x14]
    3901                      .dwattr $C$DW$342, DW_AT_accessibility(DW_ACCESS_public)
    3902              $C$DW$343       .dwtag  DW_TAG_member
    3903                      .dwattr $C$DW$343, DW_AT_type(*$C$DW$T$23)
    3904                      .dwattr $C$DW$343, DW_AT_name("RSVD2")
    3905                      .dwattr $C$DW$343, DW_AT_TI_symbol_name("_RSVD2")
    3906                      .dwattr $C$DW$343, DW_AT_data_member_location[DW_OP_plus_uconst 0x15]
    3907                      .dwattr $C$DW$343, DW_AT_accessibility(DW_ACCESS_public)
    3908              $C$DW$344       .dwtag  DW_TAG_member
    3909                      .dwattr $C$DW$344, DW_AT_type(*$C$DW$T$23)
    3910                      .dwattr $C$DW$344, DW_AT_name("ODSCR")
    3911                      .dwattr $C$DW$344, DW_AT_TI_symbol_name("_ODSCR")
    3912                      .dwattr $C$DW$344, DW_AT_data_member_location[DW_OP_plus_uconst 0x16]
    3913                      .dwattr $C$DW$344, DW_AT_accessibility(DW_ACCESS_public)
    3914              $C$DW$345       .dwtag  DW_TAG_member
    3915                      .dwattr $C$DW$345, DW_AT_type(*$C$DW$T$23)
    3916                      .dwattr $C$DW$345, DW_AT_name("PDINHIBR1")
    3917                      .dwattr $C$DW$345, DW_AT_TI_symbol_name("_PDINHIBR1")
    3918                      .dwattr $C$DW$345, DW_AT_data_member_location[DW_OP_plus_uconst 0x17]
    3919                      .dwattr $C$DW$345, DW_AT_accessibility(DW_ACCESS_public)
    3920              $C$DW$346       .dwtag  DW_TAG_member
    3921                      .dwattr $C$DW$346, DW_AT_type(*$C$DW$T$23)
    3922                      .dwattr $C$DW$346, DW_AT_name("PDINHIBR2")
    3923                      .dwattr $C$DW$346, DW_AT_TI_symbol_name("_PDINHIBR2")
    3924                      .dwattr $C$DW$346, DW_AT_data_member_location[DW_OP_plus_uconst 0x18]
    3925                      .dwattr $C$DW$346, DW_AT_accessibility(DW_ACCESS_public)
    3926              $C$DW$347       .dwtag  DW_TAG_member
    3927                      .dwattr $C$DW$347, DW_AT_type(*$C$DW$T$23)
    3928                      .dwattr $C$DW$347, DW_AT_name("PDINHIBR3")
    3929                      .dwattr $C$DW$347, DW_AT_TI_symbol_name("_PDINHIBR3")
    3930                      .dwattr $C$DW$347, DW_AT_data_member_location[DW_OP_plus_uconst 0x19]
    3931                      .dwattr $C$DW$347, DW_AT_accessibility(DW_ACCESS_public)
    3932              $C$DW$348       .dwtag  DW_TAG_member
    3933                      .dwattr $C$DW$348, DW_AT_type(*$C$DW$T$23)
    3934                      .dwattr $C$DW$348, DW_AT_name("DMA0CESR1")
    3935                      .dwattr $C$DW$348, DW_AT_TI_symbol_name("_DMA0CESR1")
    3936                      .dwattr $C$DW$348, DW_AT_data_member_location[DW_OP_plus_uconst 0x1a]
    3937                      .dwattr $C$DW$348, DW_AT_accessibility(DW_ACCESS_public)
    3938              $C$DW$349       .dwtag  DW_TAG_member
    3939                      .dwattr $C$DW$349, DW_AT_type(*$C$DW$T$23)
TMS320C55x Assembler PC v4.4.1 Sun Sep 30 06:35:16 2018

Tools Copyright (c) 1996-2012 Texas Instruments Incorporated
main.asm                                                             PAGE   84

    3940                      .dwattr $C$DW$349, DW_AT_name("DMA0CESR2")
    3941                      .dwattr $C$DW$349, DW_AT_TI_symbol_name("_DMA0CESR2")
    3942                      .dwattr $C$DW$349, DW_AT_data_member_location[DW_OP_plus_uconst 0x1b]
    3943                      .dwattr $C$DW$349, DW_AT_accessibility(DW_ACCESS_public)
    3944              $C$DW$350       .dwtag  DW_TAG_member
    3945                      .dwattr $C$DW$350, DW_AT_type(*$C$DW$T$23)
    3946                      .dwattr $C$DW$350, DW_AT_name("DMA1CESR1")
    3947                      .dwattr $C$DW$350, DW_AT_TI_symbol_name("_DMA1CESR1")
    3948                      .dwattr $C$DW$350, DW_AT_data_member_location[DW_OP_plus_uconst 0x1c]
    3949                      .dwattr $C$DW$350, DW_AT_accessibility(DW_ACCESS_public)
    3950              $C$DW$351       .dwtag  DW_TAG_member
    3951                      .dwattr $C$DW$351, DW_AT_type(*$C$DW$T$23)
    3952                      .dwattr $C$DW$351, DW_AT_name("DMA1CESR2")
    3953                      .dwattr $C$DW$351, DW_AT_TI_symbol_name("_DMA1CESR2")
    3954                      .dwattr $C$DW$351, DW_AT_data_member_location[DW_OP_plus_uconst 0x1d]
    3955                      .dwattr $C$DW$351, DW_AT_accessibility(DW_ACCESS_public)
    3956              $C$DW$352       .dwtag  DW_TAG_member
    3957                      .dwattr $C$DW$352, DW_AT_type(*$C$DW$T$23)
    3958                      .dwattr $C$DW$352, DW_AT_name("SDRAMCCR")
    3959                      .dwattr $C$DW$352, DW_AT_TI_symbol_name("_SDRAMCCR")
    3960                      .dwattr $C$DW$352, DW_AT_data_member_location[DW_OP_plus_uconst 0x1e]
    3961                      .dwattr $C$DW$352, DW_AT_accessibility(DW_ACCESS_public)
    3962              $C$DW$353       .dwtag  DW_TAG_member
    3963                      .dwattr $C$DW$353, DW_AT_type(*$C$DW$T$23)
    3964                      .dwattr $C$DW$353, DW_AT_name("CCR2")
    3965                      .dwattr $C$DW$353, DW_AT_TI_symbol_name("_CCR2")
    3966                      .dwattr $C$DW$353, DW_AT_data_member_location[DW_OP_plus_uconst 0x1f]
    3967                      .dwattr $C$DW$353, DW_AT_accessibility(DW_ACCESS_public)
    3968              $C$DW$354       .dwtag  DW_TAG_member
    3969                      .dwattr $C$DW$354, DW_AT_type(*$C$DW$T$23)
    3970                      .dwattr $C$DW$354, DW_AT_name("CGCR1")
    3971                      .dwattr $C$DW$354, DW_AT_TI_symbol_name("_CGCR1")
    3972                      .dwattr $C$DW$354, DW_AT_data_member_location[DW_OP_plus_uconst 0x20]
    3973                      .dwattr $C$DW$354, DW_AT_accessibility(DW_ACCESS_public)
    3974              $C$DW$355       .dwtag  DW_TAG_member
    3975                      .dwattr $C$DW$355, DW_AT_type(*$C$DW$T$23)
    3976                      .dwattr $C$DW$355, DW_AT_name("CGICR")
    3977                      .dwattr $C$DW$355, DW_AT_TI_symbol_name("_CGICR")
    3978                      .dwattr $C$DW$355, DW_AT_data_member_location[DW_OP_plus_uconst 0x21]
    3979                      .dwattr $C$DW$355, DW_AT_accessibility(DW_ACCESS_public)
    3980              $C$DW$356       .dwtag  DW_TAG_member
    3981                      .dwattr $C$DW$356, DW_AT_type(*$C$DW$T$23)
    3982                      .dwattr $C$DW$356, DW_AT_name("CGCR2")
    3983                      .dwattr $C$DW$356, DW_AT_TI_symbol_name("_CGCR2")
    3984                      .dwattr $C$DW$356, DW_AT_data_member_location[DW_OP_plus_uconst 0x22]
    3985                      .dwattr $C$DW$356, DW_AT_accessibility(DW_ACCESS_public)
    3986              $C$DW$357       .dwtag  DW_TAG_member
    3987                      .dwattr $C$DW$357, DW_AT_type(*$C$DW$T$23)
    3988                      .dwattr $C$DW$357, DW_AT_name("CGOCR")
    3989                      .dwattr $C$DW$357, DW_AT_TI_symbol_name("_CGOCR")
    3990                      .dwattr $C$DW$357, DW_AT_data_member_location[DW_OP_plus_uconst 0x23]
    3991                      .dwattr $C$DW$357, DW_AT_accessibility(DW_ACCESS_public)
    3992              $C$DW$358       .dwtag  DW_TAG_member
    3993                      .dwattr $C$DW$358, DW_AT_type(*$C$DW$T$23)
    3994                      .dwattr $C$DW$358, DW_AT_name("CCSSR")
TMS320C55x Assembler PC v4.4.1 Sun Sep 30 06:35:16 2018

Tools Copyright (c) 1996-2012 Texas Instruments Incorporated
main.asm                                                             PAGE   85

    3995                      .dwattr $C$DW$358, DW_AT_TI_symbol_name("_CCSSR")
    3996                      .dwattr $C$DW$358, DW_AT_data_member_location[DW_OP_plus_uconst 0x24]
    3997                      .dwattr $C$DW$358, DW_AT_accessibility(DW_ACCESS_public)
    3998              $C$DW$359       .dwtag  DW_TAG_member
    3999                      .dwattr $C$DW$359, DW_AT_type(*$C$DW$T$23)
    4000                      .dwattr $C$DW$359, DW_AT_name("RSVD3")
    4001                      .dwattr $C$DW$359, DW_AT_TI_symbol_name("_RSVD3")
    4002                      .dwattr $C$DW$359, DW_AT_data_member_location[DW_OP_plus_uconst 0x25]
    4003                      .dwattr $C$DW$359, DW_AT_accessibility(DW_ACCESS_public)
    4004              $C$DW$360       .dwtag  DW_TAG_member
    4005                      .dwattr $C$DW$360, DW_AT_type(*$C$DW$T$23)
    4006                      .dwattr $C$DW$360, DW_AT_name("ECDR")
    4007                      .dwattr $C$DW$360, DW_AT_TI_symbol_name("_ECDR")
    4008                      .dwattr $C$DW$360, DW_AT_data_member_location[DW_OP_plus_uconst 0x26]
    4009                      .dwattr $C$DW$360, DW_AT_accessibility(DW_ACCESS_public)
    4010              $C$DW$361       .dwtag  DW_TAG_member
    4011                      .dwattr $C$DW$361, DW_AT_type(*$C$DW$T$23)
    4012                      .dwattr $C$DW$361, DW_AT_name("RSVD4")
    4013                      .dwattr $C$DW$361, DW_AT_TI_symbol_name("_RSVD4")
    4014                      .dwattr $C$DW$361, DW_AT_data_member_location[DW_OP_plus_uconst 0x27]
    4015                      .dwattr $C$DW$361, DW_AT_accessibility(DW_ACCESS_public)
    4016              $C$DW$362       .dwtag  DW_TAG_member
    4017                      .dwattr $C$DW$362, DW_AT_type(*$C$DW$T$23)
    4018                      .dwattr $C$DW$362, DW_AT_name("RAMSLPMDCNTLR1")
    4019                      .dwattr $C$DW$362, DW_AT_TI_symbol_name("_RAMSLPMDCNTLR1")
    4020                      .dwattr $C$DW$362, DW_AT_data_member_location[DW_OP_plus_uconst 0x28]
    4021                      .dwattr $C$DW$362, DW_AT_accessibility(DW_ACCESS_public)
    4022              $C$DW$363       .dwtag  DW_TAG_member
    4023                      .dwattr $C$DW$363, DW_AT_type(*$C$DW$T$23)
    4024                      .dwattr $C$DW$363, DW_AT_name("RSVD5")
    4025                      .dwattr $C$DW$363, DW_AT_TI_symbol_name("_RSVD5")
    4026                      .dwattr $C$DW$363, DW_AT_data_member_location[DW_OP_plus_uconst 0x29]
    4027                      .dwattr $C$DW$363, DW_AT_accessibility(DW_ACCESS_public)
    4028              $C$DW$364       .dwtag  DW_TAG_member
    4029                      .dwattr $C$DW$364, DW_AT_type(*$C$DW$T$23)
    4030                      .dwattr $C$DW$364, DW_AT_name("RAMSLPMDCNTLR2")
    4031                      .dwattr $C$DW$364, DW_AT_TI_symbol_name("_RAMSLPMDCNTLR2")
    4032                      .dwattr $C$DW$364, DW_AT_data_member_location[DW_OP_plus_uconst 0x2a]
    4033                      .dwattr $C$DW$364, DW_AT_accessibility(DW_ACCESS_public)
    4034              $C$DW$365       .dwtag  DW_TAG_member
    4035                      .dwattr $C$DW$365, DW_AT_type(*$C$DW$T$23)
    4036                      .dwattr $C$DW$365, DW_AT_name("RAMSLPMDCNTLR3")
    4037                      .dwattr $C$DW$365, DW_AT_TI_symbol_name("_RAMSLPMDCNTLR3")
    4038                      .dwattr $C$DW$365, DW_AT_data_member_location[DW_OP_plus_uconst 0x2b]
    4039                      .dwattr $C$DW$365, DW_AT_accessibility(DW_ACCESS_public)
    4040              $C$DW$366       .dwtag  DW_TAG_member
    4041                      .dwattr $C$DW$366, DW_AT_type(*$C$DW$T$23)
    4042                      .dwattr $C$DW$366, DW_AT_name("RAMSLPMDCNTLR4")
    4043                      .dwattr $C$DW$366, DW_AT_TI_symbol_name("_RAMSLPMDCNTLR4")
    4044                      .dwattr $C$DW$366, DW_AT_data_member_location[DW_OP_plus_uconst 0x2c]
    4045                      .dwattr $C$DW$366, DW_AT_accessibility(DW_ACCESS_public)
    4046              $C$DW$367       .dwtag  DW_TAG_member
    4047                      .dwattr $C$DW$367, DW_AT_type(*$C$DW$T$23)
    4048                      .dwattr $C$DW$367, DW_AT_name("RAMSLPMDCNTLR5")
    4049                      .dwattr $C$DW$367, DW_AT_TI_symbol_name("_RAMSLPMDCNTLR5")
TMS320C55x Assembler PC v4.4.1 Sun Sep 30 06:35:16 2018

Tools Copyright (c) 1996-2012 Texas Instruments Incorporated
main.asm                                                             PAGE   86

    4050                      .dwattr $C$DW$367, DW_AT_data_member_location[DW_OP_plus_uconst 0x2d]
    4051                      .dwattr $C$DW$367, DW_AT_accessibility(DW_ACCESS_public)
    4052              $C$DW$368       .dwtag  DW_TAG_member
    4053                      .dwattr $C$DW$368, DW_AT_type(*$C$DW$T$25)
    4054                      .dwattr $C$DW$368, DW_AT_name("RSVD6")
    4055                      .dwattr $C$DW$368, DW_AT_TI_symbol_name("_RSVD6")
    4056                      .dwattr $C$DW$368, DW_AT_data_member_location[DW_OP_plus_uconst 0x2e]
    4057                      .dwattr $C$DW$368, DW_AT_accessibility(DW_ACCESS_public)
    4058              $C$DW$369       .dwtag  DW_TAG_member
    4059                      .dwattr $C$DW$369, DW_AT_type(*$C$DW$T$23)
    4060                      .dwattr $C$DW$369, DW_AT_name("DMAIFR")
    4061                      .dwattr $C$DW$369, DW_AT_TI_symbol_name("_DMAIFR")
    4062                      .dwattr $C$DW$369, DW_AT_data_member_location[DW_OP_plus_uconst 0x30]
    4063                      .dwattr $C$DW$369, DW_AT_accessibility(DW_ACCESS_public)
    4064              $C$DW$370       .dwtag  DW_TAG_member
    4065                      .dwattr $C$DW$370, DW_AT_type(*$C$DW$T$23)
    4066                      .dwattr $C$DW$370, DW_AT_name("DMAIER")
    4067                      .dwattr $C$DW$370, DW_AT_TI_symbol_name("_DMAIER")
    4068                      .dwattr $C$DW$370, DW_AT_data_member_location[DW_OP_plus_uconst 0x31]
    4069                      .dwattr $C$DW$370, DW_AT_accessibility(DW_ACCESS_public)
    4070              $C$DW$371       .dwtag  DW_TAG_member
    4071                      .dwattr $C$DW$371, DW_AT_type(*$C$DW$T$23)
    4072                      .dwattr $C$DW$371, DW_AT_name("USBSCR")
    4073                      .dwattr $C$DW$371, DW_AT_TI_symbol_name("_USBSCR")
    4074                      .dwattr $C$DW$371, DW_AT_data_member_location[DW_OP_plus_uconst 0x32]
    4075                      .dwattr $C$DW$371, DW_AT_accessibility(DW_ACCESS_public)
    4076              $C$DW$372       .dwtag  DW_TAG_member
    4077                      .dwattr $C$DW$372, DW_AT_type(*$C$DW$T$23)
    4078                      .dwattr $C$DW$372, DW_AT_name("ESCR")
    4079                      .dwattr $C$DW$372, DW_AT_TI_symbol_name("_ESCR")
    4080                      .dwattr $C$DW$372, DW_AT_data_member_location[DW_OP_plus_uconst 0x33]
    4081                      .dwattr $C$DW$372, DW_AT_accessibility(DW_ACCESS_public)
    4082              $C$DW$373       .dwtag  DW_TAG_member
    4083                      .dwattr $C$DW$373, DW_AT_type(*$C$DW$T$25)
    4084                      .dwattr $C$DW$373, DW_AT_name("RSVD7")
    4085                      .dwattr $C$DW$373, DW_AT_TI_symbol_name("_RSVD7")
    4086                      .dwattr $C$DW$373, DW_AT_data_member_location[DW_OP_plus_uconst 0x34]
    4087                      .dwattr $C$DW$373, DW_AT_accessibility(DW_ACCESS_public)
    4088              $C$DW$374       .dwtag  DW_TAG_member
    4089                      .dwattr $C$DW$374, DW_AT_type(*$C$DW$T$23)
    4090                      .dwattr $C$DW$374, DW_AT_name("DMA2CESR1")
    4091                      .dwattr $C$DW$374, DW_AT_TI_symbol_name("_DMA2CESR1")
    4092                      .dwattr $C$DW$374, DW_AT_data_member_location[DW_OP_plus_uconst 0x36]
    4093                      .dwattr $C$DW$374, DW_AT_accessibility(DW_ACCESS_public)
    4094              $C$DW$375       .dwtag  DW_TAG_member
    4095                      .dwattr $C$DW$375, DW_AT_type(*$C$DW$T$23)
    4096                      .dwattr $C$DW$375, DW_AT_name("DMA2CESR2")
    4097                      .dwattr $C$DW$375, DW_AT_TI_symbol_name("_DMA2CESR2")
    4098                      .dwattr $C$DW$375, DW_AT_data_member_location[DW_OP_plus_uconst 0x37]
    4099                      .dwattr $C$DW$375, DW_AT_accessibility(DW_ACCESS_public)
    4100              $C$DW$376       .dwtag  DW_TAG_member
    4101                      .dwattr $C$DW$376, DW_AT_type(*$C$DW$T$23)
    4102                      .dwattr $C$DW$376, DW_AT_name("DMA3CESR1")
    4103                      .dwattr $C$DW$376, DW_AT_TI_symbol_name("_DMA3CESR1")
    4104                      .dwattr $C$DW$376, DW_AT_data_member_location[DW_OP_plus_uconst 0x38]
TMS320C55x Assembler PC v4.4.1 Sun Sep 30 06:35:16 2018

Tools Copyright (c) 1996-2012 Texas Instruments Incorporated
main.asm                                                             PAGE   87

    4105                      .dwattr $C$DW$376, DW_AT_accessibility(DW_ACCESS_public)
    4106              $C$DW$377       .dwtag  DW_TAG_member
    4107                      .dwattr $C$DW$377, DW_AT_type(*$C$DW$T$23)
    4108                      .dwattr $C$DW$377, DW_AT_name("DMA3CESR2")
    4109                      .dwattr $C$DW$377, DW_AT_TI_symbol_name("_DMA3CESR2")
    4110                      .dwattr $C$DW$377, DW_AT_data_member_location[DW_OP_plus_uconst 0x39]
    4111                      .dwattr $C$DW$377, DW_AT_accessibility(DW_ACCESS_public)
    4112              $C$DW$378       .dwtag  DW_TAG_member
    4113                      .dwattr $C$DW$378, DW_AT_type(*$C$DW$T$23)
    4114                      .dwattr $C$DW$378, DW_AT_name("CLKSTOP")
    4115                      .dwattr $C$DW$378, DW_AT_TI_symbol_name("_CLKSTOP")
    4116                      .dwattr $C$DW$378, DW_AT_data_member_location[DW_OP_plus_uconst 0x3a]
    4117                      .dwattr $C$DW$378, DW_AT_accessibility(DW_ACCESS_public)
    4118              $C$DW$379       .dwtag  DW_TAG_member
    4119                      .dwattr $C$DW$379, DW_AT_type(*$C$DW$T$26)
    4120                      .dwattr $C$DW$379, DW_AT_name("RSVD8")
    4121                      .dwattr $C$DW$379, DW_AT_TI_symbol_name("_RSVD8")
    4122                      .dwattr $C$DW$379, DW_AT_data_member_location[DW_OP_plus_uconst 0x3b]
    4123                      .dwattr $C$DW$379, DW_AT_accessibility(DW_ACCESS_public)
    4124              $C$DW$380       .dwtag  DW_TAG_member
    4125                      .dwattr $C$DW$380, DW_AT_type(*$C$DW$T$23)
    4126                      .dwattr $C$DW$380, DW_AT_name("DIEIDR0")
    4127                      .dwattr $C$DW$380, DW_AT_TI_symbol_name("_DIEIDR0")
    4128                      .dwattr $C$DW$380, DW_AT_data_member_location[DW_OP_plus_uconst 0x40]
    4129                      .dwattr $C$DW$380, DW_AT_accessibility(DW_ACCESS_public)
    4130              $C$DW$381       .dwtag  DW_TAG_member
    4131                      .dwattr $C$DW$381, DW_AT_type(*$C$DW$T$23)
    4132                      .dwattr $C$DW$381, DW_AT_name("DIEIDR1")
    4133                      .dwattr $C$DW$381, DW_AT_TI_symbol_name("_DIEIDR1")
    4134                      .dwattr $C$DW$381, DW_AT_data_member_location[DW_OP_plus_uconst 0x41]
    4135                      .dwattr $C$DW$381, DW_AT_accessibility(DW_ACCESS_public)
    4136              $C$DW$382       .dwtag  DW_TAG_member
    4137                      .dwattr $C$DW$382, DW_AT_type(*$C$DW$T$23)
    4138                      .dwattr $C$DW$382, DW_AT_name("DIEIDR2")
    4139                      .dwattr $C$DW$382, DW_AT_TI_symbol_name("_DIEIDR2")
    4140                      .dwattr $C$DW$382, DW_AT_data_member_location[DW_OP_plus_uconst 0x42]
    4141                      .dwattr $C$DW$382, DW_AT_accessibility(DW_ACCESS_public)
    4142              $C$DW$383       .dwtag  DW_TAG_member
    4143                      .dwattr $C$DW$383, DW_AT_type(*$C$DW$T$23)
    4144                      .dwattr $C$DW$383, DW_AT_name("DIEIDR3")
    4145                      .dwattr $C$DW$383, DW_AT_TI_symbol_name("_DIEIDR3")
    4146                      .dwattr $C$DW$383, DW_AT_data_member_location[DW_OP_plus_uconst 0x43]
    4147                      .dwattr $C$DW$383, DW_AT_accessibility(DW_ACCESS_public)
    4148              $C$DW$384       .dwtag  DW_TAG_member
    4149                      .dwattr $C$DW$384, DW_AT_type(*$C$DW$T$23)
    4150                      .dwattr $C$DW$384, DW_AT_name("DIEIDR4")
    4151                      .dwattr $C$DW$384, DW_AT_TI_symbol_name("_DIEIDR4")
    4152                      .dwattr $C$DW$384, DW_AT_data_member_location[DW_OP_plus_uconst 0x44]
    4153                      .dwattr $C$DW$384, DW_AT_accessibility(DW_ACCESS_public)
    4154              $C$DW$385       .dwtag  DW_TAG_member
    4155                      .dwattr $C$DW$385, DW_AT_type(*$C$DW$T$23)
    4156                      .dwattr $C$DW$385, DW_AT_name("DIEIDR5")
    4157                      .dwattr $C$DW$385, DW_AT_TI_symbol_name("_DIEIDR5")
    4158                      .dwattr $C$DW$385, DW_AT_data_member_location[DW_OP_plus_uconst 0x45]
    4159                      .dwattr $C$DW$385, DW_AT_accessibility(DW_ACCESS_public)
TMS320C55x Assembler PC v4.4.1 Sun Sep 30 06:35:16 2018

Tools Copyright (c) 1996-2012 Texas Instruments Incorporated
main.asm                                                             PAGE   88

    4160              $C$DW$386       .dwtag  DW_TAG_member
    4161                      .dwattr $C$DW$386, DW_AT_type(*$C$DW$T$23)
    4162                      .dwattr $C$DW$386, DW_AT_name("DIEIDR6")
    4163                      .dwattr $C$DW$386, DW_AT_TI_symbol_name("_DIEIDR6")
    4164                      .dwattr $C$DW$386, DW_AT_data_member_location[DW_OP_plus_uconst 0x46]
    4165                      .dwattr $C$DW$386, DW_AT_accessibility(DW_ACCESS_public)
    4166              $C$DW$387       .dwtag  DW_TAG_member
    4167                      .dwattr $C$DW$387, DW_AT_type(*$C$DW$T$23)
    4168                      .dwattr $C$DW$387, DW_AT_name("DIEIDR7")
    4169                      .dwattr $C$DW$387, DW_AT_TI_symbol_name("_DIEIDR7")
    4170                      .dwattr $C$DW$387, DW_AT_data_member_location[DW_OP_plus_uconst 0x47]
    4171                      .dwattr $C$DW$387, DW_AT_accessibility(DW_ACCESS_public)
    4172                      .dwendtag $C$DW$T$27
    4173              
    4174              $C$DW$T$31      .dwtag  DW_TAG_typedef, DW_AT_name("CSL_SysRegs")
    4175                      .dwattr $C$DW$T$31, DW_AT_type(*$C$DW$T$27)
    4176                      .dwattr $C$DW$T$31, DW_AT_language(DW_LANG_C)
    4177              $C$DW$388       .dwtag  DW_TAG_TI_far_type
    4178                      .dwattr $C$DW$388, DW_AT_type(*$C$DW$T$31)
    4179              $C$DW$389       .dwtag  DW_TAG_TI_ioport_type
    4180                      .dwattr $C$DW$389, DW_AT_type(*$C$DW$388)
    4181              $C$DW$T$32      .dwtag  DW_TAG_volatile_type
    4182                      .dwattr $C$DW$T$32, DW_AT_type(*$C$DW$389)
    4183              $C$DW$T$33      .dwtag  DW_TAG_pointer_type
    4184                      .dwattr $C$DW$T$33, DW_AT_type(*$C$DW$T$32)
    4185                      .dwattr $C$DW$T$33, DW_AT_address_class(0x10)
    4186              $C$DW$T$34      .dwtag  DW_TAG_typedef, DW_AT_name("CSL_SysRegsOvly")
    4187                      .dwattr $C$DW$T$34, DW_AT_type(*$C$DW$T$33)
    4188                      .dwattr $C$DW$T$34, DW_AT_language(DW_LANG_C)
    4189              
    4190              $C$DW$T$35      .dwtag  DW_TAG_structure_type
    4191                      .dwattr $C$DW$T$35, DW_AT_name("PLL_Obj")
    4192                      .dwattr $C$DW$T$35, DW_AT_byte_size(0x06)
    4193              $C$DW$390       .dwtag  DW_TAG_member
    4194                      .dwattr $C$DW$390, DW_AT_type(*$C$DW$T$29)
    4195                      .dwattr $C$DW$390, DW_AT_name("pllConfig")
    4196                      .dwattr $C$DW$390, DW_AT_TI_symbol_name("_pllConfig")
    4197                      .dwattr $C$DW$390, DW_AT_data_member_location[DW_OP_plus_uconst 0x0]
    4198                      .dwattr $C$DW$390, DW_AT_accessibility(DW_ACCESS_public)
    4199              $C$DW$391       .dwtag  DW_TAG_member
    4200                      .dwattr $C$DW$391, DW_AT_type(*$C$DW$T$30)
    4201                      .dwattr $C$DW$391, DW_AT_name("instId")
    4202                      .dwattr $C$DW$391, DW_AT_TI_symbol_name("_instId")
    4203                      .dwattr $C$DW$391, DW_AT_data_member_location[DW_OP_plus_uconst 0x2]
    4204                      .dwattr $C$DW$391, DW_AT_accessibility(DW_ACCESS_public)
    4205              $C$DW$392       .dwtag  DW_TAG_member
    4206                      .dwattr $C$DW$392, DW_AT_type(*$C$DW$T$34)
    4207                      .dwattr $C$DW$392, DW_AT_name("sysAddr")
    4208                      .dwattr $C$DW$392, DW_AT_TI_symbol_name("_sysAddr")
    4209                      .dwattr $C$DW$392, DW_AT_data_member_location[DW_OP_plus_uconst 0x4]
    4210                      .dwattr $C$DW$392, DW_AT_accessibility(DW_ACCESS_public)
    4211                      .dwendtag $C$DW$T$35
    4212              
    4213              $C$DW$T$37      .dwtag  DW_TAG_typedef, DW_AT_name("PLL_Obj")
    4214                      .dwattr $C$DW$T$37, DW_AT_type(*$C$DW$T$35)
TMS320C55x Assembler PC v4.4.1 Sun Sep 30 06:35:16 2018

Tools Copyright (c) 1996-2012 Texas Instruments Incorporated
main.asm                                                             PAGE   89

    4215                      .dwattr $C$DW$T$37, DW_AT_language(DW_LANG_C)
    4216              $C$DW$T$38      .dwtag  DW_TAG_pointer_type
    4217                      .dwattr $C$DW$T$38, DW_AT_type(*$C$DW$T$37)
    4218                      .dwattr $C$DW$T$38, DW_AT_address_class(0x17)
    4219              $C$DW$T$39      .dwtag  DW_TAG_pointer_type
    4220                      .dwattr $C$DW$T$39, DW_AT_type(*$C$DW$T$35)
    4221                      .dwattr $C$DW$T$39, DW_AT_address_class(0x17)
    4222              $C$DW$T$40      .dwtag  DW_TAG_typedef, DW_AT_name("PLL_Handle")
    4223                      .dwattr $C$DW$T$40, DW_AT_type(*$C$DW$T$39)
    4224                      .dwattr $C$DW$T$40, DW_AT_language(DW_LANG_C)
    4225              
    4226              $C$DW$T$19      .dwtag  DW_TAG_structure_type
    4227                      .dwattr $C$DW$T$19, DW_AT_name("QueueDefinition")
    4228                      .dwattr $C$DW$T$19, DW_AT_declaration
    4229                      .dwendtag $C$DW$T$19
    4230              
    4231              $C$DW$T$41      .dwtag  DW_TAG_pointer_type
    4232                      .dwattr $C$DW$T$41, DW_AT_type(*$C$DW$T$19)
    4233                      .dwattr $C$DW$T$41, DW_AT_address_class(0x17)
    4234              $C$DW$T$42      .dwtag  DW_TAG_typedef, DW_AT_name("QueueHandle_t")
    4235                      .dwattr $C$DW$T$42, DW_AT_type(*$C$DW$T$41)
    4236                      .dwattr $C$DW$T$42, DW_AT_language(DW_LANG_C)
    4237              $C$DW$T$43      .dwtag  DW_TAG_typedef, DW_AT_name("SemaphoreHandle_t")
    4238                      .dwattr $C$DW$T$43, DW_AT_type(*$C$DW$T$42)
    4239                      .dwattr $C$DW$T$43, DW_AT_language(DW_LANG_C)
    4240              $C$DW$T$3       .dwtag  DW_TAG_pointer_type
    4241                      .dwattr $C$DW$T$3, DW_AT_address_class(0x17)
    4242              $C$DW$393       .dwtag  DW_TAG_TI_far_type
    4243                      .dwattr $C$DW$393, DW_AT_type(*$C$DW$T$3)
    4244              $C$DW$T$50      .dwtag  DW_TAG_const_type
    4245                      .dwattr $C$DW$T$50, DW_AT_type(*$C$DW$393)
    4246              
    4247              $C$DW$T$51      .dwtag  DW_TAG_subroutine_type
    4248                      .dwattr $C$DW$T$51, DW_AT_language(DW_LANG_C)
    4249              $C$DW$394       .dwtag  DW_TAG_formal_parameter
    4250                      .dwattr $C$DW$394, DW_AT_type(*$C$DW$T$3)
    4251                      .dwendtag $C$DW$T$51
    4252              
    4253              $C$DW$T$52      .dwtag  DW_TAG_pointer_type
    4254                      .dwattr $C$DW$T$52, DW_AT_type(*$C$DW$T$51)
    4255                      .dwattr $C$DW$T$52, DW_AT_address_class(0x20)
    4256              $C$DW$T$53      .dwtag  DW_TAG_typedef, DW_AT_name("TaskFunction_t")
    4257                      .dwattr $C$DW$T$53, DW_AT_type(*$C$DW$T$52)
    4258                      .dwattr $C$DW$T$53, DW_AT_language(DW_LANG_C)
    4259              $C$DW$395       .dwtag  DW_TAG_TI_far_type
    4260              $C$DW$T$64      .dwtag  DW_TAG_const_type
    4261                      .dwattr $C$DW$T$64, DW_AT_type(*$C$DW$395)
    4262              $C$DW$T$65      .dwtag  DW_TAG_pointer_type
    4263                      .dwattr $C$DW$T$65, DW_AT_type(*$C$DW$T$64)
    4264                      .dwattr $C$DW$T$65, DW_AT_address_class(0x17)
    4265              $C$DW$396       .dwtag  DW_TAG_TI_far_type
    4266                      .dwattr $C$DW$396, DW_AT_type(*$C$DW$T$65)
    4267              $C$DW$T$66      .dwtag  DW_TAG_const_type
    4268                      .dwattr $C$DW$T$66, DW_AT_type(*$C$DW$396)
    4269              $C$DW$T$4       .dwtag  DW_TAG_base_type
TMS320C55x Assembler PC v4.4.1 Sun Sep 30 06:35:16 2018

Tools Copyright (c) 1996-2012 Texas Instruments Incorporated
main.asm                                                             PAGE   90

    4270                      .dwattr $C$DW$T$4, DW_AT_encoding(DW_ATE_boolean)
    4271                      .dwattr $C$DW$T$4, DW_AT_name("bool")
    4272                      .dwattr $C$DW$T$4, DW_AT_byte_size(0x01)
    4273              $C$DW$T$5       .dwtag  DW_TAG_base_type
    4274                      .dwattr $C$DW$T$5, DW_AT_encoding(DW_ATE_signed_char)
    4275                      .dwattr $C$DW$T$5, DW_AT_name("signed char")
    4276                      .dwattr $C$DW$T$5, DW_AT_byte_size(0x01)
    4277              $C$DW$T$6       .dwtag  DW_TAG_base_type
    4278                      .dwattr $C$DW$T$6, DW_AT_encoding(DW_ATE_unsigned_char)
    4279                      .dwattr $C$DW$T$6, DW_AT_name("unsigned char")
    4280                      .dwattr $C$DW$T$6, DW_AT_byte_size(0x01)
    4281              $C$DW$T$70      .dwtag  DW_TAG_typedef, DW_AT_name("Uint8")
    4282                      .dwattr $C$DW$T$70, DW_AT_type(*$C$DW$T$6)
    4283                      .dwattr $C$DW$T$70, DW_AT_language(DW_LANG_C)
    4284              $C$DW$T$46      .dwtag  DW_TAG_typedef, DW_AT_name("uint8_t")
    4285                      .dwattr $C$DW$T$46, DW_AT_type(*$C$DW$T$6)
    4286                      .dwattr $C$DW$T$46, DW_AT_language(DW_LANG_C)
    4287              $C$DW$397       .dwtag  DW_TAG_TI_far_type
    4288                      .dwattr $C$DW$397, DW_AT_type(*$C$DW$T$46)
    4289              $C$DW$T$47      .dwtag  DW_TAG_const_type
    4290                      .dwattr $C$DW$T$47, DW_AT_type(*$C$DW$397)
    4291              $C$DW$T$7       .dwtag  DW_TAG_base_type
    4292                      .dwattr $C$DW$T$7, DW_AT_encoding(DW_ATE_signed_char)
    4293                      .dwattr $C$DW$T$7, DW_AT_name("wchar_t")
    4294                      .dwattr $C$DW$T$7, DW_AT_byte_size(0x01)
    4295              $C$DW$T$8       .dwtag  DW_TAG_base_type
    4296                      .dwattr $C$DW$T$8, DW_AT_encoding(DW_ATE_signed)
    4297                      .dwattr $C$DW$T$8, DW_AT_name("short")
    4298                      .dwattr $C$DW$T$8, DW_AT_byte_size(0x01)
    4299              $C$DW$T$73      .dwtag  DW_TAG_typedef, DW_AT_name("BaseType_t")
    4300                      .dwattr $C$DW$T$73, DW_AT_type(*$C$DW$T$8)
    4301                      .dwattr $C$DW$T$73, DW_AT_language(DW_LANG_C)
    4302              $C$DW$398       .dwtag  DW_TAG_TI_far_type
    4303                      .dwattr $C$DW$398, DW_AT_type(*$C$DW$T$73)
    4304              $C$DW$T$74      .dwtag  DW_TAG_const_type
    4305                      .dwattr $C$DW$T$74, DW_AT_type(*$C$DW$398)
    4306              $C$DW$T$88      .dwtag  DW_TAG_typedef, DW_AT_name("Int16")
    4307                      .dwattr $C$DW$T$88, DW_AT_type(*$C$DW$T$8)
    4308                      .dwattr $C$DW$T$88, DW_AT_language(DW_LANG_C)
    4309              $C$DW$T$89      .dwtag  DW_TAG_typedef, DW_AT_name("CSL_Status")
    4310                      .dwattr $C$DW$T$89, DW_AT_type(*$C$DW$T$88)
    4311                      .dwattr $C$DW$T$89, DW_AT_language(DW_LANG_C)
    4312              $C$DW$T$9       .dwtag  DW_TAG_base_type
    4313                      .dwattr $C$DW$T$9, DW_AT_encoding(DW_ATE_unsigned)
    4314                      .dwattr $C$DW$T$9, DW_AT_name("unsigned short")
    4315                      .dwattr $C$DW$T$9, DW_AT_byte_size(0x01)
    4316              $C$DW$T$44      .dwtag  DW_TAG_typedef, DW_AT_name("UBaseType_t")
    4317                      .dwattr $C$DW$T$44, DW_AT_type(*$C$DW$T$9)
    4318                      .dwattr $C$DW$T$44, DW_AT_language(DW_LANG_C)
    4319              $C$DW$399       .dwtag  DW_TAG_TI_far_type
    4320                      .dwattr $C$DW$399, DW_AT_type(*$C$DW$T$44)
    4321              $C$DW$T$45      .dwtag  DW_TAG_const_type
    4322                      .dwattr $C$DW$T$45, DW_AT_type(*$C$DW$399)
    4323              $C$DW$T$21      .dwtag  DW_TAG_typedef, DW_AT_name("Uint16")
    4324                      .dwattr $C$DW$T$21, DW_AT_type(*$C$DW$T$9)
TMS320C55x Assembler PC v4.4.1 Sun Sep 30 06:35:16 2018

Tools Copyright (c) 1996-2012 Texas Instruments Incorporated
main.asm                                                             PAGE   91

    4325                      .dwattr $C$DW$T$21, DW_AT_language(DW_LANG_C)
    4326              $C$DW$400       .dwtag  DW_TAG_TI_far_type
    4327                      .dwattr $C$DW$400, DW_AT_type(*$C$DW$T$21)
    4328              $C$DW$T$23      .dwtag  DW_TAG_volatile_type
    4329                      .dwattr $C$DW$T$23, DW_AT_type(*$C$DW$400)
    4330              
    4331              $C$DW$T$24      .dwtag  DW_TAG_array_type
    4332                      .dwattr $C$DW$T$24, DW_AT_type(*$C$DW$T$23)
    4333                      .dwattr $C$DW$T$24, DW_AT_language(DW_LANG_C)
    4334                      .dwattr $C$DW$T$24, DW_AT_byte_size(0x0e)
    4335              $C$DW$401       .dwtag  DW_TAG_subrange_type
    4336                      .dwattr $C$DW$401, DW_AT_upper_bound(0x0d)
    4337                      .dwendtag $C$DW$T$24
    4338              
    4339              
    4340              $C$DW$T$25      .dwtag  DW_TAG_array_type
    4341                      .dwattr $C$DW$T$25, DW_AT_type(*$C$DW$T$23)
    4342                      .dwattr $C$DW$T$25, DW_AT_language(DW_LANG_C)
    4343                      .dwattr $C$DW$T$25, DW_AT_byte_size(0x02)
    4344              $C$DW$402       .dwtag  DW_TAG_subrange_type
    4345                      .dwattr $C$DW$402, DW_AT_upper_bound(0x01)
    4346                      .dwendtag $C$DW$T$25
    4347              
    4348              
    4349              $C$DW$T$26      .dwtag  DW_TAG_array_type
    4350                      .dwattr $C$DW$T$26, DW_AT_type(*$C$DW$T$23)
    4351                      .dwattr $C$DW$T$26, DW_AT_language(DW_LANG_C)
    4352                      .dwattr $C$DW$T$26, DW_AT_byte_size(0x05)
    4353              $C$DW$403       .dwtag  DW_TAG_subrange_type
    4354                      .dwattr $C$DW$403, DW_AT_upper_bound(0x04)
    4355                      .dwendtag $C$DW$T$26
    4356              
    4357              $C$DW$T$10      .dwtag  DW_TAG_base_type
    4358                      .dwattr $C$DW$T$10, DW_AT_encoding(DW_ATE_signed)
    4359                      .dwattr $C$DW$T$10, DW_AT_name("int")
    4360                      .dwattr $C$DW$T$10, DW_AT_byte_size(0x01)
    4361              $C$DW$T$11      .dwtag  DW_TAG_base_type
    4362                      .dwattr $C$DW$T$11, DW_AT_encoding(DW_ATE_unsigned)
    4363                      .dwattr $C$DW$T$11, DW_AT_name("unsigned int")
    4364                      .dwattr $C$DW$T$11, DW_AT_byte_size(0x01)
    4365              $C$DW$T$78      .dwtag  DW_TAG_typedef, DW_AT_name("uint16_t")
    4366                      .dwattr $C$DW$T$78, DW_AT_type(*$C$DW$T$11)
    4367                      .dwattr $C$DW$T$78, DW_AT_language(DW_LANG_C)
    4368              $C$DW$404       .dwtag  DW_TAG_TI_far_type
    4369                      .dwattr $C$DW$404, DW_AT_type(*$C$DW$T$78)
    4370              $C$DW$T$79      .dwtag  DW_TAG_const_type
    4371                      .dwattr $C$DW$T$79, DW_AT_type(*$C$DW$404)
    4372              $C$DW$T$12      .dwtag  DW_TAG_base_type
    4373                      .dwattr $C$DW$T$12, DW_AT_encoding(DW_ATE_signed)
    4374                      .dwattr $C$DW$T$12, DW_AT_name("long")
    4375                      .dwattr $C$DW$T$12, DW_AT_byte_size(0x02)
    4376              $C$DW$T$13      .dwtag  DW_TAG_base_type
    4377                      .dwattr $C$DW$T$13, DW_AT_encoding(DW_ATE_unsigned)
    4378                      .dwattr $C$DW$T$13, DW_AT_name("unsigned long")
    4379                      .dwattr $C$DW$T$13, DW_AT_byte_size(0x02)
TMS320C55x Assembler PC v4.4.1 Sun Sep 30 06:35:16 2018

Tools Copyright (c) 1996-2012 Texas Instruments Incorporated
main.asm                                                             PAGE   92

    4380              $C$DW$T$54      .dwtag  DW_TAG_typedef, DW_AT_name("TickType_t")
    4381                      .dwattr $C$DW$T$54, DW_AT_type(*$C$DW$T$13)
    4382                      .dwattr $C$DW$T$54, DW_AT_language(DW_LANG_C)
    4383              $C$DW$405       .dwtag  DW_TAG_TI_far_type
    4384                      .dwattr $C$DW$405, DW_AT_type(*$C$DW$T$54)
    4385              $C$DW$T$55      .dwtag  DW_TAG_const_type
    4386                      .dwattr $C$DW$T$55, DW_AT_type(*$C$DW$405)
    4387              $C$DW$T$30      .dwtag  DW_TAG_typedef, DW_AT_name("Uint32")
    4388                      .dwattr $C$DW$T$30, DW_AT_type(*$C$DW$T$13)
    4389                      .dwattr $C$DW$T$30, DW_AT_language(DW_LANG_C)
    4390              $C$DW$406       .dwtag  DW_TAG_TI_far_type
    4391                      .dwattr $C$DW$406, DW_AT_type(*$C$DW$T$13)
    4392              $C$DW$T$114     .dwtag  DW_TAG_volatile_type
    4393                      .dwattr $C$DW$T$114, DW_AT_type(*$C$DW$406)
    4394              $C$DW$T$14      .dwtag  DW_TAG_base_type
    4395                      .dwattr $C$DW$T$14, DW_AT_encoding(DW_ATE_signed)
    4396                      .dwattr $C$DW$T$14, DW_AT_name("long long")
    4397                      .dwattr $C$DW$T$14, DW_AT_byte_size(0x04)
    4398                      .dwattr $C$DW$T$14, DW_AT_bit_size(0x28)
    4399                      .dwattr $C$DW$T$14, DW_AT_bit_offset(0x18)
    4400              $C$DW$T$15      .dwtag  DW_TAG_base_type
    4401                      .dwattr $C$DW$T$15, DW_AT_encoding(DW_ATE_unsigned)
    4402                      .dwattr $C$DW$T$15, DW_AT_name("unsigned long long")
    4403                      .dwattr $C$DW$T$15, DW_AT_byte_size(0x04)
    4404                      .dwattr $C$DW$T$15, DW_AT_bit_size(0x28)
    4405                      .dwattr $C$DW$T$15, DW_AT_bit_offset(0x18)
    4406              $C$DW$T$16      .dwtag  DW_TAG_base_type
    4407                      .dwattr $C$DW$T$16, DW_AT_encoding(DW_ATE_float)
    4408                      .dwattr $C$DW$T$16, DW_AT_name("float")
    4409                      .dwattr $C$DW$T$16, DW_AT_byte_size(0x02)
    4410              $C$DW$T$17      .dwtag  DW_TAG_base_type
    4411                      .dwattr $C$DW$T$17, DW_AT_encoding(DW_ATE_float)
    4412                      .dwattr $C$DW$T$17, DW_AT_name("double")
    4413                      .dwattr $C$DW$T$17, DW_AT_byte_size(0x02)
    4414              $C$DW$T$18      .dwtag  DW_TAG_base_type
    4415                      .dwattr $C$DW$T$18, DW_AT_encoding(DW_ATE_float)
    4416                      .dwattr $C$DW$T$18, DW_AT_name("long double")
    4417                      .dwattr $C$DW$T$18, DW_AT_byte_size(0x02)
    4418              $C$DW$T$67      .dwtag  DW_TAG_base_type
    4419                      .dwattr $C$DW$T$67, DW_AT_encoding(DW_ATE_signed_char)
    4420                      .dwattr $C$DW$T$67, DW_AT_name("signed char")
    4421                      .dwattr $C$DW$T$67, DW_AT_byte_size(0x01)
    4422              $C$DW$T$68      .dwtag  DW_TAG_pointer_type
    4423                      .dwattr $C$DW$T$68, DW_AT_type(*$C$DW$T$67)
    4424                      .dwattr $C$DW$T$68, DW_AT_address_class(0x17)
    4425              $C$DW$407       .dwtag  DW_TAG_TI_far_type
    4426                      .dwattr $C$DW$407, DW_AT_type(*$C$DW$T$67)
    4427              $C$DW$T$75      .dwtag  DW_TAG_const_type
    4428                      .dwattr $C$DW$T$75, DW_AT_type(*$C$DW$407)
    4429              $C$DW$T$76      .dwtag  DW_TAG_pointer_type
    4430                      .dwattr $C$DW$T$76, DW_AT_type(*$C$DW$T$75)
    4431                      .dwattr $C$DW$T$76, DW_AT_address_class(0x17)
    4432              $C$DW$408       .dwtag  DW_TAG_TI_far_type
    4433                      .dwattr $C$DW$408, DW_AT_type(*$C$DW$T$76)
    4434              $C$DW$T$77      .dwtag  DW_TAG_const_type
TMS320C55x Assembler PC v4.4.1 Sun Sep 30 06:35:16 2018

Tools Copyright (c) 1996-2012 Texas Instruments Incorporated
main.asm                                                             PAGE   93

    4435                      .dwattr $C$DW$T$77, DW_AT_type(*$C$DW$408)
    4436              
    4437              $C$DW$T$20      .dwtag  DW_TAG_structure_type
    4438                      .dwattr $C$DW$T$20, DW_AT_name("tskTaskControlBlock")
    4439                      .dwattr $C$DW$T$20, DW_AT_declaration
    4440                      .dwendtag $C$DW$T$20
    4441              
    4442              $C$DW$T$58      .dwtag  DW_TAG_pointer_type
    4443                      .dwattr $C$DW$T$58, DW_AT_type(*$C$DW$T$20)
    4444                      .dwattr $C$DW$T$58, DW_AT_address_class(0x17)
    4445              $C$DW$T$59      .dwtag  DW_TAG_typedef, DW_AT_name("TaskHandle_t")
    4446                      .dwattr $C$DW$T$59, DW_AT_type(*$C$DW$T$58)
    4447                      .dwattr $C$DW$T$59, DW_AT_language(DW_LANG_C)
    4448              $C$DW$T$80      .dwtag  DW_TAG_pointer_type
    4449                      .dwattr $C$DW$T$80, DW_AT_type(*$C$DW$T$59)
    4450                      .dwattr $C$DW$T$80, DW_AT_address_class(0x17)
    4451              $C$DW$409       .dwtag  DW_TAG_TI_far_type
    4452                      .dwattr $C$DW$409, DW_AT_type(*$C$DW$T$80)
    4453              $C$DW$T$81      .dwtag  DW_TAG_const_type
    4454                      .dwattr $C$DW$T$81, DW_AT_type(*$C$DW$409)
    4455                      .dwattr $C$DW$CU, DW_AT_language(DW_LANG_C)
    4456              
    4457              ;***************************************************************
    4458              ;* DWARF CIE ENTRIES                                           *
    4459              ;***************************************************************
    4460              
    4461              $C$DW$CIE       .dwcie 91
    4462                      .dwcfi  cfa_register, 36
    4463                      .dwcfi  cfa_offset, 0
    4464                      .dwcfi  undefined, 0
    4465                      .dwcfi  undefined, 1
    4466                      .dwcfi  undefined, 2
    4467                      .dwcfi  undefined, 3
    4468                      .dwcfi  undefined, 4
    4469                      .dwcfi  undefined, 5
    4470                      .dwcfi  undefined, 6
    4471                      .dwcfi  undefined, 7
    4472                      .dwcfi  undefined, 8
    4473                      .dwcfi  undefined, 9
    4474                      .dwcfi  undefined, 10
    4475                      .dwcfi  undefined, 11
    4476                      .dwcfi  undefined, 12
    4477                      .dwcfi  undefined, 13
    4478                      .dwcfi  same_value, 14
    4479                      .dwcfi  same_value, 15
    4480                      .dwcfi  undefined, 16
    4481                      .dwcfi  undefined, 17
    4482                      .dwcfi  undefined, 18
    4483                      .dwcfi  undefined, 19
    4484                      .dwcfi  undefined, 20
    4485                      .dwcfi  undefined, 21
    4486                      .dwcfi  undefined, 22
    4487                      .dwcfi  undefined, 23
    4488                      .dwcfi  undefined, 24
    4489                      .dwcfi  undefined, 25
TMS320C55x Assembler PC v4.4.1 Sun Sep 30 06:35:16 2018

Tools Copyright (c) 1996-2012 Texas Instruments Incorporated
main.asm                                                             PAGE   94

    4490                      .dwcfi  same_value, 26
    4491                      .dwcfi  same_value, 27
    4492                      .dwcfi  same_value, 28
    4493                      .dwcfi  same_value, 29
    4494                      .dwcfi  same_value, 30
    4495                      .dwcfi  same_value, 31
    4496                      .dwcfi  undefined, 32
    4497                      .dwcfi  undefined, 33
    4498                      .dwcfi  undefined, 34
    4499                      .dwcfi  undefined, 35
    4500                      .dwcfi  undefined, 36
    4501                      .dwcfi  undefined, 37
    4502                      .dwcfi  undefined, 38
    4503                      .dwcfi  undefined, 39
    4504                      .dwcfi  undefined, 40
    4505                      .dwcfi  undefined, 41
    4506                      .dwcfi  undefined, 42
    4507                      .dwcfi  undefined, 43
    4508                      .dwcfi  undefined, 44
    4509                      .dwcfi  undefined, 45
    4510                      .dwcfi  undefined, 46
    4511                      .dwcfi  undefined, 47
    4512                      .dwcfi  undefined, 48
    4513                      .dwcfi  undefined, 49
    4514                      .dwcfi  undefined, 50
    4515                      .dwcfi  undefined, 51
    4516                      .dwcfi  undefined, 52
    4517                      .dwcfi  undefined, 53
    4518                      .dwcfi  undefined, 54
    4519                      .dwcfi  undefined, 55
    4520                      .dwcfi  undefined, 56
    4521                      .dwcfi  undefined, 57
    4522                      .dwcfi  undefined, 58
    4523                      .dwcfi  undefined, 59
    4524                      .dwcfi  undefined, 60
    4525                      .dwcfi  undefined, 61
    4526                      .dwcfi  undefined, 62
    4527                      .dwcfi  undefined, 63
    4528                      .dwcfi  undefined, 64
    4529                      .dwcfi  undefined, 65
    4530                      .dwcfi  undefined, 66
    4531                      .dwcfi  undefined, 67
    4532                      .dwcfi  undefined, 68
    4533                      .dwcfi  undefined, 69
    4534                      .dwcfi  undefined, 70
    4535                      .dwcfi  undefined, 71
    4536                      .dwcfi  undefined, 72
    4537                      .dwcfi  undefined, 73
    4538                      .dwcfi  undefined, 74
    4539                      .dwcfi  undefined, 75
    4540                      .dwcfi  undefined, 76
    4541                      .dwcfi  undefined, 77
    4542                      .dwcfi  undefined, 78
    4543                      .dwcfi  undefined, 79
    4544                      .dwcfi  undefined, 80
TMS320C55x Assembler PC v4.4.1 Sun Sep 30 06:35:16 2018

Tools Copyright (c) 1996-2012 Texas Instruments Incorporated
main.asm                                                             PAGE   95

    4545                      .dwcfi  undefined, 81
    4546                      .dwcfi  undefined, 82
    4547                      .dwcfi  undefined, 83
    4548                      .dwcfi  undefined, 84
    4549                      .dwcfi  undefined, 85
    4550                      .dwcfi  undefined, 86
    4551                      .dwcfi  undefined, 87
    4552                      .dwcfi  undefined, 88
    4553                      .dwcfi  undefined, 89
    4554                      .dwcfi  undefined, 90
    4555                      .dwcfi  undefined, 91
    4556                      .dwendentry
    4557              
    4558              ;***************************************************************
    4559              ;* DWARF REGISTER MAP                                          *
    4560              ;***************************************************************
    4561              
    4562              $C$DW$410       .dwtag  DW_TAG_TI_assign_register, DW_AT_name("AC0")
    4563                      .dwattr $C$DW$410, DW_AT_location[DW_OP_reg0]
    4564              $C$DW$411       .dwtag  DW_TAG_TI_assign_register, DW_AT_name("AC0")
    4565                      .dwattr $C$DW$411, DW_AT_location[DW_OP_reg1]
    4566              $C$DW$412       .dwtag  DW_TAG_TI_assign_register, DW_AT_name("AC0_G")
    4567                      .dwattr $C$DW$412, DW_AT_location[DW_OP_reg2]
    4568              $C$DW$413       .dwtag  DW_TAG_TI_assign_register, DW_AT_name("AC1")
    4569                      .dwattr $C$DW$413, DW_AT_location[DW_OP_reg3]
    4570              $C$DW$414       .dwtag  DW_TAG_TI_assign_register, DW_AT_name("AC1")
    4571                      .dwattr $C$DW$414, DW_AT_location[DW_OP_reg4]
    4572              $C$DW$415       .dwtag  DW_TAG_TI_assign_register, DW_AT_name("AC1_G")
    4573                      .dwattr $C$DW$415, DW_AT_location[DW_OP_reg5]
    4574              $C$DW$416       .dwtag  DW_TAG_TI_assign_register, DW_AT_name("AC2")
    4575                      .dwattr $C$DW$416, DW_AT_location[DW_OP_reg6]
    4576              $C$DW$417       .dwtag  DW_TAG_TI_assign_register, DW_AT_name("AC2")
    4577                      .dwattr $C$DW$417, DW_AT_location[DW_OP_reg7]
    4578              $C$DW$418       .dwtag  DW_TAG_TI_assign_register, DW_AT_name("AC2_G")
    4579                      .dwattr $C$DW$418, DW_AT_location[DW_OP_reg8]
    4580              $C$DW$419       .dwtag  DW_TAG_TI_assign_register, DW_AT_name("AC3")
    4581                      .dwattr $C$DW$419, DW_AT_location[DW_OP_reg9]
    4582              $C$DW$420       .dwtag  DW_TAG_TI_assign_register, DW_AT_name("AC3")
    4583                      .dwattr $C$DW$420, DW_AT_location[DW_OP_reg10]
    4584              $C$DW$421       .dwtag  DW_TAG_TI_assign_register, DW_AT_name("AC3_G")
    4585                      .dwattr $C$DW$421, DW_AT_location[DW_OP_reg11]
    4586              $C$DW$422       .dwtag  DW_TAG_TI_assign_register, DW_AT_name("T0")
    4587                      .dwattr $C$DW$422, DW_AT_location[DW_OP_reg12]
    4588              $C$DW$423       .dwtag  DW_TAG_TI_assign_register, DW_AT_name("T1")
    4589                      .dwattr $C$DW$423, DW_AT_location[DW_OP_reg13]
    4590              $C$DW$424       .dwtag  DW_TAG_TI_assign_register, DW_AT_name("T2")
    4591                      .dwattr $C$DW$424, DW_AT_location[DW_OP_reg14]
    4592              $C$DW$425       .dwtag  DW_TAG_TI_assign_register, DW_AT_name("T3")
    4593                      .dwattr $C$DW$425, DW_AT_location[DW_OP_reg15]
    4594              $C$DW$426       .dwtag  DW_TAG_TI_assign_register, DW_AT_name("AR0")
    4595                      .dwattr $C$DW$426, DW_AT_location[DW_OP_reg16]
    4596              $C$DW$427       .dwtag  DW_TAG_TI_assign_register, DW_AT_name("XAR0")
    4597                      .dwattr $C$DW$427, DW_AT_location[DW_OP_reg17]
    4598              $C$DW$428       .dwtag  DW_TAG_TI_assign_register, DW_AT_name("AR1")
    4599                      .dwattr $C$DW$428, DW_AT_location[DW_OP_reg18]
TMS320C55x Assembler PC v4.4.1 Sun Sep 30 06:35:16 2018

Tools Copyright (c) 1996-2012 Texas Instruments Incorporated
main.asm                                                             PAGE   96

    4600              $C$DW$429       .dwtag  DW_TAG_TI_assign_register, DW_AT_name("XAR1")
    4601                      .dwattr $C$DW$429, DW_AT_location[DW_OP_reg19]
    4602              $C$DW$430       .dwtag  DW_TAG_TI_assign_register, DW_AT_name("AR2")
    4603                      .dwattr $C$DW$430, DW_AT_location[DW_OP_reg20]
    4604              $C$DW$431       .dwtag  DW_TAG_TI_assign_register, DW_AT_name("XAR2")
    4605                      .dwattr $C$DW$431, DW_AT_location[DW_OP_reg21]
    4606              $C$DW$432       .dwtag  DW_TAG_TI_assign_register, DW_AT_name("AR3")
    4607                      .dwattr $C$DW$432, DW_AT_location[DW_OP_reg22]
    4608              $C$DW$433       .dwtag  DW_TAG_TI_assign_register, DW_AT_name("XAR3")
    4609                      .dwattr $C$DW$433, DW_AT_location[DW_OP_reg23]
    4610              $C$DW$434       .dwtag  DW_TAG_TI_assign_register, DW_AT_name("AR4")
    4611                      .dwattr $C$DW$434, DW_AT_location[DW_OP_reg24]
    4612              $C$DW$435       .dwtag  DW_TAG_TI_assign_register, DW_AT_name("XAR4")
    4613                      .dwattr $C$DW$435, DW_AT_location[DW_OP_reg25]
    4614              $C$DW$436       .dwtag  DW_TAG_TI_assign_register, DW_AT_name("AR5")
    4615                      .dwattr $C$DW$436, DW_AT_location[DW_OP_reg26]
    4616              $C$DW$437       .dwtag  DW_TAG_TI_assign_register, DW_AT_name("XAR5")
    4617                      .dwattr $C$DW$437, DW_AT_location[DW_OP_reg27]
    4618              $C$DW$438       .dwtag  DW_TAG_TI_assign_register, DW_AT_name("AR6")
    4619                      .dwattr $C$DW$438, DW_AT_location[DW_OP_reg28]
    4620              $C$DW$439       .dwtag  DW_TAG_TI_assign_register, DW_AT_name("XAR6")
    4621                      .dwattr $C$DW$439, DW_AT_location[DW_OP_reg29]
    4622              $C$DW$440       .dwtag  DW_TAG_TI_assign_register, DW_AT_name("AR7")
    4623                      .dwattr $C$DW$440, DW_AT_location[DW_OP_reg30]
    4624              $C$DW$441       .dwtag  DW_TAG_TI_assign_register, DW_AT_name("XAR7")
    4625                      .dwattr $C$DW$441, DW_AT_location[DW_OP_reg31]
    4626              $C$DW$442       .dwtag  DW_TAG_TI_assign_register, DW_AT_name("FP")
    4627                      .dwattr $C$DW$442, DW_AT_location[DW_OP_regx 0x20]
    4628              $C$DW$443       .dwtag  DW_TAG_TI_assign_register, DW_AT_name("XFP")
    4629                      .dwattr $C$DW$443, DW_AT_location[DW_OP_regx 0x21]
    4630              $C$DW$444       .dwtag  DW_TAG_TI_assign_register, DW_AT_name("PC")
    4631                      .dwattr $C$DW$444, DW_AT_location[DW_OP_regx 0x22]
    4632              $C$DW$445       .dwtag  DW_TAG_TI_assign_register, DW_AT_name("SP")
    4633                      .dwattr $C$DW$445, DW_AT_location[DW_OP_regx 0x23]
    4634              $C$DW$446       .dwtag  DW_TAG_TI_assign_register, DW_AT_name("XSP")
    4635                      .dwattr $C$DW$446, DW_AT_location[DW_OP_regx 0x24]
    4636              $C$DW$447       .dwtag  DW_TAG_TI_assign_register, DW_AT_name("BKC")
    4637                      .dwattr $C$DW$447, DW_AT_location[DW_OP_regx 0x25]
    4638              $C$DW$448       .dwtag  DW_TAG_TI_assign_register, DW_AT_name("BK03")
    4639                      .dwattr $C$DW$448, DW_AT_location[DW_OP_regx 0x26]
    4640              $C$DW$449       .dwtag  DW_TAG_TI_assign_register, DW_AT_name("BK47")
    4641                      .dwattr $C$DW$449, DW_AT_location[DW_OP_regx 0x27]
    4642              $C$DW$450       .dwtag  DW_TAG_TI_assign_register, DW_AT_name("ST0")
    4643                      .dwattr $C$DW$450, DW_AT_location[DW_OP_regx 0x28]
    4644              $C$DW$451       .dwtag  DW_TAG_TI_assign_register, DW_AT_name("ST1")
    4645                      .dwattr $C$DW$451, DW_AT_location[DW_OP_regx 0x29]
    4646              $C$DW$452       .dwtag  DW_TAG_TI_assign_register, DW_AT_name("ST2")
    4647                      .dwattr $C$DW$452, DW_AT_location[DW_OP_regx 0x2a]
    4648              $C$DW$453       .dwtag  DW_TAG_TI_assign_register, DW_AT_name("ST3")
    4649                      .dwattr $C$DW$453, DW_AT_location[DW_OP_regx 0x2b]
    4650              $C$DW$454       .dwtag  DW_TAG_TI_assign_register, DW_AT_name("MDP")
    4651                      .dwattr $C$DW$454, DW_AT_location[DW_OP_regx 0x2c]
    4652              $C$DW$455       .dwtag  DW_TAG_TI_assign_register, DW_AT_name("MDP05")
    4653                      .dwattr $C$DW$455, DW_AT_location[DW_OP_regx 0x2d]
    4654              $C$DW$456       .dwtag  DW_TAG_TI_assign_register, DW_AT_name("MDP67")
TMS320C55x Assembler PC v4.4.1 Sun Sep 30 06:35:16 2018

Tools Copyright (c) 1996-2012 Texas Instruments Incorporated
main.asm                                                             PAGE   97

    4655                      .dwattr $C$DW$456, DW_AT_location[DW_OP_regx 0x2e]
    4656              $C$DW$457       .dwtag  DW_TAG_TI_assign_register, DW_AT_name("BRC0")
    4657                      .dwattr $C$DW$457, DW_AT_location[DW_OP_regx 0x2f]
    4658              $C$DW$458       .dwtag  DW_TAG_TI_assign_register, DW_AT_name("RSA0")
    4659                      .dwattr $C$DW$458, DW_AT_location[DW_OP_regx 0x30]
    4660              $C$DW$459       .dwtag  DW_TAG_TI_assign_register, DW_AT_name("RSA0_H")
    4661                      .dwattr $C$DW$459, DW_AT_location[DW_OP_regx 0x31]
    4662              $C$DW$460       .dwtag  DW_TAG_TI_assign_register, DW_AT_name("REA0")
    4663                      .dwattr $C$DW$460, DW_AT_location[DW_OP_regx 0x32]
    4664              $C$DW$461       .dwtag  DW_TAG_TI_assign_register, DW_AT_name("REA0_H")
    4665                      .dwattr $C$DW$461, DW_AT_location[DW_OP_regx 0x33]
    4666              $C$DW$462       .dwtag  DW_TAG_TI_assign_register, DW_AT_name("BRS1")
    4667                      .dwattr $C$DW$462, DW_AT_location[DW_OP_regx 0x34]
    4668              $C$DW$463       .dwtag  DW_TAG_TI_assign_register, DW_AT_name("BRC1")
    4669                      .dwattr $C$DW$463, DW_AT_location[DW_OP_regx 0x35]
    4670              $C$DW$464       .dwtag  DW_TAG_TI_assign_register, DW_AT_name("RSA1")
    4671                      .dwattr $C$DW$464, DW_AT_location[DW_OP_regx 0x36]
    4672              $C$DW$465       .dwtag  DW_TAG_TI_assign_register, DW_AT_name("RSA1_H")
    4673                      .dwattr $C$DW$465, DW_AT_location[DW_OP_regx 0x37]
    4674              $C$DW$466       .dwtag  DW_TAG_TI_assign_register, DW_AT_name("REA1")
    4675                      .dwattr $C$DW$466, DW_AT_location[DW_OP_regx 0x38]
    4676              $C$DW$467       .dwtag  DW_TAG_TI_assign_register, DW_AT_name("REA1_H")
    4677                      .dwattr $C$DW$467, DW_AT_location[DW_OP_regx 0x39]
    4678              $C$DW$468       .dwtag  DW_TAG_TI_assign_register, DW_AT_name("CSR")
    4679                      .dwattr $C$DW$468, DW_AT_location[DW_OP_regx 0x3a]
    4680              $C$DW$469       .dwtag  DW_TAG_TI_assign_register, DW_AT_name("RPTC")
    4681                      .dwattr $C$DW$469, DW_AT_location[DW_OP_regx 0x3b]
    4682              $C$DW$470       .dwtag  DW_TAG_TI_assign_register, DW_AT_name("CDP")
    4683                      .dwattr $C$DW$470, DW_AT_location[DW_OP_regx 0x3c]
    4684              $C$DW$471       .dwtag  DW_TAG_TI_assign_register, DW_AT_name("XCDP")
    4685                      .dwattr $C$DW$471, DW_AT_location[DW_OP_regx 0x3d]
    4686              $C$DW$472       .dwtag  DW_TAG_TI_assign_register, DW_AT_name("TRN0")
    4687                      .dwattr $C$DW$472, DW_AT_location[DW_OP_regx 0x3e]
    4688              $C$DW$473       .dwtag  DW_TAG_TI_assign_register, DW_AT_name("TRN1")
    4689                      .dwattr $C$DW$473, DW_AT_location[DW_OP_regx 0x3f]
    4690              $C$DW$474       .dwtag  DW_TAG_TI_assign_register, DW_AT_name("BSA01")
    4691                      .dwattr $C$DW$474, DW_AT_location[DW_OP_regx 0x40]
    4692              $C$DW$475       .dwtag  DW_TAG_TI_assign_register, DW_AT_name("BSA23")
    4693                      .dwattr $C$DW$475, DW_AT_location[DW_OP_regx 0x41]
    4694              $C$DW$476       .dwtag  DW_TAG_TI_assign_register, DW_AT_name("BSA45")
    4695                      .dwattr $C$DW$476, DW_AT_location[DW_OP_regx 0x42]
    4696              $C$DW$477       .dwtag  DW_TAG_TI_assign_register, DW_AT_name("BSA67")
    4697                      .dwattr $C$DW$477, DW_AT_location[DW_OP_regx 0x43]
    4698              $C$DW$478       .dwtag  DW_TAG_TI_assign_register, DW_AT_name("BSAC")
    4699                      .dwattr $C$DW$478, DW_AT_location[DW_OP_regx 0x44]
    4700              $C$DW$479       .dwtag  DW_TAG_TI_assign_register, DW_AT_name("CARRY")
    4701                      .dwattr $C$DW$479, DW_AT_location[DW_OP_regx 0x45]
    4702              $C$DW$480       .dwtag  DW_TAG_TI_assign_register, DW_AT_name("TC1")
    4703                      .dwattr $C$DW$480, DW_AT_location[DW_OP_regx 0x46]
    4704              $C$DW$481       .dwtag  DW_TAG_TI_assign_register, DW_AT_name("TC2")
    4705                      .dwattr $C$DW$481, DW_AT_location[DW_OP_regx 0x47]
    4706              $C$DW$482       .dwtag  DW_TAG_TI_assign_register, DW_AT_name("M40")
    4707                      .dwattr $C$DW$482, DW_AT_location[DW_OP_regx 0x48]
    4708              $C$DW$483       .dwtag  DW_TAG_TI_assign_register, DW_AT_name("SXMD")
    4709                      .dwattr $C$DW$483, DW_AT_location[DW_OP_regx 0x49]
TMS320C55x Assembler PC v4.4.1 Sun Sep 30 06:35:16 2018

Tools Copyright (c) 1996-2012 Texas Instruments Incorporated
main.asm                                                             PAGE   98

    4710              $C$DW$484       .dwtag  DW_TAG_TI_assign_register, DW_AT_name("ARMS")
    4711                      .dwattr $C$DW$484, DW_AT_location[DW_OP_regx 0x4a]
    4712              $C$DW$485       .dwtag  DW_TAG_TI_assign_register, DW_AT_name("C54CM")
    4713                      .dwattr $C$DW$485, DW_AT_location[DW_OP_regx 0x4b]
    4714              $C$DW$486       .dwtag  DW_TAG_TI_assign_register, DW_AT_name("SATA")
    4715                      .dwattr $C$DW$486, DW_AT_location[DW_OP_regx 0x4c]
    4716              $C$DW$487       .dwtag  DW_TAG_TI_assign_register, DW_AT_name("SATD")
    4717                      .dwattr $C$DW$487, DW_AT_location[DW_OP_regx 0x4d]
    4718              $C$DW$488       .dwtag  DW_TAG_TI_assign_register, DW_AT_name("RDM")
    4719                      .dwattr $C$DW$488, DW_AT_location[DW_OP_regx 0x4e]
    4720              $C$DW$489       .dwtag  DW_TAG_TI_assign_register, DW_AT_name("FRCT")
    4721                      .dwattr $C$DW$489, DW_AT_location[DW_OP_regx 0x4f]
    4722              $C$DW$490       .dwtag  DW_TAG_TI_assign_register, DW_AT_name("SMUL")
    4723                      .dwattr $C$DW$490, DW_AT_location[DW_OP_regx 0x50]
    4724              $C$DW$491       .dwtag  DW_TAG_TI_assign_register, DW_AT_name("INTM")
    4725                      .dwattr $C$DW$491, DW_AT_location[DW_OP_regx 0x51]
    4726              $C$DW$492       .dwtag  DW_TAG_TI_assign_register, DW_AT_name("AR0LC")
    4727                      .dwattr $C$DW$492, DW_AT_location[DW_OP_regx 0x52]
    4728              $C$DW$493       .dwtag  DW_TAG_TI_assign_register, DW_AT_name("AR1LC")
    4729                      .dwattr $C$DW$493, DW_AT_location[DW_OP_regx 0x53]
    4730              $C$DW$494       .dwtag  DW_TAG_TI_assign_register, DW_AT_name("AR2LC")
    4731                      .dwattr $C$DW$494, DW_AT_location[DW_OP_regx 0x54]
    4732              $C$DW$495       .dwtag  DW_TAG_TI_assign_register, DW_AT_name("AR3LC")
    4733                      .dwattr $C$DW$495, DW_AT_location[DW_OP_regx 0x55]
    4734              $C$DW$496       .dwtag  DW_TAG_TI_assign_register, DW_AT_name("AR4LC")
    4735                      .dwattr $C$DW$496, DW_AT_location[DW_OP_regx 0x56]
    4736              $C$DW$497       .dwtag  DW_TAG_TI_assign_register, DW_AT_name("AR5LC")
    4737                      .dwattr $C$DW$497, DW_AT_location[DW_OP_regx 0x57]
    4738              $C$DW$498       .dwtag  DW_TAG_TI_assign_register, DW_AT_name("AR6LC")
    4739                      .dwattr $C$DW$498, DW_AT_location[DW_OP_regx 0x58]
    4740              $C$DW$499       .dwtag  DW_TAG_TI_assign_register, DW_AT_name("AR7LC")
    4741                      .dwattr $C$DW$499, DW_AT_location[DW_OP_regx 0x59]
    4742              $C$DW$500       .dwtag  DW_TAG_TI_assign_register, DW_AT_name("CDPLC")
    4743                      .dwattr $C$DW$500, DW_AT_location[DW_OP_regx 0x5a]
    4744              $C$DW$501       .dwtag  DW_TAG_TI_assign_register, DW_AT_name("CIE_RETA")
    4745                      .dwattr $C$DW$501, DW_AT_location[DW_OP_regx 0x5b]
    4746                      .dwendtag $C$DW$CU
    4747              
    4747              
    4747              

No Assembly Errors, No Assembly Warnings
