TMS320C55x Assembler PC v4.4.1 Sat Sep 29 23:09:36 2018

Tools Copyright (c) 1996-2012 Texas Instruments Incorporated
csl_i2c_intc_example.asm                                             PAGE    1

    3833              ; Temporary Registers Used: None
       1              ;*******************************************************************************
       2              ;* TMS320C55x C/C++ Codegen                                          PC v4.4.1 *
       3              ;* Date/Time created: Sat Sep 29 23:09:35 2018                                 *
       4              ;*******************************************************************************
       5                      .compiler_opts --hll_source=on --mem_model:code=flat --mem_model:data=large --object_format=coff --si
       6                      .mmregs
       7                      .cpl_on
       8                      .arms_on
       9                      .c54cm_off
      10                      .asg AR6, FP
      11                      .asg XAR6, XFP
      12                      .asg DPH, MDP
      13                      .model call=c55_std
      14                      .model mem=large
      15                      .noremark 5002  ; code respects overwrite rules
      16              ;*******************************************************************************
      17              ;* GLOBAL FILE PARAMETERS                                                      *
      18              ;*                                                                             *
      19              ;*   Architecture       : TMS320C55x                                           *
      20              ;*   Optimizing for     : Speed                                                *
      21              ;*   Memory             : Large Model (23-Bit Data Pointers)                   *
      22              ;*   Calls              : Normal Library ASM calls                             *
      23              ;*   Debug Info         : Standard TI Debug Information                        *
      24              ;*******************************************************************************
      25              
      26              $C$DW$CU        .dwtag  DW_TAG_compile_unit
      27                      .dwattr $C$DW$CU, DW_AT_name("../c5535_bsl_revc/ezdsp5535_v1/c55xx_csl/ccs_v4.0_examples/i2c/CSL_I2C_
      28                      .dwattr $C$DW$CU, DW_AT_producer("TMS320C55x C/C++ Codegen PC v4.4.1 Copyright (c) 1996-2012 Texas In
      29                      .dwattr $C$DW$CU, DW_AT_TI_version(0x01)
      30                      .dwattr $C$DW$CU, DW_AT_comp_dir("F:\eZdsp_DBG\tmp1\c55x-sim2\foo\Debug")
      31              ;******************************************************************************
      32              ;* CINIT RECORDS                                                              *
      33              ;******************************************************************************
      34 000000               .sect   ".cinit"
      35                      .align  1
      36 000000 0001          .field          1,16
      37 000001 0000-         .field          _stopDetected+0,24
         000002 B800 
      38 000002 B800          .field          0,8
      39 000003 0000          .field  0,16                    ; _stopDetected @ 0
      40              
      41 000004               .sect   ".cinit"
      42                      .align  1
      43 000004 0001          .field          1,16
      44 000005 0000-         .field          _PaSs_StAtE+0,24
         000006 B900 
      45 000006 B900          .field          0,8
      46 000007 0001          .field  1,16                    ; _PaSs_StAtE @ 0
      47              
      48 000008               .sect   ".cinit"
      49                      .align  1
      50 000008 0001          .field          1,16
      51 000009 0000-         .field          _PaSs+0,24
         00000a BA00 
TMS320C55x Assembler PC v4.4.1 Sat Sep 29 23:09:36 2018

Tools Copyright (c) 1996-2012 Texas Instruments Incorporated
csl_i2c_intc_example.asm                                             PAGE    2

      52 00000a BA00          .field          0,8
      53 00000b 0000          .field  0,16                    ; _PaSs @ 0
      54              
      55              
      56              $C$DW$1 .dwtag  DW_TAG_subprogram, DW_AT_name("printf")
      57                      .dwattr $C$DW$1, DW_AT_TI_symbol_name("_printf")
      58                      .dwattr $C$DW$1, DW_AT_type(*$C$DW$T$10)
      59                      .dwattr $C$DW$1, DW_AT_declaration
      60                      .dwattr $C$DW$1, DW_AT_external
      61              $C$DW$2 .dwtag  DW_TAG_formal_parameter
      62                      .dwattr $C$DW$2, DW_AT_type(*$C$DW$T$95)
      63              $C$DW$3 .dwtag  DW_TAG_unspecified_parameters
      64                      .dwendtag $C$DW$1
      65              
      66              
      67              $C$DW$4 .dwtag  DW_TAG_subprogram, DW_AT_name("I2C_init")
      68                      .dwattr $C$DW$4, DW_AT_TI_symbol_name("_I2C_init")
      69                      .dwattr $C$DW$4, DW_AT_type(*$C$DW$T$70)
      70                      .dwattr $C$DW$4, DW_AT_declaration
      71                      .dwattr $C$DW$4, DW_AT_external
      72              $C$DW$5 .dwtag  DW_TAG_formal_parameter
      73                      .dwattr $C$DW$5, DW_AT_type(*$C$DW$T$19)
      74                      .dwendtag $C$DW$4
      75              
      76              
      77              $C$DW$6 .dwtag  DW_TAG_subprogram, DW_AT_name("I2C_config")
      78                      .dwattr $C$DW$6, DW_AT_TI_symbol_name("_I2C_config")
      79                      .dwattr $C$DW$6, DW_AT_type(*$C$DW$T$70)
      80                      .dwattr $C$DW$6, DW_AT_declaration
      81                      .dwattr $C$DW$6, DW_AT_external
      82              $C$DW$7 .dwtag  DW_TAG_formal_parameter
      83                      .dwattr $C$DW$7, DW_AT_type(*$C$DW$T$58)
      84                      .dwendtag $C$DW$6
      85              
      86              
      87              $C$DW$8 .dwtag  DW_TAG_subprogram, DW_AT_name("I2C_getConfig")
      88                      .dwattr $C$DW$8, DW_AT_TI_symbol_name("_I2C_getConfig")
      89                      .dwattr $C$DW$8, DW_AT_type(*$C$DW$T$70)
      90                      .dwattr $C$DW$8, DW_AT_declaration
      91                      .dwattr $C$DW$8, DW_AT_external
      92              $C$DW$9 .dwtag  DW_TAG_formal_parameter
      93                      .dwattr $C$DW$9, DW_AT_type(*$C$DW$T$58)
      94                      .dwendtag $C$DW$8
      95              
      96              
      97              $C$DW$10        .dwtag  DW_TAG_subprogram, DW_AT_name("I2C_eventEnable")
      98                      .dwattr $C$DW$10, DW_AT_TI_symbol_name("_I2C_eventEnable")
      99                      .dwattr $C$DW$10, DW_AT_type(*$C$DW$T$70)
     100                      .dwattr $C$DW$10, DW_AT_declaration
     101                      .dwattr $C$DW$10, DW_AT_external
     102              $C$DW$11        .dwtag  DW_TAG_formal_parameter
     103                      .dwattr $C$DW$11, DW_AT_type(*$C$DW$T$60)
     104                      .dwendtag $C$DW$10
     105              
     106              
TMS320C55x Assembler PC v4.4.1 Sat Sep 29 23:09:36 2018

Tools Copyright (c) 1996-2012 Texas Instruments Incorporated
csl_i2c_intc_example.asm                                             PAGE    3

     107              $C$DW$12        .dwtag  DW_TAG_subprogram, DW_AT_name("I2C_eventDisable")
     108                      .dwattr $C$DW$12, DW_AT_TI_symbol_name("_I2C_eventDisable")
     109                      .dwattr $C$DW$12, DW_AT_type(*$C$DW$T$70)
     110                      .dwattr $C$DW$12, DW_AT_declaration
     111                      .dwattr $C$DW$12, DW_AT_external
     112              $C$DW$13        .dwtag  DW_TAG_formal_parameter
     113                      .dwattr $C$DW$13, DW_AT_type(*$C$DW$T$60)
     114                      .dwendtag $C$DW$12
     115              
     116              
     117              $C$DW$14        .dwtag  DW_TAG_subprogram, DW_AT_name("I2C_setCallback")
     118                      .dwattr $C$DW$14, DW_AT_TI_symbol_name("_I2C_setCallback")
     119                      .dwattr $C$DW$14, DW_AT_type(*$C$DW$T$70)
     120                      .dwattr $C$DW$14, DW_AT_declaration
     121                      .dwattr $C$DW$14, DW_AT_external
     122              $C$DW$15        .dwtag  DW_TAG_formal_parameter
     123                      .dwattr $C$DW$15, DW_AT_type(*$C$DW$T$62)
     124                      .dwendtag $C$DW$14
     125              
     126              
     127              $C$DW$16        .dwtag  DW_TAG_subprogram, DW_AT_name("I2C_getEventId")
     128                      .dwattr $C$DW$16, DW_AT_TI_symbol_name("_I2C_getEventId")
     129                      .dwattr $C$DW$16, DW_AT_type(*$C$DW$T$69)
     130                      .dwattr $C$DW$16, DW_AT_declaration
     131                      .dwattr $C$DW$16, DW_AT_external
     132              
     133              $C$DW$17        .dwtag  DW_TAG_subprogram, DW_AT_name("IRQ_plug")
     134                      .dwattr $C$DW$17, DW_AT_TI_symbol_name("_IRQ_plug")
     135                      .dwattr $C$DW$17, DW_AT_type(*$C$DW$T$10)
     136                      .dwattr $C$DW$17, DW_AT_declaration
     137                      .dwattr $C$DW$17, DW_AT_external
     138              $C$DW$18        .dwtag  DW_TAG_formal_parameter
     139                      .dwattr $C$DW$18, DW_AT_type(*$C$DW$T$19)
     140              $C$DW$19        .dwtag  DW_TAG_formal_parameter
     141                      .dwattr $C$DW$19, DW_AT_type(*$C$DW$T$29)
     142                      .dwendtag $C$DW$17
     143              
     144              
     145              $C$DW$20        .dwtag  DW_TAG_subprogram, DW_AT_name("IRQ_clearAll")
     146                      .dwattr $C$DW$20, DW_AT_TI_symbol_name("_IRQ_clearAll")
     147                      .dwattr $C$DW$20, DW_AT_declaration
     148                      .dwattr $C$DW$20, DW_AT_external
     149              
     150              $C$DW$21        .dwtag  DW_TAG_subprogram, DW_AT_name("IRQ_disableAll")
     151                      .dwattr $C$DW$21, DW_AT_TI_symbol_name("_IRQ_disableAll")
     152                      .dwattr $C$DW$21, DW_AT_declaration
     153                      .dwattr $C$DW$21, DW_AT_external
     154              
     155              $C$DW$22        .dwtag  DW_TAG_subprogram, DW_AT_name("IRQ_enable")
     156                      .dwattr $C$DW$22, DW_AT_TI_symbol_name("_IRQ_enable")
     157                      .dwattr $C$DW$22, DW_AT_type(*$C$DW$T$10)
     158                      .dwattr $C$DW$22, DW_AT_declaration
     159                      .dwattr $C$DW$22, DW_AT_external
     160              $C$DW$23        .dwtag  DW_TAG_formal_parameter
     161                      .dwattr $C$DW$23, DW_AT_type(*$C$DW$T$19)
TMS320C55x Assembler PC v4.4.1 Sat Sep 29 23:09:36 2018

Tools Copyright (c) 1996-2012 Texas Instruments Incorporated
csl_i2c_intc_example.asm                                             PAGE    4

     162                      .dwendtag $C$DW$22
     163              
     164              
     165              $C$DW$24        .dwtag  DW_TAG_subprogram, DW_AT_name("IRQ_setVecs")
     166                      .dwattr $C$DW$24, DW_AT_TI_symbol_name("_IRQ_setVecs")
     167                      .dwattr $C$DW$24, DW_AT_type(*$C$DW$T$70)
     168                      .dwattr $C$DW$24, DW_AT_declaration
     169                      .dwattr $C$DW$24, DW_AT_external
     170              $C$DW$25        .dwtag  DW_TAG_formal_parameter
     171                      .dwattr $C$DW$25, DW_AT_type(*$C$DW$T$30)
     172                      .dwendtag $C$DW$24
     173              
     174              
     175              $C$DW$26        .dwtag  DW_TAG_subprogram, DW_AT_name("IRQ_globalDisable")
     176                      .dwattr $C$DW$26, DW_AT_TI_symbol_name("_IRQ_globalDisable")
     177                      .dwattr $C$DW$26, DW_AT_type(*$C$DW$T$90)
     178                      .dwattr $C$DW$26, DW_AT_declaration
     179                      .dwattr $C$DW$26, DW_AT_external
     180              
     181              $C$DW$27        .dwtag  DW_TAG_subprogram, DW_AT_name("IRQ_globalEnable")
     182                      .dwattr $C$DW$27, DW_AT_TI_symbol_name("_IRQ_globalEnable")
     183                      .dwattr $C$DW$27, DW_AT_type(*$C$DW$T$90)
     184                      .dwattr $C$DW$27, DW_AT_declaration
     185                      .dwattr $C$DW$27, DW_AT_external
     186              
     187              $C$DW$28        .dwtag  DW_TAG_subprogram, DW_AT_name("VECSTART")
     188                      .dwattr $C$DW$28, DW_AT_TI_symbol_name("_VECSTART")
     189                      .dwattr $C$DW$28, DW_AT_declaration
     190                      .dwattr $C$DW$28, DW_AT_external
     191              $C$DW$29        .dwtag  DW_TAG_variable, DW_AT_name("i2cHandle")
     192                      .dwattr $C$DW$29, DW_AT_TI_symbol_name("_i2cHandle")
     193                      .dwattr $C$DW$29, DW_AT_type(*$C$DW$T$65)
     194                      .dwattr $C$DW$29, DW_AT_declaration
     195                      .dwattr $C$DW$29, DW_AT_external
     196                      .global _gI2cWrBuf
     197 000000               .bss    _gI2cWrBuf,66,0,0
     198              $C$DW$30        .dwtag  DW_TAG_variable, DW_AT_name("gI2cWrBuf")
     199                      .dwattr $C$DW$30, DW_AT_TI_symbol_name("_gI2cWrBuf")
     200                      .dwattr $C$DW$30, DW_AT_location[DW_OP_addr _gI2cWrBuf]
     201                      .dwattr $C$DW$30, DW_AT_type(*$C$DW$T$87)
     202                      .dwattr $C$DW$30, DW_AT_external
     203                      .global _gI2cRdBuf
     204 000042               .bss    _gI2cRdBuf,64,0,0
     205              $C$DW$31        .dwtag  DW_TAG_variable, DW_AT_name("gI2cRdBuf")
     206                      .dwattr $C$DW$31, DW_AT_TI_symbol_name("_gI2cRdBuf")
     207                      .dwattr $C$DW$31, DW_AT_location[DW_OP_addr _gI2cRdBuf]
     208                      .dwattr $C$DW$31, DW_AT_type(*$C$DW$T$88)
     209                      .dwattr $C$DW$31, DW_AT_external
     210                      .global _i2cSetup
     211 000082               .bss    _i2cSetup,10,0,2
     212              $C$DW$32        .dwtag  DW_TAG_variable, DW_AT_name("i2cSetup")
     213                      .dwattr $C$DW$32, DW_AT_TI_symbol_name("_i2cSetup")
     214                      .dwattr $C$DW$32, DW_AT_location[DW_OP_addr _i2cSetup]
     215                      .dwattr $C$DW$32, DW_AT_type(*$C$DW$T$66)
     216                      .dwattr $C$DW$32, DW_AT_external
TMS320C55x Assembler PC v4.4.1 Sat Sep 29 23:09:36 2018

Tools Copyright (c) 1996-2012 Texas Instruments Incorporated
csl_i2c_intc_example.asm                                             PAGE    5

     217                      .global _i2cConfig
     218 00008c               .bss    _i2cConfig,9,0,0
     219              $C$DW$33        .dwtag  DW_TAG_variable, DW_AT_name("i2cConfig")
     220                      .dwattr $C$DW$33, DW_AT_TI_symbol_name("_i2cConfig")
     221                      .dwattr $C$DW$33, DW_AT_location[DW_OP_addr _i2cConfig]
     222                      .dwattr $C$DW$33, DW_AT_type(*$C$DW$T$57)
     223                      .dwattr $C$DW$33, DW_AT_external
     224                      .global _i2cGetConfig
     225 000095               .bss    _i2cGetConfig,9,0,0
     226              $C$DW$34        .dwtag  DW_TAG_variable, DW_AT_name("i2cGetConfig")
     227                      .dwattr $C$DW$34, DW_AT_TI_symbol_name("_i2cGetConfig")
     228                      .dwattr $C$DW$34, DW_AT_location[DW_OP_addr _i2cGetConfig]
     229                      .dwattr $C$DW$34, DW_AT_type(*$C$DW$T$57)
     230                      .dwattr $C$DW$34, DW_AT_external
     231                      .global _config
     232 00009e               .bss    _config,8,0,2
     233              $C$DW$35        .dwtag  DW_TAG_variable, DW_AT_name("config")
     234                      .dwattr $C$DW$35, DW_AT_TI_symbol_name("_config")
     235                      .dwattr $C$DW$35, DW_AT_location[DW_OP_addr _config]
     236                      .dwattr $C$DW$35, DW_AT_type(*$C$DW$T$56)
     237                      .dwattr $C$DW$35, DW_AT_external
     238                      .global _i2cIsrAddr
     239 0000a6               .bss    _i2cIsrAddr,14,0,2
     240              $C$DW$36        .dwtag  DW_TAG_variable, DW_AT_name("i2cIsrAddr")
     241                      .dwattr $C$DW$36, DW_AT_TI_symbol_name("_i2cIsrAddr")
     242                      .dwattr $C$DW$36, DW_AT_location[DW_OP_addr _i2cIsrAddr]
     243                      .dwattr $C$DW$36, DW_AT_type(*$C$DW$T$61)
     244                      .dwattr $C$DW$36, DW_AT_external
     245                      .global _dataLength
     246 0000b4               .bss    _dataLength,1,0,0
     247              $C$DW$37        .dwtag  DW_TAG_variable, DW_AT_name("dataLength")
     248                      .dwattr $C$DW$37, DW_AT_TI_symbol_name("_dataLength")
     249                      .dwattr $C$DW$37, DW_AT_location[DW_OP_addr _dataLength]
     250                      .dwattr $C$DW$37, DW_AT_type(*$C$DW$T$20)
     251                      .dwattr $C$DW$37, DW_AT_external
     252                      .global _i2cTxCount
     253 0000b5               .bss    _i2cTxCount,1,0,0
     254              $C$DW$38        .dwtag  DW_TAG_variable, DW_AT_name("i2cTxCount")
     255                      .dwattr $C$DW$38, DW_AT_TI_symbol_name("_i2cTxCount")
     256                      .dwattr $C$DW$38, DW_AT_location[DW_OP_addr _i2cTxCount]
     257                      .dwattr $C$DW$38, DW_AT_type(*$C$DW$T$19)
     258                      .dwattr $C$DW$38, DW_AT_external
     259                      .global _i2cRxCount
     260 0000b6               .bss    _i2cRxCount,1,0,0
     261              $C$DW$39        .dwtag  DW_TAG_variable, DW_AT_name("i2cRxCount")
     262                      .dwattr $C$DW$39, DW_AT_TI_symbol_name("_i2cRxCount")
     263                      .dwattr $C$DW$39, DW_AT_location[DW_OP_addr _i2cRxCount]
     264                      .dwattr $C$DW$39, DW_AT_type(*$C$DW$T$19)
     265                      .dwattr $C$DW$39, DW_AT_external
     266                      .global _i2cErrInTx
     267 0000b7               .bss    _i2cErrInTx,1,0,0
     268              $C$DW$40        .dwtag  DW_TAG_variable, DW_AT_name("i2cErrInTx")
     269                      .dwattr $C$DW$40, DW_AT_TI_symbol_name("_i2cErrInTx")
     270                      .dwattr $C$DW$40, DW_AT_location[DW_OP_addr _i2cErrInTx]
     271                      .dwattr $C$DW$40, DW_AT_type(*$C$DW$T$19)
TMS320C55x Assembler PC v4.4.1 Sat Sep 29 23:09:36 2018

Tools Copyright (c) 1996-2012 Texas Instruments Incorporated
csl_i2c_intc_example.asm                                             PAGE    6

     272                      .dwattr $C$DW$40, DW_AT_external
     273                      .global _stopDetected
     274 0000b8               .bss    _stopDetected,1,0,0
     275              $C$DW$41        .dwtag  DW_TAG_variable, DW_AT_name("stopDetected")
     276                      .dwattr $C$DW$41, DW_AT_TI_symbol_name("_stopDetected")
     277                      .dwattr $C$DW$41, DW_AT_location[DW_OP_addr _stopDetected]
     278                      .dwattr $C$DW$41, DW_AT_type(*$C$DW$T$19)
     279                      .dwattr $C$DW$41, DW_AT_external
     280                      .global _PaSs_StAtE
     281 0000b9               .bss    _PaSs_StAtE,1,0,0
     282              $C$DW$42        .dwtag  DW_TAG_variable, DW_AT_name("PaSs_StAtE")
     283                      .dwattr $C$DW$42, DW_AT_TI_symbol_name("_PaSs_StAtE")
     284                      .dwattr $C$DW$42, DW_AT_location[DW_OP_addr _PaSs_StAtE]
     285                      .dwattr $C$DW$42, DW_AT_type(*$C$DW$T$83)
     286                      .dwattr $C$DW$42, DW_AT_external
     287                      .global _PaSs
     288 0000ba               .bss    _PaSs,1,0,0
     289              $C$DW$43        .dwtag  DW_TAG_variable, DW_AT_name("PaSs")
     290                      .dwattr $C$DW$43, DW_AT_TI_symbol_name("_PaSs")
     291                      .dwattr $C$DW$43, DW_AT_location[DW_OP_addr _PaSs]
     292                      .dwattr $C$DW$43, DW_AT_type(*$C$DW$T$83)
     293                      .dwattr $C$DW$43, DW_AT_external
     294              ;       F:\t\cc5p5\ccsv5\tools\compiler\c5500_4.4.1\bin\acp55.exe -@f:\\AppData\\Local\\Temp\\2174812 
     295 000000               .sect   ".text"
     296                      .align 4
     297                      .global _main
     298              
     299              $C$DW$44        .dwtag  DW_TAG_subprogram, DW_AT_name("main")
     300                      .dwattr $C$DW$44, DW_AT_low_pc(_main)
     301                      .dwattr $C$DW$44, DW_AT_high_pc(0x00)
     302                      .dwattr $C$DW$44, DW_AT_TI_symbol_name("_main")
     303                      .dwattr $C$DW$44, DW_AT_external
     304                      .dwattr $C$DW$44, DW_AT_TI_begin_file("../c5535_bsl_revc/ezdsp5535_v1/c55xx_csl/ccs_v4.0_examples/i2c
     305                      .dwattr $C$DW$44, DW_AT_TI_begin_line(0x92)
     306                      .dwattr $C$DW$44, DW_AT_TI_begin_column(0x06)
     307                      .dwattr $C$DW$44, DW_AT_TI_max_frame_size(0x04)
     308                      .dwpsn  file "../c5535_bsl_revc/ezdsp5535_v1/c55xx_csl/ccs_v4.0_examples/i2c/CSL_I2C_IntcExample/csl_
     309              
     310                      .dwfde $C$DW$CIE, _main
     311              ;*******************************************************************************
     312              ;* FUNCTION NAME: main                                                         *
     313              ;*                                                                             *
     314              ;*   Function Uses Regs : T0,AR1,AR3,XAR3,SP,M40,SATA,SATD,RDM,FRCT,SMUL       *
     315              ;*   Stack Frame        : Compact (No Frame Pointer, w/ debug)                 *
     316              ;*   Total Frame Size   : 4 words                                              *
     317              ;*                        (1 return address/alignment)                         *
     318              ;*                        (2 function parameters)                              *
     319              ;*                        (1 local values)                                     *
     320              ;*   Min System Stack   : 1 word                                               *
     321              ;*******************************************************************************
     322 000000       _main:
     323                      .dwcfi  cfa_offset, 1
     324                      .dwcfi  save_reg_to_mem, 91, -1
     325 000000 4EFD          AADD #-3, SP
     326                      .dwcfi  cfa_offset, 4
TMS320C55x Assembler PC v4.4.1 Sat Sep 29 23:09:36 2018

Tools Copyright (c) 1996-2012 Texas Instruments Incorporated
csl_i2c_intc_example.asm                                             PAGE    7

     327              $C$DW$45        .dwtag  DW_TAG_variable, DW_AT_name("result")
     328                      .dwattr $C$DW$45, DW_AT_TI_symbol_name("_result")
     329                      .dwattr $C$DW$45, DW_AT_type(*$C$DW$T$70)
     330                      .dwattr $C$DW$45, DW_AT_location[DW_OP_bregx 0x24 2]
     331                      .dwpsn  file "../c5535_bsl_revc/ezdsp5535_v1/c55xx_csl/ccs_v4.0_examples/i2c/CSL_I2C_IntcExample/csl_
     332 000002 EC31          AMOV #$C$FSL1, XAR3 ; |150| 
         000004 BE00 
         000006 0000+
     333 000008 EB00          MOV XAR3, dbl(*SP(#0))
         00000a B5   
     334              $C$DW$46        .dwtag  DW_TAG_TI_branch
     335                      .dwattr $C$DW$46, DW_AT_low_pc(0x00)
     336                      .dwattr $C$DW$46, DW_AT_name("_printf")
     337                      .dwattr $C$DW$46, DW_AT_TI_call
     338 00000b 6C00          CALL #_printf ; |150| 
         00000d 0000!
     339                                                      ; call occurs [#_printf] ; |150| 
     340                      .dwpsn  file "../c5535_bsl_revc/ezdsp5535_v1/c55xx_csl/ccs_v4.0_examples/i2c/CSL_I2C_IntcExample/csl_
     341              $C$DW$47        .dwtag  DW_TAG_TI_branch
     342                      .dwattr $C$DW$47, DW_AT_low_pc(0x00)
     343                      .dwattr $C$DW$47, DW_AT_name("_CSL_i2cIntcTest")
     344                      .dwattr $C$DW$47, DW_AT_TI_call
     345 00000f 0800          CALL #_CSL_i2cIntcTest ; |152| 
         000011 36   
     346                                                      ; call occurs [#_CSL_i2cIntcTest] ; |152| 
     347 000012 C404          MOV T0, *SP(#2) ; |152| 
     348                      .dwpsn  file "../c5535_bsl_revc/ezdsp5535_v1/c55xx_csl/ccs_v4.0_examples/i2c/CSL_I2C_IntcExample/csl_
     349 000014 2249          MOV T0, AR1
     350 000016 6799          BCC $C$L1,AR1 != #0 ; |154| 
     351                                                      ; branchcc occurs ; |154| 
     352                      .dwpsn  file "../c5535_bsl_revc/ezdsp5535_v1/c55xx_csl/ccs_v4.0_examples/i2c/CSL_I2C_IntcExample/csl_
     353 000018 EC31          AMOV #$C$FSL2, XAR3 ; |156| 
         00001a BE00 
         00001c 001C+
     354 00001e EB00          MOV XAR3, dbl(*SP(#0))
         000020 B5   
     355              $C$DW$48        .dwtag  DW_TAG_TI_branch
     356                      .dwattr $C$DW$48, DW_AT_low_pc(0x00)
     357                      .dwattr $C$DW$48, DW_AT_name("_printf")
     358                      .dwattr $C$DW$48, DW_AT_TI_call
     359 000021 6C00          CALL #_printf ; |156| 
         000023 0000!
     360                                                      ; call occurs [#_printf] ; |156| 
     361                      .dwpsn  file "../c5535_bsl_revc/ezdsp5535_v1/c55xx_csl/ccs_v4.0_examples/i2c/CSL_I2C_IntcExample/csl_
     362 000025 4A13          B $C$L2   ; |157| 
     363                                                      ; branch occurs ; |157| 
     364 000027       $C$L1:    
     365                      .dwpsn  file "../c5535_bsl_revc/ezdsp5535_v1/c55xx_csl/ccs_v4.0_examples/i2c/CSL_I2C_IntcExample/csl_
     366 000027 EC31          AMOV #$C$FSL3, XAR3 ; |160| 
         000029 BE00 
         00002b 0040+
     367 00002d EB00          MOV XAR3, dbl(*SP(#0))
         00002f B5   
     368              $C$DW$49        .dwtag  DW_TAG_TI_branch
     369                      .dwattr $C$DW$49, DW_AT_low_pc(0x00)
TMS320C55x Assembler PC v4.4.1 Sat Sep 29 23:09:36 2018

Tools Copyright (c) 1996-2012 Texas Instruments Incorporated
csl_i2c_intc_example.asm                                             PAGE    8

     370                      .dwattr $C$DW$49, DW_AT_name("_printf")
     371                      .dwattr $C$DW$49, DW_AT_TI_call
     372 000030 6C00          CALL #_printf ; |160| 
         000032 0000!
     373                                                      ; call occurs [#_printf] ; |160| 
     374                      .dwpsn  file "../c5535_bsl_revc/ezdsp5535_v1/c55xx_csl/ccs_v4.0_examples/i2c/CSL_I2C_IntcExample/csl_
     375 000034 E631          MOV #0, *(#_PaSs_StAtE) ; |163| 
         000036 0000 
         000038 00B9-
     376 00003a       $C$L2:    
     377                      .dwpsn  file "../c5535_bsl_revc/ezdsp5535_v1/c55xx_csl/ccs_v4.0_examples/i2c/CSL_I2C_IntcExample/csl_
     378 00003a A931          MOV *(#_PaSs_StAtE), AR1 ; |168| 
         00003c 0000 
         00003e B9-  
     379 00003f C931          MOV AR1, *(#_PaSs) ; |168| 
         000041 0000 
         000043 BA-  
     380                      .dwpsn  file "../c5535_bsl_revc/ezdsp5535_v1/c55xx_csl/ccs_v4.0_examples/i2c/CSL_I2C_IntcExample/csl_
     381 000044 4E03          AADD #3, SP
     382                      .dwcfi  cfa_offset, 1
     383              $C$DW$50        .dwtag  DW_TAG_TI_branch
     384                      .dwattr $C$DW$50, DW_AT_low_pc(0x00)
     385                      .dwattr $C$DW$50, DW_AT_TI_return
     386 000046 4804          RET
     387                                                      ; return occurs
     388                      .dwattr $C$DW$44, DW_AT_TI_end_file("../c5535_bsl_revc/ezdsp5535_v1/c55xx_csl/ccs_v4.0_examples/i2c/C
     389                      .dwattr $C$DW$44, DW_AT_TI_end_line(0xad)
     390                      .dwattr $C$DW$44, DW_AT_TI_end_column(0x01)
     391                      .dwendentry
     392                      .dwendtag $C$DW$44
     393              
     394 000048               .sect   ".text"
     395                      .align 4
     396                      .global _CSL_i2cIntcTest
     397              
     398              $C$DW$51        .dwtag  DW_TAG_subprogram, DW_AT_name("CSL_i2cIntcTest")
     399                      .dwattr $C$DW$51, DW_AT_low_pc(_CSL_i2cIntcTest)
     400                      .dwattr $C$DW$51, DW_AT_high_pc(0x00)
     401                      .dwattr $C$DW$51, DW_AT_TI_symbol_name("_CSL_i2cIntcTest")
     402                      .dwattr $C$DW$51, DW_AT_external
     403                      .dwattr $C$DW$51, DW_AT_type(*$C$DW$T$70)
     404                      .dwattr $C$DW$51, DW_AT_TI_begin_file("../c5535_bsl_revc/ezdsp5535_v1/c55xx_csl/ccs_v4.0_examples/i2c
     405                      .dwattr $C$DW$51, DW_AT_TI_begin_line(0xb7)
     406                      .dwattr $C$DW$51, DW_AT_TI_begin_column(0x0d)
     407                      .dwattr $C$DW$51, DW_AT_TI_max_frame_size(0x06)
     408                      .dwpsn  file "../c5535_bsl_revc/ezdsp5535_v1/c55xx_csl/ccs_v4.0_examples/i2c/CSL_I2C_IntcExample/csl_
     409              
     410                      .dwfde $C$DW$CIE, _CSL_i2cIntcTest
     411              ;*******************************************************************************
     412              ;* FUNCTION NAME: CSL_i2cIntcTest                                              *
     413              ;*                                                                             *
     414              ;*   Function Uses Regs : AC0,AC0,T0,AR0,XAR0,AR1,AR2,AR3,XAR3,SP,CARRY,TC1,   *
     415              ;*                        M40,SATA,SATD,RDM,FRCT,SMUL                          *
     416              ;*   Stack Frame        : Compact (No Frame Pointer, w/ debug)                 *
     417              ;*   Total Frame Size   : 6 words                                              *
TMS320C55x Assembler PC v4.4.1 Sat Sep 29 23:09:36 2018

Tools Copyright (c) 1996-2012 Texas Instruments Incorporated
csl_i2c_intc_example.asm                                             PAGE    9

     418              ;*                        (1 return address/alignment)                         *
     419              ;*                        (2 function parameters)                              *
     420              ;*                        (3 local values)                                     *
     421              ;*   Min System Stack   : 1 word                                               *
     422              ;*******************************************************************************
     423 000048       _CSL_i2cIntcTest:
     424                      .dwcfi  cfa_offset, 1
     425                      .dwcfi  save_reg_to_mem, 91, -1
     426 000048 4EFB          AADD #-5, SP
     427                      .dwcfi  cfa_offset, 6
     428              $C$DW$52        .dwtag  DW_TAG_variable, DW_AT_name("status")
     429                      .dwattr $C$DW$52, DW_AT_TI_symbol_name("_status")
     430                      .dwattr $C$DW$52, DW_AT_type(*$C$DW$T$70)
     431                      .dwattr $C$DW$52, DW_AT_location[DW_OP_bregx 0x24 2]
     432              $C$DW$53        .dwtag  DW_TAG_variable, DW_AT_name("result")
     433                      .dwattr $C$DW$53, DW_AT_TI_symbol_name("_result")
     434                      .dwattr $C$DW$53, DW_AT_type(*$C$DW$T$70)
     435                      .dwattr $C$DW$53, DW_AT_location[DW_OP_bregx 0x24 3]
     436              $C$DW$54        .dwtag  DW_TAG_variable, DW_AT_name("looper")
     437                      .dwattr $C$DW$54, DW_AT_TI_symbol_name("_looper")
     438                      .dwattr $C$DW$54, DW_AT_type(*$C$DW$T$20)
     439                      .dwattr $C$DW$54, DW_AT_location[DW_OP_bregx 0x24 4]
     440                      .dwpsn  file "../c5535_bsl_revc/ezdsp5535_v1/c55xx_csl/ccs_v4.0_examples/i2c/CSL_I2C_IntcExample/csl_
     441 00004a E606          MOV #1, *SP(#3) ; |189| 
         00004c 01   
     442                      .dwpsn  file "../c5535_bsl_revc/ezdsp5535_v1/c55xx_csl/ccs_v4.0_examples/i2c/CSL_I2C_IntcExample/csl_
     443 00004d E631          MOV #0, *(#_gI2cWrBuf) ; |192| 
         00004f 0000 
         000051 0000-
     444                      .dwpsn  file "../c5535_bsl_revc/ezdsp5535_v1/c55xx_csl/ccs_v4.0_examples/i2c/CSL_I2C_IntcExample/csl_
     445 000053 E631          MOV #0, *(#(_gI2cWrBuf+1)) ; |193| 
         000055 0000 
         000057 0001-
     446                      .dwpsn  file "../c5535_bsl_revc/ezdsp5535_v1/c55xx_csl/ccs_v4.0_examples/i2c/CSL_I2C_IntcExample/csl_
     447 000059 E608          MOV #0, *SP(#4) ; |196| 
         00005b 00   
     448 00005c 20            NOP
     449 00005d 20            NOP
     450                      .dwpsn  file "../c5535_bsl_revc/ezdsp5535_v1/c55xx_csl/ccs_v4.0_examples/i2c/CSL_I2C_IntcExample/csl_
     451 00005e 7600          MOV #64, AR2 ; |196| 
         000060 40A8 
     452 000062 A908          MOV *SP(#4), AR1 ; |196| 
     453 000064 1298          CMPU AR1 >= AR2, TC1 ; |196| 
         000066 A4   
     454 000067 0464          BCC $C$L4,TC1 ; |196| 
         000069 28   
     455                                                      ; branchcc occurs ; |196| 
     456 00006a       $C$L3:    
     457 00006a       $C$DW$L$_CSL_i2cIntcTest$2$B:
     458                      .dwpsn  file "../c5535_bsl_revc/ezdsp5535_v1/c55xx_csl/ccs_v4.0_examples/i2c/CSL_I2C_IntcExample/csl_
     459 00006a A408          MOV *SP(#4), T0 ; |198| 
     460 00006c 4024          ADD #2, T0 ; |198| 
     461 00006e EC31          AMOV #_gI2cWrBuf, XAR3 ; |198| 
         000070 BE00 
         000072 0000-
TMS320C55x Assembler PC v4.4.1 Sat Sep 29 23:09:36 2018

Tools Copyright (c) 1996-2012 Texas Instruments Incorporated
csl_i2c_intc_example.asm                                             PAGE   10

     462 000074 A908          MOV *SP(#4), AR1 ; |198| 
     463 000076 C96B          MOV AR1, *AR3(T0) ; |198| 
     464                      .dwpsn  file "../c5535_bsl_revc/ezdsp5535_v1/c55xx_csl/ccs_v4.0_examples/i2c/CSL_I2C_IntcExample/csl_
     465 000078 A408          MOV *SP(#4), T0 ; |199| 
     466 00007a EC31          AMOV #_gI2cRdBuf, XAR3 ; |199| 
         00007c BE00 
         00007e 0042-
     467 000080 E66B          MOV #0, *AR3(T0) ; |199| 
         000082 00   
     468                      .dwpsn  file "../c5535_bsl_revc/ezdsp5535_v1/c55xx_csl/ccs_v4.0_examples/i2c/CSL_I2C_IntcExample/csl_
     469 000083 F708          ADD #1, *SP(#4) ; |196| 
         000085 0001 
     470 000087 20            NOP
     471 000088 20            NOP
     472 000089 20            NOP
     473                      .dwpsn  file "../c5535_bsl_revc/ezdsp5535_v1/c55xx_csl/ccs_v4.0_examples/i2c/CSL_I2C_IntcExample/csl_
     474 00008a A908          MOV *SP(#4), AR1 ; |196| 
     475 00008c 1294          CMPU AR1 < AR2, TC1 ; |196| 
         00008e A4   
     476 00008f 0464          BCC $C$L3,TC1 ; |196| 
         000091 D8   
     477                                                      ; branchcc occurs ; |196| 
     478 000092       $C$DW$L$_CSL_i2cIntcTest$2$E:
     479 000092       $C$L4:    
     480                      .dwpsn  file "../c5535_bsl_revc/ezdsp5535_v1/c55xx_csl/ccs_v4.0_examples/i2c/CSL_I2C_IntcExample/csl_
     481              $C$DW$55        .dwtag  DW_TAG_TI_branch
     482                      .dwattr $C$DW$55, DW_AT_low_pc(0x00)
     483                      .dwattr $C$DW$55, DW_AT_name("_IRQ_globalDisable")
     484                      .dwattr $C$DW$55, DW_AT_TI_call
     485 000092 6C00          CALL #_IRQ_globalDisable ; |203| 
         000094 0000!
     486                                                      ; call occurs [#_IRQ_globalDisable] ; |203| 
     487                      .dwpsn  file "../c5535_bsl_revc/ezdsp5535_v1/c55xx_csl/ccs_v4.0_examples/i2c/CSL_I2C_IntcExample/csl_
     488              $C$DW$56        .dwtag  DW_TAG_TI_branch
     489                      .dwattr $C$DW$56, DW_AT_low_pc(0x00)
     490                      .dwattr $C$DW$56, DW_AT_name("_IRQ_clearAll")
     491                      .dwattr $C$DW$56, DW_AT_TI_call
     492 000096 6C00          CALL #_IRQ_clearAll ; |206| 
         000098 0000!
     493                                                      ; call occurs [#_IRQ_clearAll] ; |206| 
     494                      .dwpsn  file "../c5535_bsl_revc/ezdsp5535_v1/c55xx_csl/ccs_v4.0_examples/i2c/CSL_I2C_IntcExample/csl_
     495              $C$DW$57        .dwtag  DW_TAG_TI_branch
     496                      .dwattr $C$DW$57, DW_AT_low_pc(0x00)
     497                      .dwattr $C$DW$57, DW_AT_name("_IRQ_disableAll")
     498                      .dwattr $C$DW$57, DW_AT_TI_call
     499 00009a 6C00          CALL #_IRQ_disableAll ; |209| 
         00009c 0000!
     500                                                      ; call occurs [#_IRQ_disableAll] ; |209| 
     501                      .dwpsn  file "../c5535_bsl_revc/ezdsp5535_v1/c55xx_csl/ccs_v4.0_examples/i2c/CSL_I2C_IntcExample/csl_
     502 00009e 7A00          MOV #(_VECSTART >> 16) << #16, AC0 ; |212| 
         0000a0 000A%
     503 0000a2 7E00          OR #(_VECSTART & 0xffff), AC0, AC0 ; |212| 
         0000a4 0000%
     504              $C$DW$58        .dwtag  DW_TAG_TI_branch
     505                      .dwattr $C$DW$58, DW_AT_low_pc(0x00)
TMS320C55x Assembler PC v4.4.1 Sat Sep 29 23:09:36 2018

Tools Copyright (c) 1996-2012 Texas Instruments Incorporated
csl_i2c_intc_example.asm                                             PAGE   11

     506                      .dwattr $C$DW$58, DW_AT_name("_IRQ_setVecs")
     507                      .dwattr $C$DW$58, DW_AT_TI_call
     508 0000a6 6C00          CALL #_IRQ_setVecs ; |212| 
         0000a8 0000!
     509                                                      ; call occurs [#_IRQ_setVecs] ; |212| 
     510                      .dwpsn  file "../c5535_bsl_revc/ezdsp5535_v1/c55xx_csl/ccs_v4.0_examples/i2c/CSL_I2C_IntcExample/csl_
     511 0000aa 7A00          MOV #(_i2c_isr >> 16) << #16, AC0 ; |215| 
         0000ac 000A%
     512 0000ae 7E00          OR #(_i2c_isr & 0xffff), AC0, AC0 ; |215| 
         0000b0 0000%
     513 0000b2 EB31          MOV AC0, dbl(*(#_config)) ; |215| 
         0000b4 0800 
         0000b6 009E-
     514                      .dwpsn  file "../c5535_bsl_revc/ezdsp5535_v1/c55xx_csl/ccs_v4.0_examples/i2c/CSL_I2C_IntcExample/csl_
     515 0000b8 7600          MOV #23, T0 ; |216| 
         0000ba 1748 
     516 0000bc ED31          MOV dbl(*(#_config)), AC0 ; |216| 
         0000be 0800 
         0000c0 009E-
     517              $C$DW$59        .dwtag  DW_TAG_TI_branch
     518                      .dwattr $C$DW$59, DW_AT_low_pc(0x00)
     519                      .dwattr $C$DW$59, DW_AT_name("_IRQ_plug")
     520                      .dwattr $C$DW$59, DW_AT_TI_call
     521 0000c2 6C00          CALL #_IRQ_plug ; |216| 
         0000c4 0000!
     522                                                      ; call occurs [#_IRQ_plug] ; |216| 
     523                      .dwpsn  file "../c5535_bsl_revc/ezdsp5535_v1/c55xx_csl/ccs_v4.0_examples/i2c/CSL_I2C_IntcExample/csl_
     524 0000c6 7600          MOV #23, T0 ; |219| 
         0000c8 1748 
     525              $C$DW$60        .dwtag  DW_TAG_TI_branch
     526                      .dwattr $C$DW$60, DW_AT_low_pc(0x00)
     527                      .dwattr $C$DW$60, DW_AT_name("_IRQ_enable")
     528                      .dwattr $C$DW$60, DW_AT_TI_call
     529 0000ca 6C00          CALL #_IRQ_enable ; |219| 
         0000cc 0000!
     530                                                      ; call occurs [#_IRQ_enable] ; |219| 
     531                      .dwpsn  file "../c5535_bsl_revc/ezdsp5535_v1/c55xx_csl/ccs_v4.0_examples/i2c/CSL_I2C_IntcExample/csl_
     532              $C$DW$61        .dwtag  DW_TAG_TI_branch
     533                      .dwattr $C$DW$61, DW_AT_low_pc(0x00)
     534                      .dwattr $C$DW$61, DW_AT_name("_IRQ_globalEnable")
     535                      .dwattr $C$DW$61, DW_AT_TI_call
     536 0000ce 6C00          CALL #_IRQ_globalEnable ; |221| 
         0000d0 0000!
     537                                                      ; call occurs [#_IRQ_globalEnable] ; |221| 
     538                      .dwpsn  file "../c5535_bsl_revc/ezdsp5535_v1/c55xx_csl/ccs_v4.0_examples/i2c/CSL_I2C_IntcExample/csl_
     539              $C$DW$62        .dwtag  DW_TAG_TI_branch
     540                      .dwattr $C$DW$62, DW_AT_low_pc(0x00)
     541                      .dwattr $C$DW$62, DW_AT_name("_I2C_init")
     542                      .dwattr $C$DW$62, DW_AT_TI_call
     543              
     544 0000d2 6C00          CALL #_I2C_init ; |224| 
         0000d4 0000!
     545 0000d6 3D04  ||      MOV #0, T0
     546              
     547                                                      ; call occurs [#_I2C_init] ; |224| 
TMS320C55x Assembler PC v4.4.1 Sat Sep 29 23:09:36 2018

Tools Copyright (c) 1996-2012 Texas Instruments Incorporated
csl_i2c_intc_example.asm                                             PAGE   12

     548 0000d8 C404          MOV T0, *SP(#2) ; |224| 
     549                      .dwpsn  file "../c5535_bsl_revc/ezdsp5535_v1/c55xx_csl/ccs_v4.0_examples/i2c/CSL_I2C_IntcExample/csl_
     550 0000da 2249          MOV T0, AR1
     551 0000dc 0409          BCC $C$L5,AR1 == #0 ; |225| 
         0000de 12   
     552                                                      ; branchcc occurs ; |225| 
     553                      .dwpsn  file "../c5535_bsl_revc/ezdsp5535_v1/c55xx_csl/ccs_v4.0_examples/i2c/CSL_I2C_IntcExample/csl_
     554 0000df EC31          AMOV #$C$FSL4, XAR3 ; |227| 
         0000e1 BE00 
         0000e3 0064+
     555 0000e5 EB00          MOV XAR3, dbl(*SP(#0))
         0000e7 B5   
     556              $C$DW$63        .dwtag  DW_TAG_TI_branch
     557                      .dwattr $C$DW$63, DW_AT_low_pc(0x00)
     558                      .dwattr $C$DW$63, DW_AT_name("_printf")
     559                      .dwattr $C$DW$63, DW_AT_TI_call
     560 0000e8 6C00          CALL #_printf ; |227| 
         0000ea 0000!
     561                                                      ; call occurs [#_printf] ; |227| 
     562                      .dwpsn  file "../c5535_bsl_revc/ezdsp5535_v1/c55xx_csl/ccs_v4.0_examples/i2c/CSL_I2C_IntcExample/csl_
     563 0000ec A406          MOV *SP(#3), T0 ; |228| 
     564 0000ee 0607          B $C$L51  ; |228| 
         0000f0 21   
     565                                                      ; branch occurs ; |228| 
     566 0000f1       $C$L5:    
     567                      .dwpsn  file "../c5535_bsl_revc/ezdsp5535_v1/c55xx_csl/ccs_v4.0_examples/i2c/CSL_I2C_IntcExample/csl_
     568 0000f1 7A00          MOV #(_CSL_i2cAlCallback >> 16) << #16, AC0 ; |232| 
         0000f3 000A%
     569 0000f5 7E00          OR #(_CSL_i2cAlCallback & 0xffff), AC0, AC0 ; |232| 
         0000f7 0000%
     570 0000f9 EB31          MOV AC0, dbl(*(#_i2cIsrAddr)) ; |232| 
         0000fb 0800 
         0000fd 00A6-
     571                      .dwpsn  file "../c5535_bsl_revc/ezdsp5535_v1/c55xx_csl/ccs_v4.0_examples/i2c/CSL_I2C_IntcExample/csl_
     572 0000ff 7A00          MOV #(_CSL_i2cNackCallback >> 16) << #16, AC0 ; |233| 
         000101 000A%
     573 000103 7E00          OR #(_CSL_i2cNackCallback & 0xffff), AC0, AC0 ; |233| 
         000105 0000%
     574 000107 EB31          MOV AC0, dbl(*(#(_i2cIsrAddr+2))) ; |233| 
         000109 0800 
         00010b 00A8-
     575                      .dwpsn  file "../c5535_bsl_revc/ezdsp5535_v1/c55xx_csl/ccs_v4.0_examples/i2c/CSL_I2C_IntcExample/csl_
     576 00010d 7A00          MOV #(_CSL_i2cArdyCallback >> 16) << #16, AC0 ; |234| 
         00010f 000A%
     577 000111 7E00          OR #(_CSL_i2cArdyCallback & 0xffff), AC0, AC0 ; |234| 
         000113 0000%
     578 000115 EB31          MOV AC0, dbl(*(#(_i2cIsrAddr+4))) ; |234| 
         000117 0800 
         000119 00AA-
     579                      .dwpsn  file "../c5535_bsl_revc/ezdsp5535_v1/c55xx_csl/ccs_v4.0_examples/i2c/CSL_I2C_IntcExample/csl_
     580 00011b 7A00          MOV #(_CSL_i2cRxCallback >> 16) << #16, AC0 ; |235| 
         00011d 000A%
     581 00011f 7E00          OR #(_CSL_i2cRxCallback & 0xffff), AC0, AC0 ; |235| 
         000121 0000%
     582 000123 EB31          MOV AC0, dbl(*(#(_i2cIsrAddr+6))) ; |235| 
TMS320C55x Assembler PC v4.4.1 Sat Sep 29 23:09:36 2018

Tools Copyright (c) 1996-2012 Texas Instruments Incorporated
csl_i2c_intc_example.asm                                             PAGE   13

         000125 0800 
         000127 00AC-
     583                      .dwpsn  file "../c5535_bsl_revc/ezdsp5535_v1/c55xx_csl/ccs_v4.0_examples/i2c/CSL_I2C_IntcExample/csl_
     584 000129 7A00          MOV #(_CSL_i2cTxCallback >> 16) << #16, AC0 ; |236| 
         00012b 000A%
     585 00012d 7E00          OR #(_CSL_i2cTxCallback & 0xffff), AC0, AC0 ; |236| 
         00012f 0000%
     586 000131 EB31          MOV AC0, dbl(*(#(_i2cIsrAddr+8))) ; |236| 
         000133 0800 
         000135 00AE-
     587                      .dwpsn  file "../c5535_bsl_revc/ezdsp5535_v1/c55xx_csl/ccs_v4.0_examples/i2c/CSL_I2C_IntcExample/csl_
     588 000137 7A00          MOV #(_CSL_i2cScdCallback >> 16) << #16, AC0 ; |237| 
         000139 000A%
     589 00013b 7E00          OR #(_CSL_i2cScdCallback & 0xffff), AC0, AC0 ; |237| 
         00013d 0000%
     590 00013f EB31          MOV AC0, dbl(*(#(_i2cIsrAddr+10))) ; |237| 
         000141 0800 
         000143 00B0-
     591                      .dwpsn  file "../c5535_bsl_revc/ezdsp5535_v1/c55xx_csl/ccs_v4.0_examples/i2c/CSL_I2C_IntcExample/csl_
     592 000145 7A00          MOV #(_CSL_i2cAasCallback >> 16) << #16, AC0 ; |238| 
         000147 000A%
     593 000149 7E00          OR #(_CSL_i2cAasCallback & 0xffff), AC0, AC0 ; |238| 
         00014b 0000%
     594 00014d EB31          MOV AC0, dbl(*(#(_i2cIsrAddr+12))) ; |238| 
         00014f 0800 
         000151 00B2-
     595                      .dwpsn  file "../c5535_bsl_revc/ezdsp5535_v1/c55xx_csl/ccs_v4.0_examples/i2c/CSL_I2C_IntcExample/csl_
     596 000153 EC31          AMOV #_i2cIsrAddr, XAR0 ; |240| 
         000155 8E00 
         000157 00A6-
     597              $C$DW$64        .dwtag  DW_TAG_TI_branch
     598                      .dwattr $C$DW$64, DW_AT_low_pc(0x00)
     599                      .dwattr $C$DW$64, DW_AT_name("_I2C_setCallback")
     600                      .dwattr $C$DW$64, DW_AT_TI_call
     601 000159 6C00          CALL #_I2C_setCallback ; |240| 
         00015b 0000!
     602                                                      ; call occurs [#_I2C_setCallback] ; |240| 
     603 00015d C404          MOV T0, *SP(#2) ; |240| 
     604                      .dwpsn  file "../c5535_bsl_revc/ezdsp5535_v1/c55xx_csl/ccs_v4.0_examples/i2c/CSL_I2C_IntcExample/csl_
     605 00015f 2249          MOV T0, AR1
     606 000161 0409          BCC $C$L6,AR1 == #0 ; |241| 
         000163 12   
     607                                                      ; branchcc occurs ; |241| 
     608                      .dwpsn  file "../c5535_bsl_revc/ezdsp5535_v1/c55xx_csl/ccs_v4.0_examples/i2c/CSL_I2C_IntcExample/csl_
     609 000164 EC31          AMOV #$C$FSL5, XAR3 ; |243| 
         000166 BE00 
         000168 0078+
     610 00016a EB00          MOV XAR3, dbl(*SP(#0))
         00016c B5   
     611              $C$DW$65        .dwtag  DW_TAG_TI_branch
     612                      .dwattr $C$DW$65, DW_AT_low_pc(0x00)
     613                      .dwattr $C$DW$65, DW_AT_name("_printf")
     614                      .dwattr $C$DW$65, DW_AT_TI_call
     615 00016d 6C00          CALL #_printf ; |243| 
         00016f 0000!
TMS320C55x Assembler PC v4.4.1 Sat Sep 29 23:09:36 2018

Tools Copyright (c) 1996-2012 Texas Instruments Incorporated
csl_i2c_intc_example.asm                                             PAGE   14

     616                                                      ; call occurs [#_printf] ; |243| 
     617                      .dwpsn  file "../c5535_bsl_revc/ezdsp5535_v1/c55xx_csl/ccs_v4.0_examples/i2c/CSL_I2C_IntcExample/csl_
     618 000171 A406          MOV *SP(#3), T0 ; |244| 
     619 000173 0606          B $C$L51  ; |244| 
         000175 9C   
     620                                                      ; branch occurs ; |244| 
     621 000176       $C$L6:    
     622                      .dwpsn  file "../c5535_bsl_revc/ezdsp5535_v1/c55xx_csl/ccs_v4.0_examples/i2c/CSL_I2C_IntcExample/csl_
     623 000176 E631          MOV #47, *(#_i2cConfig) ; |248| 
         000178 2F00 
         00017a 008C-
     624                      .dwpsn  file "../c5535_bsl_revc/ezdsp5535_v1/c55xx_csl/ccs_v4.0_examples/i2c/CSL_I2C_IntcExample/csl_
     625 00017c E631          MOV #0, *(#(_i2cConfig+1)) ; |249| 
         00017e 0000 
         000180 008D-
     626                      .dwpsn  file "../c5535_bsl_revc/ezdsp5535_v1/c55xx_csl/ccs_v4.0_examples/i2c/CSL_I2C_IntcExample/csl_
     627 000182 FB31          MOV #620, *(#(_i2cConfig+2)) ; |250| 
         000184 026C 
         000186 0000 
         000188 8E-  
     628                      .dwpsn  file "../c5535_bsl_revc/ezdsp5535_v1/c55xx_csl/ccs_v4.0_examples/i2c/CSL_I2C_IntcExample/csl_
     629 000189 FB31          MOV #620, *(#(_i2cConfig+3)) ; |251| 
         00018b 026C 
         00018d 0000 
         00018f 8F-  
     630                      .dwpsn  file "../c5535_bsl_revc/ezdsp5535_v1/c55xx_csl/ccs_v4.0_examples/i2c/CSL_I2C_IntcExample/csl_
     631 000190 E631          MOV #66, *(#(_i2cConfig+4)) ; |252| 
         000192 4200 
         000194 0090-
     632                      .dwpsn  file "../c5535_bsl_revc/ezdsp5535_v1/c55xx_csl/ccs_v4.0_examples/i2c/CSL_I2C_IntcExample/csl_
     633 000196 E631          MOV #80, *(#(_i2cConfig+5)) ; |253| 
         000198 5000 
         00019a 0091-
     634                      .dwpsn  file "../c5535_bsl_revc/ezdsp5535_v1/c55xx_csl/ccs_v4.0_examples/i2c/CSL_I2C_IntcExample/csl_
     635 00019c FB31          MOV #3616, *(#(_i2cConfig+6)) ; |254| 
         00019e 0E20 
         0001a0 0000 
         0001a2 92-  
     636                      .dwpsn  file "../c5535_bsl_revc/ezdsp5535_v1/c55xx_csl/ccs_v4.0_examples/i2c/CSL_I2C_IntcExample/csl_
     637 0001a3 E631          MOV #0, *(#(_i2cConfig+7)) ; |255| 
         0001a5 0000 
         0001a7 0093-
     638                      .dwpsn  file "../c5535_bsl_revc/ezdsp5535_v1/c55xx_csl/ccs_v4.0_examples/i2c/CSL_I2C_IntcExample/csl_
     639 0001a9 E631          MOV #7, *(#(_i2cConfig+8)) ; |256| 
         0001ab 0700 
         0001ad 0094-
     640                      .dwpsn  file "../c5535_bsl_revc/ezdsp5535_v1/c55xx_csl/ccs_v4.0_examples/i2c/CSL_I2C_IntcExample/csl_
     641 0001af EC31          AMOV #_i2cConfig, XAR0 ; |258| 
         0001b1 8E00 
         0001b3 008C-
     642              $C$DW$66        .dwtag  DW_TAG_TI_branch
     643                      .dwattr $C$DW$66, DW_AT_low_pc(0x00)
     644                      .dwattr $C$DW$66, DW_AT_name("_I2C_config")
     645                      .dwattr $C$DW$66, DW_AT_TI_call
     646 0001b5 6C00          CALL #_I2C_config ; |258| 
TMS320C55x Assembler PC v4.4.1 Sat Sep 29 23:09:36 2018

Tools Copyright (c) 1996-2012 Texas Instruments Incorporated
csl_i2c_intc_example.asm                                             PAGE   15

         0001b7 0000!
     647                                                      ; call occurs [#_I2C_config] ; |258| 
     648 0001b9 C404          MOV T0, *SP(#2) ; |258| 
     649                      .dwpsn  file "../c5535_bsl_revc/ezdsp5535_v1/c55xx_csl/ccs_v4.0_examples/i2c/CSL_I2C_IntcExample/csl_
     650 0001bb 2249          MOV T0, AR1
     651 0001bd 0409          BCC $C$L7,AR1 == #0 ; |259| 
         0001bf 12   
     652                                                      ; branchcc occurs ; |259| 
     653                      .dwpsn  file "../c5535_bsl_revc/ezdsp5535_v1/c55xx_csl/ccs_v4.0_examples/i2c/CSL_I2C_IntcExample/csl_
     654 0001c0 EC31          AMOV #$C$FSL6, XAR3 ; |261| 
         0001c2 BE00 
         0001c4 0094+
     655 0001c6 EB00          MOV XAR3, dbl(*SP(#0))
         0001c8 B5   
     656              $C$DW$67        .dwtag  DW_TAG_TI_branch
     657                      .dwattr $C$DW$67, DW_AT_low_pc(0x00)
     658                      .dwattr $C$DW$67, DW_AT_name("_printf")
     659                      .dwattr $C$DW$67, DW_AT_TI_call
     660 0001c9 6C00          CALL #_printf ; |261| 
         0001cb 0000!
     661                                                      ; call occurs [#_printf] ; |261| 
     662                      .dwpsn  file "../c5535_bsl_revc/ezdsp5535_v1/c55xx_csl/ccs_v4.0_examples/i2c/CSL_I2C_IntcExample/csl_
     663 0001cd A406          MOV *SP(#3), T0 ; |262| 
     664 0001cf 0606          B $C$L51  ; |262| 
         0001d1 40   
     665                                                      ; branch occurs ; |262| 
     666 0001d2       $C$L7:    
     667                      .dwpsn  file "../c5535_bsl_revc/ezdsp5535_v1/c55xx_csl/ccs_v4.0_examples/i2c/CSL_I2C_IntcExample/csl_
     668 0001d2 EC31          AMOV #_i2cGetConfig, XAR0 ; |266| 
         0001d4 8E00 
         0001d6 0095-
     669              $C$DW$68        .dwtag  DW_TAG_TI_branch
     670                      .dwattr $C$DW$68, DW_AT_low_pc(0x00)
     671                      .dwattr $C$DW$68, DW_AT_name("_I2C_getConfig")
     672                      .dwattr $C$DW$68, DW_AT_TI_call
     673 0001d8 6C00          CALL #_I2C_getConfig ; |266| 
         0001da 0000!
     674                                                      ; call occurs [#_I2C_getConfig] ; |266| 
     675 0001dc C404          MOV T0, *SP(#2) ; |266| 
     676                      .dwpsn  file "../c5535_bsl_revc/ezdsp5535_v1/c55xx_csl/ccs_v4.0_examples/i2c/CSL_I2C_IntcExample/csl_
     677 0001de 2249          MOV T0, AR1
     678 0001e0 0409          BCC $C$L8,AR1 == #0 ; |267| 
         0001e2 12   
     679                                                      ; branchcc occurs ; |267| 
     680                      .dwpsn  file "../c5535_bsl_revc/ezdsp5535_v1/c55xx_csl/ccs_v4.0_examples/i2c/CSL_I2C_IntcExample/csl_
     681 0001e3 EC31          AMOV #$C$FSL7, XAR3 ; |269| 
         0001e5 BE00 
         0001e7 00AA+
     682 0001e9 EB00          MOV XAR3, dbl(*SP(#0))
         0001eb B5   
     683              $C$DW$69        .dwtag  DW_TAG_TI_branch
     684                      .dwattr $C$DW$69, DW_AT_low_pc(0x00)
     685                      .dwattr $C$DW$69, DW_AT_name("_printf")
     686                      .dwattr $C$DW$69, DW_AT_TI_call
     687 0001ec 6C00          CALL #_printf ; |269| 
TMS320C55x Assembler PC v4.4.1 Sat Sep 29 23:09:36 2018

Tools Copyright (c) 1996-2012 Texas Instruments Incorporated
csl_i2c_intc_example.asm                                             PAGE   16

         0001ee 0000!
     688                                                      ; call occurs [#_printf] ; |269| 
     689                      .dwpsn  file "../c5535_bsl_revc/ezdsp5535_v1/c55xx_csl/ccs_v4.0_examples/i2c/CSL_I2C_IntcExample/csl_
     690 0001f0 A406          MOV *SP(#3), T0 ; |270| 
     691 0001f2 0606          B $C$L51  ; |270| 
         0001f4 1D   
     692                                                      ; branch occurs ; |270| 
     693 0001f5       $C$L8:    
     694                      .dwpsn  file "../c5535_bsl_revc/ezdsp5535_v1/c55xx_csl/ccs_v4.0_examples/i2c/CSL_I2C_IntcExample/csl_
     695 0001f5 A931          MOV *(#_i2cGetConfig), AR1 ; |274| 
         0001f7 0000 
         0001f9 95-  
     696 0001fa AA31          MOV *(#_i2cConfig), AR2 ; |274| 
         0001fc 0000 
         0001fe 8C-  
     697 0001ff 12AC          CMPU AR2 != AR1, TC1 ; |274| 
         000201 94   
     698 000202 0464          BCC $C$L9,TC1 ; |274| 
         000204 7B   
     699                                                      ; branchcc occurs ; |274| 
     700 000205 A931          MOV *(#(_i2cGetConfig+1)), AR1 ; |274| 
         000207 0000 
         000209 96-  
     701 00020a AA31          MOV *(#(_i2cConfig+1)), AR2 ; |274| 
         00020c 0000 
         00020e 8D-  
     702 00020f 12AC          CMPU AR2 != AR1, TC1 ; |274| 
         000211 94   
     703 000212 0464          BCC $C$L9,TC1 ; |274| 
         000214 6B   
     704                                                      ; branchcc occurs ; |274| 
     705 000215 A931          MOV *(#(_i2cGetConfig+2)), AR1 ; |274| 
         000217 0000 
         000219 97-  
     706 00021a AA31          MOV *(#(_i2cConfig+2)), AR2 ; |274| 
         00021c 0000 
         00021e 8E-  
     707 00021f 12AC          CMPU AR2 != AR1, TC1 ; |274| 
         000221 94   
     708 000222 0464          BCC $C$L9,TC1 ; |274| 
         000224 5B   
     709                                                      ; branchcc occurs ; |274| 
     710 000225 A931          MOV *(#(_i2cGetConfig+3)), AR1 ; |274| 
         000227 0000 
         000229 98-  
     711 00022a 12AC          CMPU AR2 != AR1, TC1 ; |274| 
         00022c 94   
     712 00022d 0464          BCC $C$L9,TC1 ; |274| 
         00022f 50   
     713                                                      ; branchcc occurs ; |274| 
     714 000230 A931          MOV *(#(_i2cGetConfig+4)), AR1 ; |274| 
         000232 0000 
         000234 99-  
     715 000235 AA31          MOV *(#(_i2cConfig+4)), AR2 ; |274| 
         000237 0000 
TMS320C55x Assembler PC v4.4.1 Sat Sep 29 23:09:36 2018

Tools Copyright (c) 1996-2012 Texas Instruments Incorporated
csl_i2c_intc_example.asm                                             PAGE   17

         000239 90-  
     716 00023a 12AC          CMPU AR2 != AR1, TC1 ; |274| 
         00023c 94   
     717 00023d 0464          BCC $C$L9,TC1 ; |274| 
         00023f 40   
     718                                                      ; branchcc occurs ; |274| 
     719 000240 A931          MOV *(#(_i2cGetConfig+5)), AR1 ; |274| 
         000242 0000 
         000244 9A-  
     720 000245 AA31          MOV *(#(_i2cConfig+5)), AR2 ; |274| 
         000247 0000 
         000249 91-  
     721 00024a 12AC          CMPU AR2 != AR1, TC1 ; |274| 
         00024c 94   
     722 00024d 0464          BCC $C$L9,TC1 ; |274| 
         00024f 30   
     723                                                      ; branchcc occurs ; |274| 
     724 000250 A931          MOV *(#(_i2cGetConfig+6)), AR1 ; |274| 
         000252 0000 
         000254 9B-  
     725 000255 AA31          MOV *(#(_i2cConfig+6)), AR2 ; |274| 
         000257 0000 
         000259 92-  
     726 00025a 12AC          CMPU AR2 != AR1, TC1 ; |274| 
         00025c 94   
     727 00025d 0464          BCC $C$L9,TC1 ; |274| 
         00025f 20   
     728                                                      ; branchcc occurs ; |274| 
     729 000260 A931          MOV *(#(_i2cGetConfig+7)), AR1 ; |274| 
         000262 0000 
         000264 9C-  
     730 000265 AA31          MOV *(#(_i2cConfig+7)), AR2 ; |274| 
         000267 0000 
         000269 93-  
     731 00026a 12AC          CMPU AR2 != AR1, TC1 ; |274| 
         00026c 94   
     732 00026d 0464          BCC $C$L9,TC1 ; |274| 
         00026f 10   
     733                                                      ; branchcc occurs ; |274| 
     734 000270 A931          MOV *(#(_i2cGetConfig+8)), AR1 ; |274| 
         000272 0000 
         000274 9D-  
     735 000275 AA31          MOV *(#(_i2cConfig+8)), AR2 ; |274| 
         000277 0000 
         000279 94-  
     736 00027a 12A0          CMPU AR2 == AR1, TC1 ; |274| 
         00027c 94   
     737 00027d 0464          BCC $C$L10,TC1 ; |274| 
         00027f 12   
     738                                                      ; branchcc occurs ; |274| 
     739 000280       $C$L9:    
     740                      .dwpsn  file "../c5535_bsl_revc/ezdsp5535_v1/c55xx_csl/ccs_v4.0_examples/i2c/CSL_I2C_IntcExample/csl_
     741 000280 EC31          AMOV #$C$FSL8, XAR3 ; |284| 
         000282 BE00 
         000284 00C4+
TMS320C55x Assembler PC v4.4.1 Sat Sep 29 23:09:36 2018

Tools Copyright (c) 1996-2012 Texas Instruments Incorporated
csl_i2c_intc_example.asm                                             PAGE   18

     742 000286 EB00          MOV XAR3, dbl(*SP(#0))
         000288 B5   
     743              $C$DW$70        .dwtag  DW_TAG_TI_branch
     744                      .dwattr $C$DW$70, DW_AT_low_pc(0x00)
     745                      .dwattr $C$DW$70, DW_AT_name("_printf")
     746                      .dwattr $C$DW$70, DW_AT_TI_call
     747 000289 6C00          CALL #_printf ; |284| 
         00028b 0000!
     748                                                      ; call occurs [#_printf] ; |284| 
     749                      .dwpsn  file "../c5535_bsl_revc/ezdsp5535_v1/c55xx_csl/ccs_v4.0_examples/i2c/CSL_I2C_IntcExample/csl_
     750 00028d A406          MOV *SP(#3), T0 ; |285| 
     751 00028f 0605          B $C$L51  ; |285| 
         000291 80   
     752                                                      ; branch occurs ; |285| 
     753 000292       $C$L10:    
     754                      .dwpsn  file "../c5535_bsl_revc/ezdsp5535_v1/c55xx_csl/ccs_v4.0_examples/i2c/CSL_I2C_IntcExample/csl_
     755 000292 E631          MOV #0, *(#_i2cErrInTx) ; |288| 
         000294 0000 
         000296 00B7-
     756                      .dwpsn  file "../c5535_bsl_revc/ezdsp5535_v1/c55xx_csl/ccs_v4.0_examples/i2c/CSL_I2C_IntcExample/csl_
     757 000298 E631          MOV #0, *(#_i2cTxCount) ; |289| 
         00029a 0000 
         00029c 00B5-
     758                      .dwpsn  file "../c5535_bsl_revc/ezdsp5535_v1/c55xx_csl/ccs_v4.0_examples/i2c/CSL_I2C_IntcExample/csl_
     759 00029e A931          MOV *(#(_i2cConfig+4)), AR1 ; |290| 
         0002a0 0000 
         0002a2 90-  
     760 0002a3 C931          MOV AR1, *(#_dataLength) ; |290| 
         0002a5 0000 
         0002a7 B4-  
     761                      .dwpsn  file "../c5535_bsl_revc/ezdsp5535_v1/c55xx_csl/ccs_v4.0_examples/i2c/CSL_I2C_IntcExample/csl_
     762              $C$DW$71        .dwtag  DW_TAG_TI_branch
     763                      .dwattr $C$DW$71, DW_AT_low_pc(0x00)
     764                      .dwattr $C$DW$71, DW_AT_name("_I2C_eventEnable")
     765                      .dwattr $C$DW$71, DW_AT_TI_call
     766              
     767 0002a8 6C00          CALL #_I2C_eventEnable ; |293| 
         0002aa 0000!
     768 0002ac 3D14  ||      MOV #1, T0
     769              
     770                                                      ; call occurs [#_I2C_eventEnable] ; |293| 
     771 0002ae C404          MOV T0, *SP(#2) ; |293| 
     772                      .dwpsn  file "../c5535_bsl_revc/ezdsp5535_v1/c55xx_csl/ccs_v4.0_examples/i2c/CSL_I2C_IntcExample/csl_
     773 0002b0 2249          MOV T0, AR1
     774 0002b2 0409          BCC $C$L11,AR1 == #0 ; |294| 
         0002b4 12   
     775                                                      ; branchcc occurs ; |294| 
     776                      .dwpsn  file "../c5535_bsl_revc/ezdsp5535_v1/c55xx_csl/ccs_v4.0_examples/i2c/CSL_I2C_IntcExample/csl_
     777 0002b5 EC31          AMOV #$C$FSL9, XAR3 ; |296| 
         0002b7 BE00 
         0002b9 00F6+
     778 0002bb EB00          MOV XAR3, dbl(*SP(#0))
         0002bd B5   
     779              $C$DW$72        .dwtag  DW_TAG_TI_branch
     780                      .dwattr $C$DW$72, DW_AT_low_pc(0x00)
TMS320C55x Assembler PC v4.4.1 Sat Sep 29 23:09:36 2018

Tools Copyright (c) 1996-2012 Texas Instruments Incorporated
csl_i2c_intc_example.asm                                             PAGE   19

     781                      .dwattr $C$DW$72, DW_AT_name("_printf")
     782                      .dwattr $C$DW$72, DW_AT_TI_call
     783 0002be 6C00          CALL #_printf ; |296| 
         0002c0 0000!
     784                                                      ; call occurs [#_printf] ; |296| 
     785                      .dwpsn  file "../c5535_bsl_revc/ezdsp5535_v1/c55xx_csl/ccs_v4.0_examples/i2c/CSL_I2C_IntcExample/csl_
     786 0002c2 A406          MOV *SP(#3), T0 ; |297| 
     787 0002c4 0605          B $C$L51  ; |297| 
         0002c6 4B   
     788                                                      ; branch occurs ; |297| 
     789 0002c7       $C$L11:    
     790                      .dwpsn  file "../c5535_bsl_revc/ezdsp5535_v1/c55xx_csl/ccs_v4.0_examples/i2c/CSL_I2C_IntcExample/csl_
     791              $C$DW$73        .dwtag  DW_TAG_TI_branch
     792                      .dwattr $C$DW$73, DW_AT_low_pc(0x00)
     793                      .dwattr $C$DW$73, DW_AT_name("_I2C_eventEnable")
     794                      .dwattr $C$DW$73, DW_AT_TI_call
     795              
     796 0002c7 6C00          CALL #_I2C_eventEnable ; |301| 
         0002c9 0000!
     797 0002cb 3D44  ||      MOV #4, T0
     798              
     799                                                      ; call occurs [#_I2C_eventEnable] ; |301| 
     800 0002cd C404          MOV T0, *SP(#2) ; |301| 
     801                      .dwpsn  file "../c5535_bsl_revc/ezdsp5535_v1/c55xx_csl/ccs_v4.0_examples/i2c/CSL_I2C_IntcExample/csl_
     802 0002cf 2249          MOV T0, AR1
     803 0002d1 0409          BCC $C$L12,AR1 == #0 ; |302| 
         0002d3 12   
     804                                                      ; branchcc occurs ; |302| 
     805                      .dwpsn  file "../c5535_bsl_revc/ezdsp5535_v1/c55xx_csl/ccs_v4.0_examples/i2c/CSL_I2C_IntcExample/csl_
     806 0002d4 EC31          AMOV #$C$FSL9, XAR3 ; |304| 
         0002d6 BE00 
         0002d8 00F6+
     807 0002da EB00          MOV XAR3, dbl(*SP(#0))
         0002dc B5   
     808              $C$DW$74        .dwtag  DW_TAG_TI_branch
     809                      .dwattr $C$DW$74, DW_AT_low_pc(0x00)
     810                      .dwattr $C$DW$74, DW_AT_name("_printf")
     811                      .dwattr $C$DW$74, DW_AT_TI_call
     812 0002dd 6C00          CALL #_printf ; |304| 
         0002df 0000!
     813                                                      ; call occurs [#_printf] ; |304| 
     814                      .dwpsn  file "../c5535_bsl_revc/ezdsp5535_v1/c55xx_csl/ccs_v4.0_examples/i2c/CSL_I2C_IntcExample/csl_
     815 0002e1 A406          MOV *SP(#3), T0 ; |305| 
     816 0002e3 0605          B $C$L51  ; |305| 
         0002e5 2C   
     817                                                      ; branch occurs ; |305| 
     818 0002e6       $C$L12:    
     819                      .dwpsn  file "../c5535_bsl_revc/ezdsp5535_v1/c55xx_csl/ccs_v4.0_examples/i2c/CSL_I2C_IntcExample/csl_
     820 0002e6 A951          MOV *port(#6692), AR1 ; |309| 
         0002e8 1A24 
     821 0002ea EC1A          BCLR @#13, AR1 ; |309| 
         0002ec 92   
     822 0002ed EC1A          BSET @#13, AR1 ; |309| 
         0002ef 90   
     823 0002f0 C951          MOV AR1, *port(#6692) ; |309| 
TMS320C55x Assembler PC v4.4.1 Sat Sep 29 23:09:36 2018

Tools Copyright (c) 1996-2012 Texas Instruments Incorporated
csl_i2c_intc_example.asm                                             PAGE   20

         0002f2 1A24 
     824                      .dwpsn  file "../c5535_bsl_revc/ezdsp5535_v1/c55xx_csl/ccs_v4.0_examples/i2c/CSL_I2C_IntcExample/csl_
     825 0002f4 A931          MOV *(#_dataLength), AR1 ; |312| 
         0002f6 0000 
         0002f8 B4-  
     826 0002f9 0409          BCC $C$L15,AR1 == #0 ; |312| 
         0002fb 22   
     827                                                      ; branchcc occurs ; |312| 
     828 0002fc       $C$L13:    
     829 0002fc       $C$DW$L$_CSL_i2cIntcTest$26$B:
     830                      .dwpsn  file "../c5535_bsl_revc/ezdsp5535_v1/c55xx_csl/ccs_v4.0_examples/i2c/CSL_I2C_IntcExample/csl_
     831 0002fc A931          MOV *(#_i2cErrInTx), AR1 ; |314| 
         0002fe 0000 
         000300 B7-  
     832 000301 0409          BCC $C$L14,AR1 == #0 ; |314| 
         000303 12   
     833                                                      ; branchcc occurs ; |314| 
     834 000304       $C$DW$L$_CSL_i2cIntcTest$26$E:
     835                      .dwpsn  file "../c5535_bsl_revc/ezdsp5535_v1/c55xx_csl/ccs_v4.0_examples/i2c/CSL_I2C_IntcExample/csl_
     836 000304 EC31          AMOV #$C$FSL10, XAR3 ; |316| 
         000306 BE00 
         000308 0112+
     837 00030a EB00          MOV XAR3, dbl(*SP(#0))
         00030c B5   
     838              $C$DW$75        .dwtag  DW_TAG_TI_branch
     839                      .dwattr $C$DW$75, DW_AT_low_pc(0x00)
     840                      .dwattr $C$DW$75, DW_AT_name("_printf")
     841                      .dwattr $C$DW$75, DW_AT_TI_call
     842 00030d 6C00          CALL #_printf ; |316| 
         00030f 0000!
     843                                                      ; call occurs [#_printf] ; |316| 
     844                      .dwpsn  file "../c5535_bsl_revc/ezdsp5535_v1/c55xx_csl/ccs_v4.0_examples/i2c/CSL_I2C_IntcExample/csl_
     845 000311 A406          MOV *SP(#3), T0 ; |317| 
     846 000313 0604          B $C$L51  ; |317| 
         000315 FC   
     847                                                      ; branch occurs ; |317| 
     848 000316       $C$L14:    
     849 000316       $C$DW$L$_CSL_i2cIntcTest$28$B:
     850                      .dwpsn  file "../c5535_bsl_revc/ezdsp5535_v1/c55xx_csl/ccs_v4.0_examples/i2c/CSL_I2C_IntcExample/csl_
     851 000316 A931          MOV *(#_dataLength), AR1 ; |312| 
         000318 0000 
         00031a B4-  
     852 00031b 0419          BCC $C$L13,AR1 != #0 ; |312| 
         00031d DE   
     853                                                      ; branchcc occurs ; |312| 
     854 00031e       $C$DW$L$_CSL_i2cIntcTest$28$E:
     855 00031e       $C$L15:    
     856                      .dwpsn  file "../c5535_bsl_revc/ezdsp5535_v1/c55xx_csl/ccs_v4.0_examples/i2c/CSL_I2C_IntcExample/csl_
     857              $C$DW$76        .dwtag  DW_TAG_TI_branch
     858                      .dwattr $C$DW$76, DW_AT_low_pc(0x00)
     859                      .dwattr $C$DW$76, DW_AT_name("_I2C_eventDisable")
     860                      .dwattr $C$DW$76, DW_AT_TI_call
     861              
     862 00031e 6C00          CALL #_I2C_eventDisable ; |322| 
         000320 0000!
TMS320C55x Assembler PC v4.4.1 Sat Sep 29 23:09:36 2018

Tools Copyright (c) 1996-2012 Texas Instruments Incorporated
csl_i2c_intc_example.asm                                             PAGE   21

     863 000322 3D14  ||      MOV #1, T0
     864              
     865                                                      ; call occurs [#_I2C_eventDisable] ; |322| 
     866 000324 C404          MOV T0, *SP(#2) ; |322| 
     867                      .dwpsn  file "../c5535_bsl_revc/ezdsp5535_v1/c55xx_csl/ccs_v4.0_examples/i2c/CSL_I2C_IntcExample/csl_
     868 000326 2249          MOV T0, AR1
     869 000328 0409          BCC $C$L16,AR1 == #0 ; |323| 
         00032a 12   
     870                                                      ; branchcc occurs ; |323| 
     871                      .dwpsn  file "../c5535_bsl_revc/ezdsp5535_v1/c55xx_csl/ccs_v4.0_examples/i2c/CSL_I2C_IntcExample/csl_
     872 00032b EC31          AMOV #$C$FSL11, XAR3 ; |325| 
         00032d BE00 
         00032f 012C+
     873 000331 EB00          MOV XAR3, dbl(*SP(#0))
         000333 B5   
     874              $C$DW$77        .dwtag  DW_TAG_TI_branch
     875                      .dwattr $C$DW$77, DW_AT_low_pc(0x00)
     876                      .dwattr $C$DW$77, DW_AT_name("_printf")
     877                      .dwattr $C$DW$77, DW_AT_TI_call
     878 000334 6C00          CALL #_printf ; |325| 
         000336 0000!
     879                                                      ; call occurs [#_printf] ; |325| 
     880                      .dwpsn  file "../c5535_bsl_revc/ezdsp5535_v1/c55xx_csl/ccs_v4.0_examples/i2c/CSL_I2C_IntcExample/csl_
     881 000338 A406          MOV *SP(#3), T0 ; |326| 
     882 00033a 0604          B $C$L51  ; |326| 
         00033c D5   
     883                                                      ; branch occurs ; |326| 
     884 00033d       $C$L16:    
     885                      .dwpsn  file "../c5535_bsl_revc/ezdsp5535_v1/c55xx_csl/ccs_v4.0_examples/i2c/CSL_I2C_IntcExample/csl_
     886              $C$DW$78        .dwtag  DW_TAG_TI_branch
     887                      .dwattr $C$DW$78, DW_AT_low_pc(0x00)
     888                      .dwattr $C$DW$78, DW_AT_name("_I2C_eventDisable")
     889                      .dwattr $C$DW$78, DW_AT_TI_call
     890              
     891 00033d 6C00          CALL #_I2C_eventDisable ; |330| 
         00033f 0000!
     892 000341 3D44  ||      MOV #4, T0
     893              
     894                                                      ; call occurs [#_I2C_eventDisable] ; |330| 
     895 000343 C404          MOV T0, *SP(#2) ; |330| 
     896                      .dwpsn  file "../c5535_bsl_revc/ezdsp5535_v1/c55xx_csl/ccs_v4.0_examples/i2c/CSL_I2C_IntcExample/csl_
     897 000345 2249          MOV T0, AR1
     898 000347 0409          BCC $C$L17,AR1 == #0 ; |331| 
         000349 12   
     899                                                      ; branchcc occurs ; |331| 
     900                      .dwpsn  file "../c5535_bsl_revc/ezdsp5535_v1/c55xx_csl/ccs_v4.0_examples/i2c/CSL_I2C_IntcExample/csl_
     901 00034a EC31          AMOV #$C$FSL11, XAR3 ; |333| 
         00034c BE00 
         00034e 012C+
     902 000350 EB00          MOV XAR3, dbl(*SP(#0))
         000352 B5   
     903              $C$DW$79        .dwtag  DW_TAG_TI_branch
     904                      .dwattr $C$DW$79, DW_AT_low_pc(0x00)
     905                      .dwattr $C$DW$79, DW_AT_name("_printf")
     906                      .dwattr $C$DW$79, DW_AT_TI_call
TMS320C55x Assembler PC v4.4.1 Sat Sep 29 23:09:36 2018

Tools Copyright (c) 1996-2012 Texas Instruments Incorporated
csl_i2c_intc_example.asm                                             PAGE   22

     907 000353 6C00          CALL #_printf ; |333| 
         000355 0000!
     908                                                      ; call occurs [#_printf] ; |333| 
     909                      .dwpsn  file "../c5535_bsl_revc/ezdsp5535_v1/c55xx_csl/ccs_v4.0_examples/i2c/CSL_I2C_IntcExample/csl_
     910 000357 A406          MOV *SP(#3), T0 ; |334| 
     911 000359 0604          B $C$L51  ; |334| 
         00035b B6   
     912                                                      ; branch occurs ; |334| 
     913 00035c       $C$L17:    
     914                      .dwpsn  file "../c5535_bsl_revc/ezdsp5535_v1/c55xx_csl/ccs_v4.0_examples/i2c/CSL_I2C_IntcExample/csl_
     915 00035c EC31          AMOV #$C$FSL12, XAR3 ; |337| 
         00035e BE00 
         000360 0148+
     916 000362 EB00          MOV XAR3, dbl(*SP(#0))
         000364 B5   
     917              $C$DW$80        .dwtag  DW_TAG_TI_branch
     918                      .dwattr $C$DW$80, DW_AT_low_pc(0x00)
     919                      .dwattr $C$DW$80, DW_AT_name("_printf")
     920                      .dwattr $C$DW$80, DW_AT_TI_call
     921 000365 6C00          CALL #_printf ; |337| 
         000367 0000!
     922                                                      ; call occurs [#_printf] ; |337| 
     923                      .dwpsn  file "../c5535_bsl_revc/ezdsp5535_v1/c55xx_csl/ccs_v4.0_examples/i2c/CSL_I2C_IntcExample/csl_
     924 000369 E608          MOV #0, *SP(#4) ; |340| 
         00036b 00   
     925 00036c 20            NOP
     926 00036d 20            NOP
     927                      .dwpsn  file "../c5535_bsl_revc/ezdsp5535_v1/c55xx_csl/ccs_v4.0_examples/i2c/CSL_I2C_IntcExample/csl_
     928 00036e 76FF          MOV #65535, AR2 ; |340| 
         000370 FFA8 
     929 000372 A908          MOV *SP(#4), AR1 ; |340| 
     930 000374 1298          CMPU AR1 >= AR2, TC1 ; |340| 
         000376 A4   
     931 000377 67E4          BCC $C$L19,TC1 ; |340| 
     932                                                      ; branchcc occurs ; |340| 
     933 000379       $C$L18:    
     934 000379       $C$DW$L$_CSL_i2cIntcTest$34$B:
     935                      .dwpsn  file "../c5535_bsl_revc/ezdsp5535_v1/c55xx_csl/ccs_v4.0_examples/i2c/CSL_I2C_IntcExample/csl_
     936 000379 F708          ADD #1, *SP(#4) ; |340| 
         00037b 0001 
     937 00037d 20            NOP
     938 00037e 20            NOP
     939 00037f 20            NOP
     940                      .dwpsn  file "../c5535_bsl_revc/ezdsp5535_v1/c55xx_csl/ccs_v4.0_examples/i2c/CSL_I2C_IntcExample/csl_
     941 000380 A908          MOV *SP(#4), AR1 ; |340| 
     942 000382 1294          CMPU AR1 < AR2, TC1 ; |340| 
         000384 A4   
     943 000385 0464          BCC $C$L18,TC1 ; |340| 
         000387 F1   
     944                                                      ; branchcc occurs ; |340| 
     945 000388       $C$DW$L$_CSL_i2cIntcTest$34$E:
     946 000388       $C$L19:    
     947                      .dwpsn  file "../c5535_bsl_revc/ezdsp5535_v1/c55xx_csl/ccs_v4.0_examples/i2c/CSL_I2C_IntcExample/csl_
     948 000388 E608          MOV #0, *SP(#4) ; |341| 
         00038a 00   
TMS320C55x Assembler PC v4.4.1 Sat Sep 29 23:09:36 2018

Tools Copyright (c) 1996-2012 Texas Instruments Incorporated
csl_i2c_intc_example.asm                                             PAGE   23

     949 00038b 20            NOP
     950 00038c 20            NOP
     951 00038d 20            NOP
     952                      .dwpsn  file "../c5535_bsl_revc/ezdsp5535_v1/c55xx_csl/ccs_v4.0_examples/i2c/CSL_I2C_IntcExample/csl_
     953 00038e A908          MOV *SP(#4), AR1 ; |341| 
     954 000390 1298          CMPU AR1 >= AR2, TC1 ; |341| 
         000392 A4   
     955 000393 67E4          BCC $C$L21,TC1 ; |341| 
     956                                                      ; branchcc occurs ; |341| 
     957 000395       $C$L20:    
     958 000395       $C$DW$L$_CSL_i2cIntcTest$36$B:
     959                      .dwpsn  file "../c5535_bsl_revc/ezdsp5535_v1/c55xx_csl/ccs_v4.0_examples/i2c/CSL_I2C_IntcExample/csl_
     960 000395 F708          ADD #1, *SP(#4) ; |341| 
         000397 0001 
     961 000399 20            NOP
     962 00039a 20            NOP
     963 00039b 20            NOP
     964                      .dwpsn  file "../c5535_bsl_revc/ezdsp5535_v1/c55xx_csl/ccs_v4.0_examples/i2c/CSL_I2C_IntcExample/csl_
     965 00039c A908          MOV *SP(#4), AR1 ; |341| 
     966 00039e 1294          CMPU AR1 < AR2, TC1 ; |341| 
         0003a0 A4   
     967 0003a1 0464          BCC $C$L20,TC1 ; |341| 
         0003a3 F1   
     968                                                      ; branchcc occurs ; |341| 
     969 0003a4       $C$DW$L$_CSL_i2cIntcTest$36$E:
     970 0003a4       $C$L21:    
     971                      .dwpsn  file "../c5535_bsl_revc/ezdsp5535_v1/c55xx_csl/ccs_v4.0_examples/i2c/CSL_I2C_IntcExample/csl_
     972 0003a4 E631          MOV #47, *(#_i2cConfig) ; |344| 
         0003a6 2F00 
         0003a8 008C-
     973                      .dwpsn  file "../c5535_bsl_revc/ezdsp5535_v1/c55xx_csl/ccs_v4.0_examples/i2c/CSL_I2C_IntcExample/csl_
     974 0003aa E631          MOV #0, *(#(_i2cConfig+1)) ; |345| 
         0003ac 0000 
         0003ae 008D-
     975                      .dwpsn  file "../c5535_bsl_revc/ezdsp5535_v1/c55xx_csl/ccs_v4.0_examples/i2c/CSL_I2C_IntcExample/csl_
     976 0003b0 FB31          MOV #620, *(#(_i2cConfig+2)) ; |346| 
         0003b2 026C 
         0003b4 0000 
         0003b6 8E-  
     977                      .dwpsn  file "../c5535_bsl_revc/ezdsp5535_v1/c55xx_csl/ccs_v4.0_examples/i2c/CSL_I2C_IntcExample/csl_
     978 0003b7 FB31          MOV #620, *(#(_i2cConfig+3)) ; |347| 
         0003b9 026C 
         0003bb 0000 
         0003bd 8F-  
     979                      .dwpsn  file "../c5535_bsl_revc/ezdsp5535_v1/c55xx_csl/ccs_v4.0_examples/i2c/CSL_I2C_IntcExample/csl_
     980 0003be E631          MOV #2, *(#(_i2cConfig+4)) ; |348| 
         0003c0 0200 
         0003c2 0090-
     981                      .dwpsn  file "../c5535_bsl_revc/ezdsp5535_v1/c55xx_csl/ccs_v4.0_examples/i2c/CSL_I2C_IntcExample/csl_
     982 0003c4 E631          MOV #80, *(#(_i2cConfig+5)) ; |349| 
         0003c6 5000 
         0003c8 0091-
     983                      .dwpsn  file "../c5535_bsl_revc/ezdsp5535_v1/c55xx_csl/ccs_v4.0_examples/i2c/CSL_I2C_IntcExample/csl_
     984 0003ca FB31          MOV #3616, *(#(_i2cConfig+6)) ; |350| 
         0003cc 0E20 
TMS320C55x Assembler PC v4.4.1 Sat Sep 29 23:09:36 2018

Tools Copyright (c) 1996-2012 Texas Instruments Incorporated
csl_i2c_intc_example.asm                                             PAGE   24

         0003ce 0000 
         0003d0 92-  
     985                      .dwpsn  file "../c5535_bsl_revc/ezdsp5535_v1/c55xx_csl/ccs_v4.0_examples/i2c/CSL_I2C_IntcExample/csl_
     986 0003d1 E631          MOV #0, *(#(_i2cConfig+7)) ; |351| 
         0003d3 0000 
         0003d5 0093-
     987                      .dwpsn  file "../c5535_bsl_revc/ezdsp5535_v1/c55xx_csl/ccs_v4.0_examples/i2c/CSL_I2C_IntcExample/csl_
     988 0003d7 E631          MOV #7, *(#(_i2cConfig+8)) ; |352| 
         0003d9 0700 
         0003db 0094-
     989                      .dwpsn  file "../c5535_bsl_revc/ezdsp5535_v1/c55xx_csl/ccs_v4.0_examples/i2c/CSL_I2C_IntcExample/csl_
     990 0003dd EC31          AMOV #_i2cConfig, XAR0 ; |354| 
         0003df 8E00 
         0003e1 008C-
     991              $C$DW$81        .dwtag  DW_TAG_TI_branch
     992                      .dwattr $C$DW$81, DW_AT_low_pc(0x00)
     993                      .dwattr $C$DW$81, DW_AT_name("_I2C_config")
     994                      .dwattr $C$DW$81, DW_AT_TI_call
     995 0003e3 6C00          CALL #_I2C_config ; |354| 
         0003e5 0000!
     996                                                      ; call occurs [#_I2C_config] ; |354| 
     997 0003e7 C404          MOV T0, *SP(#2) ; |354| 
     998                      .dwpsn  file "../c5535_bsl_revc/ezdsp5535_v1/c55xx_csl/ccs_v4.0_examples/i2c/CSL_I2C_IntcExample/csl_
     999 0003e9 2249          MOV T0, AR1
    1000 0003eb 0409          BCC $C$L22,AR1 == #0 ; |355| 
         0003ed 12   
    1001                                                      ; branchcc occurs ; |355| 
    1002                      .dwpsn  file "../c5535_bsl_revc/ezdsp5535_v1/c55xx_csl/ccs_v4.0_examples/i2c/CSL_I2C_IntcExample/csl_
    1003 0003ee EC31          AMOV #$C$FSL6, XAR3 ; |357| 
         0003f0 BE00 
         0003f2 0094+
    1004 0003f4 EB00          MOV XAR3, dbl(*SP(#0))
         0003f6 B5   
    1005              $C$DW$82        .dwtag  DW_TAG_TI_branch
    1006                      .dwattr $C$DW$82, DW_AT_low_pc(0x00)
    1007                      .dwattr $C$DW$82, DW_AT_name("_printf")
    1008                      .dwattr $C$DW$82, DW_AT_TI_call
    1009 0003f7 6C00          CALL #_printf ; |357| 
         0003f9 0000!
    1010                                                      ; call occurs [#_printf] ; |357| 
    1011                      .dwpsn  file "../c5535_bsl_revc/ezdsp5535_v1/c55xx_csl/ccs_v4.0_examples/i2c/CSL_I2C_IntcExample/csl_
    1012 0003fb A406          MOV *SP(#3), T0 ; |358| 
    1013 0003fd 0604          B $C$L51  ; |358| 
         0003ff 12   
    1014                                                      ; branch occurs ; |358| 
    1015 000400       $C$L22:    
    1016                      .dwpsn  file "../c5535_bsl_revc/ezdsp5535_v1/c55xx_csl/ccs_v4.0_examples/i2c/CSL_I2C_IntcExample/csl_
    1017 000400 EC31          AMOV #_i2cGetConfig, XAR0 ; |362| 
         000402 8E00 
         000404 0095-
    1018              $C$DW$83        .dwtag  DW_TAG_TI_branch
    1019                      .dwattr $C$DW$83, DW_AT_low_pc(0x00)
    1020                      .dwattr $C$DW$83, DW_AT_name("_I2C_getConfig")
    1021                      .dwattr $C$DW$83, DW_AT_TI_call
    1022 000406 6C00          CALL #_I2C_getConfig ; |362| 
TMS320C55x Assembler PC v4.4.1 Sat Sep 29 23:09:36 2018

Tools Copyright (c) 1996-2012 Texas Instruments Incorporated
csl_i2c_intc_example.asm                                             PAGE   25

         000408 0000!
    1023                                                      ; call occurs [#_I2C_getConfig] ; |362| 
    1024 00040a C404          MOV T0, *SP(#2) ; |362| 
    1025                      .dwpsn  file "../c5535_bsl_revc/ezdsp5535_v1/c55xx_csl/ccs_v4.0_examples/i2c/CSL_I2C_IntcExample/csl_
    1026 00040c 2249          MOV T0, AR1
    1027 00040e 0409          BCC $C$L23,AR1 == #0 ; |363| 
         000410 12   
    1028                                                      ; branchcc occurs ; |363| 
    1029                      .dwpsn  file "../c5535_bsl_revc/ezdsp5535_v1/c55xx_csl/ccs_v4.0_examples/i2c/CSL_I2C_IntcExample/csl_
    1030 000411 EC31          AMOV #$C$FSL7, XAR3 ; |365| 
         000413 BE00 
         000415 00AA+
    1031 000417 EB00          MOV XAR3, dbl(*SP(#0))
         000419 B5   
    1032              $C$DW$84        .dwtag  DW_TAG_TI_branch
    1033                      .dwattr $C$DW$84, DW_AT_low_pc(0x00)
    1034                      .dwattr $C$DW$84, DW_AT_name("_printf")
    1035                      .dwattr $C$DW$84, DW_AT_TI_call
    1036 00041a 6C00          CALL #_printf ; |365| 
         00041c 0000!
    1037                                                      ; call occurs [#_printf] ; |365| 
    1038                      .dwpsn  file "../c5535_bsl_revc/ezdsp5535_v1/c55xx_csl/ccs_v4.0_examples/i2c/CSL_I2C_IntcExample/csl_
    1039 00041e A406          MOV *SP(#3), T0 ; |366| 
    1040 000420 0603          B $C$L51  ; |366| 
         000422 EF   
    1041                                                      ; branch occurs ; |366| 
    1042 000423       $C$L23:    
    1043                      .dwpsn  file "../c5535_bsl_revc/ezdsp5535_v1/c55xx_csl/ccs_v4.0_examples/i2c/CSL_I2C_IntcExample/csl_
    1044 000423 A931          MOV *(#_i2cGetConfig), AR1 ; |370| 
         000425 0000 
         000427 95-  
    1045 000428 AA31          MOV *(#_i2cConfig), AR2 ; |370| 
         00042a 0000 
         00042c 8C-  
    1046 00042d 12AC          CMPU AR2 != AR1, TC1 ; |370| 
         00042f 94   
    1047 000430 0464          BCC $C$L24,TC1 ; |370| 
         000432 7B   
    1048                                                      ; branchcc occurs ; |370| 
    1049 000433 A931          MOV *(#(_i2cGetConfig+1)), AR1 ; |370| 
         000435 0000 
         000437 96-  
    1050 000438 AA31          MOV *(#(_i2cConfig+1)), AR2 ; |370| 
         00043a 0000 
         00043c 8D-  
    1051 00043d 12AC          CMPU AR2 != AR1, TC1 ; |370| 
         00043f 94   
    1052 000440 0464          BCC $C$L24,TC1 ; |370| 
         000442 6B   
    1053                                                      ; branchcc occurs ; |370| 
    1054 000443 A931          MOV *(#(_i2cGetConfig+2)), AR1 ; |370| 
         000445 0000 
         000447 97-  
    1055 000448 AA31          MOV *(#(_i2cConfig+2)), AR2 ; |370| 
         00044a 0000 
TMS320C55x Assembler PC v4.4.1 Sat Sep 29 23:09:36 2018

Tools Copyright (c) 1996-2012 Texas Instruments Incorporated
csl_i2c_intc_example.asm                                             PAGE   26

         00044c 8E-  
    1056 00044d 12AC          CMPU AR2 != AR1, TC1 ; |370| 
         00044f 94   
    1057 000450 0464          BCC $C$L24,TC1 ; |370| 
         000452 5B   
    1058                                                      ; branchcc occurs ; |370| 
    1059 000453 A931          MOV *(#(_i2cGetConfig+3)), AR1 ; |370| 
         000455 0000 
         000457 98-  
    1060 000458 12AC          CMPU AR2 != AR1, TC1 ; |370| 
         00045a 94   
    1061 00045b 0464          BCC $C$L24,TC1 ; |370| 
         00045d 50   
    1062                                                      ; branchcc occurs ; |370| 
    1063 00045e A931          MOV *(#(_i2cGetConfig+4)), AR1 ; |370| 
         000460 0000 
         000462 99-  
    1064 000463 AA31          MOV *(#(_i2cConfig+4)), AR2 ; |370| 
         000465 0000 
         000467 90-  
    1065 000468 12AC          CMPU AR2 != AR1, TC1 ; |370| 
         00046a 94   
    1066 00046b 0464          BCC $C$L24,TC1 ; |370| 
         00046d 40   
    1067                                                      ; branchcc occurs ; |370| 
    1068 00046e A931          MOV *(#(_i2cGetConfig+5)), AR1 ; |370| 
         000470 0000 
         000472 9A-  
    1069 000473 AA31          MOV *(#(_i2cConfig+5)), AR2 ; |370| 
         000475 0000 
         000477 91-  
    1070 000478 12AC          CMPU AR2 != AR1, TC1 ; |370| 
         00047a 94   
    1071 00047b 0464          BCC $C$L24,TC1 ; |370| 
         00047d 30   
    1072                                                      ; branchcc occurs ; |370| 
    1073 00047e A931          MOV *(#(_i2cGetConfig+6)), AR1 ; |370| 
         000480 0000 
         000482 9B-  
    1074 000483 AA31          MOV *(#(_i2cConfig+6)), AR2 ; |370| 
         000485 0000 
         000487 92-  
    1075 000488 12AC          CMPU AR2 != AR1, TC1 ; |370| 
         00048a 94   
    1076 00048b 0464          BCC $C$L24,TC1 ; |370| 
         00048d 20   
    1077                                                      ; branchcc occurs ; |370| 
    1078 00048e A931          MOV *(#(_i2cGetConfig+7)), AR1 ; |370| 
         000490 0000 
         000492 9C-  
    1079 000493 AA31          MOV *(#(_i2cConfig+7)), AR2 ; |370| 
         000495 0000 
         000497 93-  
    1080 000498 12AC          CMPU AR2 != AR1, TC1 ; |370| 
         00049a 94   
TMS320C55x Assembler PC v4.4.1 Sat Sep 29 23:09:36 2018

Tools Copyright (c) 1996-2012 Texas Instruments Incorporated
csl_i2c_intc_example.asm                                             PAGE   27

    1081 00049b 0464          BCC $C$L24,TC1 ; |370| 
         00049d 10   
    1082                                                      ; branchcc occurs ; |370| 
    1083 00049e A931          MOV *(#(_i2cGetConfig+8)), AR1 ; |370| 
         0004a0 0000 
         0004a2 9D-  
    1084 0004a3 AA31          MOV *(#(_i2cConfig+8)), AR2 ; |370| 
         0004a5 0000 
         0004a7 94-  
    1085 0004a8 12A0          CMPU AR2 == AR1, TC1 ; |370| 
         0004aa 94   
    1086 0004ab 0464          BCC $C$L25,TC1 ; |370| 
         0004ad 12   
    1087                                                      ; branchcc occurs ; |370| 
    1088 0004ae       $C$L24:    
    1089                      .dwpsn  file "../c5535_bsl_revc/ezdsp5535_v1/c55xx_csl/ccs_v4.0_examples/i2c/CSL_I2C_IntcExample/csl_
    1090 0004ae EC31          AMOV #$C$FSL8, XAR3 ; |380| 
         0004b0 BE00 
         0004b2 00C4+
    1091 0004b4 EB00          MOV XAR3, dbl(*SP(#0))
         0004b6 B5   
    1092              $C$DW$85        .dwtag  DW_TAG_TI_branch
    1093                      .dwattr $C$DW$85, DW_AT_low_pc(0x00)
    1094                      .dwattr $C$DW$85, DW_AT_name("_printf")
    1095                      .dwattr $C$DW$85, DW_AT_TI_call
    1096 0004b7 6C00          CALL #_printf ; |380| 
         0004b9 0000!
    1097                                                      ; call occurs [#_printf] ; |380| 
    1098                      .dwpsn  file "../c5535_bsl_revc/ezdsp5535_v1/c55xx_csl/ccs_v4.0_examples/i2c/CSL_I2C_IntcExample/csl_
    1099 0004bb A406          MOV *SP(#3), T0 ; |381| 
    1100 0004bd 0603          B $C$L51  ; |381| 
         0004bf 52   
    1101                                                      ; branch occurs ; |381| 
    1102 0004c0       $C$L25:    
    1103                      .dwpsn  file "../c5535_bsl_revc/ezdsp5535_v1/c55xx_csl/ccs_v4.0_examples/i2c/CSL_I2C_IntcExample/csl_
    1104 0004c0 E631          MOV #0, *(#_i2cErrInTx) ; |384| 
         0004c2 0000 
         0004c4 00B7-
    1105                      .dwpsn  file "../c5535_bsl_revc/ezdsp5535_v1/c55xx_csl/ccs_v4.0_examples/i2c/CSL_I2C_IntcExample/csl_
    1106 0004c6 E631          MOV #0, *(#_i2cTxCount) ; |385| 
         0004c8 0000 
         0004ca 00B5-
    1107                      .dwpsn  file "../c5535_bsl_revc/ezdsp5535_v1/c55xx_csl/ccs_v4.0_examples/i2c/CSL_I2C_IntcExample/csl_
    1108 0004cc A931          MOV *(#(_i2cConfig+4)), AR1 ; |386| 
         0004ce 0000 
         0004d0 90-  
    1109 0004d1 C931          MOV AR1, *(#_dataLength) ; |386| 
         0004d3 0000 
         0004d5 B4-  
    1110                      .dwpsn  file "../c5535_bsl_revc/ezdsp5535_v1/c55xx_csl/ccs_v4.0_examples/i2c/CSL_I2C_IntcExample/csl_
    1111              $C$DW$86        .dwtag  DW_TAG_TI_branch
    1112                      .dwattr $C$DW$86, DW_AT_low_pc(0x00)
    1113                      .dwattr $C$DW$86, DW_AT_name("_I2C_eventEnable")
    1114                      .dwattr $C$DW$86, DW_AT_TI_call
    1115              
TMS320C55x Assembler PC v4.4.1 Sat Sep 29 23:09:36 2018

Tools Copyright (c) 1996-2012 Texas Instruments Incorporated
csl_i2c_intc_example.asm                                             PAGE   28

    1116 0004d6 6C00          CALL #_I2C_eventEnable ; |389| 
         0004d8 0000!
    1117 0004da 3D14  ||      MOV #1, T0
    1118              
    1119                                                      ; call occurs [#_I2C_eventEnable] ; |389| 
    1120 0004dc C404          MOV T0, *SP(#2) ; |389| 
    1121                      .dwpsn  file "../c5535_bsl_revc/ezdsp5535_v1/c55xx_csl/ccs_v4.0_examples/i2c/CSL_I2C_IntcExample/csl_
    1122 0004de 2249          MOV T0, AR1
    1123 0004e0 0409          BCC $C$L26,AR1 == #0 ; |390| 
         0004e2 12   
    1124                                                      ; branchcc occurs ; |390| 
    1125                      .dwpsn  file "../c5535_bsl_revc/ezdsp5535_v1/c55xx_csl/ccs_v4.0_examples/i2c/CSL_I2C_IntcExample/csl_
    1126 0004e3 EC31          AMOV #$C$FSL9, XAR3 ; |392| 
         0004e5 BE00 
         0004e7 00F6+
    1127 0004e9 EB00          MOV XAR3, dbl(*SP(#0))
         0004eb B5   
    1128              $C$DW$87        .dwtag  DW_TAG_TI_branch
    1129                      .dwattr $C$DW$87, DW_AT_low_pc(0x00)
    1130                      .dwattr $C$DW$87, DW_AT_name("_printf")
    1131                      .dwattr $C$DW$87, DW_AT_TI_call
    1132 0004ec 6C00          CALL #_printf ; |392| 
         0004ee 0000!
    1133                                                      ; call occurs [#_printf] ; |392| 
    1134                      .dwpsn  file "../c5535_bsl_revc/ezdsp5535_v1/c55xx_csl/ccs_v4.0_examples/i2c/CSL_I2C_IntcExample/csl_
    1135 0004f0 A406          MOV *SP(#3), T0 ; |393| 
    1136 0004f2 0603          B $C$L51  ; |393| 
         0004f4 1D   
    1137                                                      ; branch occurs ; |393| 
    1138 0004f5       $C$L26:    
    1139                      .dwpsn  file "../c5535_bsl_revc/ezdsp5535_v1/c55xx_csl/ccs_v4.0_examples/i2c/CSL_I2C_IntcExample/csl_
    1140              $C$DW$88        .dwtag  DW_TAG_TI_branch
    1141                      .dwattr $C$DW$88, DW_AT_low_pc(0x00)
    1142                      .dwattr $C$DW$88, DW_AT_name("_I2C_eventEnable")
    1143                      .dwattr $C$DW$88, DW_AT_TI_call
    1144              
    1145 0004f5 6C00          CALL #_I2C_eventEnable ; |397| 
         0004f7 0000!
    1146 0004f9 3D44  ||      MOV #4, T0
    1147              
    1148                                                      ; call occurs [#_I2C_eventEnable] ; |397| 
    1149 0004fb C404          MOV T0, *SP(#2) ; |397| 
    1150                      .dwpsn  file "../c5535_bsl_revc/ezdsp5535_v1/c55xx_csl/ccs_v4.0_examples/i2c/CSL_I2C_IntcExample/csl_
    1151 0004fd 2249          MOV T0, AR1
    1152 0004ff 0409          BCC $C$L27,AR1 == #0 ; |398| 
         000501 12   
    1153                                                      ; branchcc occurs ; |398| 
    1154                      .dwpsn  file "../c5535_bsl_revc/ezdsp5535_v1/c55xx_csl/ccs_v4.0_examples/i2c/CSL_I2C_IntcExample/csl_
    1155 000502 EC31          AMOV #$C$FSL9, XAR3 ; |400| 
         000504 BE00 
         000506 00F6+
    1156 000508 EB00          MOV XAR3, dbl(*SP(#0))
         00050a B5   
    1157              $C$DW$89        .dwtag  DW_TAG_TI_branch
    1158                      .dwattr $C$DW$89, DW_AT_low_pc(0x00)
TMS320C55x Assembler PC v4.4.1 Sat Sep 29 23:09:36 2018

Tools Copyright (c) 1996-2012 Texas Instruments Incorporated
csl_i2c_intc_example.asm                                             PAGE   29

    1159                      .dwattr $C$DW$89, DW_AT_name("_printf")
    1160                      .dwattr $C$DW$89, DW_AT_TI_call
    1161 00050b 6C00          CALL #_printf ; |400| 
         00050d 0000!
    1162                                                      ; call occurs [#_printf] ; |400| 
    1163                      .dwpsn  file "../c5535_bsl_revc/ezdsp5535_v1/c55xx_csl/ccs_v4.0_examples/i2c/CSL_I2C_IntcExample/csl_
    1164 00050f A406          MOV *SP(#3), T0 ; |401| 
    1165 000511 0602          B $C$L51  ; |401| 
         000513 FE   
    1166                                                      ; branch occurs ; |401| 
    1167 000514       $C$L27:    
    1168                      .dwpsn  file "../c5535_bsl_revc/ezdsp5535_v1/c55xx_csl/ccs_v4.0_examples/i2c/CSL_I2C_IntcExample/csl_
    1169 000514 A951          MOV *port(#6692), AR1 ; |405| 
         000516 1A24 
    1170 000518 EC1A          BCLR @#13, AR1 ; |405| 
         00051a 92   
    1171 00051b EC1A          BSET @#13, AR1 ; |405| 
         00051d 90   
    1172 00051e C951          MOV AR1, *port(#6692) ; |405| 
         000520 1A24 
    1173                      .dwpsn  file "../c5535_bsl_revc/ezdsp5535_v1/c55xx_csl/ccs_v4.0_examples/i2c/CSL_I2C_IntcExample/csl_
    1174 000522 A931          MOV *(#_dataLength), AR1 ; |408| 
         000524 0000 
         000526 B4-  
    1175 000527 0409          BCC $C$L30,AR1 == #0 ; |408| 
         000529 22   
    1176                                                      ; branchcc occurs ; |408| 
    1177 00052a       $C$L28:    
    1178 00052a       $C$DW$L$_CSL_i2cIntcTest$56$B:
    1179                      .dwpsn  file "../c5535_bsl_revc/ezdsp5535_v1/c55xx_csl/ccs_v4.0_examples/i2c/CSL_I2C_IntcExample/csl_
    1180 00052a A931          MOV *(#_i2cErrInTx), AR1 ; |410| 
         00052c 0000 
         00052e B7-  
    1181 00052f 0409          BCC $C$L29,AR1 == #0 ; |410| 
         000531 12   
    1182                                                      ; branchcc occurs ; |410| 
    1183 000532       $C$DW$L$_CSL_i2cIntcTest$56$E:
    1184                      .dwpsn  file "../c5535_bsl_revc/ezdsp5535_v1/c55xx_csl/ccs_v4.0_examples/i2c/CSL_I2C_IntcExample/csl_
    1185 000532 EC31          AMOV #$C$FSL10, XAR3 ; |412| 
         000534 BE00 
         000536 0112+
    1186 000538 EB00          MOV XAR3, dbl(*SP(#0))
         00053a B5   
    1187              $C$DW$90        .dwtag  DW_TAG_TI_branch
    1188                      .dwattr $C$DW$90, DW_AT_low_pc(0x00)
    1189                      .dwattr $C$DW$90, DW_AT_name("_printf")
    1190                      .dwattr $C$DW$90, DW_AT_TI_call
    1191 00053b 6C00          CALL #_printf ; |412| 
         00053d 0000!
    1192                                                      ; call occurs [#_printf] ; |412| 
    1193                      .dwpsn  file "../c5535_bsl_revc/ezdsp5535_v1/c55xx_csl/ccs_v4.0_examples/i2c/CSL_I2C_IntcExample/csl_
    1194 00053f A406          MOV *SP(#3), T0 ; |413| 
    1195 000541 0602          B $C$L51  ; |413| 
         000543 CE   
    1196                                                      ; branch occurs ; |413| 
TMS320C55x Assembler PC v4.4.1 Sat Sep 29 23:09:36 2018

Tools Copyright (c) 1996-2012 Texas Instruments Incorporated
csl_i2c_intc_example.asm                                             PAGE   30

    1197 000544       $C$L29:    
    1198 000544       $C$DW$L$_CSL_i2cIntcTest$58$B:
    1199                      .dwpsn  file "../c5535_bsl_revc/ezdsp5535_v1/c55xx_csl/ccs_v4.0_examples/i2c/CSL_I2C_IntcExample/csl_
    1200 000544 A931          MOV *(#_dataLength), AR1 ; |408| 
         000546 0000 
         000548 B4-  
    1201 000549 0419          BCC $C$L28,AR1 != #0 ; |408| 
         00054b DE   
    1202                                                      ; branchcc occurs ; |408| 
    1203 00054c       $C$DW$L$_CSL_i2cIntcTest$58$E:
    1204 00054c       $C$L30:    
    1205                      .dwpsn  file "../c5535_bsl_revc/ezdsp5535_v1/c55xx_csl/ccs_v4.0_examples/i2c/CSL_I2C_IntcExample/csl_
    1206              $C$DW$91        .dwtag  DW_TAG_TI_branch
    1207                      .dwattr $C$DW$91, DW_AT_low_pc(0x00)
    1208                      .dwattr $C$DW$91, DW_AT_name("_I2C_eventDisable")
    1209                      .dwattr $C$DW$91, DW_AT_TI_call
    1210              
    1211 00054c 6C00          CALL #_I2C_eventDisable ; |418| 
         00054e 0000!
    1212 000550 3D14  ||      MOV #1, T0
    1213              
    1214                                                      ; call occurs [#_I2C_eventDisable] ; |418| 
    1215 000552 C404          MOV T0, *SP(#2) ; |418| 
    1216                      .dwpsn  file "../c5535_bsl_revc/ezdsp5535_v1/c55xx_csl/ccs_v4.0_examples/i2c/CSL_I2C_IntcExample/csl_
    1217 000554 2249          MOV T0, AR1
    1218 000556 0409          BCC $C$L31,AR1 == #0 ; |419| 
         000558 12   
    1219                                                      ; branchcc occurs ; |419| 
    1220                      .dwpsn  file "../c5535_bsl_revc/ezdsp5535_v1/c55xx_csl/ccs_v4.0_examples/i2c/CSL_I2C_IntcExample/csl_
    1221 000559 EC31          AMOV #$C$FSL11, XAR3 ; |421| 
         00055b BE00 
         00055d 012C+
    1222 00055f EB00          MOV XAR3, dbl(*SP(#0))
         000561 B5   
    1223              $C$DW$92        .dwtag  DW_TAG_TI_branch
    1224                      .dwattr $C$DW$92, DW_AT_low_pc(0x00)
    1225                      .dwattr $C$DW$92, DW_AT_name("_printf")
    1226                      .dwattr $C$DW$92, DW_AT_TI_call
    1227 000562 6C00          CALL #_printf ; |421| 
         000564 0000!
    1228                                                      ; call occurs [#_printf] ; |421| 
    1229                      .dwpsn  file "../c5535_bsl_revc/ezdsp5535_v1/c55xx_csl/ccs_v4.0_examples/i2c/CSL_I2C_IntcExample/csl_
    1230 000566 A406          MOV *SP(#3), T0 ; |422| 
    1231 000568 0602          B $C$L51  ; |422| 
         00056a A7   
    1232                                                      ; branch occurs ; |422| 
    1233 00056b       $C$L31:    
    1234                      .dwpsn  file "../c5535_bsl_revc/ezdsp5535_v1/c55xx_csl/ccs_v4.0_examples/i2c/CSL_I2C_IntcExample/csl_
    1235              $C$DW$93        .dwtag  DW_TAG_TI_branch
    1236                      .dwattr $C$DW$93, DW_AT_low_pc(0x00)
    1237                      .dwattr $C$DW$93, DW_AT_name("_I2C_eventDisable")
    1238                      .dwattr $C$DW$93, DW_AT_TI_call
    1239              
    1240 00056b 6C00          CALL #_I2C_eventDisable ; |426| 
         00056d 0000!
TMS320C55x Assembler PC v4.4.1 Sat Sep 29 23:09:36 2018

Tools Copyright (c) 1996-2012 Texas Instruments Incorporated
csl_i2c_intc_example.asm                                             PAGE   31

    1241 00056f 3D44  ||      MOV #4, T0
    1242              
    1243                                                      ; call occurs [#_I2C_eventDisable] ; |426| 
    1244 000571 C404          MOV T0, *SP(#2) ; |426| 
    1245                      .dwpsn  file "../c5535_bsl_revc/ezdsp5535_v1/c55xx_csl/ccs_v4.0_examples/i2c/CSL_I2C_IntcExample/csl_
    1246 000573 2249          MOV T0, AR1
    1247 000575 0409          BCC $C$L32,AR1 == #0 ; |427| 
         000577 12   
    1248                                                      ; branchcc occurs ; |427| 
    1249                      .dwpsn  file "../c5535_bsl_revc/ezdsp5535_v1/c55xx_csl/ccs_v4.0_examples/i2c/CSL_I2C_IntcExample/csl_
    1250 000578 EC31          AMOV #$C$FSL11, XAR3 ; |429| 
         00057a BE00 
         00057c 012C+
    1251 00057e EB00          MOV XAR3, dbl(*SP(#0))
         000580 B5   
    1252              $C$DW$94        .dwtag  DW_TAG_TI_branch
    1253                      .dwattr $C$DW$94, DW_AT_low_pc(0x00)
    1254                      .dwattr $C$DW$94, DW_AT_name("_printf")
    1255                      .dwattr $C$DW$94, DW_AT_TI_call
    1256 000581 6C00          CALL #_printf ; |429| 
         000583 0000!
    1257                                                      ; call occurs [#_printf] ; |429| 
    1258                      .dwpsn  file "../c5535_bsl_revc/ezdsp5535_v1/c55xx_csl/ccs_v4.0_examples/i2c/CSL_I2C_IntcExample/csl_
    1259 000585 A406          MOV *SP(#3), T0 ; |430| 
    1260 000587 0602          B $C$L51  ; |430| 
         000589 88   
    1261                                                      ; branch occurs ; |430| 
    1262 00058a       $C$L32:    
    1263                      .dwpsn  file "../c5535_bsl_revc/ezdsp5535_v1/c55xx_csl/ccs_v4.0_examples/i2c/CSL_I2C_IntcExample/csl_
    1264 00058a E608          MOV #0, *SP(#4) ; |434| 
         00058c 00   
    1265 00058d 20            NOP
    1266 00058e 20            NOP
    1267                      .dwpsn  file "../c5535_bsl_revc/ezdsp5535_v1/c55xx_csl/ccs_v4.0_examples/i2c/CSL_I2C_IntcExample/csl_
    1268 00058f 76FF          MOV #65535, AR2 ; |434| 
         000591 FFA8 
    1269 000593 A908          MOV *SP(#4), AR1 ; |434| 
    1270 000595 1298          CMPU AR1 >= AR2, TC1 ; |434| 
         000597 A4   
    1271 000598 67E4          BCC $C$L34,TC1 ; |434| 
    1272                                                      ; branchcc occurs ; |434| 
    1273 00059a       $C$L33:    
    1274 00059a       $C$DW$L$_CSL_i2cIntcTest$64$B:
    1275                      .dwpsn  file "../c5535_bsl_revc/ezdsp5535_v1/c55xx_csl/ccs_v4.0_examples/i2c/CSL_I2C_IntcExample/csl_
    1276 00059a F708          ADD #1, *SP(#4) ; |434| 
         00059c 0001 
    1277 00059e 20            NOP
    1278 00059f 20            NOP
    1279 0005a0 20            NOP
    1280                      .dwpsn  file "../c5535_bsl_revc/ezdsp5535_v1/c55xx_csl/ccs_v4.0_examples/i2c/CSL_I2C_IntcExample/csl_
    1281 0005a1 A908          MOV *SP(#4), AR1 ; |434| 
    1282 0005a3 1294          CMPU AR1 < AR2, TC1 ; |434| 
         0005a5 A4   
    1283 0005a6 0464          BCC $C$L33,TC1 ; |434| 
         0005a8 F1   
TMS320C55x Assembler PC v4.4.1 Sat Sep 29 23:09:36 2018

Tools Copyright (c) 1996-2012 Texas Instruments Incorporated
csl_i2c_intc_example.asm                                             PAGE   32

    1284                                                      ; branchcc occurs ; |434| 
    1285 0005a9       $C$DW$L$_CSL_i2cIntcTest$64$E:
    1286 0005a9       $C$L34:    
    1287                      .dwpsn  file "../c5535_bsl_revc/ezdsp5535_v1/c55xx_csl/ccs_v4.0_examples/i2c/CSL_I2C_IntcExample/csl_
    1288 0005a9 E608          MOV #0, *SP(#4) ; |435| 
         0005ab 00   
    1289 0005ac 20            NOP
    1290 0005ad 20            NOP
    1291 0005ae 20            NOP
    1292                      .dwpsn  file "../c5535_bsl_revc/ezdsp5535_v1/c55xx_csl/ccs_v4.0_examples/i2c/CSL_I2C_IntcExample/csl_
    1293 0005af A908          MOV *SP(#4), AR1 ; |435| 
    1294 0005b1 1298          CMPU AR1 >= AR2, TC1 ; |435| 
         0005b3 A4   
    1295 0005b4 67E4          BCC $C$L36,TC1 ; |435| 
    1296                                                      ; branchcc occurs ; |435| 
    1297 0005b6       $C$L35:    
    1298 0005b6       $C$DW$L$_CSL_i2cIntcTest$66$B:
    1299                      .dwpsn  file "../c5535_bsl_revc/ezdsp5535_v1/c55xx_csl/ccs_v4.0_examples/i2c/CSL_I2C_IntcExample/csl_
    1300 0005b6 F708          ADD #1, *SP(#4) ; |435| 
         0005b8 0001 
    1301 0005ba 20            NOP
    1302 0005bb 20            NOP
    1303 0005bc 20            NOP
    1304                      .dwpsn  file "../c5535_bsl_revc/ezdsp5535_v1/c55xx_csl/ccs_v4.0_examples/i2c/CSL_I2C_IntcExample/csl_
    1305 0005bd A908          MOV *SP(#4), AR1 ; |435| 
    1306 0005bf 1294          CMPU AR1 < AR2, TC1 ; |435| 
         0005c1 A4   
    1307 0005c2 0464          BCC $C$L35,TC1 ; |435| 
         0005c4 F1   
    1308                                                      ; branchcc occurs ; |435| 
    1309 0005c5       $C$DW$L$_CSL_i2cIntcTest$66$E:
    1310 0005c5       $C$L36:    
    1311                      .dwpsn  file "../c5535_bsl_revc/ezdsp5535_v1/c55xx_csl/ccs_v4.0_examples/i2c/CSL_I2C_IntcExample/csl_
    1312 0005c5 E631          MOV #47, *(#_i2cConfig) ; |438| 
         0005c7 2F00 
         0005c9 008C-
    1313                      .dwpsn  file "../c5535_bsl_revc/ezdsp5535_v1/c55xx_csl/ccs_v4.0_examples/i2c/CSL_I2C_IntcExample/csl_
    1314 0005cb E631          MOV #0, *(#(_i2cConfig+1)) ; |439| 
         0005cd 0000 
         0005cf 008D-
    1315                      .dwpsn  file "../c5535_bsl_revc/ezdsp5535_v1/c55xx_csl/ccs_v4.0_examples/i2c/CSL_I2C_IntcExample/csl_
    1316 0005d1 FB31          MOV #620, *(#(_i2cConfig+2)) ; |440| 
         0005d3 026C 
         0005d5 0000 
         0005d7 8E-  
    1317                      .dwpsn  file "../c5535_bsl_revc/ezdsp5535_v1/c55xx_csl/ccs_v4.0_examples/i2c/CSL_I2C_IntcExample/csl_
    1318 0005d8 FB31          MOV #620, *(#(_i2cConfig+3)) ; |441| 
         0005da 026C 
         0005dc 0000 
         0005de 8F-  
    1319                      .dwpsn  file "../c5535_bsl_revc/ezdsp5535_v1/c55xx_csl/ccs_v4.0_examples/i2c/CSL_I2C_IntcExample/csl_
    1320 0005df E631          MOV #64, *(#(_i2cConfig+4)) ; |442| 
         0005e1 4000 
         0005e3 0090-
    1321                      .dwpsn  file "../c5535_bsl_revc/ezdsp5535_v1/c55xx_csl/ccs_v4.0_examples/i2c/CSL_I2C_IntcExample/csl_
TMS320C55x Assembler PC v4.4.1 Sat Sep 29 23:09:36 2018

Tools Copyright (c) 1996-2012 Texas Instruments Incorporated
csl_i2c_intc_example.asm                                             PAGE   33

    1322 0005e5 E631          MOV #80, *(#(_i2cConfig+5)) ; |443| 
         0005e7 5000 
         0005e9 0091-
    1323                      .dwpsn  file "../c5535_bsl_revc/ezdsp5535_v1/c55xx_csl/ccs_v4.0_examples/i2c/CSL_I2C_IntcExample/csl_
    1324 0005eb FB31          MOV #3104, *(#(_i2cConfig+6)) ; |444| 
         0005ed 0C20 
         0005ef 0000 
         0005f1 92-  
    1325                      .dwpsn  file "../c5535_bsl_revc/ezdsp5535_v1/c55xx_csl/ccs_v4.0_examples/i2c/CSL_I2C_IntcExample/csl_
    1326 0005f2 E631          MOV #0, *(#(_i2cConfig+7)) ; |445| 
         0005f4 0000 
         0005f6 0093-
    1327                      .dwpsn  file "../c5535_bsl_revc/ezdsp5535_v1/c55xx_csl/ccs_v4.0_examples/i2c/CSL_I2C_IntcExample/csl_
    1328 0005f8 E631          MOV #7, *(#(_i2cConfig+8)) ; |446| 
         0005fa 0700 
         0005fc 0094-
    1329                      .dwpsn  file "../c5535_bsl_revc/ezdsp5535_v1/c55xx_csl/ccs_v4.0_examples/i2c/CSL_I2C_IntcExample/csl_
    1330 0005fe EC31          AMOV #_i2cConfig, XAR0 ; |448| 
         000600 8E00 
         000602 008C-
    1331              $C$DW$95        .dwtag  DW_TAG_TI_branch
    1332                      .dwattr $C$DW$95, DW_AT_low_pc(0x00)
    1333                      .dwattr $C$DW$95, DW_AT_name("_I2C_config")
    1334                      .dwattr $C$DW$95, DW_AT_TI_call
    1335 000604 6C00          CALL #_I2C_config ; |448| 
         000606 0000!
    1336                                                      ; call occurs [#_I2C_config] ; |448| 
    1337 000608 C404          MOV T0, *SP(#2) ; |448| 
    1338                      .dwpsn  file "../c5535_bsl_revc/ezdsp5535_v1/c55xx_csl/ccs_v4.0_examples/i2c/CSL_I2C_IntcExample/csl_
    1339 00060a 2249          MOV T0, AR1
    1340 00060c 0409          BCC $C$L37,AR1 == #0 ; |449| 
         00060e 12   
    1341                                                      ; branchcc occurs ; |449| 
    1342                      .dwpsn  file "../c5535_bsl_revc/ezdsp5535_v1/c55xx_csl/ccs_v4.0_examples/i2c/CSL_I2C_IntcExample/csl_
    1343 00060f EC31          AMOV #$C$FSL6, XAR3 ; |451| 
         000611 BE00 
         000613 0094+
    1344 000615 EB00          MOV XAR3, dbl(*SP(#0))
         000617 B5   
    1345              $C$DW$96        .dwtag  DW_TAG_TI_branch
    1346                      .dwattr $C$DW$96, DW_AT_low_pc(0x00)
    1347                      .dwattr $C$DW$96, DW_AT_name("_printf")
    1348                      .dwattr $C$DW$96, DW_AT_TI_call
    1349 000618 6C00          CALL #_printf ; |451| 
         00061a 0000!
    1350                                                      ; call occurs [#_printf] ; |451| 
    1351                      .dwpsn  file "../c5535_bsl_revc/ezdsp5535_v1/c55xx_csl/ccs_v4.0_examples/i2c/CSL_I2C_IntcExample/csl_
    1352 00061c A406          MOV *SP(#3), T0 ; |452| 
    1353 00061e 0601          B $C$L51  ; |452| 
         000620 F1   
    1354                                                      ; branch occurs ; |452| 
    1355 000621       $C$L37:    
    1356                      .dwpsn  file "../c5535_bsl_revc/ezdsp5535_v1/c55xx_csl/ccs_v4.0_examples/i2c/CSL_I2C_IntcExample/csl_
    1357 000621 EC31          AMOV #_i2cGetConfig, XAR0 ; |456| 
         000623 8E00 
TMS320C55x Assembler PC v4.4.1 Sat Sep 29 23:09:36 2018

Tools Copyright (c) 1996-2012 Texas Instruments Incorporated
csl_i2c_intc_example.asm                                             PAGE   34

         000625 0095-
    1358              $C$DW$97        .dwtag  DW_TAG_TI_branch
    1359                      .dwattr $C$DW$97, DW_AT_low_pc(0x00)
    1360                      .dwattr $C$DW$97, DW_AT_name("_I2C_getConfig")
    1361                      .dwattr $C$DW$97, DW_AT_TI_call
    1362 000627 6C00          CALL #_I2C_getConfig ; |456| 
         000629 0000!
    1363                                                      ; call occurs [#_I2C_getConfig] ; |456| 
    1364 00062b C404          MOV T0, *SP(#2) ; |456| 
    1365                      .dwpsn  file "../c5535_bsl_revc/ezdsp5535_v1/c55xx_csl/ccs_v4.0_examples/i2c/CSL_I2C_IntcExample/csl_
    1366 00062d 2249          MOV T0, AR1
    1367 00062f 0409          BCC $C$L38,AR1 == #0 ; |457| 
         000631 12   
    1368                                                      ; branchcc occurs ; |457| 
    1369                      .dwpsn  file "../c5535_bsl_revc/ezdsp5535_v1/c55xx_csl/ccs_v4.0_examples/i2c/CSL_I2C_IntcExample/csl_
    1370 000632 EC31          AMOV #$C$FSL7, XAR3 ; |459| 
         000634 BE00 
         000636 00AA+
    1371 000638 EB00          MOV XAR3, dbl(*SP(#0))
         00063a B5   
    1372              $C$DW$98        .dwtag  DW_TAG_TI_branch
    1373                      .dwattr $C$DW$98, DW_AT_low_pc(0x00)
    1374                      .dwattr $C$DW$98, DW_AT_name("_printf")
    1375                      .dwattr $C$DW$98, DW_AT_TI_call
    1376 00063b 6C00          CALL #_printf ; |459| 
         00063d 0000!
    1377                                                      ; call occurs [#_printf] ; |459| 
    1378                      .dwpsn  file "../c5535_bsl_revc/ezdsp5535_v1/c55xx_csl/ccs_v4.0_examples/i2c/CSL_I2C_IntcExample/csl_
    1379 00063f A406          MOV *SP(#3), T0 ; |460| 
    1380 000641 0601          B $C$L51  ; |460| 
         000643 CE   
    1381                                                      ; branch occurs ; |460| 
    1382 000644       $C$L38:    
    1383                      .dwpsn  file "../c5535_bsl_revc/ezdsp5535_v1/c55xx_csl/ccs_v4.0_examples/i2c/CSL_I2C_IntcExample/csl_
    1384 000644 A931          MOV *(#_i2cGetConfig), AR1 ; |464| 
         000646 0000 
         000648 95-  
    1385 000649 AA31          MOV *(#_i2cConfig), AR2 ; |464| 
         00064b 0000 
         00064d 8C-  
    1386 00064e 12AC          CMPU AR2 != AR1, TC1 ; |464| 
         000650 94   
    1387 000651 0464          BCC $C$L39,TC1 ; |464| 
         000653 7B   
    1388                                                      ; branchcc occurs ; |464| 
    1389 000654 A931          MOV *(#(_i2cGetConfig+1)), AR1 ; |464| 
         000656 0000 
         000658 96-  
    1390 000659 AA31          MOV *(#(_i2cConfig+1)), AR2 ; |464| 
         00065b 0000 
         00065d 8D-  
    1391 00065e 12AC          CMPU AR2 != AR1, TC1 ; |464| 
         000660 94   
    1392 000661 0464          BCC $C$L39,TC1 ; |464| 
         000663 6B   
TMS320C55x Assembler PC v4.4.1 Sat Sep 29 23:09:36 2018

Tools Copyright (c) 1996-2012 Texas Instruments Incorporated
csl_i2c_intc_example.asm                                             PAGE   35

    1393                                                      ; branchcc occurs ; |464| 
    1394 000664 A931          MOV *(#(_i2cGetConfig+2)), AR1 ; |464| 
         000666 0000 
         000668 97-  
    1395 000669 AA31          MOV *(#(_i2cConfig+2)), AR2 ; |464| 
         00066b 0000 
         00066d 8E-  
    1396 00066e 12AC          CMPU AR2 != AR1, TC1 ; |464| 
         000670 94   
    1397 000671 0464          BCC $C$L39,TC1 ; |464| 
         000673 5B   
    1398                                                      ; branchcc occurs ; |464| 
    1399 000674 A931          MOV *(#(_i2cGetConfig+3)), AR1 ; |464| 
         000676 0000 
         000678 98-  
    1400 000679 12AC          CMPU AR2 != AR1, TC1 ; |464| 
         00067b 94   
    1401 00067c 0464          BCC $C$L39,TC1 ; |464| 
         00067e 50   
    1402                                                      ; branchcc occurs ; |464| 
    1403 00067f A931          MOV *(#(_i2cGetConfig+4)), AR1 ; |464| 
         000681 0000 
         000683 99-  
    1404 000684 AA31          MOV *(#(_i2cConfig+4)), AR2 ; |464| 
         000686 0000 
         000688 90-  
    1405 000689 12AC          CMPU AR2 != AR1, TC1 ; |464| 
         00068b 94   
    1406 00068c 0464          BCC $C$L39,TC1 ; |464| 
         00068e 40   
    1407                                                      ; branchcc occurs ; |464| 
    1408 00068f A931          MOV *(#(_i2cGetConfig+5)), AR1 ; |464| 
         000691 0000 
         000693 9A-  
    1409 000694 AA31          MOV *(#(_i2cConfig+5)), AR2 ; |464| 
         000696 0000 
         000698 91-  
    1410 000699 12AC          CMPU AR2 != AR1, TC1 ; |464| 
         00069b 94   
    1411 00069c 0464          BCC $C$L39,TC1 ; |464| 
         00069e 30   
    1412                                                      ; branchcc occurs ; |464| 
    1413 00069f A931          MOV *(#(_i2cGetConfig+6)), AR1 ; |464| 
         0006a1 0000 
         0006a3 9B-  
    1414 0006a4 AA31          MOV *(#(_i2cConfig+6)), AR2 ; |464| 
         0006a6 0000 
         0006a8 92-  
    1415 0006a9 12AC          CMPU AR2 != AR1, TC1 ; |464| 
         0006ab 94   
    1416 0006ac 0464          BCC $C$L39,TC1 ; |464| 
         0006ae 20   
    1417                                                      ; branchcc occurs ; |464| 
    1418 0006af A931          MOV *(#(_i2cGetConfig+7)), AR1 ; |464| 
         0006b1 0000 
TMS320C55x Assembler PC v4.4.1 Sat Sep 29 23:09:36 2018

Tools Copyright (c) 1996-2012 Texas Instruments Incorporated
csl_i2c_intc_example.asm                                             PAGE   36

         0006b3 9C-  
    1419 0006b4 AA31          MOV *(#(_i2cConfig+7)), AR2 ; |464| 
         0006b6 0000 
         0006b8 93-  
    1420 0006b9 12AC          CMPU AR2 != AR1, TC1 ; |464| 
         0006bb 94   
    1421 0006bc 0464          BCC $C$L39,TC1 ; |464| 
         0006be 10   
    1422                                                      ; branchcc occurs ; |464| 
    1423 0006bf A931          MOV *(#(_i2cGetConfig+8)), AR1 ; |464| 
         0006c1 0000 
         0006c3 9D-  
    1424 0006c4 AA31          MOV *(#(_i2cConfig+8)), AR2 ; |464| 
         0006c6 0000 
         0006c8 94-  
    1425 0006c9 12A0          CMPU AR2 == AR1, TC1 ; |464| 
         0006cb 94   
    1426 0006cc 0464          BCC $C$L40,TC1 ; |464| 
         0006ce 12   
    1427                                                      ; branchcc occurs ; |464| 
    1428 0006cf       $C$L39:    
    1429                      .dwpsn  file "../c5535_bsl_revc/ezdsp5535_v1/c55xx_csl/ccs_v4.0_examples/i2c/CSL_I2C_IntcExample/csl_
    1430 0006cf EC31          AMOV #$C$FSL8, XAR3 ; |474| 
         0006d1 BE00 
         0006d3 00C4+
    1431 0006d5 EB00          MOV XAR3, dbl(*SP(#0))
         0006d7 B5   
    1432              $C$DW$99        .dwtag  DW_TAG_TI_branch
    1433                      .dwattr $C$DW$99, DW_AT_low_pc(0x00)
    1434                      .dwattr $C$DW$99, DW_AT_name("_printf")
    1435                      .dwattr $C$DW$99, DW_AT_TI_call
    1436 0006d8 6C00          CALL #_printf ; |474| 
         0006da 0000!
    1437                                                      ; call occurs [#_printf] ; |474| 
    1438                      .dwpsn  file "../c5535_bsl_revc/ezdsp5535_v1/c55xx_csl/ccs_v4.0_examples/i2c/CSL_I2C_IntcExample/csl_
    1439 0006dc A406          MOV *SP(#3), T0 ; |475| 
    1440 0006de 0601          B $C$L51  ; |475| 
         0006e0 31   
    1441                                                      ; branch occurs ; |475| 
    1442 0006e1       $C$L40:    
    1443                      .dwpsn  file "../c5535_bsl_revc/ezdsp5535_v1/c55xx_csl/ccs_v4.0_examples/i2c/CSL_I2C_IntcExample/csl_
    1444 0006e1 E631          MOV #0, *(#_i2cRxCount) ; |478| 
         0006e3 0000 
         0006e5 00B6-
    1445                      .dwpsn  file "../c5535_bsl_revc/ezdsp5535_v1/c55xx_csl/ccs_v4.0_examples/i2c/CSL_I2C_IntcExample/csl_
    1446 0006e7 A931          MOV *(#(_i2cConfig+4)), AR1 ; |479| 
         0006e9 0000 
         0006eb 90-  
    1447 0006ec C931          MOV AR1, *(#_dataLength) ; |479| 
         0006ee 0000 
         0006f0 B4-  
    1448                      .dwpsn  file "../c5535_bsl_revc/ezdsp5535_v1/c55xx_csl/ccs_v4.0_examples/i2c/CSL_I2C_IntcExample/csl_
    1449              $C$DW$100       .dwtag  DW_TAG_TI_branch
    1450                      .dwattr $C$DW$100, DW_AT_low_pc(0x00)
    1451                      .dwattr $C$DW$100, DW_AT_name("_I2C_eventEnable")
TMS320C55x Assembler PC v4.4.1 Sat Sep 29 23:09:36 2018

Tools Copyright (c) 1996-2012 Texas Instruments Incorporated
csl_i2c_intc_example.asm                                             PAGE   37

    1452                      .dwattr $C$DW$100, DW_AT_TI_call
    1453              
    1454 0006f1 6C00          CALL #_I2C_eventEnable ; |482| 
         0006f3 0000!
    1455 0006f5 3D34  ||      MOV #3, T0
    1456              
    1457                                                      ; call occurs [#_I2C_eventEnable] ; |482| 
    1458 0006f7 C404          MOV T0, *SP(#2) ; |482| 
    1459                      .dwpsn  file "../c5535_bsl_revc/ezdsp5535_v1/c55xx_csl/ccs_v4.0_examples/i2c/CSL_I2C_IntcExample/csl_
    1460 0006f9 2249          MOV T0, AR1
    1461 0006fb 0409          BCC $C$L41,AR1 == #0 ; |483| 
         0006fd 12   
    1462                                                      ; branchcc occurs ; |483| 
    1463                      .dwpsn  file "../c5535_bsl_revc/ezdsp5535_v1/c55xx_csl/ccs_v4.0_examples/i2c/CSL_I2C_IntcExample/csl_
    1464 0006fe EC31          AMOV #$C$FSL9, XAR3 ; |485| 
         000700 BE00 
         000702 00F6+
    1465 000704 EB00          MOV XAR3, dbl(*SP(#0))
         000706 B5   
    1466              $C$DW$101       .dwtag  DW_TAG_TI_branch
    1467                      .dwattr $C$DW$101, DW_AT_low_pc(0x00)
    1468                      .dwattr $C$DW$101, DW_AT_name("_printf")
    1469                      .dwattr $C$DW$101, DW_AT_TI_call
    1470 000707 6C00          CALL #_printf ; |485| 
         000709 0000!
    1471                                                      ; call occurs [#_printf] ; |485| 
    1472                      .dwpsn  file "../c5535_bsl_revc/ezdsp5535_v1/c55xx_csl/ccs_v4.0_examples/i2c/CSL_I2C_IntcExample/csl_
    1473 00070b A406          MOV *SP(#3), T0 ; |486| 
    1474 00070d 0601          B $C$L51  ; |486| 
         00070f 02   
    1475                                                      ; branch occurs ; |486| 
    1476 000710       $C$L41:    
    1477                      .dwpsn  file "../c5535_bsl_revc/ezdsp5535_v1/c55xx_csl/ccs_v4.0_examples/i2c/CSL_I2C_IntcExample/csl_
    1478              $C$DW$102       .dwtag  DW_TAG_TI_branch
    1479                      .dwattr $C$DW$102, DW_AT_low_pc(0x00)
    1480                      .dwattr $C$DW$102, DW_AT_name("_I2C_eventEnable")
    1481                      .dwattr $C$DW$102, DW_AT_TI_call
    1482              
    1483 000710 6C00          CALL #_I2C_eventEnable ; |490| 
         000712 0000!
    1484 000714 3D54  ||      MOV #5, T0
    1485              
    1486                                                      ; call occurs [#_I2C_eventEnable] ; |490| 
    1487 000716 C404          MOV T0, *SP(#2) ; |490| 
    1488                      .dwpsn  file "../c5535_bsl_revc/ezdsp5535_v1/c55xx_csl/ccs_v4.0_examples/i2c/CSL_I2C_IntcExample/csl_
    1489 000718 2249          MOV T0, AR1
    1490 00071a 0409          BCC $C$L42,AR1 == #0 ; |491| 
         00071c 12   
    1491                                                      ; branchcc occurs ; |491| 
    1492                      .dwpsn  file "../c5535_bsl_revc/ezdsp5535_v1/c55xx_csl/ccs_v4.0_examples/i2c/CSL_I2C_IntcExample/csl_
    1493 00071d EC31          AMOV #$C$FSL9, XAR3 ; |493| 
         00071f BE00 
         000721 00F6+
    1494 000723 EB00          MOV XAR3, dbl(*SP(#0))
         000725 B5   
TMS320C55x Assembler PC v4.4.1 Sat Sep 29 23:09:36 2018

Tools Copyright (c) 1996-2012 Texas Instruments Incorporated
csl_i2c_intc_example.asm                                             PAGE   38

    1495              $C$DW$103       .dwtag  DW_TAG_TI_branch
    1496                      .dwattr $C$DW$103, DW_AT_low_pc(0x00)
    1497                      .dwattr $C$DW$103, DW_AT_name("_printf")
    1498                      .dwattr $C$DW$103, DW_AT_TI_call
    1499 000726 6C00          CALL #_printf ; |493| 
         000728 0000!
    1500                                                      ; call occurs [#_printf] ; |493| 
    1501                      .dwpsn  file "../c5535_bsl_revc/ezdsp5535_v1/c55xx_csl/ccs_v4.0_examples/i2c/CSL_I2C_IntcExample/csl_
    1502 00072a A406          MOV *SP(#3), T0 ; |494| 
    1503 00072c 0600          B $C$L51  ; |494| 
         00072e E3   
    1504                                                      ; branch occurs ; |494| 
    1505 00072f       $C$L42:    
    1506                      .dwpsn  file "../c5535_bsl_revc/ezdsp5535_v1/c55xx_csl/ccs_v4.0_examples/i2c/CSL_I2C_IntcExample/csl_
    1507 00072f A951          MOV *port(#6692), AR1 ; |498| 
         000731 1A24 
    1508 000733 EC1A          BCLR @#13, AR1 ; |498| 
         000735 92   
    1509 000736 EC1A          BSET @#13, AR1 ; |498| 
         000738 90   
    1510 000739 C951          MOV AR1, *port(#6692) ; |498| 
         00073b 1A24 
    1511                      .dwpsn  file "../c5535_bsl_revc/ezdsp5535_v1/c55xx_csl/ccs_v4.0_examples/i2c/CSL_I2C_IntcExample/csl_
    1512 00073d A931          MOV *(#_dataLength), AR1 ; |500| 
         00073f 0000 
         000741 B4-  
    1513 000742 6789          BCC $C$L44,AR1 == #0 ; |500| 
    1514                                                      ; branchcc occurs ; |500| 
    1515 000744       $C$L43:    
    1516 000744       $C$DW$L$_CSL_i2cIntcTest$86$B:
    1517                      .dwpsn  file "../c5535_bsl_revc/ezdsp5535_v1/c55xx_csl/ccs_v4.0_examples/i2c/CSL_I2C_IntcExample/csl_
    1518 000744 A931          MOV *(#_stopDetected), AR1 ; |502| 
         000746 0000 
         000748 B8-  
    1519 000749 6419          BCC $C$L44,AR1 != #0 ; |502| 
    1520                                                      ; branchcc occurs ; |502| 
    1521 00074b       $C$DW$L$_CSL_i2cIntcTest$86$E:
    1522 00074b       $C$DW$L$_CSL_i2cIntcTest$87$B:
    1523                      .dwpsn  file "../c5535_bsl_revc/ezdsp5535_v1/c55xx_csl/ccs_v4.0_examples/i2c/CSL_I2C_IntcExample/csl_
    1524                      .dwpsn  file "../c5535_bsl_revc/ezdsp5535_v1/c55xx_csl/ccs_v4.0_examples/i2c/CSL_I2C_IntcExample/csl_
    1525 00074b A931          MOV *(#_dataLength), AR1 ; |500| 
         00074d 0000 
         00074f B4-  
    1526 000750 0419          BCC $C$L43,AR1 != #0 ; |500| 
         000752 F1   
    1527                                                      ; branchcc occurs ; |500| 
    1528 000753       $C$DW$L$_CSL_i2cIntcTest$87$E:
    1529 000753       $C$L44:    
    1530                      .dwpsn  file "../c5535_bsl_revc/ezdsp5535_v1/c55xx_csl/ccs_v4.0_examples/i2c/CSL_I2C_IntcExample/csl_
    1531              $C$DW$104       .dwtag  DW_TAG_TI_branch
    1532                      .dwattr $C$DW$104, DW_AT_low_pc(0x00)
    1533                      .dwattr $C$DW$104, DW_AT_name("_I2C_eventDisable")
    1534                      .dwattr $C$DW$104, DW_AT_TI_call
    1535              
    1536 000753 6C00          CALL #_I2C_eventDisable ; |509| 
TMS320C55x Assembler PC v4.4.1 Sat Sep 29 23:09:36 2018

Tools Copyright (c) 1996-2012 Texas Instruments Incorporated
csl_i2c_intc_example.asm                                             PAGE   39

         000755 0000!
    1537 000757 3D34  ||      MOV #3, T0
    1538              
    1539                                                      ; call occurs [#_I2C_eventDisable] ; |509| 
    1540 000759 C404          MOV T0, *SP(#2) ; |509| 
    1541                      .dwpsn  file "../c5535_bsl_revc/ezdsp5535_v1/c55xx_csl/ccs_v4.0_examples/i2c/CSL_I2C_IntcExample/csl_
    1542 00075b 2249          MOV T0, AR1
    1543 00075d 0409          BCC $C$L45,AR1 == #0 ; |510| 
         00075f 12   
    1544                                                      ; branchcc occurs ; |510| 
    1545                      .dwpsn  file "../c5535_bsl_revc/ezdsp5535_v1/c55xx_csl/ccs_v4.0_examples/i2c/CSL_I2C_IntcExample/csl_
    1546 000760 EC31          AMOV #$C$FSL11, XAR3 ; |512| 
         000762 BE00 
         000764 012C+
    1547 000766 EB00          MOV XAR3, dbl(*SP(#0))
         000768 B5   
    1548              $C$DW$105       .dwtag  DW_TAG_TI_branch
    1549                      .dwattr $C$DW$105, DW_AT_low_pc(0x00)
    1550                      .dwattr $C$DW$105, DW_AT_name("_printf")
    1551                      .dwattr $C$DW$105, DW_AT_TI_call
    1552 000769 6C00          CALL #_printf ; |512| 
         00076b 0000!
    1553                                                      ; call occurs [#_printf] ; |512| 
    1554                      .dwpsn  file "../c5535_bsl_revc/ezdsp5535_v1/c55xx_csl/ccs_v4.0_examples/i2c/CSL_I2C_IntcExample/csl_
    1555 00076d A406          MOV *SP(#3), T0 ; |513| 
    1556 00076f 0600          B $C$L51  ; |513| 
         000771 A0   
    1557                                                      ; branch occurs ; |513| 
    1558 000772       $C$L45:    
    1559                      .dwpsn  file "../c5535_bsl_revc/ezdsp5535_v1/c55xx_csl/ccs_v4.0_examples/i2c/CSL_I2C_IntcExample/csl_
    1560              $C$DW$106       .dwtag  DW_TAG_TI_branch
    1561                      .dwattr $C$DW$106, DW_AT_low_pc(0x00)
    1562                      .dwattr $C$DW$106, DW_AT_name("_I2C_eventDisable")
    1563                      .dwattr $C$DW$106, DW_AT_TI_call
    1564              
    1565 000772 6C00          CALL #_I2C_eventDisable ; |517| 
         000774 0000!
    1566 000776 3D54  ||      MOV #5, T0
    1567              
    1568                                                      ; call occurs [#_I2C_eventDisable] ; |517| 
    1569 000778 C404          MOV T0, *SP(#2) ; |517| 
    1570                      .dwpsn  file "../c5535_bsl_revc/ezdsp5535_v1/c55xx_csl/ccs_v4.0_examples/i2c/CSL_I2C_IntcExample/csl_
    1571 00077a 2249          MOV T0, AR1
    1572 00077c 0409          BCC $C$L46,AR1 == #0 ; |518| 
         00077e 12   
    1573                                                      ; branchcc occurs ; |518| 
    1574                      .dwpsn  file "../c5535_bsl_revc/ezdsp5535_v1/c55xx_csl/ccs_v4.0_examples/i2c/CSL_I2C_IntcExample/csl_
    1575 00077f EC31          AMOV #$C$FSL11, XAR3 ; |520| 
         000781 BE00 
         000783 012C+
    1576 000785 EB00          MOV XAR3, dbl(*SP(#0))
         000787 B5   
    1577              $C$DW$107       .dwtag  DW_TAG_TI_branch
    1578                      .dwattr $C$DW$107, DW_AT_low_pc(0x00)
    1579                      .dwattr $C$DW$107, DW_AT_name("_printf")
TMS320C55x Assembler PC v4.4.1 Sat Sep 29 23:09:36 2018

Tools Copyright (c) 1996-2012 Texas Instruments Incorporated
csl_i2c_intc_example.asm                                             PAGE   40

    1580                      .dwattr $C$DW$107, DW_AT_TI_call
    1581 000788 6C00          CALL #_printf ; |520| 
         00078a 0000!
    1582                                                      ; call occurs [#_printf] ; |520| 
    1583                      .dwpsn  file "../c5535_bsl_revc/ezdsp5535_v1/c55xx_csl/ccs_v4.0_examples/i2c/CSL_I2C_IntcExample/csl_
    1584 00078c A406          MOV *SP(#3), T0 ; |521| 
    1585 00078e 0600          B $C$L51  ; |521| 
         000790 81   
    1586                                                      ; branch occurs ; |521| 
    1587 000791       $C$L46:    
    1588                      .dwpsn  file "../c5535_bsl_revc/ezdsp5535_v1/c55xx_csl/ccs_v4.0_examples/i2c/CSL_I2C_IntcExample/csl_
    1589              $C$DW$108       .dwtag  DW_TAG_TI_branch
    1590                      .dwattr $C$DW$108, DW_AT_low_pc(0x00)
    1591                      .dwattr $C$DW$108, DW_AT_name("_IRQ_globalDisable")
    1592                      .dwattr $C$DW$108, DW_AT_TI_call
    1593 000791 6C00          CALL #_IRQ_globalDisable ; |525| 
         000793 0000!
    1594                                                      ; call occurs [#_IRQ_globalDisable] ; |525| 
    1595                      .dwpsn  file "../c5535_bsl_revc/ezdsp5535_v1/c55xx_csl/ccs_v4.0_examples/i2c/CSL_I2C_IntcExample/csl_
    1596              $C$DW$109       .dwtag  DW_TAG_TI_branch
    1597                      .dwattr $C$DW$109, DW_AT_low_pc(0x00)
    1598                      .dwattr $C$DW$109, DW_AT_name("_IRQ_clearAll")
    1599                      .dwattr $C$DW$109, DW_AT_TI_call
    1600 000795 6C00          CALL #_IRQ_clearAll ; |528| 
         000797 0000!
    1601                                                      ; call occurs [#_IRQ_clearAll] ; |528| 
    1602                      .dwpsn  file "../c5535_bsl_revc/ezdsp5535_v1/c55xx_csl/ccs_v4.0_examples/i2c/CSL_I2C_IntcExample/csl_
    1603              $C$DW$110       .dwtag  DW_TAG_TI_branch
    1604                      .dwattr $C$DW$110, DW_AT_low_pc(0x00)
    1605                      .dwattr $C$DW$110, DW_AT_name("_IRQ_disableAll")
    1606                      .dwattr $C$DW$110, DW_AT_TI_call
    1607 000799 6C00          CALL #_IRQ_disableAll ; |531| 
         00079b 0000!
    1608                                                      ; call occurs [#_IRQ_disableAll] ; |531| 
    1609                      .dwpsn  file "../c5535_bsl_revc/ezdsp5535_v1/c55xx_csl/ccs_v4.0_examples/i2c/CSL_I2C_IntcExample/csl_
    1610 00079d EC31          AMOV #$C$FSL13, XAR3 ; |533| 
         00079f BE00 
         0007a1 015E+
    1611 0007a3 EB00          MOV XAR3, dbl(*SP(#0))
         0007a5 B5   
    1612              $C$DW$111       .dwtag  DW_TAG_TI_branch
    1613                      .dwattr $C$DW$111, DW_AT_low_pc(0x00)
    1614                      .dwattr $C$DW$111, DW_AT_name("_printf")
    1615                      .dwattr $C$DW$111, DW_AT_TI_call
    1616 0007a6 6C00          CALL #_printf ; |533| 
         0007a8 0000!
    1617                                                      ; call occurs [#_printf] ; |533| 
    1618                      .dwpsn  file "../c5535_bsl_revc/ezdsp5535_v1/c55xx_csl/ccs_v4.0_examples/i2c/CSL_I2C_IntcExample/csl_
    1619 0007aa E608          MOV #0, *SP(#4) ; |536| 
         0007ac 00   
    1620 0007ad 20            NOP
    1621 0007ae 20            NOP
    1622                      .dwpsn  file "../c5535_bsl_revc/ezdsp5535_v1/c55xx_csl/ccs_v4.0_examples/i2c/CSL_I2C_IntcExample/csl_
    1623 0007af 7600          MOV #64, AR2 ; |536| 
         0007b1 40A8 
TMS320C55x Assembler PC v4.4.1 Sat Sep 29 23:09:36 2018

Tools Copyright (c) 1996-2012 Texas Instruments Incorporated
csl_i2c_intc_example.asm                                             PAGE   41

    1624 0007b3 A908          MOV *SP(#4), AR1 ; |536| 
    1625 0007b5 1298          CMPU AR1 >= AR2, TC1 ; |536| 
         0007b7 A4   
    1626 0007b8 0464          BCC $C$L49,TC1 ; |536| 
         0007ba 3F   
    1627                                                      ; branchcc occurs ; |536| 
    1628 0007bb       $C$L47:    
    1629 0007bb       $C$DW$L$_CSL_i2cIntcTest$93$B:
    1630                      .dwpsn  file "../c5535_bsl_revc/ezdsp5535_v1/c55xx_csl/ccs_v4.0_examples/i2c/CSL_I2C_IntcExample/csl_
    1631 0007bb A408          MOV *SP(#4), T0 ; |538| 
    1632 0007bd EC31          AMOV #_gI2cRdBuf, XAR3 ; |538| 
         0007bf BE00 
         0007c1 0042-
    1633 0007c3 A96B          MOV *AR3(T0), AR1 ; |538| 
    1634 0007c5 A408          MOV *SP(#4), T0 ; |538| 
    1635 0007c7 4024          ADD #2, T0 ; |538| 
    1636 0007c9 EC31          AMOV #_gI2cWrBuf, XAR3 ; |538| 
         0007cb BE00 
         0007cd 0000-
    1637 0007cf AA6B          MOV *AR3(T0), AR2 ; |538| 
    1638 0007d1 12A0          CMPU AR2 == AR1, TC1 ; |538| 
         0007d3 94   
    1639 0007d4 0464          BCC $C$L48,TC1 ; |538| 
         0007d6 11   
    1640                                                      ; branchcc occurs ; |538| 
    1641 0007d7       $C$DW$L$_CSL_i2cIntcTest$93$E:
    1642                      .dwpsn  file "../c5535_bsl_revc/ezdsp5535_v1/c55xx_csl/ccs_v4.0_examples/i2c/CSL_I2C_IntcExample/csl_
    1643 0007d7 EC31          AMOV #$C$FSL14, XAR3 ; |540| 
         0007d9 BE00 
         0007db 0172+
    1644 0007dd EB00          MOV XAR3, dbl(*SP(#0))
         0007df B5   
    1645              $C$DW$112       .dwtag  DW_TAG_TI_branch
    1646                      .dwattr $C$DW$112, DW_AT_low_pc(0x00)
    1647                      .dwattr $C$DW$112, DW_AT_name("_printf")
    1648                      .dwattr $C$DW$112, DW_AT_TI_call
    1649 0007e0 6C00          CALL #_printf ; |540| 
         0007e2 0000!
    1650                                                      ; call occurs [#_printf] ; |540| 
    1651                      .dwpsn  file "../c5535_bsl_revc/ezdsp5535_v1/c55xx_csl/ccs_v4.0_examples/i2c/CSL_I2C_IntcExample/csl_
    1652 0007e4 A406          MOV *SP(#3), T0 ; |541| 
    1653 0007e6 4A2A          B $C$L51  ; |541| 
    1654                                                      ; branch occurs ; |541| 
    1655 0007e8       $C$L48:    
    1656 0007e8       $C$DW$L$_CSL_i2cIntcTest$95$B:
    1657                      .dwpsn  file "../c5535_bsl_revc/ezdsp5535_v1/c55xx_csl/ccs_v4.0_examples/i2c/CSL_I2C_IntcExample/csl_
    1658 0007e8 F708          ADD #1, *SP(#4) ; |536| 
         0007ea 0001 
    1659 0007ec 20            NOP
    1660 0007ed 20            NOP
    1661                      .dwpsn  file "../c5535_bsl_revc/ezdsp5535_v1/c55xx_csl/ccs_v4.0_examples/i2c/CSL_I2C_IntcExample/csl_
    1662 0007ee 7600          MOV #64, AR2 ; |536| 
         0007f0 40A8 
    1663 0007f2 A908          MOV *SP(#4), AR1 ; |536| 
    1664 0007f4 1294          CMPU AR1 < AR2, TC1 ; |536| 
TMS320C55x Assembler PC v4.4.1 Sat Sep 29 23:09:36 2018

Tools Copyright (c) 1996-2012 Texas Instruments Incorporated
csl_i2c_intc_example.asm                                             PAGE   42

         0007f6 A4   
    1665 0007f7 0464          BCC $C$L47,TC1 ; |536| 
         0007f9 C1   
    1666                                                      ; branchcc occurs ; |536| 
    1667 0007fa       $C$DW$L$_CSL_i2cIntcTest$95$E:
    1668 0007fa       $C$L49:    
    1669                      .dwpsn  file "../c5535_bsl_revc/ezdsp5535_v1/c55xx_csl/ccs_v4.0_examples/i2c/CSL_I2C_IntcExample/csl_
    1670 0007fa F008          CMP *SP(#4) == #64, TC1 ; |545| 
         0007fc 0040 
    1671 0007fe 66F4          BCC $C$L50,!TC1 ; |545| 
    1672                                                      ; branchcc occurs ; |545| 
    1673                      .dwpsn  file "../c5535_bsl_revc/ezdsp5535_v1/c55xx_csl/ccs_v4.0_examples/i2c/CSL_I2C_IntcExample/csl_
    1674 000800 EC31          AMOV #$C$FSL15, XAR3 ; |547| 
         000802 BE00 
         000804 0198+
    1675 000806 EB00          MOV XAR3, dbl(*SP(#0))
         000808 B5   
    1676              $C$DW$113       .dwtag  DW_TAG_TI_branch
    1677                      .dwattr $C$DW$113, DW_AT_low_pc(0x00)
    1678                      .dwattr $C$DW$113, DW_AT_name("_printf")
    1679                      .dwattr $C$DW$113, DW_AT_TI_call
    1680 000809 6C00          CALL #_printf ; |547| 
         00080b 0000!
    1681                                                      ; call occurs [#_printf] ; |547| 
    1682 00080d       $C$L50:    
    1683                      .dwpsn  file "../c5535_bsl_revc/ezdsp5535_v1/c55xx_csl/ccs_v4.0_examples/i2c/CSL_I2C_IntcExample/csl_
    1684 00080d E606          MOV #0, *SP(#3) ; |550| 
         00080f 00   
    1685                      .dwpsn  file "../c5535_bsl_revc/ezdsp5535_v1/c55xx_csl/ccs_v4.0_examples/i2c/CSL_I2C_IntcExample/csl_
    1686 000810 A406          MOV *SP(#3), T0 ; |551| 
    1687 000812       $C$L51:    
    1688                      .dwpsn  file "../c5535_bsl_revc/ezdsp5535_v1/c55xx_csl/ccs_v4.0_examples/i2c/CSL_I2C_IntcExample/csl_
    1689 000812 4E05          AADD #5, SP
    1690                      .dwcfi  cfa_offset, 1
    1691              $C$DW$114       .dwtag  DW_TAG_TI_branch
    1692                      .dwattr $C$DW$114, DW_AT_low_pc(0x00)
    1693                      .dwattr $C$DW$114, DW_AT_TI_return
    1694 000814 4804          RET
    1695                                                      ; return occurs
    1696              
    1697              $C$DW$115       .dwtag  DW_TAG_TI_loop
    1698                      .dwattr $C$DW$115, DW_AT_name("F:\eZdsp_DBG\tmp1\c55x-sim2\foo\Debug\csl_i2c_intc_example.asm:$C$L47:
    1699                      .dwattr $C$DW$115, DW_AT_TI_begin_file("../c5535_bsl_revc/ezdsp5535_v1/c55xx_csl/ccs_v4.0_examples/i2
    1700                      .dwattr $C$DW$115, DW_AT_TI_begin_line(0x218)
    1701                      .dwattr $C$DW$115, DW_AT_TI_end_line(0x21f)
    1702              $C$DW$116       .dwtag  DW_TAG_TI_loop_range
    1703                      .dwattr $C$DW$116, DW_AT_low_pc($C$DW$L$_CSL_i2cIntcTest$93$B)
    1704                      .dwattr $C$DW$116, DW_AT_high_pc($C$DW$L$_CSL_i2cIntcTest$93$E)
    1705              $C$DW$117       .dwtag  DW_TAG_TI_loop_range
    1706                      .dwattr $C$DW$117, DW_AT_low_pc($C$DW$L$_CSL_i2cIntcTest$95$B)
    1707                      .dwattr $C$DW$117, DW_AT_high_pc($C$DW$L$_CSL_i2cIntcTest$95$E)
    1708                      .dwendtag $C$DW$115
    1709              
    1710              
    1711              $C$DW$118       .dwtag  DW_TAG_TI_loop
TMS320C55x Assembler PC v4.4.1 Sat Sep 29 23:09:36 2018

Tools Copyright (c) 1996-2012 Texas Instruments Incorporated
csl_i2c_intc_example.asm                                             PAGE   43

    1712                      .dwattr $C$DW$118, DW_AT_name("F:\eZdsp_DBG\tmp1\c55x-sim2\foo\Debug\csl_i2c_intc_example.asm:$C$L43:
    1713                      .dwattr $C$DW$118, DW_AT_TI_begin_file("../c5535_bsl_revc/ezdsp5535_v1/c55xx_csl/ccs_v4.0_examples/i2
    1714                      .dwattr $C$DW$118, DW_AT_TI_begin_line(0x1f4)
    1715                      .dwattr $C$DW$118, DW_AT_TI_end_line(0x1fa)
    1716              $C$DW$119       .dwtag  DW_TAG_TI_loop_range
    1717                      .dwattr $C$DW$119, DW_AT_low_pc($C$DW$L$_CSL_i2cIntcTest$86$B)
    1718                      .dwattr $C$DW$119, DW_AT_high_pc($C$DW$L$_CSL_i2cIntcTest$86$E)
    1719              $C$DW$120       .dwtag  DW_TAG_TI_loop_range
    1720                      .dwattr $C$DW$120, DW_AT_low_pc($C$DW$L$_CSL_i2cIntcTest$87$B)
    1721                      .dwattr $C$DW$120, DW_AT_high_pc($C$DW$L$_CSL_i2cIntcTest$87$E)
    1722                      .dwendtag $C$DW$118
    1723              
    1724              
    1725              $C$DW$121       .dwtag  DW_TAG_TI_loop
    1726                      .dwattr $C$DW$121, DW_AT_name("F:\eZdsp_DBG\tmp1\c55x-sim2\foo\Debug\csl_i2c_intc_example.asm:$C$L35:
    1727                      .dwattr $C$DW$121, DW_AT_TI_begin_file("../c5535_bsl_revc/ezdsp5535_v1/c55xx_csl/ccs_v4.0_examples/i2
    1728                      .dwattr $C$DW$121, DW_AT_TI_begin_line(0x1b3)
    1729                      .dwattr $C$DW$121, DW_AT_TI_end_line(0x1b3)
    1730              $C$DW$122       .dwtag  DW_TAG_TI_loop_range
    1731                      .dwattr $C$DW$122, DW_AT_low_pc($C$DW$L$_CSL_i2cIntcTest$66$B)
    1732                      .dwattr $C$DW$122, DW_AT_high_pc($C$DW$L$_CSL_i2cIntcTest$66$E)
    1733                      .dwendtag $C$DW$121
    1734              
    1735              
    1736              $C$DW$123       .dwtag  DW_TAG_TI_loop
    1737                      .dwattr $C$DW$123, DW_AT_name("F:\eZdsp_DBG\tmp1\c55x-sim2\foo\Debug\csl_i2c_intc_example.asm:$C$L33:
    1738                      .dwattr $C$DW$123, DW_AT_TI_begin_file("../c5535_bsl_revc/ezdsp5535_v1/c55xx_csl/ccs_v4.0_examples/i2
    1739                      .dwattr $C$DW$123, DW_AT_TI_begin_line(0x1b2)
    1740                      .dwattr $C$DW$123, DW_AT_TI_end_line(0x1b2)
    1741              $C$DW$124       .dwtag  DW_TAG_TI_loop_range
    1742                      .dwattr $C$DW$124, DW_AT_low_pc($C$DW$L$_CSL_i2cIntcTest$64$B)
    1743                      .dwattr $C$DW$124, DW_AT_high_pc($C$DW$L$_CSL_i2cIntcTest$64$E)
    1744                      .dwendtag $C$DW$123
    1745              
    1746              
    1747              $C$DW$125       .dwtag  DW_TAG_TI_loop
    1748                      .dwattr $C$DW$125, DW_AT_name("F:\eZdsp_DBG\tmp1\c55x-sim2\foo\Debug\csl_i2c_intc_example.asm:$C$L28:
    1749                      .dwattr $C$DW$125, DW_AT_TI_begin_file("../c5535_bsl_revc/ezdsp5535_v1/c55xx_csl/ccs_v4.0_examples/i2
    1750                      .dwattr $C$DW$125, DW_AT_TI_begin_line(0x198)
    1751                      .dwattr $C$DW$125, DW_AT_TI_end_line(0x19f)
    1752              $C$DW$126       .dwtag  DW_TAG_TI_loop_range
    1753                      .dwattr $C$DW$126, DW_AT_low_pc($C$DW$L$_CSL_i2cIntcTest$56$B)
    1754                      .dwattr $C$DW$126, DW_AT_high_pc($C$DW$L$_CSL_i2cIntcTest$56$E)
    1755              $C$DW$127       .dwtag  DW_TAG_TI_loop_range
    1756                      .dwattr $C$DW$127, DW_AT_low_pc($C$DW$L$_CSL_i2cIntcTest$58$B)
    1757                      .dwattr $C$DW$127, DW_AT_high_pc($C$DW$L$_CSL_i2cIntcTest$58$E)
    1758                      .dwendtag $C$DW$125
    1759              
    1760              
    1761              $C$DW$128       .dwtag  DW_TAG_TI_loop
    1762                      .dwattr $C$DW$128, DW_AT_name("F:\eZdsp_DBG\tmp1\c55x-sim2\foo\Debug\csl_i2c_intc_example.asm:$C$L20:
    1763                      .dwattr $C$DW$128, DW_AT_TI_begin_file("../c5535_bsl_revc/ezdsp5535_v1/c55xx_csl/ccs_v4.0_examples/i2
    1764                      .dwattr $C$DW$128, DW_AT_TI_begin_line(0x155)
    1765                      .dwattr $C$DW$128, DW_AT_TI_end_line(0x155)
    1766              $C$DW$129       .dwtag  DW_TAG_TI_loop_range
TMS320C55x Assembler PC v4.4.1 Sat Sep 29 23:09:36 2018

Tools Copyright (c) 1996-2012 Texas Instruments Incorporated
csl_i2c_intc_example.asm                                             PAGE   44

    1767                      .dwattr $C$DW$129, DW_AT_low_pc($C$DW$L$_CSL_i2cIntcTest$36$B)
    1768                      .dwattr $C$DW$129, DW_AT_high_pc($C$DW$L$_CSL_i2cIntcTest$36$E)
    1769                      .dwendtag $C$DW$128
    1770              
    1771              
    1772              $C$DW$130       .dwtag  DW_TAG_TI_loop
    1773                      .dwattr $C$DW$130, DW_AT_name("F:\eZdsp_DBG\tmp1\c55x-sim2\foo\Debug\csl_i2c_intc_example.asm:$C$L18:
    1774                      .dwattr $C$DW$130, DW_AT_TI_begin_file("../c5535_bsl_revc/ezdsp5535_v1/c55xx_csl/ccs_v4.0_examples/i2
    1775                      .dwattr $C$DW$130, DW_AT_TI_begin_line(0x154)
    1776                      .dwattr $C$DW$130, DW_AT_TI_end_line(0x154)
    1777              $C$DW$131       .dwtag  DW_TAG_TI_loop_range
    1778                      .dwattr $C$DW$131, DW_AT_low_pc($C$DW$L$_CSL_i2cIntcTest$34$B)
    1779                      .dwattr $C$DW$131, DW_AT_high_pc($C$DW$L$_CSL_i2cIntcTest$34$E)
    1780                      .dwendtag $C$DW$130
    1781              
    1782              
    1783              $C$DW$132       .dwtag  DW_TAG_TI_loop
    1784                      .dwattr $C$DW$132, DW_AT_name("F:\eZdsp_DBG\tmp1\c55x-sim2\foo\Debug\csl_i2c_intc_example.asm:$C$L13:
    1785                      .dwattr $C$DW$132, DW_AT_TI_begin_file("../c5535_bsl_revc/ezdsp5535_v1/c55xx_csl/ccs_v4.0_examples/i2
    1786                      .dwattr $C$DW$132, DW_AT_TI_begin_line(0x138)
    1787                      .dwattr $C$DW$132, DW_AT_TI_end_line(0x13f)
    1788              $C$DW$133       .dwtag  DW_TAG_TI_loop_range
    1789                      .dwattr $C$DW$133, DW_AT_low_pc($C$DW$L$_CSL_i2cIntcTest$26$B)
    1790                      .dwattr $C$DW$133, DW_AT_high_pc($C$DW$L$_CSL_i2cIntcTest$26$E)
    1791              $C$DW$134       .dwtag  DW_TAG_TI_loop_range
    1792                      .dwattr $C$DW$134, DW_AT_low_pc($C$DW$L$_CSL_i2cIntcTest$28$B)
    1793                      .dwattr $C$DW$134, DW_AT_high_pc($C$DW$L$_CSL_i2cIntcTest$28$E)
    1794                      .dwendtag $C$DW$132
    1795              
    1796              
    1797              $C$DW$135       .dwtag  DW_TAG_TI_loop
    1798                      .dwattr $C$DW$135, DW_AT_name("F:\eZdsp_DBG\tmp1\c55x-sim2\foo\Debug\csl_i2c_intc_example.asm:$C$L3:1
    1799                      .dwattr $C$DW$135, DW_AT_TI_begin_file("../c5535_bsl_revc/ezdsp5535_v1/c55xx_csl/ccs_v4.0_examples/i2
    1800                      .dwattr $C$DW$135, DW_AT_TI_begin_line(0xc4)
    1801                      .dwattr $C$DW$135, DW_AT_TI_end_line(0xc8)
    1802              $C$DW$136       .dwtag  DW_TAG_TI_loop_range
    1803                      .dwattr $C$DW$136, DW_AT_low_pc($C$DW$L$_CSL_i2cIntcTest$2$B)
    1804                      .dwattr $C$DW$136, DW_AT_high_pc($C$DW$L$_CSL_i2cIntcTest$2$E)
    1805                      .dwendtag $C$DW$135
    1806              
    1807                      .dwattr $C$DW$51, DW_AT_TI_end_file("../c5535_bsl_revc/ezdsp5535_v1/c55xx_csl/ccs_v4.0_examples/i2c/C
    1808                      .dwattr $C$DW$51, DW_AT_TI_end_line(0x228)
    1809                      .dwattr $C$DW$51, DW_AT_TI_end_column(0x01)
    1810                      .dwendentry
    1811                      .dwendtag $C$DW$51
    1812              
    1813 000816               .sect   ".text"
    1814                      .align 4
    1815                      .global _CSL_i2cAlCallback
    1816              
    1817              $C$DW$137       .dwtag  DW_TAG_subprogram, DW_AT_name("CSL_i2cAlCallback")
    1818                      .dwattr $C$DW$137, DW_AT_low_pc(_CSL_i2cAlCallback)
    1819                      .dwattr $C$DW$137, DW_AT_high_pc(0x00)
    1820                      .dwattr $C$DW$137, DW_AT_TI_symbol_name("_CSL_i2cAlCallback")
    1821                      .dwattr $C$DW$137, DW_AT_external
TMS320C55x Assembler PC v4.4.1 Sat Sep 29 23:09:36 2018

Tools Copyright (c) 1996-2012 Texas Instruments Incorporated
csl_i2c_intc_example.asm                                             PAGE   45

    1822                      .dwattr $C$DW$137, DW_AT_TI_begin_file("../c5535_bsl_revc/ezdsp5535_v1/c55xx_csl/ccs_v4.0_examples/i2
    1823                      .dwattr $C$DW$137, DW_AT_TI_begin_line(0x231)
    1824                      .dwattr $C$DW$137, DW_AT_TI_begin_column(0x06)
    1825                      .dwattr $C$DW$137, DW_AT_TI_max_frame_size(0x01)
    1826                      .dwpsn  file "../c5535_bsl_revc/ezdsp5535_v1/c55xx_csl/ccs_v4.0_examples/i2c/CSL_I2C_IntcExample/csl_
    1827              
    1828                      .dwfde $C$DW$CIE, _CSL_i2cAlCallback
    1829              ;*******************************************************************************
    1830              ;* FUNCTION NAME: CSL_i2cAlCallback                                            *
    1831              ;*                                                                             *
    1832              ;*   Function Uses Regs : SP,M40,SATA,SATD,RDM,FRCT,SMUL                       *
    1833              ;*   Stack Frame        : Compact (No Frame Pointer, w/ debug)                 *
    1834              ;*   Total Frame Size   : 1 word                                               *
    1835              ;*                        (1 return address/alignment)                         *
    1836              ;*   Min System Stack   : 1 word                                               *
    1837              ;*******************************************************************************
    1838 000818       _CSL_i2cAlCallback:
    1839                      .dwcfi  cfa_offset, 1
    1840                      .dwcfi  save_reg_to_mem, 91, -1
    1841                      .dwpsn  file "../c5535_bsl_revc/ezdsp5535_v1/c55xx_csl/ccs_v4.0_examples/i2c/CSL_I2C_IntcExample/csl_
    1842              $C$DW$138       .dwtag  DW_TAG_TI_branch
    1843                      .dwattr $C$DW$138, DW_AT_low_pc(0x00)
    1844                      .dwattr $C$DW$138, DW_AT_TI_return
    1845 000818 4804          RET
    1846                                                      ; return occurs
    1847                      .dwattr $C$DW$137, DW_AT_TI_end_file("../c5535_bsl_revc/ezdsp5535_v1/c55xx_csl/ccs_v4.0_examples/i2c/
    1848                      .dwattr $C$DW$137, DW_AT_TI_end_line(0x234)
    1849                      .dwattr $C$DW$137, DW_AT_TI_end_column(0x01)
    1850                      .dwendentry
    1851                      .dwendtag $C$DW$137
    1852              
    1853 00081a               .sect   ".text"
    1854                      .align 4
    1855                      .global _CSL_i2cNackCallback
    1856              
    1857              $C$DW$139       .dwtag  DW_TAG_subprogram, DW_AT_name("CSL_i2cNackCallback")
    1858                      .dwattr $C$DW$139, DW_AT_low_pc(_CSL_i2cNackCallback)
    1859                      .dwattr $C$DW$139, DW_AT_high_pc(0x00)
    1860                      .dwattr $C$DW$139, DW_AT_TI_symbol_name("_CSL_i2cNackCallback")
    1861                      .dwattr $C$DW$139, DW_AT_external
    1862                      .dwattr $C$DW$139, DW_AT_TI_begin_file("../c5535_bsl_revc/ezdsp5535_v1/c55xx_csl/ccs_v4.0_examples/i2
    1863                      .dwattr $C$DW$139, DW_AT_TI_begin_line(0x23d)
    1864                      .dwattr $C$DW$139, DW_AT_TI_begin_column(0x06)
    1865                      .dwattr $C$DW$139, DW_AT_TI_max_frame_size(0x01)
    1866                      .dwpsn  file "../c5535_bsl_revc/ezdsp5535_v1/c55xx_csl/ccs_v4.0_examples/i2c/CSL_I2C_IntcExample/csl_
    1867              
    1868                      .dwfde $C$DW$CIE, _CSL_i2cNackCallback
    1869              ;*******************************************************************************
    1870              ;* FUNCTION NAME: CSL_i2cNackCallback                                          *
    1871              ;*                                                                             *
    1872              ;*   Function Uses Regs : SP,M40,SATA,SATD,RDM,FRCT,SMUL                       *
    1873              ;*   Stack Frame        : Compact (No Frame Pointer, w/ debug)                 *
    1874              ;*   Total Frame Size   : 1 word                                               *
    1875              ;*                        (1 return address/alignment)                         *
    1876              ;*   Min System Stack   : 1 word                                               *
TMS320C55x Assembler PC v4.4.1 Sat Sep 29 23:09:36 2018

Tools Copyright (c) 1996-2012 Texas Instruments Incorporated
csl_i2c_intc_example.asm                                             PAGE   46

    1877              ;*******************************************************************************
    1878 00081c       _CSL_i2cNackCallback:
    1879                      .dwcfi  cfa_offset, 1
    1880                      .dwcfi  save_reg_to_mem, 91, -1
    1881                      .dwpsn  file "../c5535_bsl_revc/ezdsp5535_v1/c55xx_csl/ccs_v4.0_examples/i2c/CSL_I2C_IntcExample/csl_
    1882 00081c E631          MOV #1, *(#_i2cErrInTx) ; |575| 
         00081e 0100 
         000820 00B7-
    1883                      .dwpsn  file "../c5535_bsl_revc/ezdsp5535_v1/c55xx_csl/ccs_v4.0_examples/i2c/CSL_I2C_IntcExample/csl_
    1884              $C$DW$140       .dwtag  DW_TAG_TI_branch
    1885                      .dwattr $C$DW$140, DW_AT_low_pc(0x00)
    1886                      .dwattr $C$DW$140, DW_AT_TI_return
    1887 000822 4804          RET
    1888                                                      ; return occurs
    1889                      .dwattr $C$DW$139, DW_AT_TI_end_file("../c5535_bsl_revc/ezdsp5535_v1/c55xx_csl/ccs_v4.0_examples/i2c/
    1890                      .dwattr $C$DW$139, DW_AT_TI_end_line(0x240)
    1891                      .dwattr $C$DW$139, DW_AT_TI_end_column(0x01)
    1892                      .dwendentry
    1893                      .dwendtag $C$DW$139
    1894              
    1895 000824               .sect   ".text"
    1896                      .align 4
    1897                      .global _CSL_i2cArdyCallback
    1898              
    1899              $C$DW$141       .dwtag  DW_TAG_subprogram, DW_AT_name("CSL_i2cArdyCallback")
    1900                      .dwattr $C$DW$141, DW_AT_low_pc(_CSL_i2cArdyCallback)
    1901                      .dwattr $C$DW$141, DW_AT_high_pc(0x00)
    1902                      .dwattr $C$DW$141, DW_AT_TI_symbol_name("_CSL_i2cArdyCallback")
    1903                      .dwattr $C$DW$141, DW_AT_external
    1904                      .dwattr $C$DW$141, DW_AT_TI_begin_file("../c5535_bsl_revc/ezdsp5535_v1/c55xx_csl/ccs_v4.0_examples/i2
    1905                      .dwattr $C$DW$141, DW_AT_TI_begin_line(0x249)
    1906                      .dwattr $C$DW$141, DW_AT_TI_begin_column(0x06)
    1907                      .dwattr $C$DW$141, DW_AT_TI_max_frame_size(0x01)
    1908                      .dwpsn  file "../c5535_bsl_revc/ezdsp5535_v1/c55xx_csl/ccs_v4.0_examples/i2c/CSL_I2C_IntcExample/csl_
    1909              
    1910                      .dwfde $C$DW$CIE, _CSL_i2cArdyCallback
    1911              ;*******************************************************************************
    1912              ;* FUNCTION NAME: CSL_i2cArdyCallback                                          *
    1913              ;*                                                                             *
    1914              ;*   Function Uses Regs : SP,M40,SATA,SATD,RDM,FRCT,SMUL                       *
    1915              ;*   Stack Frame        : Compact (No Frame Pointer, w/ debug)                 *
    1916              ;*   Total Frame Size   : 1 word                                               *
    1917              ;*                        (1 return address/alignment)                         *
    1918              ;*   Min System Stack   : 1 word                                               *
    1919              ;*******************************************************************************
    1920 000824       _CSL_i2cArdyCallback:
    1921                      .dwcfi  cfa_offset, 1
    1922                      .dwcfi  save_reg_to_mem, 91, -1
    1923                      .dwpsn  file "../c5535_bsl_revc/ezdsp5535_v1/c55xx_csl/ccs_v4.0_examples/i2c/CSL_I2C_IntcExample/csl_
    1924              $C$DW$142       .dwtag  DW_TAG_TI_branch
    1925                      .dwattr $C$DW$142, DW_AT_low_pc(0x00)
    1926                      .dwattr $C$DW$142, DW_AT_TI_return
    1927 000824 4804          RET
    1928                                                      ; return occurs
    1929                      .dwattr $C$DW$141, DW_AT_TI_end_file("../c5535_bsl_revc/ezdsp5535_v1/c55xx_csl/ccs_v4.0_examples/i2c/
TMS320C55x Assembler PC v4.4.1 Sat Sep 29 23:09:36 2018

Tools Copyright (c) 1996-2012 Texas Instruments Incorporated
csl_i2c_intc_example.asm                                             PAGE   47

    1930                      .dwattr $C$DW$141, DW_AT_TI_end_line(0x24c)
    1931                      .dwattr $C$DW$141, DW_AT_TI_end_column(0x01)
    1932                      .dwendentry
    1933                      .dwendtag $C$DW$141
    1934              
    1935 000826               .sect   ".text"
    1936                      .align 4
    1937                      .global _CSL_i2cRxCallback
    1938              
    1939              $C$DW$143       .dwtag  DW_TAG_subprogram, DW_AT_name("CSL_i2cRxCallback")
    1940                      .dwattr $C$DW$143, DW_AT_low_pc(_CSL_i2cRxCallback)
    1941                      .dwattr $C$DW$143, DW_AT_high_pc(0x00)
    1942                      .dwattr $C$DW$143, DW_AT_TI_symbol_name("_CSL_i2cRxCallback")
    1943                      .dwattr $C$DW$143, DW_AT_external
    1944                      .dwattr $C$DW$143, DW_AT_TI_begin_file("../c5535_bsl_revc/ezdsp5535_v1/c55xx_csl/ccs_v4.0_examples/i2
    1945                      .dwattr $C$DW$143, DW_AT_TI_begin_line(0x255)
    1946                      .dwattr $C$DW$143, DW_AT_TI_begin_column(0x06)
    1947                      .dwattr $C$DW$143, DW_AT_TI_max_frame_size(0x01)
    1948                      .dwpsn  file "../c5535_bsl_revc/ezdsp5535_v1/c55xx_csl/ccs_v4.0_examples/i2c/CSL_I2C_IntcExample/csl_
    1949              
    1950                      .dwfde $C$DW$CIE, _CSL_i2cRxCallback
    1951              ;*******************************************************************************
    1952              ;* FUNCTION NAME: CSL_i2cRxCallback                                            *
    1953              ;*                                                                             *
    1954              ;*   Function Uses Regs : T0,AR1,AR3,XAR3,SP,CARRY,M40,SATA,SATD,RDM,FRCT,SMUL *
    1955              ;*   Stack Frame        : Compact (No Frame Pointer, w/ debug)                 *
    1956              ;*   Total Frame Size   : 1 word                                               *
    1957              ;*                        (1 return address/alignment)                         *
    1958              ;*   Min System Stack   : 1 word                                               *
    1959              ;*******************************************************************************
    1960 000828       _CSL_i2cRxCallback:
    1961                      .dwcfi  cfa_offset, 1
    1962                      .dwcfi  save_reg_to_mem, 91, -1
    1963                      .dwpsn  file "../c5535_bsl_revc/ezdsp5535_v1/c55xx_csl/ccs_v4.0_examples/i2c/CSL_I2C_IntcExample/csl_
    1964 000828 A431          MOV *(#_i2cRxCount), T0 ; |599| 
         00082a 0000 
         00082c B6-  
    1965 00082d 7B00          ADD #1, T0, AR1 ; |599| 
         00082f 0194 
    1966 000831 C931          MOV AR1, *(#_i2cRxCount) ; |599| 
         000833 0000 
         000835 B6-  
    1967 000836 A951          MOV *port(#6680), AR1 ; |599| 
         000838 1A18 
    1968 00083a EC31          AMOV #_gI2cRdBuf, XAR3 ; |599| 
         00083c BE00 
         00083e 0042-
    1969 000840 C96B          MOV AR1, *AR3(T0) ; |599| 
    1970                      .dwpsn  file "../c5535_bsl_revc/ezdsp5535_v1/c55xx_csl/ccs_v4.0_examples/i2c/CSL_I2C_IntcExample/csl_
    1971 000842 F731          SUB #1, *(#_dataLength) ; |600| 
         000844 FFFF 
         000846 0000 
         000848 B4-  
    1972                      .dwpsn  file "../c5535_bsl_revc/ezdsp5535_v1/c55xx_csl/ccs_v4.0_examples/i2c/CSL_I2C_IntcExample/csl_
    1973              $C$DW$144       .dwtag  DW_TAG_TI_branch
TMS320C55x Assembler PC v4.4.1 Sat Sep 29 23:09:36 2018

Tools Copyright (c) 1996-2012 Texas Instruments Incorporated
csl_i2c_intc_example.asm                                             PAGE   48

    1974                      .dwattr $C$DW$144, DW_AT_low_pc(0x00)
    1975                      .dwattr $C$DW$144, DW_AT_TI_return
    1976 000849 4804          RET
    1977                                                      ; return occurs
    1978                      .dwattr $C$DW$143, DW_AT_TI_end_file("../c5535_bsl_revc/ezdsp5535_v1/c55xx_csl/ccs_v4.0_examples/i2c/
    1979                      .dwattr $C$DW$143, DW_AT_TI_end_line(0x259)
    1980                      .dwattr $C$DW$143, DW_AT_TI_end_column(0x01)
    1981                      .dwendentry
    1982                      .dwendtag $C$DW$143
    1983              
    1984 00084b               .sect   ".text"
    1985                      .align 4
    1986                      .global _CSL_i2cTxCallback
    1987              
    1988              $C$DW$145       .dwtag  DW_TAG_subprogram, DW_AT_name("CSL_i2cTxCallback")
    1989                      .dwattr $C$DW$145, DW_AT_low_pc(_CSL_i2cTxCallback)
    1990                      .dwattr $C$DW$145, DW_AT_high_pc(0x00)
    1991                      .dwattr $C$DW$145, DW_AT_TI_symbol_name("_CSL_i2cTxCallback")
    1992                      .dwattr $C$DW$145, DW_AT_external
    1993                      .dwattr $C$DW$145, DW_AT_TI_begin_file("../c5535_bsl_revc/ezdsp5535_v1/c55xx_csl/ccs_v4.0_examples/i2
    1994                      .dwattr $C$DW$145, DW_AT_TI_begin_line(0x262)
    1995                      .dwattr $C$DW$145, DW_AT_TI_begin_column(0x06)
    1996                      .dwattr $C$DW$145, DW_AT_TI_max_frame_size(0x01)
    1997                      .dwpsn  file "../c5535_bsl_revc/ezdsp5535_v1/c55xx_csl/ccs_v4.0_examples/i2c/CSL_I2C_IntcExample/csl_
    1998              
    1999                      .dwfde $C$DW$CIE, _CSL_i2cTxCallback
    2000              ;*******************************************************************************
    2001              ;* FUNCTION NAME: CSL_i2cTxCallback                                            *
    2002              ;*                                                                             *
    2003              ;*   Function Uses Regs : T0,AR1,AR3,XAR3,SP,CARRY,M40,SATA,SATD,RDM,FRCT,SMUL *
    2004              ;*   Stack Frame        : Compact (No Frame Pointer, w/ debug)                 *
    2005              ;*   Total Frame Size   : 1 word                                               *
    2006              ;*                        (1 return address/alignment)                         *
    2007              ;*   Min System Stack   : 1 word                                               *
    2008              ;*******************************************************************************
    2009 00084c       _CSL_i2cTxCallback:
    2010                      .dwcfi  cfa_offset, 1
    2011                      .dwcfi  save_reg_to_mem, 91, -1
    2012                      .dwpsn  file "../c5535_bsl_revc/ezdsp5535_v1/c55xx_csl/ccs_v4.0_examples/i2c/CSL_I2C_IntcExample/csl_
    2013 00084c A431          MOV *(#_i2cTxCount), T0 ; |612| 
         00084e 0000 
         000850 B5-  
    2014 000851 EC31          AMOV #_gI2cWrBuf, XAR3 ; |612| 
         000853 BE00 
         000855 0000-
    2015 000857 7B00          ADD #1, T0, AR1 ; |612| 
         000859 0194 
    2016 00085b C931          MOV AR1, *(#_i2cTxCount) ; |612| 
         00085d 0000 
         00085f B5-  
    2017 000860 A96B          MOV *AR3(T0), AR1 ; |612| 
    2018 000862 C951          MOV AR1, *port(#6688) ; |612| 
         000864 1A20 
    2019                      .dwpsn  file "../c5535_bsl_revc/ezdsp5535_v1/c55xx_csl/ccs_v4.0_examples/i2c/CSL_I2C_IntcExample/csl_
    2020 000866 F731          SUB #1, *(#_dataLength) ; |613| 
TMS320C55x Assembler PC v4.4.1 Sat Sep 29 23:09:36 2018

Tools Copyright (c) 1996-2012 Texas Instruments Incorporated
csl_i2c_intc_example.asm                                             PAGE   49

         000868 FFFF 
         00086a 0000 
         00086c B4-  
    2021                      .dwpsn  file "../c5535_bsl_revc/ezdsp5535_v1/c55xx_csl/ccs_v4.0_examples/i2c/CSL_I2C_IntcExample/csl_
    2022              $C$DW$146       .dwtag  DW_TAG_TI_branch
    2023                      .dwattr $C$DW$146, DW_AT_low_pc(0x00)
    2024                      .dwattr $C$DW$146, DW_AT_TI_return
    2025 00086d 4804          RET
    2026                                                      ; return occurs
    2027                      .dwattr $C$DW$145, DW_AT_TI_end_file("../c5535_bsl_revc/ezdsp5535_v1/c55xx_csl/ccs_v4.0_examples/i2c/
    2028                      .dwattr $C$DW$145, DW_AT_TI_end_line(0x266)
    2029                      .dwattr $C$DW$145, DW_AT_TI_end_column(0x01)
    2030                      .dwendentry
    2031                      .dwendtag $C$DW$145
    2032              
    2033 00086f               .sect   ".text"
    2034                      .align 4
    2035                      .global _CSL_i2cScdCallback
    2036              
    2037              $C$DW$147       .dwtag  DW_TAG_subprogram, DW_AT_name("CSL_i2cScdCallback")
    2038                      .dwattr $C$DW$147, DW_AT_low_pc(_CSL_i2cScdCallback)
    2039                      .dwattr $C$DW$147, DW_AT_high_pc(0x00)
    2040                      .dwattr $C$DW$147, DW_AT_TI_symbol_name("_CSL_i2cScdCallback")
    2041                      .dwattr $C$DW$147, DW_AT_external
    2042                      .dwattr $C$DW$147, DW_AT_TI_begin_file("../c5535_bsl_revc/ezdsp5535_v1/c55xx_csl/ccs_v4.0_examples/i2
    2043                      .dwattr $C$DW$147, DW_AT_TI_begin_line(0x26f)
    2044                      .dwattr $C$DW$147, DW_AT_TI_begin_column(0x06)
    2045                      .dwattr $C$DW$147, DW_AT_TI_max_frame_size(0x01)
    2046                      .dwpsn  file "../c5535_bsl_revc/ezdsp5535_v1/c55xx_csl/ccs_v4.0_examples/i2c/CSL_I2C_IntcExample/csl_
    2047              
    2048                      .dwfde $C$DW$CIE, _CSL_i2cScdCallback
    2049              ;*******************************************************************************
    2050              ;* FUNCTION NAME: CSL_i2cScdCallback                                           *
    2051              ;*                                                                             *
    2052              ;*   Function Uses Regs : SP,M40,SATA,SATD,RDM,FRCT,SMUL                       *
    2053              ;*   Stack Frame        : Compact (No Frame Pointer, w/ debug)                 *
    2054              ;*   Total Frame Size   : 1 word                                               *
    2055              ;*                        (1 return address/alignment)                         *
    2056              ;*   Min System Stack   : 1 word                                               *
    2057              ;*******************************************************************************
    2058 000870       _CSL_i2cScdCallback:
    2059                      .dwcfi  cfa_offset, 1
    2060                      .dwcfi  save_reg_to_mem, 91, -1
    2061                      .dwpsn  file "../c5535_bsl_revc/ezdsp5535_v1/c55xx_csl/ccs_v4.0_examples/i2c/CSL_I2C_IntcExample/csl_
    2062 000870 E631          MOV #1, *(#_stopDetected) ; |625| 
         000872 0100 
         000874 00B8-
    2063                      .dwpsn  file "../c5535_bsl_revc/ezdsp5535_v1/c55xx_csl/ccs_v4.0_examples/i2c/CSL_I2C_IntcExample/csl_
    2064              $C$DW$148       .dwtag  DW_TAG_TI_branch
    2065                      .dwattr $C$DW$148, DW_AT_low_pc(0x00)
    2066                      .dwattr $C$DW$148, DW_AT_TI_return
    2067 000876 4804          RET
    2068                                                      ; return occurs
    2069                      .dwattr $C$DW$147, DW_AT_TI_end_file("../c5535_bsl_revc/ezdsp5535_v1/c55xx_csl/ccs_v4.0_examples/i2c/
    2070                      .dwattr $C$DW$147, DW_AT_TI_end_line(0x272)
TMS320C55x Assembler PC v4.4.1 Sat Sep 29 23:09:36 2018

Tools Copyright (c) 1996-2012 Texas Instruments Incorporated
csl_i2c_intc_example.asm                                             PAGE   50

    2071                      .dwattr $C$DW$147, DW_AT_TI_end_column(0x01)
    2072                      .dwendentry
    2073                      .dwendtag $C$DW$147
    2074              
    2075 000878               .sect   ".text"
    2076                      .align 4
    2077                      .global _CSL_i2cAasCallback
    2078              
    2079              $C$DW$149       .dwtag  DW_TAG_subprogram, DW_AT_name("CSL_i2cAasCallback")
    2080                      .dwattr $C$DW$149, DW_AT_low_pc(_CSL_i2cAasCallback)
    2081                      .dwattr $C$DW$149, DW_AT_high_pc(0x00)
    2082                      .dwattr $C$DW$149, DW_AT_TI_symbol_name("_CSL_i2cAasCallback")
    2083                      .dwattr $C$DW$149, DW_AT_external
    2084                      .dwattr $C$DW$149, DW_AT_TI_begin_file("../c5535_bsl_revc/ezdsp5535_v1/c55xx_csl/ccs_v4.0_examples/i2
    2085                      .dwattr $C$DW$149, DW_AT_TI_begin_line(0x27b)
    2086                      .dwattr $C$DW$149, DW_AT_TI_begin_column(0x06)
    2087                      .dwattr $C$DW$149, DW_AT_TI_max_frame_size(0x01)
    2088                      .dwpsn  file "../c5535_bsl_revc/ezdsp5535_v1/c55xx_csl/ccs_v4.0_examples/i2c/CSL_I2C_IntcExample/csl_
    2089              
    2090                      .dwfde $C$DW$CIE, _CSL_i2cAasCallback
    2091              ;*******************************************************************************
    2092              ;* FUNCTION NAME: CSL_i2cAasCallback                                           *
    2093              ;*                                                                             *
    2094              ;*   Function Uses Regs : SP,M40,SATA,SATD,RDM,FRCT,SMUL                       *
    2095              ;*   Stack Frame        : Compact (No Frame Pointer, w/ debug)                 *
    2096              ;*   Total Frame Size   : 1 word                                               *
    2097              ;*                        (1 return address/alignment)                         *
    2098              ;*   Min System Stack   : 1 word                                               *
    2099              ;*******************************************************************************
    2100 000878       _CSL_i2cAasCallback:
    2101                      .dwcfi  cfa_offset, 1
    2102                      .dwcfi  save_reg_to_mem, 91, -1
    2103                      .dwpsn  file "../c5535_bsl_revc/ezdsp5535_v1/c55xx_csl/ccs_v4.0_examples/i2c/CSL_I2C_IntcExample/csl_
    2104              $C$DW$150       .dwtag  DW_TAG_TI_branch
    2105                      .dwattr $C$DW$150, DW_AT_low_pc(0x00)
    2106                      .dwattr $C$DW$150, DW_AT_TI_return
    2107 000878 4804          RET
    2108                                                      ; return occurs
    2109                      .dwattr $C$DW$149, DW_AT_TI_end_file("../c5535_bsl_revc/ezdsp5535_v1/c55xx_csl/ccs_v4.0_examples/i2c/
    2110                      .dwattr $C$DW$149, DW_AT_TI_end_line(0x27e)
    2111                      .dwattr $C$DW$149, DW_AT_TI_end_column(0x01)
    2112                      .dwendentry
    2113                      .dwendtag $C$DW$149
    2114              
    2115 000000               .sect   ".text:retain"
    2116                      .align 4
    2117                      .global _i2c_isr
    2118              
    2119              $C$DW$151       .dwtag  DW_TAG_subprogram, DW_AT_name("i2c_isr")
    2120                      .dwattr $C$DW$151, DW_AT_low_pc(_i2c_isr)
    2121                      .dwattr $C$DW$151, DW_AT_high_pc(0x00)
    2122                      .dwattr $C$DW$151, DW_AT_TI_symbol_name("_i2c_isr")
    2123                      .dwattr $C$DW$151, DW_AT_external
    2124                      .dwattr $C$DW$151, DW_AT_TI_begin_file("../c5535_bsl_revc/ezdsp5535_v1/c55xx_csl/ccs_v4.0_examples/i2
    2125                      .dwattr $C$DW$151, DW_AT_TI_begin_line(0x287)
TMS320C55x Assembler PC v4.4.1 Sat Sep 29 23:09:36 2018

Tools Copyright (c) 1996-2012 Texas Instruments Incorporated
csl_i2c_intc_example.asm                                             PAGE   51

    2126                      .dwattr $C$DW$151, DW_AT_TI_begin_column(0x10)
    2127                      .dwattr $C$DW$151, DW_AT_TI_interrupt
    2128                      .dwattr $C$DW$151, DW_AT_TI_max_frame_size(0x2f)
    2129                      .dwpsn  file "../c5535_bsl_revc/ezdsp5535_v1/c55xx_csl/ccs_v4.0_examples/i2c/CSL_I2C_IntcExample/csl_
    2130              
    2131                      .dwfde $C$DW$CIE, _i2c_isr
    2132              ;*******************************************************************************
    2133              ;* INTERRUPT NAME: i2c_isr                                                     *
    2134              ;*                                                                             *
    2135              ;*   Function Uses Regs : AC0,AC0,AC1,AC1,AC2,AC2,AC3,AC3,T0,T1,AR0,AR1,AR2,   *
    2136              ;*                        AR3,XAR3,AR4,SP,BKC,BK03,BK47,ST1,ST2,ST3,BRC0,RSA0, *
    2137              ;*                        REA0,BRS1,BRC1,RSA1,REA1,CSR,RPTC,CDP,TRN0,TRN1,     *
    2138              ;*                        BSA01,BSA23,BSA45,BSA67,BSAC,CARRY,M40,SATA,SATD,RDM,*
    2139              ;*                        FRCT,SMUL                                            *
    2140              ;*   Save On Entry Regs : AC0,AC0,AC1,AC1,AC2,AC2,AC3,AC3,T0,T1,AR0,AR1,AR2,   *
    2141              ;*                        AR3,AR4,BKC,BK03,BK47,BRC0,RSA0,REA0,BRS1,BRC1,RSA1, *
    2142              ;*                        REA1,CSR,RPTC,CDP,TRN0,TRN1,BSA01,BSA23,BSA45,BSA67, *
    2143              ;*                        BSAC                                                 *
    2144              ;*******************************************************************************
    2145 000000       _i2c_isr:
    2146                      .dwcfi  cfa_offset, 3
    2147                      .dwcfi  save_reg_to_mem, 91, -3
    2148 000000 F406          AND #0xf91f, mmap(ST1_55)
         000002 F91F 
         000004 98   
    2149 000005 F506          OR #0x4100, mmap(ST1_55)
         000007 4100 
         000009 98   
    2150 00000a F496          AND #0xfa00, mmap(ST2_55)
         00000c FA00 
         00000e 98   
    2151 00000f F596          OR #0x8000, mmap(ST2_55)
         000011 8000 
         000013 98   
    2152 000014 B508          PSH mmap(ST3_55)
         000016 98   
    2153                      .dwcfi  cfa_offset, 4
    2154                      .dwcfi  save_reg_to_mem, 42, -4
    2155 000017 5007          PSH dbl(AC0)
    2156                      .dwcfi  cfa_offset, 5
    2157                      .dwcfi  save_reg_to_mem, 0, -5
    2158                      .dwcfi  cfa_offset, 6
    2159                      .dwcfi  save_reg_to_mem, 1, -6
    2160 000019 B514          PSH mmap(AC0G)
         00001b 98   
    2161                      .dwcfi  cfa_offset, 7
    2162                      .dwcfi  save_reg_to_mem, 2, -7
    2163 00001c 5017          PSH dbl(AC1)
    2164                      .dwcfi  cfa_offset, 8
    2165                      .dwcfi  save_reg_to_mem, 3, -8
    2166                      .dwcfi  cfa_offset, 9
    2167                      .dwcfi  save_reg_to_mem, 4, -9
    2168 00001e B51A          PSH mmap(AC1G)
         000020 98   
    2169                      .dwcfi  cfa_offset, 10
TMS320C55x Assembler PC v4.4.1 Sat Sep 29 23:09:36 2018

Tools Copyright (c) 1996-2012 Texas Instruments Incorporated
csl_i2c_intc_example.asm                                             PAGE   52

    2170                      .dwcfi  save_reg_to_mem, 5, -10
    2171 000021 5027          PSH dbl(AC2)
    2172                      .dwcfi  cfa_offset, 11
    2173                      .dwcfi  save_reg_to_mem, 6, -11
    2174                      .dwcfi  cfa_offset, 12
    2175                      .dwcfi  save_reg_to_mem, 7, -12
    2176 000023 B54C          PSH mmap(AC2G)
         000025 98   
    2177                      .dwcfi  cfa_offset, 13
    2178                      .dwcfi  save_reg_to_mem, 8, -13
    2179 000026 5037          PSH dbl(AC3)
    2180                      .dwcfi  cfa_offset, 14
    2181                      .dwcfi  save_reg_to_mem, 9, -14
    2182                      .dwcfi  cfa_offset, 15
    2183                      .dwcfi  save_reg_to_mem, 10, -15
    2184 000028 B554          PSH mmap(AC3G)
         00002a 98   
    2185                      .dwcfi  cfa_offset, 16
    2186                      .dwcfi  save_reg_to_mem, 11, -16
    2187 00002b 5046          PSH T0
    2188                      .dwcfi  cfa_offset, 17
    2189                      .dwcfi  save_reg_to_mem, 12, -17
    2190 00002d 5056          PSH T1
    2191                      .dwcfi  cfa_offset, 18
    2192                      .dwcfi  save_reg_to_mem, 13, -18
    2193 00002f 5085          PSHBOTH XAR0
    2194                      .dwcfi  cfa_offset, 19
    2195                      .dwcfi  save_reg_to_mem, 16, -19
    2196 000031 5095          PSHBOTH XAR1
    2197                      .dwcfi  cfa_offset, 20
    2198                      .dwcfi  save_reg_to_mem, 18, -20
    2199 000033 50A5          PSHBOTH XAR2
    2200                      .dwcfi  cfa_offset, 21
    2201                      .dwcfi  save_reg_to_mem, 20, -21
    2202 000035 50B5          PSHBOTH XAR3
    2203                      .dwcfi  cfa_offset, 22
    2204                      .dwcfi  save_reg_to_mem, 22, -22
    2205 000037 50C5          PSHBOTH XAR4
    2206                      .dwcfi  cfa_offset, 23
    2207                      .dwcfi  save_reg_to_mem, 24, -23
    2208 000039 B562          PSH mmap(BKC)
         00003b 98   
    2209                      .dwcfi  cfa_offset, 24
    2210                      .dwcfi  save_reg_to_mem, 37, -24
    2211 00003c B532          PSH mmap(BK03)
         00003e 98   
    2212                      .dwcfi  cfa_offset, 25
    2213                      .dwcfi  save_reg_to_mem, 38, -25
    2214 00003f B560          PSH mmap(BK47)
         000041 98   
    2215                      .dwcfi  cfa_offset, 26
    2216                      .dwcfi  save_reg_to_mem, 39, -26
    2217 000042 B534          PSH mmap(BRC0)
         000044 98   
    2218                      .dwcfi  cfa_offset, 27
TMS320C55x Assembler PC v4.4.1 Sat Sep 29 23:09:36 2018

Tools Copyright (c) 1996-2012 Texas Instruments Incorporated
csl_i2c_intc_example.asm                                             PAGE   53

    2219                      .dwcfi  save_reg_to_mem, 47, -27
    2220 000045 B57A          PSH mmap(RSA0L)
         000047 98   
    2221                      .dwcfi  cfa_offset, 28
    2222                      .dwcfi  save_reg_to_mem, 48, -28
    2223 000048 B578          PSH mmap(RSA0H)
         00004a 98   
    2224                      .dwcfi  cfa_offset, 29
    2225                      .dwcfi  save_reg_to_mem, 49, -29
    2226 00004b B57E          PSH mmap(REA0L)
         00004d 98   
    2227                      .dwcfi  cfa_offset, 30
    2228                      .dwcfi  save_reg_to_mem, 50, -30
    2229 00004e B57C          PSH mmap(REA0H)
         000050 98   
    2230                      .dwcfi  cfa_offset, 31
    2231                      .dwcfi  save_reg_to_mem, 51, -31
    2232 000051 B574          PSH mmap(BRS1)
         000053 98   
    2233                      .dwcfi  cfa_offset, 32
    2234                      .dwcfi  save_reg_to_mem, 52, -32
    2235 000054 B572          PSH mmap(BRC1)
         000056 98   
    2236                      .dwcfi  cfa_offset, 33
    2237                      .dwcfi  save_reg_to_mem, 53, -33
    2238 000057 B582          PSH mmap(RSA1L)
         000059 98   
    2239                      .dwcfi  cfa_offset, 34
    2240                      .dwcfi  save_reg_to_mem, 54, -34
    2241 00005a B580          PSH mmap(RSA1H)
         00005c 98   
    2242                      .dwcfi  cfa_offset, 35
    2243                      .dwcfi  save_reg_to_mem, 55, -35
    2244 00005d B586          PSH mmap(REA1L)
         00005f 98   
    2245                      .dwcfi  cfa_offset, 36
    2246                      .dwcfi  save_reg_to_mem, 56, -36
    2247 000060 B584          PSH mmap(REA1H)
         000062 98   
    2248                      .dwcfi  cfa_offset, 37
    2249                      .dwcfi  save_reg_to_mem, 57, -37
    2250 000063 B576          PSH mmap(CSR)
         000065 98   
    2251                      .dwcfi  cfa_offset, 38
    2252                      .dwcfi  save_reg_to_mem, 58, -38
    2253 000066 B588          PSH mmap(RPTC)
         000068 98   
    2254                      .dwcfi  cfa_offset, 39
    2255                      .dwcfi  save_reg_to_mem, 59, -39
    2256 000069 5075          PSHBOTH XCDP
    2257                      .dwcfi  cfa_offset, 40
    2258                      .dwcfi  save_reg_to_mem, 60, -40
    2259 00006b B51E          PSH mmap(TRN0)
         00006d 98   
    2260                      .dwcfi  cfa_offset, 41
TMS320C55x Assembler PC v4.4.1 Sat Sep 29 23:09:36 2018

Tools Copyright (c) 1996-2012 Texas Instruments Incorporated
csl_i2c_intc_example.asm                                             PAGE   54

    2261                      .dwcfi  save_reg_to_mem, 62, -41
    2262 00006e B570          PSH mmap(TRN1)
         000070 98   
    2263                      .dwcfi  cfa_offset, 42
    2264                      .dwcfi  save_reg_to_mem, 63, -42
    2265 000071 B564          PSH mmap(BSA01)
         000073 98   
    2266                      .dwcfi  cfa_offset, 43
    2267                      .dwcfi  save_reg_to_mem, 64, -43
    2268 000074 B566          PSH mmap(BSA23)
         000076 98   
    2269                      .dwcfi  cfa_offset, 44
    2270                      .dwcfi  save_reg_to_mem, 65, -44
    2271 000077 B568          PSH mmap(BSA45)
         000079 98   
    2272                      .dwcfi  cfa_offset, 45
    2273                      .dwcfi  save_reg_to_mem, 66, -45
    2274 00007a B56A          PSH mmap(BSA67)
         00007c 98   
    2275                      .dwcfi  cfa_offset, 46
    2276                      .dwcfi  save_reg_to_mem, 67, -46
    2277 00007d B56C          PSH mmap(BSAC)
         00007f 98   
    2278                      .dwcfi  cfa_offset, 47
    2279                      .dwcfi  save_reg_to_mem, 68, -47
    2280 000080 EC00          AMAR *SP(#0), XAR1
         000082 9E   
    2281 000083 F49A          AND #0xfffe, mmap(SP)
         000085 FFFE 
         000087 98   
    2282 000088 5096          PSH AR1
    2283 00008a 4EFF          AADD #-1, SP
    2284                      .dwcfi  cfa_offset, 47
    2285              $C$DW$152       .dwtag  DW_TAG_variable, DW_AT_name("eventId")
    2286                      .dwattr $C$DW$152, DW_AT_TI_symbol_name("_eventId")
    2287                      .dwattr $C$DW$152, DW_AT_type(*$C$DW$T$19)
    2288                      .dwattr $C$DW$152, DW_AT_location[DW_OP_bregx 0x24 0]
    2289                      .dwpsn  file "../c5535_bsl_revc/ezdsp5535_v1/c55xx_csl/ccs_v4.0_examples/i2c/CSL_I2C_IntcExample/csl_
    2290 00008c 4617          BSET ST3_SMUL
    2291 00008e 4656          BCLR ST3_SATA
    2292              $C$DW$153       .dwtag  DW_TAG_TI_branch
    2293                      .dwattr $C$DW$153, DW_AT_low_pc(0x00)
    2294                      .dwattr $C$DW$153, DW_AT_name("_I2C_getEventId")
    2295                      .dwattr $C$DW$153, DW_AT_TI_call
    2296 000090 6C00          CALL #_I2C_getEventId ; |651| 
         000092 0000!
    2297                                                      ; call occurs [#_I2C_getEventId] ; |651| 
    2298 000094 C400          MOV T0, *SP(#0) ; |651| 
    2299                      .dwpsn  file "../c5535_bsl_revc/ezdsp5535_v1/c55xx_csl/ccs_v4.0_examples/i2c/CSL_I2C_IntcExample/csl_
    2300 000096 2249          MOV T0, AR1
    2301 000098 0409          BCC $C$L52,AR1 == #0 ; |653| 
         00009a 12   
    2302                                                      ; branchcc occurs ; |653| 
    2303                      .dwpsn  file "../c5535_bsl_revc/ezdsp5535_v1/c55xx_csl/ccs_v4.0_examples/i2c/CSL_I2C_IntcExample/csl_
    2304 00009b ED31          MOV dbl(*(#_i2cHandle)), XAR3
TMS320C55x Assembler PC v4.4.1 Sat Sep 29 23:09:36 2018

Tools Copyright (c) 1996-2012 Texas Instruments Incorporated
csl_i2c_intc_example.asm                                             PAGE   55

         00009d BF00 
         00009f 0000!
    2305 0000a1 4219          SUB #1, AR1 ; |655| 
    2306 0000a3 5090          SFTL AR1, #1 ; |655| 
    2307 0000a5 1490          AADD AR1, AR3 ; |655| 
         0000a7 B0   
    2308 0000a8 ED75          MOV dbl(*AR3(short(#2))), AC0 ; |655| 
         0000aa 08   
    2309              $C$DW$154       .dwtag  DW_TAG_TI_branch
    2310                      .dwattr $C$DW$154, DW_AT_low_pc(0x00)
    2311                      .dwattr $C$DW$154, DW_AT_TI_call
    2312                      .dwattr $C$DW$154, DW_AT_TI_indirect
    2313 0000ab 9200          CALL AC0  ; |655| 
    2314                                                      ; call occurs [AC0] ; |655| 
    2315                      .dwpsn  file "../c5535_bsl_revc/ezdsp5535_v1/c55xx_csl/ccs_v4.0_examples/i2c/CSL_I2C_IntcExample/csl_
    2316 0000ad       $C$L52:    
    2317 0000ad 4E01          AADD #1, SP
    2318                      .dwcfi  cfa_offset, 47
    2319 0000af BB9A          POP mmap(SP)
         0000b1 98   
    2320 0000b2 BB6C          POP mmap(BSAC)
         0000b4 98   
    2321                      .dwcfi  restore_reg, 68
    2322                      .dwcfi  cfa_offset, 46
    2323 0000b5 BB6A          POP mmap(BSA67)
         0000b7 98   
    2324                      .dwcfi  restore_reg, 67
    2325                      .dwcfi  cfa_offset, 45
    2326 0000b8 BB68          POP mmap(BSA45)
         0000ba 98   
    2327                      .dwcfi  restore_reg, 66
    2328                      .dwcfi  cfa_offset, 44
    2329 0000bb BB66          POP mmap(BSA23)
         0000bd 98   
    2330                      .dwcfi  restore_reg, 65
    2331                      .dwcfi  cfa_offset, 43
    2332 0000be BB64          POP mmap(BSA01)
         0000c0 98   
    2333                      .dwcfi  restore_reg, 64
    2334                      .dwcfi  cfa_offset, 42
    2335 0000c1 BB70          POP mmap(TRN1)
         0000c3 98   
    2336                      .dwcfi  restore_reg, 63
    2337                      .dwcfi  cfa_offset, 41
    2338 0000c4 BB1E          POP mmap(TRN0)
         0000c6 98   
    2339                      .dwcfi  restore_reg, 62
    2340                      .dwcfi  cfa_offset, 40
    2341 0000c7 5074          POPBOTH XCDP
    2342                      .dwcfi  restore_reg, 60
    2343                      .dwcfi  cfa_offset, 39
    2344 0000c9 BB88          POP mmap(RPTC)
         0000cb 98   
    2345                      .dwcfi  restore_reg, 59
    2346                      .dwcfi  cfa_offset, 38
TMS320C55x Assembler PC v4.4.1 Sat Sep 29 23:09:36 2018

Tools Copyright (c) 1996-2012 Texas Instruments Incorporated
csl_i2c_intc_example.asm                                             PAGE   56

    2347 0000cc BB76          POP mmap(CSR)
         0000ce 98   
    2348                      .dwcfi  restore_reg, 58
    2349                      .dwcfi  cfa_offset, 37
    2350 0000cf BB84          POP mmap(REA1H)
         0000d1 98   
    2351                      .dwcfi  restore_reg, 57
    2352                      .dwcfi  cfa_offset, 36
    2353 0000d2 BB86          POP mmap(REA1L)
         0000d4 98   
    2354                      .dwcfi  restore_reg, 56
    2355                      .dwcfi  cfa_offset, 35
    2356 0000d5 BB80          POP mmap(RSA1H)
         0000d7 98   
    2357                      .dwcfi  restore_reg, 55
    2358                      .dwcfi  cfa_offset, 34
    2359 0000d8 BB82          POP mmap(RSA1L)
         0000da 98   
    2360                      .dwcfi  restore_reg, 54
    2361                      .dwcfi  cfa_offset, 33
    2362 0000db BB72          POP mmap(BRC1)
         0000dd 98   
    2363                      .dwcfi  restore_reg, 53
    2364                      .dwcfi  cfa_offset, 32
    2365 0000de BB74          POP mmap(BRS1)
         0000e0 98   
    2366                      .dwcfi  restore_reg, 52
    2367                      .dwcfi  cfa_offset, 31
    2368 0000e1 BB7C          POP mmap(REA0H)
         0000e3 98   
    2369                      .dwcfi  restore_reg, 51
    2370                      .dwcfi  cfa_offset, 30
    2371 0000e4 BB7E          POP mmap(REA0L)
         0000e6 98   
    2372                      .dwcfi  restore_reg, 50
    2373                      .dwcfi  cfa_offset, 29
    2374 0000e7 BB78          POP mmap(RSA0H)
         0000e9 98   
    2375                      .dwcfi  restore_reg, 49
    2376                      .dwcfi  cfa_offset, 28
    2377 0000ea BB7A          POP mmap(RSA0L)
         0000ec 98   
    2378                      .dwcfi  restore_reg, 48
    2379                      .dwcfi  cfa_offset, 27
    2380 0000ed BB34          POP mmap(BRC0)
         0000ef 98   
    2381                      .dwcfi  restore_reg, 47
    2382                      .dwcfi  cfa_offset, 26
    2383 0000f0 BB60          POP mmap(BK47)
         0000f2 98   
    2384                      .dwcfi  restore_reg, 39
    2385                      .dwcfi  cfa_offset, 25
    2386 0000f3 BB32          POP mmap(BK03)
         0000f5 98   
    2387                      .dwcfi  restore_reg, 38
TMS320C55x Assembler PC v4.4.1 Sat Sep 29 23:09:36 2018

Tools Copyright (c) 1996-2012 Texas Instruments Incorporated
csl_i2c_intc_example.asm                                             PAGE   57

    2388                      .dwcfi  cfa_offset, 24
    2389 0000f6 BB62          POP mmap(BKC)
         0000f8 98   
    2390                      .dwcfi  restore_reg, 37
    2391                      .dwcfi  cfa_offset, 23
    2392 0000f9 50C4          POPBOTH XAR4
    2393                      .dwcfi  restore_reg, 24
    2394                      .dwcfi  cfa_offset, 22
    2395 0000fb 50B4          POPBOTH XAR3
    2396                      .dwcfi  restore_reg, 22
    2397                      .dwcfi  cfa_offset, 21
    2398 0000fd 50A4          POPBOTH XAR2
    2399                      .dwcfi  restore_reg, 20
    2400                      .dwcfi  cfa_offset, 20
    2401 0000ff 5094          POPBOTH XAR1
    2402                      .dwcfi  restore_reg, 18
    2403                      .dwcfi  cfa_offset, 19
    2404 000101 5084          POPBOTH XAR0
    2405                      .dwcfi  restore_reg, 16
    2406                      .dwcfi  cfa_offset, 18
    2407 000103 5052          POP T1
    2408                      .dwcfi  restore_reg, 13
    2409                      .dwcfi  cfa_offset, 17
    2410 000105 5042          POP T0
    2411                      .dwcfi  restore_reg, 12
    2412                      .dwcfi  cfa_offset, 16
    2413 000107 BB54          POP mmap(AC3G)
         000109 98   
    2414                      .dwcfi  restore_reg, 11
    2415                      .dwcfi  cfa_offset, 15
    2416                      .dwcfi  restore_reg, 10
    2417                      .dwcfi  cfa_offset, 14
    2418 00010a 5033          POP dbl(AC3)
    2419                      .dwcfi  restore_reg, 9
    2420                      .dwcfi  cfa_offset, 13
    2421 00010c BB4C          POP mmap(AC2G)
         00010e 98   
    2422                      .dwcfi  restore_reg, 8
    2423                      .dwcfi  cfa_offset, 12
    2424                      .dwcfi  restore_reg, 7
    2425                      .dwcfi  cfa_offset, 11
    2426 00010f 5023          POP dbl(AC2)
    2427                      .dwcfi  restore_reg, 6
    2428                      .dwcfi  cfa_offset, 10
    2429 000111 BB1A          POP mmap(AC1G)
         000113 98   
    2430                      .dwcfi  restore_reg, 5
    2431                      .dwcfi  cfa_offset, 9
    2432                      .dwcfi  restore_reg, 4
    2433                      .dwcfi  cfa_offset, 8
    2434 000114 5013          POP dbl(AC1)
    2435                      .dwcfi  restore_reg, 3
    2436                      .dwcfi  cfa_offset, 7
    2437 000116 BB14          POP mmap(AC0G)
         000118 98   
TMS320C55x Assembler PC v4.4.1 Sat Sep 29 23:09:36 2018

Tools Copyright (c) 1996-2012 Texas Instruments Incorporated
csl_i2c_intc_example.asm                                             PAGE   58

    2438                      .dwcfi  restore_reg, 2
    2439                      .dwcfi  cfa_offset, 6
    2440                      .dwcfi  restore_reg, 1
    2441                      .dwcfi  cfa_offset, 5
    2442 000119 5003          POP dbl(AC0)
    2443                      .dwcfi  restore_reg, 0
    2444                      .dwcfi  cfa_offset, 4
    2445 00011b BB08          POP mmap(ST3_55)
         00011d 98   
    2446                      .dwcfi  restore_reg, 43
    2447                      .dwcfi  cfa_offset, 3
    2448              $C$DW$155       .dwtag  DW_TAG_TI_branch
    2449                      .dwattr $C$DW$155, DW_AT_low_pc(0x00)
    2450                      .dwattr $C$DW$155, DW_AT_TI_return
    2451 00011e 4805          RETI
    2452                                                      ; return occurs
    2453                      .dwattr $C$DW$151, DW_AT_TI_end_file("../c5535_bsl_revc/ezdsp5535_v1/c55xx_csl/ccs_v4.0_examples/i2c/
    2454                      .dwattr $C$DW$151, DW_AT_TI_end_line(0x291)
    2455                      .dwattr $C$DW$151, DW_AT_TI_end_column(0x01)
    2456                      .dwendentry
    2457                      .dwendtag $C$DW$151
    2458              
    2459              ;*******************************************************************************
    2460              ;* FAR STRINGS                                                                 *
    2461              ;*******************************************************************************
    2462 000000               .sect   ".const:.string"
    2463                      .align  2
    2464 000000 0049  $C$FSL1:        .string "I2C INTERRUPT MODE TEST!",10,10,0
         000001 0032 
         000002 0043 
         000003 0020 
         000004 0049 
         000005 004E 
         000006 0054 
         000007 0045 
         000008 0052 
         000009 0052 
         00000a 0055 
         00000b 0050 
         00000c 0054 
         00000d 0020 
         00000e 004D 
         00000f 004F 
         000010 0044 
         000011 0045 
         000012 0020 
         000013 0054 
         000014 0045 
         000015 0053 
         000016 0054 
         000017 0021 
         000018 000A 
         000019 000A 
         00001a 0000 
    2465                      .align  2
TMS320C55x Assembler PC v4.4.1 Sat Sep 29 23:09:36 2018

Tools Copyright (c) 1996-2012 Texas Instruments Incorporated
csl_i2c_intc_example.asm                                             PAGE   59

    2466 00001c 000A  $C$FSL2:        .string 10,"I2C INTERRUPT MODE TEST PASSED!!",10,0
         00001d 0049 
         00001e 0032 
         00001f 0043 
         000020 0020 
         000021 0049 
         000022 004E 
         000023 0054 
         000024 0045 
         000025 0052 
         000026 0052 
         000027 0055 
         000028 0050 
         000029 0054 
         00002a 0020 
         00002b 004D 
         00002c 004F 
         00002d 0044 
         00002e 0045 
         00002f 0020 
         000030 0054 
         000031 0045 
         000032 0053 
         000033 0054 
         000034 0020 
         000035 0050 
         000036 0041 
         000037 0053 
         000038 0053 
         000039 0045 
         00003a 0044 
         00003b 0021 
         00003c 0021 
         00003d 000A 
         00003e 0000 
    2467                      .align  2
    2468 000040 000A  $C$FSL3:        .string 10,"I2C INTERRUPT MODE TEST FAILED!!",10,0
         000041 0049 
         000042 0032 
         000043 0043 
         000044 0020 
         000045 0049 
         000046 004E 
         000047 0054 
         000048 0045 
         000049 0052 
         00004a 0052 
         00004b 0055 
         00004c 0050 
         00004d 0054 
         00004e 0020 
         00004f 004D 
         000050 004F 
         000051 0044 
         000052 0045 
TMS320C55x Assembler PC v4.4.1 Sat Sep 29 23:09:36 2018

Tools Copyright (c) 1996-2012 Texas Instruments Incorporated
csl_i2c_intc_example.asm                                             PAGE   60

         000053 0020 
         000054 0054 
         000055 0045 
         000056 0053 
         000057 0054 
         000058 0020 
         000059 0046 
         00005a 0041 
         00005b 0049 
         00005c 004C 
         00005d 0045 
         00005e 0044 
         00005f 0021 
         000060 0021 
         000061 000A 
         000062 0000 
    2469                      .align  2
    2470 000064 0049  $C$FSL4:        .string "I2C Init Failed!!",10,0
         000065 0032 
         000066 0043 
         000067 0020 
         000068 0049 
         000069 006E 
         00006a 0069 
         00006b 0074 
         00006c 0020 
         00006d 0046 
         00006e 0061 
         00006f 0069 
         000070 006C 
         000071 0065 
         000072 0064 
         000073 0021 
         000074 0021 
         000075 000A 
         000076 0000 
    2471                      .align  2
    2472 000078 0049  $C$FSL5:        .string "I2C Set callback Failed!!",10,0
         000079 0032 
         00007a 0043 
         00007b 0020 
         00007c 0053 
         00007d 0065 
         00007e 0074 
         00007f 0020 
         000080 0063 
         000081 0061 
         000082 006C 
         000083 006C 
         000084 0062 
         000085 0061 
         000086 0063 
         000087 006B 
         000088 0020 
         000089 0046 
TMS320C55x Assembler PC v4.4.1 Sat Sep 29 23:09:36 2018

Tools Copyright (c) 1996-2012 Texas Instruments Incorporated
csl_i2c_intc_example.asm                                             PAGE   61

         00008a 0061 
         00008b 0069 
         00008c 006C 
         00008d 0065 
         00008e 0064 
         00008f 0021 
         000090 0021 
         000091 000A 
         000092 0000 
    2473                      .align  2
    2474 000094 0049  $C$FSL6:        .string "I2C Config Failed!!",10,0
         000095 0032 
         000096 0043 
         000097 0020 
         000098 0043 
         000099 006F 
         00009a 006E 
         00009b 0066 
         00009c 0069 
         00009d 0067 
         00009e 0020 
         00009f 0046 
         0000a0 0061 
         0000a1 0069 
         0000a2 006C 
         0000a3 0065 
         0000a4 0064 
         0000a5 0021 
         0000a6 0021 
         0000a7 000A 
         0000a8 0000 
    2475                      .align  2
    2476 0000aa 0049  $C$FSL7:        .string "I2C  Get Config Failed!!",10,0
         0000ab 0032 
         0000ac 0043 
         0000ad 0020 
         0000ae 0020 
         0000af 0047 
         0000b0 0065 
         0000b1 0074 
         0000b2 0020 
         0000b3 0043 
         0000b4 006F 
         0000b5 006E 
         0000b6 0066 
         0000b7 0069 
         0000b8 0067 
         0000b9 0020 
         0000ba 0046 
         0000bb 0061 
         0000bc 0069 
         0000bd 006C 
         0000be 0065 
         0000bf 0064 
         0000c0 0021 
TMS320C55x Assembler PC v4.4.1 Sat Sep 29 23:09:36 2018

Tools Copyright (c) 1996-2012 Texas Instruments Incorporated
csl_i2c_intc_example.asm                                             PAGE   62

         0000c1 0021 
         0000c2 000A 
         0000c3 0000 
    2477                      .align  2
    2478 0000c4 0049  $C$FSL8:        .string "I2C get config not matching with config values!!",10,0
         0000c5 0032 
         0000c6 0043 
         0000c7 0020 
         0000c8 0067 
         0000c9 0065 
         0000ca 0074 
         0000cb 0020 
         0000cc 0063 
         0000cd 006F 
         0000ce 006E 
         0000cf 0066 
         0000d0 0069 
         0000d1 0067 
         0000d2 0020 
         0000d3 006E 
         0000d4 006F 
         0000d5 0074 
         0000d6 0020 
         0000d7 006D 
         0000d8 0061 
         0000d9 0074 
         0000da 0063 
         0000db 0068 
         0000dc 0069 
         0000dd 006E 
         0000de 0067 
         0000df 0020 
         0000e0 0077 
         0000e1 0069 
         0000e2 0074 
         0000e3 0068 
         0000e4 0020 
         0000e5 0063 
         0000e6 006F 
         0000e7 006E 
         0000e8 0066 
         0000e9 0069 
         0000ea 0067 
         0000eb 0020 
         0000ec 0076 
         0000ed 0061 
         0000ee 006C 
         0000ef 0075 
         0000f0 0065 
         0000f1 0073 
         0000f2 0021 
         0000f3 0021 
         0000f4 000A 
         0000f5 0000 
    2479                      .align  2
TMS320C55x Assembler PC v4.4.1 Sat Sep 29 23:09:36 2018

Tools Copyright (c) 1996-2012 Texas Instruments Incorporated
csl_i2c_intc_example.asm                                             PAGE   63

    2480 0000f6 0049  $C$FSL9:        .string "I2C Event enable Failed!!",10,0
         0000f7 0032 
         0000f8 0043 
         0000f9 0020 
         0000fa 0045 
         0000fb 0076 
         0000fc 0065 
         0000fd 006E 
         0000fe 0074 
         0000ff 0020 
         000100 0065 
         000101 006E 
         000102 0061 
         000103 0062 
         000104 006C 
         000105 0065 
         000106 0020 
         000107 0046 
         000108 0061 
         000109 0069 
         00010a 006C 
         00010b 0065 
         00010c 0064 
         00010d 0021 
         00010e 0021 
         00010f 000A 
         000110 0000 
    2481                      .align  2
    2482 000112 0049  $C$FSL10:       .string "I2C NACK ERROR during TX",10,0
         000113 0032 
         000114 0043 
         000115 0020 
         000116 004E 
         000117 0041 
         000118 0043 
         000119 004B 
         00011a 0020 
         00011b 0045 
         00011c 0052 
         00011d 0052 
         00011e 004F 
         00011f 0052 
         000120 0020 
         000121 0064 
         000122 0075 
         000123 0072 
         000124 0069 
         000125 006E 
         000126 0067 
         000127 0020 
         000128 0054 
         000129 0058 
         00012a 000A 
         00012b 0000 
    2483                      .align  2
TMS320C55x Assembler PC v4.4.1 Sat Sep 29 23:09:36 2018

Tools Copyright (c) 1996-2012 Texas Instruments Incorporated
csl_i2c_intc_example.asm                                             PAGE   64

    2484 00012c 0049  $C$FSL11:       .string "I2C Event disable Failed!!",10,0
         00012d 0032 
         00012e 0043 
         00012f 0020 
         000130 0045 
         000131 0076 
         000132 0065 
         000133 006E 
         000134 0074 
         000135 0020 
         000136 0064 
         000137 0069 
         000138 0073 
         000139 0061 
         00013a 0062 
         00013b 006C 
         00013c 0065 
         00013d 0020 
         00013e 0046 
         00013f 0061 
         000140 0069 
         000141 006C 
         000142 0065 
         000143 0064 
         000144 0021 
         000145 0021 
         000146 000A 
         000147 0000 
    2485                      .align  2
    2486 000148 0049  $C$FSL12:       .string "I2C Write compltete",10,0
         000149 0032 
         00014a 0043 
         00014b 0020 
         00014c 0057 
         00014d 0072 
         00014e 0069 
         00014f 0074 
         000150 0065 
         000151 0020 
         000152 0063 
         000153 006F 
         000154 006D 
         000155 0070 
         000156 006C 
         000157 0074 
         000158 0065 
         000159 0074 
         00015a 0065 
         00015b 000A 
         00015c 0000 
    2487                      .align  2
    2488 00015e 0049  $C$FSL13:       .string "I2C Read compltete",10,0
         00015f 0032 
         000160 0043 
         000161 0020 
TMS320C55x Assembler PC v4.4.1 Sat Sep 29 23:09:36 2018

Tools Copyright (c) 1996-2012 Texas Instruments Incorporated
csl_i2c_intc_example.asm                                             PAGE   65

         000162 0052 
         000163 0065 
         000164 0061 
         000165 0064 
         000166 0020 
         000167 0063 
         000168 006F 
         000169 006D 
         00016a 0070 
         00016b 006C 
         00016c 0074 
         00016d 0065 
         00016e 0074 
         00016f 0065 
         000170 000A 
         000171 0000 
    2489                      .align  2
    2490 000172 0052  $C$FSL14:       .string "Read Write Buffers Does not Match!!",10,0
         000173 0065 
         000174 0061 
         000175 0064 
         000176 0020 
         000177 0057 
         000178 0072 
         000179 0069 
         00017a 0074 
         00017b 0065 
         00017c 0020 
         00017d 0042 
         00017e 0075 
         00017f 0066 
         000180 0066 
         000181 0065 
         000182 0072 
         000183 0073 
         000184 0020 
         000185 0044 
         000186 006F 
         000187 0065 
         000188 0073 
         000189 0020 
         00018a 006E 
         00018b 006F 
         00018c 0074 
         00018d 0020 
         00018e 004D 
         00018f 0061 
         000190 0074 
         000191 0063 
         000192 0068 
         000193 0021 
         000194 0021 
         000195 000A 
         000196 0000 
    2491                      .align  2
TMS320C55x Assembler PC v4.4.1 Sat Sep 29 23:09:36 2018

Tools Copyright (c) 1996-2012 Texas Instruments Incorporated
csl_i2c_intc_example.asm                                             PAGE   66

    2492 000198 0052  $C$FSL15:       .string "Read Write Buffers Match!!",10,0
         000199 0065 
         00019a 0061 
         00019b 0064 
         00019c 0020 
         00019d 0057 
         00019e 0072 
         00019f 0069 
         0001a0 0074 
         0001a1 0065 
         0001a2 0020 
         0001a3 0042 
         0001a4 0075 
         0001a5 0066 
         0001a6 0066 
         0001a7 0065 
         0001a8 0072 
         0001a9 0073 
         0001aa 0020 
         0001ab 004D 
         0001ac 0061 
         0001ad 0074 
         0001ae 0063 
         0001af 0068 
         0001b0 0021 
         0001b1 0021 
         0001b2 000A 
         0001b3 0000 
    2493              ;******************************************************************************
    2494              ;* UNDEFINED EXTERNAL REFERENCES                                              *
    2495              ;******************************************************************************
    2496                      .global _printf
    2497                      .global _I2C_init
    2498                      .global _I2C_config
    2499                      .global _I2C_getConfig
    2500                      .global _I2C_eventEnable
    2501                      .global _I2C_eventDisable
    2502                      .global _I2C_setCallback
    2503                      .global _I2C_getEventId
    2504                      .global _IRQ_plug
    2505                      .global _IRQ_clearAll
    2506                      .global _IRQ_disableAll
    2507                      .global _IRQ_enable
    2508                      .global _IRQ_setVecs
    2509                      .global _IRQ_globalDisable
    2510                      .global _IRQ_globalEnable
    2511                      .global _VECSTART
    2512                      .global _i2cHandle
    2513              
    2514              ;*******************************************************************************
    2515              ;* TYPE INFORMATION                                                            *
    2516              ;*******************************************************************************
    2517              
    2518              $C$DW$T$22      .dwtag  DW_TAG_structure_type
    2519                      .dwattr $C$DW$T$22, DW_AT_byte_size(0x39)
TMS320C55x Assembler PC v4.4.1 Sat Sep 29 23:09:36 2018

Tools Copyright (c) 1996-2012 Texas Instruments Incorporated
csl_i2c_intc_example.asm                                             PAGE   67

    2520              $C$DW$156       .dwtag  DW_TAG_member
    2521                      .dwattr $C$DW$156, DW_AT_type(*$C$DW$T$20)
    2522                      .dwattr $C$DW$156, DW_AT_name("ICOAR")
    2523                      .dwattr $C$DW$156, DW_AT_TI_symbol_name("_ICOAR")
    2524                      .dwattr $C$DW$156, DW_AT_data_member_location[DW_OP_plus_uconst 0x0]
    2525                      .dwattr $C$DW$156, DW_AT_accessibility(DW_ACCESS_public)
    2526              $C$DW$157       .dwtag  DW_TAG_member
    2527                      .dwattr $C$DW$157, DW_AT_type(*$C$DW$T$21)
    2528                      .dwattr $C$DW$157, DW_AT_name("RSVD0")
    2529                      .dwattr $C$DW$157, DW_AT_TI_symbol_name("_RSVD0")
    2530                      .dwattr $C$DW$157, DW_AT_data_member_location[DW_OP_plus_uconst 0x1]
    2531                      .dwattr $C$DW$157, DW_AT_accessibility(DW_ACCESS_public)
    2532              $C$DW$158       .dwtag  DW_TAG_member
    2533                      .dwattr $C$DW$158, DW_AT_type(*$C$DW$T$20)
    2534                      .dwattr $C$DW$158, DW_AT_name("ICIMR")
    2535                      .dwattr $C$DW$158, DW_AT_TI_symbol_name("_ICIMR")
    2536                      .dwattr $C$DW$158, DW_AT_data_member_location[DW_OP_plus_uconst 0x4]
    2537                      .dwattr $C$DW$158, DW_AT_accessibility(DW_ACCESS_public)
    2538              $C$DW$159       .dwtag  DW_TAG_member
    2539                      .dwattr $C$DW$159, DW_AT_type(*$C$DW$T$21)
    2540                      .dwattr $C$DW$159, DW_AT_name("RSVD1")
    2541                      .dwattr $C$DW$159, DW_AT_TI_symbol_name("_RSVD1")
    2542                      .dwattr $C$DW$159, DW_AT_data_member_location[DW_OP_plus_uconst 0x5]
    2543                      .dwattr $C$DW$159, DW_AT_accessibility(DW_ACCESS_public)
    2544              $C$DW$160       .dwtag  DW_TAG_member
    2545                      .dwattr $C$DW$160, DW_AT_type(*$C$DW$T$20)
    2546                      .dwattr $C$DW$160, DW_AT_name("ICSTR")
    2547                      .dwattr $C$DW$160, DW_AT_TI_symbol_name("_ICSTR")
    2548                      .dwattr $C$DW$160, DW_AT_data_member_location[DW_OP_plus_uconst 0x8]
    2549                      .dwattr $C$DW$160, DW_AT_accessibility(DW_ACCESS_public)
    2550              $C$DW$161       .dwtag  DW_TAG_member
    2551                      .dwattr $C$DW$161, DW_AT_type(*$C$DW$T$21)
    2552                      .dwattr $C$DW$161, DW_AT_name("RSVD2")
    2553                      .dwattr $C$DW$161, DW_AT_TI_symbol_name("_RSVD2")
    2554                      .dwattr $C$DW$161, DW_AT_data_member_location[DW_OP_plus_uconst 0x9]
    2555                      .dwattr $C$DW$161, DW_AT_accessibility(DW_ACCESS_public)
    2556              $C$DW$162       .dwtag  DW_TAG_member
    2557                      .dwattr $C$DW$162, DW_AT_type(*$C$DW$T$20)
    2558                      .dwattr $C$DW$162, DW_AT_name("ICCLKL")
    2559                      .dwattr $C$DW$162, DW_AT_TI_symbol_name("_ICCLKL")
    2560                      .dwattr $C$DW$162, DW_AT_data_member_location[DW_OP_plus_uconst 0xc]
    2561                      .dwattr $C$DW$162, DW_AT_accessibility(DW_ACCESS_public)
    2562              $C$DW$163       .dwtag  DW_TAG_member
    2563                      .dwattr $C$DW$163, DW_AT_type(*$C$DW$T$21)
    2564                      .dwattr $C$DW$163, DW_AT_name("RSVD3")
    2565                      .dwattr $C$DW$163, DW_AT_TI_symbol_name("_RSVD3")
    2566                      .dwattr $C$DW$163, DW_AT_data_member_location[DW_OP_plus_uconst 0xd]
    2567                      .dwattr $C$DW$163, DW_AT_accessibility(DW_ACCESS_public)
    2568              $C$DW$164       .dwtag  DW_TAG_member
    2569                      .dwattr $C$DW$164, DW_AT_type(*$C$DW$T$20)
    2570                      .dwattr $C$DW$164, DW_AT_name("ICCLKH")
    2571                      .dwattr $C$DW$164, DW_AT_TI_symbol_name("_ICCLKH")
    2572                      .dwattr $C$DW$164, DW_AT_data_member_location[DW_OP_plus_uconst 0x10]
    2573                      .dwattr $C$DW$164, DW_AT_accessibility(DW_ACCESS_public)
    2574              $C$DW$165       .dwtag  DW_TAG_member
TMS320C55x Assembler PC v4.4.1 Sat Sep 29 23:09:36 2018

Tools Copyright (c) 1996-2012 Texas Instruments Incorporated
csl_i2c_intc_example.asm                                             PAGE   68

    2575                      .dwattr $C$DW$165, DW_AT_type(*$C$DW$T$21)
    2576                      .dwattr $C$DW$165, DW_AT_name("RSVD4")
    2577                      .dwattr $C$DW$165, DW_AT_TI_symbol_name("_RSVD4")
    2578                      .dwattr $C$DW$165, DW_AT_data_member_location[DW_OP_plus_uconst 0x11]
    2579                      .dwattr $C$DW$165, DW_AT_accessibility(DW_ACCESS_public)
    2580              $C$DW$166       .dwtag  DW_TAG_member
    2581                      .dwattr $C$DW$166, DW_AT_type(*$C$DW$T$20)
    2582                      .dwattr $C$DW$166, DW_AT_name("ICCNT")
    2583                      .dwattr $C$DW$166, DW_AT_TI_symbol_name("_ICCNT")
    2584                      .dwattr $C$DW$166, DW_AT_data_member_location[DW_OP_plus_uconst 0x14]
    2585                      .dwattr $C$DW$166, DW_AT_accessibility(DW_ACCESS_public)
    2586              $C$DW$167       .dwtag  DW_TAG_member
    2587                      .dwattr $C$DW$167, DW_AT_type(*$C$DW$T$21)
    2588                      .dwattr $C$DW$167, DW_AT_name("RSVD5")
    2589                      .dwattr $C$DW$167, DW_AT_TI_symbol_name("_RSVD5")
    2590                      .dwattr $C$DW$167, DW_AT_data_member_location[DW_OP_plus_uconst 0x15]
    2591                      .dwattr $C$DW$167, DW_AT_accessibility(DW_ACCESS_public)
    2592              $C$DW$168       .dwtag  DW_TAG_member
    2593                      .dwattr $C$DW$168, DW_AT_type(*$C$DW$T$20)
    2594                      .dwattr $C$DW$168, DW_AT_name("ICDRR")
    2595                      .dwattr $C$DW$168, DW_AT_TI_symbol_name("_ICDRR")
    2596                      .dwattr $C$DW$168, DW_AT_data_member_location[DW_OP_plus_uconst 0x18]
    2597                      .dwattr $C$DW$168, DW_AT_accessibility(DW_ACCESS_public)
    2598              $C$DW$169       .dwtag  DW_TAG_member
    2599                      .dwattr $C$DW$169, DW_AT_type(*$C$DW$T$21)
    2600                      .dwattr $C$DW$169, DW_AT_name("RSVD6")
    2601                      .dwattr $C$DW$169, DW_AT_TI_symbol_name("_RSVD6")
    2602                      .dwattr $C$DW$169, DW_AT_data_member_location[DW_OP_plus_uconst 0x19]
    2603                      .dwattr $C$DW$169, DW_AT_accessibility(DW_ACCESS_public)
    2604              $C$DW$170       .dwtag  DW_TAG_member
    2605                      .dwattr $C$DW$170, DW_AT_type(*$C$DW$T$20)
    2606                      .dwattr $C$DW$170, DW_AT_name("ICSAR")
    2607                      .dwattr $C$DW$170, DW_AT_TI_symbol_name("_ICSAR")
    2608                      .dwattr $C$DW$170, DW_AT_data_member_location[DW_OP_plus_uconst 0x1c]
    2609                      .dwattr $C$DW$170, DW_AT_accessibility(DW_ACCESS_public)
    2610              $C$DW$171       .dwtag  DW_TAG_member
    2611                      .dwattr $C$DW$171, DW_AT_type(*$C$DW$T$21)
    2612                      .dwattr $C$DW$171, DW_AT_name("RSVD7")
    2613                      .dwattr $C$DW$171, DW_AT_TI_symbol_name("_RSVD7")
    2614                      .dwattr $C$DW$171, DW_AT_data_member_location[DW_OP_plus_uconst 0x1d]
    2615                      .dwattr $C$DW$171, DW_AT_accessibility(DW_ACCESS_public)
    2616              $C$DW$172       .dwtag  DW_TAG_member
    2617                      .dwattr $C$DW$172, DW_AT_type(*$C$DW$T$20)
    2618                      .dwattr $C$DW$172, DW_AT_name("ICDXR")
    2619                      .dwattr $C$DW$172, DW_AT_TI_symbol_name("_ICDXR")
    2620                      .dwattr $C$DW$172, DW_AT_data_member_location[DW_OP_plus_uconst 0x20]
    2621                      .dwattr $C$DW$172, DW_AT_accessibility(DW_ACCESS_public)
    2622              $C$DW$173       .dwtag  DW_TAG_member
    2623                      .dwattr $C$DW$173, DW_AT_type(*$C$DW$T$21)
    2624                      .dwattr $C$DW$173, DW_AT_name("RSVD8")
    2625                      .dwattr $C$DW$173, DW_AT_TI_symbol_name("_RSVD8")
    2626                      .dwattr $C$DW$173, DW_AT_data_member_location[DW_OP_plus_uconst 0x21]
    2627                      .dwattr $C$DW$173, DW_AT_accessibility(DW_ACCESS_public)
    2628              $C$DW$174       .dwtag  DW_TAG_member
    2629                      .dwattr $C$DW$174, DW_AT_type(*$C$DW$T$20)
TMS320C55x Assembler PC v4.4.1 Sat Sep 29 23:09:36 2018

Tools Copyright (c) 1996-2012 Texas Instruments Incorporated
csl_i2c_intc_example.asm                                             PAGE   69

    2630                      .dwattr $C$DW$174, DW_AT_name("ICMDR")
    2631                      .dwattr $C$DW$174, DW_AT_TI_symbol_name("_ICMDR")
    2632                      .dwattr $C$DW$174, DW_AT_data_member_location[DW_OP_plus_uconst 0x24]
    2633                      .dwattr $C$DW$174, DW_AT_accessibility(DW_ACCESS_public)
    2634              $C$DW$175       .dwtag  DW_TAG_member
    2635                      .dwattr $C$DW$175, DW_AT_type(*$C$DW$T$21)
    2636                      .dwattr $C$DW$175, DW_AT_name("RSVD9")
    2637                      .dwattr $C$DW$175, DW_AT_TI_symbol_name("_RSVD9")
    2638                      .dwattr $C$DW$175, DW_AT_data_member_location[DW_OP_plus_uconst 0x25]
    2639                      .dwattr $C$DW$175, DW_AT_accessibility(DW_ACCESS_public)
    2640              $C$DW$176       .dwtag  DW_TAG_member
    2641                      .dwattr $C$DW$176, DW_AT_type(*$C$DW$T$20)
    2642                      .dwattr $C$DW$176, DW_AT_name("ICIVR")
    2643                      .dwattr $C$DW$176, DW_AT_TI_symbol_name("_ICIVR")
    2644                      .dwattr $C$DW$176, DW_AT_data_member_location[DW_OP_plus_uconst 0x28]
    2645                      .dwattr $C$DW$176, DW_AT_accessibility(DW_ACCESS_public)
    2646              $C$DW$177       .dwtag  DW_TAG_member
    2647                      .dwattr $C$DW$177, DW_AT_type(*$C$DW$T$21)
    2648                      .dwattr $C$DW$177, DW_AT_name("RSVD10")
    2649                      .dwattr $C$DW$177, DW_AT_TI_symbol_name("_RSVD10")
    2650                      .dwattr $C$DW$177, DW_AT_data_member_location[DW_OP_plus_uconst 0x29]
    2651                      .dwattr $C$DW$177, DW_AT_accessibility(DW_ACCESS_public)
    2652              $C$DW$178       .dwtag  DW_TAG_member
    2653                      .dwattr $C$DW$178, DW_AT_type(*$C$DW$T$20)
    2654                      .dwattr $C$DW$178, DW_AT_name("ICEMDR")
    2655                      .dwattr $C$DW$178, DW_AT_TI_symbol_name("_ICEMDR")
    2656                      .dwattr $C$DW$178, DW_AT_data_member_location[DW_OP_plus_uconst 0x2c]
    2657                      .dwattr $C$DW$178, DW_AT_accessibility(DW_ACCESS_public)
    2658              $C$DW$179       .dwtag  DW_TAG_member
    2659                      .dwattr $C$DW$179, DW_AT_type(*$C$DW$T$21)
    2660                      .dwattr $C$DW$179, DW_AT_name("RSVD11")
    2661                      .dwattr $C$DW$179, DW_AT_TI_symbol_name("_RSVD11")
    2662                      .dwattr $C$DW$179, DW_AT_data_member_location[DW_OP_plus_uconst 0x2d]
    2663                      .dwattr $C$DW$179, DW_AT_accessibility(DW_ACCESS_public)
    2664              $C$DW$180       .dwtag  DW_TAG_member
    2665                      .dwattr $C$DW$180, DW_AT_type(*$C$DW$T$20)
    2666                      .dwattr $C$DW$180, DW_AT_name("ICPSC")
    2667                      .dwattr $C$DW$180, DW_AT_TI_symbol_name("_ICPSC")
    2668                      .dwattr $C$DW$180, DW_AT_data_member_location[DW_OP_plus_uconst 0x30]
    2669                      .dwattr $C$DW$180, DW_AT_accessibility(DW_ACCESS_public)
    2670              $C$DW$181       .dwtag  DW_TAG_member
    2671                      .dwattr $C$DW$181, DW_AT_type(*$C$DW$T$21)
    2672                      .dwattr $C$DW$181, DW_AT_name("RSVD12")
    2673                      .dwattr $C$DW$181, DW_AT_TI_symbol_name("_RSVD12")
    2674                      .dwattr $C$DW$181, DW_AT_data_member_location[DW_OP_plus_uconst 0x31]
    2675                      .dwattr $C$DW$181, DW_AT_accessibility(DW_ACCESS_public)
    2676              $C$DW$182       .dwtag  DW_TAG_member
    2677                      .dwattr $C$DW$182, DW_AT_type(*$C$DW$T$20)
    2678                      .dwattr $C$DW$182, DW_AT_name("ICPID1")
    2679                      .dwattr $C$DW$182, DW_AT_TI_symbol_name("_ICPID1")
    2680                      .dwattr $C$DW$182, DW_AT_data_member_location[DW_OP_plus_uconst 0x34]
    2681                      .dwattr $C$DW$182, DW_AT_accessibility(DW_ACCESS_public)
    2682              $C$DW$183       .dwtag  DW_TAG_member
    2683                      .dwattr $C$DW$183, DW_AT_type(*$C$DW$T$21)
    2684                      .dwattr $C$DW$183, DW_AT_name("RSVD13")
TMS320C55x Assembler PC v4.4.1 Sat Sep 29 23:09:36 2018

Tools Copyright (c) 1996-2012 Texas Instruments Incorporated
csl_i2c_intc_example.asm                                             PAGE   70

    2685                      .dwattr $C$DW$183, DW_AT_TI_symbol_name("_RSVD13")
    2686                      .dwattr $C$DW$183, DW_AT_data_member_location[DW_OP_plus_uconst 0x35]
    2687                      .dwattr $C$DW$183, DW_AT_accessibility(DW_ACCESS_public)
    2688              $C$DW$184       .dwtag  DW_TAG_member
    2689                      .dwattr $C$DW$184, DW_AT_type(*$C$DW$T$20)
    2690                      .dwattr $C$DW$184, DW_AT_name("ICPID2")
    2691                      .dwattr $C$DW$184, DW_AT_TI_symbol_name("_ICPID2")
    2692                      .dwattr $C$DW$184, DW_AT_data_member_location[DW_OP_plus_uconst 0x38]
    2693                      .dwattr $C$DW$184, DW_AT_accessibility(DW_ACCESS_public)
    2694                      .dwendtag $C$DW$T$22
    2695              
    2696              $C$DW$T$35      .dwtag  DW_TAG_typedef, DW_AT_name("CSL_I2cRegs")
    2697                      .dwattr $C$DW$T$35, DW_AT_type(*$C$DW$T$22)
    2698                      .dwattr $C$DW$T$35, DW_AT_language(DW_LANG_C)
    2699              $C$DW$185       .dwtag  DW_TAG_TI_far_type
    2700                      .dwattr $C$DW$185, DW_AT_type(*$C$DW$T$35)
    2701              $C$DW$186       .dwtag  DW_TAG_TI_ioport_type
    2702                      .dwattr $C$DW$186, DW_AT_type(*$C$DW$185)
    2703              $C$DW$T$36      .dwtag  DW_TAG_volatile_type
    2704                      .dwattr $C$DW$T$36, DW_AT_type(*$C$DW$186)
    2705              $C$DW$T$37      .dwtag  DW_TAG_pointer_type
    2706                      .dwattr $C$DW$T$37, DW_AT_type(*$C$DW$T$36)
    2707                      .dwattr $C$DW$T$37, DW_AT_address_class(0x10)
    2708              $C$DW$T$38      .dwtag  DW_TAG_typedef, DW_AT_name("CSL_I2cRegsOvly")
    2709                      .dwattr $C$DW$T$38, DW_AT_type(*$C$DW$T$37)
    2710                      .dwattr $C$DW$T$38, DW_AT_language(DW_LANG_C)
    2711              
    2712              $C$DW$T$26      .dwtag  DW_TAG_structure_type
    2713                      .dwattr $C$DW$T$26, DW_AT_byte_size(0x48)
    2714              $C$DW$187       .dwtag  DW_TAG_member
    2715                      .dwattr $C$DW$187, DW_AT_type(*$C$DW$T$20)
    2716                      .dwattr $C$DW$187, DW_AT_name("EBSR")
    2717                      .dwattr $C$DW$187, DW_AT_TI_symbol_name("_EBSR")
    2718                      .dwattr $C$DW$187, DW_AT_data_member_location[DW_OP_plus_uconst 0x0]
    2719                      .dwattr $C$DW$187, DW_AT_accessibility(DW_ACCESS_public)
    2720              $C$DW$188       .dwtag  DW_TAG_member
    2721                      .dwattr $C$DW$188, DW_AT_type(*$C$DW$T$20)
    2722                      .dwattr $C$DW$188, DW_AT_name("RSVD0")
    2723                      .dwattr $C$DW$188, DW_AT_TI_symbol_name("_RSVD0")
    2724                      .dwattr $C$DW$188, DW_AT_data_member_location[DW_OP_plus_uconst 0x1]
    2725                      .dwattr $C$DW$188, DW_AT_accessibility(DW_ACCESS_public)
    2726              $C$DW$189       .dwtag  DW_TAG_member
    2727                      .dwattr $C$DW$189, DW_AT_type(*$C$DW$T$20)
    2728                      .dwattr $C$DW$189, DW_AT_name("PCGCR1")
    2729                      .dwattr $C$DW$189, DW_AT_TI_symbol_name("_PCGCR1")
    2730                      .dwattr $C$DW$189, DW_AT_data_member_location[DW_OP_plus_uconst 0x2]
    2731                      .dwattr $C$DW$189, DW_AT_accessibility(DW_ACCESS_public)
    2732              $C$DW$190       .dwtag  DW_TAG_member
    2733                      .dwattr $C$DW$190, DW_AT_type(*$C$DW$T$20)
    2734                      .dwattr $C$DW$190, DW_AT_name("PCGCR2")
    2735                      .dwattr $C$DW$190, DW_AT_TI_symbol_name("_PCGCR2")
    2736                      .dwattr $C$DW$190, DW_AT_data_member_location[DW_OP_plus_uconst 0x3]
    2737                      .dwattr $C$DW$190, DW_AT_accessibility(DW_ACCESS_public)
    2738              $C$DW$191       .dwtag  DW_TAG_member
    2739                      .dwattr $C$DW$191, DW_AT_type(*$C$DW$T$20)
TMS320C55x Assembler PC v4.4.1 Sat Sep 29 23:09:36 2018

Tools Copyright (c) 1996-2012 Texas Instruments Incorporated
csl_i2c_intc_example.asm                                             PAGE   71

    2740                      .dwattr $C$DW$191, DW_AT_name("PSRCR")
    2741                      .dwattr $C$DW$191, DW_AT_TI_symbol_name("_PSRCR")
    2742                      .dwattr $C$DW$191, DW_AT_data_member_location[DW_OP_plus_uconst 0x4]
    2743                      .dwattr $C$DW$191, DW_AT_accessibility(DW_ACCESS_public)
    2744              $C$DW$192       .dwtag  DW_TAG_member
    2745                      .dwattr $C$DW$192, DW_AT_type(*$C$DW$T$20)
    2746                      .dwattr $C$DW$192, DW_AT_name("PRCR")
    2747                      .dwattr $C$DW$192, DW_AT_TI_symbol_name("_PRCR")
    2748                      .dwattr $C$DW$192, DW_AT_data_member_location[DW_OP_plus_uconst 0x5]
    2749                      .dwattr $C$DW$192, DW_AT_accessibility(DW_ACCESS_public)
    2750              $C$DW$193       .dwtag  DW_TAG_member
    2751                      .dwattr $C$DW$193, DW_AT_type(*$C$DW$T$23)
    2752                      .dwattr $C$DW$193, DW_AT_name("RSVD1")
    2753                      .dwattr $C$DW$193, DW_AT_TI_symbol_name("_RSVD1")
    2754                      .dwattr $C$DW$193, DW_AT_data_member_location[DW_OP_plus_uconst 0x6]
    2755                      .dwattr $C$DW$193, DW_AT_accessibility(DW_ACCESS_public)
    2756              $C$DW$194       .dwtag  DW_TAG_member
    2757                      .dwattr $C$DW$194, DW_AT_type(*$C$DW$T$20)
    2758                      .dwattr $C$DW$194, DW_AT_name("TIAFR")
    2759                      .dwattr $C$DW$194, DW_AT_TI_symbol_name("_TIAFR")
    2760                      .dwattr $C$DW$194, DW_AT_data_member_location[DW_OP_plus_uconst 0x14]
    2761                      .dwattr $C$DW$194, DW_AT_accessibility(DW_ACCESS_public)
    2762              $C$DW$195       .dwtag  DW_TAG_member
    2763                      .dwattr $C$DW$195, DW_AT_type(*$C$DW$T$20)
    2764                      .dwattr $C$DW$195, DW_AT_name("RSVD2")
    2765                      .dwattr $C$DW$195, DW_AT_TI_symbol_name("_RSVD2")
    2766                      .dwattr $C$DW$195, DW_AT_data_member_location[DW_OP_plus_uconst 0x15]
    2767                      .dwattr $C$DW$195, DW_AT_accessibility(DW_ACCESS_public)
    2768              $C$DW$196       .dwtag  DW_TAG_member
    2769                      .dwattr $C$DW$196, DW_AT_type(*$C$DW$T$20)
    2770                      .dwattr $C$DW$196, DW_AT_name("ODSCR")
    2771                      .dwattr $C$DW$196, DW_AT_TI_symbol_name("_ODSCR")
    2772                      .dwattr $C$DW$196, DW_AT_data_member_location[DW_OP_plus_uconst 0x16]
    2773                      .dwattr $C$DW$196, DW_AT_accessibility(DW_ACCESS_public)
    2774              $C$DW$197       .dwtag  DW_TAG_member
    2775                      .dwattr $C$DW$197, DW_AT_type(*$C$DW$T$20)
    2776                      .dwattr $C$DW$197, DW_AT_name("PDINHIBR1")
    2777                      .dwattr $C$DW$197, DW_AT_TI_symbol_name("_PDINHIBR1")
    2778                      .dwattr $C$DW$197, DW_AT_data_member_location[DW_OP_plus_uconst 0x17]
    2779                      .dwattr $C$DW$197, DW_AT_accessibility(DW_ACCESS_public)
    2780              $C$DW$198       .dwtag  DW_TAG_member
    2781                      .dwattr $C$DW$198, DW_AT_type(*$C$DW$T$20)
    2782                      .dwattr $C$DW$198, DW_AT_name("PDINHIBR2")
    2783                      .dwattr $C$DW$198, DW_AT_TI_symbol_name("_PDINHIBR2")
    2784                      .dwattr $C$DW$198, DW_AT_data_member_location[DW_OP_plus_uconst 0x18]
    2785                      .dwattr $C$DW$198, DW_AT_accessibility(DW_ACCESS_public)
    2786              $C$DW$199       .dwtag  DW_TAG_member
    2787                      .dwattr $C$DW$199, DW_AT_type(*$C$DW$T$20)
    2788                      .dwattr $C$DW$199, DW_AT_name("PDINHIBR3")
    2789                      .dwattr $C$DW$199, DW_AT_TI_symbol_name("_PDINHIBR3")
    2790                      .dwattr $C$DW$199, DW_AT_data_member_location[DW_OP_plus_uconst 0x19]
    2791                      .dwattr $C$DW$199, DW_AT_accessibility(DW_ACCESS_public)
    2792              $C$DW$200       .dwtag  DW_TAG_member
    2793                      .dwattr $C$DW$200, DW_AT_type(*$C$DW$T$20)
    2794                      .dwattr $C$DW$200, DW_AT_name("DMA0CESR1")
TMS320C55x Assembler PC v4.4.1 Sat Sep 29 23:09:36 2018

Tools Copyright (c) 1996-2012 Texas Instruments Incorporated
csl_i2c_intc_example.asm                                             PAGE   72

    2795                      .dwattr $C$DW$200, DW_AT_TI_symbol_name("_DMA0CESR1")
    2796                      .dwattr $C$DW$200, DW_AT_data_member_location[DW_OP_plus_uconst 0x1a]
    2797                      .dwattr $C$DW$200, DW_AT_accessibility(DW_ACCESS_public)
    2798              $C$DW$201       .dwtag  DW_TAG_member
    2799                      .dwattr $C$DW$201, DW_AT_type(*$C$DW$T$20)
    2800                      .dwattr $C$DW$201, DW_AT_name("DMA0CESR2")
    2801                      .dwattr $C$DW$201, DW_AT_TI_symbol_name("_DMA0CESR2")
    2802                      .dwattr $C$DW$201, DW_AT_data_member_location[DW_OP_plus_uconst 0x1b]
    2803                      .dwattr $C$DW$201, DW_AT_accessibility(DW_ACCESS_public)
    2804              $C$DW$202       .dwtag  DW_TAG_member
    2805                      .dwattr $C$DW$202, DW_AT_type(*$C$DW$T$20)
    2806                      .dwattr $C$DW$202, DW_AT_name("DMA1CESR1")
    2807                      .dwattr $C$DW$202, DW_AT_TI_symbol_name("_DMA1CESR1")
    2808                      .dwattr $C$DW$202, DW_AT_data_member_location[DW_OP_plus_uconst 0x1c]
    2809                      .dwattr $C$DW$202, DW_AT_accessibility(DW_ACCESS_public)
    2810              $C$DW$203       .dwtag  DW_TAG_member
    2811                      .dwattr $C$DW$203, DW_AT_type(*$C$DW$T$20)
    2812                      .dwattr $C$DW$203, DW_AT_name("DMA1CESR2")
    2813                      .dwattr $C$DW$203, DW_AT_TI_symbol_name("_DMA1CESR2")
    2814                      .dwattr $C$DW$203, DW_AT_data_member_location[DW_OP_plus_uconst 0x1d]
    2815                      .dwattr $C$DW$203, DW_AT_accessibility(DW_ACCESS_public)
    2816              $C$DW$204       .dwtag  DW_TAG_member
    2817                      .dwattr $C$DW$204, DW_AT_type(*$C$DW$T$20)
    2818                      .dwattr $C$DW$204, DW_AT_name("SDRAMCCR")
    2819                      .dwattr $C$DW$204, DW_AT_TI_symbol_name("_SDRAMCCR")
    2820                      .dwattr $C$DW$204, DW_AT_data_member_location[DW_OP_plus_uconst 0x1e]
    2821                      .dwattr $C$DW$204, DW_AT_accessibility(DW_ACCESS_public)
    2822              $C$DW$205       .dwtag  DW_TAG_member
    2823                      .dwattr $C$DW$205, DW_AT_type(*$C$DW$T$20)
    2824                      .dwattr $C$DW$205, DW_AT_name("CCR2")
    2825                      .dwattr $C$DW$205, DW_AT_TI_symbol_name("_CCR2")
    2826                      .dwattr $C$DW$205, DW_AT_data_member_location[DW_OP_plus_uconst 0x1f]
    2827                      .dwattr $C$DW$205, DW_AT_accessibility(DW_ACCESS_public)
    2828              $C$DW$206       .dwtag  DW_TAG_member
    2829                      .dwattr $C$DW$206, DW_AT_type(*$C$DW$T$20)
    2830                      .dwattr $C$DW$206, DW_AT_name("CGCR1")
    2831                      .dwattr $C$DW$206, DW_AT_TI_symbol_name("_CGCR1")
    2832                      .dwattr $C$DW$206, DW_AT_data_member_location[DW_OP_plus_uconst 0x20]
    2833                      .dwattr $C$DW$206, DW_AT_accessibility(DW_ACCESS_public)
    2834              $C$DW$207       .dwtag  DW_TAG_member
    2835                      .dwattr $C$DW$207, DW_AT_type(*$C$DW$T$20)
    2836                      .dwattr $C$DW$207, DW_AT_name("CGICR")
    2837                      .dwattr $C$DW$207, DW_AT_TI_symbol_name("_CGICR")
    2838                      .dwattr $C$DW$207, DW_AT_data_member_location[DW_OP_plus_uconst 0x21]
    2839                      .dwattr $C$DW$207, DW_AT_accessibility(DW_ACCESS_public)
    2840              $C$DW$208       .dwtag  DW_TAG_member
    2841                      .dwattr $C$DW$208, DW_AT_type(*$C$DW$T$20)
    2842                      .dwattr $C$DW$208, DW_AT_name("CGCR2")
    2843                      .dwattr $C$DW$208, DW_AT_TI_symbol_name("_CGCR2")
    2844                      .dwattr $C$DW$208, DW_AT_data_member_location[DW_OP_plus_uconst 0x22]
    2845                      .dwattr $C$DW$208, DW_AT_accessibility(DW_ACCESS_public)
    2846              $C$DW$209       .dwtag  DW_TAG_member
    2847                      .dwattr $C$DW$209, DW_AT_type(*$C$DW$T$20)
    2848                      .dwattr $C$DW$209, DW_AT_name("CGOCR")
    2849                      .dwattr $C$DW$209, DW_AT_TI_symbol_name("_CGOCR")
TMS320C55x Assembler PC v4.4.1 Sat Sep 29 23:09:36 2018

Tools Copyright (c) 1996-2012 Texas Instruments Incorporated
csl_i2c_intc_example.asm                                             PAGE   73

    2850                      .dwattr $C$DW$209, DW_AT_data_member_location[DW_OP_plus_uconst 0x23]
    2851                      .dwattr $C$DW$209, DW_AT_accessibility(DW_ACCESS_public)
    2852              $C$DW$210       .dwtag  DW_TAG_member
    2853                      .dwattr $C$DW$210, DW_AT_type(*$C$DW$T$20)
    2854                      .dwattr $C$DW$210, DW_AT_name("CCSSR")
    2855                      .dwattr $C$DW$210, DW_AT_TI_symbol_name("_CCSSR")
    2856                      .dwattr $C$DW$210, DW_AT_data_member_location[DW_OP_plus_uconst 0x24]
    2857                      .dwattr $C$DW$210, DW_AT_accessibility(DW_ACCESS_public)
    2858              $C$DW$211       .dwtag  DW_TAG_member
    2859                      .dwattr $C$DW$211, DW_AT_type(*$C$DW$T$20)
    2860                      .dwattr $C$DW$211, DW_AT_name("RSVD3")
    2861                      .dwattr $C$DW$211, DW_AT_TI_symbol_name("_RSVD3")
    2862                      .dwattr $C$DW$211, DW_AT_data_member_location[DW_OP_plus_uconst 0x25]
    2863                      .dwattr $C$DW$211, DW_AT_accessibility(DW_ACCESS_public)
    2864              $C$DW$212       .dwtag  DW_TAG_member
    2865                      .dwattr $C$DW$212, DW_AT_type(*$C$DW$T$20)
    2866                      .dwattr $C$DW$212, DW_AT_name("ECDR")
    2867                      .dwattr $C$DW$212, DW_AT_TI_symbol_name("_ECDR")
    2868                      .dwattr $C$DW$212, DW_AT_data_member_location[DW_OP_plus_uconst 0x26]
    2869                      .dwattr $C$DW$212, DW_AT_accessibility(DW_ACCESS_public)
    2870              $C$DW$213       .dwtag  DW_TAG_member
    2871                      .dwattr $C$DW$213, DW_AT_type(*$C$DW$T$20)
    2872                      .dwattr $C$DW$213, DW_AT_name("RSVD4")
    2873                      .dwattr $C$DW$213, DW_AT_TI_symbol_name("_RSVD4")
    2874                      .dwattr $C$DW$213, DW_AT_data_member_location[DW_OP_plus_uconst 0x27]
    2875                      .dwattr $C$DW$213, DW_AT_accessibility(DW_ACCESS_public)
    2876              $C$DW$214       .dwtag  DW_TAG_member
    2877                      .dwattr $C$DW$214, DW_AT_type(*$C$DW$T$20)
    2878                      .dwattr $C$DW$214, DW_AT_name("RAMSLPMDCNTLR1")
    2879                      .dwattr $C$DW$214, DW_AT_TI_symbol_name("_RAMSLPMDCNTLR1")
    2880                      .dwattr $C$DW$214, DW_AT_data_member_location[DW_OP_plus_uconst 0x28]
    2881                      .dwattr $C$DW$214, DW_AT_accessibility(DW_ACCESS_public)
    2882              $C$DW$215       .dwtag  DW_TAG_member
    2883                      .dwattr $C$DW$215, DW_AT_type(*$C$DW$T$20)
    2884                      .dwattr $C$DW$215, DW_AT_name("RSVD5")
    2885                      .dwattr $C$DW$215, DW_AT_TI_symbol_name("_RSVD5")
    2886                      .dwattr $C$DW$215, DW_AT_data_member_location[DW_OP_plus_uconst 0x29]
    2887                      .dwattr $C$DW$215, DW_AT_accessibility(DW_ACCESS_public)
    2888              $C$DW$216       .dwtag  DW_TAG_member
    2889                      .dwattr $C$DW$216, DW_AT_type(*$C$DW$T$20)
    2890                      .dwattr $C$DW$216, DW_AT_name("RAMSLPMDCNTLR2")
    2891                      .dwattr $C$DW$216, DW_AT_TI_symbol_name("_RAMSLPMDCNTLR2")
    2892                      .dwattr $C$DW$216, DW_AT_data_member_location[DW_OP_plus_uconst 0x2a]
    2893                      .dwattr $C$DW$216, DW_AT_accessibility(DW_ACCESS_public)
    2894              $C$DW$217       .dwtag  DW_TAG_member
    2895                      .dwattr $C$DW$217, DW_AT_type(*$C$DW$T$20)
    2896                      .dwattr $C$DW$217, DW_AT_name("RAMSLPMDCNTLR3")
    2897                      .dwattr $C$DW$217, DW_AT_TI_symbol_name("_RAMSLPMDCNTLR3")
    2898                      .dwattr $C$DW$217, DW_AT_data_member_location[DW_OP_plus_uconst 0x2b]
    2899                      .dwattr $C$DW$217, DW_AT_accessibility(DW_ACCESS_public)
    2900              $C$DW$218       .dwtag  DW_TAG_member
    2901                      .dwattr $C$DW$218, DW_AT_type(*$C$DW$T$20)
    2902                      .dwattr $C$DW$218, DW_AT_name("RAMSLPMDCNTLR4")
    2903                      .dwattr $C$DW$218, DW_AT_TI_symbol_name("_RAMSLPMDCNTLR4")
    2904                      .dwattr $C$DW$218, DW_AT_data_member_location[DW_OP_plus_uconst 0x2c]
TMS320C55x Assembler PC v4.4.1 Sat Sep 29 23:09:36 2018

Tools Copyright (c) 1996-2012 Texas Instruments Incorporated
csl_i2c_intc_example.asm                                             PAGE   74

    2905                      .dwattr $C$DW$218, DW_AT_accessibility(DW_ACCESS_public)
    2906              $C$DW$219       .dwtag  DW_TAG_member
    2907                      .dwattr $C$DW$219, DW_AT_type(*$C$DW$T$20)
    2908                      .dwattr $C$DW$219, DW_AT_name("RAMSLPMDCNTLR5")
    2909                      .dwattr $C$DW$219, DW_AT_TI_symbol_name("_RAMSLPMDCNTLR5")
    2910                      .dwattr $C$DW$219, DW_AT_data_member_location[DW_OP_plus_uconst 0x2d]
    2911                      .dwattr $C$DW$219, DW_AT_accessibility(DW_ACCESS_public)
    2912              $C$DW$220       .dwtag  DW_TAG_member
    2913                      .dwattr $C$DW$220, DW_AT_type(*$C$DW$T$24)
    2914                      .dwattr $C$DW$220, DW_AT_name("RSVD6")
    2915                      .dwattr $C$DW$220, DW_AT_TI_symbol_name("_RSVD6")
    2916                      .dwattr $C$DW$220, DW_AT_data_member_location[DW_OP_plus_uconst 0x2e]
    2917                      .dwattr $C$DW$220, DW_AT_accessibility(DW_ACCESS_public)
    2918              $C$DW$221       .dwtag  DW_TAG_member
    2919                      .dwattr $C$DW$221, DW_AT_type(*$C$DW$T$20)
    2920                      .dwattr $C$DW$221, DW_AT_name("DMAIFR")
    2921                      .dwattr $C$DW$221, DW_AT_TI_symbol_name("_DMAIFR")
    2922                      .dwattr $C$DW$221, DW_AT_data_member_location[DW_OP_plus_uconst 0x30]
    2923                      .dwattr $C$DW$221, DW_AT_accessibility(DW_ACCESS_public)
    2924              $C$DW$222       .dwtag  DW_TAG_member
    2925                      .dwattr $C$DW$222, DW_AT_type(*$C$DW$T$20)
    2926                      .dwattr $C$DW$222, DW_AT_name("DMAIER")
    2927                      .dwattr $C$DW$222, DW_AT_TI_symbol_name("_DMAIER")
    2928                      .dwattr $C$DW$222, DW_AT_data_member_location[DW_OP_plus_uconst 0x31]
    2929                      .dwattr $C$DW$222, DW_AT_accessibility(DW_ACCESS_public)
    2930              $C$DW$223       .dwtag  DW_TAG_member
    2931                      .dwattr $C$DW$223, DW_AT_type(*$C$DW$T$20)
