TMS320C55x Assembler PC v4.4.1 Sat Sep 29 23:09:00 2018

Tools Copyright (c) 1996-2012 Texas Instruments Incorporated
csl_mmcsd_dma_example.asm                                            PAGE    1

    6473              ; Temporary Registers Used: None
       1              ;*******************************************************************************
       2              ;* TMS320C55x C/C++ Codegen                                          PC v4.4.1 *
       3              ;* Date/Time created: Sat Sep 29 23:08:59 2018                                 *
       4              ;*******************************************************************************
       5                      .compiler_opts --hll_source=on --mem_model:code=flat --mem_model:data=large --object_format=coff --si
       6                      .mmregs
       7                      .cpl_on
       8                      .arms_on
       9                      .c54cm_off
      10                      .asg AR6, FP
      11                      .asg XAR6, XFP
      12                      .asg DPH, MDP
      13                      .model call=c55_std
      14                      .model mem=large
      15                      .noremark 5002  ; code respects overwrite rules
      16              ;*******************************************************************************
      17              ;* GLOBAL FILE PARAMETERS                                                      *
      18              ;*                                                                             *
      19              ;*   Architecture       : TMS320C55x                                           *
      20              ;*   Optimizing for     : Speed                                                *
      21              ;*   Memory             : Large Model (23-Bit Data Pointers)                   *
      22              ;*   Calls              : Normal Library ASM calls                             *
      23              ;*   Debug Info         : Standard TI Debug Information                        *
      24              ;*******************************************************************************
      25              
      26              $C$DW$CU        .dwtag  DW_TAG_compile_unit
      27                      .dwattr $C$DW$CU, DW_AT_name("../c5535_bsl_revc/ezdsp5535_v1/c55xx_csl/ccs_v4.0_examples/mmc_sd/CSL_M
      28                      .dwattr $C$DW$CU, DW_AT_producer("TMS320C55x C/C++ Codegen PC v4.4.1 Copyright (c) 1996-2012 Texas In
      29                      .dwattr $C$DW$CU, DW_AT_TI_version(0x01)
      30                      .dwattr $C$DW$CU, DW_AT_comp_dir("F:\eZdsp_DBG\tmp1\c55x-sim2\foo\Debug")
      31              ;******************************************************************************
      32              ;* CINIT RECORDS                                                              *
      33              ;******************************************************************************
      34 000000               .sect   ".cinit"
      35                      .align  1
      36 000000 0001          .field          1,16
      37 000001 0006-         .field          _PaSs_StAtE+0,24
         000002 B000 
      38 000002 B000          .field          0,8
      39 000003 0001          .field  1,16                    ; _PaSs_StAtE @ 0
      40              
      41 000004               .sect   ".cinit"
      42                      .align  1
      43 000004 0001          .field          1,16
      44 000005 0006-         .field          _PaSs+0,24
         000006 B100 
      45 000006 B100          .field          0,8
      46 000007 0000          .field  0,16                    ; _PaSs @ 0
      47              
      48              
      49              $C$DW$1 .dwtag  DW_TAG_subprogram, DW_AT_name("DMA_init")
      50                      .dwattr $C$DW$1, DW_AT_TI_symbol_name("_DMA_init")
      51                      .dwattr $C$DW$1, DW_AT_type(*$C$DW$T$106)
      52                      .dwattr $C$DW$1, DW_AT_declaration
TMS320C55x Assembler PC v4.4.1 Sat Sep 29 23:09:00 2018

Tools Copyright (c) 1996-2012 Texas Instruments Incorporated
csl_mmcsd_dma_example.asm                                            PAGE    2

      53                      .dwattr $C$DW$1, DW_AT_external
      54              
      55              $C$DW$2 .dwtag  DW_TAG_subprogram, DW_AT_name("DMA_open")
      56                      .dwattr $C$DW$2, DW_AT_TI_symbol_name("_DMA_open")
      57                      .dwattr $C$DW$2, DW_AT_type(*$C$DW$T$89)
      58                      .dwattr $C$DW$2, DW_AT_declaration
      59                      .dwattr $C$DW$2, DW_AT_external
      60              $C$DW$3 .dwtag  DW_TAG_formal_parameter
      61                      .dwattr $C$DW$3, DW_AT_type(*$C$DW$T$28)
      62              $C$DW$4 .dwtag  DW_TAG_formal_parameter
      63                      .dwattr $C$DW$4, DW_AT_type(*$C$DW$T$88)
      64              $C$DW$5 .dwtag  DW_TAG_formal_parameter
      65                      .dwattr $C$DW$5, DW_AT_type(*$C$DW$T$107)
      66                      .dwendtag $C$DW$2
      67              
      68              
      69              $C$DW$6 .dwtag  DW_TAG_subprogram, DW_AT_name("MMC_init")
      70                      .dwattr $C$DW$6, DW_AT_TI_symbol_name("_MMC_init")
      71                      .dwattr $C$DW$6, DW_AT_type(*$C$DW$T$106)
      72                      .dwattr $C$DW$6, DW_AT_declaration
      73                      .dwattr $C$DW$6, DW_AT_external
      74              
      75              $C$DW$7 .dwtag  DW_TAG_subprogram, DW_AT_name("MMC_open")
      76                      .dwattr $C$DW$7, DW_AT_TI_symbol_name("_MMC_open")
      77                      .dwattr $C$DW$7, DW_AT_type(*$C$DW$T$112)
      78                      .dwattr $C$DW$7, DW_AT_declaration
      79                      .dwattr $C$DW$7, DW_AT_external
      80              $C$DW$8 .dwtag  DW_TAG_formal_parameter
      81                      .dwattr $C$DW$8, DW_AT_type(*$C$DW$T$111)
      82              $C$DW$9 .dwtag  DW_TAG_formal_parameter
      83                      .dwattr $C$DW$9, DW_AT_type(*$C$DW$T$104)
      84              $C$DW$10        .dwtag  DW_TAG_formal_parameter
      85                      .dwattr $C$DW$10, DW_AT_type(*$C$DW$T$86)
      86              $C$DW$11        .dwtag  DW_TAG_formal_parameter
      87                      .dwattr $C$DW$11, DW_AT_type(*$C$DW$T$107)
      88                      .dwendtag $C$DW$7
      89              
      90              
      91              $C$DW$12        .dwtag  DW_TAG_subprogram, DW_AT_name("MMC_close")
      92                      .dwattr $C$DW$12, DW_AT_TI_symbol_name("_MMC_close")
      93                      .dwattr $C$DW$12, DW_AT_type(*$C$DW$T$106)
      94                      .dwattr $C$DW$12, DW_AT_declaration
      95                      .dwattr $C$DW$12, DW_AT_external
      96              $C$DW$13        .dwtag  DW_TAG_formal_parameter
      97                      .dwattr $C$DW$13, DW_AT_type(*$C$DW$T$112)
      98                      .dwendtag $C$DW$12
      99              
     100              
     101              $C$DW$14        .dwtag  DW_TAG_subprogram, DW_AT_name("MMC_setCardType")
     102                      .dwattr $C$DW$14, DW_AT_TI_symbol_name("_MMC_setCardType")
     103                      .dwattr $C$DW$14, DW_AT_type(*$C$DW$T$106)
     104                      .dwattr $C$DW$14, DW_AT_declaration
     105                      .dwattr $C$DW$14, DW_AT_external
     106              $C$DW$15        .dwtag  DW_TAG_formal_parameter
     107                      .dwattr $C$DW$15, DW_AT_type(*$C$DW$T$82)
TMS320C55x Assembler PC v4.4.1 Sat Sep 29 23:09:00 2018

Tools Copyright (c) 1996-2012 Texas Instruments Incorporated
csl_mmcsd_dma_example.asm                                            PAGE    3

     108              $C$DW$16        .dwtag  DW_TAG_formal_parameter
     109                      .dwattr $C$DW$16, DW_AT_type(*$C$DW$T$53)
     110                      .dwendtag $C$DW$14
     111              
     112              
     113              $C$DW$17        .dwtag  DW_TAG_subprogram, DW_AT_name("MMC_setCardPtr")
     114                      .dwattr $C$DW$17, DW_AT_TI_symbol_name("_MMC_setCardPtr")
     115                      .dwattr $C$DW$17, DW_AT_type(*$C$DW$T$106)
     116                      .dwattr $C$DW$17, DW_AT_declaration
     117                      .dwattr $C$DW$17, DW_AT_external
     118              $C$DW$18        .dwtag  DW_TAG_formal_parameter
     119                      .dwattr $C$DW$18, DW_AT_type(*$C$DW$T$112)
     120              $C$DW$19        .dwtag  DW_TAG_formal_parameter
     121                      .dwattr $C$DW$19, DW_AT_type(*$C$DW$T$82)
     122                      .dwendtag $C$DW$17
     123              
     124              
     125              $C$DW$20        .dwtag  DW_TAG_subprogram, DW_AT_name("MMC_getNumberOfCards")
     126                      .dwattr $C$DW$20, DW_AT_TI_symbol_name("_MMC_getNumberOfCards")
     127                      .dwattr $C$DW$20, DW_AT_type(*$C$DW$T$106)
     128                      .dwattr $C$DW$20, DW_AT_declaration
     129                      .dwattr $C$DW$20, DW_AT_external
     130              $C$DW$21        .dwtag  DW_TAG_formal_parameter
     131                      .dwattr $C$DW$21, DW_AT_type(*$C$DW$T$112)
     132              $C$DW$22        .dwtag  DW_TAG_formal_parameter
     133                      .dwattr $C$DW$22, DW_AT_type(*$C$DW$T$130)
     134                      .dwendtag $C$DW$20
     135              
     136              
     137              $C$DW$23        .dwtag  DW_TAG_subprogram, DW_AT_name("MMC_intEnable")
     138                      .dwattr $C$DW$23, DW_AT_TI_symbol_name("_MMC_intEnable")
     139                      .dwattr $C$DW$23, DW_AT_type(*$C$DW$T$106)
     140                      .dwattr $C$DW$23, DW_AT_declaration
     141                      .dwattr $C$DW$23, DW_AT_external
     142              $C$DW$24        .dwtag  DW_TAG_formal_parameter
     143                      .dwattr $C$DW$24, DW_AT_type(*$C$DW$T$112)
     144              $C$DW$25        .dwtag  DW_TAG_formal_parameter
     145                      .dwattr $C$DW$25, DW_AT_type(*$C$DW$T$19)
     146                      .dwendtag $C$DW$23
     147              
     148              
     149              $C$DW$26        .dwtag  DW_TAG_subprogram, DW_AT_name("MMC_sendGoIdle")
     150                      .dwattr $C$DW$26, DW_AT_TI_symbol_name("_MMC_sendGoIdle")
     151                      .dwattr $C$DW$26, DW_AT_type(*$C$DW$T$106)
     152                      .dwattr $C$DW$26, DW_AT_declaration
     153                      .dwattr $C$DW$26, DW_AT_external
     154              $C$DW$27        .dwtag  DW_TAG_formal_parameter
     155                      .dwattr $C$DW$27, DW_AT_type(*$C$DW$T$112)
     156                      .dwendtag $C$DW$26
     157              
     158              
     159              $C$DW$28        .dwtag  DW_TAG_subprogram, DW_AT_name("MMC_selectCard")
     160                      .dwattr $C$DW$28, DW_AT_TI_symbol_name("_MMC_selectCard")
     161                      .dwattr $C$DW$28, DW_AT_type(*$C$DW$T$106)
     162                      .dwattr $C$DW$28, DW_AT_declaration
TMS320C55x Assembler PC v4.4.1 Sat Sep 29 23:09:00 2018

Tools Copyright (c) 1996-2012 Texas Instruments Incorporated
csl_mmcsd_dma_example.asm                                            PAGE    4

     163                      .dwattr $C$DW$28, DW_AT_external
     164              $C$DW$29        .dwtag  DW_TAG_formal_parameter
     165                      .dwattr $C$DW$29, DW_AT_type(*$C$DW$T$112)
     166              $C$DW$30        .dwtag  DW_TAG_formal_parameter
     167                      .dwattr $C$DW$30, DW_AT_type(*$C$DW$T$82)
     168                      .dwendtag $C$DW$28
     169              
     170              
     171              $C$DW$31        .dwtag  DW_TAG_subprogram, DW_AT_name("MMC_sendOpCond")
     172                      .dwattr $C$DW$31, DW_AT_TI_symbol_name("_MMC_sendOpCond")
     173                      .dwattr $C$DW$31, DW_AT_type(*$C$DW$T$106)
     174                      .dwattr $C$DW$31, DW_AT_declaration
     175                      .dwattr $C$DW$31, DW_AT_external
     176              $C$DW$32        .dwtag  DW_TAG_formal_parameter
     177                      .dwattr $C$DW$32, DW_AT_type(*$C$DW$T$112)
     178              $C$DW$33        .dwtag  DW_TAG_formal_parameter
     179                      .dwattr $C$DW$33, DW_AT_type(*$C$DW$T$19)
     180                      .dwendtag $C$DW$31
     181              
     182              
     183              $C$DW$34        .dwtag  DW_TAG_subprogram, DW_AT_name("MMC_setRca")
     184                      .dwattr $C$DW$34, DW_AT_TI_symbol_name("_MMC_setRca")
     185                      .dwattr $C$DW$34, DW_AT_type(*$C$DW$T$106)
     186                      .dwattr $C$DW$34, DW_AT_declaration
     187                      .dwattr $C$DW$34, DW_AT_external
     188              $C$DW$35        .dwtag  DW_TAG_formal_parameter
     189                      .dwattr $C$DW$35, DW_AT_type(*$C$DW$T$112)
     190              $C$DW$36        .dwtag  DW_TAG_formal_parameter
     191                      .dwattr $C$DW$36, DW_AT_type(*$C$DW$T$82)
     192              $C$DW$37        .dwtag  DW_TAG_formal_parameter
     193                      .dwattr $C$DW$37, DW_AT_type(*$C$DW$T$19)
     194                      .dwendtag $C$DW$34
     195              
     196              
     197              $C$DW$38        .dwtag  DW_TAG_subprogram, DW_AT_name("SD_sendRca")
     198                      .dwattr $C$DW$38, DW_AT_TI_symbol_name("_SD_sendRca")
     199                      .dwattr $C$DW$38, DW_AT_type(*$C$DW$T$106)
     200                      .dwattr $C$DW$38, DW_AT_declaration
     201                      .dwattr $C$DW$38, DW_AT_external
     202              $C$DW$39        .dwtag  DW_TAG_formal_parameter
     203                      .dwattr $C$DW$39, DW_AT_type(*$C$DW$T$112)
     204              $C$DW$40        .dwtag  DW_TAG_formal_parameter
     205                      .dwattr $C$DW$40, DW_AT_type(*$C$DW$T$82)
     206              $C$DW$41        .dwtag  DW_TAG_formal_parameter
     207                      .dwattr $C$DW$41, DW_AT_type(*$C$DW$T$130)
     208                      .dwendtag $C$DW$38
     209              
     210              
     211              $C$DW$42        .dwtag  DW_TAG_subprogram, DW_AT_name("MMC_sendAllCID")
     212                      .dwattr $C$DW$42, DW_AT_TI_symbol_name("_MMC_sendAllCID")
     213                      .dwattr $C$DW$42, DW_AT_type(*$C$DW$T$106)
     214                      .dwattr $C$DW$42, DW_AT_declaration
     215                      .dwattr $C$DW$42, DW_AT_external
     216              $C$DW$43        .dwtag  DW_TAG_formal_parameter
     217                      .dwattr $C$DW$43, DW_AT_type(*$C$DW$T$112)
TMS320C55x Assembler PC v4.4.1 Sat Sep 29 23:09:00 2018

Tools Copyright (c) 1996-2012 Texas Instruments Incorporated
csl_mmcsd_dma_example.asm                                            PAGE    5

     218              $C$DW$44        .dwtag  DW_TAG_formal_parameter
     219                      .dwattr $C$DW$44, DW_AT_type(*$C$DW$T$55)
     220                      .dwendtag $C$DW$42
     221              
     222              
     223              $C$DW$45        .dwtag  DW_TAG_subprogram, DW_AT_name("SD_sendAllCID")
     224                      .dwattr $C$DW$45, DW_AT_TI_symbol_name("_SD_sendAllCID")
     225                      .dwattr $C$DW$45, DW_AT_type(*$C$DW$T$106)
     226                      .dwattr $C$DW$45, DW_AT_declaration
     227                      .dwattr $C$DW$45, DW_AT_external
     228              $C$DW$46        .dwtag  DW_TAG_formal_parameter
     229                      .dwattr $C$DW$46, DW_AT_type(*$C$DW$T$112)
     230              $C$DW$47        .dwtag  DW_TAG_formal_parameter
     231                      .dwattr $C$DW$47, DW_AT_type(*$C$DW$T$55)
     232                      .dwendtag $C$DW$45
     233              
     234              
     235              $C$DW$48        .dwtag  DW_TAG_subprogram, DW_AT_name("MMC_getCardCsd")
     236                      .dwattr $C$DW$48, DW_AT_TI_symbol_name("_MMC_getCardCsd")
     237                      .dwattr $C$DW$48, DW_AT_type(*$C$DW$T$106)
     238                      .dwattr $C$DW$48, DW_AT_declaration
     239                      .dwattr $C$DW$48, DW_AT_external
     240              $C$DW$49        .dwtag  DW_TAG_formal_parameter
     241                      .dwattr $C$DW$49, DW_AT_type(*$C$DW$T$112)
     242              $C$DW$50        .dwtag  DW_TAG_formal_parameter
     243                      .dwattr $C$DW$50, DW_AT_type(*$C$DW$T$57)
     244                      .dwendtag $C$DW$48
     245              
     246              
     247              $C$DW$51        .dwtag  DW_TAG_subprogram, DW_AT_name("SD_getCardCsd")
     248                      .dwattr $C$DW$51, DW_AT_TI_symbol_name("_SD_getCardCsd")
     249                      .dwattr $C$DW$51, DW_AT_type(*$C$DW$T$106)
     250                      .dwattr $C$DW$51, DW_AT_declaration
     251                      .dwattr $C$DW$51, DW_AT_external
     252              $C$DW$52        .dwtag  DW_TAG_formal_parameter
     253                      .dwattr $C$DW$52, DW_AT_type(*$C$DW$T$112)
     254              $C$DW$53        .dwtag  DW_TAG_formal_parameter
     255                      .dwattr $C$DW$53, DW_AT_type(*$C$DW$T$57)
     256                      .dwendtag $C$DW$51
     257              
     258              
     259              $C$DW$54        .dwtag  DW_TAG_subprogram, DW_AT_name("MMC_read")
     260                      .dwattr $C$DW$54, DW_AT_TI_symbol_name("_MMC_read")
     261                      .dwattr $C$DW$54, DW_AT_type(*$C$DW$T$106)
     262                      .dwattr $C$DW$54, DW_AT_declaration
     263                      .dwattr $C$DW$54, DW_AT_external
     264              $C$DW$55        .dwtag  DW_TAG_formal_parameter
     265                      .dwattr $C$DW$55, DW_AT_type(*$C$DW$T$112)
     266              $C$DW$56        .dwtag  DW_TAG_formal_parameter
     267                      .dwattr $C$DW$56, DW_AT_type(*$C$DW$T$48)
     268              $C$DW$57        .dwtag  DW_TAG_formal_parameter
     269                      .dwattr $C$DW$57, DW_AT_type(*$C$DW$T$19)
     270              $C$DW$58        .dwtag  DW_TAG_formal_parameter
     271                      .dwattr $C$DW$58, DW_AT_type(*$C$DW$T$130)
     272                      .dwendtag $C$DW$54
TMS320C55x Assembler PC v4.4.1 Sat Sep 29 23:09:00 2018

Tools Copyright (c) 1996-2012 Texas Instruments Incorporated
csl_mmcsd_dma_example.asm                                            PAGE    6

     273              
     274              
     275              $C$DW$59        .dwtag  DW_TAG_subprogram, DW_AT_name("MMC_write")
     276                      .dwattr $C$DW$59, DW_AT_TI_symbol_name("_MMC_write")
     277                      .dwattr $C$DW$59, DW_AT_type(*$C$DW$T$106)
     278                      .dwattr $C$DW$59, DW_AT_declaration
     279                      .dwattr $C$DW$59, DW_AT_external
     280              $C$DW$60        .dwtag  DW_TAG_formal_parameter
     281                      .dwattr $C$DW$60, DW_AT_type(*$C$DW$T$112)
     282              $C$DW$61        .dwtag  DW_TAG_formal_parameter
     283                      .dwattr $C$DW$61, DW_AT_type(*$C$DW$T$48)
     284              $C$DW$62        .dwtag  DW_TAG_formal_parameter
     285                      .dwattr $C$DW$62, DW_AT_type(*$C$DW$T$19)
     286              $C$DW$63        .dwtag  DW_TAG_formal_parameter
     287                      .dwattr $C$DW$63, DW_AT_type(*$C$DW$T$130)
     288                      .dwendtag $C$DW$59
     289              
     290              
     291              $C$DW$64        .dwtag  DW_TAG_subprogram, DW_AT_name("MMC_setDmaHandle")
     292                      .dwattr $C$DW$64, DW_AT_TI_symbol_name("_MMC_setDmaHandle")
     293                      .dwattr $C$DW$64, DW_AT_type(*$C$DW$T$106)
     294                      .dwattr $C$DW$64, DW_AT_declaration
     295                      .dwattr $C$DW$64, DW_AT_external
     296              $C$DW$65        .dwtag  DW_TAG_formal_parameter
     297                      .dwattr $C$DW$65, DW_AT_type(*$C$DW$T$112)
     298              $C$DW$66        .dwtag  DW_TAG_formal_parameter
     299                      .dwattr $C$DW$66, DW_AT_type(*$C$DW$T$89)
     300              $C$DW$67        .dwtag  DW_TAG_formal_parameter
     301                      .dwattr $C$DW$67, DW_AT_type(*$C$DW$T$89)
     302                      .dwendtag $C$DW$64
     303              
     304              
     305              $C$DW$68        .dwtag  DW_TAG_subprogram, DW_AT_name("MMC_setDataTransferCallback")
     306                      .dwattr $C$DW$68, DW_AT_TI_symbol_name("_MMC_setDataTransferCallback")
     307                      .dwattr $C$DW$68, DW_AT_type(*$C$DW$T$106)
     308                      .dwattr $C$DW$68, DW_AT_declaration
     309                      .dwattr $C$DW$68, DW_AT_external
     310              $C$DW$69        .dwtag  DW_TAG_formal_parameter
     311                      .dwattr $C$DW$69, DW_AT_type(*$C$DW$T$112)
     312              $C$DW$70        .dwtag  DW_TAG_formal_parameter
     313                      .dwattr $C$DW$70, DW_AT_type(*$C$DW$T$93)
     314                      .dwendtag $C$DW$68
     315              
     316              
     317              $C$DW$71        .dwtag  DW_TAG_subprogram, DW_AT_name("MMC_setDmaChanConfig")
     318                      .dwattr $C$DW$71, DW_AT_TI_symbol_name("_MMC_setDmaChanConfig")
     319                      .dwattr $C$DW$71, DW_AT_type(*$C$DW$T$106)
     320                      .dwattr $C$DW$71, DW_AT_declaration
     321                      .dwattr $C$DW$71, DW_AT_external
     322              $C$DW$72        .dwtag  DW_TAG_formal_parameter
     323                      .dwattr $C$DW$72, DW_AT_type(*$C$DW$T$112)
     324              $C$DW$73        .dwtag  DW_TAG_formal_parameter
     325                      .dwattr $C$DW$73, DW_AT_type(*$C$DW$T$115)
     326                      .dwendtag $C$DW$71
     327              
TMS320C55x Assembler PC v4.4.1 Sat Sep 29 23:09:00 2018

Tools Copyright (c) 1996-2012 Texas Instruments Incorporated
csl_mmcsd_dma_example.asm                                            PAGE    7

     328              
     329              $C$DW$74        .dwtag  DW_TAG_subprogram, DW_AT_name("MMC_setEndianMode")
     330                      .dwattr $C$DW$74, DW_AT_TI_symbol_name("_MMC_setEndianMode")
     331                      .dwattr $C$DW$74, DW_AT_type(*$C$DW$T$106)
     332                      .dwattr $C$DW$74, DW_AT_declaration
     333                      .dwattr $C$DW$74, DW_AT_external
     334              $C$DW$75        .dwtag  DW_TAG_formal_parameter
     335                      .dwattr $C$DW$75, DW_AT_type(*$C$DW$T$112)
     336              $C$DW$76        .dwtag  DW_TAG_formal_parameter
     337                      .dwattr $C$DW$76, DW_AT_type(*$C$DW$T$97)
     338              $C$DW$77        .dwtag  DW_TAG_formal_parameter
     339                      .dwattr $C$DW$77, DW_AT_type(*$C$DW$T$97)
     340                      .dwendtag $C$DW$74
     341              
     342              
     343              $C$DW$78        .dwtag  DW_TAG_subprogram, DW_AT_name("MMC_setBlockLength")
     344                      .dwattr $C$DW$78, DW_AT_TI_symbol_name("_MMC_setBlockLength")
     345                      .dwattr $C$DW$78, DW_AT_type(*$C$DW$T$106)
     346                      .dwattr $C$DW$78, DW_AT_declaration
     347                      .dwattr $C$DW$78, DW_AT_external
     348              $C$DW$79        .dwtag  DW_TAG_formal_parameter
     349                      .dwattr $C$DW$79, DW_AT_type(*$C$DW$T$112)
     350              $C$DW$80        .dwtag  DW_TAG_formal_parameter
     351                      .dwattr $C$DW$80, DW_AT_type(*$C$DW$T$48)
     352                      .dwendtag $C$DW$78
     353              
     354              
     355              $C$DW$81        .dwtag  DW_TAG_subprogram, DW_AT_name("MMC_setWriteBlkEraseCnt")
     356                      .dwattr $C$DW$81, DW_AT_TI_symbol_name("_MMC_setWriteBlkEraseCnt")
     357                      .dwattr $C$DW$81, DW_AT_type(*$C$DW$T$106)
     358                      .dwattr $C$DW$81, DW_AT_declaration
     359                      .dwattr $C$DW$81, DW_AT_external
     360              $C$DW$82        .dwtag  DW_TAG_formal_parameter
     361                      .dwattr $C$DW$82, DW_AT_type(*$C$DW$T$112)
     362              $C$DW$83        .dwtag  DW_TAG_formal_parameter
     363                      .dwattr $C$DW$83, DW_AT_type(*$C$DW$T$48)
     364                      .dwendtag $C$DW$81
     365              
     366              
     367              $C$DW$84        .dwtag  DW_TAG_subprogram, DW_AT_name("IRQ_plug")
     368                      .dwattr $C$DW$84, DW_AT_TI_symbol_name("_IRQ_plug")
     369                      .dwattr $C$DW$84, DW_AT_type(*$C$DW$T$10)
     370                      .dwattr $C$DW$84, DW_AT_declaration
     371                      .dwattr $C$DW$84, DW_AT_external
     372              $C$DW$85        .dwtag  DW_TAG_formal_parameter
     373                      .dwattr $C$DW$85, DW_AT_type(*$C$DW$T$19)
     374              $C$DW$86        .dwtag  DW_TAG_formal_parameter
     375                      .dwattr $C$DW$86, DW_AT_type(*$C$DW$T$121)
     376                      .dwendtag $C$DW$84
     377              
     378              
     379              $C$DW$87        .dwtag  DW_TAG_subprogram, DW_AT_name("IRQ_clear")
     380                      .dwattr $C$DW$87, DW_AT_TI_symbol_name("_IRQ_clear")
     381                      .dwattr $C$DW$87, DW_AT_type(*$C$DW$T$106)
     382                      .dwattr $C$DW$87, DW_AT_declaration
TMS320C55x Assembler PC v4.4.1 Sat Sep 29 23:09:00 2018

Tools Copyright (c) 1996-2012 Texas Instruments Incorporated
csl_mmcsd_dma_example.asm                                            PAGE    8

     383                      .dwattr $C$DW$87, DW_AT_external
     384              $C$DW$88        .dwtag  DW_TAG_formal_parameter
     385                      .dwattr $C$DW$88, DW_AT_type(*$C$DW$T$19)
     386                      .dwendtag $C$DW$87
     387              
     388              
     389              $C$DW$89        .dwtag  DW_TAG_subprogram, DW_AT_name("IRQ_clearAll")
     390                      .dwattr $C$DW$89, DW_AT_TI_symbol_name("_IRQ_clearAll")
     391                      .dwattr $C$DW$89, DW_AT_declaration
     392                      .dwattr $C$DW$89, DW_AT_external
     393              
     394              $C$DW$90        .dwtag  DW_TAG_subprogram, DW_AT_name("IRQ_disableAll")
     395                      .dwattr $C$DW$90, DW_AT_TI_symbol_name("_IRQ_disableAll")
     396                      .dwattr $C$DW$90, DW_AT_declaration
     397                      .dwattr $C$DW$90, DW_AT_external
     398              
     399              $C$DW$91        .dwtag  DW_TAG_subprogram, DW_AT_name("IRQ_enable")
     400                      .dwattr $C$DW$91, DW_AT_TI_symbol_name("_IRQ_enable")
     401                      .dwattr $C$DW$91, DW_AT_type(*$C$DW$T$10)
     402                      .dwattr $C$DW$91, DW_AT_declaration
     403                      .dwattr $C$DW$91, DW_AT_external
     404              $C$DW$92        .dwtag  DW_TAG_formal_parameter
     405                      .dwattr $C$DW$92, DW_AT_type(*$C$DW$T$19)
     406                      .dwendtag $C$DW$91
     407              
     408              
     409              $C$DW$93        .dwtag  DW_TAG_subprogram, DW_AT_name("IRQ_setVecs")
     410                      .dwattr $C$DW$93, DW_AT_TI_symbol_name("_IRQ_setVecs")
     411                      .dwattr $C$DW$93, DW_AT_type(*$C$DW$T$106)
     412                      .dwattr $C$DW$93, DW_AT_declaration
     413                      .dwattr $C$DW$93, DW_AT_external
     414              $C$DW$94        .dwtag  DW_TAG_formal_parameter
     415                      .dwattr $C$DW$94, DW_AT_type(*$C$DW$T$48)
     416                      .dwendtag $C$DW$93
     417              
     418              
     419              $C$DW$95        .dwtag  DW_TAG_subprogram, DW_AT_name("IRQ_globalDisable")
     420                      .dwattr $C$DW$95, DW_AT_TI_symbol_name("_IRQ_globalDisable")
     421                      .dwattr $C$DW$95, DW_AT_type(*$C$DW$T$31)
     422                      .dwattr $C$DW$95, DW_AT_declaration
     423                      .dwattr $C$DW$95, DW_AT_external
     424              
     425              $C$DW$96        .dwtag  DW_TAG_subprogram, DW_AT_name("IRQ_globalEnable")
     426                      .dwattr $C$DW$96, DW_AT_TI_symbol_name("_IRQ_globalEnable")
     427                      .dwattr $C$DW$96, DW_AT_type(*$C$DW$T$31)
     428                      .dwattr $C$DW$96, DW_AT_declaration
     429                      .dwattr $C$DW$96, DW_AT_external
     430              
     431              $C$DW$97        .dwtag  DW_TAG_subprogram, DW_AT_name("printf")
     432                      .dwattr $C$DW$97, DW_AT_TI_symbol_name("_printf")
     433                      .dwattr $C$DW$97, DW_AT_type(*$C$DW$T$10)
     434                      .dwattr $C$DW$97, DW_AT_declaration
     435                      .dwattr $C$DW$97, DW_AT_external
     436              $C$DW$98        .dwtag  DW_TAG_formal_parameter
     437                      .dwattr $C$DW$98, DW_AT_type(*$C$DW$T$173)
TMS320C55x Assembler PC v4.4.1 Sat Sep 29 23:09:00 2018

Tools Copyright (c) 1996-2012 Texas Instruments Incorporated
csl_mmcsd_dma_example.asm                                            PAGE    9

     438              $C$DW$99        .dwtag  DW_TAG_unspecified_parameters
     439                      .dwendtag $C$DW$97
     440              
     441              
     442              $C$DW$100       .dwtag  DW_TAG_subprogram, DW_AT_name("VECSTART")
     443                      .dwattr $C$DW$100, DW_AT_TI_symbol_name("_VECSTART")
     444                      .dwattr $C$DW$100, DW_AT_declaration
     445                      .dwattr $C$DW$100, DW_AT_external
     446                      .global _pMmcsdContObj
     447 000000               .bss    _pMmcsdContObj,64,0,2
     448              $C$DW$101       .dwtag  DW_TAG_variable, DW_AT_name("pMmcsdContObj")
     449                      .dwattr $C$DW$101, DW_AT_TI_symbol_name("_pMmcsdContObj")
     450                      .dwattr $C$DW$101, DW_AT_location[DW_OP_addr _pMmcsdContObj]
     451                      .dwattr $C$DW$101, DW_AT_type(*$C$DW$T$110)
     452                      .dwattr $C$DW$101, DW_AT_external
     453                      .global _mmcsdHandle
     454 000040               .bss    _mmcsdHandle,2,0,2
     455              $C$DW$102       .dwtag  DW_TAG_variable, DW_AT_name("mmcsdHandle")
     456                      .dwattr $C$DW$102, DW_AT_TI_symbol_name("_mmcsdHandle")
     457                      .dwattr $C$DW$102, DW_AT_location[DW_OP_addr _mmcsdHandle]
     458                      .dwattr $C$DW$102, DW_AT_type(*$C$DW$T$112)
     459                      .dwattr $C$DW$102, DW_AT_external
     460                      .global _mmcCardObj
     461 000042               .bss    _mmcCardObj,30,0,2
     462              $C$DW$103       .dwtag  DW_TAG_variable, DW_AT_name("mmcCardObj")
     463                      .dwattr $C$DW$103, DW_AT_TI_symbol_name("_mmcCardObj")
     464                      .dwattr $C$DW$103, DW_AT_location[DW_OP_addr _mmcCardObj]
     465                      .dwattr $C$DW$103, DW_AT_type(*$C$DW$T$81)
     466                      .dwattr $C$DW$103, DW_AT_external
     467                      .global _cardIdObj
     468 000060               .bss    _cardIdObj,16,0,2
     469              $C$DW$104       .dwtag  DW_TAG_variable, DW_AT_name("cardIdObj")
     470                      .dwattr $C$DW$104, DW_AT_TI_symbol_name("_cardIdObj")
     471                      .dwattr $C$DW$104, DW_AT_location[DW_OP_addr _cardIdObj]
     472                      .dwattr $C$DW$104, DW_AT_type(*$C$DW$T$54)
     473                      .dwattr $C$DW$104, DW_AT_external
     474                      .global _cardCsdObj
     475 000070               .bss    _cardCsdObj,34,0,0
     476              $C$DW$105       .dwtag  DW_TAG_variable, DW_AT_name("cardCsdObj")
     477                      .dwattr $C$DW$105, DW_AT_TI_symbol_name("_cardCsdObj")
     478                      .dwattr $C$DW$105, DW_AT_location[DW_OP_addr _cardCsdObj]
     479                      .dwattr $C$DW$105, DW_AT_type(*$C$DW$T$56)
     480                      .dwattr $C$DW$105, DW_AT_external
     481                      .global _mmcsdDmaConfig
     482 000092               .bss    _mmcsdDmaConfig,5,0,0
     483              $C$DW$106       .dwtag  DW_TAG_variable, DW_AT_name("mmcsdDmaConfig")
     484                      .dwattr $C$DW$106, DW_AT_TI_symbol_name("_mmcsdDmaConfig")
     485                      .dwattr $C$DW$106, DW_AT_location[DW_OP_addr _mmcsdDmaConfig]
     486                      .dwattr $C$DW$106, DW_AT_type(*$C$DW$T$115)
     487                      .dwattr $C$DW$106, DW_AT_external
     488                      .global _gMmcIntr
     489 000097               .bss    _gMmcIntr,1,0,0
     490              $C$DW$107       .dwtag  DW_TAG_variable, DW_AT_name("gMmcIntr")
     491                      .dwattr $C$DW$107, DW_AT_TI_symbol_name("_gMmcIntr")
     492                      .dwattr $C$DW$107, DW_AT_location[DW_OP_addr _gMmcIntr]
TMS320C55x Assembler PC v4.4.1 Sat Sep 29 23:09:00 2018

Tools Copyright (c) 1996-2012 Texas Instruments Incorporated
csl_mmcsd_dma_example.asm                                            PAGE   10

     493                      .dwattr $C$DW$107, DW_AT_type(*$C$DW$T$164)
     494                      .dwattr $C$DW$107, DW_AT_external
     495                      .global _dmaWrHandle
     496 000098               .bss    _dmaWrHandle,2,0,2
     497              $C$DW$108       .dwtag  DW_TAG_variable, DW_AT_name("dmaWrHandle")
     498                      .dwattr $C$DW$108, DW_AT_TI_symbol_name("_dmaWrHandle")
     499                      .dwattr $C$DW$108, DW_AT_location[DW_OP_addr _dmaWrHandle]
     500                      .dwattr $C$DW$108, DW_AT_type(*$C$DW$T$89)
     501                      .dwattr $C$DW$108, DW_AT_external
     502                      .global _dmaRdHandle
     503 00009a               .bss    _dmaRdHandle,2,0,2
     504              $C$DW$109       .dwtag  DW_TAG_variable, DW_AT_name("dmaRdHandle")
     505                      .dwattr $C$DW$109, DW_AT_TI_symbol_name("_dmaRdHandle")
     506                      .dwattr $C$DW$109, DW_AT_location[DW_OP_addr _dmaRdHandle]
     507                      .dwattr $C$DW$109, DW_AT_type(*$C$DW$T$89)
     508                      .dwattr $C$DW$109, DW_AT_external
     509                      .global _dmaWrChanObj
     510 00009c               .bss    _dmaWrChanObj,9,0,0
     511              $C$DW$110       .dwtag  DW_TAG_variable, DW_AT_name("dmaWrChanObj")
     512                      .dwattr $C$DW$110, DW_AT_TI_symbol_name("_dmaWrChanObj")
     513                      .dwattr $C$DW$110, DW_AT_location[DW_OP_addr _dmaWrChanObj]
     514                      .dwattr $C$DW$110, DW_AT_type(*$C$DW$T$87)
     515                      .dwattr $C$DW$110, DW_AT_external
     516                      .global _dmaRdChanObj
     517 0000a5               .bss    _dmaRdChanObj,9,0,0
     518              $C$DW$111       .dwtag  DW_TAG_variable, DW_AT_name("dmaRdChanObj")
     519                      .dwattr $C$DW$111, DW_AT_TI_symbol_name("_dmaRdChanObj")
     520                      .dwattr $C$DW$111, DW_AT_location[DW_OP_addr _dmaRdChanObj]
     521                      .dwattr $C$DW$111, DW_AT_type(*$C$DW$T$87)
     522                      .dwattr $C$DW$111, DW_AT_external
     523                      .global _dmaHandle
     524 0000ae               .bss    _dmaHandle,2,0,2
     525              $C$DW$112       .dwtag  DW_TAG_variable, DW_AT_name("dmaHandle")
     526                      .dwattr $C$DW$112, DW_AT_TI_symbol_name("_dmaHandle")
     527                      .dwattr $C$DW$112, DW_AT_location[DW_OP_addr _dmaHandle]
     528                      .dwattr $C$DW$112, DW_AT_type(*$C$DW$T$89)
     529                      .dwattr $C$DW$112, DW_AT_external
     530                      .global _gReadBuff
     531 0000b0               .bss    _gReadBuff,512,0,4
     532              $C$DW$113       .dwtag  DW_TAG_variable, DW_AT_name("gReadBuff")
     533                      .dwattr $C$DW$113, DW_AT_TI_symbol_name("_gReadBuff")
     534                      .dwattr $C$DW$113, DW_AT_location[DW_OP_addr _gReadBuff]
     535                      .dwattr $C$DW$113, DW_AT_type(*$C$DW$T$163)
     536                      .dwattr $C$DW$113, DW_AT_external
     537                      .global _gWriteBuff
     538 0002b0               .bss    _gWriteBuff,512,0,4
     539              $C$DW$114       .dwtag  DW_TAG_variable, DW_AT_name("gWriteBuff")
     540                      .dwattr $C$DW$114, DW_AT_TI_symbol_name("_gWriteBuff")
     541                      .dwattr $C$DW$114, DW_AT_location[DW_OP_addr _gWriteBuff]
     542                      .dwattr $C$DW$114, DW_AT_type(*$C$DW$T$163)
     543                      .dwattr $C$DW$114, DW_AT_external
     544                      .global _gWriteTempBuff
     545 0004b0               .bss    _gWriteTempBuff,512,0,4
     546              $C$DW$115       .dwtag  DW_TAG_variable, DW_AT_name("gWriteTempBuff")
     547                      .dwattr $C$DW$115, DW_AT_TI_symbol_name("_gWriteTempBuff")
TMS320C55x Assembler PC v4.4.1 Sat Sep 29 23:09:00 2018

Tools Copyright (c) 1996-2012 Texas Instruments Incorporated
csl_mmcsd_dma_example.asm                                            PAGE   11

     548                      .dwattr $C$DW$115, DW_AT_location[DW_OP_addr _gWriteTempBuff]
     549                      .dwattr $C$DW$115, DW_AT_type(*$C$DW$T$163)
     550                      .dwattr $C$DW$115, DW_AT_external
     551                      .global _PaSs_StAtE
     552 0006b0               .bss    _PaSs_StAtE,1,0,0
     553              $C$DW$116       .dwtag  DW_TAG_variable, DW_AT_name("PaSs_StAtE")
     554                      .dwattr $C$DW$116, DW_AT_TI_symbol_name("_PaSs_StAtE")
     555                      .dwattr $C$DW$116, DW_AT_location[DW_OP_addr _PaSs_StAtE]
     556                      .dwattr $C$DW$116, DW_AT_type(*$C$DW$T$159)
     557                      .dwattr $C$DW$116, DW_AT_external
     558                      .global _PaSs
     559 0006b1               .bss    _PaSs,1,0,0
     560              $C$DW$117       .dwtag  DW_TAG_variable, DW_AT_name("PaSs")
     561                      .dwattr $C$DW$117, DW_AT_TI_symbol_name("_PaSs")
     562                      .dwattr $C$DW$117, DW_AT_location[DW_OP_addr _PaSs]
     563                      .dwattr $C$DW$117, DW_AT_type(*$C$DW$T$159)
     564                      .dwattr $C$DW$117, DW_AT_external
     565              ;       F:\t\cc5p5\ccsv5\tools\compiler\c5500_4.4.1\bin\acp55.exe -@f:\\AppData\\Local\\Temp\\1995212 
     566 000000               .sect   ".text"
     567                      .align 4
     568                      .global _main
     569              
     570              $C$DW$118       .dwtag  DW_TAG_subprogram, DW_AT_name("main")
     571                      .dwattr $C$DW$118, DW_AT_low_pc(_main)
     572                      .dwattr $C$DW$118, DW_AT_high_pc(0x00)
     573                      .dwattr $C$DW$118, DW_AT_TI_symbol_name("_main")
     574                      .dwattr $C$DW$118, DW_AT_external
     575                      .dwattr $C$DW$118, DW_AT_TI_begin_file("../c5535_bsl_revc/ezdsp5535_v1/c55xx_csl/ccs_v4.0_examples/mm
     576                      .dwattr $C$DW$118, DW_AT_TI_begin_line(0x112)
     577                      .dwattr $C$DW$118, DW_AT_TI_begin_column(0x06)
     578                      .dwattr $C$DW$118, DW_AT_TI_max_frame_size(0x06)
     579                      .dwpsn  file "../c5535_bsl_revc/ezdsp5535_v1/c55xx_csl/ccs_v4.0_examples/mmc_sd/CSL_MMCSD_dmaExample/
     580              
     581                      .dwfde $C$DW$CIE, _main
     582              ;*******************************************************************************
     583              ;* FUNCTION NAME: main                                                         *
     584              ;*                                                                             *
     585              ;*   Function Uses Regs : T0,AR1,AR3,XAR3,SP,TC1,M40,SATA,SATD,RDM,FRCT,SMUL   *
     586              ;*   Stack Frame        : Compact (No Frame Pointer, w/ debug)                 *
     587              ;*   Total Frame Size   : 6 words                                              *
     588              ;*                        (2 return address/alignment)                         *
     589              ;*                        (2 function parameters)                              *
     590              ;*                        (2 local values)                                     *
     591              ;*   Min System Stack   : 1 word                                               *
     592              ;*******************************************************************************
     593 000000       _main:
     594                      .dwcfi  cfa_offset, 1
     595                      .dwcfi  save_reg_to_mem, 91, -1
     596 000000 4EFB          AADD #-5, SP
     597                      .dwcfi  cfa_offset, 6
     598              $C$DW$119       .dwtag  DW_TAG_variable, DW_AT_name("status")
     599                      .dwattr $C$DW$119, DW_AT_TI_symbol_name("_status")
     600                      .dwattr $C$DW$119, DW_AT_type(*$C$DW$T$106)
     601                      .dwattr $C$DW$119, DW_AT_location[DW_OP_bregx 0x24 2]
     602              $C$DW$120       .dwtag  DW_TAG_variable, DW_AT_name("testFailed")
TMS320C55x Assembler PC v4.4.1 Sat Sep 29 23:09:00 2018

Tools Copyright (c) 1996-2012 Texas Instruments Incorporated
csl_mmcsd_dma_example.asm                                            PAGE   12

     603                      .dwattr $C$DW$120, DW_AT_TI_symbol_name("_testFailed")
     604                      .dwattr $C$DW$120, DW_AT_type(*$C$DW$T$31)
     605                      .dwattr $C$DW$120, DW_AT_location[DW_OP_bregx 0x24 3]
     606                      .dwpsn  file "../c5535_bsl_revc/ezdsp5535_v1/c55xx_csl/ccs_v4.0_examples/mmc_sd/CSL_MMCSD_dmaExample/
     607 000002 E606          MOV #0, *SP(#3) ; |279| 
         000004 00   
     608                      .dwpsn  file "../c5535_bsl_revc/ezdsp5535_v1/c55xx_csl/ccs_v4.0_examples/mmc_sd/CSL_MMCSD_dmaExample/
     609 000005 EC31          AMOV #$C$FSL1, XAR3 ; |281| 
         000007 BE00 
         000009 0000+
     610 00000b EB00          MOV XAR3, dbl(*SP(#0))
         00000d B5   
     611              $C$DW$121       .dwtag  DW_TAG_TI_branch
     612                      .dwattr $C$DW$121, DW_AT_low_pc(0x00)
     613                      .dwattr $C$DW$121, DW_AT_name("_printf")
     614                      .dwattr $C$DW$121, DW_AT_TI_call
     615 00000e 6C00          CALL #_printf ; |281| 
         000010 0000!
     616                                                      ; call occurs [#_printf] ; |281| 
     617                      .dwpsn  file "../c5535_bsl_revc/ezdsp5535_v1/c55xx_csl/ccs_v4.0_examples/mmc_sd/CSL_MMCSD_dmaExample/
     618 000012 EC31          AMOV #$C$FSL2, XAR3 ; |283| 
         000014 BE00 
         000016 001C+
     619 000018 EB00          MOV XAR3, dbl(*SP(#0))
         00001a B5   
     620              $C$DW$122       .dwtag  DW_TAG_TI_branch
     621                      .dwattr $C$DW$122, DW_AT_low_pc(0x00)
     622                      .dwattr $C$DW$122, DW_AT_name("_printf")
     623                      .dwattr $C$DW$122, DW_AT_TI_call
     624 00001b 6C00          CALL #_printf ; |283| 
         00001d 0000!
     625                                                      ; call occurs [#_printf] ; |283| 
     626                      .dwpsn  file "../c5535_bsl_revc/ezdsp5535_v1/c55xx_csl/ccs_v4.0_examples/mmc_sd/CSL_MMCSD_dmaExample/
     627              $C$DW$123       .dwtag  DW_TAG_TI_branch
     628                      .dwattr $C$DW$123, DW_AT_low_pc(0x00)
     629                      .dwattr $C$DW$123, DW_AT_name("_mmcsdDmaTest")
     630                      .dwattr $C$DW$123, DW_AT_TI_call
     631 00001f 0800          CALL #_mmcsdDmaTest ; |284| 
         000021 A2   
     632                                                      ; call occurs [#_mmcsdDmaTest] ; |284| 
     633 000022 C404          MOV T0, *SP(#2) ; |284| 
     634                      .dwpsn  file "../c5535_bsl_revc/ezdsp5535_v1/c55xx_csl/ccs_v4.0_examples/mmc_sd/CSL_MMCSD_dmaExample/
     635 000024 2249          MOV T0, AR1
     636 000026 0409          BCC $C$L1,AR1 == #0 ; |285| 
         000028 18   
     637                                                      ; branchcc occurs ; |285| 
     638                      .dwpsn  file "../c5535_bsl_revc/ezdsp5535_v1/c55xx_csl/ccs_v4.0_examples/mmc_sd/CSL_MMCSD_dmaExample/
     639 000029 E606          MOV #1, *SP(#3) ; |287| 
         00002b 01   
     640                      .dwpsn  file "../c5535_bsl_revc/ezdsp5535_v1/c55xx_csl/ccs_v4.0_examples/mmc_sd/CSL_MMCSD_dmaExample/
     641 00002c E631          MOV #0, *(#_PaSs_StAtE) ; |290| 
         00002e 0000 
         000030 06B0-
     642                      .dwpsn  file "../c5535_bsl_revc/ezdsp5535_v1/c55xx_csl/ccs_v4.0_examples/mmc_sd/CSL_MMCSD_dmaExample/
     643 000032 EC31          AMOV #$C$FSL3, XAR3 ; |292| 
TMS320C55x Assembler PC v4.4.1 Sat Sep 29 23:09:00 2018

Tools Copyright (c) 1996-2012 Texas Instruments Incorporated
csl_mmcsd_dma_example.asm                                            PAGE   13

         000034 BE00 
         000036 003E+
     644 000038 EB00          MOV XAR3, dbl(*SP(#0))
         00003a B5   
     645              $C$DW$124       .dwtag  DW_TAG_TI_branch
     646                      .dwattr $C$DW$124, DW_AT_low_pc(0x00)
     647                      .dwattr $C$DW$124, DW_AT_name("_printf")
     648                      .dwattr $C$DW$124, DW_AT_TI_call
     649 00003b 6C00          CALL #_printf ; |292| 
         00003d 0000!
     650                                                      ; call occurs [#_printf] ; |292| 
     651                      .dwpsn  file "../c5535_bsl_revc/ezdsp5535_v1/c55xx_csl/ccs_v4.0_examples/mmc_sd/CSL_MMCSD_dmaExample/
     652 00003f 4A0D          B $C$L2   ; |293| 
     653                                                      ; branch occurs ; |293| 
     654 000041       $C$L1:    
     655                      .dwpsn  file "../c5535_bsl_revc/ezdsp5535_v1/c55xx_csl/ccs_v4.0_examples/mmc_sd/CSL_MMCSD_dmaExample/
     656 000041 EC31          AMOV #$C$FSL4, XAR3 ; |296| 
         000043 BE00 
         000045 0068+
     657 000047 EB00          MOV XAR3, dbl(*SP(#0))
         000049 B5   
     658              $C$DW$125       .dwtag  DW_TAG_TI_branch
     659                      .dwattr $C$DW$125, DW_AT_low_pc(0x00)
     660                      .dwattr $C$DW$125, DW_AT_name("_printf")
     661                      .dwattr $C$DW$125, DW_AT_TI_call
     662 00004a 6C00          CALL #_printf ; |296| 
         00004c 0000!
     663                                                      ; call occurs [#_printf] ; |296| 
     664 00004e       $C$L2:    
     665                      .dwpsn  file "../c5535_bsl_revc/ezdsp5535_v1/c55xx_csl/ccs_v4.0_examples/mmc_sd/CSL_MMCSD_dmaExample/
     666 00004e EC31          AMOV #$C$FSL5, XAR3 ; |299| 
         000050 BE00 
         000052 0092+
     667 000054 EB00          MOV XAR3, dbl(*SP(#0))
         000056 B5   
     668              $C$DW$126       .dwtag  DW_TAG_TI_branch
     669                      .dwattr $C$DW$126, DW_AT_low_pc(0x00)
     670                      .dwattr $C$DW$126, DW_AT_name("_printf")
     671                      .dwattr $C$DW$126, DW_AT_TI_call
     672 000057 6C00          CALL #_printf ; |299| 
         000059 0000!
     673                                                      ; call occurs [#_printf] ; |299| 
     674                      .dwpsn  file "../c5535_bsl_revc/ezdsp5535_v1/c55xx_csl/ccs_v4.0_examples/mmc_sd/CSL_MMCSD_dmaExample/
     675              $C$DW$127       .dwtag  DW_TAG_TI_branch
     676                      .dwattr $C$DW$127, DW_AT_low_pc(0x00)
     677                      .dwattr $C$DW$127, DW_AT_name("_mmcsdDmaCallbackTest")
     678                      .dwattr $C$DW$127, DW_AT_TI_call
     679 00005b 0805          CALL #_mmcsdDmaCallbackTest ; |300| 
         00005d F2   
     680                                                      ; call occurs [#_mmcsdDmaCallbackTest] ; |300| 
     681 00005e C404          MOV T0, *SP(#2) ; |300| 
     682                      .dwpsn  file "../c5535_bsl_revc/ezdsp5535_v1/c55xx_csl/ccs_v4.0_examples/mmc_sd/CSL_MMCSD_dmaExample/
     683 000060 2249          MOV T0, AR1
     684 000062 0409          BCC $C$L3,AR1 == #0 ; |301| 
         000064 18   
TMS320C55x Assembler PC v4.4.1 Sat Sep 29 23:09:00 2018

Tools Copyright (c) 1996-2012 Texas Instruments Incorporated
csl_mmcsd_dma_example.asm                                            PAGE   14

     685                                                      ; branchcc occurs ; |301| 
     686                      .dwpsn  file "../c5535_bsl_revc/ezdsp5535_v1/c55xx_csl/ccs_v4.0_examples/mmc_sd/CSL_MMCSD_dmaExample/
     687 000065 E606          MOV #1, *SP(#3) ; |303| 
         000067 01   
     688                      .dwpsn  file "../c5535_bsl_revc/ezdsp5535_v1/c55xx_csl/ccs_v4.0_examples/mmc_sd/CSL_MMCSD_dmaExample/
     689 000068 E631          MOV #0, *(#_PaSs_StAtE) ; |306| 
         00006a 0000 
         00006c 06B0-
     690                      .dwpsn  file "../c5535_bsl_revc/ezdsp5535_v1/c55xx_csl/ccs_v4.0_examples/mmc_sd/CSL_MMCSD_dmaExample/
     691 00006e EC31          AMOV #$C$FSL6, XAR3 ; |308| 
         000070 BE00 
         000072 00B4+
     692 000074 EB00          MOV XAR3, dbl(*SP(#0))
         000076 B5   
     693              $C$DW$128       .dwtag  DW_TAG_TI_branch
     694                      .dwattr $C$DW$128, DW_AT_low_pc(0x00)
     695                      .dwattr $C$DW$128, DW_AT_name("_printf")
     696                      .dwattr $C$DW$128, DW_AT_TI_call
     697 000077 6C00          CALL #_printf ; |308| 
         000079 0000!
     698                                                      ; call occurs [#_printf] ; |308| 
     699                      .dwpsn  file "../c5535_bsl_revc/ezdsp5535_v1/c55xx_csl/ccs_v4.0_examples/mmc_sd/CSL_MMCSD_dmaExample/
     700 00007b 4A0D          B $C$L4   ; |309| 
     701                                                      ; branch occurs ; |309| 
     702 00007d       $C$L3:    
     703                      .dwpsn  file "../c5535_bsl_revc/ezdsp5535_v1/c55xx_csl/ccs_v4.0_examples/mmc_sd/CSL_MMCSD_dmaExample/
     704 00007d EC31          AMOV #$C$FSL7, XAR3 ; |312| 
         00007f BE00 
         000081 00DA+
     705 000083 EB00          MOV XAR3, dbl(*SP(#0))
         000085 B5   
     706              $C$DW$129       .dwtag  DW_TAG_TI_branch
     707                      .dwattr $C$DW$129, DW_AT_low_pc(0x00)
     708                      .dwattr $C$DW$129, DW_AT_name("_printf")
     709                      .dwattr $C$DW$129, DW_AT_TI_call
     710 000086 6C00          CALL #_printf ; |312| 
         000088 0000!
     711                                                      ; call occurs [#_printf] ; |312| 
     712 00008a       $C$L4:    
     713                      .dwpsn  file "../c5535_bsl_revc/ezdsp5535_v1/c55xx_csl/ccs_v4.0_examples/mmc_sd/CSL_MMCSD_dmaExample/
     714 00008a F006          CMP *SP(#3) == #1, TC1 ; |315| 
         00008c 0001 
     715 00008e 0474          BCC $C$L5,!TC1 ; |315| 
         000090 15   
     716                                                      ; branchcc occurs ; |315| 
     717                      .dwpsn  file "../c5535_bsl_revc/ezdsp5535_v1/c55xx_csl/ccs_v4.0_examples/mmc_sd/CSL_MMCSD_dmaExample/
     718 000091 EC31          AMOV #$C$FSL8, XAR3 ; |317| 
         000093 BE00 
         000095 0100+
     719 000097 EB00          MOV XAR3, dbl(*SP(#0))
         000099 B5   
     720              $C$DW$130       .dwtag  DW_TAG_TI_branch
     721                      .dwattr $C$DW$130, DW_AT_low_pc(0x00)
     722                      .dwattr $C$DW$130, DW_AT_name("_printf")
     723                      .dwattr $C$DW$130, DW_AT_TI_call
TMS320C55x Assembler PC v4.4.1 Sat Sep 29 23:09:00 2018

Tools Copyright (c) 1996-2012 Texas Instruments Incorporated
csl_mmcsd_dma_example.asm                                            PAGE   15

     724 00009a 6C00          CALL #_printf ; |317| 
         00009c 0000!
     725                                                      ; call occurs [#_printf] ; |317| 
     726                      .dwpsn  file "../c5535_bsl_revc/ezdsp5535_v1/c55xx_csl/ccs_v4.0_examples/mmc_sd/CSL_MMCSD_dmaExample/
     727 00009e E631          MOV #0, *(#_PaSs_StAtE) ; |320| 
         0000a0 0000 
         0000a2 06B0-
     728                      .dwpsn  file "../c5535_bsl_revc/ezdsp5535_v1/c55xx_csl/ccs_v4.0_examples/mmc_sd/CSL_MMCSD_dmaExample/
     729 0000a4 4A0D          B $C$L6   ; |322| 
     730                                                      ; branch occurs ; |322| 
     731 0000a6       $C$L5:    
     732                      .dwpsn  file "../c5535_bsl_revc/ezdsp5535_v1/c55xx_csl/ccs_v4.0_examples/mmc_sd/CSL_MMCSD_dmaExample/
     733 0000a6 EC31          AMOV #$C$FSL9, XAR3 ; |325| 
         0000a8 BE00 
         0000aa 0124+
     734 0000ac EB00          MOV XAR3, dbl(*SP(#0))
         0000ae B5   
     735              $C$DW$131       .dwtag  DW_TAG_TI_branch
     736                      .dwattr $C$DW$131, DW_AT_low_pc(0x00)
     737                      .dwattr $C$DW$131, DW_AT_name("_printf")
     738                      .dwattr $C$DW$131, DW_AT_TI_call
     739 0000af 6C00          CALL #_printf ; |325| 
         0000b1 0000!
     740                                                      ; call occurs [#_printf] ; |325| 
     741 0000b3       $C$L6:    
     742                      .dwpsn  file "../c5535_bsl_revc/ezdsp5535_v1/c55xx_csl/ccs_v4.0_examples/mmc_sd/CSL_MMCSD_dmaExample/
     743 0000b3 A931          MOV *(#_PaSs_StAtE), AR1 ; |329| 
         0000b5 0006 
         0000b7 B0-  
     744 0000b8 C931          MOV AR1, *(#_PaSs) ; |329| 
         0000ba 0006 
         0000bc B1-  
     745                      .dwpsn  file "../c5535_bsl_revc/ezdsp5535_v1/c55xx_csl/ccs_v4.0_examples/mmc_sd/CSL_MMCSD_dmaExample/
     746 0000bd 4E05          AADD #5, SP
     747                      .dwcfi  cfa_offset, 1
     748              $C$DW$132       .dwtag  DW_TAG_TI_branch
     749                      .dwattr $C$DW$132, DW_AT_low_pc(0x00)
     750                      .dwattr $C$DW$132, DW_AT_TI_return
     751 0000bf 4804          RET
     752                                                      ; return occurs
     753                      .dwattr $C$DW$118, DW_AT_TI_end_file("../c5535_bsl_revc/ezdsp5535_v1/c55xx_csl/ccs_v4.0_examples/mmc_
     754                      .dwattr $C$DW$118, DW_AT_TI_end_line(0x14e)
     755                      .dwattr $C$DW$118, DW_AT_TI_end_column(0x01)
     756                      .dwendentry
     757                      .dwendtag $C$DW$118
     758              
     759 0000c1               .sect   ".text"
     760                      .align 4
     761                      .global _mmcsdDmaTest
     762              
     763              $C$DW$133       .dwtag  DW_TAG_subprogram, DW_AT_name("mmcsdDmaTest")
     764                      .dwattr $C$DW$133, DW_AT_low_pc(_mmcsdDmaTest)
     765                      .dwattr $C$DW$133, DW_AT_high_pc(0x00)
     766                      .dwattr $C$DW$133, DW_AT_TI_symbol_name("_mmcsdDmaTest")
     767                      .dwattr $C$DW$133, DW_AT_external
TMS320C55x Assembler PC v4.4.1 Sat Sep 29 23:09:00 2018

Tools Copyright (c) 1996-2012 Texas Instruments Incorporated
csl_mmcsd_dma_example.asm                                            PAGE   16

     768                      .dwattr $C$DW$133, DW_AT_type(*$C$DW$T$106)
     769                      .dwattr $C$DW$133, DW_AT_TI_begin_file("../c5535_bsl_revc/ezdsp5535_v1/c55xx_csl/ccs_v4.0_examples/mm
     770                      .dwattr $C$DW$133, DW_AT_TI_begin_line(0x15b)
     771                      .dwattr $C$DW$133, DW_AT_TI_begin_column(0x0c)
     772                      .dwattr $C$DW$133, DW_AT_TI_max_frame_size(0x10)
     773                      .dwpsn  file "../c5535_bsl_revc/ezdsp5535_v1/c55xx_csl/ccs_v4.0_examples/mmc_sd/CSL_MMCSD_dmaExample/
     774              
     775                      .dwfde $C$DW$CIE, _mmcsdDmaTest
     776              ;*******************************************************************************
     777              ;* FUNCTION NAME: mmcsdDmaTest                                                 *
     778              ;*                                                                             *
     779              ;*   Function Uses Regs : AC0,AC0,T0,T1,AR0,XAR0,AR1,XAR1,AR2,XAR2,AR3,XAR3,SP,*
     780              ;*                        CARRY,TC1,M40,SATA,SATD,RDM,FRCT,SMUL                *
     781              ;*   Stack Frame        : Compact (No Frame Pointer, w/ debug)                 *
     782              ;*   Total Frame Size   : 16 words                                             *
     783              ;*                        (1 return address/alignment)                         *
     784              ;*                        (3 function parameters)                              *
     785              ;*                        (12 local values)                                    *
     786              ;*   Min System Stack   : 1 word                                               *
     787              ;*******************************************************************************
     788 0000c4       _mmcsdDmaTest:
     789                      .dwcfi  cfa_offset, 1
     790                      .dwcfi  save_reg_to_mem, 91, -1
     791 0000c4 4EF1          AADD #-15, SP
     792                      .dwcfi  cfa_offset, 16
     793              $C$DW$134       .dwtag  DW_TAG_variable, DW_AT_name("sectCount")
     794                      .dwattr $C$DW$134, DW_AT_TI_symbol_name("_sectCount")
     795                      .dwattr $C$DW$134, DW_AT_type(*$C$DW$T$48)
     796                      .dwattr $C$DW$134, DW_AT_location[DW_OP_bregx 0x24 4]
     797              $C$DW$135       .dwtag  DW_TAG_variable, DW_AT_name("cardAddr")
     798                      .dwattr $C$DW$135, DW_AT_TI_symbol_name("_cardAddr")
     799                      .dwattr $C$DW$135, DW_AT_type(*$C$DW$T$48)
     800                      .dwattr $C$DW$135, DW_AT_location[DW_OP_bregx 0x24 6]
     801              $C$DW$136       .dwtag  DW_TAG_variable, DW_AT_name("mmcStatus")
     802                      .dwattr $C$DW$136, DW_AT_TI_symbol_name("_mmcStatus")
     803                      .dwattr $C$DW$136, DW_AT_type(*$C$DW$T$106)
     804                      .dwattr $C$DW$136, DW_AT_location[DW_OP_bregx 0x24 8]
     805              $C$DW$137       .dwtag  DW_TAG_variable, DW_AT_name("count")
     806                      .dwattr $C$DW$137, DW_AT_TI_symbol_name("_count")
     807                      .dwattr $C$DW$137, DW_AT_type(*$C$DW$T$19)
     808                      .dwattr $C$DW$137, DW_AT_location[DW_OP_bregx 0x24 9]
     809              $C$DW$138       .dwtag  DW_TAG_variable, DW_AT_name("actCard")
     810                      .dwattr $C$DW$138, DW_AT_TI_symbol_name("_actCard")
     811                      .dwattr $C$DW$138, DW_AT_type(*$C$DW$T$19)
     812                      .dwattr $C$DW$138, DW_AT_location[DW_OP_bregx 0x24 10]
     813              $C$DW$139       .dwtag  DW_TAG_variable, DW_AT_name("rca")
     814                      .dwattr $C$DW$139, DW_AT_TI_symbol_name("_rca")
     815                      .dwattr $C$DW$139, DW_AT_type(*$C$DW$T$19)
     816                      .dwattr $C$DW$139, DW_AT_location[DW_OP_bregx 0x24 11]
     817              $C$DW$140       .dwtag  DW_TAG_variable, DW_AT_name("clockDiv")
     818                      .dwattr $C$DW$140, DW_AT_TI_symbol_name("_clockDiv")
     819                      .dwattr $C$DW$140, DW_AT_type(*$C$DW$T$19)
     820                      .dwattr $C$DW$140, DW_AT_location[DW_OP_bregx 0x24 12]
     821              $C$DW$141       .dwtag  DW_TAG_variable, DW_AT_name("cardType")
     822                      .dwattr $C$DW$141, DW_AT_TI_symbol_name("_cardType")
TMS320C55x Assembler PC v4.4.1 Sat Sep 29 23:09:00 2018

Tools Copyright (c) 1996-2012 Texas Instruments Incorporated
csl_mmcsd_dma_example.asm                                            PAGE   17

     823                      .dwattr $C$DW$141, DW_AT_type(*$C$DW$T$53)
     824                      .dwattr $C$DW$141, DW_AT_location[DW_OP_bregx 0x24 13]
     825              $C$DW$142       .dwtag  DW_TAG_variable, DW_AT_name("opMode")
     826                      .dwattr $C$DW$142, DW_AT_TI_symbol_name("_opMode")
     827                      .dwattr $C$DW$142, DW_AT_type(*$C$DW$T$86)
     828                      .dwattr $C$DW$142, DW_AT_location[DW_OP_bregx 0x24 14]
     829                      .dwpsn  file "../c5535_bsl_revc/ezdsp5535_v1/c55xx_csl/ccs_v4.0_examples/mmc_sd/CSL_MMCSD_dmaExample/
     830 0000c6 E61A          MOV #0, *SP(#13) ; |359| 
         0000c8 00   
     831                      .dwpsn  file "../c5535_bsl_revc/ezdsp5535_v1/c55xx_csl/ccs_v4.0_examples/mmc_sd/CSL_MMCSD_dmaExample/
     832 0000c9 3C00          MOV #0, AC0 ; |360| 
     833 0000cb EB08          MOV AC0, dbl(*SP(#4)) ; |360| 
         0000cd 08   
     834                      .dwpsn  file "../c5535_bsl_revc/ezdsp5535_v1/c55xx_csl/ccs_v4.0_examples/mmc_sd/CSL_MMCSD_dmaExample/
     835 0000ce E61C          MOV #2, *SP(#14) ; |361| 
         0000d0 02   
     836                      .dwpsn  file "../c5535_bsl_revc/ezdsp5535_v1/c55xx_csl/ccs_v4.0_examples/mmc_sd/CSL_MMCSD_dmaExample/
     837 0000d1 E612          MOV #0, *SP(#9) ; |364| 
         0000d3 00   
     838                      .dwpsn  file "../c5535_bsl_revc/ezdsp5535_v1/c55xx_csl/ccs_v4.0_examples/mmc_sd/CSL_MMCSD_dmaExample/
     839 0000d4 7601          MOV #256, AR2 ; |364| 
         0000d6 00A8 
     840 0000d8 A912          MOV *SP(#9), AR1 ; |364| 
     841 0000da 1298          CMPU AR1 >= AR2, TC1 ; |364| 
         0000dc A4   
     842 0000dd 0464          BCC $C$L8,TC1 ; |364| 
         0000df 3D   
     843                                                      ; branchcc occurs ; |364| 
     844 0000e0       $C$L7:    
     845 0000e0       $C$DW$L$_mmcsdDmaTest$2$B:
     846                      .dwpsn  file "../c5535_bsl_revc/ezdsp5535_v1/c55xx_csl/ccs_v4.0_examples/mmc_sd/CSL_MMCSD_dmaExample/
     847 0000e0 A412          MOV *SP(#9), T0 ; |366| 
     848 0000e2 EC31          AMOV #_gReadBuff, XAR3 ; |366| 
         0000e4 BE00 
         0000e6 00B0-
     849 0000e8 E66B          MOV #0, *AR3(T0) ; |366| 
         0000ea 00   
     850                      .dwpsn  file "../c5535_bsl_revc/ezdsp5535_v1/c55xx_csl/ccs_v4.0_examples/mmc_sd/CSL_MMCSD_dmaExample/
     851 0000eb A412          MOV *SP(#9), T0 ; |367| 
     852 0000ed A912          MOV *SP(#9), AR1 ; |367| 
     853 0000ef EC31          AMOV #_gWriteBuff, XAR3 ; |367| 
         0000f1 BE00 
         0000f3 02B0-
     854 0000f5 C96B          MOV AR1, *AR3(T0) ; |367| 
     855                      .dwpsn  file "../c5535_bsl_revc/ezdsp5535_v1/c55xx_csl/ccs_v4.0_examples/mmc_sd/CSL_MMCSD_dmaExample/
     856 0000f7 A412          MOV *SP(#9), T0 ; |368| 
     857 0000f9 2249          MOV T0, AR1 ; |368| 
     858 0000fb EC31          AMOV #_gWriteTempBuff, XAR3 ; |368| 
         0000fd BE00 
         0000ff 04B0-
     859 000101 EC31          AMOV #_gWriteBuff, XAR2 ; |368| 
         000103 AE00 
         000105 02B0-
     860 000107 1490          AADD AR1, AR3 ; |368| 
         000109 B0   
TMS320C55x Assembler PC v4.4.1 Sat Sep 29 23:09:00 2018

Tools Copyright (c) 1996-2012 Texas Instruments Incorporated
csl_mmcsd_dma_example.asm                                            PAGE   18

     861 00010a 805D          MOV *AR2(T0), *AR3 ; |368| 
         00010c 84   
     862                      .dwpsn  file "../c5535_bsl_revc/ezdsp5535_v1/c55xx_csl/ccs_v4.0_examples/mmc_sd/CSL_MMCSD_dmaExample/
     863 00010d F712          ADD #1, *SP(#9) ; |364| 
         00010f 0001 
     864                      .dwpsn  file "../c5535_bsl_revc/ezdsp5535_v1/c55xx_csl/ccs_v4.0_examples/mmc_sd/CSL_MMCSD_dmaExample/
     865 000111 7601          MOV #256, AR2 ; |364| 
         000113 00A8 
     866 000115 A912          MOV *SP(#9), AR1 ; |364| 
     867 000117 1294          CMPU AR1 < AR2, TC1 ; |364| 
         000119 A4   
     868 00011a 0464          BCC $C$L7,TC1 ; |364| 
         00011c C3   
     869                                                      ; branchcc occurs ; |364| 
     870 00011d       $C$DW$L$_mmcsdDmaTest$2$E:
     871 00011d       $C$L8:    
     872                      .dwpsn  file "../c5535_bsl_revc/ezdsp5535_v1/c55xx_csl/ccs_v4.0_examples/mmc_sd/CSL_MMCSD_dmaExample/
     873              $C$DW$143       .dwtag  DW_TAG_TI_branch
     874                      .dwattr $C$DW$143, DW_AT_low_pc(0x00)
     875                      .dwattr $C$DW$143, DW_AT_name("_MMC_init")
     876                      .dwattr $C$DW$143, DW_AT_TI_call
     877 00011d 6C00          CALL #_MMC_init ; |372| 
         00011f 0000!
     878                                                      ; call occurs [#_MMC_init] ; |372| 
     879 000121 C410          MOV T0, *SP(#8) ; |372| 
     880                      .dwpsn  file "../c5535_bsl_revc/ezdsp5535_v1/c55xx_csl/ccs_v4.0_examples/mmc_sd/CSL_MMCSD_dmaExample/
     881 000123 2249          MOV T0, AR1
     882 000125 0409          BCC $C$L9,AR1 == #0 ; |373| 
         000127 12   
     883                                                      ; branchcc occurs ; |373| 
     884                      .dwpsn  file "../c5535_bsl_revc/ezdsp5535_v1/c55xx_csl/ccs_v4.0_examples/mmc_sd/CSL_MMCSD_dmaExample/
     885 000128 EC31          AMOV #$C$FSL10, XAR3 ; |375| 
         00012a BE00 
         00012c 0148+
     886 00012e EB00          MOV XAR3, dbl(*SP(#0))
         000130 B5   
     887              $C$DW$144       .dwtag  DW_TAG_TI_branch
     888                      .dwattr $C$DW$144, DW_AT_low_pc(0x00)
     889                      .dwattr $C$DW$144, DW_AT_name("_printf")
     890                      .dwattr $C$DW$144, DW_AT_TI_call
     891 000131 6C00          CALL #_printf ; |375| 
         000133 0000!
     892                                                      ; call occurs [#_printf] ; |375| 
     893                      .dwpsn  file "../c5535_bsl_revc/ezdsp5535_v1/c55xx_csl/ccs_v4.0_examples/mmc_sd/CSL_MMCSD_dmaExample/
     894 000135 A410          MOV *SP(#8), T0 ; |376| 
     895 000137 0605          B $C$L45  ; |376| 
         000139 12   
     896                                                      ; branch occurs ; |376| 
     897 00013a       $C$L9:    
     898                      .dwpsn  file "../c5535_bsl_revc/ezdsp5535_v1/c55xx_csl/ccs_v4.0_examples/mmc_sd/CSL_MMCSD_dmaExample/
     899              $C$DW$145       .dwtag  DW_TAG_TI_branch
     900                      .dwattr $C$DW$145, DW_AT_low_pc(0x00)
     901                      .dwattr $C$DW$145, DW_AT_name("_DMA_init")
     902                      .dwattr $C$DW$145, DW_AT_TI_call
     903 00013a 6C00          CALL #_DMA_init ; |380| 
TMS320C55x Assembler PC v4.4.1 Sat Sep 29 23:09:00 2018

Tools Copyright (c) 1996-2012 Texas Instruments Incorporated
csl_mmcsd_dma_example.asm                                            PAGE   19

         00013c 0000!
     904                                                      ; call occurs [#_DMA_init] ; |380| 
     905 00013e C410          MOV T0, *SP(#8) ; |380| 
     906                      .dwpsn  file "../c5535_bsl_revc/ezdsp5535_v1/c55xx_csl/ccs_v4.0_examples/mmc_sd/CSL_MMCSD_dmaExample/
     907 000140 2249          MOV T0, AR1
     908 000142 0409          BCC $C$L10,AR1 == #0 ; |381| 
         000144 12   
     909                                                      ; branchcc occurs ; |381| 
     910                      .dwpsn  file "../c5535_bsl_revc/ezdsp5535_v1/c55xx_csl/ccs_v4.0_examples/mmc_sd/CSL_MMCSD_dmaExample/
     911 000145 EC31          AMOV #$C$FSL11, XAR3 ; |383| 
         000147 BE00 
         000149 0160+
     912 00014b EB00          MOV XAR3, dbl(*SP(#0))
         00014d B5   
     913              $C$DW$146       .dwtag  DW_TAG_TI_branch
     914                      .dwattr $C$DW$146, DW_AT_low_pc(0x00)
     915                      .dwattr $C$DW$146, DW_AT_name("_printf")
     916                      .dwattr $C$DW$146, DW_AT_TI_call
     917 00014e 6C00          CALL #_printf ; |383| 
         000150 0000!
     918                                                      ; call occurs [#_printf] ; |383| 
     919                      .dwpsn  file "../c5535_bsl_revc/ezdsp5535_v1/c55xx_csl/ccs_v4.0_examples/mmc_sd/CSL_MMCSD_dmaExample/
     920 000152 A410          MOV *SP(#8), T0 ; |384| 
     921 000154 0604          B $C$L45  ; |384| 
         000156 F5   
     922                                                      ; branch occurs ; |384| 
     923 000157       $C$L10:    
     924                      .dwpsn  file "../c5535_bsl_revc/ezdsp5535_v1/c55xx_csl/ccs_v4.0_examples/mmc_sd/CSL_MMCSD_dmaExample/
     925 000157 EC10          AMAR *SP(#8), XAR1
         000159 9E   
     926 00015a EC31          AMOV #_dmaWrChanObj, XAR0 ; |388| 
         00015c 8E00 
         00015e 009C-
     927              $C$DW$147       .dwtag  DW_TAG_TI_branch
     928                      .dwattr $C$DW$147, DW_AT_low_pc(0x00)
     929                      .dwattr $C$DW$147, DW_AT_name("_DMA_open")
     930                      .dwattr $C$DW$147, DW_AT_TI_call
     931              
     932 000160 6C00          CALL #_DMA_open ; |388| 
         000162 0000!
     933 000164 3D04  ||      MOV #0, T0
     934              
     935                                                      ; call occurs [#_DMA_open] ; |388| 
     936 000166 EB31          MOV XAR0, dbl(*(#_dmaWrHandle))
         000168 8500 
         00016a 0098-
     937                      .dwpsn  file "../c5535_bsl_revc/ezdsp5535_v1/c55xx_csl/ccs_v4.0_examples/mmc_sd/CSL_MMCSD_dmaExample/
     938 00016c ED31          MOV dbl(*(#_dmaWrHandle)), XAR3
         00016e BF00 
         000170 0098-
     939 000172 90B0          MOV XAR3, AC0
     940 000174 6280          BCC $C$L11,AC0 == #0 ; |389| 
     941                                                      ; branchcc occurs ; |389| 
     942 000176 A910          MOV *SP(#8), AR1 ; |389| 
     943 000178 0409          BCC $C$L12,AR1 == #0 ; |389| 
TMS320C55x Assembler PC v4.4.1 Sat Sep 29 23:09:00 2018

Tools Copyright (c) 1996-2012 Texas Instruments Incorporated
csl_mmcsd_dma_example.asm                                            PAGE   20

         00017a 12   
     944                                                      ; branchcc occurs ; |389| 
     945 00017b       $C$L11:    
     946                      .dwpsn  file "../c5535_bsl_revc/ezdsp5535_v1/c55xx_csl/ccs_v4.0_examples/mmc_sd/CSL_MMCSD_dmaExample/
     947 00017b EC31          AMOV #$C$FSL12, XAR3 ; |391| 
         00017d BE00 
         00017f 0178+
     948 000181 EB00          MOV XAR3, dbl(*SP(#0))
         000183 B5   
     949              $C$DW$148       .dwtag  DW_TAG_TI_branch
     950                      .dwattr $C$DW$148, DW_AT_low_pc(0x00)
     951                      .dwattr $C$DW$148, DW_AT_name("_printf")
     952                      .dwattr $C$DW$148, DW_AT_TI_call
     953 000184 6C00          CALL #_printf ; |391| 
         000186 0000!
     954                                                      ; call occurs [#_printf] ; |391| 
     955                      .dwpsn  file "../c5535_bsl_revc/ezdsp5535_v1/c55xx_csl/ccs_v4.0_examples/mmc_sd/CSL_MMCSD_dmaExample/
     956 000188 A410          MOV *SP(#8), T0 ; |392| 
     957 00018a 0604          B $C$L45  ; |392| 
         00018c BF   
     958                                                      ; branch occurs ; |392| 
     959 00018d       $C$L12:    
     960                      .dwpsn  file "../c5535_bsl_revc/ezdsp5535_v1/c55xx_csl/ccs_v4.0_examples/mmc_sd/CSL_MMCSD_dmaExample/
     961 00018d EC10          AMAR *SP(#8), XAR1
         00018f 9E   
     962 000190 EC31          AMOV #_dmaRdChanObj, XAR0 ; |396| 
         000192 8E00 
         000194 00A5-
     963              $C$DW$149       .dwtag  DW_TAG_TI_branch
     964                      .dwattr $C$DW$149, DW_AT_low_pc(0x00)
     965                      .dwattr $C$DW$149, DW_AT_name("_DMA_open")
     966                      .dwattr $C$DW$149, DW_AT_TI_call
     967              
     968 000196 6C00          CALL #_DMA_open ; |396| 
         000198 0000!
     969 00019a 3D14  ||      MOV #1, T0
     970              
     971                                                      ; call occurs [#_DMA_open] ; |396| 
     972 00019c EB31          MOV XAR0, dbl(*(#_dmaRdHandle))
         00019e 8500 
         0001a0 009A-
     973                      .dwpsn  file "../c5535_bsl_revc/ezdsp5535_v1/c55xx_csl/ccs_v4.0_examples/mmc_sd/CSL_MMCSD_dmaExample/
     974 0001a2 ED31          MOV dbl(*(#_dmaRdHandle)), XAR3
         0001a4 BF00 
         0001a6 009A-
     975 0001a8 90B0          MOV XAR3, AC0
     976 0001aa 6280          BCC $C$L13,AC0 == #0 ; |397| 
     977                                                      ; branchcc occurs ; |397| 
     978 0001ac A910          MOV *SP(#8), AR1 ; |397| 
     979 0001ae 0409          BCC $C$L14,AR1 == #0 ; |397| 
         0001b0 12   
     980                                                      ; branchcc occurs ; |397| 
     981 0001b1       $C$L13:    
     982                      .dwpsn  file "../c5535_bsl_revc/ezdsp5535_v1/c55xx_csl/ccs_v4.0_examples/mmc_sd/CSL_MMCSD_dmaExample/
     983 0001b1 EC31          AMOV #$C$FSL13, XAR3 ; |399| 
TMS320C55x Assembler PC v4.4.1 Sat Sep 29 23:09:00 2018

Tools Copyright (c) 1996-2012 Texas Instruments Incorporated
csl_mmcsd_dma_example.asm                                            PAGE   21

         0001b3 BE00 
         0001b5 01A0+
     984 0001b7 EB00          MOV XAR3, dbl(*SP(#0))
         0001b9 B5   
     985              $C$DW$150       .dwtag  DW_TAG_TI_branch
     986                      .dwattr $C$DW$150, DW_AT_low_pc(0x00)
     987                      .dwattr $C$DW$150, DW_AT_name("_printf")
     988                      .dwattr $C$DW$150, DW_AT_TI_call
     989 0001ba 6C00          CALL #_printf ; |399| 
         0001bc 0000!
     990                                                      ; call occurs [#_printf] ; |399| 
     991                      .dwpsn  file "../c5535_bsl_revc/ezdsp5535_v1/c55xx_csl/ccs_v4.0_examples/mmc_sd/CSL_MMCSD_dmaExample/
     992 0001be A410          MOV *SP(#8), T0 ; |400| 
     993 0001c0 0604          B $C$L45  ; |400| 
         0001c2 89   
     994                                                      ; branch occurs ; |400| 
     995 0001c3       $C$L14:    
     996                      .dwpsn  file "../c5535_bsl_revc/ezdsp5535_v1/c55xx_csl/ccs_v4.0_examples/mmc_sd/CSL_MMCSD_dmaExample/
     997 0001c3 A51C          MOV *SP(#14), T1 ; |407| 
     998 0001c5 EC10          AMAR *SP(#8), XAR1
         0001c7 9E   
     999 0001c8 EC31          AMOV #_pMmcsdContObj, XAR0 ; |407| 
         0001ca 8E00 
         0001cc 0000-
    1000              $C$DW$151       .dwtag  DW_TAG_TI_branch
    1001                      .dwattr $C$DW$151, DW_AT_low_pc(0x00)
    1002                      .dwattr $C$DW$151, DW_AT_name("_MMC_open")
    1003                      .dwattr $C$DW$151, DW_AT_TI_call
    1004              
    1005 0001ce 6C00          CALL #_MMC_open ; |407| 
         0001d0 0000!
    1006 0001d2 3D04  ||      MOV #0, T0
    1007              
    1008                                                      ; call occurs [#_MMC_open] ; |407| 
    1009 0001d4 EB31          MOV XAR0, dbl(*(#_mmcsdHandle))
         0001d6 8500 
         0001d8 0040-
    1010                      .dwpsn  file "../c5535_bsl_revc/ezdsp5535_v1/c55xx_csl/ccs_v4.0_examples/mmc_sd/CSL_MMCSD_dmaExample/
    1011 0001da A910          MOV *SP(#8), AR1 ; |409| 
    1012 0001dc 6599          BCC $C$L15,AR1 != #0 ; |409| 
    1013                                                      ; branchcc occurs ; |409| 
    1014 0001de ED31          MOV dbl(*(#_mmcsdHandle)), XAR3
         0001e0 BF00 
         0001e2 0040-
    1015 0001e4 90B0          MOV XAR3, AC0
    1016 0001e6 0410          BCC $C$L16,AC0 != #0 ; |409| 
         0001e8 12   
    1017                                                      ; branchcc occurs ; |409| 
    1018 0001e9       $C$L15:    
    1019                      .dwpsn  file "../c5535_bsl_revc/ezdsp5535_v1/c55xx_csl/ccs_v4.0_examples/mmc_sd/CSL_MMCSD_dmaExample/
    1020 0001e9 EC31          AMOV #$C$FSL14, XAR3 ; |411| 
         0001eb BE00 
         0001ed 01C6+
    1021 0001ef EB00          MOV XAR3, dbl(*SP(#0))
         0001f1 B5   
TMS320C55x Assembler PC v4.4.1 Sat Sep 29 23:09:00 2018

Tools Copyright (c) 1996-2012 Texas Instruments Incorporated
csl_mmcsd_dma_example.asm                                            PAGE   22

    1022              $C$DW$152       .dwtag  DW_TAG_TI_branch
    1023                      .dwattr $C$DW$152, DW_AT_low_pc(0x00)
    1024                      .dwattr $C$DW$152, DW_AT_name("_printf")
    1025                      .dwattr $C$DW$152, DW_AT_TI_call
    1026 0001f2 6C00          CALL #_printf ; |411| 
         0001f4 0000!
    1027                                                      ; call occurs [#_printf] ; |411| 
    1028                      .dwpsn  file "../c5535_bsl_revc/ezdsp5535_v1/c55xx_csl/ccs_v4.0_examples/mmc_sd/CSL_MMCSD_dmaExample/
    1029 0001f6 A410          MOV *SP(#8), T0 ; |412| 
    1030 0001f8 0604          B $C$L45  ; |412| 
         0001fa 51   
    1031                                                      ; branch occurs ; |412| 
    1032 0001fb       $C$L16:    
    1033                      .dwpsn  file "../c5535_bsl_revc/ezdsp5535_v1/c55xx_csl/ccs_v4.0_examples/mmc_sd/CSL_MMCSD_dmaExample/
    1034 0001fb F01C          CMP *SP(#14) == #2, TC1 ; |416| 
         0001fd 0002 
    1035 0001ff 0474          BCC $C$L17,!TC1 ; |416| 
         000201 29   
    1036                                                      ; branchcc occurs ; |416| 
    1037                      .dwpsn  file "../c5535_bsl_revc/ezdsp5535_v1/c55xx_csl/ccs_v4.0_examples/mmc_sd/CSL_MMCSD_dmaExample/
    1038 000202 ED31          MOV dbl(*(#_dmaWrHandle)), XAR1
         000204 9F00 
         000206 0098-
    1039 000208 ED31          MOV dbl(*(#_dmaRdHandle)), XAR2
         00020a AF00 
         00020c 009A-
    1040              $C$DW$153       .dwtag  DW_TAG_TI_branch
    1041                      .dwattr $C$DW$153, DW_AT_low_pc(0x00)
    1042                      .dwattr $C$DW$153, DW_AT_name("_MMC_setDmaHandle")
    1043                      .dwattr $C$DW$153, DW_AT_TI_call
    1044 00020e 6C00          CALL #_MMC_setDmaHandle ; |419| 
         000210 0000!
    1045                                                      ; call occurs [#_MMC_setDmaHandle] ; |419| 
    1046 000212 C410          MOV T0, *SP(#8) ; |419| 
    1047                      .dwpsn  file "../c5535_bsl_revc/ezdsp5535_v1/c55xx_csl/ccs_v4.0_examples/mmc_sd/CSL_MMCSD_dmaExample/
    1048 000214 2249          MOV T0, AR1
    1049 000216 0409          BCC $C$L17,AR1 == #0 ; |420| 
         000218 12   
    1050                                                      ; branchcc occurs ; |420| 
    1051                      .dwpsn  file "../c5535_bsl_revc/ezdsp5535_v1/c55xx_csl/ccs_v4.0_examples/mmc_sd/CSL_MMCSD_dmaExample/
    1052 000219 EC31          AMOV #$C$FSL15, XAR3 ; |422| 
         00021b BE00 
         00021d 01DC+
    1053 00021f EB00          MOV XAR3, dbl(*SP(#0))
         000221 B5   
    1054              $C$DW$154       .dwtag  DW_TAG_TI_branch
    1055                      .dwattr $C$DW$154, DW_AT_low_pc(0x00)
    1056                      .dwattr $C$DW$154, DW_AT_name("_printf")
    1057                      .dwattr $C$DW$154, DW_AT_TI_call
    1058 000222 6C00          CALL #_printf ; |422| 
         000224 0000!
    1059                                                      ; call occurs [#_printf] ; |422| 
    1060                      .dwpsn  file "../c5535_bsl_revc/ezdsp5535_v1/c55xx_csl/ccs_v4.0_examples/mmc_sd/CSL_MMCSD_dmaExample/
    1061 000226 A410          MOV *SP(#8), T0 ; |423| 
    1062 000228 0604          B $C$L45  ; |423| 
TMS320C55x Assembler PC v4.4.1 Sat Sep 29 23:09:00 2018

Tools Copyright (c) 1996-2012 Texas Instruments Incorporated
csl_mmcsd_dma_example.asm                                            PAGE   23

         00022a 21   
    1063                                                      ; branch occurs ; |423| 
    1064 00022b       $C$L17:    
    1065                      .dwpsn  file "../c5535_bsl_revc/ezdsp5535_v1/c55xx_csl/ccs_v4.0_examples/mmc_sd/CSL_MMCSD_dmaExample/
    1066 00022b ED31          MOV dbl(*(#_mmcsdHandle)), XAR0
         00022d 8F00 
         00022f 0040-
    1067              $C$DW$155       .dwtag  DW_TAG_TI_branch
    1068                      .dwattr $C$DW$155, DW_AT_low_pc(0x00)
    1069                      .dwattr $C$DW$155, DW_AT_name("_MMC_sendGoIdle")
    1070                      .dwattr $C$DW$155, DW_AT_TI_call
    1071 000231 6C00          CALL #_MMC_sendGoIdle ; |428| 
         000233 0000!
    1072                                                      ; call occurs [#_MMC_sendGoIdle] ; |428| 
    1073 000235 C410          MOV T0, *SP(#8) ; |428| 
    1074                      .dwpsn  file "../c5535_bsl_revc/ezdsp5535_v1/c55xx_csl/ccs_v4.0_examples/mmc_sd/CSL_MMCSD_dmaExample/
    1075 000237 2249          MOV T0, AR1
    1076 000239 0409          BCC $C$L18,AR1 == #0 ; |429| 
         00023b 12   
    1077                                                      ; branchcc occurs ; |429| 
    1078                      .dwpsn  file "../c5535_bsl_revc/ezdsp5535_v1/c55xx_csl/ccs_v4.0_examples/mmc_sd/CSL_MMCSD_dmaExample/
    1079 00023c EC31          AMOV #$C$FSL16, XAR3 ; |431| 
         00023e BE00 
         000240 0204+
    1080 000242 EB00          MOV XAR3, dbl(*SP(#0))
         000244 B5   
    1081              $C$DW$156       .dwtag  DW_TAG_TI_branch
    1082                      .dwattr $C$DW$156, DW_AT_low_pc(0x00)
    1083                      .dwattr $C$DW$156, DW_AT_name("_printf")
    1084                      .dwattr $C$DW$156, DW_AT_TI_call
    1085 000245 6C00          CALL #_printf ; |431| 
         000247 0000!
    1086                                                      ; call occurs [#_printf] ; |431| 
    1087                      .dwpsn  file "../c5535_bsl_revc/ezdsp5535_v1/c55xx_csl/ccs_v4.0_examples/mmc_sd/CSL_MMCSD_dmaExample/
    1088 000249 A410          MOV *SP(#8), T0 ; |432| 
    1089 00024b 0603          B $C$L45  ; |432| 
         00024d FE   
    1090                                                      ; branch occurs ; |432| 
    1091 00024e       $C$L18:    
    1092                      .dwpsn  file "../c5535_bsl_revc/ezdsp5535_v1/c55xx_csl/ccs_v4.0_examples/mmc_sd/CSL_MMCSD_dmaExample/
    1093 00024e ED31          MOV dbl(*(#_mmcsdHandle)), XAR0
         000250 8F00 
         000252 0040-
    1094 000254 EC31          AMOV #_mmcCardObj, XAR1 ; |436| 
         000256 9E00 
         000258 0042-
    1095              $C$DW$157       .dwtag  DW_TAG_TI_branch
    1096                      .dwattr $C$DW$157, DW_AT_low_pc(0x00)
    1097                      .dwattr $C$DW$157, DW_AT_name("_MMC_selectCard")
    1098                      .dwattr $C$DW$157, DW_AT_TI_call
    1099 00025a 6C00          CALL #_MMC_selectCard ; |436| 
         00025c 0000!
    1100                                                      ; call occurs [#_MMC_selectCard] ; |436| 
    1101 00025e C410          MOV T0, *SP(#8) ; |436| 
    1102                      .dwpsn  file "../c5535_bsl_revc/ezdsp5535_v1/c55xx_csl/ccs_v4.0_examples/mmc_sd/CSL_MMCSD_dmaExample/
TMS320C55x Assembler PC v4.4.1 Sat Sep 29 23:09:00 2018

Tools Copyright (c) 1996-2012 Texas Instruments Incorporated
csl_mmcsd_dma_example.asm                                            PAGE   24

    1103 000260 F010          CMP *SP(#8) == #-5, TC1 ; |437| 
         000262 FFFB 
    1104 000264 63E4          BCC $C$L19,TC1 ; |437| 
    1105                                                      ; branchcc occurs ; |437| 
    1106 000266 F010          CMP *SP(#8) == #-6, TC1 ; |437| 
         000268 FFFA 
    1107 00026a 0474          BCC $C$L20,!TC1 ; |437| 
         00026c 12   
    1108                                                      ; branchcc occurs ; |437| 
    1109 00026d       $C$L19:    
    1110                      .dwpsn  file "../c5535_bsl_revc/ezdsp5535_v1/c55xx_csl/ccs_v4.0_examples/mmc_sd/CSL_MMCSD_dmaExample/
    1111 00026d EC31          AMOV #$C$FSL17, XAR3 ; |440| 
         00026f BE00 
         000271 0220+
    1112 000273 EB00          MOV XAR3, dbl(*SP(#0))
         000275 B5   
    1113              $C$DW$158       .dwtag  DW_TAG_TI_branch
    1114                      .dwattr $C$DW$158, DW_AT_low_pc(0x00)
    1115                      .dwattr $C$DW$158, DW_AT_name("_printf")
    1116                      .dwattr $C$DW$158, DW_AT_TI_call
    1117 000276 6C00          CALL #_printf ; |440| 
         000278 0000!
    1118                                                      ; call occurs [#_printf] ; |440| 
    1119                      .dwpsn  file "../c5535_bsl_revc/ezdsp5535_v1/c55xx_csl/ccs_v4.0_examples/mmc_sd/CSL_MMCSD_dmaExample/
    1120 00027a A410          MOV *SP(#8), T0 ; |441| 
    1121 00027c 0603          B $C$L45  ; |441| 
         00027e CD   
    1122                                                      ; branch occurs ; |441| 
    1123 00027f       $C$L20:    
    1124                      .dwpsn  file "../c5535_bsl_revc/ezdsp5535_v1/c55xx_csl/ccs_v4.0_examples/mmc_sd/CSL_MMCSD_dmaExample/
    1125 00027f F031          CMP *(#(_mmcCardObj+18)) == #2, TC1 ; |445| 
         000281 0002 
         000283 0000 
         000285 54-  
    1126 000286 6D74          BCC $C$L24,!TC1 ; |445| 
         000288 00A2 
    1127                                                      ; branchcc occurs ; |445| 
    1128                      .dwpsn  file "../c5535_bsl_revc/ezdsp5535_v1/c55xx_csl/ccs_v4.0_examples/mmc_sd/CSL_MMCSD_dmaExample/
    1129 00028a EC31          AMOV #$C$FSL18, XAR3 ; |447| 
         00028c BE00 
         00028e 023C+
    1130 000290 EB00          MOV XAR3, dbl(*SP(#0))
         000292 B5   
    1131              $C$DW$159       .dwtag  DW_TAG_TI_branch
    1132                      .dwattr $C$DW$159, DW_AT_low_pc(0x00)
    1133                      .dwattr $C$DW$159, DW_AT_name("_printf")
    1134                      .dwattr $C$DW$159, DW_AT_TI_call
    1135 000293 6C00          CALL #_printf ; |447| 
         000295 0000!
    1136                                                      ; call occurs [#_printf] ; |447| 
    1137                      .dwpsn  file "../c5535_bsl_revc/ezdsp5535_v1/c55xx_csl/ccs_v4.0_examples/mmc_sd/CSL_MMCSD_dmaExample/
    1138 000297 E61A          MOV #2, *SP(#13) ; |448| 
         000299 02   
    1139                      .dwpsn  file "../c5535_bsl_revc/ezdsp5535_v1/c55xx_csl/ccs_v4.0_examples/mmc_sd/CSL_MMCSD_dmaExample/
    1140 00029a ED08          MOV dbl(*SP(#4)), AC0 ; |449| 
TMS320C55x Assembler PC v4.4.1 Sat Sep 29 23:09:00 2018

Tools Copyright (c) 1996-2012 Texas Instruments Incorporated
csl_mmcsd_dma_example.asm                                            PAGE   25

         00029c 08   
    1141 00029d 1007          SFTL AC0, #9, AC0 ; |449| 
         00029f 09   
    1142 0002a0 EB0C          MOV AC0, dbl(*SP(#6)) ; |449| 
         0002a2 08   
    1143                      .dwpsn  file "../c5535_bsl_revc/ezdsp5535_v1/c55xx_csl/ccs_v4.0_examples/mmc_sd/CSL_MMCSD_dmaExample/
    1144 0002a3 EC31          AMOV #_cardIdObj, XAR1 ; |452| 
         0002a5 9E00 
         0002a7 0060-
    1145 0002a9 ED31          MOV dbl(*(#_mmcsdHandle)), XAR0
         0002ab 8F00 
         0002ad 0040-
    1146              $C$DW$160       .dwtag  DW_TAG_TI_branch
    1147                      .dwattr $C$DW$160, DW_AT_low_pc(0x00)
    1148                      .dwattr $C$DW$160, DW_AT_name("_MMC_sendAllCID")
    1149                      .dwattr $C$DW$160, DW_AT_TI_call
    1150 0002af 6C00          CALL #_MMC_sendAllCID ; |452| 
         0002b1 0000!
    1151                                                      ; call occurs [#_MMC_sendAllCID] ; |452| 
    1152 0002b3 C410          MOV T0, *SP(#8) ; |452| 
    1153                      .dwpsn  file "../c5535_bsl_revc/ezdsp5535_v1/c55xx_csl/ccs_v4.0_examples/mmc_sd/CSL_MMCSD_dmaExample/
    1154 0002b5 2249          MOV T0, AR1
    1155 0002b7 0409          BCC $C$L21,AR1 == #0 ; |453| 
         0002b9 12   
    1156                                                      ; branchcc occurs ; |453| 
    1157                      .dwpsn  file "../c5535_bsl_revc/ezdsp5535_v1/c55xx_csl/ccs_v4.0_examples/mmc_sd/CSL_MMCSD_dmaExample/
    1158 0002ba EC31          AMOV #$C$FSL19, XAR3 ; |455| 
         0002bc BE00 
         0002be 0252+
    1159 0002c0 EB00          MOV XAR3, dbl(*SP(#0))
         0002c2 B5   
    1160              $C$DW$161       .dwtag  DW_TAG_TI_branch
    1161                      .dwattr $C$DW$161, DW_AT_low_pc(0x00)
    1162                      .dwattr $C$DW$161, DW_AT_name("_printf")
    1163                      .dwattr $C$DW$161, DW_AT_TI_call
    1164 0002c3 6C00          CALL #_printf ; |455| 
         0002c5 0000!
    1165                                                      ; call occurs [#_printf] ; |455| 
    1166                      .dwpsn  file "../c5535_bsl_revc/ezdsp5535_v1/c55xx_csl/ccs_v4.0_examples/mmc_sd/CSL_MMCSD_dmaExample/
    1167 0002c7 A410          MOV *SP(#8), T0 ; |456| 
    1168 0002c9 0603          B $C$L45  ; |456| 
         0002cb 80   
    1169                                                      ; branch occurs ; |456| 
    1170 0002cc       $C$L21:    
    1171                      .dwpsn  file "../c5535_bsl_revc/ezdsp5535_v1/c55xx_csl/ccs_v4.0_examples/mmc_sd/CSL_MMCSD_dmaExample/
    1172 0002cc ED31          MOV dbl(*(#_mmcsdHandle)), XAR0
         0002ce 8F00 
         0002d0 0040-
    1173 0002d2 EC31          AMOV #_mmcCardObj, XAR1 ; |460| 
         0002d4 9E00 
         0002d6 0042-
    1174              $C$DW$162       .dwtag  DW_TAG_TI_branch
    1175                      .dwattr $C$DW$162, DW_AT_low_pc(0x00)
    1176                      .dwattr $C$DW$162, DW_AT_name("_MMC_setRca")
    1177                      .dwattr $C$DW$162, DW_AT_TI_call
TMS320C55x Assembler PC v4.4.1 Sat Sep 29 23:09:00 2018

Tools Copyright (c) 1996-2012 Texas Instruments Incorporated
csl_mmcsd_dma_example.asm                                            PAGE   26

    1178              
    1179 0002d8 6C00          CALL #_MMC_setRca ; |460| 
         0002da 0000!
    1180 0002dc 3D14  ||      MOV #1, T0
    1181              
    1182                                                      ; call occurs [#_MMC_setRca] ; |460| 
    1183 0002de C410          MOV T0, *SP(#8) ; |460| 
    1184                      .dwpsn  file "../c5535_bsl_revc/ezdsp5535_v1/c55xx_csl/ccs_v4.0_examples/mmc_sd/CSL_MMCSD_dmaExample/
    1185 0002e0 2249          MOV T0, AR1
    1186 0002e2 0409          BCC $C$L22,AR1 == #0 ; |461| 
         0002e4 12   
    1187                                                      ; branchcc occurs ; |461| 
    1188                      .dwpsn  file "../c5535_bsl_revc/ezdsp5535_v1/c55xx_csl/ccs_v4.0_examples/mmc_sd/CSL_MMCSD_dmaExample/
    1189 0002e5 EC31          AMOV #$C$FSL20, XAR3 ; |463| 
         0002e7 BE00 
         0002e9 026E+
    1190 0002eb EB00          MOV XAR3, dbl(*SP(#0))
         0002ed B5   
    1191              $C$DW$163       .dwtag  DW_TAG_TI_branch
    1192                      .dwattr $C$DW$163, DW_AT_low_pc(0x00)
    1193                      .dwattr $C$DW$163, DW_AT_name("_printf")
    1194                      .dwattr $C$DW$163, DW_AT_TI_call
    1195 0002ee 6C00          CALL #_printf ; |463| 
         0002f0 0000!
    1196                                                      ; call occurs [#_printf] ; |463| 
    1197                      .dwpsn  file "../c5535_bsl_revc/ezdsp5535_v1/c55xx_csl/ccs_v4.0_examples/mmc_sd/CSL_MMCSD_dmaExample/
    1198 0002f2 A410          MOV *SP(#8), T0 ; |464| 
    1199 0002f4 0603          B $C$L45  ; |464| 
         0002f6 55   
    1200                                                      ; branch occurs ; |464| 
    1201 0002f7       $C$L22:    
    1202                      .dwpsn  file "../c5535_bsl_revc/ezdsp5535_v1/c55xx_csl/ccs_v4.0_examples/mmc_sd/CSL_MMCSD_dmaExample/
    1203 0002f7 ED31          MOV dbl(*(#_mmcsdHandle)), XAR0
         0002f9 8F00 
         0002fb 0040-
    1204 0002fd EC31          AMOV #_cardCsdObj, XAR1 ; |468| 
         0002ff 9E00 
         000301 0070-
    1205              $C$DW$164       .dwtag  DW_TAG_TI_branch
    1206                      .dwattr $C$DW$164, DW_AT_low_pc(0x00)
    1207                      .dwattr $C$DW$164, DW_AT_name("_MMC_getCardCsd")
    1208                      .dwattr $C$DW$164, DW_AT_TI_call
    1209 000303 6C00          CALL #_MMC_getCardCsd ; |468| 
         000305 0000!
    1210                                                      ; call occurs [#_MMC_getCardCsd] ; |468| 
    1211 000307 C410          MOV T0, *SP(#8) ; |468| 
    1212                      .dwpsn  file "../c5535_bsl_revc/ezdsp5535_v1/c55xx_csl/ccs_v4.0_examples/mmc_sd/CSL_MMCSD_dmaExample/
    1213 000309 2249          MOV T0, AR1
    1214 00030b 0409          BCC $C$L23,AR1 == #0 ; |469| 
         00030d 12   
    1215                                                      ; branchcc occurs ; |469| 
    1216                      .dwpsn  file "../c5535_bsl_revc/ezdsp5535_v1/c55xx_csl/ccs_v4.0_examples/mmc_sd/CSL_MMCSD_dmaExample/
    1217 00030e EC31          AMOV #$C$FSL21, XAR3 ; |471| 
         000310 BE00 
         000312 0286+
TMS320C55x Assembler PC v4.4.1 Sat Sep 29 23:09:00 2018

Tools Copyright (c) 1996-2012 Texas Instruments Incorporated
csl_mmcsd_dma_example.asm                                            PAGE   27

    1218 000314 EB00          MOV XAR3, dbl(*SP(#0))
         000316 B5   
    1219              $C$DW$165       .dwtag  DW_TAG_TI_branch
    1220                      .dwattr $C$DW$165, DW_AT_low_pc(0x00)
    1221                      .dwattr $C$DW$165, DW_AT_name("_printf")
    1222                      .dwattr $C$DW$165, DW_AT_TI_call
    1223 000317 6C00          CALL #_printf ; |471| 
         000319 0000!
    1224                                                      ; call occurs [#_printf] ; |471| 
    1225                      .dwpsn  file "../c5535_bsl_revc/ezdsp5535_v1/c55xx_csl/ccs_v4.0_examples/mmc_sd/CSL_MMCSD_dmaExample/
    1226 00031b A410          MOV *SP(#8), T0 ; |472| 
    1227 00031d 0603          B $C$L45  ; |472| 
         00031f 2C   
    1228                                                      ; branch occurs ; |472| 
    1229 000320       $C$L23:    
    1230                      .dwpsn  file "../c5535_bsl_revc/ezdsp5535_v1/c55xx_csl/ccs_v4.0_examples/mmc_sd/CSL_MMCSD_dmaExample/
    1231 000320 7613          MOV #5000, AC0 ; |476| 
         000322 8808 
    1232              $C$DW$166       .dwtag  DW_TAG_TI_branch
    1233                      .dwattr $C$DW$166, DW_AT_low_pc(0x00)
    1234                      .dwattr $C$DW$166, DW_AT_name("_computeClkRate")
    1235                      .dwattr $C$DW$166, DW_AT_TI_call
    1236 000324 0809          CALL #_computeClkRate ; |476| 
         000326 E1   
    1237                                                      ; call occurs [#_computeClkRate] ; |476| 
    1238 000327 C418          MOV T0, *SP(#12) ; |476| 
    1239                      .dwpsn  file "../c5535_bsl_revc/ezdsp5535_v1/c55xx_csl/ccs_v4.0_examples/mmc_sd/CSL_MMCSD_dmaExample/
    1240 000329 0601          B $C$L32  ; |477| 
         00032b 41   
    1241                                                      ; branch occurs ; |477| 
    1242 00032c       $C$L24:    
    1243                      .dwpsn  file "../c5535_bsl_revc/ezdsp5535_v1/c55xx_csl/ccs_v4.0_examples/mmc_sd/CSL_MMCSD_dmaExample/
    1244 00032c F031          CMP *(#(_mmcCardObj+18)) == #1, TC1 ; |478| 
         00032e 0001 
         000330 0000 
         000332 54-  
    1245 000333 6D74          BCC $C$L31,!TC1 ; |478| 
         000335 0117 
    1246                                                      ; branchcc occurs ; |478| 
    1247                      .dwpsn  file "../c5535_bsl_revc/ezdsp5535_v1/c55xx_csl/ccs_v4.0_examples/mmc_sd/CSL_MMCSD_dmaExample/
    1248 000337 EC31          AMOV #$C$FSL22, XAR3 ; |480| 
         000339 BE00 
         00033b 02A2+
    1249 00033d EB00          MOV XAR3, dbl(*SP(#0))
         00033f B5   
    1250              $C$DW$167       .dwtag  DW_TAG_TI_branch
    1251                      .dwattr $C$DW$167, DW_AT_low_pc(0x00)
    1252                      .dwattr $C$DW$167, DW_AT_name("_printf")
    1253                      .dwattr $C$DW$167, DW_AT_TI_call
    1254 000340 6C00          CALL #_printf ; |480| 
         000342 0000!
    1255                                                      ; call occurs [#_printf] ; |480| 
    1256                      .dwpsn  file "../c5535_bsl_revc/ezdsp5535_v1/c55xx_csl/ccs_v4.0_examples/mmc_sd/CSL_MMCSD_dmaExample/
    1257 000344 E61A          MOV #1, *SP(#13) ; |481| 
         000346 01   
TMS320C55x Assembler PC v4.4.1 Sat Sep 29 23:09:00 2018

Tools Copyright (c) 1996-2012 Texas Instruments Incorporated
csl_mmcsd_dma_example.asm                                            PAGE   28

    1258                      .dwpsn  file "../c5535_bsl_revc/ezdsp5535_v1/c55xx_csl/ccs_v4.0_examples/mmc_sd/CSL_MMCSD_dmaExample/
    1259 000347 ED31          MOV dbl(*(#_mmcsdHandle)), XAR3
         000349 BF00 
         00034b 0040-
    1260 00034d ED75          MOV dbl(*AR3(short(#2))), XAR3
         00034f BF   
    1261 000350 F06D          CMP *AR3(#26) == #1, TC1 ; |484| 
         000352 0001 
         000354 001A 
    1262 000356 0474          BCC $C$L25,!TC1 ; |484| 
         000358 22   
    1263                                                      ; branchcc occurs ; |484| 
    1264                      .dwpsn  file "../c5535_bsl_revc/ezdsp5535_v1/c55xx_csl/ccs_v4.0_examples/mmc_sd/CSL_MMCSD_dmaExample/
    1265 000359 EC31          AMOV #$C$FSL23, XAR3 ; |486| 
         00035b BE00 
         00035d 02B6+
    1266 00035f EB00          MOV XAR3, dbl(*SP(#0))
         000361 B5   
    1267              $C$DW$168       .dwtag  DW_TAG_TI_branch
    1268                      .dwattr $C$DW$168, DW_AT_low_pc(0x00)
    1269                      .dwattr $C$DW$168, DW_AT_name("_printf")
    1270                      .dwattr $C$DW$168, DW_AT_TI_call
    1271 000362 6C00          CALL #_printf ; |486| 
         000364 0000!
    1272                                                      ; call occurs [#_printf] ; |486| 
    1273                      .dwpsn  file "../c5535_bsl_revc/ezdsp5535_v1/c55xx_csl/ccs_v4.0_examples/mmc_sd/CSL_MMCSD_dmaExample/
    1274 000366 EC31          AMOV #$C$FSL24, XAR3 ; |487| 
         000368 BE00 
         00036a 02D6+
    1275 00036c EB00          MOV XAR3, dbl(*SP(#0))
         00036e B5   
    1276              $C$DW$169       .dwtag  DW_TAG_TI_branch
    1277                      .dwattr $C$DW$169, DW_AT_low_pc(0x00)
    1278                      .dwattr $C$DW$169, DW_AT_name("_printf")
    1279                      .dwattr $C$DW$169, DW_AT_TI_call
    1280 00036f 6C00          CALL #_printf ; |487| 
         000371 0000!
    1281                                                      ; call occurs [#_printf] ; |487| 
    1282                      .dwpsn  file "../c5535_bsl_revc/ezdsp5535_v1/c55xx_csl/ccs_v4.0_examples/mmc_sd/CSL_MMCSD_dmaExample/
    1283 000373 ED08          MOV dbl(*SP(#4)), AC0 ; |491| 
         000375 08   
    1284 000376 EB0C          MOV AC0, dbl(*SP(#6)) ; |491| 
         000378 08   
    1285                      .dwpsn  file "../c5535_bsl_revc/ezdsp5535_v1/c55xx_csl/ccs_v4.0_examples/mmc_sd/CSL_MMCSD_dmaExample/
    1286 000379 4A23          B $C$L26  ; |492| 
    1287                                                      ; branch occurs ; |492| 
    1288 00037b       $C$L25:    
    1289                      .dwpsn  file "../c5535_bsl_revc/ezdsp5535_v1/c55xx_csl/ccs_v4.0_examples/mmc_sd/CSL_MMCSD_dmaExample/
    1290 00037b EC31          AMOV #$C$FSL25, XAR3 ; |495| 
         00037d BE00 
         00037f 02FC+
    1291 000381 EB00          MOV XAR3, dbl(*SP(#0))
         000383 B5   
    1292              $C$DW$170       .dwtag  DW_TAG_TI_branch
    1293                      .dwattr $C$DW$170, DW_AT_low_pc(0x00)
TMS320C55x Assembler PC v4.4.1 Sat Sep 29 23:09:00 2018

Tools Copyright (c) 1996-2012 Texas Instruments Incorporated
csl_mmcsd_dma_example.asm                                            PAGE   29

    1294                      .dwattr $C$DW$170, DW_AT_name("_printf")
    1295                      .dwattr $C$DW$170, DW_AT_TI_call
    1296 000384 6C00          CALL #_printf ; |495| 
         000386 0000!
    1297                                                      ; call occurs [#_printf] ; |495| 
    1298                      .dwpsn  file "../c5535_bsl_revc/ezdsp5535_v1/c55xx_csl/ccs_v4.0_examples/mmc_sd/CSL_MMCSD_dmaExample/
    1299 000388 EC31          AMOV #$C$FSL26, XAR3 ; |496| 
         00038a BE00 
         00038c 0320+
    1300 00038e EB00          MOV XAR3, dbl(*SP(#0))
         000390 B5   
    1301              $C$DW$171       .dwtag  DW_TAG_TI_branch
    1302                      .dwattr $C$DW$171, DW_AT_low_pc(0x00)
    1303                      .dwattr $C$DW$171, DW_AT_name("_printf")
    1304                      .dwattr $C$DW$171, DW_AT_TI_call
    1305 000391 6C00          CALL #_printf ; |496| 
         000393 0000!
    1306                                                      ; call occurs [#_printf] ; |496| 
    1307                      .dwpsn  file "../c5535_bsl_revc/ezdsp5535_v1/c55xx_csl/ccs_v4.0_examples/mmc_sd/CSL_MMCSD_dmaExample/
    1308 000395 ED08          MOV dbl(*SP(#4)), AC0 ; |500| 
         000397 08   
    1309 000398 1007          SFTL AC0, #9, AC0 ; |500| 
         00039a 09   
    1310 00039b EB0C          MOV AC0, dbl(*SP(#6)) ; |500| 
         00039d 08   
    1311 00039e       $C$L26:    
    1312                      .dwpsn  file "../c5535_bsl_revc/ezdsp5535_v1/c55xx_csl/ccs_v4.0_examples/mmc_sd/CSL_MMCSD_dmaExample/
    1313 00039e ED31          MOV dbl(*(#_mmcsdHandle)), XAR0
         0003a0 8F00 
         0003a2 0040-
    1314 0003a4 7600          MOV #70, T0 ; |504| 
         0003a6 4648 
    1315              $C$DW$172       .dwtag  DW_TAG_TI_branch
    1316                      .dwattr $C$DW$172, DW_AT_low_pc(0x00)
    1317                      .dwattr $C$DW$172, DW_AT_name("_MMC_sendOpCond")
    1318                      .dwattr $C$DW$172, DW_AT_TI_call
    1319 0003a8 6C00          CALL #_MMC_sendOpCond ; |504| 
         0003aa 0000!
    1320                                                      ; call occurs [#_MMC_sendOpCond] ; |504| 
    1321 0003ac C410          MOV T0, *SP(#8) ; |504| 
    1322                      .dwpsn  file "../c5535_bsl_revc/ezdsp5535_v1/c55xx_csl/ccs_v4.0_examples/mmc_sd/CSL_MMCSD_dmaExample/
    1323 0003ae 2249          MOV T0, AR1
    1324 0003b0 0409          BCC $C$L27,AR1 == #0 ; |505| 
         0003b2 12   
    1325                                                      ; branchcc occurs ; |505| 
    1326                      .dwpsn  file "../c5535_bsl_revc/ezdsp5535_v1/c55xx_csl/ccs_v4.0_examples/mmc_sd/CSL_MMCSD_dmaExample/
    1327 0003b3 EC31          AMOV #$C$FSL27, XAR3 ; |507| 
         0003b5 BE00 
         0003b7 0346+
    1328 0003b9 EB00          MOV XAR3, dbl(*SP(#0))
         0003bb B5   
    1329              $C$DW$173       .dwtag  DW_TAG_TI_branch
    1330                      .dwattr $C$DW$173, DW_AT_low_pc(0x00)
    1331                      .dwattr $C$DW$173, DW_AT_name("_printf")
    1332                      .dwattr $C$DW$173, DW_AT_TI_call
TMS320C55x Assembler PC v4.4.1 Sat Sep 29 23:09:00 2018

Tools Copyright (c) 1996-2012 Texas Instruments Incorporated
csl_mmcsd_dma_example.asm                                            PAGE   30

    1333 0003bc 6C00          CALL #_printf ; |507| 
         0003be 0000!
    1334                                                      ; call occurs [#_printf] ; |507| 
    1335                      .dwpsn  file "../c5535_bsl_revc/ezdsp5535_v1/c55xx_csl/ccs_v4.0_examples/mmc_sd/CSL_MMCSD_dmaExample/
    1336 0003c0 A410          MOV *SP(#8), T0 ; |508| 
    1337 0003c2 0602          B $C$L45  ; |508| 
         0003c4 87   
    1338                                                      ; branch occurs ; |508| 
    1339 0003c5       $C$L27:    
    1340                      .dwpsn  file "../c5535_bsl_revc/ezdsp5535_v1/c55xx_csl/ccs_v4.0_examples/mmc_sd/CSL_MMCSD_dmaExample/
    1341 0003c5 ED31          MOV dbl(*(#_mmcsdHandle)), XAR0
         0003c7 8F00 
         0003c9 0040-
    1342 0003cb EC31          AMOV #_cardIdObj, XAR1 ; |512| 
         0003cd 9E00 
         0003cf 0060-
    1343              $C$DW$174       .dwtag  DW_TAG_TI_branch
    1344                      .dwattr $C$DW$174, DW_AT_low_pc(0x00)
    1345                      .dwattr $C$DW$174, DW_AT_name("_SD_sendAllCID")
    1346                      .dwattr $C$DW$174, DW_AT_TI_call
    1347 0003d1 6C00          CALL #_SD_sendAllCID ; |512| 
         0003d3 0000!
    1348                                                      ; call occurs [#_SD_sendAllCID] ; |512| 
    1349 0003d5 C410          MOV T0, *SP(#8) ; |512| 
    1350                      .dwpsn  file "../c5535_bsl_revc/ezdsp5535_v1/c55xx_csl/ccs_v4.0_examples/mmc_sd/CSL_MMCSD_dmaExample/
    1351 0003d7 2249          MOV T0, AR1
    1352 0003d9 0409          BCC $C$L28,AR1 == #0 ; |513| 
         0003db 12   
    1353                                                      ; branchcc occurs ; |513| 
    1354                      .dwpsn  file "../c5535_bsl_revc/ezdsp5535_v1/c55xx_csl/ccs_v4.0_examples/mmc_sd/CSL_MMCSD_dmaExample/
    1355 0003dc EC31          AMOV #$C$FSL28, XAR3 ; |515| 
         0003de BE00 
         0003e0 0362+
    1356 0003e2 EB00          MOV XAR3, dbl(*SP(#0))
         0003e4 B5   
    1357              $C$DW$175       .dwtag  DW_TAG_TI_branch
    1358                      .dwattr $C$DW$175, DW_AT_low_pc(0x00)
    1359                      .dwattr $C$DW$175, DW_AT_name("_printf")
    1360                      .dwattr $C$DW$175, DW_AT_TI_call
    1361 0003e5 6C00          CALL #_printf ; |515| 
         0003e7 0000!
    1362                                                      ; call occurs [#_printf] ; |515| 
    1363                      .dwpsn  file "../c5535_bsl_revc/ezdsp5535_v1/c55xx_csl/ccs_v4.0_examples/mmc_sd/CSL_MMCSD_dmaExample/
    1364 0003e9 A410          MOV *SP(#8), T0 ; |516| 
    1365 0003eb 0602          B $C$L45  ; |516| 
         0003ed 5E   
    1366                                                      ; branch occurs ; |516| 
    1367 0003ee       $C$L28:    
    1368                      .dwpsn  file "../c5535_bsl_revc/ezdsp5535_v1/c55xx_csl/ccs_v4.0_examples/mmc_sd/CSL_MMCSD_dmaExample/
    1369 0003ee EC16          AMAR *SP(#11), XAR2
         0003f0 AE   
    1370 0003f1 ED31          MOV dbl(*(#_mmcsdHandle)), XAR0
         0003f3 8F00 
         0003f5 0040-
    1371 0003f7 EC31          AMOV #_mmcCardObj, XAR1 ; |520| 
TMS320C55x Assembler PC v4.4.1 Sat Sep 29 23:09:00 2018

Tools Copyright (c) 1996-2012 Texas Instruments Incorporated
csl_mmcsd_dma_example.asm                                            PAGE   31

         0003f9 9E00 
         0003fb 0042-
    1372              $C$DW$176       .dwtag  DW_TAG_TI_branch
    1373                      .dwattr $C$DW$176, DW_AT_low_pc(0x00)
    1374                      .dwattr $C$DW$176, DW_AT_name("_SD_sendRca")
    1375                      .dwattr $C$DW$176, DW_AT_TI_call
    1376 0003fd 6C00          CALL #_SD_sendRca ; |520| 
         0003ff 0000!
    1377                                                      ; call occurs [#_SD_sendRca] ; |520| 
    1378 000401 C410          MOV T0, *SP(#8) ; |520| 
    1379                      .dwpsn  file "../c5535_bsl_revc/ezdsp5535_v1/c55xx_csl/ccs_v4.0_examples/mmc_sd/CSL_MMCSD_dmaExample/
    1380 000403 2249          MOV T0, AR1
    1381 000405 0409          BCC $C$L29,AR1 == #0 ; |521| 
         000407 12   
    1382                                                      ; branchcc occurs ; |521| 
    1383                      .dwpsn  file "../c5535_bsl_revc/ezdsp5535_v1/c55xx_csl/ccs_v4.0_examples/mmc_sd/CSL_MMCSD_dmaExample/
    1384 000408 EC31          AMOV #$C$FSL29, XAR3 ; |523| 
         00040a BE00 
         00040c 037E+
    1385 00040e EB00          MOV XAR3, dbl(*SP(#0))
         000410 B5   
    1386              $C$DW$177       .dwtag  DW_TAG_TI_branch
    1387                      .dwattr $C$DW$177, DW_AT_low_pc(0x00)
    1388                      .dwattr $C$DW$177, DW_AT_name("_printf")
    1389                      .dwattr $C$DW$177, DW_AT_TI_call
    1390 000411 6C00          CALL #_printf ; |523| 
         000413 0000!
    1391                                                      ; call occurs [#_printf] ; |523| 
    1392                      .dwpsn  file "../c5535_bsl_revc/ezdsp5535_v1/c55xx_csl/ccs_v4.0_examples/mmc_sd/CSL_MMCSD_dmaExample/
    1393 000415 A410          MOV *SP(#8), T0 ; |524| 
    1394 000417 0602          B $C$L45  ; |524| 
         000419 32   
    1395                                                      ; branch occurs ; |524| 
    1396 00041a       $C$L29:    
    1397                      .dwpsn  file "../c5535_bsl_revc/ezdsp5535_v1/c55xx_csl/ccs_v4.0_examples/mmc_sd/CSL_MMCSD_dmaExample/
    1398 00041a ED31          MOV dbl(*(#_mmcsdHandle)), XAR0
         00041c 8F00 
         00041e 0040-
    1399 000420 EC31          AMOV #_cardCsdObj, XAR1 ; |528| 
         000422 9E00 
         000424 0070-
    1400              $C$DW$178       .dwtag  DW_TAG_TI_branch
    1401                      .dwattr $C$DW$178, DW_AT_low_pc(0x00)
    1402                      .dwattr $C$DW$178, DW_AT_name("_SD_getCardCsd")
    1403                      .dwattr $C$DW$178, DW_AT_TI_call
    1404 000426 6C00          CALL #_SD_getCardCsd ; |528| 
         000428 0000!
    1405                                                      ; call occurs [#_SD_getCardCsd] ; |528| 
    1406 00042a C410          MOV T0, *SP(#8) ; |528| 
    1407                      .dwpsn  file "../c5535_bsl_revc/ezdsp5535_v1/c55xx_csl/ccs_v4.0_examples/mmc_sd/CSL_MMCSD_dmaExample/
    1408 00042c 2249          MOV T0, AR1
    1409 00042e 0409          BCC $C$L30,AR1 == #0 ; |529| 
         000430 12   
    1410                                                      ; branchcc occurs ; |529| 
    1411                      .dwpsn  file "../c5535_bsl_revc/ezdsp5535_v1/c55xx_csl/ccs_v4.0_examples/mmc_sd/CSL_MMCSD_dmaExample/
TMS320C55x Assembler PC v4.4.1 Sat Sep 29 23:09:00 2018

Tools Copyright (c) 1996-2012 Texas Instruments Incorporated
csl_mmcsd_dma_example.asm                                            PAGE   32

    1412 000431 EC31          AMOV #$C$FSL30, XAR3 ; |531| 
         000433 BE00 
         000435 0396+
    1413 000437 EB00          MOV XAR3, dbl(*SP(#0))
         000439 B5   
    1414              $C$DW$179       .dwtag  DW_TAG_TI_branch
    1415                      .dwattr $C$DW$179, DW_AT_low_pc(0x00)
    1416                      .dwattr $C$DW$179, DW_AT_name("_printf")
    1417                      .dwattr $C$DW$179, DW_AT_TI_call
    1418 00043a 6C00          CALL #_printf ; |531| 
         00043c 0000!
    1419                                                      ; call occurs [#_printf] ; |531| 
    1420                      .dwpsn  file "../c5535_bsl_revc/ezdsp5535_v1/c55xx_csl/ccs_v4.0_examples/mmc_sd/CSL_MMCSD_dmaExample/
    1421 00043e A410          MOV *SP(#8), T0 ; |532| 
    1422 000440 0602          B $C$L45  ; |532| 
         000442 09   
    1423                                                      ; branch occurs ; |532| 
    1424 000443       $C$L30:    
    1425                      .dwpsn  file "../c5535_bsl_revc/ezdsp5535_v1/c55xx_csl/ccs_v4.0_examples/mmc_sd/CSL_MMCSD_dmaExample/
    1426 000443 764E          MOV #20000, AC0 ; |536| 
         000445 2008 
    1427              $C$DW$180       .dwtag  DW_TAG_TI_branch
    1428                      .dwattr $C$DW$180, DW_AT_low_pc(0x00)
    1429                      .dwattr $C$DW$180, DW_AT_name("_computeClkRate")
    1430                      .dwattr $C$DW$180, DW_AT_TI_call
    1431 000447 0808          CALL #_computeClkRate ; |536| 
         000449 BE   
    1432                                                      ; call occurs [#_computeClkRate] ; |536| 
    1433 00044a C418          MOV T0, *SP(#12) ; |536| 
    1434                      .dwpsn  file "../c5535_bsl_revc/ezdsp5535_v1/c55xx_csl/ccs_v4.0_examples/mmc_sd/CSL_MMCSD_dmaExample/
    1435 00044c 4A1F          B $C$L32  ; |537| 
    1436                                                      ; branch occurs ; |537| 
    1437 00044e       $C$L31:    
    1438                      .dwpsn  file "../c5535_bsl_revc/ezdsp5535_v1/c55xx_csl/ccs_v4.0_examples/mmc_sd/CSL_MMCSD_dmaExample/
    1439 00044e EC31          AMOV #$C$FSL31, XAR3 ; |540| 
         000450 BE00 
         000452 03B2+
    1440 000454 EB00          MOV XAR3, dbl(*SP(#0))
         000456 B5   
    1441              $C$DW$181       .dwtag  DW_TAG_TI_branch
    1442                      .dwattr $C$DW$181, DW_AT_low_pc(0x00)
    1443                      .dwattr $C$DW$181, DW_AT_name("_printf")
    1444                      .dwattr $C$DW$181, DW_AT_TI_call
    1445 000457 6C00          CALL #_printf ; |540| 
         000459 0000!
    1446                                                      ; call occurs [#_printf] ; |540| 
    1447                      .dwpsn  file "../c5535_bsl_revc/ezdsp5535_v1/c55xx_csl/ccs_v4.0_examples/mmc_sd/CSL_MMCSD_dmaExample/
    1448 00045b EC31          AMOV #$C$FSL32, XAR3 ; |541| 
         00045d BE00 
         00045f 03C6+
    1449 000461 EB00          MOV XAR3, dbl(*SP(#0))
         000463 B5   
    1450              $C$DW$182       .dwtag  DW_TAG_TI_branch
    1451                      .dwattr $C$DW$182, DW_AT_low_pc(0x00)
    1452                      .dwattr $C$DW$182, DW_AT_name("_printf")
TMS320C55x Assembler PC v4.4.1 Sat Sep 29 23:09:00 2018

Tools Copyright (c) 1996-2012 Texas Instruments Incorporated
csl_mmcsd_dma_example.asm                                            PAGE   33

    1453                      .dwattr $C$DW$182, DW_AT_TI_call
    1454 000464 6C00          CALL #_printf ; |541| 
         000466 0000!
    1455                                                      ; call occurs [#_printf] ; |541| 
    1456                      .dwpsn  file "../c5535_bsl_revc/ezdsp5535_v1/c55xx_csl/ccs_v4.0_examples/mmc_sd/CSL_MMCSD_dmaExample/
    1457 000468 3E14          MOV #-1, T0
    1458 00046a 0601          B $C$L45  ; |542| 
         00046c DF   
    1459                                                      ; branch occurs ; |542| 
    1460 00046d       $C$L32:    
    1461                      .dwpsn  file "../c5535_bsl_revc/ezdsp5535_v1/c55xx_csl/ccs_v4.0_examples/mmc_sd/CSL_MMCSD_dmaExample/
    1462 00046d A41A          MOV *SP(#13), T0 ; |546| 
    1463 00046f EC31          AMOV #_mmcCardObj, XAR0 ; |546| 
         000471 8E00 
         000473 0042-
    1464              $C$DW$183       .dwtag  DW_TAG_TI_branch
    1465                      .dwattr $C$DW$183, DW_AT_low_pc(0x00)
    1466                      .dwattr $C$DW$183, DW_AT_name("_MMC_setCardType")
    1467                      .dwattr $C$DW$183, DW_AT_TI_call
    1468 000475 6C00          CALL #_MMC_setCardType ; |546| 
         000477 0000!
    1469                                                      ; call occurs [#_MMC_setCardType] ; |546| 
    1470 000479 C410          MOV T0, *SP(#8) ; |546| 
    1471                      .dwpsn  file "../c5535_bsl_revc/ezdsp5535_v1/c55xx_csl/ccs_v4.0_examples/mmc_sd/CSL_MMCSD_dmaExample/
    1472 00047b 2249          MOV T0, AR1
    1473 00047d 0409          BCC $C$L33,AR1 == #0 ; |547| 
         00047f 12   
    1474                                                      ; branchcc occurs ; |547| 
    1475                      .dwpsn  file "../c5535_bsl_revc/ezdsp5535_v1/c55xx_csl/ccs_v4.0_examples/mmc_sd/CSL_MMCSD_dmaExample/
    1476 000480 EC31          AMOV #$C$FSL33, XAR3 ; |549| 
         000482 BE00 
         000484 03DC+
    1477 000486 EB00          MOV XAR3, dbl(*SP(#0))
         000488 B5   
    1478              $C$DW$184       .dwtag  DW_TAG_TI_branch
    1479                      .dwattr $C$DW$184, DW_AT_low_pc(0x00)
    1480                      .dwattr $C$DW$184, DW_AT_name("_printf")
    1481                      .dwattr $C$DW$184, DW_AT_TI_call
    1482 000489 6C00          CALL #_printf ; |549| 
         00048b 0000!
    1483                                                      ; call occurs [#_printf] ; |549| 
    1484                      .dwpsn  file "../c5535_bsl_revc/ezdsp5535_v1/c55xx_csl/ccs_v4.0_examples/mmc_sd/CSL_MMCSD_dmaExample/
    1485 00048d A410          MOV *SP(#8), T0 ; |550| 
    1486 00048f 0601          B $C$L45  ; |550| 
         000491 BA   
    1487                                                      ; branch occurs ; |550| 
    1488 000492       $C$L33:    
    1489                      .dwpsn  file "../c5535_bsl_revc/ezdsp5535_v1/c55xx_csl/ccs_v4.0_examples/mmc_sd/CSL_MMCSD_dmaExample/
    1490 000492 ED31          MOV dbl(*(#_mmcsdHandle)), XAR0
         000494 8F00 
         000496 0040-
    1491 000498 EC31          AMOV #_mmcCardObj, XAR1 ; |554| 
         00049a 9E00 
         00049c 0042-
    1492              $C$DW$185       .dwtag  DW_TAG_TI_branch
TMS320C55x Assembler PC v4.4.1 Sat Sep 29 23:09:00 2018

Tools Copyright (c) 1996-2012 Texas Instruments Incorporated
csl_mmcsd_dma_example.asm                                            PAGE   34

    1493                      .dwattr $C$DW$185, DW_AT_low_pc(0x00)
    1494                      .dwattr $C$DW$185, DW_AT_name("_MMC_setCardPtr")
    1495                      .dwattr $C$DW$185, DW_AT_TI_call
    1496 00049e 6C00          CALL #_MMC_setCardPtr ; |554| 
         0004a0 0000!
    1497                                                      ; call occurs [#_MMC_setCardPtr] ; |554| 
    1498 0004a2 C410          MOV T0, *SP(#8) ; |554| 
    1499                      .dwpsn  file "../c5535_bsl_revc/ezdsp5535_v1/c55xx_csl/ccs_v4.0_examples/mmc_sd/CSL_MMCSD_dmaExample/
    1500 0004a4 2249          MOV T0, AR1
    1501 0004a6 0409          BCC $C$L34,AR1 == #0 ; |555| 
         0004a8 12   
    1502                                                      ; branchcc occurs ; |555| 
    1503                      .dwpsn  file "../c5535_bsl_revc/ezdsp5535_v1/c55xx_csl/ccs_v4.0_examples/mmc_sd/CSL_MMCSD_dmaExample/
    1504 0004a9 EC31          AMOV #$C$FSL34, XAR3 ; |557| 
         0004ab BE00 
         0004ad 03FA+
    1505 0004af EB00          MOV XAR3, dbl(*SP(#0))
         0004b1 B5   
    1506              $C$DW$186       .dwtag  DW_TAG_TI_branch
    1507                      .dwattr $C$DW$186, DW_AT_low_pc(0x00)
    1508                      .dwattr $C$DW$186, DW_AT_name("_printf")
    1509                      .dwattr $C$DW$186, DW_AT_TI_call
    1510 0004b2 6C00          CALL #_printf ; |557| 
         0004b4 0000!
    1511                                                      ; call occurs [#_printf] ; |557| 
    1512                      .dwpsn  file "../c5535_bsl_revc/ezdsp5535_v1/c55xx_csl/ccs_v4.0_examples/mmc_sd/CSL_MMCSD_dmaExample/
    1513 0004b6 A410          MOV *SP(#8), T0 ; |558| 
    1514 0004b8 0601          B $C$L45  ; |558| 
         0004ba 91   
    1515                                                      ; branch occurs ; |558| 
    1516 0004bb       $C$L34:    
    1517                      .dwpsn  file "../c5535_bsl_revc/ezdsp5535_v1/c55xx_csl/ccs_v4.0_examples/mmc_sd/CSL_MMCSD_dmaExample/
    1518 0004bb EC14          AMAR *SP(#10), XAR1
         0004bd 9E   
    1519 0004be ED31          MOV dbl(*(#_mmcsdHandle)), XAR0
         0004c0 8F00 
         0004c2 0040-
    1520              $C$DW$187       .dwtag  DW_TAG_TI_branch
    1521                      .dwattr $C$DW$187, DW_AT_low_pc(0x00)
    1522                      .dwattr $C$DW$187, DW_AT_name("_MMC_getNumberOfCards")
    1523                      .dwattr $C$DW$187, DW_AT_TI_call
    1524 0004c4 6C00          CALL #_MMC_getNumberOfCards ; |562| 
         0004c6 0000!
    1525                                                      ; call occurs [#_MMC_getNumberOfCards] ; |562| 
    1526 0004c8 C410          MOV T0, *SP(#8) ; |562| 
    1527                      .dwpsn  file "../c5535_bsl_revc/ezdsp5535_v1/c55xx_csl/ccs_v4.0_examples/mmc_sd/CSL_MMCSD_dmaExample/
    1528 0004ca 2249          MOV T0, AR1
    1529 0004cc 0409          BCC $C$L35,AR1 == #0 ; |563| 
         0004ce 12   
    1530                                                      ; branchcc occurs ; |563| 
    1531                      .dwpsn  file "../c5535_bsl_revc/ezdsp5535_v1/c55xx_csl/ccs_v4.0_examples/mmc_sd/CSL_MMCSD_dmaExample/
    1532 0004cf EC31          AMOV #$C$FSL35, XAR3 ; |565| 
         0004d1 BE00 
         0004d3 0416+
    1533 0004d5 EB00          MOV XAR3, dbl(*SP(#0))
TMS320C55x Assembler PC v4.4.1 Sat Sep 29 23:09:00 2018

Tools Copyright (c) 1996-2012 Texas Instruments Incorporated
csl_mmcsd_dma_example.asm                                            PAGE   35

         0004d7 B5   
    1534              $C$DW$188       .dwtag  DW_TAG_TI_branch
    1535                      .dwattr $C$DW$188, DW_AT_low_pc(0x00)
    1536                      .dwattr $C$DW$188, DW_AT_name("_printf")
    1537                      .dwattr $C$DW$188, DW_AT_TI_call
    1538 0004d8 6C00          CALL #_printf ; |565| 
         0004da 0000!
    1539                                                      ; call occurs [#_printf] ; |565| 
    1540                      .dwpsn  file "../c5535_bsl_revc/ezdsp5535_v1/c55xx_csl/ccs_v4.0_examples/mmc_sd/CSL_MMCSD_dmaExample/
    1541 0004dc A410          MOV *SP(#8), T0 ; |566| 
    1542 0004de 0601          B $C$L45  ; |566| 
         0004e0 6B   
    1543                                                      ; branch occurs ; |566| 
    1544 0004e1       $C$L35:    
    1545                      .dwpsn  file "../c5535_bsl_revc/ezdsp5535_v1/c55xx_csl/ccs_v4.0_examples/mmc_sd/CSL_MMCSD_dmaExample/
    1546 0004e1 A418          MOV *SP(#12), T0 ; |570| 
    1547 0004e3 ED31          MOV dbl(*(#_mmcsdHandle)), XAR0
         0004e5 8F00 
         0004e7 0040-
    1548              $C$DW$189       .dwtag  DW_TAG_TI_branch
    1549                      .dwattr $C$DW$189, DW_AT_low_pc(0x00)
    1550                      .dwattr $C$DW$189, DW_AT_name("_MMC_sendOpCond")
    1551                      .dwattr $C$DW$189, DW_AT_TI_call
    1552 0004e9 6C00          CALL #_MMC_sendOpCond ; |570| 
         0004eb 0000!
    1553                                                      ; call occurs [#_MMC_sendOpCond] ; |570| 
    1554 0004ed C410          MOV T0, *SP(#8) ; |570| 
    1555                      .dwpsn  file "../c5535_bsl_revc/ezdsp5535_v1/c55xx_csl/ccs_v4.0_examples/mmc_sd/CSL_MMCSD_dmaExample/
    1556 0004ef 2249          MOV T0, AR1
    1557 0004f1 0409          BCC $C$L36,AR1 == #0 ; |571| 
         0004f3 12   
    1558                                                      ; branchcc occurs ; |571| 
    1559                      .dwpsn  file "../c5535_bsl_revc/ezdsp5535_v1/c55xx_csl/ccs_v4.0_examples/mmc_sd/CSL_MMCSD_dmaExample/
    1560 0004f4 EC31          AMOV #$C$FSL27, XAR3 ; |573| 
         0004f6 BE00 
         0004f8 0346+
    1561 0004fa EB00          MOV XAR3, dbl(*SP(#0))
         0004fc B5   
    1562              $C$DW$190       .dwtag  DW_TAG_TI_branch
    1563                      .dwattr $C$DW$190, DW_AT_low_pc(0x00)
    1564                      .dwattr $C$DW$190, DW_AT_name("_printf")
    1565                      .dwattr $C$DW$190, DW_AT_TI_call
    1566 0004fd 6C00          CALL #_printf ; |573| 
         0004ff 0000!
    1567                                                      ; call occurs [#_printf] ; |573| 
    1568                      .dwpsn  file "../c5535_bsl_revc/ezdsp5535_v1/c55xx_csl/ccs_v4.0_examples/mmc_sd/CSL_MMCSD_dmaExample/
    1569 000501 A410          MOV *SP(#8), T0 ; |574| 
    1570 000503 0601          B $C$L45  ; |574| 
         000505 46   
    1571                                                      ; branch occurs ; |574| 
    1572 000506       $C$L36:    
    1573                      .dwpsn  file "../c5535_bsl_revc/ezdsp5535_v1/c55xx_csl/ccs_v4.0_examples/mmc_sd/CSL_MMCSD_dmaExample/
    1574 000506 ED31          MOV dbl(*(#_mmcsdHandle)), XAR0
         000508 8F00 
         00050a 0040-
TMS320C55x Assembler PC v4.4.1 Sat Sep 29 23:09:00 2018

Tools Copyright (c) 1996-2012 Texas Instruments Incorporated
csl_mmcsd_dma_example.asm                                            PAGE   36

    1575 00050c 3C04          MOV #0, T0
    1576              $C$DW$191       .dwtag  DW_TAG_TI_branch
    1577                      .dwattr $C$DW$191, DW_AT_low_pc(0x00)
    1578                      .dwattr $C$DW$191, DW_AT_name("_MMC_setEndianMode")
    1579                      .dwattr $C$DW$191, DW_AT_TI_call
    1580              
    1581 00050e 6C00          CALL #_MMC_setEndianMode ; |578| 
         000510 0000!
    1582 000512 3D05  ||      MOV #0, T1
    1583              
    1584                                                      ; call occurs [#_MMC_setEndianMode] ; |578| 
    1585 000514 C410          MOV T0, *SP(#8) ; |578| 
    1586                      .dwpsn  file "../c5535_bsl_revc/ezdsp5535_v1/c55xx_csl/ccs_v4.0_examples/mmc_sd/CSL_MMCSD_dmaExample/
    1587 000516 2249          MOV T0, AR1
    1588 000518 0409          BCC $C$L37,AR1 == #0 ; |580| 
         00051a 12   
    1589                                                      ; branchcc occurs ; |580| 
    1590                      .dwpsn  file "../c5535_bsl_revc/ezdsp5535_v1/c55xx_csl/ccs_v4.0_examples/mmc_sd/CSL_MMCSD_dmaExample/
    1591 00051b EC31          AMOV #$C$FSL36, XAR3 ; |582| 
         00051d BE00 
         00051f 0438+
    1592 000521 EB00          MOV XAR3, dbl(*SP(#0))
         000523 B5   
    1593              $C$DW$192       .dwtag  DW_TAG_TI_branch
    1594                      .dwattr $C$DW$192, DW_AT_low_pc(0x00)
    1595                      .dwattr $C$DW$192, DW_AT_name("_printf")
    1596                      .dwattr $C$DW$192, DW_AT_TI_call
    1597 000524 6C00          CALL #_printf ; |582| 
         000526 0000!
    1598                                                      ; call occurs [#_printf] ; |582| 
    1599                      .dwpsn  file "../c5535_bsl_revc/ezdsp5535_v1/c55xx_csl/ccs_v4.0_examples/mmc_sd/CSL_MMCSD_dmaExample/
    1600 000528 A410          MOV *SP(#8), T0 ; |583| 
    1601 00052a 0601          B $C$L45  ; |583| 
         00052c 1F   
    1602                                                      ; branch occurs ; |583| 
    1603 00052d       $C$L37:    
    1604                      .dwpsn  file "../c5535_bsl_revc/ezdsp5535_v1/c55xx_csl/ccs_v4.0_examples/mmc_sd/CSL_MMCSD_dmaExample/
    1605 00052d ED31          MOV dbl(*(#_mmcsdHandle)), XAR0
         00052f 8F00 
         000531 0040-
    1606 000533 7602          MOV #512, AC0 ; |590| 
         000535 0008 
    1607              $C$DW$193       .dwtag  DW_TAG_TI_branch
    1608                      .dwattr $C$DW$193, DW_AT_low_pc(0x00)
    1609                      .dwattr $C$DW$193, DW_AT_name("_MMC_setBlockLength")
    1610                      .dwattr $C$DW$193, DW_AT_TI_call
    1611 000537 6C00          CALL #_MMC_setBlockLength ; |590| 
         000539 0000!
    1612                                                      ; call occurs [#_MMC_setBlockLength] ; |590| 
    1613 00053b C410          MOV T0, *SP(#8) ; |590| 
    1614                      .dwpsn  file "../c5535_bsl_revc/ezdsp5535_v1/c55xx_csl/ccs_v4.0_examples/mmc_sd/CSL_MMCSD_dmaExample/
    1615 00053d 2249          MOV T0, AR1
    1616 00053f 0409          BCC $C$L38,AR1 == #0 ; |591| 
         000541 12   
    1617                                                      ; branchcc occurs ; |591| 
TMS320C55x Assembler PC v4.4.1 Sat Sep 29 23:09:00 2018

Tools Copyright (c) 1996-2012 Texas Instruments Incorporated
csl_mmcsd_dma_example.asm                                            PAGE   37

    1618                      .dwpsn  file "../c5535_bsl_revc/ezdsp5535_v1/c55xx_csl/ccs_v4.0_examples/mmc_sd/CSL_MMCSD_dmaExample/
    1619 000542 EC31          AMOV #$C$FSL37, XAR3 ; |593| 
         000544 BE00 
         000546 0458+
    1620 000548 EB00          MOV XAR3, dbl(*SP(#0))
         00054a B5   
    1621              $C$DW$194       .dwtag  DW_TAG_TI_branch
    1622                      .dwattr $C$DW$194, DW_AT_low_pc(0x00)
    1623                      .dwattr $C$DW$194, DW_AT_name("_printf")
    1624                      .dwattr $C$DW$194, DW_AT_TI_call
    1625 00054b 6C00          CALL #_printf ; |593| 
         00054d 0000!
    1626                                                      ; call occurs [#_printf] ; |593| 
    1627                      .dwpsn  file "../c5535_bsl_revc/ezdsp5535_v1/c55xx_csl/ccs_v4.0_examples/mmc_sd/CSL_MMCSD_dmaExample/
    1628 00054f A410          MOV *SP(#8), T0 ; |594| 
    1629 000551 0600          B $C$L45  ; |594| 
         000553 F8   
    1630                                                      ; branch occurs ; |594| 
    1631 000554       $C$L38:    
    1632                      .dwpsn  file "../c5535_bsl_revc/ezdsp5535_v1/c55xx_csl/ccs_v4.0_examples/mmc_sd/CSL_MMCSD_dmaExample/
    1633 000554 ED0C          MOV dbl(*SP(#6)), AC0 ; |598| 
         000556 08   
    1634 000557 ED31          MOV dbl(*(#_mmcsdHandle)), XAR0
         000559 8F00 
         00055b 0040-
    1635 00055d EC31          AMOV #_gWriteTempBuff, XAR1 ; |598| 
         00055f 9E00 
         000561 04B0-
    1636 000563 7602          MOV #512, T0 ; |598| 
         000565 0048 
    1637              $C$DW$195       .dwtag  DW_TAG_TI_branch
    1638                      .dwattr $C$DW$195, DW_AT_low_pc(0x00)
    1639                      .dwattr $C$DW$195, DW_AT_name("_MMC_write")
    1640                      .dwattr $C$DW$195, DW_AT_TI_call
    1641 000567 6C00          CALL #_MMC_write ; |598| 
         000569 0000!
    1642                                                      ; call occurs [#_MMC_write] ; |598| 
    1643 00056b C410          MOV T0, *SP(#8) ; |598| 
    1644                      .dwpsn  file "../c5535_bsl_revc/ezdsp5535_v1/c55xx_csl/ccs_v4.0_examples/mmc_sd/CSL_MMCSD_dmaExample/
    1645 00056d 2249          MOV T0, AR1
    1646 00056f 0409          BCC $C$L39,AR1 == #0 ; |600| 
         000571 12   
    1647                                                      ; branchcc occurs ; |600| 
    1648                      .dwpsn  file "../c5535_bsl_revc/ezdsp5535_v1/c55xx_csl/ccs_v4.0_examples/mmc_sd/CSL_MMCSD_dmaExample/
    1649 000572 EC31          AMOV #$C$FSL38, XAR3 ; |602| 
         000574 BE00 
         000576 0478+
    1650 000578 EB00          MOV XAR3, dbl(*SP(#0))
         00057a B5   
    1651              $C$DW$196       .dwtag  DW_TAG_TI_branch
    1652                      .dwattr $C$DW$196, DW_AT_low_pc(0x00)
    1653                      .dwattr $C$DW$196, DW_AT_name("_printf")
    1654                      .dwattr $C$DW$196, DW_AT_TI_call
    1655 00057b 6C00          CALL #_printf ; |602| 
         00057d 0000!
TMS320C55x Assembler PC v4.4.1 Sat Sep 29 23:09:00 2018

Tools Copyright (c) 1996-2012 Texas Instruments Incorporated
csl_mmcsd_dma_example.asm                                            PAGE   38

    1656                                                      ; call occurs [#_printf] ; |602| 
    1657                      .dwpsn  file "../c5535_bsl_revc/ezdsp5535_v1/c55xx_csl/ccs_v4.0_examples/mmc_sd/CSL_MMCSD_dmaExample/
    1658 00057f A410          MOV *SP(#8), T0 ; |603| 
    1659 000581 0600          B $C$L45  ; |603| 
         000583 C8   
    1660                                                      ; branch occurs ; |603| 
    1661 000584       $C$L39:    
    1662                      .dwpsn  file "../c5535_bsl_revc/ezdsp5535_v1/c55xx_csl/ccs_v4.0_examples/mmc_sd/CSL_MMCSD_dmaExample/
    1663 000584 EC31          AMOV #$C$FSL39, XAR3 ; |607| 
         000586 BE00 
         000588 0490+
    1664 00058a EB00          MOV XAR3, dbl(*SP(#0))
         00058c B5   
    1665              $C$DW$197       .dwtag  DW_TAG_TI_branch
    1666                      .dwattr $C$DW$197, DW_AT_low_pc(0x00)
    1667                      .dwattr $C$DW$197, DW_AT_name("_printf")
    1668                      .dwattr $C$DW$197, DW_AT_TI_call
    1669 00058d 6C00          CALL #_printf ; |607| 
         00058f 0000!
    1670                                                      ; call occurs [#_printf] ; |607| 
    1671                      .dwpsn  file "../c5535_bsl_revc/ezdsp5535_v1/c55xx_csl/ccs_v4.0_examples/mmc_sd/CSL_MMCSD_dmaExample/
    1672 000591 7602          MOV #512, T0 ; |611| 
         000593 0048 
    1673 000595 EC31          AMOV #_gReadBuff, XAR1 ; |611| 
         000597 9E00 
         000599 00B0-
    1674 00059b ED31          MOV dbl(*(#_mmcsdHandle)), XAR0
         00059d 8F00 
         00059f 0040-
    1675 0005a1 ED0C          MOV dbl(*SP(#6)), AC0 ; |611| 
         0005a3 08   
    1676              $C$DW$198       .dwtag  DW_TAG_TI_branch
    1677                      .dwattr $C$DW$198, DW_AT_low_pc(0x00)
    1678                      .dwattr $C$DW$198, DW_AT_name("_MMC_read")
    1679                      .dwattr $C$DW$198, DW_AT_TI_call
    1680 0005a4 6C00          CALL #_MMC_read ; |611| 
         0005a6 0000!
    1681                                                      ; call occurs [#_MMC_read] ; |611| 
    1682 0005a8 C410          MOV T0, *SP(#8) ; |611| 
    1683                      .dwpsn  file "../c5535_bsl_revc/ezdsp5535_v1/c55xx_csl/ccs_v4.0_examples/mmc_sd/CSL_MMCSD_dmaExample/
    1684 0005aa 2249          MOV T0, AR1
    1685 0005ac 0409          BCC $C$L40,AR1 == #0 ; |612| 
         0005ae 12   
    1686                                                      ; branchcc occurs ; |612| 
    1687                      .dwpsn  file "../c5535_bsl_revc/ezdsp5535_v1/c55xx_csl/ccs_v4.0_examples/mmc_sd/CSL_MMCSD_dmaExample/
    1688 0005af EC31          AMOV #$C$FSL40, XAR3 ; |614| 
         0005b1 BE00 
         0005b3 04AC+
    1689 0005b5 EB00          MOV XAR3, dbl(*SP(#0))
         0005b7 B5   
    1690              $C$DW$199       .dwtag  DW_TAG_TI_branch
    1691                      .dwattr $C$DW$199, DW_AT_low_pc(0x00)
    1692                      .dwattr $C$DW$199, DW_AT_name("_printf")
    1693                      .dwattr $C$DW$199, DW_AT_TI_call
    1694 0005b8 6C00          CALL #_printf ; |614| 
TMS320C55x Assembler PC v4.4.1 Sat Sep 29 23:09:00 2018

Tools Copyright (c) 1996-2012 Texas Instruments Incorporated
csl_mmcsd_dma_example.asm                                            PAGE   39

         0005ba 0000!
    1695                                                      ; call occurs [#_printf] ; |614| 
    1696                      .dwpsn  file "../c5535_bsl_revc/ezdsp5535_v1/c55xx_csl/ccs_v4.0_examples/mmc_sd/CSL_MMCSD_dmaExample/
    1697 0005bc A410          MOV *SP(#8), T0 ; |615| 
    1698 0005be 0600          B $C$L45  ; |615| 
         0005c0 8B   
    1699                                                      ; branch occurs ; |615| 
    1700 0005c1       $C$L40:    
    1701                      .dwpsn  file "../c5535_bsl_revc/ezdsp5535_v1/c55xx_csl/ccs_v4.0_examples/mmc_sd/CSL_MMCSD_dmaExample/
    1702 0005c1 EC31          AMOV #$C$FSL41, XAR3 ; |619| 
         0005c3 BE00 
         0005c5 04C2+
    1703 0005c7 EB00          MOV XAR3, dbl(*SP(#0))
         0005c9 B5   
    1704              $C$DW$200       .dwtag  DW_TAG_TI_branch
    1705                      .dwattr $C$DW$200, DW_AT_low_pc(0x00)
    1706                      .dwattr $C$DW$200, DW_AT_name("_printf")
    1707                      .dwattr $C$DW$200, DW_AT_TI_call
    1708 0005ca 6C00          CALL #_printf ; |619| 
         0005cc 0000!
    1709                                                      ; call occurs [#_printf] ; |619| 
    1710                      .dwpsn  file "../c5535_bsl_revc/ezdsp5535_v1/c55xx_csl/ccs_v4.0_examples/mmc_sd/CSL_MMCSD_dmaExample/
    1711 0005ce ED31          MOV dbl(*(#_mmcsdHandle)), XAR0
         0005d0 8F00 
         0005d2 0040-
    1712              $C$DW$201       .dwtag  DW_TAG_TI_branch
    1713                      .dwattr $C$DW$201, DW_AT_low_pc(0x00)
    1714                      .dwattr $C$DW$201, DW_AT_name("_MMC_close")
    1715                      .dwattr $C$DW$201, DW_AT_TI_call
    1716 0005d4 6C00          CALL #_MMC_close ; |623| 
         0005d6 0000!
    1717                                                      ; call occurs [#_MMC_close] ; |623| 
    1718 0005d8 C410          MOV T0, *SP(#8) ; |623| 
    1719                      .dwpsn  file "../c5535_bsl_revc/ezdsp5535_v1/c55xx_csl/ccs_v4.0_examples/mmc_sd/CSL_MMCSD_dmaExample/
    1720 0005da 2249          MOV T0, AR1
    1721 0005dc 0409          BCC $C$L41,AR1 == #0 ; |624| 
         0005de 12   
    1722                                                      ; branchcc occurs ; |624| 
    1723                      .dwpsn  file "../c5535_bsl_revc/ezdsp5535_v1/c55xx_csl/ccs_v4.0_examples/mmc_sd/CSL_MMCSD_dmaExample/
    1724 0005df EC31          AMOV #$C$FSL42, XAR3 ; |626| 
         0005e1 BE00 
         0005e3 04DE+
    1725 0005e5 EB00          MOV XAR3, dbl(*SP(#0))
         0005e7 B5   
    1726              $C$DW$202       .dwtag  DW_TAG_TI_branch
    1727                      .dwattr $C$DW$202, DW_AT_low_pc(0x00)
    1728                      .dwattr $C$DW$202, DW_AT_name("_printf")
    1729                      .dwattr $C$DW$202, DW_AT_TI_call
    1730 0005e8 6C00          CALL #_printf ; |626| 
         0005ea 0000!
    1731                                                      ; call occurs [#_printf] ; |626| 
    1732                      .dwpsn  file "../c5535_bsl_revc/ezdsp5535_v1/c55xx_csl/ccs_v4.0_examples/mmc_sd/CSL_MMCSD_dmaExample/
    1733 0005ec A410          MOV *SP(#8), T0 ; |627| 
    1734 0005ee 0600          B $C$L45  ; |627| 
         0005f0 5B   
TMS320C55x Assembler PC v4.4.1 Sat Sep 29 23:09:00 2018

Tools Copyright (c) 1996-2012 Texas Instruments Incorporated
csl_mmcsd_dma_example.asm                                            PAGE   40

    1735                                                      ; branch occurs ; |627| 
    1736 0005f1       $C$L41:    
    1737                      .dwpsn  file "../c5535_bsl_revc/ezdsp5535_v1/c55xx_csl/ccs_v4.0_examples/mmc_sd/CSL_MMCSD_dmaExample/
    1738 0005f1 E612          MOV #0, *SP(#9) ; |631| 
         0005f3 00   
    1739                      .dwpsn  file "../c5535_bsl_revc/ezdsp5535_v1/c55xx_csl/ccs_v4.0_examples/mmc_sd/CSL_MMCSD_dmaExample/
    1740 0005f4 7601          MOV #256, AR2 ; |631| 
         0005f6 00A8 
    1741 0005f8 A912          MOV *SP(#9), AR1 ; |631| 
    1742 0005fa 1298          CMPU AR1 >= AR2, TC1 ; |631| 
         0005fc A4   
    1743 0005fd 0464          BCC $C$L44,TC1 ; |631| 
         0005ff 3D   
    1744                                                      ; branchcc occurs ; |631| 
    1745 000600       $C$L42:    
    1746 000600       $C$DW$L$_mmcsdDmaTest$67$B:
    1747                      .dwpsn  file "../c5535_bsl_revc/ezdsp5535_v1/c55xx_csl/ccs_v4.0_examples/mmc_sd/CSL_MMCSD_dmaExample/
    1748 000600 A412          MOV *SP(#9), T0 ; |633| 
    1749 000602 EC31          AMOV #_gWriteBuff, XAR3 ; |633| 
         000604 BE00 
         000606 02B0-
    1750 000608 A96B          MOV *AR3(T0), AR1 ; |633| 
    1751 00060a EC31          AMOV #_gReadBuff, XAR3 ; |633| 
         00060c BE00 
         00060e 00B0-
    1752 000610 AA6B          MOV *AR3(T0), AR2 ; |633| 
    1753 000612 12A0          CMPU AR2 == AR1, TC1 ; |633| 
         000614 94   
    1754 000615 0464          BCC $C$L43,TC1 ; |633| 
         000617 15   
    1755                                                      ; branchcc occurs ; |633| 
    1756 000618       $C$DW$L$_mmcsdDmaTest$67$E:
    1757                      .dwpsn  file "../c5535_bsl_revc/ezdsp5535_v1/c55xx_csl/ccs_v4.0_examples/mmc_sd/CSL_MMCSD_dmaExample/
    1758 000618 EC31          AMOV #$C$FSL43, XAR3 ; |635| 
         00061a BE00 
         00061c 04F6+
    1759 00061e EB00          MOV XAR3, dbl(*SP(#0))
         000620 B5   
    1760 000621 A912          MOV *SP(#9), AR1 ; |635| 
    1761 000623 C904          MOV AR1, *SP(#2) ; |635| 
    1762              $C$DW$203       .dwtag  DW_TAG_TI_branch
    1763                      .dwattr $C$DW$203, DW_AT_low_pc(0x00)
    1764                      .dwattr $C$DW$203, DW_AT_name("_printf")
    1765                      .dwattr $C$DW$203, DW_AT_TI_call
    1766 000625 6C00          CALL #_printf ; |635| 
         000627 0000!
    1767                                                      ; call occurs [#_printf] ; |635| 
    1768                      .dwpsn  file "../c5535_bsl_revc/ezdsp5535_v1/c55xx_csl/ccs_v4.0_examples/mmc_sd/CSL_MMCSD_dmaExample/
    1769 000629 3E14          MOV #-1, T0
    1770 00062b 4A1F          B $C$L45  ; |636| 
    1771                                                      ; branch occurs ; |636| 
    1772 00062d       $C$L43:    
    1773 00062d       $C$DW$L$_mmcsdDmaTest$69$B:
    1774                      .dwpsn  file "../c5535_bsl_revc/ezdsp5535_v1/c55xx_csl/ccs_v4.0_examples/mmc_sd/CSL_MMCSD_dmaExample/
    1775 00062d F712          ADD #1, *SP(#9) ; |631| 
TMS320C55x Assembler PC v4.4.1 Sat Sep 29 23:09:00 2018

Tools Copyright (c) 1996-2012 Texas Instruments Incorporated
csl_mmcsd_dma_example.asm                                            PAGE   41

         00062f 0001 
    1776                      .dwpsn  file "../c5535_bsl_revc/ezdsp5535_v1/c55xx_csl/ccs_v4.0_examples/mmc_sd/CSL_MMCSD_dmaExample/
    1777 000631 7601          MOV #256, AR2 ; |631| 
         000633 00A8 
    1778 000635 A912          MOV *SP(#9), AR1 ; |631| 
    1779 000637 1294          CMPU AR1 < AR2, TC1 ; |631| 
         000639 A4   
    1780 00063a 0464          BCC $C$L42,TC1 ; |631| 
         00063c C3   
    1781                                                      ; branchcc occurs ; |631| 
    1782 00063d       $C$DW$L$_mmcsdDmaTest$69$E:
    1783 00063d       $C$L44:    
    1784                      .dwpsn  file "../c5535_bsl_revc/ezdsp5535_v1/c55xx_csl/ccs_v4.0_examples/mmc_sd/CSL_MMCSD_dmaExample/
    1785 00063d EC31          AMOV #$C$FSL44, XAR3 ; |640| 
         00063f BE00 
         000641 051A+
    1786 000643 EB00          MOV XAR3, dbl(*SP(#0))
         000645 B5   
    1787              $C$DW$204       .dwtag  DW_TAG_TI_branch
    1788                      .dwattr $C$DW$204, DW_AT_low_pc(0x00)
    1789                      .dwattr $C$DW$204, DW_AT_name("_printf")
    1790                      .dwattr $C$DW$204, DW_AT_TI_call
    1791 000646 6C00          CALL #_printf ; |640| 
         000648 0000!
    1792                                                      ; call occurs [#_printf] ; |640| 
    1793                      .dwpsn  file "../c5535_bsl_revc/ezdsp5535_v1/c55xx_csl/ccs_v4.0_examples/mmc_sd/CSL_MMCSD_dmaExample/
    1794 00064a 3C04          MOV #0, T0
    1795 00064c       $C$L45:    
    1796                      .dwpsn  file "../c5535_bsl_revc/ezdsp5535_v1/c55xx_csl/ccs_v4.0_examples/mmc_sd/CSL_MMCSD_dmaExample/
    1797 00064c 4E0F          AADD #15, SP
    1798                      .dwcfi  cfa_offset, 1
    1799              $C$DW$205       .dwtag  DW_TAG_TI_branch
    1800                      .dwattr $C$DW$205, DW_AT_low_pc(0x00)
    1801                      .dwattr $C$DW$205, DW_AT_TI_return
    1802 00064e 4804          RET
    1803                                                      ; return occurs
    1804              
    1805              $C$DW$206       .dwtag  DW_TAG_TI_loop
    1806                      .dwattr $C$DW$206, DW_AT_name("F:\eZdsp_DBG\tmp1\c55x-sim2\foo\Debug\csl_mmcsd_dma_example.asm:$C$L42
    1807                      .dwattr $C$DW$206, DW_AT_TI_begin_file("../c5535_bsl_revc/ezdsp5535_v1/c55xx_csl/ccs_v4.0_examples/mm
    1808                      .dwattr $C$DW$206, DW_AT_TI_begin_line(0x277)
    1809                      .dwattr $C$DW$206, DW_AT_TI_end_line(0x27e)
    1810              $C$DW$207       .dwtag  DW_TAG_TI_loop_range
    1811                      .dwattr $C$DW$207, DW_AT_low_pc($C$DW$L$_mmcsdDmaTest$67$B)
    1812                      .dwattr $C$DW$207, DW_AT_high_pc($C$DW$L$_mmcsdDmaTest$67$E)
    1813              $C$DW$208       .dwtag  DW_TAG_TI_loop_range
    1814                      .dwattr $C$DW$208, DW_AT_low_pc($C$DW$L$_mmcsdDmaTest$69$B)
    1815                      .dwattr $C$DW$208, DW_AT_high_pc($C$DW$L$_mmcsdDmaTest$69$E)
    1816                      .dwendtag $C$DW$206
    1817              
    1818              
    1819              $C$DW$209       .dwtag  DW_TAG_TI_loop
    1820                      .dwattr $C$DW$209, DW_AT_name("F:\eZdsp_DBG\tmp1\c55x-sim2\foo\Debug\csl_mmcsd_dma_example.asm:$C$L7:
    1821                      .dwattr $C$DW$209, DW_AT_TI_begin_file("../c5535_bsl_revc/ezdsp5535_v1/c55xx_csl/ccs_v4.0_examples/mm
    1822                      .dwattr $C$DW$209, DW_AT_TI_begin_line(0x16c)
TMS320C55x Assembler PC v4.4.1 Sat Sep 29 23:09:00 2018

Tools Copyright (c) 1996-2012 Texas Instruments Incorporated
csl_mmcsd_dma_example.asm                                            PAGE   42

    1823                      .dwattr $C$DW$209, DW_AT_TI_end_line(0x171)
    1824              $C$DW$210       .dwtag  DW_TAG_TI_loop_range
    1825                      .dwattr $C$DW$210, DW_AT_low_pc($C$DW$L$_mmcsdDmaTest$2$B)
    1826                      .dwattr $C$DW$210, DW_AT_high_pc($C$DW$L$_mmcsdDmaTest$2$E)
    1827                      .dwendtag $C$DW$209
    1828              
    1829                      .dwattr $C$DW$133, DW_AT_TI_end_file("../c5535_bsl_revc/ezdsp5535_v1/c55xx_csl/ccs_v4.0_examples/mmc_
    1830                      .dwattr $C$DW$133, DW_AT_TI_end_line(0x283)
    1831                      .dwattr $C$DW$133, DW_AT_TI_end_column(0x01)
    1832                      .dwendentry
    1833                      .dwendtag $C$DW$133
    1834              
    1835 000650               .sect   ".text"
    1836                      .align 4
    1837                      .global _mmcsdDmaCallbackTest
    1838              
    1839              $C$DW$211       .dwtag  DW_TAG_subprogram, DW_AT_name("mmcsdDmaCallbackTest")
    1840                      .dwattr $C$DW$211, DW_AT_low_pc(_mmcsdDmaCallbackTest)
    1841                      .dwattr $C$DW$211, DW_AT_high_pc(0x00)
    1842                      .dwattr $C$DW$211, DW_AT_TI_symbol_name("_mmcsdDmaCallbackTest")
    1843                      .dwattr $C$DW$211, DW_AT_external
    1844                      .dwattr $C$DW$211, DW_AT_type(*$C$DW$T$106)
    1845                      .dwattr $C$DW$211, DW_AT_TI_begin_file("../c5535_bsl_revc/ezdsp5535_v1/c55xx_csl/ccs_v4.0_examples/mm
    1846                      .dwattr $C$DW$211, DW_AT_TI_begin_line(0x292)
    1847                      .dwattr $C$DW$211, DW_AT_TI_begin_column(0x0c)
    1848                      .dwattr $C$DW$211, DW_AT_TI_max_frame_size(0x10)
    1849                      .dwpsn  file "../c5535_bsl_revc/ezdsp5535_v1/c55xx_csl/ccs_v4.0_examples/mmc_sd/CSL_MMCSD_dmaExample/
    1850              
    1851                      .dwfde $C$DW$CIE, _mmcsdDmaCallbackTest
    1852              ;*******************************************************************************
    1853              ;* FUNCTION NAME: mmcsdDmaCallbackTest                                         *
    1854              ;*                                                                             *
    1855              ;*   Function Uses Regs : AC0,AC0,T0,T1,AR0,XAR0,AR1,XAR1,AR2,XAR2,AR3,XAR3,SP,*
    1856              ;*                        CARRY,TC1,M40,SATA,SATD,RDM,FRCT,SMUL                *
    1857              ;*   Stack Frame        : Compact (No Frame Pointer, w/ debug)                 *
    1858              ;*   Total Frame Size   : 16 words                                             *
    1859              ;*                        (2 return address/alignment)                         *
    1860              ;*                        (3 function parameters)                              *
    1861              ;*                        (11 local values)                                    *
    1862              ;*   Min System Stack   : 1 word                                               *
    1863              ;*******************************************************************************
    1864 000650       _mmcsdDmaCallbackTest:
    1865                      .dwcfi  cfa_offset, 1
    1866                      .dwcfi  save_reg_to_mem, 91, -1
    1867 000650 4EF1          AADD #-15, SP
    1868                      .dwcfi  cfa_offset, 16
    1869              $C$DW$212       .dwtag  DW_TAG_variable, DW_AT_name("sectCount")
    1870                      .dwattr $C$DW$212, DW_AT_TI_symbol_name("_sectCount")
    1871                      .dwattr $C$DW$212, DW_AT_type(*$C$DW$T$48)
    1872                      .dwattr $C$DW$212, DW_AT_location[DW_OP_bregx 0x24 4]
    1873              $C$DW$213       .dwtag  DW_TAG_variable, DW_AT_name("cardAddr")
    1874                      .dwattr $C$DW$213, DW_AT_TI_symbol_name("_cardAddr")
    1875                      .dwattr $C$DW$213, DW_AT_type(*$C$DW$T$48)
    1876                      .dwattr $C$DW$213, DW_AT_location[DW_OP_bregx 0x24 6]
    1877              $C$DW$214       .dwtag  DW_TAG_variable, DW_AT_name("mmcStatus")
TMS320C55x Assembler PC v4.4.1 Sat Sep 29 23:09:00 2018

Tools Copyright (c) 1996-2012 Texas Instruments Incorporated
csl_mmcsd_dma_example.asm                                            PAGE   43

    1878                      .dwattr $C$DW$214, DW_AT_TI_symbol_name("_mmcStatus")
    1879                      .dwattr $C$DW$214, DW_AT_type(*$C$DW$T$106)
    1880                      .dwattr $C$DW$214, DW_AT_location[DW_OP_bregx 0x24 8]
    1881              $C$DW$215       .dwtag  DW_TAG_variable, DW_AT_name("count")
    1882                      .dwattr $C$DW$215, DW_AT_TI_symbol_name("_count")
    1883                      .dwattr $C$DW$215, DW_AT_type(*$C$DW$T$19)
    1884                      .dwattr $C$DW$215, DW_AT_location[DW_OP_bregx 0x24 9]
    1885              $C$DW$216       .dwtag  DW_TAG_variable, DW_AT_name("actCard")
    1886                      .dwattr $C$DW$216, DW_AT_TI_symbol_name("_actCard")
    1887                      .dwattr $C$DW$216, DW_AT_type(*$C$DW$T$19)
    1888                      .dwattr $C$DW$216, DW_AT_location[DW_OP_bregx 0x24 10]
    1889              $C$DW$217       .dwtag  DW_TAG_variable, DW_AT_name("clockDiv")
    1890                      .dwattr $C$DW$217, DW_AT_TI_symbol_name("_clockDiv")
    1891                      .dwattr $C$DW$217, DW_AT_type(*$C$DW$T$19)
    1892                      .dwattr $C$DW$217, DW_AT_location[DW_OP_bregx 0x24 11]
    1893              $C$DW$218       .dwtag  DW_TAG_variable, DW_AT_name("cardType")
    1894                      .dwattr $C$DW$218, DW_AT_TI_symbol_name("_cardType")
    1895                      .dwattr $C$DW$218, DW_AT_type(*$C$DW$T$53)
    1896                      .dwattr $C$DW$218, DW_AT_location[DW_OP_bregx 0x24 12]
    1897              $C$DW$219       .dwtag  DW_TAG_variable, DW_AT_name("rca")
    1898                      .dwattr $C$DW$219, DW_AT_TI_symbol_name("_rca")
    1899                      .dwattr $C$DW$219, DW_AT_type(*$C$DW$T$19)
    1900                      .dwattr $C$DW$219, DW_AT_location[DW_OP_bregx 0x24 13]
    1901                      .dwpsn  file "../c5535_bsl_revc/ezdsp5535_v1/c55xx_csl/ccs_v4.0_examples/mmc_sd/CSL_MMCSD_dmaExample/
    1902 000652 E618          MOV #0, *SP(#12) ; |669| 
         000654 00   
    1903                      .dwpsn  file "../c5535_bsl_revc/ezdsp5535_v1/c55xx_csl/ccs_v4.0_examples/mmc_sd/CSL_MMCSD_dmaExample/
    1904 000655 3C00          MOV #0, AC0 ; |670| 
    1905 000657 EB08          MOV AC0, dbl(*SP(#4)) ; |670| 
         000659 08   
    1906                      .dwpsn  file "../c5535_bsl_revc/ezdsp5535_v1/c55xx_csl/ccs_v4.0_examples/mmc_sd/CSL_MMCSD_dmaExample/
    1907 00065a E612          MOV #0, *SP(#9) ; |673| 
         00065c 00   
    1908                      .dwpsn  file "../c5535_bsl_revc/ezdsp5535_v1/c55xx_csl/ccs_v4.0_examples/mmc_sd/CSL_MMCSD_dmaExample/
    1909 00065d 7602          MOV #512, AR2 ; |673| 
         00065f 00A8 
    1910 000661 A912          MOV *SP(#9), AR1 ; |673| 
    1911 000663 1298          CMPU AR1 >= AR2, TC1 ; |673| 
         000665 A4   
    1912 000666 0464          BCC $C$L47,TC1 ; |673| 
         000668 3D   
    1913                                                      ; branchcc occurs ; |673| 
    1914 000669       $C$L46:    
    1915 000669       $C$DW$L$_mmcsdDmaCallbackTest$2$B:
    1916                      .dwpsn  file "../c5535_bsl_revc/ezdsp5535_v1/c55xx_csl/ccs_v4.0_examples/mmc_sd/CSL_MMCSD_dmaExample/
    1917 000669 A412          MOV *SP(#9), T0 ; |675| 
    1918 00066b EC31          AMOV #_gReadBuff, XAR3 ; |675| 
         00066d BE00 
         00066f 00B0-
    1919 000671 E66B          MOV #0, *AR3(T0) ; |675| 
         000673 00   
    1920                      .dwpsn  file "../c5535_bsl_revc/ezdsp5535_v1/c55xx_csl/ccs_v4.0_examples/mmc_sd/CSL_MMCSD_dmaExample/
    1921 000674 A412          MOV *SP(#9), T0 ; |676| 
    1922 000676 A912          MOV *SP(#9), AR1 ; |676| 
    1923 000678 EC31          AMOV #_gWriteBuff, XAR3 ; |676| 
TMS320C55x Assembler PC v4.4.1 Sat Sep 29 23:09:00 2018

Tools Copyright (c) 1996-2012 Texas Instruments Incorporated
csl_mmcsd_dma_example.asm                                            PAGE   44

         00067a BE00 
         00067c 02B0-
    1924 00067e C96B          MOV AR1, *AR3(T0) ; |676| 
    1925                      .dwpsn  file "../c5535_bsl_revc/ezdsp5535_v1/c55xx_csl/ccs_v4.0_examples/mmc_sd/CSL_MMCSD_dmaExample/
    1926 000680 A412          MOV *SP(#9), T0 ; |677| 
    1927 000682 2249          MOV T0, AR1 ; |677| 
    1928 000684 EC31          AMOV #_gWriteTempBuff, XAR3 ; |677| 
         000686 BE00 
         000688 04B0-
    1929 00068a EC31          AMOV #_gWriteBuff, XAR2 ; |677| 
         00068c AE00 
         00068e 02B0-
    1930 000690 1490          AADD AR1, AR3 ; |677| 
         000692 B0   
    1931 000693 805D          MOV *AR2(T0), *AR3 ; |677| 
         000695 84   
    1932                      .dwpsn  file "../c5535_bsl_revc/ezdsp5535_v1/c55xx_csl/ccs_v4.0_examples/mmc_sd/CSL_MMCSD_dmaExample/
    1933 000696 F712          ADD #1, *SP(#9) ; |673| 
         000698 0001 
    1934                      .dwpsn  file "../c5535_bsl_revc/ezdsp5535_v1/c55xx_csl/ccs_v4.0_examples/mmc_sd/CSL_MMCSD_dmaExample/
    1935 00069a 7602          MOV #512, AR2 ; |673| 
         00069c 00A8 
    1936 00069e A912          MOV *SP(#9), AR1 ; |673| 
    1937 0006a0 1294          CMPU AR1 < AR2, TC1 ; |673| 
         0006a2 A4   
    1938 0006a3 0464          BCC $C$L46,TC1 ; |673| 
         0006a5 C3   
    1939                                                      ; branchcc occurs ; |673| 
    1940 0006a6       $C$DW$L$_mmcsdDmaCallbackTest$2$E:
    1941 0006a6       $C$L47:    
    1942                      .dwpsn  file "../c5535_bsl_revc/ezdsp5535_v1/c55xx_csl/ccs_v4.0_examples/mmc_sd/CSL_MMCSD_dmaExample/
    1943              $C$DW$220       .dwtag  DW_TAG_TI_branch
    1944                      .dwattr $C$DW$220, DW_AT_low_pc(0x00)
    1945                      .dwattr $C$DW$220, DW_AT_name("_IRQ_globalDisable")
    1946                      .dwattr $C$DW$220, DW_AT_TI_call
    1947 0006a6 6C00          CALL #_IRQ_globalDisable ; |681| 
         0006a8 0000!
    1948                                                      ; call occurs [#_IRQ_globalDisable] ; |681| 
    1949                      .dwpsn  file "../c5535_bsl_revc/ezdsp5535_v1/c55xx_csl/ccs_v4.0_examples/mmc_sd/CSL_MMCSD_dmaExample/
    1950              $C$DW$221       .dwtag  DW_TAG_TI_branch
    1951                      .dwattr $C$DW$221, DW_AT_low_pc(0x00)
    1952                      .dwattr $C$DW$221, DW_AT_name("_IRQ_clearAll")
    1953                      .dwattr $C$DW$221, DW_AT_TI_call
    1954 0006aa 6C00          CALL #_IRQ_clearAll ; |684| 
         0006ac 0000!
    1955                                                      ; call occurs [#_IRQ_clearAll] ; |684| 
    1956                      .dwpsn  file "../c5535_bsl_revc/ezdsp5535_v1/c55xx_csl/ccs_v4.0_examples/mmc_sd/CSL_MMCSD_dmaExample/
    1957              $C$DW$222       .dwtag  DW_TAG_TI_branch
    1958                      .dwattr $C$DW$222, DW_AT_low_pc(0x00)
    1959                      .dwattr $C$DW$222, DW_AT_name("_IRQ_disableAll")
    1960                      .dwattr $C$DW$222, DW_AT_TI_call
    1961 0006ae 6C00          CALL #_IRQ_disableAll ; |687| 
         0006b0 0000!
    1962                                                      ; call occurs [#_IRQ_disableAll] ; |687| 
    1963                      .dwpsn  file "../c5535_bsl_revc/ezdsp5535_v1/c55xx_csl/ccs_v4.0_examples/mmc_sd/CSL_MMCSD_dmaExample/
TMS320C55x Assembler PC v4.4.1 Sat Sep 29 23:09:00 2018

Tools Copyright (c) 1996-2012 Texas Instruments Incorporated
csl_mmcsd_dma_example.asm                                            PAGE   45

    1964 0006b2 7A00          MOV #(_VECSTART >> 16) << #16, AC0 ; |701| 
         0006b4 000A%
    1965 0006b6 7E00          OR #(_VECSTART & 0xffff), AC0, AC0 ; |701| 
         0006b8 0000%
    1966              $C$DW$223       .dwtag  DW_TAG_TI_branch
    1967                      .dwattr $C$DW$223, DW_AT_low_pc(0x00)
    1968                      .dwattr $C$DW$223, DW_AT_name("_IRQ_setVecs")
    1969                      .dwattr $C$DW$223, DW_AT_TI_call
    1970 0006ba 6C00          CALL #_IRQ_setVecs ; |701| 
         0006bc 0000!
    1971                                                      ; call occurs [#_IRQ_setVecs] ; |701| 
    1972                      .dwpsn  file "../c5535_bsl_revc/ezdsp5535_v1/c55xx_csl/ccs_v4.0_examples/mmc_sd/CSL_MMCSD_dmaExample/
    1973              $C$DW$224       .dwtag  DW_TAG_TI_branch
    1974                      .dwattr $C$DW$224, DW_AT_low_pc(0x00)
    1975                      .dwattr $C$DW$224, DW_AT_name("_IRQ_clear")
    1976                      .dwattr $C$DW$224, DW_AT_TI_call
    1977              
    1978 0006be 6C00          CALL #_IRQ_clear ; |702| 
         0006c0 0000!
    1979 0006c2 3D54  ||      MOV #5, T0
    1980              
    1981                                                      ; call occurs [#_IRQ_clear] ; |702| 
    1982                      .dwpsn  file "../c5535_bsl_revc/ezdsp5535_v1/c55xx_csl/ccs_v4.0_examples/mmc_sd/CSL_MMCSD_dmaExample/
    1983 0006c4 7A00          MOV #(_mmcsd_isr >> 16) << #16, AC0 ; |705| 
         0006c6 000A%
    1984 0006c8 7E00          OR #(_mmcsd_isr & 0xffff), AC0, AC0 ; |705| 
         0006ca 0000%
    1985              $C$DW$225       .dwtag  DW_TAG_TI_branch
    1986                      .dwattr $C$DW$225, DW_AT_low_pc(0x00)
    1987                      .dwattr $C$DW$225, DW_AT_name("_IRQ_plug")
    1988                      .dwattr $C$DW$225, DW_AT_TI_call
    1989              
    1990 0006cc 6C00          CALL #_IRQ_plug ; |705| 
         0006ce 0000!
    1991 0006d0 3D54  ||      MOV #5, T0
    1992              
    1993                                                      ; call occurs [#_IRQ_plug] ; |705| 
    1994                      .dwpsn  file "../c5535_bsl_revc/ezdsp5535_v1/c55xx_csl/ccs_v4.0_examples/mmc_sd/CSL_MMCSD_dmaExample/
    1995              $C$DW$226       .dwtag  DW_TAG_TI_branch
    1996                      .dwattr $C$DW$226, DW_AT_low_pc(0x00)
    1997                      .dwattr $C$DW$226, DW_AT_name("_IRQ_enable")
    1998                      .dwattr $C$DW$226, DW_AT_TI_call
    1999              
    2000 0006d2 6C00          CALL #_IRQ_enable ; |708| 
         0006d4 0000!
    2001 0006d6 3D54  ||      MOV #5, T0
    2002              
    2003                                                      ; call occurs [#_IRQ_enable] ; |708| 
    2004                      .dwpsn  file "../c5535_bsl_revc/ezdsp5535_v1/c55xx_csl/ccs_v4.0_examples/mmc_sd/CSL_MMCSD_dmaExample/
    2005              $C$DW$227       .dwtag  DW_TAG_TI_branch
    2006                      .dwattr $C$DW$227, DW_AT_low_pc(0x00)
    2007                      .dwattr $C$DW$227, DW_AT_name("_MMC_init")
    2008                      .dwattr $C$DW$227, DW_AT_TI_call
    2009 0006d8 6C00          CALL #_MMC_init ; |711| 
         0006da 0000!
TMS320C55x Assembler PC v4.4.1 Sat Sep 29 23:09:00 2018

Tools Copyright (c) 1996-2012 Texas Instruments Incorporated
csl_mmcsd_dma_example.asm                                            PAGE   46

    2010                                                      ; call occurs [#_MMC_init] ; |711| 
    2011 0006dc C410          MOV T0, *SP(#8) ; |711| 
    2012                      .dwpsn  file "../c5535_bsl_revc/ezdsp5535_v1/c55xx_csl/ccs_v4.0_examples/mmc_sd/CSL_MMCSD_dmaExample/
    2013 0006de 2249          MOV T0, AR1
    2014 0006e0 0409          BCC $C$L48,AR1 == #0 ; |712| 
         0006e2 12   
    2015                                                      ; branchcc occurs ; |712| 
    2016                      .dwpsn  file "../c5535_bsl_revc/ezdsp5535_v1/c55xx_csl/ccs_v4.0_examples/mmc_sd/CSL_MMCSD_dmaExample/
    2017 0006e3 EC31          AMOV #$C$FSL10, XAR3 ; |714| 
         0006e5 BE00 
         0006e7 0148+
    2018 0006e9 EB00          MOV XAR3, dbl(*SP(#0))
         0006eb B5   
    2019              $C$DW$228       .dwtag  DW_TAG_TI_branch
    2020                      .dwattr $C$DW$228, DW_AT_low_pc(0x00)
    2021                      .dwattr $C$DW$228, DW_AT_name("_printf")
    2022                      .dwattr $C$DW$228, DW_AT_TI_call
    2023 0006ec 6C00          CALL #_printf ; |714| 
         0006ee 0000!
    2024                                                      ; call occurs [#_printf] ; |714| 
    2025                      .dwpsn  file "../c5535_bsl_revc/ezdsp5535_v1/c55xx_csl/ccs_v4.0_examples/mmc_sd/CSL_MMCSD_dmaExample/
    2026 0006f0 A410          MOV *SP(#8), T0 ; |715| 
    2027 0006f2 0606          B $C$L88  ; |715| 
         0006f4 0F   
    2028                                                      ; branch occurs ; |715| 
    2029 0006f5       $C$L48:    
    2030                      .dwpsn  file "../c5535_bsl_revc/ezdsp5535_v1/c55xx_csl/ccs_v4.0_examples/mmc_sd/CSL_MMCSD_dmaExample/
    2031              $C$DW$229       .dwtag  DW_TAG_TI_branch
    2032                      .dwattr $C$DW$229, DW_AT_low_pc(0x00)
    2033                      .dwattr $C$DW$229, DW_AT_name("_DMA_init")
    2034                      .dwattr $C$DW$229, DW_AT_TI_call
    2035 0006f5 6C00          CALL #_DMA_init ; |719| 
         0006f7 0000!
    2036                                                      ; call occurs [#_DMA_init] ; |719| 
    2037 0006f9 C410          MOV T0, *SP(#8) ; |719| 
    2038                      .dwpsn  file "../c5535_bsl_revc/ezdsp5535_v1/c55xx_csl/ccs_v4.0_examples/mmc_sd/CSL_MMCSD_dmaExample/
    2039 0006fb 2249          MOV T0, AR1
    2040 0006fd 0409          BCC $C$L49,AR1 == #0 ; |720| 
         0006ff 12   
    2041                                                      ; branchcc occurs ; |720| 
    2042                      .dwpsn  file "../c5535_bsl_revc/ezdsp5535_v1/c55xx_csl/ccs_v4.0_examples/mmc_sd/CSL_MMCSD_dmaExample/
    2043 000700 EC31          AMOV #$C$FSL11, XAR3 ; |722| 
         000702 BE00 
         000704 0160+
    2044 000706 EB00          MOV XAR3, dbl(*SP(#0))
         000708 B5   
    2045              $C$DW$230       .dwtag  DW_TAG_TI_branch
    2046                      .dwattr $C$DW$230, DW_AT_low_pc(0x00)
    2047                      .dwattr $C$DW$230, DW_AT_name("_printf")
    2048                      .dwattr $C$DW$230, DW_AT_TI_call
    2049 000709 6C00          CALL #_printf ; |722| 
         00070b 0000!
    2050                                                      ; call occurs [#_printf] ; |722| 
    2051                      .dwpsn  file "../c5535_bsl_revc/ezdsp5535_v1/c55xx_csl/ccs_v4.0_examples/mmc_sd/CSL_MMCSD_dmaExample/
    2052 00070d A410          MOV *SP(#8), T0 ; |723| 
TMS320C55x Assembler PC v4.4.1 Sat Sep 29 23:09:00 2018

Tools Copyright (c) 1996-2012 Texas Instruments Incorporated
csl_mmcsd_dma_example.asm                                            PAGE   47

    2053 00070f 0605          B $C$L88  ; |723| 
         000711 F2   
    2054                                                      ; branch occurs ; |723| 
    2055 000712       $C$L49:    
    2056                      .dwpsn  file "../c5535_bsl_revc/ezdsp5535_v1/c55xx_csl/ccs_v4.0_examples/mmc_sd/CSL_MMCSD_dmaExample/
    2057 000712 EC10          AMAR *SP(#8), XAR1
         000714 9E   
    2058 000715 EC31          AMOV #_dmaWrChanObj, XAR0 ; |727| 
         000717 8E00 
         000719 009C-
    2059              $C$DW$231       .dwtag  DW_TAG_TI_branch
    2060                      .dwattr $C$DW$231, DW_AT_low_pc(0x00)
    2061                      .dwattr $C$DW$231, DW_AT_name("_DMA_open")
    2062                      .dwattr $C$DW$231, DW_AT_TI_call
    2063              
    2064 00071b 6C00          CALL #_DMA_open ; |727| 
         00071d 0000!
    2065 00071f 3D04  ||      MOV #0, T0
    2066              
    2067                                                      ; call occurs [#_DMA_open] ; |727| 
    2068 000721 EB31          MOV XAR0, dbl(*(#_dmaWrHandle))
         000723 8500 
         000725 0098-
    2069                      .dwpsn  file "../c5535_bsl_revc/ezdsp5535_v1/c55xx_csl/ccs_v4.0_examples/mmc_sd/CSL_MMCSD_dmaExample/
    2070 000727 ED31          MOV dbl(*(#_dmaWrHandle)), XAR3
         000729 BF00 
         00072b 0098-
    2071 00072d 90B0          MOV XAR3, AC0
    2072 00072f 6280          BCC $C$L50,AC0 == #0 ; |728| 
    2073                                                      ; branchcc occurs ; |728| 
    2074 000731 A910          MOV *SP(#8), AR1 ; |728| 
    2075 000733 0409          BCC $C$L51,AR1 == #0 ; |728| 
         000735 12   
    2076                                                      ; branchcc occurs ; |728| 
    2077 000736       $C$L50:    
    2078                      .dwpsn  file "../c5535_bsl_revc/ezdsp5535_v1/c55xx_csl/ccs_v4.0_examples/mmc_sd/CSL_MMCSD_dmaExample/
    2079 000736 EC31          AMOV #$C$FSL12, XAR3 ; |730| 
         000738 BE00 
         00073a 0178+
    2080 00073c EB00          MOV XAR3, dbl(*SP(#0))
         00073e B5   
    2081              $C$DW$232       .dwtag  DW_TAG_TI_branch
    2082                      .dwattr $C$DW$232, DW_AT_low_pc(0x00)
    2083                      .dwattr $C$DW$232, DW_AT_name("_printf")
    2084                      .dwattr $C$DW$232, DW_AT_TI_call
    2085 00073f 6C00          CALL #_printf ; |730| 
         000741 0000!
    2086                                                      ; call occurs [#_printf] ; |730| 
    2087                      .dwpsn  file "../c5535_bsl_revc/ezdsp5535_v1/c55xx_csl/ccs_v4.0_examples/mmc_sd/CSL_MMCSD_dmaExample/
    2088 000743 A410          MOV *SP(#8), T0 ; |731| 
    2089 000745 0605          B $C$L88  ; |731| 
         000747 BC   
    2090                                                      ; branch occurs ; |731| 
    2091 000748       $C$L51:    
    2092                      .dwpsn  file "../c5535_bsl_revc/ezdsp5535_v1/c55xx_csl/ccs_v4.0_examples/mmc_sd/CSL_MMCSD_dmaExample/
TMS320C55x Assembler PC v4.4.1 Sat Sep 29 23:09:00 2018

Tools Copyright (c) 1996-2012 Texas Instruments Incorporated
csl_mmcsd_dma_example.asm                                            PAGE   48

    2093 000748 EC10          AMAR *SP(#8), XAR1
         00074a 9E   
    2094 00074b EC31          AMOV #_dmaRdChanObj, XAR0 ; |735| 
         00074d 8E00 
         00074f 00A5-
    2095              $C$DW$233       .dwtag  DW_TAG_TI_branch
    2096                      .dwattr $C$DW$233, DW_AT_low_pc(0x00)
    2097                      .dwattr $C$DW$233, DW_AT_name("_DMA_open")
    2098                      .dwattr $C$DW$233, DW_AT_TI_call
    2099              
    2100 000751 6C00          CALL #_DMA_open ; |735| 
         000753 0000!
    2101 000755 3D14  ||      MOV #1, T0
    2102              
    2103                                                      ; call occurs [#_DMA_open] ; |735| 
    2104 000757 EB31          MOV XAR0, dbl(*(#_dmaRdHandle))
         000759 8500 
         00075b 009A-
    2105                      .dwpsn  file "../c5535_bsl_revc/ezdsp5535_v1/c55xx_csl/ccs_v4.0_examples/mmc_sd/CSL_MMCSD_dmaExample/
    2106 00075d ED31          MOV dbl(*(#_dmaRdHandle)), XAR3
         00075f BF00 
         000761 009A-
    2107 000763 90B0          MOV XAR3, AC0
    2108 000765 6280          BCC $C$L52,AC0 == #0 ; |736| 
    2109                                                      ; branchcc occurs ; |736| 
    2110 000767 A910          MOV *SP(#8), AR1 ; |736| 
    2111 000769 0409          BCC $C$L53,AR1 == #0 ; |736| 
         00076b 12   
    2112                                                      ; branchcc occurs ; |736| 
    2113 00076c       $C$L52:    
    2114                      .dwpsn  file "../c5535_bsl_revc/ezdsp5535_v1/c55xx_csl/ccs_v4.0_examples/mmc_sd/CSL_MMCSD_dmaExample/
    2115 00076c EC31          AMOV #$C$FSL45, XAR3 ; |738| 
         00076e BE00 
         000770 0538+
    2116 000772 EB00          MOV XAR3, dbl(*SP(#0))
         000774 B5   
    2117              $C$DW$234       .dwtag  DW_TAG_TI_branch
    2118                      .dwattr $C$DW$234, DW_AT_low_pc(0x00)
    2119                      .dwattr $C$DW$234, DW_AT_name("_printf")
    2120                      .dwattr $C$DW$234, DW_AT_TI_call
    2121 000775 6C00          CALL #_printf ; |738| 
         000777 0000!
    2122                                                      ; call occurs [#_printf] ; |738| 
    2123                      .dwpsn  file "../c5535_bsl_revc/ezdsp5535_v1/c55xx_csl/ccs_v4.0_examples/mmc_sd/CSL_MMCSD_dmaExample/
    2124 000779 A410          MOV *SP(#8), T0 ; |739| 
    2125 00077b 0605          B $C$L88  ; |739| 
         00077d 86   
    2126                                                      ; branch occurs ; |739| 
    2127 00077e       $C$L53:    
    2128                      .dwpsn  file "../c5535_bsl_revc/ezdsp5535_v1/c55xx_csl/ccs_v4.0_examples/mmc_sd/CSL_MMCSD_dmaExample/
    2129 00077e EC31          AMOV #_pMmcsdContObj, XAR0 ; |747| 
         000780 8E00 
         000782 0000-
    2130              
    2131 000787 3D04          MOV #0, T0
TMS320C55x Assembler PC v4.4.1 Sat Sep 29 23:09:00 2018

Tools Copyright (c) 1996-2012 Texas Instruments Incorporated
csl_mmcsd_dma_example.asm                                            PAGE   49

    2132 000784 EC10  ||      AMAR *SP(#8), XAR1
         000786 9E   
    2133              
    2134              $C$DW$235       .dwtag  DW_TAG_TI_branch
    2135                      .dwattr $C$DW$235, DW_AT_low_pc(0x00)
    2136                      .dwattr $C$DW$235, DW_AT_name("_MMC_open")
    2137                      .dwattr $C$DW$235, DW_AT_TI_call
    2138              
    2139 000789 6C00          CALL #_MMC_open ; |747| 
         00078b 0000!
    2140 00078d 3D25  ||      MOV #2, T1
    2141              
    2142                                                      ; call occurs [#_MMC_open] ; |747| 
    2143 00078f EB31          MOV XAR0, dbl(*(#_mmcsdHandle))
         000791 8500 
         000793 0040-
    2144                      .dwpsn  file "../c5535_bsl_revc/ezdsp5535_v1/c55xx_csl/ccs_v4.0_examples/mmc_sd/CSL_MMCSD_dmaExample/
    2145 000795 A910          MOV *SP(#8), AR1 ; |750| 
    2146 000797 6599          BCC $C$L54,AR1 != #0 ; |750| 
    2147                                                      ; branchcc occurs ; |750| 
    2148 000799 ED31          MOV dbl(*(#_mmcsdHandle)), XAR3
         00079b BF00 
         00079d 0040-
    2149 00079f 90B0          MOV XAR3, AC0
    2150 0007a1 0410          BCC $C$L55,AC0 != #0 ; |750| 
         0007a3 12   
    2151                                                      ; branchcc occurs ; |750| 
    2152 0007a4       $C$L54:    
    2153                      .dwpsn  file "../c5535_bsl_revc/ezdsp5535_v1/c55xx_csl/ccs_v4.0_examples/mmc_sd/CSL_MMCSD_dmaExample/
    2154 0007a4 EC31          AMOV #$C$FSL14, XAR3 ; |752| 
         0007a6 BE00 
         0007a8 01C6+
    2155 0007aa EB00          MOV XAR3, dbl(*SP(#0))
         0007ac B5   
    2156              $C$DW$236       .dwtag  DW_TAG_TI_branch
    2157                      .dwattr $C$DW$236, DW_AT_low_pc(0x00)
    2158                      .dwattr $C$DW$236, DW_AT_name("_printf")
    2159                      .dwattr $C$DW$236, DW_AT_TI_call
    2160 0007ad 6C00          CALL #_printf ; |752| 
         0007af 0000!
    2161                                                      ; call occurs [#_printf] ; |752| 
    2162                      .dwpsn  file "../c5535_bsl_revc/ezdsp5535_v1/c55xx_csl/ccs_v4.0_examples/mmc_sd/CSL_MMCSD_dmaExample/
    2163 0007b1 A410          MOV *SP(#8), T0 ; |753| 
    2164 0007b3 0605          B $C$L88  ; |753| 
         0007b5 4E   
    2165                                                      ; branch occurs ; |753| 
    2166 0007b6       $C$L55:    
    2167                      .dwpsn  file "../c5535_bsl_revc/ezdsp5535_v1/c55xx_csl/ccs_v4.0_examples/mmc_sd/CSL_MMCSD_dmaExample/
    2168 0007b6 ED31          MOV dbl(*(#_dmaWrHandle)), XAR1
         0007b8 9F00 
         0007ba 0098-
    2169 0007bc ED31          MOV dbl(*(#_dmaRdHandle)), XAR2
         0007be AF00 
         0007c0 009A-
    2170              $C$DW$237       .dwtag  DW_TAG_TI_branch
TMS320C55x Assembler PC v4.4.1 Sat Sep 29 23:09:00 2018

Tools Copyright (c) 1996-2012 Texas Instruments Incorporated
csl_mmcsd_dma_example.asm                                            PAGE   50

    2171                      .dwattr $C$DW$237, DW_AT_low_pc(0x00)
    2172                      .dwattr $C$DW$237, DW_AT_name("_MMC_setDmaHandle")
    2173                      .dwattr $C$DW$237, DW_AT_TI_call
    2174 0007c2 6C00          CALL #_MMC_setDmaHandle ; |757| 
         0007c4 0000!
    2175                                                      ; call occurs [#_MMC_setDmaHandle] ; |757| 
    2176 0007c6 C410          MOV T0, *SP(#8) ; |757| 
    2177                      .dwpsn  file "../c5535_bsl_revc/ezdsp5535_v1/c55xx_csl/ccs_v4.0_examples/mmc_sd/CSL_MMCSD_dmaExample/
    2178 0007c8 2249          MOV T0, AR1
    2179 0007ca 0409          BCC $C$L56,AR1 == #0 ; |758| 
         0007cc 12   
    2180                                                      ; branchcc occurs ; |758| 
    2181                      .dwpsn  file "../c5535_bsl_revc/ezdsp5535_v1/c55xx_csl/ccs_v4.0_examples/mmc_sd/CSL_MMCSD_dmaExample/
    2182 0007cd EC31          AMOV #$C$FSL46, XAR3 ; |760| 
         0007cf BE00 
         0007d1 055A+
    2183 0007d3 EB00          MOV XAR3, dbl(*SP(#0))
         0007d5 B5   
    2184              $C$DW$238       .dwtag  DW_TAG_TI_branch
    2185                      .dwattr $C$DW$238, DW_AT_low_pc(0x00)
    2186                      .dwattr $C$DW$238, DW_AT_name("_printf")
    2187                      .dwattr $C$DW$238, DW_AT_TI_call
    2188 0007d6 6C00          CALL #_printf ; |760| 
         0007d8 0000!
    2189                                                      ; call occurs [#_printf] ; |760| 
    2190                      .dwpsn  file "../c5535_bsl_revc/ezdsp5535_v1/c55xx_csl/ccs_v4.0_examples/mmc_sd/CSL_MMCSD_dmaExample/
    2191 0007da A410          MOV *SP(#8), T0 ; |761| 
    2192 0007dc 0605          B $C$L88  ; |761| 
         0007de 25   
    2193                                                      ; branch occurs ; |761| 
    2194 0007df       $C$L56:    
    2195                      .dwpsn  file "../c5535_bsl_revc/ezdsp5535_v1/c55xx_csl/ccs_v4.0_examples/mmc_sd/CSL_MMCSD_dmaExample/
    2196 0007df 7A00          MOV #(_mmcsdTransferDoneCallBack >> 16) << #16, AC0 ; |765| 
         0007e1 000A%
    2197 0007e3 ED31          MOV dbl(*(#_mmcsdHandle)), XAR0
         0007e5 8F00 
         0007e7 0040-
    2198 0007e9 7E00          OR #(_mmcsdTransferDoneCallBack & 0xffff), AC0, AC0 ; |765| 
         0007eb 0000%
    2199              $C$DW$239       .dwtag  DW_TAG_TI_branch
    2200                      .dwattr $C$DW$239, DW_AT_low_pc(0x00)
    2201                      .dwattr $C$DW$239, DW_AT_name("_MMC_setDataTransferCallback")
    2202                      .dwattr $C$DW$239, DW_AT_TI_call
    2203 0007ed 6C00          CALL #_MMC_setDataTransferCallback ; |765| 
         0007ef 0000!
    2204                                                      ; call occurs [#_MMC_setDataTransferCallback] ; |765| 
    2205 0007f1 C410          MOV T0, *SP(#8) ; |765| 
    2206                      .dwpsn  file "../c5535_bsl_revc/ezdsp5535_v1/c55xx_csl/ccs_v4.0_examples/mmc_sd/CSL_MMCSD_dmaExample/
    2207 0007f3 2249          MOV T0, AR1
    2208 0007f5 0409          BCC $C$L57,AR1 == #0 ; |766| 
         0007f7 12   
    2209                                                      ; branchcc occurs ; |766| 
    2210                      .dwpsn  file "../c5535_bsl_revc/ezdsp5535_v1/c55xx_csl/ccs_v4.0_examples/mmc_sd/CSL_MMCSD_dmaExample/
    2211 0007f8 EC31          AMOV #$C$FSL47, XAR3 ; |768| 
         0007fa BE00 
TMS320C55x Assembler PC v4.4.1 Sat Sep 29 23:09:00 2018

Tools Copyright (c) 1996-2012 Texas Instruments Incorporated
csl_mmcsd_dma_example.asm                                            PAGE   51

         0007fc 0578+
    2212 0007fe EB00          MOV XAR3, dbl(*SP(#0))
         000800 B5   
    2213              $C$DW$240       .dwtag  DW_TAG_TI_branch
    2214                      .dwattr $C$DW$240, DW_AT_low_pc(0x00)
    2215                      .dwattr $C$DW$240, DW_AT_name("_printf")
    2216                      .dwattr $C$DW$240, DW_AT_TI_call
    2217 000801 6C00          CALL #_printf ; |768| 
         000803 0000!
    2218                                                      ; call occurs [#_printf] ; |768| 
    2219                      .dwpsn  file "../c5535_bsl_revc/ezdsp5535_v1/c55xx_csl/ccs_v4.0_examples/mmc_sd/CSL_MMCSD_dmaExample/
    2220 000805 A410          MOV *SP(#8), T0 ; |769| 
    2221 000807 0604          B $C$L88  ; |769| 
         000809 FA   
    2222                                                      ; branch occurs ; |769| 
    2223 00080a       $C$L57:    
    2224                      .dwpsn  file "../c5535_bsl_revc/ezdsp5535_v1/c55xx_csl/ccs_v4.0_examples/mmc_sd/CSL_MMCSD_dmaExample/
    2225 00080a E631          MOV #0, *(#_mmcsdDmaConfig) ; |779| 
         00080c 0000 
         00080e 0092-
    2226                      .dwpsn  file "../c5535_bsl_revc/ezdsp5535_v1/c55xx_csl/ccs_v4.0_examples/mmc_sd/CSL_MMCSD_dmaExample/
    2227 000810 E631          MOV #0, *(#(_mmcsdDmaConfig+1)) ; |780| 
         000812 0000 
         000814 0093-
    2228                      .dwpsn  file "../c5535_bsl_revc/ezdsp5535_v1/c55xx_csl/ccs_v4.0_examples/mmc_sd/CSL_MMCSD_dmaExample/
    2229 000816 E631          MOV #3, *(#(_mmcsdDmaConfig+2)) ; |781| 
         000818 0300 
         00081a 0094-
    2230                      .dwpsn  file "../c5535_bsl_revc/ezdsp5535_v1/c55xx_csl/ccs_v4.0_examples/mmc_sd/CSL_MMCSD_dmaExample/
    2231 00081c E631          MOV #0, *(#(_mmcsdDmaConfig+3)) ; |782| 
         00081e 0000 
         000820 0095-
    2232                      .dwpsn  file "../c5535_bsl_revc/ezdsp5535_v1/c55xx_csl/ccs_v4.0_examples/mmc_sd/CSL_MMCSD_dmaExample/
    2233 000822 E631          MOV #1, *(#(_mmcsdDmaConfig+4)) ; |783| 
         000824 0100 
         000826 0096-
    2234                      .dwpsn  file "../c5535_bsl_revc/ezdsp5535_v1/c55xx_csl/ccs_v4.0_examples/mmc_sd/CSL_MMCSD_dmaExample/
    2235 000828 ED31          MOV dbl(*(#_mmcsdHandle)), XAR0
         00082a 8F00 
         00082c 0040-
    2236 00082e EC31          AMOV #_mmcsdDmaConfig, XAR1 ; |785| 
         000830 9E00 
         000832 0092-
    2237              $C$DW$241       .dwtag  DW_TAG_TI_branch
    2238                      .dwattr $C$DW$241, DW_AT_low_pc(0x00)
    2239                      .dwattr $C$DW$241, DW_AT_name("_MMC_setDmaChanConfig")
    2240                      .dwattr $C$DW$241, DW_AT_TI_call
    2241 000834 6C00          CALL #_MMC_setDmaChanConfig ; |785| 
         000836 0000!
    2242                                                      ; call occurs [#_MMC_setDmaChanConfig] ; |785| 
    2243 000838 C410          MOV T0, *SP(#8) ; |785| 
    2244                      .dwpsn  file "../c5535_bsl_revc/ezdsp5535_v1/c55xx_csl/ccs_v4.0_examples/mmc_sd/CSL_MMCSD_dmaExample/
    2245 00083a 2249          MOV T0, AR1
    2246 00083c 0409          BCC $C$L58,AR1 == #0 ; |786| 
         00083e 12   
TMS320C55x Assembler PC v4.4.1 Sat Sep 29 23:09:00 2018

Tools Copyright (c) 1996-2012 Texas Instruments Incorporated
csl_mmcsd_dma_example.asm                                            PAGE   52

    2247                                                      ; branchcc occurs ; |786| 
    2248                      .dwpsn  file "../c5535_bsl_revc/ezdsp5535_v1/c55xx_csl/ccs_v4.0_examples/mmc_sd/CSL_MMCSD_dmaExample/
    2249 00083f EC31          AMOV #$C$FSL48, XAR3 ; |788| 
         000841 BE00 
         000843 05A2+
    2250 000845 EB00          MOV XAR3, dbl(*SP(#0))
         000847 B5   
    2251              $C$DW$242       .dwtag  DW_TAG_TI_branch
    2252                      .dwattr $C$DW$242, DW_AT_low_pc(0x00)
    2253                      .dwattr $C$DW$242, DW_AT_name("_printf")
    2254                      .dwattr $C$DW$242, DW_AT_TI_call
    2255 000848 6C00          CALL #_printf ; |788| 
         00084a 0000!
    2256                                                      ; call occurs [#_printf] ; |788| 
    2257                      .dwpsn  file "../c5535_bsl_revc/ezdsp5535_v1/c55xx_csl/ccs_v4.0_examples/mmc_sd/CSL_MMCSD_dmaExample/
    2258 00084c A410          MOV *SP(#8), T0 ; |789| 
    2259 00084e 0604          B $C$L88  ; |789| 
         000850 B3   
    2260                                                      ; branch occurs ; |789| 
    2261 000851       $C$L58:    
    2262                      .dwpsn  file "../c5535_bsl_revc/ezdsp5535_v1/c55xx_csl/ccs_v4.0_examples/mmc_sd/CSL_MMCSD_dmaExample/
    2263 000851 E631          MOV #0, *(#_mmcsdDmaConfig) ; |794| 
         000853 0000 
         000855 0092-
    2264                      .dwpsn  file "../c5535_bsl_revc/ezdsp5535_v1/c55xx_csl/ccs_v4.0_examples/mmc_sd/CSL_MMCSD_dmaExample/
    2265 000857 E631          MOV #0, *(#(_mmcsdDmaConfig+1)) ; |795| 
         000859 0000 
         00085b 0093-
    2266                      .dwpsn  file "../c5535_bsl_revc/ezdsp5535_v1/c55xx_csl/ccs_v4.0_examples/mmc_sd/CSL_MMCSD_dmaExample/
    2267 00085d E631          MOV #3, *(#(_mmcsdDmaConfig+2)) ; |796| 
         00085f 0300 
         000861 0094-
    2268                      .dwpsn  file "../c5535_bsl_revc/ezdsp5535_v1/c55xx_csl/ccs_v4.0_examples/mmc_sd/CSL_MMCSD_dmaExample/
    2269 000863 E631          MOV #0, *(#(_mmcsdDmaConfig+3)) ; |797| 
         000865 0000 
         000867 0095-
    2270                      .dwpsn  file "../c5535_bsl_revc/ezdsp5535_v1/c55xx_csl/ccs_v4.0_examples/mmc_sd/CSL_MMCSD_dmaExample/
    2271 000869 E631          MOV #0, *(#(_mmcsdDmaConfig+4)) ; |798| 
         00086b 0000 
         00086d 0096-
    2272                      .dwpsn  file "../c5535_bsl_revc/ezdsp5535_v1/c55xx_csl/ccs_v4.0_examples/mmc_sd/CSL_MMCSD_dmaExample/
    2273 00086f ED31          MOV dbl(*(#_mmcsdHandle)), XAR0
         000871 8F00 
         000873 0040-
    2274 000875 EC31          AMOV #_mmcsdDmaConfig, XAR1 ; |800| 
         000877 9E00 
         000879 0092-
    2275              $C$DW$243       .dwtag  DW_TAG_TI_branch
    2276                      .dwattr $C$DW$243, DW_AT_low_pc(0x00)
    2277                      .dwattr $C$DW$243, DW_AT_name("_MMC_setDmaChanConfig")
    2278                      .dwattr $C$DW$243, DW_AT_TI_call
    2279 00087b 6C00          CALL #_MMC_setDmaChanConfig ; |800| 
         00087d 0000!
    2280                                                      ; call occurs [#_MMC_setDmaChanConfig] ; |800| 
    2281 00087f C410          MOV T0, *SP(#8) ; |800| 
TMS320C55x Assembler PC v4.4.1 Sat Sep 29 23:09:00 2018

Tools Copyright (c) 1996-2012 Texas Instruments Incorporated
csl_mmcsd_dma_example.asm                                            PAGE   53

    2282                      .dwpsn  file "../c5535_bsl_revc/ezdsp5535_v1/c55xx_csl/ccs_v4.0_examples/mmc_sd/CSL_MMCSD_dmaExample/
    2283 000881 2249          MOV T0, AR1
    2284 000883 0409          BCC $C$L59,AR1 == #0 ; |801| 
         000885 12   
    2285                                                      ; branchcc occurs ; |801| 
    2286                      .dwpsn  file "../c5535_bsl_revc/ezdsp5535_v1/c55xx_csl/ccs_v4.0_examples/mmc_sd/CSL_MMCSD_dmaExample/
    2287 000886 EC31          AMOV #$C$FSL49, XAR3 ; |803| 
         000888 BE00 
         00088a 05CE+
    2288 00088c EB00          MOV XAR3, dbl(*SP(#0))
         00088e B5   
    2289              $C$DW$244       .dwtag  DW_TAG_TI_branch
    2290                      .dwattr $C$DW$244, DW_AT_low_pc(0x00)
    2291                      .dwattr $C$DW$244, DW_AT_name("_printf")
    2292                      .dwattr $C$DW$244, DW_AT_TI_call
    2293 00088f 6C00          CALL #_printf ; |803| 
         000891 0000!
    2294                                                      ; call occurs [#_printf] ; |803| 
    2295                      .dwpsn  file "../c5535_bsl_revc/ezdsp5535_v1/c55xx_csl/ccs_v4.0_examples/mmc_sd/CSL_MMCSD_dmaExample/
    2296 000893 A410          MOV *SP(#8), T0 ; |804| 
    2297 000895 0604          B $C$L88  ; |804| 
         000897 6C   
    2298                                                      ; branch occurs ; |804| 
    2299 000898       $C$L59:    
    2300                      .dwpsn  file "../c5535_bsl_revc/ezdsp5535_v1/c55xx_csl/ccs_v4.0_examples/mmc_sd/CSL_MMCSD_dmaExample/
    2301 000898 ED31          MOV dbl(*(#_mmcsdHandle)), XAR0
         00089a 8F00 
         00089c 0040-
    2302              $C$DW$245       .dwtag  DW_TAG_TI_branch
    2303                      .dwattr $C$DW$245, DW_AT_low_pc(0x00)
    2304                      .dwattr $C$DW$245, DW_AT_name("_MMC_sendGoIdle")
    2305                      .dwattr $C$DW$245, DW_AT_TI_call
    2306 00089e 6C00          CALL #_MMC_sendGoIdle ; |808| 
         0008a0 0000!
    2307                                                      ; call occurs [#_MMC_sendGoIdle] ; |808| 
    2308 0008a2 C410          MOV T0, *SP(#8) ; |808| 
    2309                      .dwpsn  file "../c5535_bsl_revc/ezdsp5535_v1/c55xx_csl/ccs_v4.0_examples/mmc_sd/CSL_MMCSD_dmaExample/
    2310 0008a4 2249          MOV T0, AR1
    2311 0008a6 0409          BCC $C$L60,AR1 == #0 ; |809| 
         0008a8 12   
    2312                                                      ; branchcc occurs ; |809| 
    2313                      .dwpsn  file "../c5535_bsl_revc/ezdsp5535_v1/c55xx_csl/ccs_v4.0_examples/mmc_sd/CSL_MMCSD_dmaExample/
    2314 0008a9 EC31          AMOV #$C$FSL16, XAR3 ; |811| 
         0008ab BE00 
         0008ad 0204+
    2315 0008af EB00          MOV XAR3, dbl(*SP(#0))
         0008b1 B5   
    2316              $C$DW$246       .dwtag  DW_TAG_TI_branch
    2317                      .dwattr $C$DW$246, DW_AT_low_pc(0x00)
    2318                      .dwattr $C$DW$246, DW_AT_name("_printf")
    2319                      .dwattr $C$DW$246, DW_AT_TI_call
    2320 0008b2 6C00          CALL #_printf ; |811| 
         0008b4 0000!
    2321                                                      ; call occurs [#_printf] ; |811| 
    2322                      .dwpsn  file "../c5535_bsl_revc/ezdsp5535_v1/c55xx_csl/ccs_v4.0_examples/mmc_sd/CSL_MMCSD_dmaExample/
TMS320C55x Assembler PC v4.4.1 Sat Sep 29 23:09:00 2018

Tools Copyright (c) 1996-2012 Texas Instruments Incorporated
csl_mmcsd_dma_example.asm                                            PAGE   54

    2323 0008b6 A410          MOV *SP(#8), T0 ; |812| 
    2324 0008b8 0604          B $C$L88  ; |812| 
         0008ba 49   
    2325                                                      ; branch occurs ; |812| 
    2326 0008bb       $C$L60:    
    2327                      .dwpsn  file "../c5535_bsl_revc/ezdsp5535_v1/c55xx_csl/ccs_v4.0_examples/mmc_sd/CSL_MMCSD_dmaExample/
    2328 0008bb ED31          MOV dbl(*(#_mmcsdHandle)), XAR0
         0008bd 8F00 
         0008bf 0040-
    2329 0008c1 EC31          AMOV #_mmcCardObj, XAR1 ; |816| 
         0008c3 9E00 
         0008c5 0042-
    2330              $C$DW$247       .dwtag  DW_TAG_TI_branch
    2331                      .dwattr $C$DW$247, DW_AT_low_pc(0x00)
    2332                      .dwattr $C$DW$247, DW_AT_name("_MMC_selectCard")
    2333                      .dwattr $C$DW$247, DW_AT_TI_call
    2334 0008c7 6C00          CALL #_MMC_selectCard ; |816| 
         0008c9 0000!
    2335                                                      ; call occurs [#_MMC_selectCard] ; |816| 
    2336 0008cb C410          MOV T0, *SP(#8) ; |816| 
    2337                      .dwpsn  file "../c5535_bsl_revc/ezdsp5535_v1/c55xx_csl/ccs_v4.0_examples/mmc_sd/CSL_MMCSD_dmaExample/
    2338 0008cd F010          CMP *SP(#8) == #-5, TC1 ; |817| 
         0008cf FFFB 
    2339 0008d1 63E4          BCC $C$L61,TC1 ; |817| 
    2340                                                      ; branchcc occurs ; |817| 
    2341 0008d3 F010          CMP *SP(#8) == #-6, TC1 ; |817| 
         0008d5 FFFA 
    2342 0008d7 0474          BCC $C$L62,!TC1 ; |817| 
         0008d9 12   
    2343                                                      ; branchcc occurs ; |817| 
    2344 0008da       $C$L61:    
    2345                      .dwpsn  file "../c5535_bsl_revc/ezdsp5535_v1/c55xx_csl/ccs_v4.0_examples/mmc_sd/CSL_MMCSD_dmaExample/
    2346 0008da EC31          AMOV #$C$FSL17, XAR3 ; |820| 
         0008dc BE00 
         0008de 0220+
    2347 0008e0 EB00          MOV XAR3, dbl(*SP(#0))
         0008e2 B5   
    2348              $C$DW$248       .dwtag  DW_TAG_TI_branch
    2349                      .dwattr $C$DW$248, DW_AT_low_pc(0x00)
    2350                      .dwattr $C$DW$248, DW_AT_name("_printf")
    2351                      .dwattr $C$DW$248, DW_AT_TI_call
    2352 0008e3 6C00          CALL #_printf ; |820| 
         0008e5 0000!
    2353                                                      ; call occurs [#_printf] ; |820| 
    2354                      .dwpsn  file "../c5535_bsl_revc/ezdsp5535_v1/c55xx_csl/ccs_v4.0_examples/mmc_sd/CSL_MMCSD_dmaExample/
    2355 0008e7 A410          MOV *SP(#8), T0 ; |821| 
    2356 0008e9 0604          B $C$L88  ; |821| 
         0008eb 18   
    2357                                                      ; branch occurs ; |821| 
    2358 0008ec       $C$L62:    
    2359                      .dwpsn  file "../c5535_bsl_revc/ezdsp5535_v1/c55xx_csl/ccs_v4.0_examples/mmc_sd/CSL_MMCSD_dmaExample/
    2360 0008ec F031          CMP *(#(_mmcCardObj+18)) == #2, TC1 ; |825| 
         0008ee 0002 
         0008f0 0000 
         0008f2 54-  
TMS320C55x Assembler PC v4.4.1 Sat Sep 29 23:09:00 2018

Tools Copyright (c) 1996-2012 Texas Instruments Incorporated
csl_mmcsd_dma_example.asm                                            PAGE   55

    2361 0008f3 6D74          BCC $C$L66,!TC1 ; |825| 
         0008f5 00A2 
    2362                                                      ; branchcc occurs ; |825| 
    2363                      .dwpsn  file "../c5535_bsl_revc/ezdsp5535_v1/c55xx_csl/ccs_v4.0_examples/mmc_sd/CSL_MMCSD_dmaExample/
    2364 0008f7 EC31          AMOV #$C$FSL18, XAR3 ; |827| 
         0008f9 BE00 
         0008fb 023C+
    2365 0008fd EB00          MOV XAR3, dbl(*SP(#0))
         0008ff B5   
    2366              $C$DW$249       .dwtag  DW_TAG_TI_branch
    2367                      .dwattr $C$DW$249, DW_AT_low_pc(0x00)
    2368                      .dwattr $C$DW$249, DW_AT_name("_printf")
    2369                      .dwattr $C$DW$249, DW_AT_TI_call
    2370 000900 6C00          CALL #_printf ; |827| 
         000902 0000!
    2371                                                      ; call occurs [#_printf] ; |827| 
    2372                      .dwpsn  file "../c5535_bsl_revc/ezdsp5535_v1/c55xx_csl/ccs_v4.0_examples/mmc_sd/CSL_MMCSD_dmaExample/
    2373 000904 E618          MOV #2, *SP(#12) ; |828| 
         000906 02   
    2374                      .dwpsn  file "../c5535_bsl_revc/ezdsp5535_v1/c55xx_csl/ccs_v4.0_examples/mmc_sd/CSL_MMCSD_dmaExample/
    2375 000907 ED08          MOV dbl(*SP(#4)), AC0 ; |829| 
         000909 08   
    2376 00090a 1007          SFTL AC0, #9, AC0 ; |829| 
         00090c 09   
    2377 00090d EB0C          MOV AC0, dbl(*SP(#6)) ; |829| 
         00090f 08   
    2378                      .dwpsn  file "../c5535_bsl_revc/ezdsp5535_v1/c55xx_csl/ccs_v4.0_examples/mmc_sd/CSL_MMCSD_dmaExample/
    2379 000910 EC31          AMOV #_cardIdObj, XAR1 ; |832| 
         000912 9E00 
         000914 0060-
    2380 000916 ED31          MOV dbl(*(#_mmcsdHandle)), XAR0
         000918 8F00 
         00091a 0040-
    2381              $C$DW$250       .dwtag  DW_TAG_TI_branch
    2382                      .dwattr $C$DW$250, DW_AT_low_pc(0x00)
    2383                      .dwattr $C$DW$250, DW_AT_name("_MMC_sendAllCID")
    2384                      .dwattr $C$DW$250, DW_AT_TI_call
    2385 00091c 6C00          CALL #_MMC_sendAllCID ; |832| 
         00091e 0000!
    2386                                                      ; call occurs [#_MMC_sendAllCID] ; |832| 
    2387 000920 C410          MOV T0, *SP(#8) ; |832| 
    2388                      .dwpsn  file "../c5535_bsl_revc/ezdsp5535_v1/c55xx_csl/ccs_v4.0_examples/mmc_sd/CSL_MMCSD_dmaExample/
    2389 000922 2249          MOV T0, AR1
    2390 000924 0409          BCC $C$L63,AR1 == #0 ; |833| 
         000926 12   
    2391                                                      ; branchcc occurs ; |833| 
    2392                      .dwpsn  file "../c5535_bsl_revc/ezdsp5535_v1/c55xx_csl/ccs_v4.0_examples/mmc_sd/CSL_MMCSD_dmaExample/
    2393 000927 EC31          AMOV #$C$FSL19, XAR3 ; |835| 
         000929 BE00 
         00092b 0252+
    2394 00092d EB00          MOV XAR3, dbl(*SP(#0))
         00092f B5   
    2395              $C$DW$251       .dwtag  DW_TAG_TI_branch
    2396                      .dwattr $C$DW$251, DW_AT_low_pc(0x00)
    2397                      .dwattr $C$DW$251, DW_AT_name("_printf")
TMS320C55x Assembler PC v4.4.1 Sat Sep 29 23:09:00 2018

Tools Copyright (c) 1996-2012 Texas Instruments Incorporated
csl_mmcsd_dma_example.asm                                            PAGE   56

    2398                      .dwattr $C$DW$251, DW_AT_TI_call
    2399 000930 6C00          CALL #_printf ; |835| 
         000932 0000!
    2400                                                      ; call occurs [#_printf] ; |835| 
    2401                      .dwpsn  file "../c5535_bsl_revc/ezdsp5535_v1/c55xx_csl/ccs_v4.0_examples/mmc_sd/CSL_MMCSD_dmaExample/
    2402 000934 A410          MOV *SP(#8), T0 ; |836| 
    2403 000936 0603          B $C$L88  ; |836| 
         000938 CB   
    2404                                                      ; branch occurs ; |836| 
    2405 000939       $C$L63:    
    2406                      .dwpsn  file "../c5535_bsl_revc/ezdsp5535_v1/c55xx_csl/ccs_v4.0_examples/mmc_sd/CSL_MMCSD_dmaExample/
    2407 000939 ED31          MOV dbl(*(#_mmcsdHandle)), XAR0
         00093b 8F00 
         00093d 0040-
    2408 00093f EC31          AMOV #_mmcCardObj, XAR1 ; |840| 
         000941 9E00 
         000943 0042-
    2409              $C$DW$252       .dwtag  DW_TAG_TI_branch
    2410                      .dwattr $C$DW$252, DW_AT_low_pc(0x00)
    2411                      .dwattr $C$DW$252, DW_AT_name("_MMC_setRca")
    2412                      .dwattr $C$DW$252, DW_AT_TI_call
    2413              
    2414 000945 6C00          CALL #_MMC_setRca ; |840| 
         000947 0000!
    2415 000949 3D14  ||      MOV #1, T0
    2416              
    2417                                                      ; call occurs [#_MMC_setRca] ; |840| 
    2418 00094b C410          MOV T0, *SP(#8) ; |840| 
    2419                      .dwpsn  file "../c5535_bsl_revc/ezdsp5535_v1/c55xx_csl/ccs_v4.0_examples/mmc_sd/CSL_MMCSD_dmaExample/
    2420 00094d 2249          MOV T0, AR1
    2421 00094f 0409          BCC $C$L64,AR1 == #0 ; |841| 
         000951 12   
    2422                                                      ; branchcc occurs ; |841| 
    2423                      .dwpsn  file "../c5535_bsl_revc/ezdsp5535_v1/c55xx_csl/ccs_v4.0_examples/mmc_sd/CSL_MMCSD_dmaExample/
    2424 000952 EC31          AMOV #$C$FSL20, XAR3 ; |843| 
         000954 BE00 
         000956 026E+
    2425 000958 EB00          MOV XAR3, dbl(*SP(#0))
         00095a B5   
    2426              $C$DW$253       .dwtag  DW_TAG_TI_branch
    2427                      .dwattr $C$DW$253, DW_AT_low_pc(0x00)
    2428                      .dwattr $C$DW$253, DW_AT_name("_printf")
    2429                      .dwattr $C$DW$253, DW_AT_TI_call
    2430 00095b 6C00          CALL #_printf ; |843| 
         00095d 0000!
    2431                                                      ; call occurs [#_printf] ; |843| 
    2432                      .dwpsn  file "../c5535_bsl_revc/ezdsp5535_v1/c55xx_csl/ccs_v4.0_examples/mmc_sd/CSL_MMCSD_dmaExample/
    2433 00095f A410          MOV *SP(#8), T0 ; |844| 
    2434 000961 0603          B $C$L88  ; |844| 
         000963 A0   
    2435                                                      ; branch occurs ; |844| 
    2436 000964       $C$L64:    
    2437                      .dwpsn  file "../c5535_bsl_revc/ezdsp5535_v1/c55xx_csl/ccs_v4.0_examples/mmc_sd/CSL_MMCSD_dmaExample/
    2438 000964 ED31          MOV dbl(*(#_mmcsdHandle)), XAR0
         000966 8F00 
TMS320C55x Assembler PC v4.4.1 Sat Sep 29 23:09:00 2018

Tools Copyright (c) 1996-2012 Texas Instruments Incorporated
csl_mmcsd_dma_example.asm                                            PAGE   57

         000968 0040-
    2439 00096a EC31          AMOV #_cardCsdObj, XAR1 ; |848| 
         00096c 9E00 
         00096e 0070-
    2440              $C$DW$254       .dwtag  DW_TAG_TI_branch
    2441                      .dwattr $C$DW$254, DW_AT_low_pc(0x00)
    2442                      .dwattr $C$DW$254, DW_AT_name("_MMC_getCardCsd")
    2443                      .dwattr $C$DW$254, DW_AT_TI_call
    2444 000970 6C00          CALL #_MMC_getCardCsd ; |848| 
         000972 0000!
    2445                                                      ; call occurs [#_MMC_getCardCsd] ; |848| 
    2446 000974 C410          MOV T0, *SP(#8) ; |848| 
    2447                      .dwpsn  file "../c5535_bsl_revc/ezdsp5535_v1/c55xx_csl/ccs_v4.0_examples/mmc_sd/CSL_MMCSD_dmaExample/
    2448 000976 2249          MOV T0, AR1
    2449 000978 0409          BCC $C$L65,AR1 == #0 ; |849| 
         00097a 12   
    2450                                                      ; branchcc occurs ; |849| 
    2451                      .dwpsn  file "../c5535_bsl_revc/ezdsp5535_v1/c55xx_csl/ccs_v4.0_examples/mmc_sd/CSL_MMCSD_dmaExample/
    2452 00097b EC31          AMOV #$C$FSL21, XAR3 ; |851| 
         00097d BE00 
         00097f 0286+
    2453 000981 EB00          MOV XAR3, dbl(*SP(#0))
         000983 B5   
    2454              $C$DW$255       .dwtag  DW_TAG_TI_branch
    2455                      .dwattr $C$DW$255, DW_AT_low_pc(0x00)
    2456                      .dwattr $C$DW$255, DW_AT_name("_printf")
    2457                      .dwattr $C$DW$255, DW_AT_TI_call
    2458 000984 6C00          CALL #_printf ; |851| 
         000986 0000!
    2459                                                      ; call occurs [#_printf] ; |851| 
    2460                      .dwpsn  file "../c5535_bsl_revc/ezdsp5535_v1/c55xx_csl/ccs_v4.0_examples/mmc_sd/CSL_MMCSD_dmaExample/
    2461 000988 A410          MOV *SP(#8), T0 ; |852| 
    2462 00098a 0603          B $C$L88  ; |852| 
         00098c 77   
    2463                                                      ; branch occurs ; |852| 
    2464 00098d       $C$L65:    
    2465                      .dwpsn  file "../c5535_bsl_revc/ezdsp5535_v1/c55xx_csl/ccs_v4.0_examples/mmc_sd/CSL_MMCSD_dmaExample/
    2466 00098d 7613          MOV #5000, AC0 ; |856| 
         00098f 8808 
    2467              $C$DW$256       .dwtag  DW_TAG_TI_branch
    2468                      .dwattr $C$DW$256, DW_AT_low_pc(0x00)
    2469                      .dwattr $C$DW$256, DW_AT_name("_computeClkRate")
    2470                      .dwattr $C$DW$256, DW_AT_TI_call
    2471 000991 0803          CALL #_computeClkRate ; |856| 
         000993 74   
    2472                                                      ; call occurs [#_computeClkRate] ; |856| 
    2473 000994 C416          MOV T0, *SP(#11) ; |856| 
    2474                      .dwpsn  file "../c5535_bsl_revc/ezdsp5535_v1/c55xx_csl/ccs_v4.0_examples/mmc_sd/CSL_MMCSD_dmaExample/
    2475 000996 0601          B $C$L74  ; |857| 
         000998 41   
    2476                                                      ; branch occurs ; |857| 
    2477 000999       $C$L66:    
    2478                      .dwpsn  file "../c5535_bsl_revc/ezdsp5535_v1/c55xx_csl/ccs_v4.0_examples/mmc_sd/CSL_MMCSD_dmaExample/
    2479 000999 F031          CMP *(#(_mmcCardObj+18)) == #1, TC1 ; |858| 
         00099b 0001 
TMS320C55x Assembler PC v4.4.1 Sat Sep 29 23:09:00 2018

Tools Copyright (c) 1996-2012 Texas Instruments Incorporated
csl_mmcsd_dma_example.asm                                            PAGE   58

         00099d 0000 
         00099f 54-  
    2480 0009a0 6D74          BCC $C$L73,!TC1 ; |858| 
         0009a2 0117 
    2481                                                      ; branchcc occurs ; |858| 
    2482                      .dwpsn  file "../c5535_bsl_revc/ezdsp5535_v1/c55xx_csl/ccs_v4.0_examples/mmc_sd/CSL_MMCSD_dmaExample/
    2483 0009a4 EC31          AMOV #$C$FSL22, XAR3 ; |860| 
         0009a6 BE00 
         0009a8 02A2+
    2484 0009aa EB00          MOV XAR3, dbl(*SP(#0))
         0009ac B5   
    2485              $C$DW$257       .dwtag  DW_TAG_TI_branch
    2486                      .dwattr $C$DW$257, DW_AT_low_pc(0x00)
    2487                      .dwattr $C$DW$257, DW_AT_name("_printf")
    2488                      .dwattr $C$DW$257, DW_AT_TI_call
    2489 0009ad 6C00          CALL #_printf ; |860| 
         0009af 0000!
    2490                                                      ; call occurs [#_printf] ; |860| 
    2491                      .dwpsn  file "../c5535_bsl_revc/ezdsp5535_v1/c55xx_csl/ccs_v4.0_examples/mmc_sd/CSL_MMCSD_dmaExample/
    2492 0009b1 E618          MOV #1, *SP(#12) ; |861| 
         0009b3 01   
    2493                      .dwpsn  file "../c5535_bsl_revc/ezdsp5535_v1/c55xx_csl/ccs_v4.0_examples/mmc_sd/CSL_MMCSD_dmaExample/
    2494 0009b4 ED31          MOV dbl(*(#_mmcsdHandle)), XAR3
         0009b6 BF00 
         0009b8 0040-
    2495 0009ba ED75          MOV dbl(*AR3(short(#2))), XAR3
         0009bc BF   
    2496 0009bd F06D          CMP *AR3(#26) == #1, TC1 ; |864| 
         0009bf 0001 
         0009c1 001A 
    2497 0009c3 0474          BCC $C$L67,!TC1 ; |864| 
         0009c5 22   
    2498                                                      ; branchcc occurs ; |864| 
    2499                      .dwpsn  file "../c5535_bsl_revc/ezdsp5535_v1/c55xx_csl/ccs_v4.0_examples/mmc_sd/CSL_MMCSD_dmaExample/
    2500 0009c6 EC31          AMOV #$C$FSL23, XAR3 ; |866| 
         0009c8 BE00 
         0009ca 02B6+
    2501 0009cc EB00          MOV XAR3, dbl(*SP(#0))
         0009ce B5   
    2502              $C$DW$258       .dwtag  DW_TAG_TI_branch
    2503                      .dwattr $C$DW$258, DW_AT_low_pc(0x00)
    2504                      .dwattr $C$DW$258, DW_AT_name("_printf")
    2505                      .dwattr $C$DW$258, DW_AT_TI_call
    2506 0009cf 6C00          CALL #_printf ; |866| 
         0009d1 0000!
    2507                                                      ; call occurs [#_printf] ; |866| 
    2508                      .dwpsn  file "../c5535_bsl_revc/ezdsp5535_v1/c55xx_csl/ccs_v4.0_examples/mmc_sd/CSL_MMCSD_dmaExample/
    2509 0009d3 EC31          AMOV #$C$FSL24, XAR3 ; |867| 
         0009d5 BE00 
         0009d7 02D6+
    2510 0009d9 EB00          MOV XAR3, dbl(*SP(#0))
         0009db B5   
    2511              $C$DW$259       .dwtag  DW_TAG_TI_branch
    2512                      .dwattr $C$DW$259, DW_AT_low_pc(0x00)
    2513                      .dwattr $C$DW$259, DW_AT_name("_printf")
TMS320C55x Assembler PC v4.4.1 Sat Sep 29 23:09:00 2018

Tools Copyright (c) 1996-2012 Texas Instruments Incorporated
csl_mmcsd_dma_example.asm                                            PAGE   59

    2514                      .dwattr $C$DW$259, DW_AT_TI_call
    2515 0009dc 6C00          CALL #_printf ; |867| 
         0009de 0000!
    2516                                                      ; call occurs [#_printf] ; |867| 
    2517                      .dwpsn  file "../c5535_bsl_revc/ezdsp5535_v1/c55xx_csl/ccs_v4.0_examples/mmc_sd/CSL_MMCSD_dmaExample/
    2518 0009e0 ED08          MOV dbl(*SP(#4)), AC0 ; |871| 
         0009e2 08   
    2519 0009e3 EB0C          MOV AC0, dbl(*SP(#6)) ; |871| 
         0009e5 08   
    2520                      .dwpsn  file "../c5535_bsl_revc/ezdsp5535_v1/c55xx_csl/ccs_v4.0_examples/mmc_sd/CSL_MMCSD_dmaExample/
    2521 0009e6 4A23          B $C$L68  ; |872| 
    2522                                                      ; branch occurs ; |872| 
    2523 0009e8       $C$L67:    
    2524                      .dwpsn  file "../c5535_bsl_revc/ezdsp5535_v1/c55xx_csl/ccs_v4.0_examples/mmc_sd/CSL_MMCSD_dmaExample/
    2525 0009e8 EC31          AMOV #$C$FSL25, XAR3 ; |875| 
         0009ea BE00 
         0009ec 02FC+
    2526 0009ee EB00          MOV XAR3, dbl(*SP(#0))
         0009f0 B5   
    2527              $C$DW$260       .dwtag  DW_TAG_TI_branch
    2528                      .dwattr $C$DW$260, DW_AT_low_pc(0x00)
    2529                      .dwattr $C$DW$260, DW_AT_name("_printf")
    2530                      .dwattr $C$DW$260, DW_AT_TI_call
    2531 0009f1 6C00          CALL #_printf ; |875| 
         0009f3 0000!
    2532                                                      ; call occurs [#_printf] ; |875| 
    2533                      .dwpsn  file "../c5535_bsl_revc/ezdsp5535_v1/c55xx_csl/ccs_v4.0_examples/mmc_sd/CSL_MMCSD_dmaExample/
    2534 0009f5 EC31          AMOV #$C$FSL26, XAR3 ; |876| 
         0009f7 BE00 
         0009f9 0320+
    2535 0009fb EB00          MOV XAR3, dbl(*SP(#0))
         0009fd B5   
    2536              $C$DW$261       .dwtag  DW_TAG_TI_branch
    2537                      .dwattr $C$DW$261, DW_AT_low_pc(0x00)
    2538                      .dwattr $C$DW$261, DW_AT_name("_printf")
    2539                      .dwattr $C$DW$261, DW_AT_TI_call
    2540 0009fe 6C00          CALL #_printf ; |876| 
         000a00 0000!
    2541                                                      ; call occurs [#_printf] ; |876| 
    2542                      .dwpsn  file "../c5535_bsl_revc/ezdsp5535_v1/c55xx_csl/ccs_v4.0_examples/mmc_sd/CSL_MMCSD_dmaExample/
    2543 000a02 ED08          MOV dbl(*SP(#4)), AC0 ; |880| 
         000a04 08   
    2544 000a05 1007          SFTL AC0, #9, AC0 ; |880| 
         000a07 09   
    2545 000a08 EB0C          MOV AC0, dbl(*SP(#6)) ; |880| 
         000a0a 08   
    2546 000a0b       $C$L68:    
    2547                      .dwpsn  file "../c5535_bsl_revc/ezdsp5535_v1/c55xx_csl/ccs_v4.0_examples/mmc_sd/CSL_MMCSD_dmaExample/
    2548 000a0b ED31          MOV dbl(*(#_mmcsdHandle)), XAR0
         000a0d 8F00 
         000a0f 0040-
    2549 000a11 7600          MOV #70, T0 ; |884| 
         000a13 4648 
    2550              $C$DW$262       .dwtag  DW_TAG_TI_branch
    2551                      .dwattr $C$DW$262, DW_AT_low_pc(0x00)
TMS320C55x Assembler PC v4.4.1 Sat Sep 29 23:09:00 2018

Tools Copyright (c) 1996-2012 Texas Instruments Incorporated
csl_mmcsd_dma_example.asm                                            PAGE   60

    2552                      .dwattr $C$DW$262, DW_AT_name("_MMC_sendOpCond")
    2553                      .dwattr $C$DW$262, DW_AT_TI_call
    2554 000a15 6C00          CALL #_MMC_sendOpCond ; |884| 
         000a17 0000!
    2555                                                      ; call occurs [#_MMC_sendOpCond] ; |884| 
    2556 000a19 C410          MOV T0, *SP(#8) ; |884| 
    2557                      .dwpsn  file "../c5535_bsl_revc/ezdsp5535_v1/c55xx_csl/ccs_v4.0_examples/mmc_sd/CSL_MMCSD_dmaExample/
    2558 000a1b 2249          MOV T0, AR1
    2559 000a1d 0409          BCC $C$L69,AR1 == #0 ; |885| 
         000a1f 12   
    2560                                                      ; branchcc occurs ; |885| 
    2561                      .dwpsn  file "../c5535_bsl_revc/ezdsp5535_v1/c55xx_csl/ccs_v4.0_examples/mmc_sd/CSL_MMCSD_dmaExample/
    2562 000a20 EC31          AMOV #$C$FSL27, XAR3 ; |887| 
         000a22 BE00 
         000a24 0346+
    2563 000a26 EB00          MOV XAR3, dbl(*SP(#0))
         000a28 B5   
    2564              $C$DW$263       .dwtag  DW_TAG_TI_branch
    2565                      .dwattr $C$DW$263, DW_AT_low_pc(0x00)
    2566                      .dwattr $C$DW$263, DW_AT_name("_printf")
    2567                      .dwattr $C$DW$263, DW_AT_TI_call
    2568 000a29 6C00          CALL #_printf ; |887| 
         000a2b 0000!
    2569                                                      ; call occurs [#_printf] ; |887| 
    2570                      .dwpsn  file "../c5535_bsl_revc/ezdsp5535_v1/c55xx_csl/ccs_v4.0_examples/mmc_sd/CSL_MMCSD_dmaExample/
    2571 000a2d A410          MOV *SP(#8), T0 ; |888| 
    2572 000a2f 0602          B $C$L88  ; |888| 
         000a31 D2   
    2573                                                      ; branch occurs ; |888| 
    2574 000a32       $C$L69:    
    2575                      .dwpsn  file "../c5535_bsl_revc/ezdsp5535_v1/c55xx_csl/ccs_v4.0_examples/mmc_sd/CSL_MMCSD_dmaExample/
    2576 000a32 ED31          MOV dbl(*(#_mmcsdHandle)), XAR0
         000a34 8F00 
         000a36 0040-
    2577 000a38 EC31          AMOV #_cardIdObj, XAR1 ; |892| 
         000a3a 9E00 
         000a3c 0060-
    2578              $C$DW$264       .dwtag  DW_TAG_TI_branch
    2579                      .dwattr $C$DW$264, DW_AT_low_pc(0x00)
    2580                      .dwattr $C$DW$264, DW_AT_name("_SD_sendAllCID")
    2581                      .dwattr $C$DW$264, DW_AT_TI_call
    2582 000a3e 6C00          CALL #_SD_sendAllCID ; |892| 
         000a40 0000!
    2583                                                      ; call occurs [#_SD_sendAllCID] ; |892| 
    2584 000a42 C410          MOV T0, *SP(#8) ; |892| 
    2585                      .dwpsn  file "../c5535_bsl_revc/ezdsp5535_v1/c55xx_csl/ccs_v4.0_examples/mmc_sd/CSL_MMCSD_dmaExample/
    2586 000a44 2249          MOV T0, AR1
    2587 000a46 0409          BCC $C$L70,AR1 == #0 ; |893| 
         000a48 12   
    2588                                                      ; branchcc occurs ; |893| 
    2589                      .dwpsn  file "../c5535_bsl_revc/ezdsp5535_v1/c55xx_csl/ccs_v4.0_examples/mmc_sd/CSL_MMCSD_dmaExample/
    2590 000a49 EC31          AMOV #$C$FSL28, XAR3 ; |895| 
         000a4b BE00 
         000a4d 0362+
    2591 000a4f EB00          MOV XAR3, dbl(*SP(#0))
TMS320C55x Assembler PC v4.4.1 Sat Sep 29 23:09:00 2018

Tools Copyright (c) 1996-2012 Texas Instruments Incorporated
csl_mmcsd_dma_example.asm                                            PAGE   61

         000a51 B5   
    2592              $C$DW$265       .dwtag  DW_TAG_TI_branch
    2593                      .dwattr $C$DW$265, DW_AT_low_pc(0x00)
    2594                      .dwattr $C$DW$265, DW_AT_name("_printf")
    2595                      .dwattr $C$DW$265, DW_AT_TI_call
    2596 000a52 6C00          CALL #_printf ; |895| 
         000a54 0000!
    2597                                                      ; call occurs [#_printf] ; |895| 
    2598                      .dwpsn  file "../c5535_bsl_revc/ezdsp5535_v1/c55xx_csl/ccs_v4.0_examples/mmc_sd/CSL_MMCSD_dmaExample/
    2599 000a56 A410          MOV *SP(#8), T0 ; |896| 
    2600 000a58 0602          B $C$L88  ; |896| 
         000a5a A9   
    2601                                                      ; branch occurs ; |896| 
    2602 000a5b       $C$L70:    
    2603                      .dwpsn  file "../c5535_bsl_revc/ezdsp5535_v1/c55xx_csl/ccs_v4.0_examples/mmc_sd/CSL_MMCSD_dmaExample/
    2604 000a5b EC1A          AMAR *SP(#13), XAR2
         000a5d AE   
    2605 000a5e ED31          MOV dbl(*(#_mmcsdHandle)), XAR0
         000a60 8F00 
         000a62 0040-
    2606 000a64 EC31          AMOV #_mmcCardObj, XAR1 ; |900| 
         000a66 9E00 
         000a68 0042-
    2607              $C$DW$266       .dwtag  DW_TAG_TI_branch
    2608                      .dwattr $C$DW$266, DW_AT_low_pc(0x00)
    2609                      .dwattr $C$DW$266, DW_AT_name("_SD_sendRca")
    2610                      .dwattr $C$DW$266, DW_AT_TI_call
    2611 000a6a 6C00          CALL #_SD_sendRca ; |900| 
         000a6c 0000!
    2612                                                      ; call occurs [#_SD_sendRca] ; |900| 
    2613 000a6e C410          MOV T0, *SP(#8) ; |900| 
    2614                      .dwpsn  file "../c5535_bsl_revc/ezdsp5535_v1/c55xx_csl/ccs_v4.0_examples/mmc_sd/CSL_MMCSD_dmaExample/
    2615 000a70 2249          MOV T0, AR1
    2616 000a72 0409          BCC $C$L71,AR1 == #0 ; |901| 
         000a74 12   
    2617                                                      ; branchcc occurs ; |901| 
    2618                      .dwpsn  file "../c5535_bsl_revc/ezdsp5535_v1/c55xx_csl/ccs_v4.0_examples/mmc_sd/CSL_MMCSD_dmaExample/
    2619 000a75 EC31          AMOV #$C$FSL29, XAR3 ; |903| 
         000a77 BE00 
         000a79 037E+
    2620 000a7b EB00          MOV XAR3, dbl(*SP(#0))
         000a7d B5   
    2621              $C$DW$267       .dwtag  DW_TAG_TI_branch
    2622                      .dwattr $C$DW$267, DW_AT_low_pc(0x00)
    2623                      .dwattr $C$DW$267, DW_AT_name("_printf")
    2624                      .dwattr $C$DW$267, DW_AT_TI_call
    2625 000a7e 6C00          CALL #_printf ; |903| 
         000a80 0000!
    2626                                                      ; call occurs [#_printf] ; |903| 
    2627                      .dwpsn  file "../c5535_bsl_revc/ezdsp5535_v1/c55xx_csl/ccs_v4.0_examples/mmc_sd/CSL_MMCSD_dmaExample/
    2628 000a82 A410          MOV *SP(#8), T0 ; |904| 
    2629 000a84 0602          B $C$L88  ; |904| 
         000a86 7D   
    2630                                                      ; branch occurs ; |904| 
    2631 000a87       $C$L71:    
TMS320C55x Assembler PC v4.4.1 Sat Sep 29 23:09:00 2018

Tools Copyright (c) 1996-2012 Texas Instruments Incorporated
csl_mmcsd_dma_example.asm                                            PAGE   62

    2632                      .dwpsn  file "../c5535_bsl_revc/ezdsp5535_v1/c55xx_csl/ccs_v4.0_examples/mmc_sd/CSL_MMCSD_dmaExample/
    2633 000a87 ED31          MOV dbl(*(#_mmcsdHandle)), XAR0
         000a89 8F00 
         000a8b 0040-
    2634 000a8d EC31          AMOV #_cardCsdObj, XAR1 ; |908| 
         000a8f 9E00 
         000a91 0070-
    2635              $C$DW$268       .dwtag  DW_TAG_TI_branch
    2636                      .dwattr $C$DW$268, DW_AT_low_pc(0x00)
    2637                      .dwattr $C$DW$268, DW_AT_name("_SD_getCardCsd")
    2638                      .dwattr $C$DW$268, DW_AT_TI_call
    2639 000a93 6C00          CALL #_SD_getCardCsd ; |908| 
         000a95 0000!
    2640                                                      ; call occurs [#_SD_getCardCsd] ; |908| 
    2641 000a97 C410          MOV T0, *SP(#8) ; |908| 
    2642                      .dwpsn  file "../c5535_bsl_revc/ezdsp5535_v1/c55xx_csl/ccs_v4.0_examples/mmc_sd/CSL_MMCSD_dmaExample/
    2643 000a99 2249          MOV T0, AR1
    2644 000a9b 0409          BCC $C$L72,AR1 == #0 ; |909| 
         000a9d 12   
    2645                                                      ; branchcc occurs ; |909| 
    2646                      .dwpsn  file "../c5535_bsl_revc/ezdsp5535_v1/c55xx_csl/ccs_v4.0_examples/mmc_sd/CSL_MMCSD_dmaExample/
    2647 000a9e EC31          AMOV #$C$FSL30, XAR3 ; |911| 
         000aa0 BE00 
         000aa2 0396+
    2648 000aa4 EB00          MOV XAR3, dbl(*SP(#0))
         000aa6 B5   
    2649              $C$DW$269       .dwtag  DW_TAG_TI_branch
    2650                      .dwattr $C$DW$269, DW_AT_low_pc(0x00)
    2651                      .dwattr $C$DW$269, DW_AT_name("_printf")
    2652                      .dwattr $C$DW$269, DW_AT_TI_call
    2653 000aa7 6C00          CALL #_printf ; |911| 
         000aa9 0000!
    2654                                                      ; call occurs [#_printf] ; |911| 
    2655                      .dwpsn  file "../c5535_bsl_revc/ezdsp5535_v1/c55xx_csl/ccs_v4.0_examples/mmc_sd/CSL_MMCSD_dmaExample/
    2656 000aab A410          MOV *SP(#8), T0 ; |912| 
    2657 000aad 0602          B $C$L88  ; |912| 
         000aaf 54   
    2658                                                      ; branch occurs ; |912| 
    2659 000ab0       $C$L72:    
    2660                      .dwpsn  file "../c5535_bsl_revc/ezdsp5535_v1/c55xx_csl/ccs_v4.0_examples/mmc_sd/CSL_MMCSD_dmaExample/
    2661 000ab0 764E          MOV #20000, AC0 ; |916| 
         000ab2 2008 
    2662              $C$DW$270       .dwtag  DW_TAG_TI_branch
    2663                      .dwattr $C$DW$270, DW_AT_low_pc(0x00)
    2664                      .dwattr $C$DW$270, DW_AT_name("_computeClkRate")
    2665                      .dwattr $C$DW$270, DW_AT_TI_call
    2666 000ab4 0802          CALL #_computeClkRate ; |916| 
         000ab6 51   
    2667                                                      ; call occurs [#_computeClkRate] ; |916| 
    2668 000ab7 C416          MOV T0, *SP(#11) ; |916| 
    2669                      .dwpsn  file "../c5535_bsl_revc/ezdsp5535_v1/c55xx_csl/ccs_v4.0_examples/mmc_sd/CSL_MMCSD_dmaExample/
    2670 000ab9 4A1F          B $C$L74  ; |917| 
    2671                                                      ; branch occurs ; |917| 
    2672 000abb       $C$L73:    
    2673                      .dwpsn  file "../c5535_bsl_revc/ezdsp5535_v1/c55xx_csl/ccs_v4.0_examples/mmc_sd/CSL_MMCSD_dmaExample/
TMS320C55x Assembler PC v4.4.1 Sat Sep 29 23:09:00 2018

Tools Copyright (c) 1996-2012 Texas Instruments Incorporated
csl_mmcsd_dma_example.asm                                            PAGE   63

    2674 000abb EC31          AMOV #$C$FSL31, XAR3 ; |920| 
         000abd BE00 
         000abf 03B2+
    2675 000ac1 EB00          MOV XAR3, dbl(*SP(#0))
         000ac3 B5   
    2676              $C$DW$271       .dwtag  DW_TAG_TI_branch
    2677                      .dwattr $C$DW$271, DW_AT_low_pc(0x00)
    2678                      .dwattr $C$DW$271, DW_AT_name("_printf")
    2679                      .dwattr $C$DW$271, DW_AT_TI_call
    2680 000ac4 6C00          CALL #_printf ; |920| 
         000ac6 0000!
    2681                                                      ; call occurs [#_printf] ; |920| 
    2682                      .dwpsn  file "../c5535_bsl_revc/ezdsp5535_v1/c55xx_csl/ccs_v4.0_examples/mmc_sd/CSL_MMCSD_dmaExample/
    2683 000ac8 EC31          AMOV #$C$FSL32, XAR3 ; |921| 
         000aca BE00 
         000acc 03C6+
    2684 000ace EB00          MOV XAR3, dbl(*SP(#0))
         000ad0 B5   
    2685              $C$DW$272       .dwtag  DW_TAG_TI_branch
    2686                      .dwattr $C$DW$272, DW_AT_low_pc(0x00)
    2687                      .dwattr $C$DW$272, DW_AT_name("_printf")
    2688                      .dwattr $C$DW$272, DW_AT_TI_call
    2689 000ad1 6C00          CALL #_printf ; |921| 
         000ad3 0000!
    2690                                                      ; call occurs [#_printf] ; |921| 
    2691                      .dwpsn  file "../c5535_bsl_revc/ezdsp5535_v1/c55xx_csl/ccs_v4.0_examples/mmc_sd/CSL_MMCSD_dmaExample/
    2692 000ad5 3E14          MOV #-1, T0
    2693 000ad7 0602          B $C$L88  ; |922| 
         000ad9 2A   
    2694                                                      ; branch occurs ; |922| 
    2695 000ada       $C$L74:    
    2696                      .dwpsn  file "../c5535_bsl_revc/ezdsp5535_v1/c55xx_csl/ccs_v4.0_examples/mmc_sd/CSL_MMCSD_dmaExample/
    2697 000ada A418          MOV *SP(#12), T0 ; |926| 
    2698 000adc EC31          AMOV #_mmcCardObj, XAR0 ; |926| 
         000ade 8E00 
         000ae0 0042-
    2699              $C$DW$273       .dwtag  DW_TAG_TI_branch
    2700                      .dwattr $C$DW$273, DW_AT_low_pc(0x00)
    2701                      .dwattr $C$DW$273, DW_AT_name("_MMC_setCardType")
    2702                      .dwattr $C$DW$273, DW_AT_TI_call
    2703 000ae2 6C00          CALL #_MMC_setCardType ; |926| 
         000ae4 0000!
    2704                                                      ; call occurs [#_MMC_setCardType] ; |926| 
    2705 000ae6 C410          MOV T0, *SP(#8) ; |926| 
    2706                      .dwpsn  file "../c5535_bsl_revc/ezdsp5535_v1/c55xx_csl/ccs_v4.0_examples/mmc_sd/CSL_MMCSD_dmaExample/
    2707 000ae8 2249          MOV T0, AR1
    2708 000aea 0409          BCC $C$L75,AR1 == #0 ; |927| 
         000aec 12   
    2709                                                      ; branchcc occurs ; |927| 
    2710                      .dwpsn  file "../c5535_bsl_revc/ezdsp5535_v1/c55xx_csl/ccs_v4.0_examples/mmc_sd/CSL_MMCSD_dmaExample/
    2711 000aed EC31          AMOV #$C$FSL33, XAR3 ; |929| 
         000aef BE00 
         000af1 03DC+
    2712 000af3 EB00          MOV XAR3, dbl(*SP(#0))
         000af5 B5   
TMS320C55x Assembler PC v4.4.1 Sat Sep 29 23:09:00 2018

Tools Copyright (c) 1996-2012 Texas Instruments Incorporated
csl_mmcsd_dma_example.asm                                            PAGE   64

    2713              $C$DW$274       .dwtag  DW_TAG_TI_branch
    2714                      .dwattr $C$DW$274, DW_AT_low_pc(0x00)
    2715                      .dwattr $C$DW$274, DW_AT_name("_printf")
    2716                      .dwattr $C$DW$274, DW_AT_TI_call
    2717 000af6 6C00          CALL #_printf ; |929| 
         000af8 0000!
    2718                                                      ; call occurs [#_printf] ; |929| 
    2719                      .dwpsn  file "../c5535_bsl_revc/ezdsp5535_v1/c55xx_csl/ccs_v4.0_examples/mmc_sd/CSL_MMCSD_dmaExample/
    2720 000afa A410          MOV *SP(#8), T0 ; |930| 
    2721 000afc 0602          B $C$L88  ; |930| 
         000afe 05   
    2722                                                      ; branch occurs ; |930| 
    2723 000aff       $C$L75:    
    2724                      .dwpsn  file "../c5535_bsl_revc/ezdsp5535_v1/c55xx_csl/ccs_v4.0_examples/mmc_sd/CSL_MMCSD_dmaExample/
    2725 000aff ED31          MOV dbl(*(#_mmcsdHandle)), XAR0
         000b01 8F00 
         000b03 0040-
    2726 000b05 EC31          AMOV #_mmcCardObj, XAR1 ; |934| 
         000b07 9E00 
         000b09 0042-
    2727              $C$DW$275       .dwtag  DW_TAG_TI_branch
    2728                      .dwattr $C$DW$275, DW_AT_low_pc(0x00)
    2729                      .dwattr $C$DW$275, DW_AT_name("_MMC_setCardPtr")
    2730                      .dwattr $C$DW$275, DW_AT_TI_call
    2731 000b0b 6C00          CALL #_MMC_setCardPtr ; |934| 
         000b0d 0000!
    2732                                                      ; call occurs [#_MMC_setCardPtr] ; |934| 
    2733 000b0f C410          MOV T0, *SP(#8) ; |934| 
    2734                      .dwpsn  file "../c5535_bsl_revc/ezdsp5535_v1/c55xx_csl/ccs_v4.0_examples/mmc_sd/CSL_MMCSD_dmaExample/
    2735 000b11 2249          MOV T0, AR1
    2736 000b13 0409          BCC $C$L76,AR1 == #0 ; |935| 
         000b15 12   
    2737                                                      ; branchcc occurs ; |935| 
    2738                      .dwpsn  file "../c5535_bsl_revc/ezdsp5535_v1/c55xx_csl/ccs_v4.0_examples/mmc_sd/CSL_MMCSD_dmaExample/
    2739 000b16 EC31          AMOV #$C$FSL34, XAR3 ; |937| 
         000b18 BE00 
         000b1a 03FA+
    2740 000b1c EB00          MOV XAR3, dbl(*SP(#0))
         000b1e B5   
    2741              $C$DW$276       .dwtag  DW_TAG_TI_branch
    2742                      .dwattr $C$DW$276, DW_AT_low_pc(0x00)
    2743                      .dwattr $C$DW$276, DW_AT_name("_printf")
    2744                      .dwattr $C$DW$276, DW_AT_TI_call
    2745 000b1f 6C00          CALL #_printf ; |937| 
         000b21 0000!
    2746                                                      ; call occurs [#_printf] ; |937| 
    2747                      .dwpsn  file "../c5535_bsl_revc/ezdsp5535_v1/c55xx_csl/ccs_v4.0_examples/mmc_sd/CSL_MMCSD_dmaExample/
    2748 000b23 A410          MOV *SP(#8), T0 ; |938| 
    2749 000b25 0601          B $C$L88  ; |938| 
         000b27 DC   
    2750                                                      ; branch occurs ; |938| 
    2751 000b28       $C$L76:    
    2752                      .dwpsn  file "../c5535_bsl_revc/ezdsp5535_v1/c55xx_csl/ccs_v4.0_examples/mmc_sd/CSL_MMCSD_dmaExample/
    2753 000b28 EC14          AMAR *SP(#10), XAR1
         000b2a 9E   
TMS320C55x Assembler PC v4.4.1 Sat Sep 29 23:09:00 2018

Tools Copyright (c) 1996-2012 Texas Instruments Incorporated
csl_mmcsd_dma_example.asm                                            PAGE   65

    2754 000b2b ED31          MOV dbl(*(#_mmcsdHandle)), XAR0
         000b2d 8F00 
         000b2f 0040-
    2755              $C$DW$277       .dwtag  DW_TAG_TI_branch
    2756                      .dwattr $C$DW$277, DW_AT_low_pc(0x00)
    2757                      .dwattr $C$DW$277, DW_AT_name("_MMC_getNumberOfCards")
    2758                      .dwattr $C$DW$277, DW_AT_TI_call
    2759 000b31 6C00          CALL #_MMC_getNumberOfCards ; |942| 
         000b33 0000!
    2760                                                      ; call occurs [#_MMC_getNumberOfCards] ; |942| 
    2761 000b35 C410          MOV T0, *SP(#8) ; |942| 
    2762                      .dwpsn  file "../c5535_bsl_revc/ezdsp5535_v1/c55xx_csl/ccs_v4.0_examples/mmc_sd/CSL_MMCSD_dmaExample/
    2763 000b37 2249          MOV T0, AR1
    2764 000b39 0409          BCC $C$L77,AR1 == #0 ; |943| 
         000b3b 12   
    2765                                                      ; branchcc occurs ; |943| 
    2766                      .dwpsn  file "../c5535_bsl_revc/ezdsp5535_v1/c55xx_csl/ccs_v4.0_examples/mmc_sd/CSL_MMCSD_dmaExample/
    2767 000b3c EC31          AMOV #$C$FSL35, XAR3 ; |945| 
         000b3e BE00 
         000b40 0416+
    2768 000b42 EB00          MOV XAR3, dbl(*SP(#0))
         000b44 B5   
    2769              $C$DW$278       .dwtag  DW_TAG_TI_branch
    2770                      .dwattr $C$DW$278, DW_AT_low_pc(0x00)
    2771                      .dwattr $C$DW$278, DW_AT_name("_printf")
    2772                      .dwattr $C$DW$278, DW_AT_TI_call
    2773 000b45 6C00          CALL #_printf ; |945| 
         000b47 0000!
    2774                                                      ; call occurs [#_printf] ; |945| 
    2775                      .dwpsn  file "../c5535_bsl_revc/ezdsp5535_v1/c55xx_csl/ccs_v4.0_examples/mmc_sd/CSL_MMCSD_dmaExample/
    2776 000b49 A410          MOV *SP(#8), T0 ; |946| 
    2777 000b4b 0601          B $C$L88  ; |946| 
         000b4d B6   
    2778                                                      ; branch occurs ; |946| 
    2779 000b4e       $C$L77:    
    2780                      .dwpsn  file "../c5535_bsl_revc/ezdsp5535_v1/c55xx_csl/ccs_v4.0_examples/mmc_sd/CSL_MMCSD_dmaExample/
    2781              $C$DW$279       .dwtag  DW_TAG_TI_branch
    2782                      .dwattr $C$DW$279, DW_AT_low_pc(0x00)
    2783                      .dwattr $C$DW$279, DW_AT_name("_IRQ_globalEnable")
    2784                      .dwattr $C$DW$279, DW_AT_TI_call
    2785 000b4e 6C00          CALL #_IRQ_globalEnable ; |950| 
         000b50 0000!
    2786                                                      ; call occurs [#_IRQ_globalEnable] ; |950| 
    2787                      .dwpsn  file "../c5535_bsl_revc/ezdsp5535_v1/c55xx_csl/ccs_v4.0_examples/mmc_sd/CSL_MMCSD_dmaExample/
    2788 000b52 E631          MOV #0, *(#_gMmcIntr) ; |952| 
         000b54 0000 
         000b56 0097-
    2789                      .dwpsn  file "../c5535_bsl_revc/ezdsp5535_v1/c55xx_csl/ccs_v4.0_examples/mmc_sd/CSL_MMCSD_dmaExample/
    2790 000b58 A416          MOV *SP(#11), T0 ; |955| 
    2791 000b5a ED31          MOV dbl(*(#_mmcsdHandle)), XAR0
         000b5c 8F00 
         000b5e 0040-
    2792              $C$DW$280       .dwtag  DW_TAG_TI_branch
    2793                      .dwattr $C$DW$280, DW_AT_low_pc(0x00)
    2794                      .dwattr $C$DW$280, DW_AT_name("_MMC_sendOpCond")
TMS320C55x Assembler PC v4.4.1 Sat Sep 29 23:09:00 2018

Tools Copyright (c) 1996-2012 Texas Instruments Incorporated
csl_mmcsd_dma_example.asm                                            PAGE   66

    2795                      .dwattr $C$DW$280, DW_AT_TI_call
    2796 000b60 6C00          CALL #_MMC_sendOpCond ; |955| 
         000b62 0000!
    2797                                                      ; call occurs [#_MMC_sendOpCond] ; |955| 
    2798 000b64 C410          MOV T0, *SP(#8) ; |955| 
    2799                      .dwpsn  file "../c5535_bsl_revc/ezdsp5535_v1/c55xx_csl/ccs_v4.0_examples/mmc_sd/CSL_MMCSD_dmaExample/
    2800 000b66 2249          MOV T0, AR1
    2801 000b68 0409          BCC $C$L78,AR1 == #0 ; |956| 
         000b6a 12   
    2802                                                      ; branchcc occurs ; |956| 
    2803                      .dwpsn  file "../c5535_bsl_revc/ezdsp5535_v1/c55xx_csl/ccs_v4.0_examples/mmc_sd/CSL_MMCSD_dmaExample/
    2804 000b6b EC31          AMOV #$C$FSL27, XAR3 ; |958| 
         000b6d BE00 
         000b6f 0346+
    2805 000b71 EB00          MOV XAR3, dbl(*SP(#0))
         000b73 B5   
    2806              $C$DW$281       .dwtag  DW_TAG_TI_branch
    2807                      .dwattr $C$DW$281, DW_AT_low_pc(0x00)
    2808                      .dwattr $C$DW$281, DW_AT_name("_printf")
    2809                      .dwattr $C$DW$281, DW_AT_TI_call
    2810 000b74 6C00          CALL #_printf ; |958| 
         000b76 0000!
    2811                                                      ; call occurs [#_printf] ; |958| 
    2812                      .dwpsn  file "../c5535_bsl_revc/ezdsp5535_v1/c55xx_csl/ccs_v4.0_examples/mmc_sd/CSL_MMCSD_dmaExample/
    2813 000b78 A410          MOV *SP(#8), T0 ; |959| 
    2814 000b7a 0601          B $C$L88  ; |959| 
         000b7c 87   
    2815                                                      ; branch occurs ; |959| 
    2816 000b7d       $C$L78:    
    2817                      .dwpsn  file "../c5535_bsl_revc/ezdsp5535_v1/c55xx_csl/ccs_v4.0_examples/mmc_sd/CSL_MMCSD_dmaExample/
    2818 000b7d ED31          MOV dbl(*(#_mmcsdHandle)), XAR0
         000b7f 8F00 
         000b81 0040-
    2819 000b83 3C04          MOV #0, T0
    2820              $C$DW$282       .dwtag  DW_TAG_TI_branch
    2821                      .dwattr $C$DW$282, DW_AT_low_pc(0x00)
    2822                      .dwattr $C$DW$282, DW_AT_name("_MMC_setEndianMode")
    2823                      .dwattr $C$DW$282, DW_AT_TI_call
    2824              
    2825 000b85 6C00          CALL #_MMC_setEndianMode ; |963| 
         000b87 0000!
    2826 000b89 3D05  ||      MOV #0, T1
    2827              
    2828                                                      ; call occurs [#_MMC_setEndianMode] ; |963| 
    2829 000b8b C410          MOV T0, *SP(#8) ; |963| 
    2830                      .dwpsn  file "../c5535_bsl_revc/ezdsp5535_v1/c55xx_csl/ccs_v4.0_examples/mmc_sd/CSL_MMCSD_dmaExample/
    2831 000b8d 2249          MOV T0, AR1
    2832 000b8f 0409          BCC $C$L79,AR1 == #0 ; |965| 
         000b91 12   
    2833                                                      ; branchcc occurs ; |965| 
    2834                      .dwpsn  file "../c5535_bsl_revc/ezdsp5535_v1/c55xx_csl/ccs_v4.0_examples/mmc_sd/CSL_MMCSD_dmaExample/
    2835 000b92 EC31          AMOV #$C$FSL36, XAR3 ; |967| 
         000b94 BE00 
         000b96 0438+
    2836 000b98 EB00          MOV XAR3, dbl(*SP(#0))
TMS320C55x Assembler PC v4.4.1 Sat Sep 29 23:09:00 2018

Tools Copyright (c) 1996-2012 Texas Instruments Incorporated
csl_mmcsd_dma_example.asm                                            PAGE   67

         000b9a B5   
    2837              $C$DW$283       .dwtag  DW_TAG_TI_branch
    2838                      .dwattr $C$DW$283, DW_AT_low_pc(0x00)
    2839                      .dwattr $C$DW$283, DW_AT_name("_printf")
    2840                      .dwattr $C$DW$283, DW_AT_TI_call
    2841 000b9b 6C00          CALL #_printf ; |967| 
         000b9d 0000!
    2842                                                      ; call occurs [#_printf] ; |967| 
    2843                      .dwpsn  file "../c5535_bsl_revc/ezdsp5535_v1/c55xx_csl/ccs_v4.0_examples/mmc_sd/CSL_MMCSD_dmaExample/
    2844 000b9f A410          MOV *SP(#8), T0 ; |968| 
    2845 000ba1 0601          B $C$L88  ; |968| 
         000ba3 60   
    2846                                                      ; branch occurs ; |968| 
    2847 000ba4       $C$L79:    
    2848                      .dwpsn  file "../c5535_bsl_revc/ezdsp5535_v1/c55xx_csl/ccs_v4.0_examples/mmc_sd/CSL_MMCSD_dmaExample/
    2849 000ba4 ED31          MOV dbl(*(#_mmcsdHandle)), XAR0
         000ba6 8F00 
         000ba8 0040-
    2850 000baa 7602          MOV #512, AC0 ; |975| 
         000bac 0008 
    2851              $C$DW$284       .dwtag  DW_TAG_TI_branch
    2852                      .dwattr $C$DW$284, DW_AT_low_pc(0x00)
    2853                      .dwattr $C$DW$284, DW_AT_name("_MMC_setBlockLength")
    2854                      .dwattr $C$DW$284, DW_AT_TI_call
    2855 000bae 6C00          CALL #_MMC_setBlockLength ; |975| 
         000bb0 0000!
    2856                                                      ; call occurs [#_MMC_setBlockLength] ; |975| 
    2857 000bb2 C410          MOV T0, *SP(#8) ; |975| 
    2858                      .dwpsn  file "../c5535_bsl_revc/ezdsp5535_v1/c55xx_csl/ccs_v4.0_examples/mmc_sd/CSL_MMCSD_dmaExample/
    2859 000bb4 2249          MOV T0, AR1
    2860 000bb6 0409          BCC $C$L80,AR1 == #0 ; |976| 
         000bb8 12   
    2861                                                      ; branchcc occurs ; |976| 
    2862                      .dwpsn  file "../c5535_bsl_revc/ezdsp5535_v1/c55xx_csl/ccs_v4.0_examples/mmc_sd/CSL_MMCSD_dmaExample/
    2863 000bb9 EC31          AMOV #$C$FSL37, XAR3 ; |978| 
         000bbb BE00 
         000bbd 0458+
    2864 000bbf EB00          MOV XAR3, dbl(*SP(#0))
         000bc1 B5   
    2865              $C$DW$285       .dwtag  DW_TAG_TI_branch
    2866                      .dwattr $C$DW$285, DW_AT_low_pc(0x00)
    2867                      .dwattr $C$DW$285, DW_AT_name("_printf")
    2868                      .dwattr $C$DW$285, DW_AT_TI_call
    2869 000bc2 6C00          CALL #_printf ; |978| 
         000bc4 0000!
    2870                                                      ; call occurs [#_printf] ; |978| 
    2871                      .dwpsn  file "../c5535_bsl_revc/ezdsp5535_v1/c55xx_csl/ccs_v4.0_examples/mmc_sd/CSL_MMCSD_dmaExample/
    2872 000bc6 A410          MOV *SP(#8), T0 ; |979| 
    2873 000bc8 0601          B $C$L88  ; |979| 
         000bca 39   
    2874                                                      ; branch occurs ; |979| 
    2875 000bcb       $C$L80:    
    2876                      .dwpsn  file "../c5535_bsl_revc/ezdsp5535_v1/c55xx_csl/ccs_v4.0_examples/mmc_sd/CSL_MMCSD_dmaExample/
    2877 000bcb F031          CMP *(#(_mmcCardObj+18)) == #1, TC1 ; |982| 
         000bcd 0001 
TMS320C55x Assembler PC v4.4.1 Sat Sep 29 23:09:00 2018

Tools Copyright (c) 1996-2012 Texas Instruments Incorporated
csl_mmcsd_dma_example.asm                                            PAGE   68

         000bcf 0000 
         000bd1 54-  
    2878 000bd2 0474          BCC $C$L81,!TC1 ; |982| 
         000bd4 25   
    2879                                                      ; branchcc occurs ; |982| 
    2880                      .dwpsn  file "../c5535_bsl_revc/ezdsp5535_v1/c55xx_csl/ccs_v4.0_examples/mmc_sd/CSL_MMCSD_dmaExample/
    2881 000bd5 ED31          MOV dbl(*(#_mmcsdHandle)), XAR0
         000bd7 8F00 
         000bd9 0040-
    2882              $C$DW$286       .dwtag  DW_TAG_TI_branch
    2883                      .dwattr $C$DW$286, DW_AT_low_pc(0x00)
    2884                      .dwattr $C$DW$286, DW_AT_name("_MMC_setWriteBlkEraseCnt")
    2885                      .dwattr $C$DW$286, DW_AT_TI_call
    2886              
    2887 000bdb 6C00          CALL #_MMC_setWriteBlkEraseCnt ; |985| 
         000bdd 0000!
    2888 000bdf 3D10  ||      MOV #1, AC0 ; |985| 
    2889              
    2890                                                      ; call occurs [#_MMC_setWriteBlkEraseCnt] ; |985| 
    2891 000be1 C410          MOV T0, *SP(#8) ; |985| 
    2892                      .dwpsn  file "../c5535_bsl_revc/ezdsp5535_v1/c55xx_csl/ccs_v4.0_examples/mmc_sd/CSL_MMCSD_dmaExample/
    2893 000be3 2249          MOV T0, AR1
    2894 000be5 0409          BCC $C$L81,AR1 == #0 ; |986| 
         000be7 12   
    2895                                                      ; branchcc occurs ; |986| 
    2896                      .dwpsn  file "../c5535_bsl_revc/ezdsp5535_v1/c55xx_csl/ccs_v4.0_examples/mmc_sd/CSL_MMCSD_dmaExample/
    2897 000be8 EC31          AMOV #$C$FSL50, XAR3 ; |988| 
         000bea BE00 
         000bec 05FA+
    2898 000bee EB00          MOV XAR3, dbl(*SP(#0))
         000bf0 B5   
    2899              $C$DW$287       .dwtag  DW_TAG_TI_branch
    2900                      .dwattr $C$DW$287, DW_AT_low_pc(0x00)
    2901                      .dwattr $C$DW$287, DW_AT_name("_printf")
    2902                      .dwattr $C$DW$287, DW_AT_TI_call
    2903 000bf1 6C00          CALL #_printf ; |988| 
         000bf3 0000!
    2904                                                      ; call occurs [#_printf] ; |988| 
    2905                      .dwpsn  file "../c5535_bsl_revc/ezdsp5535_v1/c55xx_csl/ccs_v4.0_examples/mmc_sd/CSL_MMCSD_dmaExample/
    2906 000bf5 A410          MOV *SP(#8), T0 ; |989| 
    2907 000bf7 0601          B $C$L88  ; |989| 
         000bf9 0A   
    2908                                                      ; branch occurs ; |989| 
    2909 000bfa       $C$L81:    
    2910                      .dwpsn  file "../c5535_bsl_revc/ezdsp5535_v1/c55xx_csl/ccs_v4.0_examples/mmc_sd/CSL_MMCSD_dmaExample/
    2911 000bfa ED0C          MOV dbl(*SP(#6)), AC0 ; |994| 
         000bfc 08   
    2912 000bfd ED31          MOV dbl(*(#_mmcsdHandle)), XAR0
         000bff 8F00 
         000c01 0040-
    2913 000c03 EC31          AMOV #_gWriteTempBuff, XAR1 ; |994| 
         000c05 9E00 
         000c07 04B0-
    2914 000c09 7604          MOV #1024, T0 ; |994| 
         000c0b 0048 
TMS320C55x Assembler PC v4.4.1 Sat Sep 29 23:09:00 2018

Tools Copyright (c) 1996-2012 Texas Instruments Incorporated
csl_mmcsd_dma_example.asm                                            PAGE   69

    2915              $C$DW$288       .dwtag  DW_TAG_TI_branch
    2916                      .dwattr $C$DW$288, DW_AT_low_pc(0x00)
    2917                      .dwattr $C$DW$288, DW_AT_name("_MMC_write")
    2918                      .dwattr $C$DW$288, DW_AT_TI_call
    2919 000c0d 6C00          CALL #_MMC_write ; |994| 
         000c0f 0000!
    2920                                                      ; call occurs [#_MMC_write] ; |994| 
    2921 000c11 C410          MOV T0, *SP(#8) ; |994| 
    2922                      .dwpsn  file "../c5535_bsl_revc/ezdsp5535_v1/c55xx_csl/ccs_v4.0_examples/mmc_sd/CSL_MMCSD_dmaExample/
    2923 000c13 2249          MOV T0, AR1
    2924 000c15 0409          BCC $C$L82,AR1 == #0 ; |996| 
         000c17 12   
    2925                                                      ; branchcc occurs ; |996| 
    2926                      .dwpsn  file "../c5535_bsl_revc/ezdsp5535_v1/c55xx_csl/ccs_v4.0_examples/mmc_sd/CSL_MMCSD_dmaExample/
    2927 000c18 EC31          AMOV #$C$FSL38, XAR3 ; |998| 
         000c1a BE00 
         000c1c 0478+
    2928 000c1e EB00          MOV XAR3, dbl(*SP(#0))
         000c20 B5   
    2929              $C$DW$289       .dwtag  DW_TAG_TI_branch
    2930                      .dwattr $C$DW$289, DW_AT_low_pc(0x00)
    2931                      .dwattr $C$DW$289, DW_AT_name("_printf")
    2932                      .dwattr $C$DW$289, DW_AT_TI_call
    2933 000c21 6C00          CALL #_printf ; |998| 
         000c23 0000!
    2934                                                      ; call occurs [#_printf] ; |998| 
    2935                      .dwpsn  file "../c5535_bsl_revc/ezdsp5535_v1/c55xx_csl/ccs_v4.0_examples/mmc_sd/CSL_MMCSD_dmaExample/
    2936 000c25 A410          MOV *SP(#8), T0 ; |999| 
    2937 000c27 0600          B $C$L88  ; |999| 
         000c29 DA   
    2938                                                      ; branch occurs ; |999| 
    2939 000c2a       $C$L82:    
    2940                      .dwpsn  file "../c5535_bsl_revc/ezdsp5535_v1/c55xx_csl/ccs_v4.0_examples/mmc_sd/CSL_MMCSD_dmaExample/
    2941 000c2a EC31          AMOV #$C$FSL39, XAR3 ; |1003| 
         000c2c BE00 
         000c2e 0490+
    2942 000c30 EB00          MOV XAR3, dbl(*SP(#0))
         000c32 B5   
    2943              $C$DW$290       .dwtag  DW_TAG_TI_branch
    2944                      .dwattr $C$DW$290, DW_AT_low_pc(0x00)
    2945                      .dwattr $C$DW$290, DW_AT_name("_printf")
    2946                      .dwattr $C$DW$290, DW_AT_TI_call
    2947 000c33 6C00          CALL #_printf ; |1003| 
         000c35 0000!
    2948                                                      ; call occurs [#_printf] ; |1003| 
    2949                      .dwpsn  file "../c5535_bsl_revc/ezdsp5535_v1/c55xx_csl/ccs_v4.0_examples/mmc_sd/CSL_MMCSD_dmaExample/
    2950 000c37 E631          MOV #0, *(#_gMmcIntr) ; |1006| 
         000c39 0000 
         000c3b 0097-
    2951                      .dwpsn  file "../c5535_bsl_revc/ezdsp5535_v1/c55xx_csl/ccs_v4.0_examples/mmc_sd/CSL_MMCSD_dmaExample/
    2952 000c3d 7604          MOV #1024, T0 ; |1009| 
         000c3f 0048 
    2953 000c41 EC31          AMOV #_gReadBuff, XAR1 ; |1009| 
         000c43 9E00 
         000c45 00B0-
TMS320C55x Assembler PC v4.4.1 Sat Sep 29 23:09:00 2018

Tools Copyright (c) 1996-2012 Texas Instruments Incorporated
csl_mmcsd_dma_example.asm                                            PAGE   70

    2954 000c47 ED31          MOV dbl(*(#_mmcsdHandle)), XAR0
         000c49 8F00 
         000c4b 0040-
    2955 000c4d ED0C          MOV dbl(*SP(#6)), AC0 ; |1009| 
         000c4f 08   
    2956              $C$DW$291       .dwtag  DW_TAG_TI_branch
    2957                      .dwattr $C$DW$291, DW_AT_low_pc(0x00)
    2958                      .dwattr $C$DW$291, DW_AT_name("_MMC_read")
    2959                      .dwattr $C$DW$291, DW_AT_TI_call
    2960 000c50 6C00          CALL #_MMC_read ; |1009| 
         000c52 0000!
    2961                                                      ; call occurs [#_MMC_read] ; |1009| 
    2962 000c54 C410          MOV T0, *SP(#8) ; |1009| 
    2963                      .dwpsn  file "../c5535_bsl_revc/ezdsp5535_v1/c55xx_csl/ccs_v4.0_examples/mmc_sd/CSL_MMCSD_dmaExample/
    2964 000c56 2249          MOV T0, AR1
    2965 000c58 0409          BCC $C$L83,AR1 == #0 ; |1010| 
         000c5a 12   
    2966                                                      ; branchcc occurs ; |1010| 
    2967                      .dwpsn  file "../c5535_bsl_revc/ezdsp5535_v1/c55xx_csl/ccs_v4.0_examples/mmc_sd/CSL_MMCSD_dmaExample/
    2968 000c5b EC31          AMOV #$C$FSL40, XAR3 ; |1012| 
         000c5d BE00 
         000c5f 04AC+
    2969 000c61 EB00          MOV XAR3, dbl(*SP(#0))
         000c63 B5   
    2970              $C$DW$292       .dwtag  DW_TAG_TI_branch
    2971                      .dwattr $C$DW$292, DW_AT_low_pc(0x00)
    2972                      .dwattr $C$DW$292, DW_AT_name("_printf")
    2973                      .dwattr $C$DW$292, DW_AT_TI_call
    2974 000c64 6C00          CALL #_printf ; |1012| 
         000c66 0000!
    2975                                                      ; call occurs [#_printf] ; |1012| 
    2976                      .dwpsn  file "../c5535_bsl_revc/ezdsp5535_v1/c55xx_csl/ccs_v4.0_examples/mmc_sd/CSL_MMCSD_dmaExample/
    2977 000c68 A410          MOV *SP(#8), T0 ; |1013| 
    2978 000c6a 0600          B $C$L88  ; |1013| 
         000c6c 97   
    2979                                                      ; branch occurs ; |1013| 
    2980 000c6d       $C$L83:    
    2981                      .dwpsn  file "../c5535_bsl_revc/ezdsp5535_v1/c55xx_csl/ccs_v4.0_examples/mmc_sd/CSL_MMCSD_dmaExample/
    2982 000c6d EC31          AMOV #$C$FSL41, XAR3 ; |1017| 
         000c6f BE00 
         000c71 04C2+
    2983 000c73 EB00          MOV XAR3, dbl(*SP(#0))
         000c75 B5   
    2984              $C$DW$293       .dwtag  DW_TAG_TI_branch
    2985                      .dwattr $C$DW$293, DW_AT_low_pc(0x00)
    2986                      .dwattr $C$DW$293, DW_AT_name("_printf")
    2987                      .dwattr $C$DW$293, DW_AT_TI_call
    2988 000c76 6C00          CALL #_printf ; |1017| 
         000c78 0000!
    2989                                                      ; call occurs [#_printf] ; |1017| 
    2990                      .dwpsn  file "../c5535_bsl_revc/ezdsp5535_v1/c55xx_csl/ccs_v4.0_examples/mmc_sd/CSL_MMCSD_dmaExample/
    2991              $C$DW$294       .dwtag  DW_TAG_TI_branch
    2992                      .dwattr $C$DW$294, DW_AT_low_pc(0x00)
    2993                      .dwattr $C$DW$294, DW_AT_name("_IRQ_globalDisable")
    2994                      .dwattr $C$DW$294, DW_AT_TI_call
TMS320C55x Assembler PC v4.4.1 Sat Sep 29 23:09:00 2018

Tools Copyright (c) 1996-2012 Texas Instruments Incorporated
csl_mmcsd_dma_example.asm                                            PAGE   71

    2995 000c7a 6C00          CALL #_IRQ_globalDisable ; |1021| 
         000c7c 0000!
    2996                                                      ; call occurs [#_IRQ_globalDisable] ; |1021| 
    2997                      .dwpsn  file "../c5535_bsl_revc/ezdsp5535_v1/c55xx_csl/ccs_v4.0_examples/mmc_sd/CSL_MMCSD_dmaExample/
    2998              $C$DW$295       .dwtag  DW_TAG_TI_branch
    2999                      .dwattr $C$DW$295, DW_AT_low_pc(0x00)
    3000                      .dwattr $C$DW$295, DW_AT_name("_IRQ_clearAll")
    3001                      .dwattr $C$DW$295, DW_AT_TI_call
    3002 000c7e 6C00          CALL #_IRQ_clearAll ; |1024| 
         000c80 0000!
    3003                                                      ; call occurs [#_IRQ_clearAll] ; |1024| 
    3004                      .dwpsn  file "../c5535_bsl_revc/ezdsp5535_v1/c55xx_csl/ccs_v4.0_examples/mmc_sd/CSL_MMCSD_dmaExample/
    3005              $C$DW$296       .dwtag  DW_TAG_TI_branch
    3006                      .dwattr $C$DW$296, DW_AT_low_pc(0x00)
    3007                      .dwattr $C$DW$296, DW_AT_name("_IRQ_disableAll")
    3008                      .dwattr $C$DW$296, DW_AT_TI_call
    3009 000c82 6C00          CALL #_IRQ_disableAll ; |1027| 
         000c84 0000!
    3010                                                      ; call occurs [#_IRQ_disableAll] ; |1027| 
    3011                      .dwpsn  file "../c5535_bsl_revc/ezdsp5535_v1/c55xx_csl/ccs_v4.0_examples/mmc_sd/CSL_MMCSD_dmaExample/
    3012 000c86 ED31          MOV dbl(*(#_mmcsdHandle)), XAR0
         000c88 8F00 
         000c8a 0040-
    3013              $C$DW$297       .dwtag  DW_TAG_TI_branch
    3014                      .dwattr $C$DW$297, DW_AT_low_pc(0x00)
    3015                      .dwattr $C$DW$297, DW_AT_name("_MMC_close")
    3016                      .dwattr $C$DW$297, DW_AT_TI_call
    3017 000c8c 6C00          CALL #_MMC_close ; |1030| 
         000c8e 0000!
    3018                                                      ; call occurs [#_MMC_close] ; |1030| 
    3019 000c90 C410          MOV T0, *SP(#8) ; |1030| 
    3020                      .dwpsn  file "../c5535_bsl_revc/ezdsp5535_v1/c55xx_csl/ccs_v4.0_examples/mmc_sd/CSL_MMCSD_dmaExample/
    3021 000c92 2249          MOV T0, AR1
    3022 000c94 0409          BCC $C$L84,AR1 == #0 ; |1031| 
         000c96 12   
    3023                                                      ; branchcc occurs ; |1031| 
    3024                      .dwpsn  file "../c5535_bsl_revc/ezdsp5535_v1/c55xx_csl/ccs_v4.0_examples/mmc_sd/CSL_MMCSD_dmaExample/
    3025 000c97 EC31          AMOV #$C$FSL42, XAR3 ; |1033| 
         000c99 BE00 
         000c9b 04DE+
    3026 000c9d EB00          MOV XAR3, dbl(*SP(#0))
         000c9f B5   
    3027              $C$DW$298       .dwtag  DW_TAG_TI_branch
    3028                      .dwattr $C$DW$298, DW_AT_low_pc(0x00)
    3029                      .dwattr $C$DW$298, DW_AT_name("_printf")
    3030                      .dwattr $C$DW$298, DW_AT_TI_call
    3031 000ca0 6C00          CALL #_printf ; |1033| 
         000ca2 0000!
    3032                                                      ; call occurs [#_printf] ; |1033| 
    3033                      .dwpsn  file "../c5535_bsl_revc/ezdsp5535_v1/c55xx_csl/ccs_v4.0_examples/mmc_sd/CSL_MMCSD_dmaExample/
    3034 000ca4 A410          MOV *SP(#8), T0 ; |1034| 
    3035 000ca6 0600          B $C$L88  ; |1034| 
         000ca8 5B   
    3036                                                      ; branch occurs ; |1034| 
    3037 000ca9       $C$L84:    
TMS320C55x Assembler PC v4.4.1 Sat Sep 29 23:09:00 2018

Tools Copyright (c) 1996-2012 Texas Instruments Incorporated
csl_mmcsd_dma_example.asm                                            PAGE   72

    3038                      .dwpsn  file "../c5535_bsl_revc/ezdsp5535_v1/c55xx_csl/ccs_v4.0_examples/mmc_sd/CSL_MMCSD_dmaExample/
    3039 000ca9 E612          MOV #0, *SP(#9) ; |1038| 
         000cab 00   
    3040                      .dwpsn  file "../c5535_bsl_revc/ezdsp5535_v1/c55xx_csl/ccs_v4.0_examples/mmc_sd/CSL_MMCSD_dmaExample/
    3041 000cac 7602          MOV #512, AR2 ; |1038| 
         000cae 00A8 
    3042 000cb0 A912          MOV *SP(#9), AR1 ; |1038| 
    3043 000cb2 1298          CMPU AR1 >= AR2, TC1 ; |1038| 
         000cb4 A4   
    3044 000cb5 0464          BCC $C$L87,TC1 ; |1038| 
         000cb7 3D   
    3045                                                      ; branchcc occurs ; |1038| 
    3046 000cb8       $C$L85:    
    3047 000cb8       $C$DW$L$_mmcsdDmaCallbackTest$75$B:
    3048                      .dwpsn  file "../c5535_bsl_revc/ezdsp5535_v1/c55xx_csl/ccs_v4.0_examples/mmc_sd/CSL_MMCSD_dmaExample/
    3049 000cb8 A412          MOV *SP(#9), T0 ; |1040| 
    3050 000cba EC31          AMOV #_gWriteBuff, XAR3 ; |1040| 
         000cbc BE00 
         000cbe 02B0-
    3051 000cc0 A96B          MOV *AR3(T0), AR1 ; |1040| 
    3052 000cc2 EC31          AMOV #_gReadBuff, XAR3 ; |1040| 
         000cc4 BE00 
         000cc6 00B0-
    3053 000cc8 AA6B          MOV *AR3(T0), AR2 ; |1040| 
    3054 000cca 12A0          CMPU AR2 == AR1, TC1 ; |1040| 
         000ccc 94   
    3055 000ccd 0464          BCC $C$L86,TC1 ; |1040| 
         000ccf 15   
    3056                                                      ; branchcc occurs ; |1040| 
    3057 000cd0       $C$DW$L$_mmcsdDmaCallbackTest$75$E:
    3058                      .dwpsn  file "../c5535_bsl_revc/ezdsp5535_v1/c55xx_csl/ccs_v4.0_examples/mmc_sd/CSL_MMCSD_dmaExample/
    3059 000cd0 EC31          AMOV #$C$FSL43, XAR3 ; |1042| 
         000cd2 BE00 
         000cd4 04F6+
    3060 000cd6 EB00          MOV XAR3, dbl(*SP(#0))
         000cd8 B5   
    3061 000cd9 A912          MOV *SP(#9), AR1 ; |1042| 
    3062 000cdb C904          MOV AR1, *SP(#2) ; |1042| 
    3063              $C$DW$299       .dwtag  DW_TAG_TI_branch
    3064                      .dwattr $C$DW$299, DW_AT_low_pc(0x00)
    3065                      .dwattr $C$DW$299, DW_AT_name("_printf")
    3066                      .dwattr $C$DW$299, DW_AT_TI_call
    3067 000cdd 6C00          CALL #_printf ; |1042| 
         000cdf 0000!
    3068                                                      ; call occurs [#_printf] ; |1042| 
    3069                      .dwpsn  file "../c5535_bsl_revc/ezdsp5535_v1/c55xx_csl/ccs_v4.0_examples/mmc_sd/CSL_MMCSD_dmaExample/
    3070 000ce1 3E14          MOV #-1, T0
    3071 000ce3 4A1F          B $C$L88  ; |1043| 
    3072                                                      ; branch occurs ; |1043| 
    3073 000ce5       $C$L86:    
    3074 000ce5       $C$DW$L$_mmcsdDmaCallbackTest$77$B:
    3075                      .dwpsn  file "../c5535_bsl_revc/ezdsp5535_v1/c55xx_csl/ccs_v4.0_examples/mmc_sd/CSL_MMCSD_dmaExample/
    3076 000ce5 F712          ADD #1, *SP(#9) ; |1038| 
         000ce7 0001 
    3077                      .dwpsn  file "../c5535_bsl_revc/ezdsp5535_v1/c55xx_csl/ccs_v4.0_examples/mmc_sd/CSL_MMCSD_dmaExample/
TMS320C55x Assembler PC v4.4.1 Sat Sep 29 23:09:00 2018

Tools Copyright (c) 1996-2012 Texas Instruments Incorporated
csl_mmcsd_dma_example.asm                                            PAGE   73

    3078 000ce9 7602          MOV #512, AR2 ; |1038| 
         000ceb 00A8 
    3079 000ced A912          MOV *SP(#9), AR1 ; |1038| 
    3080 000cef 1294          CMPU AR1 < AR2, TC1 ; |1038| 
         000cf1 A4   
    3081 000cf2 0464          BCC $C$L85,TC1 ; |1038| 
         000cf4 C3   
    3082                                                      ; branchcc occurs ; |1038| 
    3083 000cf5       $C$DW$L$_mmcsdDmaCallbackTest$77$E:
    3084 000cf5       $C$L87:    
    3085                      .dwpsn  file "../c5535_bsl_revc/ezdsp5535_v1/c55xx_csl/ccs_v4.0_examples/mmc_sd/CSL_MMCSD_dmaExample/
    3086 000cf5 EC31          AMOV #$C$FSL44, XAR3 ; |1047| 
         000cf7 BE00 
         000cf9 051A+
    3087 000cfb EB00          MOV XAR3, dbl(*SP(#0))
         000cfd B5   
    3088              $C$DW$300       .dwtag  DW_TAG_TI_branch
    3089                      .dwattr $C$DW$300, DW_AT_low_pc(0x00)
    3090                      .dwattr $C$DW$300, DW_AT_name("_printf")
    3091                      .dwattr $C$DW$300, DW_AT_TI_call
    3092 000cfe 6C00          CALL #_printf ; |1047| 
         000d00 0000!
    3093                                                      ; call occurs [#_printf] ; |1047| 
    3094                      .dwpsn  file "../c5535_bsl_revc/ezdsp5535_v1/c55xx_csl/ccs_v4.0_examples/mmc_sd/CSL_MMCSD_dmaExample/
    3095 000d02 A410          MOV *SP(#8), T0 ; |1049| 
    3096 000d04       $C$L88:    
    3097                      .dwpsn  file "../c5535_bsl_revc/ezdsp5535_v1/c55xx_csl/ccs_v4.0_examples/mmc_sd/CSL_MMCSD_dmaExample/
    3098 000d04 4E0F          AADD #15, SP
    3099                      .dwcfi  cfa_offset, 1
    3100              $C$DW$301       .dwtag  DW_TAG_TI_branch
    3101                      .dwattr $C$DW$301, DW_AT_low_pc(0x00)
    3102                      .dwattr $C$DW$301, DW_AT_TI_return
    3103 000d06 4804          RET
    3104                                                      ; return occurs
    3105              
    3106              $C$DW$302       .dwtag  DW_TAG_TI_loop
    3107                      .dwattr $C$DW$302, DW_AT_name("F:\eZdsp_DBG\tmp1\c55x-sim2\foo\Debug\csl_mmcsd_dma_example.asm:$C$L85
    3108                      .dwattr $C$DW$302, DW_AT_TI_begin_file("../c5535_bsl_revc/ezdsp5535_v1/c55xx_csl/ccs_v4.0_examples/mm
    3109                      .dwattr $C$DW$302, DW_AT_TI_begin_line(0x40e)
    3110                      .dwattr $C$DW$302, DW_AT_TI_end_line(0x415)
    3111              $C$DW$303       .dwtag  DW_TAG_TI_loop_range
    3112                      .dwattr $C$DW$303, DW_AT_low_pc($C$DW$L$_mmcsdDmaCallbackTest$75$B)
    3113                      .dwattr $C$DW$303, DW_AT_high_pc($C$DW$L$_mmcsdDmaCallbackTest$75$E)
    3114              $C$DW$304       .dwtag  DW_TAG_TI_loop_range
    3115                      .dwattr $C$DW$304, DW_AT_low_pc($C$DW$L$_mmcsdDmaCallbackTest$77$B)
    3116                      .dwattr $C$DW$304, DW_AT_high_pc($C$DW$L$_mmcsdDmaCallbackTest$77$E)
    3117                      .dwendtag $C$DW$302
    3118              
    3119              
    3120              $C$DW$305       .dwtag  DW_TAG_TI_loop
    3121                      .dwattr $C$DW$305, DW_AT_name("F:\eZdsp_DBG\tmp1\c55x-sim2\foo\Debug\csl_mmcsd_dma_example.asm:$C$L46
    3122                      .dwattr $C$DW$305, DW_AT_TI_begin_file("../c5535_bsl_revc/ezdsp5535_v1/c55xx_csl/ccs_v4.0_examples/mm
    3123                      .dwattr $C$DW$305, DW_AT_TI_begin_line(0x2a1)
    3124                      .dwattr $C$DW$305, DW_AT_TI_end_line(0x2a6)
    3125              $C$DW$306       .dwtag  DW_TAG_TI_loop_range
TMS320C55x Assembler PC v4.4.1 Sat Sep 29 23:09:00 2018

Tools Copyright (c) 1996-2012 Texas Instruments Incorporated
csl_mmcsd_dma_example.asm                                            PAGE   74

    3126                      .dwattr $C$DW$306, DW_AT_low_pc($C$DW$L$_mmcsdDmaCallbackTest$2$B)
    3127                      .dwattr $C$DW$306, DW_AT_high_pc($C$DW$L$_mmcsdDmaCallbackTest$2$E)
    3128                      .dwendtag $C$DW$305
    3129              
    3130                      .dwattr $C$DW$211, DW_AT_TI_end_file("../c5535_bsl_revc/ezdsp5535_v1/c55xx_csl/ccs_v4.0_examples/mmc_
    3131                      .dwattr $C$DW$211, DW_AT_TI_end_line(0x41a)
    3132                      .dwattr $C$DW$211, DW_AT_TI_end_column(0x01)
    3133                      .dwendentry
    3134                      .dwendtag $C$DW$211
    3135              
    3136 000d08               .sect   ".text"
    3137                      .align 4
    3138                      .global _computeClkRate
    3139              
    3140              $C$DW$307       .dwtag  DW_TAG_subprogram, DW_AT_name("computeClkRate")
    3141                      .dwattr $C$DW$307, DW_AT_low_pc(_computeClkRate)
    3142                      .dwattr $C$DW$307, DW_AT_high_pc(0x00)
    3143                      .dwattr $C$DW$307, DW_AT_TI_symbol_name("_computeClkRate")
    3144                      .dwattr $C$DW$307, DW_AT_external
    3145                      .dwattr $C$DW$307, DW_AT_type(*$C$DW$T$19)
    3146                      .dwattr $C$DW$307, DW_AT_TI_begin_file("../c5535_bsl_revc/ezdsp5535_v1/c55xx_csl/ccs_v4.0_examples/mm
    3147                      .dwattr $C$DW$307, DW_AT_TI_begin_line(0x42d)
    3148                      .dwattr $C$DW$307, DW_AT_TI_begin_column(0x08)
    3149                      .dwattr $C$DW$307, DW_AT_TI_max_frame_size(0x08)
    3150                      .dwpsn  file "../c5535_bsl_revc/ezdsp5535_v1/c55xx_csl/ccs_v4.0_examples/mmc_sd/CSL_MMCSD_dmaExample/
    3151              
    3152                      .dwfde $C$DW$CIE, _computeClkRate
    3153              $C$DW$308       .dwtag  DW_TAG_formal_parameter, DW_AT_name("memMaxClk")
    3154                      .dwattr $C$DW$308, DW_AT_TI_symbol_name("_memMaxClk")
    3155                      .dwattr $C$DW$308, DW_AT_type(*$C$DW$T$48)
    3156                      .dwattr $C$DW$308, DW_AT_location[DW_OP_reg0]
    3157              ;*******************************************************************************
    3158              ;* FUNCTION NAME: computeClkRate                                               *
    3159              ;*                                                                             *
    3160              ;*   Function Uses Regs : AC0,AC0,AC1,AC1,T0,AR1,AR2,SP,CARRY,TC1,M40,SATA,    *
    3161              ;*                        SATD,RDM,FRCT,SMUL                                   *
    3162              ;*   Stack Frame        : Compact (No Frame Pointer, w/ debug)                 *
    3163              ;*   Total Frame Size   : 8 words                                              *
    3164              ;*                        (1 return address/alignment)                         *
    3165              ;*                        (7 local values)                                     *
    3166              ;*   Min System Stack   : 1 word                                               *
    3167              ;*******************************************************************************
    3168 000d08       _computeClkRate:
    3169                      .dwcfi  cfa_offset, 1
    3170                      .dwcfi  save_reg_to_mem, 91, -1
    3171 000d08 4EF9          AADD #-7, SP
    3172                      .dwcfi  cfa_offset, 8
    3173              $C$DW$309       .dwtag  DW_TAG_variable, DW_AT_name("memMaxClk")
    3174                      .dwattr $C$DW$309, DW_AT_TI_symbol_name("_memMaxClk")
    3175                      .dwattr $C$DW$309, DW_AT_type(*$C$DW$T$48)
    3176                      .dwattr $C$DW$309, DW_AT_location[DW_OP_bregx 0x24 0]
    3177              $C$DW$310       .dwtag  DW_TAG_variable, DW_AT_name("sysClock")
    3178                      .dwattr $C$DW$310, DW_AT_TI_symbol_name("_sysClock")
    3179                      .dwattr $C$DW$310, DW_AT_type(*$C$DW$T$48)
    3180                      .dwattr $C$DW$310, DW_AT_location[DW_OP_bregx 0x24 2]
TMS320C55x Assembler PC v4.4.1 Sat Sep 29 23:09:00 2018

Tools Copyright (c) 1996-2012 Texas Instruments Incorporated
csl_mmcsd_dma_example.asm                                            PAGE   75

    3181              $C$DW$311       .dwtag  DW_TAG_variable, DW_AT_name("remainder")
    3182                      .dwattr $C$DW$311, DW_AT_TI_symbol_name("_remainder")
    3183                      .dwattr $C$DW$311, DW_AT_type(*$C$DW$T$48)
    3184                      .dwattr $C$DW$311, DW_AT_location[DW_OP_bregx 0x24 4]
    3185              $C$DW$312       .dwtag  DW_TAG_variable, DW_AT_name("clkRate")
    3186                      .dwattr $C$DW$312, DW_AT_TI_symbol_name("_clkRate")
    3187                      .dwattr $C$DW$312, DW_AT_type(*$C$DW$T$19)
    3188                      .dwattr $C$DW$312, DW_AT_location[DW_OP_bregx 0x24 6]
    3189 000d0a EB00          MOV AC0, dbl(*SP(#0)) ; |1070| 
         000d0c 08   
    3190                      .dwpsn  file "../c5535_bsl_revc/ezdsp5535_v1/c55xx_csl/ccs_v4.0_examples/mmc_sd/CSL_MMCSD_dmaExample/
    3191 000d0d 3C00          MOV #0, AC0 ; |1075| 
    3192 000d0f EB04          MOV AC0, dbl(*SP(#2)) ; |1075| 
         000d11 08   
    3193                      .dwpsn  file "../c5535_bsl_revc/ezdsp5535_v1/c55xx_csl/ccs_v4.0_examples/mmc_sd/CSL_MMCSD_dmaExample/
    3194 000d12 EB08          MOV AC0, dbl(*SP(#4)) ; |1076| 
         000d14 08   
    3195                      .dwpsn  file "../c5535_bsl_revc/ezdsp5535_v1/c55xx_csl/ccs_v4.0_examples/mmc_sd/CSL_MMCSD_dmaExample/
    3196 000d15 E60C          MOV #0, *SP(#6) ; |1077| 
         000d17 00   
    3197                      .dwpsn  file "../c5535_bsl_revc/ezdsp5535_v1/c55xx_csl/ccs_v4.0_examples/mmc_sd/CSL_MMCSD_dmaExample/
    3198              $C$DW$313       .dwtag  DW_TAG_TI_branch
    3199                      .dwattr $C$DW$313, DW_AT_low_pc(0x00)
    3200                      .dwattr $C$DW$313, DW_AT_name("_getSysClk")
    3201                      .dwattr $C$DW$313, DW_AT_TI_call
    3202 000d18 0800          CALL #_getSysClk ; |1080| 
         000d1a 65   
    3203                                                      ; call occurs [#_getSysClk] ; |1080| 
    3204 000d1b EB04          MOV AC0, dbl(*SP(#2)) ; |1080| 
         000d1d 08   
    3205                      .dwpsn  file "../c5535_bsl_revc/ezdsp5535_v1/c55xx_csl/ccs_v4.0_examples/mmc_sd/CSL_MMCSD_dmaExample/
    3206 000d1e ED04          MOV dbl(*SP(#2)), AC1 ; |1082| 
         000d20 18   
    3207 000d21 ED00          MOV dbl(*SP(#0)), AC0 ; |1082| 
         000d23 08   
    3208 000d24 1208          CMPU AC1 <= AC0, TC1 ; |1082| 
         000d26 14   
    3209 000d27 0464          BCC $C$L92,TC1 ; |1082| 
         000d29 50   
    3210                                                      ; branchcc occurs ; |1082| 
    3211                      .dwpsn  file "../c5535_bsl_revc/ezdsp5535_v1/c55xx_csl/ccs_v4.0_examples/mmc_sd/CSL_MMCSD_dmaExample/
    3212 000d2a ED00          MOV dbl(*SP(#0)), AC0 ; |1084| 
         000d2c 08   
    3213 000d2d 0400          BCC $C$L91,AC0 == #0 ; |1084| 
         000d2f 46   
    3214                                                      ; branchcc occurs ; |1084| 
    3215                      .dwpsn  file "../c5535_bsl_revc/ezdsp5535_v1/c55xx_csl/ccs_v4.0_examples/mmc_sd/CSL_MMCSD_dmaExample/
    3216 000d30 ED04          MOV dbl(*SP(#2)), AC0 ; |1086| 
         000d32 08   
    3217 000d33 ED00          MOV dbl(*SP(#0)), AC1 ; |1086| 
         000d35 18   
    3218              $C$DW$314       .dwtag  DW_TAG_TI_branch
    3219                      .dwattr $C$DW$314, DW_AT_low_pc(0x00)
    3220                      .dwattr $C$DW$314, DW_AT_name("__divul")
    3221                      .dwattr $C$DW$314, DW_AT_TI_call
TMS320C55x Assembler PC v4.4.1 Sat Sep 29 23:09:00 2018

Tools Copyright (c) 1996-2012 Texas Instruments Incorporated
csl_mmcsd_dma_example.asm                                            PAGE   76

    3222 000d36 6C00          CALL #__divul ; |1086| 
         000d38 0000!
    3223                                                      ; call occurs [#__divul] ; |1086| 
    3224 000d3a C00C          MOV AC0, *SP(#6) ; |1086| 
    3225                      .dwpsn  file "../c5535_bsl_revc/ezdsp5535_v1/c55xx_csl/ccs_v4.0_examples/mmc_sd/CSL_MMCSD_dmaExample/
    3226 000d3c ED04          MOV dbl(*SP(#2)), AC0 ; |1087| 
         000d3e 08   
    3227 000d3f ED00          MOV dbl(*SP(#0)), AC1 ; |1087| 
         000d41 18   
    3228              $C$DW$315       .dwtag  DW_TAG_TI_branch
    3229                      .dwattr $C$DW$315, DW_AT_low_pc(0x00)
    3230                      .dwattr $C$DW$315, DW_AT_name("__remul")
    3231                      .dwattr $C$DW$315, DW_AT_TI_call
    3232 000d42 6C00          CALL #__remul ; |1087| 
         000d44 0000!
    3233                                                      ; call occurs [#__remul] ; |1087| 
    3234 000d46 EB08          MOV AC0, dbl(*SP(#4)) ; |1087| 
         000d48 08   
    3235                      .dwpsn  file "../c5535_bsl_revc/ezdsp5535_v1/c55xx_csl/ccs_v4.0_examples/mmc_sd/CSL_MMCSD_dmaExample/
    3236 000d49 ED08          MOV dbl(*SP(#4)), AC0 ; |1094| 
         000d4b 08   
    3237 000d4c 6200          BCC $C$L89,AC0 == #0 ; |1094| 
    3238                                                      ; branchcc occurs ; |1094| 
    3239                      .dwpsn  file "../c5535_bsl_revc/ezdsp5535_v1/c55xx_csl/ccs_v4.0_examples/mmc_sd/CSL_MMCSD_dmaExample/
    3240 000d4e F70C          ADD #1, *SP(#6) ; |1096| 
         000d50 0001 
    3241 000d52       $C$L89:    
    3242                      .dwpsn  file "../c5535_bsl_revc/ezdsp5535_v1/c55xx_csl/ccs_v4.0_examples/mmc_sd/CSL_MMCSD_dmaExample/
    3243 000d52 DC0C          BTST #0, *SP(#6), TC1 ; |1104| 
         000d54 00   
    3244 000d55 6274          BCC $C$L90,!TC1 ; |1104| 
    3245                                                      ; branchcc occurs ; |1104| 
    3246                      .dwpsn  file "../c5535_bsl_revc/ezdsp5535_v1/c55xx_csl/ccs_v4.0_examples/mmc_sd/CSL_MMCSD_dmaExample/
    3247 000d57 F70C          ADD #1, *SP(#6) ; |1106| 
         000d59 0001 
    3248 000d5b       $C$L90:    
    3249                      .dwpsn  file "../c5535_bsl_revc/ezdsp5535_v1/c55xx_csl/ccs_v4.0_examples/mmc_sd/CSL_MMCSD_dmaExample/
    3250 000d5b A90C          MOV *SP(#6), AR1 ; |1113| 
    3251 000d5d 5091          SFTL AR1, #-1 ; |1113| 
    3252 000d5f C90C          MOV AR1, *SP(#6) ; |1113| 
    3253                      .dwpsn  file "../c5535_bsl_revc/ezdsp5535_v1/c55xx_csl/ccs_v4.0_examples/mmc_sd/CSL_MMCSD_dmaExample/
    3254 000d61 F70C          SUB #1, *SP(#6) ; |1114| 
         000d63 FFFF 
    3255                      .dwpsn  file "../c5535_bsl_revc/ezdsp5535_v1/c55xx_csl/ccs_v4.0_examples/mmc_sd/CSL_MMCSD_dmaExample/
    3256 000d65 7600          MOV #255, AR2 ; |1124| 
         000d67 FFA8 
    3257 000d69 A90C          MOV *SP(#6), AR1 ; |1124| 
    3258 000d6b 12A8          CMPU AR1 <= AR2, TC1 ; |1124| 
         000d6d 94   
    3259 000d6e 6564          BCC $C$L92,TC1 ; |1124| 
    3260                                                      ; branchcc occurs ; |1124| 
    3261                      .dwpsn  file "../c5535_bsl_revc/ezdsp5535_v1/c55xx_csl/ccs_v4.0_examples/mmc_sd/CSL_MMCSD_dmaExample/
    3262 000d70 FB0C          MOV #255, *SP(#6) ; |1126| 
         000d72 00FF 
    3263                      .dwpsn  file "../c5535_bsl_revc/ezdsp5535_v1/c55xx_csl/ccs_v4.0_examples/mmc_sd/CSL_MMCSD_dmaExample/
TMS320C55x Assembler PC v4.4.1 Sat Sep 29 23:09:00 2018

Tools Copyright (c) 1996-2012 Texas Instruments Incorporated
csl_mmcsd_dma_example.asm                                            PAGE   77

    3264 000d74 4A04          B $C$L92  ; |1128| 
    3265                                                      ; branch occurs ; |1128| 
    3266 000d76       $C$L91:    
    3267                      .dwpsn  file "../c5535_bsl_revc/ezdsp5535_v1/c55xx_csl/ccs_v4.0_examples/mmc_sd/CSL_MMCSD_dmaExample/
    3268 000d76 FB0C          MOV #255, *SP(#6) ; |1131| 
         000d78 00FF 
    3269 000d7a       $C$L92:    
    3270                      .dwpsn  file "../c5535_bsl_revc/ezdsp5535_v1/c55xx_csl/ccs_v4.0_examples/mmc_sd/CSL_MMCSD_dmaExample/
    3271 000d7a A40C          MOV *SP(#6), T0 ; |1135| 
    3272                      .dwpsn  file "../c5535_bsl_revc/ezdsp5535_v1/c55xx_csl/ccs_v4.0_examples/mmc_sd/CSL_MMCSD_dmaExample/
    3273 000d7c 4E07          AADD #7, SP
    3274                      .dwcfi  cfa_offset, 1
    3275              $C$DW$316       .dwtag  DW_TAG_TI_branch
    3276                      .dwattr $C$DW$316, DW_AT_low_pc(0x00)
    3277                      .dwattr $C$DW$316, DW_AT_TI_return
    3278 000d7e 4804          RET
    3279                                                      ; return occurs
    3280                      .dwattr $C$DW$307, DW_AT_TI_end_file("../c5535_bsl_revc/ezdsp5535_v1/c55xx_csl/ccs_v4.0_examples/mmc_
    3281                      .dwattr $C$DW$307, DW_AT_TI_end_line(0x470)
    3282                      .dwattr $C$DW$307, DW_AT_TI_end_column(0x01)
    3283                      .dwendentry
    3284                      .dwendtag $C$DW$307
    3285              
    3286 000d80               .sect   ".text"
    3287                      .align 4
    3288                      .global _getSysClk
    3289              
    3290              $C$DW$317       .dwtag  DW_TAG_subprogram, DW_AT_name("getSysClk")
    3291                      .dwattr $C$DW$317, DW_AT_low_pc(_getSysClk)
    3292                      .dwattr $C$DW$317, DW_AT_high_pc(0x00)
    3293                      .dwattr $C$DW$317, DW_AT_TI_symbol_name("_getSysClk")
    3294                      .dwattr $C$DW$317, DW_AT_external
    3295                      .dwattr $C$DW$317, DW_AT_type(*$C$DW$T$48)
    3296                      .dwattr $C$DW$317, DW_AT_TI_begin_file("../c5535_bsl_revc/ezdsp5535_v1/c55xx_csl/ccs_v4.0_examples/mm
    3297                      .dwattr $C$DW$317, DW_AT_TI_begin_line(0x47b)
    3298                      .dwattr $C$DW$317, DW_AT_TI_begin_column(0x08)
    3299                      .dwattr $C$DW$317, DW_AT_TI_max_frame_size(0x0a)
    3300                      .dwpsn  file "../c5535_bsl_revc/ezdsp5535_v1/c55xx_csl/ccs_v4.0_examples/mmc_sd/CSL_MMCSD_dmaExample/
    3301              
    3302                      .dwfde $C$DW$CIE, _getSysClk
    3303              ;*******************************************************************************
    3304              ;* FUNCTION NAME: getSysClk                                                    *
    3305              ;*                                                                             *
    3306              ;*   Function Uses Regs : AC0,AC0,AC1,AC1,AR1,AR2,SP,CARRY,TC1,M40,SATA,SATD,  *
    3307              ;*                        RDM,FRCT,SMUL                                        *
    3308              ;*   Stack Frame        : Compact (No Frame Pointer, w/ debug)                 *
    3309              ;*   Total Frame Size   : 10 words                                             *
    3310              ;*                        (2 return address/alignment)                         *
    3311              ;*                        (8 local values)                                     *
    3312              ;*   Min System Stack   : 1 word                                               *
    3313              ;*******************************************************************************
    3314 000d80       _getSysClk:
    3315                      .dwcfi  cfa_offset, 1
    3316                      .dwcfi  save_reg_to_mem, 91, -1
    3317 000d80 4EF7          AADD #-9, SP
TMS320C55x Assembler PC v4.4.1 Sat Sep 29 23:09:00 2018

Tools Copyright (c) 1996-2012 Texas Instruments Incorporated
csl_mmcsd_dma_example.asm                                            PAGE   78

    3318                      .dwcfi  cfa_offset, 10
    3319              $C$DW$318       .dwtag  DW_TAG_variable, DW_AT_name("pllRDBypass")
    3320                      .dwattr $C$DW$318, DW_AT_TI_symbol_name("_pllRDBypass")
    3321                      .dwattr $C$DW$318, DW_AT_type(*$C$DW$T$31)
    3322                      .dwattr $C$DW$318, DW_AT_location[DW_OP_bregx 0x24 0]
    3323              $C$DW$319       .dwtag  DW_TAG_variable, DW_AT_name("pllOutDiv")
    3324                      .dwattr $C$DW$319, DW_AT_TI_symbol_name("_pllOutDiv")
    3325                      .dwattr $C$DW$319, DW_AT_type(*$C$DW$T$31)
    3326                      .dwattr $C$DW$319, DW_AT_location[DW_OP_bregx 0x24 1]
    3327              $C$DW$320       .dwtag  DW_TAG_variable, DW_AT_name("sysClk")
    3328                      .dwattr $C$DW$320, DW_AT_TI_symbol_name("_sysClk")
    3329                      .dwattr $C$DW$320, DW_AT_type(*$C$DW$T$48)
    3330                      .dwattr $C$DW$320, DW_AT_location[DW_OP_bregx 0x24 2]
    3331              $C$DW$321       .dwtag  DW_TAG_variable, DW_AT_name("pllVP")
    3332                      .dwattr $C$DW$321, DW_AT_TI_symbol_name("_pllVP")
    3333                      .dwattr $C$DW$321, DW_AT_type(*$C$DW$T$19)
    3334                      .dwattr $C$DW$321, DW_AT_location[DW_OP_bregx 0x24 4]
    3335              $C$DW$322       .dwtag  DW_TAG_variable, DW_AT_name("pllVS")
    3336                      .dwattr $C$DW$322, DW_AT_TI_symbol_name("_pllVS")
    3337                      .dwattr $C$DW$322, DW_AT_type(*$C$DW$T$19)
    3338                      .dwattr $C$DW$322, DW_AT_location[DW_OP_bregx 0x24 5]
    3339              $C$DW$323       .dwtag  DW_TAG_variable, DW_AT_name("pllRD")
    3340                      .dwattr $C$DW$323, DW_AT_TI_symbol_name("_pllRD")
    3341                      .dwattr $C$DW$323, DW_AT_type(*$C$DW$T$19)
    3342                      .dwattr $C$DW$323, DW_AT_location[DW_OP_bregx 0x24 6]
    3343              $C$DW$324       .dwtag  DW_TAG_variable, DW_AT_name("pllVO")
    3344                      .dwattr $C$DW$324, DW_AT_TI_symbol_name("_pllVO")
    3345                      .dwattr $C$DW$324, DW_AT_type(*$C$DW$T$19)
    3346                      .dwattr $C$DW$324, DW_AT_location[DW_OP_bregx 0x24 7]
    3347                      .dwpsn  file "../c5535_bsl_revc/ezdsp5535_v1/c55xx_csl/ccs_v4.0_examples/mmc_sd/CSL_MMCSD_dmaExample/
    3348 000d82 A951          MOV *port(#7200), AR1 ; |1157| 
         000d84 1C20 
    3349 000d86 7D0F          AND #0x0ffc, AR1, AC0 ; |1157| 
         000d88 FC09 
    3350 000d8a 1005          SFTS AC0, #-2, AC0 ; |1157| 
         000d8c 3E   
    3351 000d8d C008          MOV AC0, *SP(#4) ; |1157| 
    3352                      .dwpsn  file "../c5535_bsl_revc/ezdsp5535_v1/c55xx_csl/ccs_v4.0_examples/mmc_sd/CSL_MMCSD_dmaExample/
    3353 000d8f A951          MOV *port(#7200), AR1 ; |1158| 
         000d91 1C20 
    3354 000d93 1803          AND #0x0003, AR1, AC0 ; |1158| 
         000d95 09   
    3355 000d96 C00A          MOV AC0, *SP(#5) ; |1158| 
    3356                      .dwpsn  file "../c5535_bsl_revc/ezdsp5535_v1/c55xx_csl/ccs_v4.0_examples/mmc_sd/CSL_MMCSD_dmaExample/
    3357 000d98 A951          MOV *port(#7201), AR1 ; |1160| 
         000d9a 1C21 
    3358 000d9c 7D0F          AND #0x0fff, AR1, AC0 ; |1160| 
         000d9e FF09 
    3359 000da0 C00C          MOV AC0, *SP(#6) ; |1160| 
    3360                      .dwpsn  file "../c5535_bsl_revc/ezdsp5535_v1/c55xx_csl/ccs_v4.0_examples/mmc_sd/CSL_MMCSD_dmaExample/
    3361 000da2 DF51          MOV uns(low_byte(*port(#7203))), AR1 ; |1161| 
         000da4 931C 
         000da6 23   
    3362 000da7 C90E          MOV AR1, *SP(#7) ; |1161| 
    3363                      .dwpsn  file "../c5535_bsl_revc/ezdsp5535_v1/c55xx_csl/ccs_v4.0_examples/mmc_sd/CSL_MMCSD_dmaExample/
TMS320C55x Assembler PC v4.4.1 Sat Sep 29 23:09:00 2018

Tools Copyright (c) 1996-2012 Texas Instruments Incorporated
csl_mmcsd_dma_example.asm                                            PAGE   79

    3364 000da9 A951          MOV *port(#7201), AR1 ; |1163| 
         000dab 1C21 
    3365 000dad 7D80          AND #0x8000, AR1, AC0 ; |1163| 
         000daf 0009 
    3366 000db1 1005          SFTS AC0, #-15, AC0 ; |1163| 
         000db3 31   
    3367 000db4 C000          MOV AC0, *SP(#0) ; |1163| 
    3368                      .dwpsn  file "../c5535_bsl_revc/ezdsp5535_v1/c55xx_csl/ccs_v4.0_examples/mmc_sd/CSL_MMCSD_dmaExample/
    3369 000db6 A951          MOV *port(#7203), AR1 ; |1164| 
         000db8 1C23 
    3370 000dba 7D02          AND #0x0200, AR1, AC0 ; |1164| 
         000dbc 0009 
    3371 000dbe 1005          SFTS AC0, #-9, AC0 ; |1164| 
         000dc0 37   
    3372 000dc1 C002          MOV AC0, *SP(#1) ; |1164| 
    3373                      .dwpsn  file "../c5535_bsl_revc/ezdsp5535_v1/c55xx_csl/ccs_v4.0_examples/mmc_sd/CSL_MMCSD_dmaExample/
    3374 000dc3 3C00          MOV #0, AC0 ; |1166| 
    3375 000dc5 7E80          OR #0x8000, AC0, AC0 ; |1166| 
         000dc7 0000 
    3376 000dc9 EB04          MOV AC0, dbl(*SP(#2)) ; |1166| 
         000dcb 08   
    3377                      .dwpsn  file "../c5535_bsl_revc/ezdsp5535_v1/c55xx_csl/ccs_v4.0_examples/mmc_sd/CSL_MMCSD_dmaExample/
    3378              
    3379 000dcc A900          MOV *SP(#0), AR1 ; |1168| 
    3380 000dce 3D0A  ||      MOV #0, AR2
    3381              
    3382 000dd0 12AC          CMP AR2 != AR1, TC1 ; |1168| 
         000dd2 90   
    3383 000dd3 0464          BCC $C$L93,TC1 ; |1168| 
         000dd5 12   
    3384                                                      ; branchcc occurs ; |1168| 
    3385                      .dwpsn  file "../c5535_bsl_revc/ezdsp5535_v1/c55xx_csl/ccs_v4.0_examples/mmc_sd/CSL_MMCSD_dmaExample/
    3386 000dd6 A90C          MOV *SP(#6), AR1 ; |1170| 
    3387              
    3388 000ddb 4149          ADD #4, AR1 ; |1170| 
    3389 000dd8 ED04  ||      MOV dbl(*SP(#2)), AC0 ; |1170| 
         000dda 08   
    3390              
    3391 000ddd 7DFF          AND #0xffff, AR1, AC1 ; |1170| 
         000ddf FF19 
    3392              $C$DW$325       .dwtag  DW_TAG_TI_branch
    3393                      .dwattr $C$DW$325, DW_AT_low_pc(0x00)
    3394                      .dwattr $C$DW$325, DW_AT_name("__divul")
    3395                      .dwattr $C$DW$325, DW_AT_TI_call
    3396 000de1 6C00          CALL #__divul ; |1170| 
         000de3 0000!
    3397                                                      ; call occurs [#__divul] ; |1170| 
    3398 000de5 EB04          MOV AC0, dbl(*SP(#2)) ; |1170| 
         000de7 08   
    3399 000de8       $C$L93:    
    3400                      .dwpsn  file "../c5535_bsl_revc/ezdsp5535_v1/c55xx_csl/ccs_v4.0_examples/mmc_sd/CSL_MMCSD_dmaExample/
    3401 000de8 A008          MOV *SP(#4), AC0 ; |1173| 
    3402 000dea 1007          SFTL AC0, #2, AC0 ; |1173| 
         000dec 02   
    3403 000ded D60A          ADD *SP(#5), AC0, AR1 ; |1173| 
TMS320C55x Assembler PC v4.4.1 Sat Sep 29 23:09:00 2018

Tools Copyright (c) 1996-2012 Texas Instruments Incorporated
csl_mmcsd_dma_example.asm                                            PAGE   80

         000def 90   
    3404 000df0 4049          ADD #4, AR1 ; |1173| 
    3405 000df2 7DFF          AND #0xffff, AR1, AC1 ; |1173| 
         000df4 FF19 
    3406 000df6 ED04          MOV dbl(*SP(#2)), AC0 ; |1173| 
         000df8 08   
    3407              $C$DW$326       .dwtag  DW_TAG_TI_branch
    3408                      .dwattr $C$DW$326, DW_AT_low_pc(0x00)
    3409                      .dwattr $C$DW$326, DW_AT_name("__mpyli")
    3410                      .dwattr $C$DW$326, DW_AT_TI_call
    3411 000df9 6C00          CALL #__mpyli ; |1173| 
         000dfb 0000!
    3412                                                      ; call occurs [#__mpyli] ; |1173| 
    3413 000dfd EB04          MOV AC0, dbl(*SP(#2)) ; |1173| 
         000dff 08   
    3414                      .dwpsn  file "../c5535_bsl_revc/ezdsp5535_v1/c55xx_csl/ccs_v4.0_examples/mmc_sd/CSL_MMCSD_dmaExample/
    3415              
    3416 000e00 A902          MOV *SP(#1), AR1 ; |1175| 
    3417 000e02 3D1A  ||      MOV #1, AR2
    3418              
    3419 000e04 12AC          CMP AR2 != AR1, TC1 ; |1175| 
         000e06 90   
    3420 000e07 0464          BCC $C$L94,TC1 ; |1175| 
         000e09 12   
    3421                                                      ; branchcc occurs ; |1175| 
    3422                      .dwpsn  file "../c5535_bsl_revc/ezdsp5535_v1/c55xx_csl/ccs_v4.0_examples/mmc_sd/CSL_MMCSD_dmaExample/
    3423 000e0a A90E          MOV *SP(#7), AR1 ; |1177| 
    3424              
    3425 000e0f 4119          ADD #1, AR1 ; |1177| 
    3426 000e0c ED04  ||      MOV dbl(*SP(#2)), AC0 ; |1177| 
         000e0e 08   
    3427              
    3428 000e11 7DFF          AND #0xffff, AR1, AC1 ; |1177| 
         000e13 FF19 
    3429              $C$DW$327       .dwtag  DW_TAG_TI_branch
    3430                      .dwattr $C$DW$327, DW_AT_low_pc(0x00)
    3431                      .dwattr $C$DW$327, DW_AT_name("__divul")
    3432                      .dwattr $C$DW$327, DW_AT_TI_call
    3433 000e15 6C00          CALL #__divul ; |1177| 
         000e17 0000!
    3434                                                      ; call occurs [#__divul] ; |1177| 
    3435 000e19 EB04          MOV AC0, dbl(*SP(#2)) ; |1177| 
         000e1b 08   
    3436 000e1c       $C$L94:    
    3437                      .dwpsn  file "../c5535_bsl_revc/ezdsp5535_v1/c55xx_csl/ccs_v4.0_examples/mmc_sd/CSL_MMCSD_dmaExample/
    3438 000e1c ED04          MOV dbl(*SP(#2)), AC0 ; |1181| 
         000e1e 08   
    3439 000e1f 7603          MOV #1000, AC1 ; |1181| 
         000e21 E818 
    3440              $C$DW$328       .dwtag  DW_TAG_TI_branch
    3441                      .dwattr $C$DW$328, DW_AT_low_pc(0x00)
    3442                      .dwattr $C$DW$328, DW_AT_name("__divul")
    3443                      .dwattr $C$DW$328, DW_AT_TI_call
    3444 000e23 6C00          CALL #__divul ; |1181| 
         000e25 0000!
TMS320C55x Assembler PC v4.4.1 Sat Sep 29 23:09:00 2018

Tools Copyright (c) 1996-2012 Texas Instruments Incorporated
csl_mmcsd_dma_example.asm                                            PAGE   81

    3445                                                      ; call occurs [#__divul] ; |1181| 
    3446                      .dwpsn  file "../c5535_bsl_revc/ezdsp5535_v1/c55xx_csl/ccs_v4.0_examples/mmc_sd/CSL_MMCSD_dmaExample/
    3447 000e27 4E09          AADD #9, SP
    3448                      .dwcfi  cfa_offset, 1
    3449              $C$DW$329       .dwtag  DW_TAG_TI_branch
    3450                      .dwattr $C$DW$329, DW_AT_low_pc(0x00)
    3451                      .dwattr $C$DW$329, DW_AT_TI_return
    3452 000e29 4804          RET
    3453                                                      ; return occurs
    3454                      .dwattr $C$DW$317, DW_AT_TI_end_file("../c5535_bsl_revc/ezdsp5535_v1/c55xx_csl/ccs_v4.0_examples/mmc_
    3455                      .dwattr $C$DW$317, DW_AT_TI_end_line(0x49e)
    3456                      .dwattr $C$DW$317, DW_AT_TI_end_column(0x01)
    3457                      .dwendentry
    3458                      .dwendtag $C$DW$317
    3459              
    3460 000e2b               .sect   ".text"
    3461                      .align 4
    3462                      .global _mmcsdTransferDoneCallBack
    3463              
    3464              $C$DW$330       .dwtag  DW_TAG_subprogram, DW_AT_name("mmcsdTransferDoneCallBack")
    3465                      .dwattr $C$DW$330, DW_AT_low_pc(_mmcsdTransferDoneCallBack)
    3466                      .dwattr $C$DW$330, DW_AT_high_pc(0x00)
    3467                      .dwattr $C$DW$330, DW_AT_TI_symbol_name("_mmcsdTransferDoneCallBack")
    3468                      .dwattr $C$DW$330, DW_AT_external
    3469                      .dwattr $C$DW$330, DW_AT_TI_begin_file("../c5535_bsl_revc/ezdsp5535_v1/c55xx_csl/ccs_v4.0_examples/mm
    3470                      .dwattr $C$DW$330, DW_AT_TI_begin_line(0x4eb)
    3471                      .dwattr $C$DW$330, DW_AT_TI_begin_column(0x06)
    3472                      .dwattr $C$DW$330, DW_AT_TI_max_frame_size(0x06)
    3473                      .dwpsn  file "../c5535_bsl_revc/ezdsp5535_v1/c55xx_csl/ccs_v4.0_examples/mmc_sd/CSL_MMCSD_dmaExample/
    3474              
    3475                      .dwfde $C$DW$CIE, _mmcsdTransferDoneCallBack
    3476              $C$DW$331       .dwtag  DW_TAG_formal_parameter, DW_AT_name("mmcsdHandle")
    3477                      .dwattr $C$DW$331, DW_AT_TI_symbol_name("_mmcsdHandle")
    3478                      .dwattr $C$DW$331, DW_AT_type(*$C$DW$T$3)
    3479                      .dwattr $C$DW$331, DW_AT_location[DW_OP_reg17]
    3480              ;*******************************************************************************
    3481              ;* FUNCTION NAME: mmcsdTransferDoneCallBack                                    *
    3482              ;*                                                                             *
    3483              ;*   Function Uses Regs : AR0,XAR0,AR1,AR3,XAR3,SP,M40,SATA,SATD,RDM,FRCT,SMUL *
    3484              ;*   Stack Frame        : Compact (No Frame Pointer, w/ debug)                 *
    3485              ;*   Total Frame Size   : 6 words                                              *
    3486              ;*                        (2 return address/alignment)                         *
    3487              ;*                        (2 function parameters)                              *
    3488              ;*                        (2 local values)                                     *
    3489              ;*   Min System Stack   : 1 word                                               *
    3490              ;*******************************************************************************
    3491 000e2c       _mmcsdTransferDoneCallBack:
    3492                      .dwcfi  cfa_offset, 1
    3493                      .dwcfi  save_reg_to_mem, 91, -1
    3494 000e2c 4EFB          AADD #-5, SP
    3495                      .dwcfi  cfa_offset, 6
    3496              $C$DW$332       .dwtag  DW_TAG_variable, DW_AT_name("mmcsdHandle")
    3497                      .dwattr $C$DW$332, DW_AT_TI_symbol_name("_mmcsdHandle")
    3498                      .dwattr $C$DW$332, DW_AT_type(*$C$DW$T$3)
    3499                      .dwattr $C$DW$332, DW_AT_location[DW_OP_bregx 0x24 2]
TMS320C55x Assembler PC v4.4.1 Sat Sep 29 23:09:00 2018

Tools Copyright (c) 1996-2012 Texas Instruments Incorporated
csl_mmcsd_dma_example.asm                                            PAGE   82

    3500 000e2e EB04          MOV XAR0, dbl(*SP(#2))
         000e30 85   
    3501                      .dwpsn  file "../c5535_bsl_revc/ezdsp5535_v1/c55xx_csl/ccs_v4.0_examples/mmc_sd/CSL_MMCSD_dmaExample/
    3502 000e31 A931          MOV *(#_gMmcIntr), AR1 ; |1262| 
         000e33 0000 
         000e35 97-  
    3503 000e36 6419          BCC $C$L96,AR1 != #0 ; |1262| 
    3504                                                      ; branchcc occurs ; |1262| 
    3505 000e38       $C$L95:    
    3506 000e38       $C$DW$L$_mmcsdTransferDoneCallBack$2$B:
    3507 000e38 A931          MOV *(#_gMmcIntr), AR1 ; |1262| 
         000e3a 0000 
         000e3c 97-  
    3508 000e3d 0409          BCC $C$L95,AR1 == #0 ; |1262| 
         000e3f F8   
    3509                                                      ; branchcc occurs ; |1262| 
    3510 000e40       $C$DW$L$_mmcsdTransferDoneCallBack$2$E:
    3511 000e40       $C$L96:    
    3512                      .dwpsn  file "../c5535_bsl_revc/ezdsp5535_v1/c55xx_csl/ccs_v4.0_examples/mmc_sd/CSL_MMCSD_dmaExample/
    3513 000e40 E631          MOV #0, *(#_gMmcIntr) ; |1263| 
         000e42 0000 
         000e44 0097-
    3514                      .dwpsn  file "../c5535_bsl_revc/ezdsp5535_v1/c55xx_csl/ccs_v4.0_examples/mmc_sd/CSL_MMCSD_dmaExample/
    3515 000e46 EC31          AMOV #$C$FSL51, XAR3 ; |1265| 
         000e48 BE00 
         000e4a 0620+
    3516 000e4c EB00          MOV XAR3, dbl(*SP(#0))
         000e4e B5   
    3517              $C$DW$333       .dwtag  DW_TAG_TI_branch
    3518                      .dwattr $C$DW$333, DW_AT_low_pc(0x00)
    3519                      .dwattr $C$DW$333, DW_AT_name("_printf")
    3520                      .dwattr $C$DW$333, DW_AT_TI_call
    3521 000e4f 6C00          CALL #_printf ; |1265| 
         000e51 0000!
    3522                                                      ; call occurs [#_printf] ; |1265| 
    3523                      .dwpsn  file "../c5535_bsl_revc/ezdsp5535_v1/c55xx_csl/ccs_v4.0_examples/mmc_sd/CSL_MMCSD_dmaExample/
    3524 000e53 EC31          AMOV #$C$FSL52, XAR3 ; |1266| 
         000e55 BE00 
         000e57 0648+
    3525 000e59 EB00          MOV XAR3, dbl(*SP(#0))
         000e5b B5   
    3526              $C$DW$334       .dwtag  DW_TAG_TI_branch
    3527                      .dwattr $C$DW$334, DW_AT_low_pc(0x00)
    3528                      .dwattr $C$DW$334, DW_AT_name("_printf")
    3529                      .dwattr $C$DW$334, DW_AT_TI_call
    3530 000e5c 6C00          CALL #_printf ; |1266| 
         000e5e 0000!
    3531                                                      ; call occurs [#_printf] ; |1266| 
    3532                      .dwpsn  file "../c5535_bsl_revc/ezdsp5535_v1/c55xx_csl/ccs_v4.0_examples/mmc_sd/CSL_MMCSD_dmaExample/
    3533 000e60 4E05          AADD #5, SP
    3534                      .dwcfi  cfa_offset, 1
    3535              $C$DW$335       .dwtag  DW_TAG_TI_branch
    3536                      .dwattr $C$DW$335, DW_AT_low_pc(0x00)
    3537                      .dwattr $C$DW$335, DW_AT_TI_return
    3538 000e62 4804          RET
TMS320C55x Assembler PC v4.4.1 Sat Sep 29 23:09:00 2018

Tools Copyright (c) 1996-2012 Texas Instruments Incorporated
csl_mmcsd_dma_example.asm                                            PAGE   83

    3539                                                      ; return occurs
    3540              
    3541              $C$DW$336       .dwtag  DW_TAG_TI_loop
    3542                      .dwattr $C$DW$336, DW_AT_name("F:\eZdsp_DBG\tmp1\c55x-sim2\foo\Debug\csl_mmcsd_dma_example.asm:$C$L95
    3543                      .dwattr $C$DW$336, DW_AT_TI_begin_file("../c5535_bsl_revc/ezdsp5535_v1/c55xx_csl/ccs_v4.0_examples/mm
    3544                      .dwattr $C$DW$336, DW_AT_TI_begin_line(0x4ee)
    3545                      .dwattr $C$DW$336, DW_AT_TI_end_line(0x4ee)
    3546              $C$DW$337       .dwtag  DW_TAG_TI_loop_range
    3547                      .dwattr $C$DW$337, DW_AT_low_pc($C$DW$L$_mmcsdTransferDoneCallBack$2$B)
    3548                      .dwattr $C$DW$337, DW_AT_high_pc($C$DW$L$_mmcsdTransferDoneCallBack$2$E)
    3549                      .dwendtag $C$DW$336
    3550              
    3551                      .dwattr $C$DW$330, DW_AT_TI_end_file("../c5535_bsl_revc/ezdsp5535_v1/c55xx_csl/ccs_v4.0_examples/mmc_
    3552                      .dwattr $C$DW$330, DW_AT_TI_end_line(0x4f3)
    3553                      .dwattr $C$DW$330, DW_AT_TI_end_column(0x01)
    3554                      .dwendentry
    3555                      .dwendtag $C$DW$330
    3556              
    3557 000000               .sect   ".text:retain"
    3558                      .align 4
    3559                      .global _mmcsd_isr
    3560              
    3561              $C$DW$338       .dwtag  DW_TAG_subprogram, DW_AT_name("mmcsd_isr")
    3562                      .dwattr $C$DW$338, DW_AT_low_pc(_mmcsd_isr)
    3563                      .dwattr $C$DW$338, DW_AT_high_pc(0x00)
    3564                      .dwattr $C$DW$338, DW_AT_TI_symbol_name("_mmcsd_isr")
    3565                      .dwattr $C$DW$338, DW_AT_external
    3566                      .dwattr $C$DW$338, DW_AT_TI_begin_file("../c5535_bsl_revc/ezdsp5535_v1/c55xx_csl/ccs_v4.0_examples/mm
    3567                      .dwattr $C$DW$338, DW_AT_TI_begin_line(0x4fc)
    3568                      .dwattr $C$DW$338, DW_AT_TI_begin_column(0x10)
    3569                      .dwattr $C$DW$338, DW_AT_TI_interrupt
    3570                      .dwattr $C$DW$338, DW_AT_TI_max_frame_size(0x2f)
    3571                      .dwpsn  file "../c5535_bsl_revc/ezdsp5535_v1/c55xx_csl/ccs_v4.0_examples/mmc_sd/CSL_MMCSD_dmaExample/
    3572              
    3573                      .dwfde $C$DW$CIE, _mmcsd_isr
    3574              ;*******************************************************************************
    3575              ;* INTERRUPT NAME: mmcsd_isr                                                   *
    3576              ;*                                                                             *
    3577              ;*   Function Uses Regs : AC0,AC0,AC1,AC1,AC2,AC2,AC3,AC3,T0,T1,AR0,XAR0,AR1,  *
    3578              ;*                        AR2,AR3,AR4,SP,BKC,BK03,BK47,ST1,ST2,ST3,BRC0,RSA0,  *
    3579              ;*                        REA0,BRS1,BRC1,RSA1,REA1,CSR,RPTC,CDP,TRN0,TRN1,     *
    3580              ;*                        BSA01,BSA23,BSA45,BSA67,BSAC,M40,SATA,SATD,RDM,FRCT, *
    3581              ;*                        SMUL                                                 *
    3582              ;*   Save On Entry Regs : AC0,AC0,AC1,AC1,AC2,AC2,AC3,AC3,T0,T1,AR0,AR1,AR2,   *
    3583              ;*                        AR3,AR4,BKC,BK03,BK47,BRC0,RSA0,REA0,BRS1,BRC1,RSA1, *
    3584              ;*                        REA1,CSR,RPTC,CDP,TRN0,TRN1,BSA01,BSA23,BSA45,BSA67, *
    3585              ;*                        BSAC                                                 *
    3586              ;*******************************************************************************
    3587 000000       _mmcsd_isr:
    3588                      .dwcfi  cfa_offset, 3
    3589                      .dwcfi  save_reg_to_mem, 91, -3
    3590 000000 F406          AND #0xf91f, mmap(ST1_55)
         000002 F91F 
         000004 98   
    3591 000005 F506          OR #0x4100, mmap(ST1_55)
TMS320C55x Assembler PC v4.4.1 Sat Sep 29 23:09:00 2018

Tools Copyright (c) 1996-2012 Texas Instruments Incorporated
csl_mmcsd_dma_example.asm                                            PAGE   84

         000007 4100 
         000009 98   
    3592 00000a F496          AND #0xfa00, mmap(ST2_55)
         00000c FA00 
         00000e 98   
    3593 00000f F596          OR #0x8000, mmap(ST2_55)
         000011 8000 
         000013 98   
    3594 000014 B508          PSH mmap(ST3_55)
         000016 98   
    3595                      .dwcfi  cfa_offset, 4
    3596                      .dwcfi  save_reg_to_mem, 42, -4
    3597 000017 5007          PSH dbl(AC0)
    3598                      .dwcfi  cfa_offset, 5
    3599                      .dwcfi  save_reg_to_mem, 0, -5
    3600                      .dwcfi  cfa_offset, 6
    3601                      .dwcfi  save_reg_to_mem, 1, -6
    3602 000019 B514          PSH mmap(AC0G)
         00001b 98   
    3603                      .dwcfi  cfa_offset, 7
    3604                      .dwcfi  save_reg_to_mem, 2, -7
    3605 00001c 5017          PSH dbl(AC1)
    3606                      .dwcfi  cfa_offset, 8
    3607                      .dwcfi  save_reg_to_mem, 3, -8
    3608                      .dwcfi  cfa_offset, 9
    3609                      .dwcfi  save_reg_to_mem, 4, -9
    3610 00001e B51A          PSH mmap(AC1G)
         000020 98   
    3611                      .dwcfi  cfa_offset, 10
    3612                      .dwcfi  save_reg_to_mem, 5, -10
    3613 000021 5027          PSH dbl(AC2)
    3614                      .dwcfi  cfa_offset, 11
    3615                      .dwcfi  save_reg_to_mem, 6, -11
    3616                      .dwcfi  cfa_offset, 12
    3617                      .dwcfi  save_reg_to_mem, 7, -12
    3618 000023 B54C          PSH mmap(AC2G)
         000025 98   
    3619                      .dwcfi  cfa_offset, 13
    3620                      .dwcfi  save_reg_to_mem, 8, -13
    3621 000026 5037          PSH dbl(AC3)
    3622                      .dwcfi  cfa_offset, 14
    3623                      .dwcfi  save_reg_to_mem, 9, -14
    3624                      .dwcfi  cfa_offset, 15
    3625                      .dwcfi  save_reg_to_mem, 10, -15
    3626 000028 B554          PSH mmap(AC3G)
         00002a 98   
    3627                      .dwcfi  cfa_offset, 16
    3628                      .dwcfi  save_reg_to_mem, 11, -16
    3629 00002b 5046          PSH T0
    3630                      .dwcfi  cfa_offset, 17
    3631                      .dwcfi  save_reg_to_mem, 12, -17
    3632 00002d 5056          PSH T1
    3633                      .dwcfi  cfa_offset, 18
    3634                      .dwcfi  save_reg_to_mem, 13, -18
    3635 00002f 5085          PSHBOTH XAR0
TMS320C55x Assembler PC v4.4.1 Sat Sep 29 23:09:00 2018

Tools Copyright (c) 1996-2012 Texas Instruments Incorporated
csl_mmcsd_dma_example.asm                                            PAGE   85

    3636                      .dwcfi  cfa_offset, 19
    3637                      .dwcfi  save_reg_to_mem, 16, -19
    3638 000031 5095          PSHBOTH XAR1
    3639                      .dwcfi  cfa_offset, 20
    3640                      .dwcfi  save_reg_to_mem, 18, -20
    3641 000033 50A5          PSHBOTH XAR2
    3642                      .dwcfi  cfa_offset, 21
    3643                      .dwcfi  save_reg_to_mem, 20, -21
    3644 000035 50B5          PSHBOTH XAR3
    3645                      .dwcfi  cfa_offset, 22
    3646                      .dwcfi  save_reg_to_mem, 22, -22
    3647 000037 50C5          PSHBOTH XAR4
    3648                      .dwcfi  cfa_offset, 23
    3649                      .dwcfi  save_reg_to_mem, 24, -23
    3650 000039 B562          PSH mmap(BKC)
         00003b 98   
    3651                      .dwcfi  cfa_offset, 24
    3652                      .dwcfi  save_reg_to_mem, 37, -24
    3653 00003c B532          PSH mmap(BK03)
         00003e 98   
    3654                      .dwcfi  cfa_offset, 25
    3655                      .dwcfi  save_reg_to_mem, 38, -25
    3656 00003f B560          PSH mmap(BK47)
         000041 98   
    3657                      .dwcfi  cfa_offset, 26
    3658                      .dwcfi  save_reg_to_mem, 39, -26
    3659 000042 B534          PSH mmap(BRC0)
         000044 98   
    3660                      .dwcfi  cfa_offset, 27
    3661                      .dwcfi  save_reg_to_mem, 47, -27
    3662 000045 B57A          PSH mmap(RSA0L)
         000047 98   
    3663                      .dwcfi  cfa_offset, 28
    3664                      .dwcfi  save_reg_to_mem, 48, -28
    3665 000048 B578          PSH mmap(RSA0H)
         00004a 98   
    3666                      .dwcfi  cfa_offset, 29
    3667                      .dwcfi  save_reg_to_mem, 49, -29
    3668 00004b B57E          PSH mmap(REA0L)
         00004d 98   
    3669                      .dwcfi  cfa_offset, 30
    3670                      .dwcfi  save_reg_to_mem, 50, -30
    3671 00004e B57C          PSH mmap(REA0H)
         000050 98   
    3672                      .dwcfi  cfa_offset, 31
    3673                      .dwcfi  save_reg_to_mem, 51, -31
    3674 000051 B574          PSH mmap(BRS1)
         000053 98   
    3675                      .dwcfi  cfa_offset, 32
    3676                      .dwcfi  save_reg_to_mem, 52, -32
    3677 000054 B572          PSH mmap(BRC1)
         000056 98   
    3678                      .dwcfi  cfa_offset, 33
    3679                      .dwcfi  save_reg_to_mem, 53, -33
    3680 000057 B582          PSH mmap(RSA1L)
TMS320C55x Assembler PC v4.4.1 Sat Sep 29 23:09:00 2018

Tools Copyright (c) 1996-2012 Texas Instruments Incorporated
csl_mmcsd_dma_example.asm                                            PAGE   86

         000059 98   
    3681                      .dwcfi  cfa_offset, 34
    3682                      .dwcfi  save_reg_to_mem, 54, -34
    3683 00005a B580          PSH mmap(RSA1H)
         00005c 98   
    3684                      .dwcfi  cfa_offset, 35
    3685                      .dwcfi  save_reg_to_mem, 55, -35
    3686 00005d B586          PSH mmap(REA1L)
         00005f 98   
    3687                      .dwcfi  cfa_offset, 36
    3688                      .dwcfi  save_reg_to_mem, 56, -36
    3689 000060 B584          PSH mmap(REA1H)
         000062 98   
    3690                      .dwcfi  cfa_offset, 37
    3691                      .dwcfi  save_reg_to_mem, 57, -37
    3692 000063 B576          PSH mmap(CSR)
         000065 98   
    3693                      .dwcfi  cfa_offset, 38
    3694                      .dwcfi  save_reg_to_mem, 58, -38
    3695 000066 B588          PSH mmap(RPTC)
         000068 98   
    3696                      .dwcfi  cfa_offset, 39
    3697                      .dwcfi  save_reg_to_mem, 59, -39
    3698 000069 5075          PSHBOTH XCDP
    3699                      .dwcfi  cfa_offset, 40
    3700                      .dwcfi  save_reg_to_mem, 60, -40
    3701 00006b B51E          PSH mmap(TRN0)
         00006d 98   
    3702                      .dwcfi  cfa_offset, 41
    3703                      .dwcfi  save_reg_to_mem, 62, -41
    3704 00006e B570          PSH mmap(TRN1)
         000070 98   
    3705                      .dwcfi  cfa_offset, 42
    3706                      .dwcfi  save_reg_to_mem, 63, -42
    3707 000071 B564          PSH mmap(BSA01)
         000073 98   
    3708                      .dwcfi  cfa_offset, 43
    3709                      .dwcfi  save_reg_to_mem, 64, -43
    3710 000074 B566          PSH mmap(BSA23)
         000076 98   
    3711                      .dwcfi  cfa_offset, 44
    3712                      .dwcfi  save_reg_to_mem, 65, -44
    3713 000077 B568          PSH mmap(BSA45)
         000079 98   
    3714                      .dwcfi  cfa_offset, 45
    3715                      .dwcfi  save_reg_to_mem, 66, -45
    3716 00007a B56A          PSH mmap(BSA67)
         00007c 98   
    3717                      .dwcfi  cfa_offset, 46
    3718                      .dwcfi  save_reg_to_mem, 67, -46
    3719 00007d B56C          PSH mmap(BSAC)
         00007f 98   
    3720                      .dwcfi  cfa_offset, 47
    3721                      .dwcfi  save_reg_to_mem, 68, -47
    3722 000080 EC00          AMAR *SP(#0), XAR1
TMS320C55x Assembler PC v4.4.1 Sat Sep 29 23:09:00 2018

Tools Copyright (c) 1996-2012 Texas Instruments Incorporated
csl_mmcsd_dma_example.asm                                            PAGE   87

         000082 9E   
    3723 000083 F49A          AND #0xfffe, mmap(SP)
         000085 FFFE 
         000087 98   
    3724 000088 5096          PSH AR1
    3725 00008a 4EFF          AADD #-1, SP
    3726                      .dwcfi  cfa_offset, 47
    3727                      .dwpsn  file "../c5535_bsl_revc/ezdsp5535_v1/c55xx_csl/ccs_v4.0_examples/mmc_sd/CSL_MMCSD_dmaExample/
    3728 00008c 4656          BCLR ST3_SATA
    3729 00008e 4617          BSET ST3_SMUL
    3730 000090 ED31          MOV dbl(*(#_mmcsdHandle)), XAR0
         000092 8F00 
         000094 0040-
    3731              $C$DW$339       .dwtag  DW_TAG_TI_branch
    3732                      .dwattr $C$DW$339, DW_AT_low_pc(0x00)
    3733                      .dwattr $C$DW$339, DW_AT_name("_MMC_intEnable")
    3734                      .dwattr $C$DW$339, DW_AT_TI_call
    3735              
    3736 000096 6C00          CALL #_MMC_intEnable ; |1278| 
         000098 0000!
    3737 00009a 3D04  ||      MOV #0, T0
    3738              
    3739                                                      ; call occurs [#_MMC_intEnable] ; |1278| 
    3740                      .dwpsn  file "../c5535_bsl_revc/ezdsp5535_v1/c55xx_csl/ccs_v4.0_examples/mmc_sd/CSL_MMCSD_dmaExample/
    3741 00009c E631          MOV #1, *(#_gMmcIntr) ; |1279| 
         00009e 0100 
         0000a0 0097-
    3742                      .dwpsn  file "../c5535_bsl_revc/ezdsp5535_v1/c55xx_csl/ccs_v4.0_examples/mmc_sd/CSL_MMCSD_dmaExample/
    3743 0000a2 4E01          AADD #1, SP
    3744                      .dwcfi  cfa_offset, 47
    3745 0000a4 BB9A          POP mmap(SP)
         0000a6 98   
    3746 0000a7 BB6C          POP mmap(BSAC)
         0000a9 98   
    3747                      .dwcfi  restore_reg, 68
    3748                      .dwcfi  cfa_offset, 46
    3749 0000aa BB6A          POP mmap(BSA67)
         0000ac 98   
    3750                      .dwcfi  restore_reg, 67
    3751                      .dwcfi  cfa_offset, 45
    3752 0000ad BB68          POP mmap(BSA45)
         0000af 98   
    3753                      .dwcfi  restore_reg, 66
    3754                      .dwcfi  cfa_offset, 44
    3755 0000b0 BB66          POP mmap(BSA23)
         0000b2 98   
    3756                      .dwcfi  restore_reg, 65
    3757                      .dwcfi  cfa_offset, 43
    3758 0000b3 BB64          POP mmap(BSA01)
         0000b5 98   
    3759                      .dwcfi  restore_reg, 64
    3760                      .dwcfi  cfa_offset, 42
    3761 0000b6 BB70          POP mmap(TRN1)
         0000b8 98   
    3762                      .dwcfi  restore_reg, 63
TMS320C55x Assembler PC v4.4.1 Sat Sep 29 23:09:00 2018

Tools Copyright (c) 1996-2012 Texas Instruments Incorporated
csl_mmcsd_dma_example.asm                                            PAGE   88

    3763                      .dwcfi  cfa_offset, 41
    3764 0000b9 BB1E          POP mmap(TRN0)
         0000bb 98   
    3765                      .dwcfi  restore_reg, 62
    3766                      .dwcfi  cfa_offset, 40
    3767 0000bc 5074          POPBOTH XCDP
    3768                      .dwcfi  restore_reg, 60
    3769                      .dwcfi  cfa_offset, 39
    3770 0000be BB88          POP mmap(RPTC)
         0000c0 98   
    3771                      .dwcfi  restore_reg, 59
    3772                      .dwcfi  cfa_offset, 38
    3773 0000c1 BB76          POP mmap(CSR)
         0000c3 98   
    3774                      .dwcfi  restore_reg, 58
    3775                      .dwcfi  cfa_offset, 37
    3776 0000c4 BB84          POP mmap(REA1H)
         0000c6 98   
    3777                      .dwcfi  restore_reg, 57
    3778                      .dwcfi  cfa_offset, 36
    3779 0000c7 BB86          POP mmap(REA1L)
         0000c9 98   
    3780                      .dwcfi  restore_reg, 56
    3781                      .dwcfi  cfa_offset, 35
    3782 0000ca BB80          POP mmap(RSA1H)
         0000cc 98   
    3783                      .dwcfi  restore_reg, 55
    3784                      .dwcfi  cfa_offset, 34
    3785 0000cd BB82          POP mmap(RSA1L)
         0000cf 98   
    3786                      .dwcfi  restore_reg, 54
    3787                      .dwcfi  cfa_offset, 33
    3788 0000d0 BB72          POP mmap(BRC1)
         0000d2 98   
    3789                      .dwcfi  restore_reg, 53
    3790                      .dwcfi  cfa_offset, 32
    3791 0000d3 BB74          POP mmap(BRS1)
         0000d5 98   
    3792                      .dwcfi  restore_reg, 52
    3793                      .dwcfi  cfa_offset, 31
    3794 0000d6 BB7C          POP mmap(REA0H)
         0000d8 98   
    3795                      .dwcfi  restore_reg, 51
    3796                      .dwcfi  cfa_offset, 30
    3797 0000d9 BB7E          POP mmap(REA0L)
         0000db 98   
    3798                      .dwcfi  restore_reg, 50
    3799                      .dwcfi  cfa_offset, 29
    3800 0000dc BB78          POP mmap(RSA0H)
         0000de 98   
    3801                      .dwcfi  restore_reg, 49
    3802                      .dwcfi  cfa_offset, 28
    3803 0000df BB7A          POP mmap(RSA0L)
         0000e1 98   
    3804                      .dwcfi  restore_reg, 48
TMS320C55x Assembler PC v4.4.1 Sat Sep 29 23:09:00 2018

Tools Copyright (c) 1996-2012 Texas Instruments Incorporated
csl_mmcsd_dma_example.asm                                            PAGE   89

    3805                      .dwcfi  cfa_offset, 27
    3806 0000e2 BB34          POP mmap(BRC0)
         0000e4 98   
    3807                      .dwcfi  restore_reg, 47
    3808                      .dwcfi  cfa_offset, 26
    3809 0000e5 BB60          POP mmap(BK47)
         0000e7 98   
    3810                      .dwcfi  restore_reg, 39
    3811                      .dwcfi  cfa_offset, 25
    3812 0000e8 BB32          POP mmap(BK03)
         0000ea 98   
    3813                      .dwcfi  restore_reg, 38
    3814                      .dwcfi  cfa_offset, 24
    3815 0000eb BB62          POP mmap(BKC)
         0000ed 98   
    3816                      .dwcfi  restore_reg, 37
    3817                      .dwcfi  cfa_offset, 23
    3818 0000ee 50C4          POPBOTH XAR4
    3819                      .dwcfi  restore_reg, 24
    3820                      .dwcfi  cfa_offset, 22
    3821 0000f0 50B4          POPBOTH XAR3
    3822                      .dwcfi  restore_reg, 22
    3823                      .dwcfi  cfa_offset, 21
    3824 0000f2 50A4          POPBOTH XAR2
    3825                      .dwcfi  restore_reg, 20
    3826                      .dwcfi  cfa_offset, 20
    3827 0000f4 5094          POPBOTH XAR1
    3828                      .dwcfi  restore_reg, 18
    3829                      .dwcfi  cfa_offset, 19
    3830 0000f6 5084          POPBOTH XAR0
    3831                      .dwcfi  restore_reg, 16
    3832                      .dwcfi  cfa_offset, 18
    3833 0000f8 5052          POP T1
    3834                      .dwcfi  restore_reg, 13
    3835                      .dwcfi  cfa_offset, 17
    3836 0000fa 5042          POP T0
    3837                      .dwcfi  restore_reg, 12
    3838                      .dwcfi  cfa_offset, 16
    3839 0000fc BB54          POP mmap(AC3G)
         0000fe 98   
    3840                      .dwcfi  restore_reg, 11
    3841                      .dwcfi  cfa_offset, 15
    3842                      .dwcfi  restore_reg, 10
    3843                      .dwcfi  cfa_offset, 14
    3844 0000ff 5033          POP dbl(AC3)
    3845                      .dwcfi  restore_reg, 9
    3846                      .dwcfi  cfa_offset, 13
    3847 000101 BB4C          POP mmap(AC2G)
         000103 98   
    3848                      .dwcfi  restore_reg, 8
    3849                      .dwcfi  cfa_offset, 12
    3850                      .dwcfi  restore_reg, 7
    3851                      .dwcfi  cfa_offset, 11
    3852 000104 5023          POP dbl(AC2)
    3853                      .dwcfi  restore_reg, 6
TMS320C55x Assembler PC v4.4.1 Sat Sep 29 23:09:00 2018

Tools Copyright (c) 1996-2012 Texas Instruments Incorporated
csl_mmcsd_dma_example.asm                                            PAGE   90

    3854                      .dwcfi  cfa_offset, 10
    3855 000106 BB1A          POP mmap(AC1G)
         000108 98   
    3856                      .dwcfi  restore_reg, 5
    3857                      .dwcfi  cfa_offset, 9
    3858                      .dwcfi  restore_reg, 4
    3859                      .dwcfi  cfa_offset, 8
    3860 000109 5013          POP dbl(AC1)
    3861                      .dwcfi  restore_reg, 3
    3862                      .dwcfi  cfa_offset, 7
    3863 00010b BB14          POP mmap(AC0G)
         00010d 98   
    3864                      .dwcfi  restore_reg, 2
    3865                      .dwcfi  cfa_offset, 6
    3866                      .dwcfi  restore_reg, 1
    3867                      .dwcfi  cfa_offset, 5
    3868 00010e 5003          POP dbl(AC0)
    3869                      .dwcfi  restore_reg, 0
    3870                      .dwcfi  cfa_offset, 4
    3871 000110 BB08          POP mmap(ST3_55)
         000112 98   
    3872                      .dwcfi  restore_reg, 43
    3873                      .dwcfi  cfa_offset, 3
    3874              $C$DW$340       .dwtag  DW_TAG_TI_branch
    3875                      .dwattr $C$DW$340, DW_AT_low_pc(0x00)
    3876                      .dwattr $C$DW$340, DW_AT_TI_return
    3877 000113 4805          RETI
    3878                                                      ; return occurs
    3879                      .dwattr $C$DW$338, DW_AT_TI_end_file("../c5535_bsl_revc/ezdsp5535_v1/c55xx_csl/ccs_v4.0_examples/mmc_
    3880                      .dwattr $C$DW$338, DW_AT_TI_end_line(0x500)
    3881                      .dwattr $C$DW$338, DW_AT_TI_end_column(0x01)
    3882                      .dwendentry
    3883                      .dwendtag $C$DW$338
    3884              
    3885              ;*******************************************************************************
    3886              ;* FAR STRINGS                                                                 *
    3887              ;*******************************************************************************
    3888 000000               .sect   ".const:.string"
    3889                      .align  2
    3890 000000 0043  $C$FSL1:        .string "CSL MMCSD DMA MODE TESTS!",10,10,0
         000001 0053 
         000002 004C 
         000003 0020 
         000004 004D 
         000005 004D 
         000006 0043 
         000007 0053 
         000008 0044 
         000009 0020 
         00000a 0044 
         00000b 004D 
         00000c 0041 
         00000d 0020 
         00000e 004D 
         00000f 004F 
TMS320C55x Assembler PC v4.4.1 Sat Sep 29 23:09:00 2018

Tools Copyright (c) 1996-2012 Texas Instruments Incorporated
csl_mmcsd_dma_example.asm                                            PAGE   91

         000010 0044 
         000011 0045 
         000012 0020 
         000013 0054 
         000014 0045 
         000015 0053 
         000016 0054 
         000017 0053 
         000018 0021 
         000019 000A 
         00001a 000A 
         00001b 0000 
    3891                      .align  2
    3892 00001c 0044  $C$FSL2:        .string "DMA MODE TEST WITHOUT CALLBACK",10,10,0
         00001d 004D 
         00001e 0041 
         00001f 0020 
         000020 004D 
         000021 004F 
         000022 0044 
         000023 0045 
         000024 0020 
         000025 0054 
         000026 0045 
         000027 0053 
         000028 0054 
         000029 0020 
         00002a 0057 
         00002b 0049 
         00002c 0054 
         00002d 0048 
         00002e 004F 
         00002f 0055 
         000030 0054 
         000031 0020 
         000032 0043 
         000033 0041 
         000034 004C 
         000035 004C 
         000036 0042 
         000037 0041 
         000038 0043 
         000039 004B 
         00003a 000A 
         00003b 000A 
         00003c 0000 
    3893                      .align  2
    3894 00003e 000A  $C$FSL3:        .string 10,"DMA MODE TEST WITHOUT CALLBACK FAILED!",10,0
         00003f 0044 
         000040 004D 
         000041 0041 
         000042 0020 
         000043 004D 
         000044 004F 
         000045 0044 
TMS320C55x Assembler PC v4.4.1 Sat Sep 29 23:09:00 2018

Tools Copyright (c) 1996-2012 Texas Instruments Incorporated
csl_mmcsd_dma_example.asm                                            PAGE   92

         000046 0045 
         000047 0020 
         000048 0054 
         000049 0045 
         00004a 0053 
         00004b 0054 
         00004c 0020 
         00004d 0057 
         00004e 0049 
         00004f 0054 
         000050 0048 
         000051 004F 
         000052 0055 
         000053 0054 
         000054 0020 
         000055 0043 
         000056 0041 
         000057 004C 
         000058 004C 
         000059 0042 
         00005a 0041 
         00005b 0043 
         00005c 004B 
         00005d 0020 
         00005e 0046 
         00005f 0041 
         000060 0049 
         000061 004C 
         000062 0045 
         000063 0044 
         000064 0021 
         000065 000A 
         000066 0000 
    3895                      .align  2
    3896 000068 000A  $C$FSL4:        .string 10,"DMA MODE TEST WITHOUT CALLBACK PASSED!",10,0
         000069 0044 
         00006a 004D 
         00006b 0041 
         00006c 0020 
         00006d 004D 
         00006e 004F 
         00006f 0044 
         000070 0045 
         000071 0020 
         000072 0054 
         000073 0045 
         000074 0053 
         000075 0054 
         000076 0020 
         000077 0057 
         000078 0049 
         000079 0054 
         00007a 0048 
         00007b 004F 
         00007c 0055 
TMS320C55x Assembler PC v4.4.1 Sat Sep 29 23:09:00 2018

Tools Copyright (c) 1996-2012 Texas Instruments Incorporated
csl_mmcsd_dma_example.asm                                            PAGE   93

         00007d 0054 
         00007e 0020 
         00007f 0043 
         000080 0041 
         000081 004C 
         000082 004C 
         000083 0042 
         000084 0041 
         000085 0043 
         000086 004B 
         000087 0020 
         000088 0050 
         000089 0041 
         00008a 0053 
         00008b 0053 
         00008c 0045 
         00008d 0044 
         00008e 0021 
         00008f 000A 
         000090 0000 
    3897                      .align  2
    3898 000092 000A  $C$FSL5:        .string 10,10,10,"DMA MODE TEST WITH CALLBACK",10,10,0
         000093 000A 
         000094 000A 
         000095 0044 
         000096 004D 
         000097 0041 
         000098 0020 
         000099 004D 
         00009a 004F 
         00009b 0044 
         00009c 0045 
         00009d 0020 
         00009e 0054 
         00009f 0045 
         0000a0 0053 
         0000a1 0054 
         0000a2 0020 
         0000a3 0057 
         0000a4 0049 
         0000a5 0054 
         0000a6 0048 
         0000a7 0020 
         0000a8 0043 
         0000a9 0041 
         0000aa 004C 
         0000ab 004C 
         0000ac 0042 
         0000ad 0041 
         0000ae 0043 
         0000af 004B 
         0000b0 000A 
         0000b1 000A 
         0000b2 0000 
    3899                      .align  2
TMS320C55x Assembler PC v4.4.1 Sat Sep 29 23:09:00 2018

Tools Copyright (c) 1996-2012 Texas Instruments Incorporated
csl_mmcsd_dma_example.asm                                            PAGE   94

    3900 0000b4 000A  $C$FSL6:        .string 10,"DMA MODE TEST WITH CALLBACK FAILED!",10,0
         0000b5 0044 
         0000b6 004D 
         0000b7 0041 
         0000b8 0020 
         0000b9 004D 
         0000ba 004F 
         0000bb 0044 
         0000bc 0045 
         0000bd 0020 
         0000be 0054 
         0000bf 0045 
         0000c0 0053 
         0000c1 0054 
         0000c2 0020 
         0000c3 0057 
         0000c4 0049 
         0000c5 0054 
         0000c6 0048 
         0000c7 0020 
         0000c8 0043 
         0000c9 0041 
         0000ca 004C 
         0000cb 004C 
         0000cc 0042 
         0000cd 0041 
         0000ce 0043 
         0000cf 004B 
         0000d0 0020 
         0000d1 0046 
         0000d2 0041 
         0000d3 0049 
         0000d4 004C 
         0000d5 0045 
         0000d6 0044 
         0000d7 0021 
         0000d8 000A 
         0000d9 0000 
    3901                      .align  2
    3902 0000da 000A  $C$FSL7:        .string 10,"DMA MODE TEST WITH CALLBACK PASSED!",10,0
         0000db 0044 
         0000dc 004D 
         0000dd 0041 
         0000de 0020 
         0000df 004D 
         0000e0 004F 
         0000e1 0044 
         0000e2 0045 
         0000e3 0020 
         0000e4 0054 
         0000e5 0045 
         0000e6 0053 
         0000e7 0054 
         0000e8 0020 
         0000e9 0057 
TMS320C55x Assembler PC v4.4.1 Sat Sep 29 23:09:00 2018

Tools Copyright (c) 1996-2012 Texas Instruments Incorporated
csl_mmcsd_dma_example.asm                                            PAGE   95

         0000ea 0049 
         0000eb 0054 
         0000ec 0048 
         0000ed 0020 
         0000ee 0043 
         0000ef 0041 
         0000f0 004C 
         0000f1 004C 
         0000f2 0042 
         0000f3 0041 
         0000f4 0043 
         0000f5 004B 
         0000f6 0020 
         0000f7 0050 
         0000f8 0041 
         0000f9 0053 
         0000fa 0053 
         0000fb 0045 
         0000fc 0044 
         0000fd 0021 
         0000fe 000A 
         0000ff 0000 
    3903                      .align  2
    3904 000100 000A  $C$FSL8:        .string 10,"CSL MMCSD DMA MODE TESTS FAILED!!",10,0
         000101 0043 
         000102 0053 
         000103 004C 
         000104 0020 
         000105 004D 
         000106 004D 
         000107 0043 
         000108 0053 
         000109 0044 
         00010a 0020 
         00010b 0044 
         00010c 004D 
         00010d 0041 
         00010e 0020 
         00010f 004D 
         000110 004F 
         000111 0044 
         000112 0045 
         000113 0020 
         000114 0054 
         000115 0045 
         000116 0053 
         000117 0054 
         000118 0053 
         000119 0020 
         00011a 0046 
         00011b 0041 
         00011c 0049 
         00011d 004C 
         00011e 0045 
         00011f 0044 
TMS320C55x Assembler PC v4.4.1 Sat Sep 29 23:09:00 2018

Tools Copyright (c) 1996-2012 Texas Instruments Incorporated
csl_mmcsd_dma_example.asm                                            PAGE   96

         000120 0021 
         000121 0021 
         000122 000A 
         000123 0000 
    3905                      .align  2
    3906 000124 000A  $C$FSL9:        .string 10,"CSL MMCSD DMA MODE TESTS PASSED!!",10,0
         000125 0043 
         000126 0053 
         000127 004C 
         000128 0020 
         000129 004D 
         00012a 004D 
         00012b 0043 
         00012c 0053 
         00012d 0044 
         00012e 0020 
         00012f 0044 
         000130 004D 
         000131 0041 
         000132 0020 
         000133 004D 
         000134 004F 
         000135 0044 
         000136 0045 
         000137 0020 
         000138 0054 
         000139 0045 
         00013a 0053 
         00013b 0054 
         00013c 0053 
         00013d 0020 
         00013e 0050 
         00013f 0041 
         000140 0053 
         000141 0053 
         000142 0045 
         000143 0044 
         000144 0021 
         000145 0021 
         000146 000A 
         000147 0000 
    3907                      .align  2
    3908 000148 0041  $C$FSL10:       .string "API: MMC_init Failed!",10,0
         000149 0050 
         00014a 0049 
         00014b 003A 
         00014c 0020 
         00014d 004D 
         00014e 004D 
         00014f 0043 
         000150 005F 
         000151 0069 
         000152 006E 
         000153 0069 
         000154 0074 
TMS320C55x Assembler PC v4.4.1 Sat Sep 29 23:09:00 2018

Tools Copyright (c) 1996-2012 Texas Instruments Incorporated
csl_mmcsd_dma_example.asm                                            PAGE   97

         000155 0020 
         000156 0046 
         000157 0061 
         000158 0069 
         000159 006C 
         00015a 0065 
         00015b 0064 
         00015c 0021 
         00015d 000A 
         00015e 0000 
    3909                      .align  2
    3910 000160 0041  $C$FSL11:       .string "API: DMA_init Failed!",10,0
         000161 0050 
         000162 0049 
         000163 003A 
         000164 0020 
         000165 0044 
         000166 004D 
         000167 0041 
         000168 005F 
         000169 0069 
         00016a 006E 
         00016b 0069 
         00016c 0074 
         00016d 0020 
         00016e 0046 
         00016f 0061 
         000170 0069 
         000171 006C 
         000172 0065 
         000173 0064 
         000174 0021 
         000175 000A 
         000176 0000 
    3911                      .align  2
    3912 000178 0041  $C$FSL12:       .string "API: DMA_open for MMCSD Write Failed!",10,0
         000179 0050 
         00017a 0049 
         00017b 003A 
         00017c 0020 
         00017d 0044 
         00017e 004D 
         00017f 0041 
         000180 005F 
         000181 006F 
         000182 0070 
         000183 0065 
         000184 006E 
         000185 0020 
         000186 0066 
         000187 006F 
         000188 0072 
         000189 0020 
         00018a 004D 
         00018b 004D 
TMS320C55x Assembler PC v4.4.1 Sat Sep 29 23:09:00 2018

Tools Copyright (c) 1996-2012 Texas Instruments Incorporated
csl_mmcsd_dma_example.asm                                            PAGE   98

         00018c 0043 
         00018d 0053 
         00018e 0044 
         00018f 0020 
         000190 0057 
         000191 0072 
         000192 0069 
         000193 0074 
         000194 0065 
         000195 0020 
         000196 0046 
         000197 0061 
         000198 0069 
         000199 006C 
         00019a 0065 
         00019b 0064 
         00019c 0021 
         00019d 000A 
         00019e 0000 
    3913                      .align  2
    3914 0001a0 0041  $C$FSL13:       .string "API: DMA_open for MMCSD Read Failed!",10,0
         0001a1 0050 
         0001a2 0049 
         0001a3 003A 
         0001a4 0020 
         0001a5 0044 
         0001a6 004D 
         0001a7 0041 
         0001a8 005F 
         0001a9 006F 
         0001aa 0070 
         0001ab 0065 
         0001ac 006E 
         0001ad 0020 
         0001ae 0066 
         0001af 006F 
         0001b0 0072 
         0001b1 0020 
         0001b2 004D 
         0001b3 004D 
         0001b4 0043 
         0001b5 0053 
         0001b6 0044 
         0001b7 0020 
         0001b8 0052 
         0001b9 0065 
         0001ba 0061 
         0001bb 0064 
         0001bc 0020 
         0001bd 0046 
         0001be 0061 
         0001bf 0069 
         0001c0 006C 
         0001c1 0065 
         0001c2 0064 
TMS320C55x Assembler PC v4.4.1 Sat Sep 29 23:09:00 2018

Tools Copyright (c) 1996-2012 Texas Instruments Incorporated
csl_mmcsd_dma_example.asm                                            PAGE   99

         0001c3 0021 
         0001c4 000A 
         0001c5 0000 
    3915                      .align  2
    3916 0001c6 0041  $C$FSL14:       .string "API: MMC_open Failed",10,0
         0001c7 0050 
         0001c8 0049 
         0001c9 003A 
         0001ca 0020 
         0001cb 004D 
         0001cc 004D 
         0001cd 0043 
         0001ce 005F 
         0001cf 006F 
         0001d0 0070 
         0001d1 0065 
         0001d2 006E 
         0001d3 0020 
         0001d4 0046 
         0001d5 0061 
         0001d6 0069 
         0001d7 006C 
         0001d8 0065 
         0001d9 0064 
         0001da 000A 
         0001db 0000 
    3917                      .align  2
    3918 0001dc 0041  $C$FSL15:       .string "API: MMC_setDmaHandle for MMCSD Failed",10,0
         0001dd 0050 
         0001de 0049 
         0001df 003A 
         0001e0 0020 
         0001e1 004D 
         0001e2 004D 
         0001e3 0043 
         0001e4 005F 
         0001e5 0073 
         0001e6 0065 
         0001e7 0074 
         0001e8 0044 
         0001e9 006D 
         0001ea 0061 
         0001eb 0048 
         0001ec 0061 
         0001ed 006E 
         0001ee 0064 
         0001ef 006C 
         0001f0 0065 
         0001f1 0020 
         0001f2 0066 
         0001f3 006F 
         0001f4 0072 
         0001f5 0020 
         0001f6 004D 
         0001f7 004D 
TMS320C55x Assembler PC v4.4.1 Sat Sep 29 23:09:00 2018

Tools Copyright (c) 1996-2012 Texas Instruments Incorporated
csl_mmcsd_dma_example.asm                                            PAGE  100

         0001f8 0043 
         0001f9 0053 
         0001fa 0044 
         0001fb 0020 
         0001fc 0046 
         0001fd 0061 
         0001fe 0069 
         0001ff 006C 
         000200 0065 
         000201 0064 
         000202 000A 
         000203 0000 
    3919                      .align  2
    3920 000204 0041  $C$FSL16:       .string "API: MMC_sendGoIdle Failed",10,0
         000205 0050 
         000206 0049 
         000207 003A 
         000208 0020 
         000209 004D 
         00020a 004D 
         00020b 0043 
         00020c 005F 
         00020d 0073 
         00020e 0065 
         00020f 006E 
         000210 0064 
         000211 0047 
         000212 006F 
         000213 0049 
         000214 0064 
         000215 006C 
         000216 0065 
         000217 0020 
         000218 0046 
         000219 0061 
         00021a 0069 
         00021b 006C 
         00021c 0065 
         00021d 0064 
         00021e 000A 
         00021f 0000 
    3921                      .align  2
    3922 000220 0041  $C$FSL17:       .string "API: MMC_selectCard Failed",10,0
         000221 0050 
         000222 0049 
         000223 003A 
         000224 0020 
         000225 004D 
         000226 004D 
         000227 0043 
         000228 005F 
         000229 0073 
         00022a 0065 
         00022b 006C 
         00022c 0065 
TMS320C55x Assembler PC v4.4.1 Sat Sep 29 23:09:00 2018

Tools Copyright (c) 1996-2012 Texas Instruments Incorporated
csl_mmcsd_dma_example.asm                                            PAGE  101

         00022d 0063 
         00022e 0074 
         00022f 0043 
         000230 0061 
         000231 0072 
         000232 0064 
         000233 0020 
         000234 0046 
         000235 0061 
         000236 0069 
         000237 006C 
         000238 0065 
         000239 0064 
         00023a 000A 
         00023b 0000 
    3923                      .align  2
    3924 00023c 004D  $C$FSL18:       .string "MMC Card Detected!",10,10,0
         00023d 004D 
         00023e 0043 
         00023f 0020 
         000240 0043 
         000241 0061 
         000242 0072 
         000243 0064 
         000244 0020 
         000245 0044 
         000246 0065 
         000247 0074 
         000248 0065 
         000249 0063 
         00024a 0074 
         00024b 0065 
         00024c 0064 
         00024d 0021 
         00024e 000A 
         00024f 000A 
         000250 0000 
    3925                      .align  2
    3926 000252 0041  $C$FSL19:       .string "API: MMC_sendAllCID Failed",10,0
         000253 0050 
         000254 0049 
         000255 003A 
         000256 0020 
         000257 004D 
         000258 004D 
         000259 0043 
         00025a 005F 
         00025b 0073 
         00025c 0065 
         00025d 006E 
         00025e 0064 
         00025f 0041 
         000260 006C 
         000261 006C 
         000262 0043 
TMS320C55x Assembler PC v4.4.1 Sat Sep 29 23:09:00 2018

Tools Copyright (c) 1996-2012 Texas Instruments Incorporated
csl_mmcsd_dma_example.asm                                            PAGE  102

         000263 0049 
         000264 0044 
         000265 0020 
         000266 0046 
         000267 0061 
         000268 0069 
         000269 006C 
         00026a 0065 
         00026b 0064 
         00026c 000A 
         00026d 0000 
    3927                      .align  2
    3928 00026e 0041  $C$FSL20:       .string "API: MMC_setRca Failed",10,0
         00026f 0050 
         000270 0049 
         000271 003A 
         000272 0020 
         000273 004D 
         000274 004D 
         000275 0043 
         000276 005F 
         000277 0073 
         000278 0065 
         000279 0074 
         00027a 0052 
         00027b 0063 
         00027c 0061 
         00027d 0020 
         00027e 0046 
         00027f 0061 
         000280 0069 
         000281 006C 
         000282 0065 
         000283 0064 
         000284 000A 
         000285 0000 
    3929                      .align  2
    3930 000286 0041  $C$FSL21:       .string "API: MMC_getCardCsd Failed",10,0
         000287 0050 
         000288 0049 
         000289 003A 
         00028a 0020 
         00028b 004D 
         00028c 004D 
         00028d 0043 
         00028e 005F 
         00028f 0067 
         000290 0065 
         000291 0074 
         000292 0043 
         000293 0061 
         000294 0072 
         000295 0064 
         000296 0043 
         000297 0073 
TMS320C55x Assembler PC v4.4.1 Sat Sep 29 23:09:00 2018

Tools Copyright (c) 1996-2012 Texas Instruments Incorporated
csl_mmcsd_dma_example.asm                                            PAGE  103

         000298 0064 
         000299 0020 
         00029a 0046 
         00029b 0061 
         00029c 0069 
         00029d 006C 
         00029e 0065 
         00029f 0064 
         0002a0 000A 
         0002a1 0000 
    3931                      .align  2
    3932 0002a2 0053  $C$FSL22:       .string "SD Card Detected!",10,0
         0002a3 0044 
         0002a4 0020 
         0002a5 0043 
         0002a6 0061 
         0002a7 0072 
         0002a8 0064 
         0002a9 0020 
         0002aa 0044 
         0002ab 0065 
         0002ac 0074 
         0002ad 0065 
         0002ae 0063 
         0002af 0074 
         0002b0 0065 
         0002b1 0064 
         0002b2 0021 
         0002b3 000A 
         0002b4 0000 
    3933                      .align  2
    3934 0002b6 0053  $C$FSL23:       .string "SD card is High Capacity Card",10,0
         0002b7 0044 
         0002b8 0020 
         0002b9 0063 
         0002ba 0061 
         0002bb 0072 
         0002bc 0064 
         0002bd 0020 
         0002be 0069 
         0002bf 0073 
         0002c0 0020 
         0002c1 0048 
         0002c2 0069 
         0002c3 0067 
         0002c4 0068 
         0002c5 0020 
         0002c6 0043 
         0002c7 0061 
         0002c8 0070 
         0002c9 0061 
         0002ca 0063 
         0002cb 0069 
         0002cc 0074 
         0002cd 0079 
TMS320C55x Assembler PC v4.4.1 Sat Sep 29 23:09:00 2018

Tools Copyright (c) 1996-2012 Texas Instruments Incorporated
csl_mmcsd_dma_example.asm                                            PAGE  104

         0002ce 0020 
         0002cf 0043 
         0002d0 0061 
         0002d1 0072 
         0002d2 0064 
         0002d3 000A 
         0002d4 0000 
    3935                      .align  2
    3936 0002d6 004D  $C$FSL24:       .string "Memory Access Uses Block Addressing",10,10,0
         0002d7 0065 
         0002d8 006D 
         0002d9 006F 
         0002da 0072 
         0002db 0079 
         0002dc 0020 
         0002dd 0041 
         0002de 0063 
         0002df 0063 
         0002e0 0065 
         0002e1 0073 
         0002e2 0073 
         0002e3 0020 
         0002e4 0055 
         0002e5 0073 
         0002e6 0065 
         0002e7 0073 
         0002e8 0020 
         0002e9 0042 
         0002ea 006C 
         0002eb 006F 
         0002ec 0063 
         0002ed 006B 
         0002ee 0020 
         0002ef 0041 
         0002f0 0064 
         0002f1 0064 
         0002f2 0072 
         0002f3 0065 
         0002f4 0073 
         0002f5 0073 
         0002f6 0069 
         0002f7 006E 
         0002f8 0067 
         0002f9 000A 
         0002fa 000A 
         0002fb 0000 
    3937                      .align  2
    3938 0002fc 0053  $C$FSL25:       .string "SD card is Standard Capacity Card",10,0
         0002fd 0044 
         0002fe 0020 
         0002ff 0063 
         000300 0061 
         000301 0072 
         000302 0064 
         000303 0020 
TMS320C55x Assembler PC v4.4.1 Sat Sep 29 23:09:00 2018

Tools Copyright (c) 1996-2012 Texas Instruments Incorporated
csl_mmcsd_dma_example.asm                                            PAGE  105

         000304 0069 
         000305 0073 
         000306 0020 
         000307 0053 
         000308 0074 
         000309 0061 
         00030a 006E 
         00030b 0064 
         00030c 0061 
         00030d 0072 
         00030e 0064 
         00030f 0020 
         000310 0043 
         000311 0061 
         000312 0070 
         000313 0061 
         000314 0063 
         000315 0069 
         000316 0074 
         000317 0079 
         000318 0020 
         000319 0043 
         00031a 0061 
         00031b 0072 
         00031c 0064 
         00031d 000A 
         00031e 0000 
    3939                      .align  2
    3940 000320 004D  $C$FSL26:       .string "Memory Access Uses Byte Addressing",10,10,0
         000321 0065 
         000322 006D 
         000323 006F 
         000324 0072 
         000325 0079 
         000326 0020 
         000327 0041 
         000328 0063 
         000329 0063 
         00032a 0065 
         00032b 0073 
         00032c 0073 
         00032d 0020 
         00032e 0055 
         00032f 0073 
         000330 0065 
         000331 0073 
         000332 0020 
         000333 0042 
         000334 0079 
         000335 0074 
         000336 0065 
         000337 0020 
         000338 0041 
         000339 0064 
         00033a 0064 
TMS320C55x Assembler PC v4.4.1 Sat Sep 29 23:09:00 2018

Tools Copyright (c) 1996-2012 Texas Instruments Incorporated
csl_mmcsd_dma_example.asm                                            PAGE  106

         00033b 0072 
         00033c 0065 
         00033d 0073 
         00033e 0073 
         00033f 0069 
         000340 006E 
         000341 0067 
         000342 000A 
         000343 000A 
         000344 0000 
    3941                      .align  2
    3942 000346 0041  $C$FSL27:       .string "API: MMC_sendOpCond Failed",10,0
         000347 0050 
         000348 0049 
         000349 003A 
         00034a 0020 
         00034b 004D 
         00034c 004D 
         00034d 0043 
         00034e 005F 
         00034f 0073 
         000350 0065 
         000351 006E 
         000352 0064 
         000353 004F 
         000354 0070 
         000355 0043 
         000356 006F 
         000357 006E 
         000358 0064 
         000359 0020 
         00035a 0046 
         00035b 0061 
         00035c 0069 
         00035d 006C 
         00035e 0065 
         00035f 0064 
         000360 000A 
         000361 0000 
    3943                      .align  2
    3944 000362 0041  $C$FSL28:       .string "API: SD_sendAllCID Failed",10,0
         000363 0050 
         000364 0049 
         000365 003A 
         000366 0020 
         000367 0053 
         000368 0044 
         000369 005F 
         00036a 0073 
         00036b 0065 
         00036c 006E 
         00036d 0064 
         00036e 0041 
         00036f 006C 
         000370 006C 
TMS320C55x Assembler PC v4.4.1 Sat Sep 29 23:09:00 2018

Tools Copyright (c) 1996-2012 Texas Instruments Incorporated
csl_mmcsd_dma_example.asm                                            PAGE  107

         000371 0043 
         000372 0049 
         000373 0044 
         000374 0020 
         000375 0046 
         000376 0061 
         000377 0069 
         000378 006C 
         000379 0065 
         00037a 0064 
         00037b 000A 
         00037c 0000 
    3945                      .align  2
    3946 00037e 0041  $C$FSL29:       .string "API: SD_sendRca Failed",10,0
         00037f 0050 
         000380 0049 
         000381 003A 
         000382 0020 
         000383 0053 
         000384 0044 
         000385 005F 
         000386 0073 
         000387 0065 
         000388 006E 
         000389 0064 
         00038a 0052 
         00038b 0063 
         00038c 0061 
         00038d 0020 
         00038e 0046 
         00038f 0061 
         000390 0069 
         000391 006C 
         000392 0065 
         000393 0064 
         000394 000A 
         000395 0000 
    3947                      .align  2
    3948 000396 0041  $C$FSL30:       .string "API: SD_getCardCsd Failed",10,0
         000397 0050 
         000398 0049 
         000399 003A 
         00039a 0020 
         00039b 0053 
         00039c 0044 
         00039d 005F 
         00039e 0067 
         00039f 0065 
         0003a0 0074 
         0003a1 0043 
         0003a2 0061 
         0003a3 0072 
         0003a4 0064 
         0003a5 0043 
         0003a6 0073 
TMS320C55x Assembler PC v4.4.1 Sat Sep 29 23:09:00 2018

Tools Copyright (c) 1996-2012 Texas Instruments Incorporated
csl_mmcsd_dma_example.asm                                            PAGE  108

         0003a7 0064 
         0003a8 0020 
         0003a9 0046 
         0003aa 0061 
         0003ab 0069 
         0003ac 006C 
         0003ad 0065 
         0003ae 0064 
         0003af 000A 
         0003b0 0000 
    3949                      .align  2
    3950 0003b2 004E  $C$FSL31:       .string "NO Card Detected!",10,0
         0003b3 004F 
         0003b4 0020 
         0003b5 0043 
         0003b6 0061 
         0003b7 0072 
         0003b8 0064 
         0003b9 0020 
         0003ba 0044 
         0003bb 0065 
         0003bc 0074 
         0003bd 0065 
         0003be 0063 
         0003bf 0074 
         0003c0 0065 
         0003c1 0064 
         0003c2 0021 
         0003c3 000A 
         0003c4 0000 
    3951                      .align  2
    3952 0003c6 0049  $C$FSL32:       .string "Insert MMC/SD Card!",10,0
         0003c7 006E 
         0003c8 0073 
         0003c9 0065 
         0003ca 0072 
         0003cb 0074 
         0003cc 0020 
         0003cd 004D 
         0003ce 004D 
         0003cf 0043 
         0003d0 002F 
         0003d1 0053 
         0003d2 0044 
         0003d3 0020 
         0003d4 0043 
         0003d5 0061 
         0003d6 0072 
         0003d7 0064 
         0003d8 0021 
         0003d9 000A 
         0003da 0000 
    3953                      .align  2
    3954 0003dc 0041  $C$FSL33:       .string "API: MMC_setCardType Failed",10,0
         0003dd 0050 
TMS320C55x Assembler PC v4.4.1 Sat Sep 29 23:09:00 2018

Tools Copyright (c) 1996-2012 Texas Instruments Incorporated
csl_mmcsd_dma_example.asm                                            PAGE  109

         0003de 0049 
         0003df 003A 
         0003e0 0020 
         0003e1 004D 
         0003e2 004D 
         0003e3 0043 
         0003e4 005F 
         0003e5 0073 
         0003e6 0065 
         0003e7 0074 
         0003e8 0043 
         0003e9 0061 
         0003ea 0072 
         0003eb 0064 
         0003ec 0054 
         0003ed 0079 
         0003ee 0070 
         0003ef 0065 
         0003f0 0020 
         0003f1 0046 
         0003f2 0061 
         0003f3 0069 
         0003f4 006C 
         0003f5 0065 
         0003f6 0064 
         0003f7 000A 
         0003f8 0000 
    3955                      .align  2
    3956 0003fa 0041  $C$FSL34:       .string "API: MMC_setCardPtr Failed",10,0
         0003fb 0050 
         0003fc 0049 
         0003fd 003A 
         0003fe 0020 
         0003ff 004D 
         000400 004D 
         000401 0043 
         000402 005F 
         000403 0073 
         000404 0065 
         000405 0074 
         000406 0043 
         000407 0061 
         000408 0072 
         000409 0064 
         00040a 0050 
         00040b 0074 
         00040c 0072 
         00040d 0020 
         00040e 0046 
         00040f 0061 
         000410 0069 
         000411 006C 
         000412 0065 
         000413 0064 
         000414 000A 
TMS320C55x Assembler PC v4.4.1 Sat Sep 29 23:09:00 2018

Tools Copyright (c) 1996-2012 Texas Instruments Incorporated
csl_mmcsd_dma_example.asm                                            PAGE  110

         000415 0000 
    3957                      .align  2
    3958 000416 0041  $C$FSL35:       .string "API: MMC_getNumberOfCards Failed",10,0
         000417 0050 
         000418 0049 
         000419 003A 
         00041a 0020 
         00041b 004D 
         00041c 004D 
         00041d 0043 
         00041e 005F 
         00041f 0067 
         000420 0065 
         000421 0074 
         000422 004E 
         000423 0075 
         000424 006D 
         000425 0062 
         000426 0065 
         000427 0072 
         000428 004F 
         000429 0066 
         00042a 0043 
         00042b 0061 
         00042c 0072 
         00042d 0064 
         00042e 0073 
         00042f 0020 
         000430 0046 
         000431 0061 
         000432 0069 
         000433 006C 
         000434 0065 
         000435 0064 
         000436 000A 
         000437 0000 
    3959                      .align  2
    3960 000438 0041  $C$FSL36:       .string "API: MMC_setEndianMode Failed",10,0
         000439 0050 
         00043a 0049 
         00043b 003A 
         00043c 0020 
         00043d 004D 
         00043e 004D 
         00043f 0043 
         000440 005F 
         000441 0073 
         000442 0065 
         000443 0074 
         000444 0045 
         000445 006E 
         000446 0064 
         000447 0069 
         000448 0061 
         000449 006E 
TMS320C55x Assembler PC v4.4.1 Sat Sep 29 23:09:00 2018

Tools Copyright (c) 1996-2012 Texas Instruments Incorporated
csl_mmcsd_dma_example.asm                                            PAGE  111

         00044a 004D 
         00044b 006F 
         00044c 0064 
         00044d 0065 
         00044e 0020 
         00044f 0046 
         000450 0061 
         000451 0069 
         000452 006C 
         000453 0065 
         000454 0064 
         000455 000A 
         000456 0000 
    3961                      .align  2
    3962 000458 0041  $C$FSL37:       .string "API: MMC_setBlockLength Failed",10,0
         000459 0050 
         00045a 0049 
         00045b 003A 
         00045c 0020 
         00045d 004D 
         00045e 004D 
         00045f 0043 
         000460 005F 
         000461 0073 
         000462 0065 
         000463 0074 
         000464 0042 
         000465 006C 
         000466 006F 
         000467 0063 
         000468 006B 
         000469 004C 
         00046a 0065 
         00046b 006E 
         00046c 0067 
         00046d 0074 
         00046e 0068 
         00046f 0020 
         000470 0046 
         000471 0061 
         000472 0069 
         000473 006C 
         000474 0065 
         000475 0064 
         000476 000A 
         000477 0000 
    3963                      .align  2
    3964 000478 0041  $C$FSL38:       .string "API: MMC_write Failed",10,0
         000479 0050 
         00047a 0049 
         00047b 003A 
         00047c 0020 
         00047d 004D 
         00047e 004D 
         00047f 0043 
TMS320C55x Assembler PC v4.4.1 Sat Sep 29 23:09:00 2018

Tools Copyright (c) 1996-2012 Texas Instruments Incorporated
csl_mmcsd_dma_example.asm                                            PAGE  112

         000480 005F 
         000481 0077 
         000482 0072 
         000483 0069 
         000484 0074 
         000485 0065 
         000486 0020 
         000487 0046 
         000488 0061 
         000489 0069 
         00048a 006C 
         00048b 0065 
         00048c 0064 
         00048d 000A 
         00048e 0000 
    3965                      .align  2
    3966 000490 0041  $C$FSL39:       .string "API: MMC_write Successful",10,10,0
         000491 0050 
         000492 0049 
         000493 003A 
         000494 0020 
         000495 004D 
         000496 004D 
         000497 0043 
         000498 005F 
         000499 0077 
         00049a 0072 
         00049b 0069 
         00049c 0074 
         00049d 0065 
         00049e 0020 
         00049f 0053 
         0004a0 0075 
         0004a1 0063 
         0004a2 0063 
         0004a3 0065 
         0004a4 0073 
         0004a5 0073 
         0004a6 0066 
         0004a7 0075 
         0004a8 006C 
         0004a9 000A 
         0004aa 000A 
         0004ab 0000 
    3967                      .align  2
    3968 0004ac 0041  $C$FSL40:       .string "API: MMC_read Failed",10,0
         0004ad 0050 
         0004ae 0049 
         0004af 003A 
         0004b0 0020 
         0004b1 004D 
         0004b2 004D 
         0004b3 0043 
         0004b4 005F 
         0004b5 0072 
TMS320C55x Assembler PC v4.4.1 Sat Sep 29 23:09:00 2018

Tools Copyright (c) 1996-2012 Texas Instruments Incorporated
csl_mmcsd_dma_example.asm                                            PAGE  113

         0004b6 0065 
         0004b7 0061 
         0004b8 0064 
         0004b9 0020 
         0004ba 0046 
         0004bb 0061 
         0004bc 0069 
         0004bd 006C 
         0004be 0065 
         0004bf 0064 
         0004c0 000A 
         0004c1 0000 
    3969                      .align  2
    3970 0004c2 0041  $C$FSL41:       .string "API: MMC_read Successful",10,10,0
         0004c3 0050 
         0004c4 0049 
         0004c5 003A 
         0004c6 0020 
         0004c7 004D 
         0004c8 004D 
         0004c9 0043 
         0004ca 005F 
         0004cb 0072 
         0004cc 0065 
         0004cd 0061 
         0004ce 0064 
         0004cf 0020 
         0004d0 0053 
         0004d1 0075 
         0004d2 0063 
         0004d3 0063 
         0004d4 0065 
         0004d5 0073 
         0004d6 0073 
         0004d7 0066 
         0004d8 0075 
         0004d9 006C 
         0004da 000A 
         0004db 000A 
         0004dc 0000 
    3971                      .align  2
    3972 0004de 0041  $C$FSL42:       .string "API: MMC_close Failed",10,0
         0004df 0050 
         0004e0 0049 
         0004e1 003A 
         0004e2 0020 
         0004e3 004D 
         0004e4 004D 
         0004e5 0043 
         0004e6 005F 
         0004e7 0063 
         0004e8 006C 
         0004e9 006F 
         0004ea 0073 
         0004eb 0065 
TMS320C55x Assembler PC v4.4.1 Sat Sep 29 23:09:00 2018

Tools Copyright (c) 1996-2012 Texas Instruments Incorporated
csl_mmcsd_dma_example.asm                                            PAGE  114

         0004ec 0020 
         0004ed 0046 
         0004ee 0061 
         0004ef 0069 
         0004f0 006C 
         0004f1 0065 
         0004f2 0064 
         0004f3 000A 
         0004f4 0000 
    3973                      .align  2
    3974 0004f6 0042  $C$FSL43:       .string "Buffer Miss Matched at Position %d",10,0
         0004f7 0075 
         0004f8 0066 
         0004f9 0066 
         0004fa 0065 
         0004fb 0072 
         0004fc 0020 
         0004fd 004D 
         0004fe 0069 
         0004ff 0073 
         000500 0073 
         000501 0020 
         000502 004D 
         000503 0061 
         000504 0074 
         000505 0063 
         000506 0068 
         000507 0065 
         000508 0064 
         000509 0020 
         00050a 0061 
         00050b 0074 
         00050c 0020 
         00050d 0050 
         00050e 006F 
         00050f 0073 
         000510 0069 
         000511 0074 
         000512 0069 
         000513 006F 
         000514 006E 
         000515 0020 
         000516 0025 
         000517 0064 
         000518 000A 
         000519 0000 
    3975                      .align  2
    3976 00051a 0052  $C$FSL44:       .string "Read & Write Buffer Matched",10,0
         00051b 0065 
         00051c 0061 
         00051d 0064 
         00051e 0020 
         00051f 0026 
         000520 0020 
         000521 0057 
TMS320C55x Assembler PC v4.4.1 Sat Sep 29 23:09:00 2018

Tools Copyright (c) 1996-2012 Texas Instruments Incorporated
csl_mmcsd_dma_example.asm                                            PAGE  115

         000522 0072 
         000523 0069 
         000524 0074 
         000525 0065 
         000526 0020 
         000527 0042 
         000528 0075 
         000529 0066 
         00052a 0066 
         00052b 0065 
         00052c 0072 
         00052d 0020 
         00052e 004D 
         00052f 0061 
         000530 0074 
         000531 0063 
         000532 0068 
         000533 0065 
         000534 0064 
         000535 000A 
         000536 0000 
    3977                      .align  2
    3978 000538 0044  $C$FSL45:       .string "DMA_open for MMCSD Read Failed!",10,0
         000539 004D 
         00053a 0041 
         00053b 005F 
         00053c 006F 
         00053d 0070 
         00053e 0065 
         00053f 006E 
         000540 0020 
         000541 0066 
         000542 006F 
         000543 0072 
         000544 0020 
         000545 004D 
         000546 004D 
         000547 0043 
         000548 0053 
         000549 0044 
         00054a 0020 
         00054b 0052 
         00054c 0065 
         00054d 0061 
         00054e 0064 
         00054f 0020 
         000550 0046 
         000551 0061 
         000552 0069 
         000553 006C 
         000554 0065 
         000555 0064 
         000556 0021 
         000557 000A 
         000558 0000 
TMS320C55x Assembler PC v4.4.1 Sat Sep 29 23:09:00 2018

Tools Copyright (c) 1996-2012 Texas Instruments Incorporated
csl_mmcsd_dma_example.asm                                            PAGE  116

    3979                      .align  2
    3980 00055a 0041  $C$FSL46:       .string "API: MMC_setDmaHandle Failed",10,0
         00055b 0050 
         00055c 0049 
         00055d 003A 
         00055e 0020 
         00055f 004D 
         000560 004D 
         000561 0043 
         000562 005F 
         000563 0073 
         000564 0065 
         000565 0074 
         000566 0044 
         000567 006D 
         000568 0061 
         000569 0048 
         00056a 0061 
         00056b 006E 
         00056c 0064 
         00056d 006C 
         00056e 0065 
         00056f 0020 
         000570 0046 
         000571 0061 
         000572 0069 
         000573 006C 
         000574 0065 
         000575 0064 
         000576 000A 
         000577 0000 
    3981                      .align  2
    3982 000578 0041  $C$FSL47:       .string "API: MMC_setDataTransferCallback Failed",10,0
         000579 0050 
         00057a 0049 
         00057b 003A 
         00057c 0020 
         00057d 004D 
         00057e 004D 
         00057f 0043 
         000580 005F 
         000581 0073 
         000582 0065 
         000583 0074 
         000584 0044 
         000585 0061 
         000586 0074 
         000587 0061 
         000588 0054 
         000589 0072 
         00058a 0061 
         00058b 006E 
         00058c 0073 
         00058d 0066 
         00058e 0065 
TMS320C55x Assembler PC v4.4.1 Sat Sep 29 23:09:00 2018

Tools Copyright (c) 1996-2012 Texas Instruments Incorporated
csl_mmcsd_dma_example.asm                                            PAGE  117

         00058f 0072 
         000590 0043 
         000591 0061 
         000592 006C 
         000593 006C 
         000594 0062 
         000595 0061 
         000596 0063 
         000597 006B 
         000598 0020 
         000599 0046 
         00059a 0061 
         00059b 0069 
         00059c 006C 
         00059d 0065 
         00059e 0064 
         00059f 000A 
         0005a0 0000 
    3983                      .align  2
    3984 0005a2 0041  $C$FSL48:       .string "API: MMC_setDmaChanConfig for Write Failed",10,0
         0005a3 0050 
         0005a4 0049 
         0005a5 003A 
         0005a6 0020 
         0005a7 004D 
         0005a8 004D 
         0005a9 0043 
         0005aa 005F 
         0005ab 0073 
         0005ac 0065 
         0005ad 0074 
         0005ae 0044 
         0005af 006D 
         0005b0 0061 
         0005b1 0043 
         0005b2 0068 
         0005b3 0061 
         0005b4 006E 
         0005b5 0043 
         0005b6 006F 
         0005b7 006E 
         0005b8 0066 
         0005b9 0069 
         0005ba 0067 
         0005bb 0020 
         0005bc 0066 
         0005bd 006F 
         0005be 0072 
         0005bf 0020 
         0005c0 0057 
         0005c1 0072 
         0005c2 0069 
         0005c3 0074 
         0005c4 0065 
         0005c5 0020 
TMS320C55x Assembler PC v4.4.1 Sat Sep 29 23:09:00 2018

Tools Copyright (c) 1996-2012 Texas Instruments Incorporated
csl_mmcsd_dma_example.asm                                            PAGE  118

         0005c6 0046 
         0005c7 0061 
         0005c8 0069 
         0005c9 006C 
         0005ca 0065 
         0005cb 0064 
         0005cc 000A 
         0005cd 0000 
    3985                      .align  2
    3986 0005ce 0041  $C$FSL49:       .string "API: MMC_setDmaChanConfig for Read Failed",10,0
         0005cf 0050 
         0005d0 0049 
         0005d1 003A 
         0005d2 0020 
         0005d3 004D 
         0005d4 004D 
         0005d5 0043 
         0005d6 005F 
         0005d7 0073 
         0005d8 0065 
         0005d9 0074 
         0005da 0044 
         0005db 006D 
         0005dc 0061 
         0005dd 0043 
         0005de 0068 
         0005df 0061 
         0005e0 006E 
         0005e1 0043 
         0005e2 006F 
         0005e3 006E 
         0005e4 0066 
         0005e5 0069 
         0005e6 0067 
         0005e7 0020 
         0005e8 0066 
         0005e9 006F 
         0005ea 0072 
         0005eb 0020 
         0005ec 0052 
         0005ed 0065 
         0005ee 0061 
         0005ef 0064 
         0005f0 0020 
         0005f1 0046 
         0005f2 0061 
         0005f3 0069 
         0005f4 006C 
         0005f5 0065 
         0005f6 0064 
         0005f7 000A 
         0005f8 0000 
    3987                      .align  2
    3988 0005fa 0041  $C$FSL50:       .string "API: MMC_setWriteBlkEraseCnt Failed",10,0
         0005fb 0050 
TMS320C55x Assembler PC v4.4.1 Sat Sep 29 23:09:00 2018

Tools Copyright (c) 1996-2012 Texas Instruments Incorporated
csl_mmcsd_dma_example.asm                                            PAGE  119

         0005fc 0049 
         0005fd 003A 
         0005fe 0020 
         0005ff 004D 
         000600 004D 
         000601 0043 
         000602 005F 
         000603 0073 
         000604 0065 
         000605 0074 
         000606 0057 
         000607 0072 
         000608 0069 
         000609 0074 
         00060a 0065 
         00060b 0042 
         00060c 006C 
         00060d 006B 
         00060e 0045 
         00060f 0072 
         000610 0061 
         000611 0073 
         000612 0065 
         000613 0043 
         000614 006E 
         000615 0074 
         000616 0020 
         000617 0046 
         000618 0061 
         000619 0069 
         00061a 006C 
         00061b 0065 
         00061c 0064 
         00061d 000A 
         00061e 0000 
    3989                      .align  2
    3990 000620 004D  $C$FSL51:       .string "MMCSD-Transfer Done Callback Function",10,0
         000621 004D 
         000622 0043 
         000623 0053 
         000624 0044 
         000625 002D 
         000626 0054 
         000627 0072 
         000628 0061 
         000629 006E 
         00062a 0073 
         00062b 0066 
         00062c 0065 
         00062d 0072 
         00062e 0020 
         00062f 0044 
         000630 006F 
         000631 006E 
         000632 0065 
TMS320C55x Assembler PC v4.4.1 Sat Sep 29 23:09:00 2018

Tools Copyright (c) 1996-2012 Texas Instruments Incorporated
csl_mmcsd_dma_example.asm                                            PAGE  120

         000633 0020 
         000634 0043 
         000635 0061 
         000636 006C 
         000637 006C 
         000638 0062 
         000639 0061 
         00063a 0063 
         00063b 006B 
         00063c 0020 
         00063d 0046 
         00063e 0075 
         00063f 006E 
         000640 0063 
         000641 0074 
         000642 0069 
         000643 006F 
         000644 006E 
         000645 000A 
         000646 0000 
    3991                      .align  2
    3992 000648 004D  $C$FSL52:       .string "MMCSD Data Transfer Complete",10,0
         000649 004D 
         00064a 0043 
         00064b 0053 
         00064c 0044 
         00064d 0020 
         00064e 0044 
         00064f 0061 
         000650 0074 
         000651 0061 
         000652 0020 
         000653 0054 
         000654 0072 
         000655 0061 
         000656 006E 
         000657 0073 
         000658 0066 
         000659 0065 
         00065a 0072 
         00065b 0020 
         00065c 0043 
         00065d 006F 
         00065e 006D 
         00065f 0070 
         000660 006C 
         000661 0065 
         000662 0074 
         000663 0065 
         000664 000A 
         000665 0000 
    3993              ;******************************************************************************
    3994              ;* UNDEFINED EXTERNAL REFERENCES                                              *
    3995              ;******************************************************************************
    3996                      .global _DMA_init
TMS320C55x Assembler PC v4.4.1 Sat Sep 29 23:09:00 2018

Tools Copyright (c) 1996-2012 Texas Instruments Incorporated
csl_mmcsd_dma_example.asm                                            PAGE  121

    3997                      .global _DMA_open
    3998                      .global _MMC_init
    3999                      .global _MMC_open
    4000                      .global _MMC_close
    4001                      .global _MMC_setCardType
    4002                      .global _MMC_setCardPtr
    4003                      .global _MMC_getNumberOfCards
    4004                      .global _MMC_intEnable
    4005                      .global _MMC_sendGoIdle
    4006                      .global _MMC_selectCard
    4007                      .global _MMC_sendOpCond
    4008                      .global _MMC_setRca
    4009                      .global _SD_sendRca
    4010                      .global _MMC_sendAllCID
    4011                      .global _SD_sendAllCID
    4012                      .global _MMC_getCardCsd
    4013                      .global _SD_getCardCsd
    4014                      .global _MMC_read
    4015                      .global _MMC_write
    4016                      .global _MMC_setDmaHandle
    4017                      .global _MMC_setDataTransferCallback
    4018                      .global _MMC_setDmaChanConfig
    4019                      .global _MMC_setEndianMode
    4020                      .global _MMC_setBlockLength
    4021                      .global _MMC_setWriteBlkEraseCnt
    4022                      .global _IRQ_plug
    4023                      .global _IRQ_clear
    4024                      .global _IRQ_clearAll
    4025                      .global _IRQ_disableAll
    4026                      .global _IRQ_enable
    4027                      .global _IRQ_setVecs
    4028                      .global _IRQ_globalDisable
    4029                      .global _IRQ_globalEnable
    4030                      .global _printf
    4031                      .global _VECSTART
    4032                      .global __divul
    4033                      .global __remul
    4034                      .global __mpyli
    4035              
    4036              ;*******************************************************************************
    4037              ;* TYPE INFORMATION                                                            *
    4038              ;*******************************************************************************
    4039              
    4040              $C$DW$T$27      .dwtag  DW_TAG_enumeration_type
    4041                      .dwattr $C$DW$T$27, DW_AT_byte_size(0x01)
    4042              $C$DW$341       .dwtag  DW_TAG_enumerator, DW_AT_name("CSL_DMA_CHAN0"), DW_AT_const_value(0x00)
    4043              $C$DW$342       .dwtag  DW_TAG_enumerator, DW_AT_name("CSL_DMA_CHAN1"), DW_AT_const_value(0x01)
    4044              $C$DW$343       .dwtag  DW_TAG_enumerator, DW_AT_name("CSL_DMA_CHAN2"), DW_AT_const_value(0x02)
    4045              $C$DW$344       .dwtag  DW_TAG_enumerator, DW_AT_name("CSL_DMA_CHAN3"), DW_AT_const_value(0x03)
    4046              $C$DW$345       .dwtag  DW_TAG_enumerator, DW_AT_name("CSL_DMA_CHAN4"), DW_AT_const_value(0x04)
    4047              $C$DW$346       .dwtag  DW_TAG_enumerator, DW_AT_name("CSL_DMA_CHAN5"), DW_AT_const_value(0x05)
    4048              $C$DW$347       .dwtag  DW_TAG_enumerator, DW_AT_name("CSL_DMA_CHAN6"), DW_AT_const_value(0x06)
    4049              $C$DW$348       .dwtag  DW_TAG_enumerator, DW_AT_name("CSL_DMA_CHAN7"), DW_AT_const_value(0x07)
    4050              $C$DW$349       .dwtag  DW_TAG_enumerator, DW_AT_name("CSL_DMA_CHAN8"), DW_AT_const_value(0x08)
    4051              $C$DW$350       .dwtag  DW_TAG_enumerator, DW_AT_name("CSL_DMA_CHAN9"), DW_AT_const_value(0x09)
TMS320C55x Assembler PC v4.4.1 Sat Sep 29 23:09:00 2018

Tools Copyright (c) 1996-2012 Texas Instruments Incorporated
csl_mmcsd_dma_example.asm                                            PAGE  122

    4052              $C$DW$351       .dwtag  DW_TAG_enumerator, DW_AT_name("CSL_DMA_CHAN10"), DW_AT_const_value(0x0a)
    4053              $C$DW$352       .dwtag  DW_TAG_enumerator, DW_AT_name("CSL_DMA_CHAN11"), DW_AT_const_value(0x0b)
    4054              $C$DW$353       .dwtag  DW_TAG_enumerator, DW_AT_name("CSL_DMA_CHAN12"), DW_AT_const_value(0x0c)
    4055              $C$DW$354       .dwtag  DW_TAG_enumerator, DW_AT_name("CSL_DMA_CHAN13"), DW_AT_const_value(0x0d)
    4056              $C$DW$355       .dwtag  DW_TAG_enumerator, DW_AT_name("CSL_DMA_CHAN14"), DW_AT_const_value(0x0e)
    4057              $C$DW$356       .dwtag  DW_TAG_enumerator, DW_AT_name("CSL_DMA_CHAN15"), DW_AT_const_value(0x0f)
    4058              $C$DW$357       .dwtag  DW_TAG_enumerator, DW_AT_name("CSL_DMA_CHAN_INV"), DW_AT_const_value(0x10)
    4059                      .dwendtag $C$DW$T$27
    4060              
    4061              $C$DW$T$28      .dwtag  DW_TAG_typedef, DW_AT_name("CSL_DMAChanNum")
    4062                      .dwattr $C$DW$T$28, DW_AT_type(*$C$DW$T$27)
    4063                      .dwattr $C$DW$T$28, DW_AT_language(DW_LANG_C)
    4064              
    4065              $C$DW$T$29      .dwtag  DW_TAG_enumeration_type
    4066                      .dwattr $C$DW$T$29, DW_AT_byte_size(0x01)
    4067              $C$DW$358       .dwtag  DW_TAG_enumerator, DW_AT_name("CSL_DMA_ENGINE0"), DW_AT_const_value(0x00)
    4068              $C$DW$359       .dwtag  DW_TAG_enumerator, DW_AT_name("CSL_DMA_ENGINE1"), DW_AT_const_value(0x01)
    4069              $C$DW$360       .dwtag  DW_TAG_enumerator, DW_AT_name("CSL_DMA_ENGINE2"), DW_AT_const_value(0x02)
    4070              $C$DW$361       .dwtag  DW_TAG_enumerator, DW_AT_name("CSL_DMA_ENGINE3"), DW_AT_const_value(0x03)
    4071              $C$DW$362       .dwtag  DW_TAG_enumerator, DW_AT_name("CSL_DMA_ENGINEINV"), DW_AT_const_value(0x04)
    4072                      .dwendtag $C$DW$T$29
    4073              
    4074              $C$DW$T$30      .dwtag  DW_TAG_typedef, DW_AT_name("CSL_DMAEngineId")
    4075                      .dwattr $C$DW$T$30, DW_AT_type(*$C$DW$T$29)
    4076                      .dwattr $C$DW$T$30, DW_AT_language(DW_LANG_C)
    4077              
    4078              $C$DW$T$32      .dwtag  DW_TAG_enumeration_type
    4079                      .dwattr $C$DW$T$32, DW_AT_byte_size(0x01)
    4080              $C$DW$363       .dwtag  DW_TAG_enumerator, DW_AT_name("CSL_DMA_READ"), DW_AT_const_value(0x00)
    4081              $C$DW$364       .dwtag  DW_TAG_enumerator, DW_AT_name("CSL_DMA_WRITE"), DW_AT_const_value(0x01)
    4082                      .dwendtag $C$DW$T$32
    4083              
    4084              $C$DW$T$33      .dwtag  DW_TAG_typedef, DW_AT_name("CSL_DMAChanDir")
    4085                      .dwattr $C$DW$T$33, DW_AT_type(*$C$DW$T$32)
    4086                      .dwattr $C$DW$T$33, DW_AT_language(DW_LANG_C)
    4087              
    4088              $C$DW$T$34      .dwtag  DW_TAG_enumeration_type
    4089                      .dwattr $C$DW$T$34, DW_AT_byte_size(0x01)
    4090              $C$DW$365       .dwtag  DW_TAG_enumerator, DW_AT_name("CSL_DMA_SOFTWARE_TRIGGER"), DW_AT_const_value(0x00)
    4091              $C$DW$366       .dwtag  DW_TAG_enumerator, DW_AT_name("CSL_DMA_EVENT_TRIGGER"), DW_AT_const_value(0x01)
    4092                      .dwendtag $C$DW$T$34
    4093              
    4094              $C$DW$T$35      .dwtag  DW_TAG_typedef, DW_AT_name("CSL_DMATriggerType")
    4095                      .dwattr $C$DW$T$35, DW_AT_type(*$C$DW$T$34)
    4096                      .dwattr $C$DW$T$35, DW_AT_language(DW_LANG_C)
    4097              
    4098              $C$DW$T$36      .dwtag  DW_TAG_enumeration_type
    4099                      .dwattr $C$DW$T$36, DW_AT_byte_size(0x01)
    4100              $C$DW$367       .dwtag  DW_TAG_enumerator, DW_AT_name("CSL_DMA_TRANSFER_IO_MEMORY"), DW_AT_const_value(0x00)
    4101              $C$DW$368       .dwtag  DW_TAG_enumerator, DW_AT_name("CSL_DMA_TRANSFER_MEMORY"), DW_AT_const_value(0x01)
    4102                      .dwendtag $C$DW$T$36
    4103              
    4104              $C$DW$T$37      .dwtag  DW_TAG_typedef, DW_AT_name("CSL_DMATransferType")
    4105                      .dwattr $C$DW$T$37, DW_AT_type(*$C$DW$T$36)
    4106                      .dwattr $C$DW$T$37, DW_AT_language(DW_LANG_C)
TMS320C55x Assembler PC v4.4.1 Sat Sep 29 23:09:00 2018

Tools Copyright (c) 1996-2012 Texas Instruments Incorporated
csl_mmcsd_dma_example.asm                                            PAGE  123

    4107              
    4108              $C$DW$T$38      .dwtag  DW_TAG_enumeration_type
    4109                      .dwattr $C$DW$T$38, DW_AT_byte_size(0x01)
    4110              $C$DW$369       .dwtag  DW_TAG_enumerator, DW_AT_name("CSL_DMA_INTERRUPT_DISABLE"), DW_AT_const_value(0x00)
    4111              $C$DW$370       .dwtag  DW_TAG_enumerator, DW_AT_name("CSL_DMA_INTERRUPT_ENABLE"), DW_AT_const_value(0x01)
    4112                      .dwendtag $C$DW$T$38
    4113              
    4114              $C$DW$T$39      .dwtag  DW_TAG_typedef, DW_AT_name("CSL_DMAInterruptState")
    4115                      .dwattr $C$DW$T$39, DW_AT_type(*$C$DW$T$38)
    4116                      .dwattr $C$DW$T$39, DW_AT_language(DW_LANG_C)
    4117              
    4118              $C$DW$T$52      .dwtag  DW_TAG_enumeration_type
    4119                      .dwattr $C$DW$T$52, DW_AT_byte_size(0x01)
    4120              $C$DW$371       .dwtag  DW_TAG_enumerator, DW_AT_name("CSL_CARD_NONE"), DW_AT_const_value(0x00)
    4121              $C$DW$372       .dwtag  DW_TAG_enumerator, DW_AT_name("CSL_SD_CARD"), DW_AT_const_value(0x01)
    4122              $C$DW$373       .dwtag  DW_TAG_enumerator, DW_AT_name("CSL_MMC_CARD"), DW_AT_const_value(0x02)
    4123                      .dwendtag $C$DW$T$52
    4124              
    4125              $C$DW$T$53      .dwtag  DW_TAG_typedef, DW_AT_name("CSL_CardType")
    4126                      .dwattr $C$DW$T$53, DW_AT_type(*$C$DW$T$52)
    4127                      .dwattr $C$DW$T$53, DW_AT_language(DW_LANG_C)
    4128              
    4129              $C$DW$T$66      .dwtag  DW_TAG_enumeration_type
    4130                      .dwattr $C$DW$T$66, DW_AT_byte_size(0x01)
    4131              $C$DW$374       .dwtag  DW_TAG_enumerator, DW_AT_name("CSL_DMA_PING_PONG_DISABLE"), DW_AT_const_value(0x00)
    4132              $C$DW$375       .dwtag  DW_TAG_enumerator, DW_AT_name("CSL_DMA_PING_PONG_ENABLE"), DW_AT_const_value(0x01)
    4133                      .dwendtag $C$DW$T$66
    4134              
    4135              $C$DW$T$67      .dwtag  DW_TAG_typedef, DW_AT_name("CSL_DMAPingPongMode")
    4136                      .dwattr $C$DW$T$67, DW_AT_type(*$C$DW$T$66)
    4137                      .dwattr $C$DW$T$67, DW_AT_language(DW_LANG_C)
    4138              
    4139              $C$DW$T$68      .dwtag  DW_TAG_enumeration_type
    4140                      .dwattr $C$DW$T$68, DW_AT_byte_size(0x01)
    4141              $C$DW$376       .dwtag  DW_TAG_enumerator, DW_AT_name("CSL_DMA_AUTORELOAD_DISABLE"), DW_AT_const_value(0x00)
    4142              $C$DW$377       .dwtag  DW_TAG_enumerator, DW_AT_name("CSL_DMA_AUTORELOAD_ENABLE"), DW_AT_const_value(0x01)
    4143                      .dwendtag $C$DW$T$68
    4144              
    4145              $C$DW$T$69      .dwtag  DW_TAG_typedef, DW_AT_name("CSL_DMAAutoReloadMode")
    4146                      .dwattr $C$DW$T$69, DW_AT_type(*$C$DW$T$68)
    4147                      .dwattr $C$DW$T$69, DW_AT_language(DW_LANG_C)
    4148              
    4149              $C$DW$T$70      .dwtag  DW_TAG_enumeration_type
    4150                      .dwattr $C$DW$T$70, DW_AT_byte_size(0x01)
    4151              $C$DW$378       .dwtag  DW_TAG_enumerator, DW_AT_name("CSL_DMA_TXBURST_1WORD"), DW_AT_const_value(0x00)
    4152              $C$DW$379       .dwtag  DW_TAG_enumerator, DW_AT_name("CSL_DMA_TXBURST_2WORD"), DW_AT_const_value(0x01)
    4153              $C$DW$380       .dwtag  DW_TAG_enumerator, DW_AT_name("CSL_DMA_TXBURST_4WORD"), DW_AT_const_value(0x02)
    4154              $C$DW$381       .dwtag  DW_TAG_enumerator, DW_AT_name("CSL_DMA_TXBURST_8WORD"), DW_AT_const_value(0x03)
    4155              $C$DW$382       .dwtag  DW_TAG_enumerator, DW_AT_name("CSL_DMA_TXBURST_16WORD"), DW_AT_const_value(0x04)
    4156                      .dwendtag $C$DW$T$70
    4157              
    4158              $C$DW$T$71      .dwtag  DW_TAG_typedef, DW_AT_name("CSL_DMATxBurstLen")
    4159                      .dwattr $C$DW$T$71, DW_AT_type(*$C$DW$T$70)
    4160                      .dwattr $C$DW$T$71, DW_AT_language(DW_LANG_C)
    4161              
TMS320C55x Assembler PC v4.4.1 Sat Sep 29 23:09:00 2018

Tools Copyright (c) 1996-2012 Texas Instruments Incorporated
csl_mmcsd_dma_example.asm                                            PAGE  124

    4162              $C$DW$T$72      .dwtag  DW_TAG_enumeration_type
    4163                      .dwattr $C$DW$T$72, DW_AT_byte_size(0x01)
    4164              $C$DW$383       .dwtag  DW_TAG_enumerator, DW_AT_name("CSL_DMA_EVT_NONE"), DW_AT_const_value(0x00)
    4165              $C$DW$384       .dwtag  DW_TAG_enumerator, DW_AT_name("CSL_DMA_EVT_I2S0_TX"), DW_AT_const_value(0x01)
    4166              $C$DW$385       .dwtag  DW_TAG_enumerator, DW_AT_name("CSL_DMA_EVT_I2S0_RX"), DW_AT_const_value(0x02)
    4167              $C$DW$386       .dwtag  DW_TAG_enumerator, DW_AT_name("CSL_DMA_EVT_I2S1_TX"), DW_AT_const_value(0x01)
    4168              $C$DW$387       .dwtag  DW_TAG_enumerator, DW_AT_name("CSL_DMA_EVT_I2S1_RX"), DW_AT_const_value(0x02)
    4169              $C$DW$388       .dwtag  DW_TAG_enumerator, DW_AT_name("CSL_DMA_EVT_I2S2_TX"), DW_AT_const_value(0x01)
    4170              $C$DW$389       .dwtag  DW_TAG_enumerator, DW_AT_name("CSL_DMA_EVT_I2S2_RX"), DW_AT_const_value(0x02)
    4171              $C$DW$390       .dwtag  DW_TAG_enumerator, DW_AT_name("CSL_DMA_EVT_I2S3_TX"), DW_AT_const_value(0x04)
    4172              $C$DW$391       .dwtag  DW_TAG_enumerator, DW_AT_name("CSL_DMA_EVT_I2S3_RX"), DW_AT_const_value(0x05)
    4173              $C$DW$392       .dwtag  DW_TAG_enumerator, DW_AT_name("CSL_DMA_EVT_MMC_SD0_TX"), DW_AT_const_value(0x05)
    4174              $C$DW$393       .dwtag  DW_TAG_enumerator, DW_AT_name("CSL_DMA_EVT_MMC_SD0_RX"), DW_AT_const_value(0x06)
    4175              $C$DW$394       .dwtag  DW_TAG_enumerator, DW_AT_name("CSL_DMA_EVT_MMC_SD1_TX"), DW_AT_const_value(0x07)
    4176              $C$DW$395       .dwtag  DW_TAG_enumerator, DW_AT_name("CSL_DMA_EVT_MMC_SD1_RX"), DW_AT_const_value(0x08)
    4177              $C$DW$396       .dwtag  DW_TAG_enumerator, DW_AT_name("CSL_DMA_EVT_TIMER0"), DW_AT_const_value(0x0c)
    4178              $C$DW$397       .dwtag  DW_TAG_enumerator, DW_AT_name("CSL_DMA_EVT_TIMER1"), DW_AT_const_value(0x0d)
    4179              $C$DW$398       .dwtag  DW_TAG_enumerator, DW_AT_name("CSL_DMA_EVT_TIMER2"), DW_AT_const_value(0x0e)
    4180              $C$DW$399       .dwtag  DW_TAG_enumerator, DW_AT_name("CSL_DMA_EVT_UART_TX"), DW_AT_const_value(0x05)
    4181              $C$DW$400       .dwtag  DW_TAG_enumerator, DW_AT_name("CSL_DMA_EVT_UART_RX"), DW_AT_const_value(0x06)
    4182              $C$DW$401       .dwtag  DW_TAG_enumerator, DW_AT_name("CSL_DMA_EVT_I2C_TX"), DW_AT_const_value(0x01)
    4183              $C$DW$402       .dwtag  DW_TAG_enumerator, DW_AT_name("CSL_DMA_EVT_I2C_RX"), DW_AT_const_value(0x02)
    4184              $C$DW$403       .dwtag  DW_TAG_enumerator, DW_AT_name("CSL_DMA_EVT_SAR_AD"), DW_AT_const_value(0x03)
    4185              $C$DW$404       .dwtag  DW_TAG_enumerator, DW_AT_name("CSL_DMA_EVT_INVALID"), DW_AT_const_value(0x04)
    4186                      .dwendtag $C$DW$T$72
    4187              
    4188              $C$DW$T$73      .dwtag  DW_TAG_typedef, DW_AT_name("CSL_DMAEvtType")
    4189                      .dwattr $C$DW$T$73, DW_AT_type(*$C$DW$T$72)
    4190                      .dwattr $C$DW$T$73, DW_AT_language(DW_LANG_C)
    4191              
    4192              $C$DW$T$85      .dwtag  DW_TAG_enumeration_type
    4193                      .dwattr $C$DW$T$85, DW_AT_byte_size(0x01)
    4194              $C$DW$405       .dwtag  DW_TAG_enumerator, DW_AT_name("CSL_MMCSD_OPMODE_POLLED"), DW_AT_const_value(0x00)
    4195              $C$DW$406       .dwtag  DW_TAG_enumerator, DW_AT_name("CSL_MMCSD_OPMODE_INTERRUPT"), DW_AT_const_value(0x01)
    4196              $C$DW$407       .dwtag  DW_TAG_enumerator, DW_AT_name("CSL_MMCSD_OPMODE_DMA"), DW_AT_const_value(0x02)
    4197              $C$DW$408       .dwtag  DW_TAG_enumerator, DW_AT_name("CSL_MMCSD_OPMODE_NONE"), DW_AT_const_value(0x03)
    4198                      .dwendtag $C$DW$T$85
    4199              
    4200              $C$DW$T$86      .dwtag  DW_TAG_typedef, DW_AT_name("CSL_MMCSDOpMode")
    4201                      .dwattr $C$DW$T$86, DW_AT_type(*$C$DW$T$85)
    4202                      .dwattr $C$DW$T$86, DW_AT_language(DW_LANG_C)
    4203              
    4204              $C$DW$T$96      .dwtag  DW_TAG_enumeration_type
    4205                      .dwattr $C$DW$T$96, DW_AT_byte_size(0x01)
    4206              $C$DW$409       .dwtag  DW_TAG_enumerator, DW_AT_name("CSL_MMCSD_ENDIAN_LITTLE"), DW_AT_const_value(0x00)
    4207              $C$DW$410       .dwtag  DW_TAG_enumerator, DW_AT_name("CSL_MMCSD_ENDIAN_BIG"), DW_AT_const_value(0x01)
    4208                      .dwendtag $C$DW$T$96
    4209              
    4210              $C$DW$T$97      .dwtag  DW_TAG_typedef, DW_AT_name("CSL_MmcsdEndianMode")
    4211                      .dwattr $C$DW$T$97, DW_AT_type(*$C$DW$T$96)
    4212                      .dwattr $C$DW$T$97, DW_AT_language(DW_LANG_C)
    4213              
    4214              $C$DW$T$103     .dwtag  DW_TAG_enumeration_type
    4215                      .dwattr $C$DW$T$103, DW_AT_byte_size(0x01)
    4216              $C$DW$411       .dwtag  DW_TAG_enumerator, DW_AT_name("CSL_MMCSD0_INST"), DW_AT_const_value(0x00)
TMS320C55x Assembler PC v4.4.1 Sat Sep 29 23:09:00 2018

Tools Copyright (c) 1996-2012 Texas Instruments Incorporated
csl_mmcsd_dma_example.asm                                            PAGE  125

    4217              $C$DW$412       .dwtag  DW_TAG_enumerator, DW_AT_name("CSL_MMCSD1_INST"), DW_AT_const_value(0x01)
    4218              $C$DW$413       .dwtag  DW_TAG_enumerator, DW_AT_name("CSL_MMCSD_INST_INV"), DW_AT_const_value(0x02)
    4219                      .dwendtag $C$DW$T$103
    4220              
    4221              $C$DW$T$104     .dwtag  DW_TAG_typedef, DW_AT_name("CSL_MmcsdInstId")
    4222                      .dwattr $C$DW$T$104, DW_AT_type(*$C$DW$T$103)
    4223                      .dwattr $C$DW$T$104, DW_AT_language(DW_LANG_C)
    4224              
    4225              $C$DW$T$22      .dwtag  DW_TAG_structure_type
    4226                      .dwattr $C$DW$T$22, DW_AT_byte_size(0x66)
    4227              $C$DW$414       .dwtag  DW_TAG_member
    4228                      .dwattr $C$DW$414, DW_AT_type(*$C$DW$T$20)
    4229                      .dwattr $C$DW$414, DW_AT_name("DMACH0SSAL")
    4230                      .dwattr $C$DW$414, DW_AT_TI_symbol_name("_DMACH0SSAL")
    4231                      .dwattr $C$DW$414, DW_AT_data_member_location[DW_OP_plus_uconst 0x0]
    4232                      .dwattr $C$DW$414, DW_AT_accessibility(DW_ACCESS_public)
    4233              $C$DW$415       .dwtag  DW_TAG_member
    4234                      .dwattr $C$DW$415, DW_AT_type(*$C$DW$T$20)
    4235                      .dwattr $C$DW$415, DW_AT_name("DMACH0SSAU")
    4236                      .dwattr $C$DW$415, DW_AT_TI_symbol_name("_DMACH0SSAU")
    4237                      .dwattr $C$DW$415, DW_AT_data_member_location[DW_OP_plus_uconst 0x1]
    4238                      .dwattr $C$DW$415, DW_AT_accessibility(DW_ACCESS_public)
    4239              $C$DW$416       .dwtag  DW_TAG_member
    4240                      .dwattr $C$DW$416, DW_AT_type(*$C$DW$T$20)
    4241                      .dwattr $C$DW$416, DW_AT_name("DMACH0DSAL")
    4242                      .dwattr $C$DW$416, DW_AT_TI_symbol_name("_DMACH0DSAL")
    4243                      .dwattr $C$DW$416, DW_AT_data_member_location[DW_OP_plus_uconst 0x2]
    4244                      .dwattr $C$DW$416, DW_AT_accessibility(DW_ACCESS_public)
    4245              $C$DW$417       .dwtag  DW_TAG_member
    4246                      .dwattr $C$DW$417, DW_AT_type(*$C$DW$T$20)
    4247                      .dwattr $C$DW$417, DW_AT_name("DMACH0DSAU")
    4248                      .dwattr $C$DW$417, DW_AT_TI_symbol_name("_DMACH0DSAU")
    4249                      .dwattr $C$DW$417, DW_AT_data_member_location[DW_OP_plus_uconst 0x3]
    4250                      .dwattr $C$DW$417, DW_AT_accessibility(DW_ACCESS_public)
    4251              $C$DW$418       .dwtag  DW_TAG_member
    4252                      .dwattr $C$DW$418, DW_AT_type(*$C$DW$T$20)
    4253                      .dwattr $C$DW$418, DW_AT_name("DMACH0TCR1")
    4254                      .dwattr $C$DW$418, DW_AT_TI_symbol_name("_DMACH0TCR1")
    4255                      .dwattr $C$DW$418, DW_AT_data_member_location[DW_OP_plus_uconst 0x4]
    4256                      .dwattr $C$DW$418, DW_AT_accessibility(DW_ACCESS_public)
    4257              $C$DW$419       .dwtag  DW_TAG_member
    4258                      .dwattr $C$DW$419, DW_AT_type(*$C$DW$T$20)
    4259                      .dwattr $C$DW$419, DW_AT_name("DMACH0TCR2")
    4260                      .dwattr $C$DW$419, DW_AT_TI_symbol_name("_DMACH0TCR2")
    4261                      .dwattr $C$DW$419, DW_AT_data_member_location[DW_OP_plus_uconst 0x5]
    4262                      .dwattr $C$DW$419, DW_AT_accessibility(DW_ACCESS_public)
    4263              $C$DW$420       .dwtag  DW_TAG_member
    4264                      .dwattr $C$DW$420, DW_AT_type(*$C$DW$T$21)
    4265                      .dwattr $C$DW$420, DW_AT_name("RSVD0")
    4266                      .dwattr $C$DW$420, DW_AT_TI_symbol_name("_RSVD0")
    4267                      .dwattr $C$DW$420, DW_AT_data_member_location[DW_OP_plus_uconst 0x6]
    4268                      .dwattr $C$DW$420, DW_AT_accessibility(DW_ACCESS_public)
    4269              $C$DW$421       .dwtag  DW_TAG_member
    4270                      .dwattr $C$DW$421, DW_AT_type(*$C$DW$T$20)
    4271                      .dwattr $C$DW$421, DW_AT_name("DMACH1SSAL")
TMS320C55x Assembler PC v4.4.1 Sat Sep 29 23:09:00 2018

Tools Copyright (c) 1996-2012 Texas Instruments Incorporated
csl_mmcsd_dma_example.asm                                            PAGE  126

    4272                      .dwattr $C$DW$421, DW_AT_TI_symbol_name("_DMACH1SSAL")
    4273                      .dwattr $C$DW$421, DW_AT_data_member_location[DW_OP_plus_uconst 0x20]
    4274                      .dwattr $C$DW$421, DW_AT_accessibility(DW_ACCESS_public)
    4275              $C$DW$422       .dwtag  DW_TAG_member
    4276                      .dwattr $C$DW$422, DW_AT_type(*$C$DW$T$20)
    4277                      .dwattr $C$DW$422, DW_AT_name("DMACH1SSAU")
    4278                      .dwattr $C$DW$422, DW_AT_TI_symbol_name("_DMACH1SSAU")
    4279                      .dwattr $C$DW$422, DW_AT_data_member_location[DW_OP_plus_uconst 0x21]
    4280                      .dwattr $C$DW$422, DW_AT_accessibility(DW_ACCESS_public)
    4281              $C$DW$423       .dwtag  DW_TAG_member
    4282                      .dwattr $C$DW$423, DW_AT_type(*$C$DW$T$20)
    4283                      .dwattr $C$DW$423, DW_AT_name("DMACH1DSAL")
    4284                      .dwattr $C$DW$423, DW_AT_TI_symbol_name("_DMACH1DSAL")
    4285                      .dwattr $C$DW$423, DW_AT_data_member_location[DW_OP_plus_uconst 0x22]
    4286                      .dwattr $C$DW$423, DW_AT_accessibility(DW_ACCESS_public)
    4287              $C$DW$424       .dwtag  DW_TAG_member
    4288                      .dwattr $C$DW$424, DW_AT_type(*$C$DW$T$20)
    4289                      .dwattr $C$DW$424, DW_AT_name("DMACH1DSAU")
    4290                      .dwattr $C$DW$424, DW_AT_TI_symbol_name("_DMACH1DSAU")
    4291                      .dwattr $C$DW$424, DW_AT_data_member_location[DW_OP_plus_uconst 0x23]
    4292                      .dwattr $C$DW$424, DW_AT_accessibility(DW_ACCESS_public)
    4293              $C$DW$425       .dwtag  DW_TAG_member
    4294                      .dwattr $C$DW$425, DW_AT_type(*$C$DW$T$20)
    4295                      .dwattr $C$DW$425, DW_AT_name("DMACH1TCR1")
    4296                      .dwattr $C$DW$425, DW_AT_TI_symbol_name("_DMACH1TCR1")
    4297                      .dwattr $C$DW$425, DW_AT_data_member_location[DW_OP_plus_uconst 0x24]
    4298                      .dwattr $C$DW$425, DW_AT_accessibility(DW_ACCESS_public)
    4299              $C$DW$426       .dwtag  DW_TAG_member
    4300                      .dwattr $C$DW$426, DW_AT_type(*$C$DW$T$20)
    4301                      .dwattr $C$DW$426, DW_AT_name("DMACH1TCR2")
    4302                      .dwattr $C$DW$426, DW_AT_TI_symbol_name("_DMACH1TCR2")
    4303                      .dwattr $C$DW$426, DW_AT_data_member_location[DW_OP_plus_uconst 0x25]
    4304                      .dwattr $C$DW$426, DW_AT_accessibility(DW_ACCESS_public)
    4305              $C$DW$427       .dwtag  DW_TAG_member
    4306                      .dwattr $C$DW$427, DW_AT_type(*$C$DW$T$21)
    4307                      .dwattr $C$DW$427, DW_AT_name("RSVD1")
    4308                      .dwattr $C$DW$427, DW_AT_TI_symbol_name("_RSVD1")
    4309                      .dwattr $C$DW$427, DW_AT_data_member_location[DW_OP_plus_uconst 0x26]
    4310                      .dwattr $C$DW$427, DW_AT_accessibility(DW_ACCESS_public)
    4311              $C$DW$428       .dwtag  DW_TAG_member
    4312                      .dwattr $C$DW$428, DW_AT_type(*$C$DW$T$20)
    4313                      .dwattr $C$DW$428, DW_AT_name("DMACH2SSAL")
    4314                      .dwattr $C$DW$428, DW_AT_TI_symbol_name("_DMACH2SSAL")
    4315                      .dwattr $C$DW$428, DW_AT_data_member_location[DW_OP_plus_uconst 0x40]
    4316                      .dwattr $C$DW$428, DW_AT_accessibility(DW_ACCESS_public)
    4317              $C$DW$429       .dwtag  DW_TAG_member
    4318                      .dwattr $C$DW$429, DW_AT_type(*$C$DW$T$20)
    4319                      .dwattr $C$DW$429, DW_AT_name("DMACH2SSAU")
    4320                      .dwattr $C$DW$429, DW_AT_TI_symbol_name("_DMACH2SSAU")
    4321                      .dwattr $C$DW$429, DW_AT_data_member_location[DW_OP_plus_uconst 0x41]
    4322                      .dwattr $C$DW$429, DW_AT_accessibility(DW_ACCESS_public)
    4323              $C$DW$430       .dwtag  DW_TAG_member
    4324                      .dwattr $C$DW$430, DW_AT_type(*$C$DW$T$20)
    4325                      .dwattr $C$DW$430, DW_AT_name("DMACH2DSAL")
    4326                      .dwattr $C$DW$430, DW_AT_TI_symbol_name("_DMACH2DSAL")
TMS320C55x Assembler PC v4.4.1 Sat Sep 29 23:09:00 2018

Tools Copyright (c) 1996-2012 Texas Instruments Incorporated
csl_mmcsd_dma_example.asm                                            PAGE  127

    4327                      .dwattr $C$DW$430, DW_AT_data_member_location[DW_OP_plus_uconst 0x42]
    4328                      .dwattr $C$DW$430, DW_AT_accessibility(DW_ACCESS_public)
    4329              $C$DW$431       .dwtag  DW_TAG_member
    4330                      .dwattr $C$DW$431, DW_AT_type(*$C$DW$T$20)
    4331                      .dwattr $C$DW$431, DW_AT_name("DMACH2DSAU")
    4332                      .dwattr $C$DW$431, DW_AT_TI_symbol_name("_DMACH2DSAU")
    4333                      .dwattr $C$DW$431, DW_AT_data_member_location[DW_OP_plus_uconst 0x43]
    4334                      .dwattr $C$DW$431, DW_AT_accessibility(DW_ACCESS_public)
    4335              $C$DW$432       .dwtag  DW_TAG_member
    4336                      .dwattr $C$DW$432, DW_AT_type(*$C$DW$T$20)
    4337                      .dwattr $C$DW$432, DW_AT_name("DMACH2TCR1")
    4338                      .dwattr $C$DW$432, DW_AT_TI_symbol_name("_DMACH2TCR1")
    4339                      .dwattr $C$DW$432, DW_AT_data_member_location[DW_OP_plus_uconst 0x44]
    4340                      .dwattr $C$DW$432, DW_AT_accessibility(DW_ACCESS_public)
    4341              $C$DW$433       .dwtag  DW_TAG_member
    4342                      .dwattr $C$DW$433, DW_AT_type(*$C$DW$T$20)
    4343                      .dwattr $C$DW$433, DW_AT_name("DMACH2TCR2")
    4344                      .dwattr $C$DW$433, DW_AT_TI_symbol_name("_DMACH2TCR2")
    4345                      .dwattr $C$DW$433, DW_AT_data_member_location[DW_OP_plus_uconst 0x45]
    4346                      .dwattr $C$DW$433, DW_AT_accessibility(DW_ACCESS_public)
    4347              $C$DW$434       .dwtag  DW_TAG_member
    4348                      .dwattr $C$DW$434, DW_AT_type(*$C$DW$T$21)
    4349                      .dwattr $C$DW$434, DW_AT_name("RSVD2")
    4350                      .dwattr $C$DW$434, DW_AT_TI_symbol_name("_RSVD2")
    4351                      .dwattr $C$DW$434, DW_AT_data_member_location[DW_OP_plus_uconst 0x46]
    4352                      .dwattr $C$DW$434, DW_AT_accessibility(DW_ACCESS_public)
    4353              $C$DW$435       .dwtag  DW_TAG_member
    4354                      .dwattr $C$DW$435, DW_AT_type(*$C$DW$T$20)
    4355                      .dwattr $C$DW$435, DW_AT_name("DMACH3SSAL")
    4356                      .dwattr $C$DW$435, DW_AT_TI_symbol_name("_DMACH3SSAL")
    4357                      .dwattr $C$DW$435, DW_AT_data_member_location[DW_OP_plus_uconst 0x60]
    4358                      .dwattr $C$DW$435, DW_AT_accessibility(DW_ACCESS_public)
    4359              $C$DW$436       .dwtag  DW_TAG_member
    4360                      .dwattr $C$DW$436, DW_AT_type(*$C$DW$T$20)
    4361                      .dwattr $C$DW$436, DW_AT_name("DMACH3SSAU")
    4362                      .dwattr $C$DW$436, DW_AT_TI_symbol_name("_DMACH3SSAU")
    4363                      .dwattr $C$DW$436, DW_AT_data_member_location[DW_OP_plus_uconst 0x61]
    4364                      .dwattr $C$DW$436, DW_AT_accessibility(DW_ACCESS_public)
    4365              $C$DW$437       .dwtag  DW_TAG_member
    4366                      .dwattr $C$DW$437, DW_AT_type(*$C$DW$T$20)
    4367                      .dwattr $C$DW$437, DW_AT_name("DMACH3DSAL")
    4368                      .dwattr $C$DW$437, DW_AT_TI_symbol_name("_DMACH3DSAL")
    4369                      .dwattr $C$DW$437, DW_AT_data_member_location[DW_OP_plus_uconst 0x62]
    4370                      .dwattr $C$DW$437, DW_AT_accessibility(DW_ACCESS_public)
    4371              $C$DW$438       .dwtag  DW_TAG_member
    4372                      .dwattr $C$DW$438, DW_AT_type(*$C$DW$T$20)
    4373                      .dwattr $C$DW$438, DW_AT_name("DMACH3DSAU")
    4374                      .dwattr $C$DW$438, DW_AT_TI_symbol_name("_DMACH3DSAU")
    4375                      .dwattr $C$DW$438, DW_AT_data_member_location[DW_OP_plus_uconst 0x63]
    4376                      .dwattr $C$DW$438, DW_AT_accessibility(DW_ACCESS_public)
    4377              $C$DW$439       .dwtag  DW_TAG_member
    4378                      .dwattr $C$DW$439, DW_AT_type(*$C$DW$T$20)
    4379                      .dwattr $C$DW$439, DW_AT_name("DMACH3TCR1")
    4380                      .dwattr $C$DW$439, DW_AT_TI_symbol_name("_DMACH3TCR1")
    4381                      .dwattr $C$DW$439, DW_AT_data_member_location[DW_OP_plus_uconst 0x64]
TMS320C55x Assembler PC v4.4.1 Sat Sep 29 23:09:00 2018

Tools Copyright (c) 1996-2012 Texas Instruments Incorporated
csl_mmcsd_dma_example.asm                                            PAGE  128

    4382                      .dwattr $C$DW$439, DW_AT_accessibility(DW_ACCESS_public)
    4383              $C$DW$440       .dwtag  DW_TAG_member
    4384                      .dwattr $C$DW$440, DW_AT_type(*$C$DW$T$20)
    4385                      .dwattr $C$DW$440, DW_AT_name("DMACH3TCR2")
    4386                      .dwattr $C$DW$440, DW_AT_TI_symbol_name("_DMACH3TCR2")
    4387                      .dwattr $C$DW$440, DW_AT_data_member_location[DW_OP_plus_uconst 0x65]
    4388                      .dwattr $C$DW$440, DW_AT_accessibility(DW_ACCESS_public)
    4389                      .dwendtag $C$DW$T$22
    4390              
    4391              $C$DW$T$23      .dwtag  DW_TAG_typedef, DW_AT_name("CSL_DmaRegs")
    4392                      .dwattr $C$DW$T$23, DW_AT_type(*$C$DW$T$22)
    4393                      .dwattr $C$DW$T$23, DW_AT_language(DW_LANG_C)
    4394              $C$DW$441       .dwtag  DW_TAG_TI_far_type
    4395                      .dwattr $C$DW$441, DW_AT_type(*$C$DW$T$23)
    4396              $C$DW$442       .dwtag  DW_TAG_TI_ioport_type
    4397                      .dwattr $C$DW$442, DW_AT_type(*$C$DW$441)
    4398              $C$DW$T$24      .dwtag  DW_TAG_volatile_type
    4399                      .dwattr $C$DW$T$24, DW_AT_type(*$C$DW$442)
    4400              $C$DW$T$25      .dwtag  DW_TAG_pointer_type
    4401                      .dwattr $C$DW$T$25, DW_AT_type(*$C$DW$T$24)
    4402                      .dwattr $C$DW$T$25, DW_AT_address_class(0x10)
    4403              $C$DW$T$26      .dwtag  DW_TAG_typedef, DW_AT_name("CSL_DmaRegsOvly")
    4404                      .dwattr $C$DW$T$26, DW_AT_type(*$C$DW$T$25)
    4405                      .dwattr $C$DW$T$26, DW_AT_language(DW_LANG_C)
    4406              
    4407              $C$DW$T$40      .dwtag  DW_TAG_structure_type
    4408                      .dwattr $C$DW$T$40, DW_AT_byte_size(0x09)
    4409              $C$DW$443       .dwtag  DW_TAG_member
    4410                      .dwattr $C$DW$443, DW_AT_type(*$C$DW$T$26)
    4411                      .dwattr $C$DW$443, DW_AT_name("dmaRegs")
    4412                      .dwattr $C$DW$443, DW_AT_TI_symbol_name("_dmaRegs")
    4413                      .dwattr $C$DW$443, DW_AT_data_member_location[DW_OP_plus_uconst 0x0]
    4414                      .dwattr $C$DW$443, DW_AT_accessibility(DW_ACCESS_public)
    4415              $C$DW$444       .dwtag  DW_TAG_member
    4416                      .dwattr $C$DW$444, DW_AT_type(*$C$DW$T$28)
    4417                      .dwattr $C$DW$444, DW_AT_name("chanNum")
    4418                      .dwattr $C$DW$444, DW_AT_TI_symbol_name("_chanNum")
    4419                      .dwattr $C$DW$444, DW_AT_data_member_location[DW_OP_plus_uconst 0x1]
    4420                      .dwattr $C$DW$444, DW_AT_accessibility(DW_ACCESS_public)
    4421              $C$DW$445       .dwtag  DW_TAG_member
    4422                      .dwattr $C$DW$445, DW_AT_type(*$C$DW$T$30)
    4423                      .dwattr $C$DW$445, DW_AT_name("dmaInstNum")
    4424                      .dwattr $C$DW$445, DW_AT_TI_symbol_name("_dmaInstNum")
    4425                      .dwattr $C$DW$445, DW_AT_data_member_location[DW_OP_plus_uconst 0x2]
    4426                      .dwattr $C$DW$445, DW_AT_accessibility(DW_ACCESS_public)
    4427              $C$DW$446       .dwtag  DW_TAG_member
    4428                      .dwattr $C$DW$446, DW_AT_type(*$C$DW$T$31)
    4429                      .dwattr $C$DW$446, DW_AT_name("isChanFree")
    4430                      .dwattr $C$DW$446, DW_AT_TI_symbol_name("_isChanFree")
    4431                      .dwattr $C$DW$446, DW_AT_data_member_location[DW_OP_plus_uconst 0x3]
    4432                      .dwattr $C$DW$446, DW_AT_accessibility(DW_ACCESS_public)
    4433              $C$DW$447       .dwtag  DW_TAG_member
    4434                      .dwattr $C$DW$447, DW_AT_type(*$C$DW$T$33)
    4435                      .dwattr $C$DW$447, DW_AT_name("chanDir")
    4436                      .dwattr $C$DW$447, DW_AT_TI_symbol_name("_chanDir")
TMS320C55x Assembler PC v4.4.1 Sat Sep 29 23:09:00 2018

Tools Copyright (c) 1996-2012 Texas Instruments Incorporated
csl_mmcsd_dma_example.asm                                            PAGE  129

    4437                      .dwattr $C$DW$447, DW_AT_data_member_location[DW_OP_plus_uconst 0x4]
    4438                      .dwattr $C$DW$447, DW_AT_accessibility(DW_ACCESS_public)
    4439              $C$DW$448       .dwtag  DW_TAG_member
    4440                      .dwattr $C$DW$448, DW_AT_type(*$C$DW$T$35)
    4441                      .dwattr $C$DW$448, DW_AT_name("trigger")
    4442                      .dwattr $C$DW$448, DW_AT_TI_symbol_name("_trigger")
    4443                      .dwattr $C$DW$448, DW_AT_data_member_location[DW_OP_plus_uconst 0x5]
    4444                      .dwattr $C$DW$448, DW_AT_accessibility(DW_ACCESS_public)
    4445              $C$DW$449       .dwtag  DW_TAG_member
    4446                      .dwattr $C$DW$449, DW_AT_type(*$C$DW$T$37)
    4447                      .dwattr $C$DW$449, DW_AT_name("trfType")
    4448                      .dwattr $C$DW$449, DW_AT_TI_symbol_name("_trfType")
    4449                      .dwattr $C$DW$449, DW_AT_data_member_location[DW_OP_plus_uconst 0x6]
    4450                      .dwattr $C$DW$449, DW_AT_accessibility(DW_ACCESS_public)
    4451              $C$DW$450       .dwtag  DW_TAG_member
    4452                      .dwattr $C$DW$450, DW_AT_type(*$C$DW$T$39)
    4453                      .dwattr $C$DW$450, DW_AT_name("dmaInt")
    4454                      .dwattr $C$DW$450, DW_AT_TI_symbol_name("_dmaInt")
    4455                      .dwattr $C$DW$450, DW_AT_data_member_location[DW_OP_plus_uconst 0x7]
    4456                      .dwattr $C$DW$450, DW_AT_accessibility(DW_ACCESS_public)
    4457              $C$DW$451       .dwtag  DW_TAG_member
    4458                      .dwattr $C$DW$451, DW_AT_type(*$C$DW$T$31)
    4459                      .dwattr $C$DW$451, DW_AT_name("pingPongEnabled")
    4460                      .dwattr $C$DW$451, DW_AT_TI_symbol_name("_pingPongEnabled")
    4461                      .dwattr $C$DW$451, DW_AT_data_member_location[DW_OP_plus_uconst 0x8]
    4462                      .dwattr $C$DW$451, DW_AT_accessibility(DW_ACCESS_public)
    4463                      .dwendtag $C$DW$T$40
    4464              
    4465              $C$DW$T$87      .dwtag  DW_TAG_typedef, DW_AT_name("CSL_DMA_ChannelObj")
    4466                      .dwattr $C$DW$T$87, DW_AT_type(*$C$DW$T$40)
    4467                      .dwattr $C$DW$T$87, DW_AT_language(DW_LANG_C)
    4468              $C$DW$T$88      .dwtag  DW_TAG_pointer_type
    4469                      .dwattr $C$DW$T$88, DW_AT_type(*$C$DW$T$87)
    4470                      .dwattr $C$DW$T$88, DW_AT_address_class(0x17)
    4471              $C$DW$T$89      .dwtag  DW_TAG_typedef, DW_AT_name("CSL_DMA_Handle")
    4472                      .dwattr $C$DW$T$89, DW_AT_type(*$C$DW$T$88)
    4473                      .dwattr $C$DW$T$89, DW_AT_language(DW_LANG_C)
    4474              
    4475              $C$DW$T$45      .dwtag  DW_TAG_structure_type
    4476                      .dwattr $C$DW$T$45, DW_AT_byte_size(0x75)
    4477              $C$DW$452       .dwtag  DW_TAG_member
    4478                      .dwattr $C$DW$452, DW_AT_type(*$C$DW$T$20)
    4479                      .dwattr $C$DW$452, DW_AT_name("MMCCTL")
    4480                      .dwattr $C$DW$452, DW_AT_TI_symbol_name("_MMCCTL")
    4481                      .dwattr $C$DW$452, DW_AT_data_member_location[DW_OP_plus_uconst 0x0]
    4482                      .dwattr $C$DW$452, DW_AT_accessibility(DW_ACCESS_public)
    4483              $C$DW$453       .dwtag  DW_TAG_member
    4484                      .dwattr $C$DW$453, DW_AT_type(*$C$DW$T$41)
    4485                      .dwattr $C$DW$453, DW_AT_name("RSVD0")
    4486                      .dwattr $C$DW$453, DW_AT_TI_symbol_name("_RSVD0")
    4487                      .dwattr $C$DW$453, DW_AT_data_member_location[DW_OP_plus_uconst 0x1]
    4488                      .dwattr $C$DW$453, DW_AT_accessibility(DW_ACCESS_public)
    4489              $C$DW$454       .dwtag  DW_TAG_member
    4490                      .dwattr $C$DW$454, DW_AT_type(*$C$DW$T$20)
    4491                      .dwattr $C$DW$454, DW_AT_name("MMCCLK")
TMS320C55x Assembler PC v4.4.1 Sat Sep 29 23:09:00 2018

Tools Copyright (c) 1996-2012 Texas Instruments Incorporated
csl_mmcsd_dma_example.asm                                            PAGE  130

    4492                      .dwattr $C$DW$454, DW_AT_TI_symbol_name("_MMCCLK")
    4493                      .dwattr $C$DW$454, DW_AT_data_member_location[DW_OP_plus_uconst 0x4]
    4494                      .dwattr $C$DW$454, DW_AT_accessibility(DW_ACCESS_public)
    4495              $C$DW$455       .dwtag  DW_TAG_member
    4496                      .dwattr $C$DW$455, DW_AT_type(*$C$DW$T$41)
    4497                      .dwattr $C$DW$455, DW_AT_name("RSVD1")
    4498                      .dwattr $C$DW$455, DW_AT_TI_symbol_name("_RSVD1")
    4499                      .dwattr $C$DW$455, DW_AT_data_member_location[DW_OP_plus_uconst 0x5]
    4500                      .dwattr $C$DW$455, DW_AT_accessibility(DW_ACCESS_public)
    4501              $C$DW$456       .dwtag  DW_TAG_member
    4502                      .dwattr $C$DW$456, DW_AT_type(*$C$DW$T$20)
    4503                      .dwattr $C$DW$456, DW_AT_name("MMCST0")
    4504                      .dwattr $C$DW$456, DW_AT_TI_symbol_name("_MMCST0")
    4505                      .dwattr $C$DW$456, DW_AT_data_member_location[DW_OP_plus_uconst 0x8]
    4506                      .dwattr $C$DW$456, DW_AT_accessibility(DW_ACCESS_public)
    4507              $C$DW$457       .dwtag  DW_TAG_member
    4508                      .dwattr $C$DW$457, DW_AT_type(*$C$DW$T$41)
    4509                      .dwattr $C$DW$457, DW_AT_name("RSVD2")
    4510                      .dwattr $C$DW$457, DW_AT_TI_symbol_name("_RSVD2")
    4511                      .dwattr $C$DW$457, DW_AT_data_member_location[DW_OP_plus_uconst 0x9]
    4512                      .dwattr $C$DW$457, DW_AT_accessibility(DW_ACCESS_public)
    4513              $C$DW$458       .dwtag  DW_TAG_member
    4514                      .dwattr $C$DW$458, DW_AT_type(*$C$DW$T$20)
    4515                      .dwattr $C$DW$458, DW_AT_name("MMCST1")
    4516                      .dwattr $C$DW$458, DW_AT_TI_symbol_name("_MMCST1")
    4517                      .dwattr $C$DW$458, DW_AT_data_member_location[DW_OP_plus_uconst 0xc]
    4518                      .dwattr $C$DW$458, DW_AT_accessibility(DW_ACCESS_public)
    4519              $C$DW$459       .dwtag  DW_TAG_member
    4520                      .dwattr $C$DW$459, DW_AT_type(*$C$DW$T$41)
    4521                      .dwattr $C$DW$459, DW_AT_name("RSVD3")
    4522                      .dwattr $C$DW$459, DW_AT_TI_symbol_name("_RSVD3")
    4523                      .dwattr $C$DW$459, DW_AT_data_member_location[DW_OP_plus_uconst 0xd]
    4524                      .dwattr $C$DW$459, DW_AT_accessibility(DW_ACCESS_public)
    4525              $C$DW$460       .dwtag  DW_TAG_member
    4526                      .dwattr $C$DW$460, DW_AT_type(*$C$DW$T$20)
    4527                      .dwattr $C$DW$460, DW_AT_name("MMCIM")
    4528                      .dwattr $C$DW$460, DW_AT_TI_symbol_name("_MMCIM")
    4529                      .dwattr $C$DW$460, DW_AT_data_member_location[DW_OP_plus_uconst 0x10]
    4530                      .dwattr $C$DW$460, DW_AT_accessibility(DW_ACCESS_public)
    4531              $C$DW$461       .dwtag  DW_TAG_member
    4532                      .dwattr $C$DW$461, DW_AT_type(*$C$DW$T$41)
    4533                      .dwattr $C$DW$461, DW_AT_name("RSVD4")
    4534                      .dwattr $C$DW$461, DW_AT_TI_symbol_name("_RSVD4")
    4535                      .dwattr $C$DW$461, DW_AT_data_member_location[DW_OP_plus_uconst 0x11]
    4536                      .dwattr $C$DW$461, DW_AT_accessibility(DW_ACCESS_public)
    4537              $C$DW$462       .dwtag  DW_TAG_member
    4538                      .dwattr $C$DW$462, DW_AT_type(*$C$DW$T$20)
    4539                      .dwattr $C$DW$462, DW_AT_name("MMCTOR")
    4540                      .dwattr $C$DW$462, DW_AT_TI_symbol_name("_MMCTOR")
    4541                      .dwattr $C$DW$462, DW_AT_data_member_location[DW_OP_plus_uconst 0x14]
    4542                      .dwattr $C$DW$462, DW_AT_accessibility(DW_ACCESS_public)
    4543              $C$DW$463       .dwtag  DW_TAG_member
    4544                      .dwattr $C$DW$463, DW_AT_type(*$C$DW$T$41)
    4545                      .dwattr $C$DW$463, DW_AT_name("RSVD5")
    4546                      .dwattr $C$DW$463, DW_AT_TI_symbol_name("_RSVD5")
TMS320C55x Assembler PC v4.4.1 Sat Sep 29 23:09:00 2018

Tools Copyright (c) 1996-2012 Texas Instruments Incorporated
csl_mmcsd_dma_example.asm                                            PAGE  131

    4547                      .dwattr $C$DW$463, DW_AT_data_member_location[DW_OP_plus_uconst 0x15]
    4548                      .dwattr $C$DW$463, DW_AT_accessibility(DW_ACCESS_public)
    4549              $C$DW$464       .dwtag  DW_TAG_member
    4550                      .dwattr $C$DW$464, DW_AT_type(*$C$DW$T$20)
    4551                      .dwattr $C$DW$464, DW_AT_name("MMCTOD")
    4552                      .dwattr $C$DW$464, DW_AT_TI_symbol_name("_MMCTOD")
    4553                      .dwattr $C$DW$464, DW_AT_data_member_location[DW_OP_plus_uconst 0x18]
    4554                      .dwattr $C$DW$464, DW_AT_accessibility(DW_ACCESS_public)
    4555              $C$DW$465       .dwtag  DW_TAG_member
    4556                      .dwattr $C$DW$465, DW_AT_type(*$C$DW$T$41)
    4557                      .dwattr $C$DW$465, DW_AT_name("RSVD6")
    4558                      .dwattr $C$DW$465, DW_AT_TI_symbol_name("_RSVD6")
    4559                      .dwattr $C$DW$465, DW_AT_data_member_location[DW_OP_plus_uconst 0x19]
    4560                      .dwattr $C$DW$465, DW_AT_accessibility(DW_ACCESS_public)
    4561              $C$DW$466       .dwtag  DW_TAG_member
    4562                      .dwattr $C$DW$466, DW_AT_type(*$C$DW$T$20)
    4563                      .dwattr $C$DW$466, DW_AT_name("MMCBLEN")
    4564                      .dwattr $C$DW$466, DW_AT_TI_symbol_name("_MMCBLEN")
    4565                      .dwattr $C$DW$466, DW_AT_data_member_location[DW_OP_plus_uconst 0x1c]
    4566                      .dwattr $C$DW$466, DW_AT_accessibility(DW_ACCESS_public)
    4567              $C$DW$467       .dwtag  DW_TAG_member
    4568                      .dwattr $C$DW$467, DW_AT_type(*$C$DW$T$41)
    4569                      .dwattr $C$DW$467, DW_AT_name("RSVD7")
    4570                      .dwattr $C$DW$467, DW_AT_TI_symbol_name("_RSVD7")
    4571                      .dwattr $C$DW$467, DW_AT_data_member_location[DW_OP_plus_uconst 0x1d]
    4572                      .dwattr $C$DW$467, DW_AT_accessibility(DW_ACCESS_public)
    4573              $C$DW$468       .dwtag  DW_TAG_member
    4574                      .dwattr $C$DW$468, DW_AT_type(*$C$DW$T$20)
    4575                      .dwattr $C$DW$468, DW_AT_name("MMCNBLK")
    4576                      .dwattr $C$DW$468, DW_AT_TI_symbol_name("_MMCNBLK")
    4577                      .dwattr $C$DW$468, DW_AT_data_member_location[DW_OP_plus_uconst 0x20]
    4578                      .dwattr $C$DW$468, DW_AT_accessibility(DW_ACCESS_public)
    4579              $C$DW$469       .dwtag  DW_TAG_member
    4580                      .dwattr $C$DW$469, DW_AT_type(*$C$DW$T$41)
    4581                      .dwattr $C$DW$469, DW_AT_name("RSVD8")
    4582                      .dwattr $C$DW$469, DW_AT_TI_symbol_name("_RSVD8")
    4583                      .dwattr $C$DW$469, DW_AT_data_member_location[DW_OP_plus_uconst 0x21]
    4584                      .dwattr $C$DW$469, DW_AT_accessibility(DW_ACCESS_public)
    4585              $C$DW$470       .dwtag  DW_TAG_member
    4586                      .dwattr $C$DW$470, DW_AT_type(*$C$DW$T$20)
    4587                      .dwattr $C$DW$470, DW_AT_name("MMCNBLC")
    4588                      .dwattr $C$DW$470, DW_AT_TI_symbol_name("_MMCNBLC")
    4589                      .dwattr $C$DW$470, DW_AT_data_member_location[DW_OP_plus_uconst 0x24]
    4590                      .dwattr $C$DW$470, DW_AT_accessibility(DW_ACCESS_public)
    4591              $C$DW$471       .dwtag  DW_TAG_member
    4592                      .dwattr $C$DW$471, DW_AT_type(*$C$DW$T$41)
    4593                      .dwattr $C$DW$471, DW_AT_name("RSVD9")
    4594                      .dwattr $C$DW$471, DW_AT_TI_symbol_name("_RSVD9")
    4595                      .dwattr $C$DW$471, DW_AT_data_member_location[DW_OP_plus_uconst 0x25]
    4596                      .dwattr $C$DW$471, DW_AT_accessibility(DW_ACCESS_public)
    4597              $C$DW$472       .dwtag  DW_TAG_member
    4598                      .dwattr $C$DW$472, DW_AT_type(*$C$DW$T$20)
    4599                      .dwattr $C$DW$472, DW_AT_name("MMCDRR1")
    4600                      .dwattr $C$DW$472, DW_AT_TI_symbol_name("_MMCDRR1")
    4601                      .dwattr $C$DW$472, DW_AT_data_member_location[DW_OP_plus_uconst 0x28]
TMS320C55x Assembler PC v4.4.1 Sat Sep 29 23:09:00 2018

Tools Copyright (c) 1996-2012 Texas Instruments Incorporated
csl_mmcsd_dma_example.asm                                            PAGE  132

    4602                      .dwattr $C$DW$472, DW_AT_accessibility(DW_ACCESS_public)
    4603              $C$DW$473       .dwtag  DW_TAG_member
    4604                      .dwattr $C$DW$473, DW_AT_type(*$C$DW$T$20)
    4605                      .dwattr $C$DW$473, DW_AT_name("MMCDRR2")
    4606                      .dwattr $C$DW$473, DW_AT_TI_symbol_name("_MMCDRR2")
    4607                      .dwattr $C$DW$473, DW_AT_data_member_location[DW_OP_plus_uconst 0x29]
    4608                      .dwattr $C$DW$473, DW_AT_accessibility(DW_ACCESS_public)
    4609              $C$DW$474       .dwtag  DW_TAG_member
    4610                      .dwattr $C$DW$474, DW_AT_type(*$C$DW$T$42)
    4611                      .dwattr $C$DW$474, DW_AT_name("RSVD10")
    4612                      .dwattr $C$DW$474, DW_AT_TI_symbol_name("_RSVD10")
    4613                      .dwattr $C$DW$474, DW_AT_data_member_location[DW_OP_plus_uconst 0x2a]
    4614                      .dwattr $C$DW$474, DW_AT_accessibility(DW_ACCESS_public)
    4615              $C$DW$475       .dwtag  DW_TAG_member
    4616                      .dwattr $C$DW$475, DW_AT_type(*$C$DW$T$20)
    4617                      .dwattr $C$DW$475, DW_AT_name("MMCDXR1")
    4618                      .dwattr $C$DW$475, DW_AT_TI_symbol_name("_MMCDXR1")
    4619                      .dwattr $C$DW$475, DW_AT_data_member_location[DW_OP_plus_uconst 0x2c]
    4620                      .dwattr $C$DW$475, DW_AT_accessibility(DW_ACCESS_public)
    4621              $C$DW$476       .dwtag  DW_TAG_member
    4622                      .dwattr $C$DW$476, DW_AT_type(*$C$DW$T$20)
    4623                      .dwattr $C$DW$476, DW_AT_name("MMCDXR2")
    4624                      .dwattr $C$DW$476, DW_AT_TI_symbol_name("_MMCDXR2")
    4625                      .dwattr $C$DW$476, DW_AT_data_member_location[DW_OP_plus_uconst 0x2d]
    4626                      .dwattr $C$DW$476, DW_AT_accessibility(DW_ACCESS_public)
    4627              $C$DW$477       .dwtag  DW_TAG_member
    4628                      .dwattr $C$DW$477, DW_AT_type(*$C$DW$T$42)
    4629                      .dwattr $C$DW$477, DW_AT_name("RSVD11")
    4630                      .dwattr $C$DW$477, DW_AT_TI_symbol_name("_RSVD11")
    4631                      .dwattr $C$DW$477, DW_AT_data_member_location[DW_OP_plus_uconst 0x2e]
    4632                      .dwattr $C$DW$477, DW_AT_accessibility(DW_ACCESS_public)
    4633              $C$DW$478       .dwtag  DW_TAG_member
    4634                      .dwattr $C$DW$478, DW_AT_type(*$C$DW$T$20)
    4635                      .dwattr $C$DW$478, DW_AT_name("MMCCMD1")
    4636                      .dwattr $C$DW$478, DW_AT_TI_symbol_name("_MMCCMD1")
    4637                      .dwattr $C$DW$478, DW_AT_data_member_location[DW_OP_plus_uconst 0x30]
    4638                      .dwattr $C$DW$478, DW_AT_accessibility(DW_ACCESS_public)
    4639              $C$DW$479       .dwtag  DW_TAG_member
    4640                      .dwattr $C$DW$479, DW_AT_type(*$C$DW$T$20)
    4641                      .dwattr $C$DW$479, DW_AT_name("MMCCMD2")
    4642                      .dwattr $C$DW$479, DW_AT_TI_symbol_name("_MMCCMD2")
    4643                      .dwattr $C$DW$479, DW_AT_data_member_location[DW_OP_plus_uconst 0x31]
    4644                      .dwattr $C$DW$479, DW_AT_accessibility(DW_ACCESS_public)
    4645              $C$DW$480       .dwtag  DW_TAG_member
    4646                      .dwattr $C$DW$480, DW_AT_type(*$C$DW$T$42)
    4647                      .dwattr $C$DW$480, DW_AT_name("RSVD12")
    4648                      .dwattr $C$DW$480, DW_AT_TI_symbol_name("_RSVD12")
    4649                      .dwattr $C$DW$480, DW_AT_data_member_location[DW_OP_plus_uconst 0x32]
    4650                      .dwattr $C$DW$480, DW_AT_accessibility(DW_ACCESS_public)
    4651              $C$DW$481       .dwtag  DW_TAG_member
    4652                      .dwattr $C$DW$481, DW_AT_type(*$C$DW$T$20)
    4653                      .dwattr $C$DW$481, DW_AT_name("MMCARG1")
    4654                      .dwattr $C$DW$481, DW_AT_TI_symbol_name("_MMCARG1")
    4655                      .dwattr $C$DW$481, DW_AT_data_member_location[DW_OP_plus_uconst 0x34]
    4656                      .dwattr $C$DW$481, DW_AT_accessibility(DW_ACCESS_public)
TMS320C55x Assembler PC v4.4.1 Sat Sep 29 23:09:00 2018

Tools Copyright (c) 1996-2012 Texas Instruments Incorporated
csl_mmcsd_dma_example.asm                                            PAGE  133

    4657              $C$DW$482       .dwtag  DW_TAG_member
    4658                      .dwattr $C$DW$482, DW_AT_type(*$C$DW$T$20)
    4659                      .dwattr $C$DW$482, DW_AT_name("MMCARG2")
    4660                      .dwattr $C$DW$482, DW_AT_TI_symbol_name("_MMCARG2")
    4661                      .dwattr $C$DW$482, DW_AT_data_member_location[DW_OP_plus_uconst 0x35]
    4662                      .dwattr $C$DW$482, DW_AT_accessibility(DW_ACCESS_public)
    4663              $C$DW$483       .dwtag  DW_TAG_member
    4664                      .dwattr $C$DW$483, DW_AT_type(*$C$DW$T$42)
    4665                      .dwattr $C$DW$483, DW_AT_name("RSVD13")
    4666                      .dwattr $C$DW$483, DW_AT_TI_symbol_name("_RSVD13")
    4667                      .dwattr $C$DW$483, DW_AT_data_member_location[DW_OP_plus_uconst 0x36]
    4668                      .dwattr $C$DW$483, DW_AT_accessibility(DW_ACCESS_public)
    4669              $C$DW$484       .dwtag  DW_TAG_member
    4670                      .dwattr $C$DW$484, DW_AT_type(*$C$DW$T$20)
    4671                      .dwattr $C$DW$484, DW_AT_name("MMCRSP0")
    4672                      .dwattr $C$DW$484, DW_AT_TI_symbol_name("_MMCRSP0")
    4673                      .dwattr $C$DW$484, DW_AT_data_member_location[DW_OP_plus_uconst 0x38]
    4674                      .dwattr $C$DW$484, DW_AT_accessibility(DW_ACCESS_public)
    4675              $C$DW$485       .dwtag  DW_TAG_member
    4676                      .dwattr $C$DW$485, DW_AT_type(*$C$DW$T$20)
    4677                      .dwattr $C$DW$485, DW_AT_name("MMCRSP1")
    4678                      .dwattr $C$DW$485, DW_AT_TI_symbol_name("_MMCRSP1")
    4679                      .dwattr $C$DW$485, DW_AT_data_member_location[DW_OP_plus_uconst 0x39]
    4680                      .dwattr $C$DW$485, DW_AT_accessibility(DW_ACCESS_public)
    4681              $C$DW$486       .dwtag  DW_TAG_member
    4682                      .dwattr $C$DW$486, DW_AT_type(*$C$DW$T$42)
    4683                      .dwattr $C$DW$486, DW_AT_name("RSVD14")
    4684                      .dwattr $C$DW$486, DW_AT_TI_symbol_name("_RSVD14")
    4685                      .dwattr $C$DW$486, DW_AT_data_member_location[DW_OP_plus_uconst 0x3a]
    4686                      .dwattr $C$DW$486, DW_AT_accessibility(DW_ACCESS_public)
    4687              $C$DW$487       .dwtag  DW_TAG_member
    4688                      .dwattr $C$DW$487, DW_AT_type(*$C$DW$T$20)
    4689                      .dwattr $C$DW$487, DW_AT_name("MMCRSP2")
    4690                      .dwattr $C$DW$487, DW_AT_TI_symbol_name("_MMCRSP2")
    4691                      .dwattr $C$DW$487, DW_AT_data_member_location[DW_OP_plus_uconst 0x3c]
    4692                      .dwattr $C$DW$487, DW_AT_accessibility(DW_ACCESS_public)
    4693              $C$DW$488       .dwtag  DW_TAG_member
    4694                      .dwattr $C$DW$488, DW_AT_type(*$C$DW$T$20)
    4695                      .dwattr $C$DW$488, DW_AT_name("MMCRSP3")
    4696                      .dwattr $C$DW$488, DW_AT_TI_symbol_name("_MMCRSP3")
    4697                      .dwattr $C$DW$488, DW_AT_data_member_location[DW_OP_plus_uconst 0x3d]
    4698                      .dwattr $C$DW$488, DW_AT_accessibility(DW_ACCESS_public)
    4699              $C$DW$489       .dwtag  DW_TAG_member
    4700                      .dwattr $C$DW$489, DW_AT_type(*$C$DW$T$42)
    4701                      .dwattr $C$DW$489, DW_AT_name("RSVD15")
    4702                      .dwattr $C$DW$489, DW_AT_TI_symbol_name("_RSVD15")
    4703                      .dwattr $C$DW$489, DW_AT_data_member_location[DW_OP_plus_uconst 0x3e]
    4704                      .dwattr $C$DW$489, DW_AT_accessibility(DW_ACCESS_public)
    4705              $C$DW$490       .dwtag  DW_TAG_member
    4706                      .dwattr $C$DW$490, DW_AT_type(*$C$DW$T$20)
    4707                      .dwattr $C$DW$490, DW_AT_name("MMCRSP4")
    4708                      .dwattr $C$DW$490, DW_AT_TI_symbol_name("_MMCRSP4")
    4709                      .dwattr $C$DW$490, DW_AT_data_member_location[DW_OP_plus_uconst 0x40]
    4710                      .dwattr $C$DW$490, DW_AT_accessibility(DW_ACCESS_public)
    4711              $C$DW$491       .dwtag  DW_TAG_member
TMS320C55x Assembler PC v4.4.1 Sat Sep 29 23:09:00 2018

Tools Copyright (c) 1996-2012 Texas Instruments Incorporated
csl_mmcsd_dma_example.asm                                            PAGE  134

    4712                      .dwattr $C$DW$491, DW_AT_type(*$C$DW$T$20)
    4713                      .dwattr $C$DW$491, DW_AT_name("MMCRSP5")
    4714                      .dwattr $C$DW$491, DW_AT_TI_symbol_name("_MMCRSP5")
    4715                      .dwattr $C$DW$491, DW_AT_data_member_location[DW_OP_plus_uconst 0x41]
    4716                      .dwattr $C$DW$491, DW_AT_accessibility(DW_ACCESS_public)
    4717              $C$DW$492       .dwtag  DW_TAG_member
    4718                      .dwattr $C$DW$492, DW_AT_type(*$C$DW$T$42)
    4719                      .dwattr $C$DW$492, DW_AT_name("RSVD16")
    4720                      .dwattr $C$DW$492, DW_AT_TI_symbol_name("_RSVD16")
    4721                      .dwattr $C$DW$492, DW_AT_data_member_location[DW_OP_plus_uconst 0x42]
    4722                      .dwattr $C$DW$492, DW_AT_accessibility(DW_ACCESS_public)
    4723              $C$DW$493       .dwtag  DW_TAG_member
    4724                      .dwattr $C$DW$493, DW_AT_type(*$C$DW$T$20)
    4725                      .dwattr $C$DW$493, DW_AT_name("MMCRSP6")
    4726                      .dwattr $C$DW$493, DW_AT_TI_symbol_name("_MMCRSP6")
    4727                      .dwattr $C$DW$493, DW_AT_data_member_location[DW_OP_plus_uconst 0x44]
    4728                      .dwattr $C$DW$493, DW_AT_accessibility(DW_ACCESS_public)
    4729              $C$DW$494       .dwtag  DW_TAG_member
    4730                      .dwattr $C$DW$494, DW_AT_type(*$C$DW$T$20)
    4731                      .dwattr $C$DW$494, DW_AT_name("MMCRSP7")
    4732                      .dwattr $C$DW$494, DW_AT_TI_symbol_name("_MMCRSP7")
    4733                      .dwattr $C$DW$494, DW_AT_data_member_location[DW_OP_plus_uconst 0x45]
    4734                      .dwattr $C$DW$494, DW_AT_accessibility(DW_ACCESS_public)
    4735              $C$DW$495       .dwtag  DW_TAG_member
    4736                      .dwattr $C$DW$495, DW_AT_type(*$C$DW$T$42)
    4737                      .dwattr $C$DW$495, DW_AT_name("RSVD17")
    4738                      .dwattr $C$DW$495, DW_AT_TI_symbol_name("_RSVD17")
    4739                      .dwattr $C$DW$495, DW_AT_data_member_location[DW_OP_plus_uconst 0x46]
    4740                      .dwattr $C$DW$495, DW_AT_accessibility(DW_ACCESS_public)
    4741              $C$DW$496       .dwtag  DW_TAG_member
    4742                      .dwattr $C$DW$496, DW_AT_type(*$C$DW$T$20)
    4743                      .dwattr $C$DW$496, DW_AT_name("MMCDRSP")
    4744                      .dwattr $C$DW$496, DW_AT_TI_symbol_name("_MMCDRSP")
    4745                      .dwattr $C$DW$496, DW_AT_data_member_location[DW_OP_plus_uconst 0x48]
    4746                      .dwattr $C$DW$496, DW_AT_accessibility(DW_ACCESS_public)
    4747              $C$DW$497       .dwtag  DW_TAG_member
    4748                      .dwattr $C$DW$497, DW_AT_type(*$C$DW$T$43)
    4749                      .dwattr $C$DW$497, DW_AT_name("RSVD18")
    4750                      .dwattr $C$DW$497, DW_AT_TI_symbol_name("_RSVD18")
    4751                      .dwattr $C$DW$497, DW_AT_data_member_location[DW_OP_plus_uconst 0x49]
    4752                      .dwattr $C$DW$497, DW_AT_accessibility(DW_ACCESS_public)
    4753              $C$DW$498       .dwtag  DW_TAG_member
    4754                      .dwattr $C$DW$498, DW_AT_type(*$C$DW$T$20)
    4755                      .dwattr $C$DW$498, DW_AT_name("MMCCIDX")
    4756                      .dwattr $C$DW$498, DW_AT_TI_symbol_name("_MMCCIDX")
    4757                      .dwattr $C$DW$498, DW_AT_data_member_location[DW_OP_plus_uconst 0x50]
    4758                      .dwattr $C$DW$498, DW_AT_accessibility(DW_ACCESS_public)
    4759              $C$DW$499       .dwtag  DW_TAG_member
    4760                      .dwattr $C$DW$499, DW_AT_type(*$C$DW$T$44)
    4761                      .dwattr $C$DW$499, DW_AT_name("RSVD19")
    4762                      .dwattr $C$DW$499, DW_AT_TI_symbol_name("_RSVD19")
    4763                      .dwattr $C$DW$499, DW_AT_data_member_location[DW_OP_plus_uconst 0x51]
    4764                      .dwattr $C$DW$499, DW_AT_accessibility(DW_ACCESS_public)
    4765              $C$DW$500       .dwtag  DW_TAG_member
    4766                      .dwattr $C$DW$500, DW_AT_type(*$C$DW$T$20)
TMS320C55x Assembler PC v4.4.1 Sat Sep 29 23:09:00 2018

Tools Copyright (c) 1996-2012 Texas Instruments Incorporated
csl_mmcsd_dma_example.asm                                            PAGE  135

    4767                      .dwattr $C$DW$500, DW_AT_name("SDIOCTL")
    4768                      .dwattr $C$DW$500, DW_AT_TI_symbol_name("_SDIOCTL")
    4769                      .dwattr $C$DW$500, DW_AT_data_member_location[DW_OP_plus_uconst 0x64]
    4770                      .dwattr $C$DW$500, DW_AT_accessibility(DW_ACCESS_public)
    4771              $C$DW$501       .dwtag  DW_TAG_member
    4772                      .dwattr $C$DW$501, DW_AT_type(*$C$DW$T$41)
    4773                      .dwattr $C$DW$501, DW_AT_name("RSVD20")
    4774                      .dwattr $C$DW$501, DW_AT_TI_symbol_name("_RSVD20")
    4775                      .dwattr $C$DW$501, DW_AT_data_member_location[DW_OP_plus_uconst 0x65]
    4776                      .dwattr $C$DW$501, DW_AT_accessibility(DW_ACCESS_public)
    4777              $C$DW$502       .dwtag  DW_TAG_member
    4778                      .dwattr $C$DW$502, DW_AT_type(*$C$DW$T$20)
    4779                      .dwattr $C$DW$502, DW_AT_name("SDIOST0")
    4780                      .dwattr $C$DW$502, DW_AT_TI_symbol_name("_SDIOST0")
    4781                      .dwattr $C$DW$502, DW_AT_data_member_location[DW_OP_plus_uconst 0x68]
    4782                      .dwattr $C$DW$502, DW_AT_accessibility(DW_ACCESS_public)
    4783              $C$DW$503       .dwtag  DW_TAG_member
    4784                      .dwattr $C$DW$503, DW_AT_type(*$C$DW$T$41)
    4785                      .dwattr $C$DW$503, DW_AT_name("RSVD21")
    4786                      .dwattr $C$DW$503, DW_AT_TI_symbol_name("_RSVD21")
    4787                      .dwattr $C$DW$503, DW_AT_data_member_location[DW_OP_plus_uconst 0x69]
    4788                      .dwattr $C$DW$503, DW_AT_accessibility(DW_ACCESS_public)
    4789              $C$DW$504       .dwtag  DW_TAG_member
    4790                      .dwattr $C$DW$504, DW_AT_type(*$C$DW$T$20)
    4791                      .dwattr $C$DW$504, DW_AT_name("SDIOIEN")
    4792                      .dwattr $C$DW$504, DW_AT_TI_symbol_name("_SDIOIEN")
    4793                      .dwattr $C$DW$504, DW_AT_data_member_location[DW_OP_plus_uconst 0x6c]
    4794                      .dwattr $C$DW$504, DW_AT_accessibility(DW_ACCESS_public)
    4795              $C$DW$505       .dwtag  DW_TAG_member
    4796                      .dwattr $C$DW$505, DW_AT_type(*$C$DW$T$41)
    4797                      .dwattr $C$DW$505, DW_AT_name("RSVD22")
    4798                      .dwattr $C$DW$505, DW_AT_TI_symbol_name("_RSVD22")
    4799                      .dwattr $C$DW$505, DW_AT_data_member_location[DW_OP_plus_uconst 0x6d]
    4800                      .dwattr $C$DW$505, DW_AT_accessibility(DW_ACCESS_public)
    4801              $C$DW$506       .dwtag  DW_TAG_member
    4802                      .dwattr $C$DW$506, DW_AT_type(*$C$DW$T$20)
    4803                      .dwattr $C$DW$506, DW_AT_name("SDIOIST")
    4804                      .dwattr $C$DW$506, DW_AT_TI_symbol_name("_SDIOIST")
    4805                      .dwattr $C$DW$506, DW_AT_data_member_location[DW_OP_plus_uconst 0x70]
    4806                      .dwattr $C$DW$506, DW_AT_accessibility(DW_ACCESS_public)
    4807              $C$DW$507       .dwtag  DW_TAG_member
    4808                      .dwattr $C$DW$507, DW_AT_type(*$C$DW$T$41)
    4809                      .dwattr $C$DW$507, DW_AT_name("RSVD23")
    4810                      .dwattr $C$DW$507, DW_AT_TI_symbol_name("_RSVD23")
    4811                      .dwattr $C$DW$507, DW_AT_data_member_location[DW_OP_plus_uconst 0x71]
    4812                      .dwattr $C$DW$507, DW_AT_accessibility(DW_ACCESS_public)
    4813              $C$DW$508       .dwtag  DW_TAG_member
    4814                      .dwattr $C$DW$508, DW_AT_type(*$C$DW$T$20)
    4815                      .dwattr $C$DW$508, DW_AT_name("MMCFIFOCTL")
    4816                      .dwattr $C$DW$508, DW_AT_TI_symbol_name("_MMCFIFOCTL")
    4817                      .dwattr $C$DW$508, DW_AT_data_member_location[DW_OP_plus_uconst 0x74]
    4818                      .dwattr $C$DW$508, DW_AT_accessibility(DW_ACCESS_public)
    4819                      .dwendtag $C$DW$T$45
    4820              
    4821              $C$DW$T$77      .dwtag  DW_TAG_typedef, DW_AT_name("CSL_MmcsdRegs")
TMS320C55x Assembler PC v4.4.1 Sat Sep 29 23:09:00 2018

Tools Copyright (c) 1996-2012 Texas Instruments Incorporated
csl_mmcsd_dma_example.asm                                            PAGE  136

    4822                      .dwattr $C$DW$T$77, DW_AT_type(*$C$DW$T$45)
    4823                      .dwattr $C$DW$T$77, DW_AT_language(DW_LANG_C)
    4824              $C$DW$509       .dwtag  DW_TAG_TI_far_type
    4825                      .dwattr $C$DW$509, DW_AT_type(*$C$DW$T$77)
    4826              $C$DW$510       .dwtag  DW_TAG_TI_ioport_type
    4827                      .dwattr $C$DW$510, DW_AT_type(*$C$DW$509)
    4828              $C$DW$T$78      .dwtag  DW_TAG_volatile_type
    4829                      .dwattr $C$DW$T$78, DW_AT_type(*$C$DW$510)
    4830              $C$DW$T$79      .dwtag  DW_TAG_pointer_type
    4831                      .dwattr $C$DW$T$79, DW_AT_type(*$C$DW$T$78)
    4832                      .dwattr $C$DW$T$79, DW_AT_address_class(0x10)
    4833              $C$DW$T$80      .dwtag  DW_TAG_typedef, DW_AT_name("CSL_MmcsdRegsOvly")
    4834                      .dwattr $C$DW$T$80, DW_AT_type(*$C$DW$T$79)
    4835                      .dwattr $C$DW$T$80, DW_AT_language(DW_LANG_C)
    4836              
    4837              $C$DW$T$49      .dwtag  DW_TAG_structure_type
    4838                      .dwattr $C$DW$T$49, DW_AT_byte_size(0x10)
    4839              $C$DW$511       .dwtag  DW_TAG_member
    4840                      .dwattr $C$DW$511, DW_AT_type(*$C$DW$T$19)
    4841                      .dwattr $C$DW$511, DW_AT_name("mfgId")
    4842                      .dwattr $C$DW$511, DW_AT_TI_symbol_name("_mfgId")
    4843                      .dwattr $C$DW$511, DW_AT_data_member_location[DW_OP_plus_uconst 0x0]
    4844                      .dwattr $C$DW$511, DW_AT_accessibility(DW_ACCESS_public)
    4845              $C$DW$512       .dwtag  DW_TAG_member
    4846                      .dwattr $C$DW$512, DW_AT_type(*$C$DW$T$19)
    4847                      .dwattr $C$DW$512, DW_AT_name("oemAppId")
    4848                      .dwattr $C$DW$512, DW_AT_TI_symbol_name("_oemAppId")
    4849                      .dwattr $C$DW$512, DW_AT_data_member_location[DW_OP_plus_uconst 0x1]
    4850                      .dwattr $C$DW$512, DW_AT_accessibility(DW_ACCESS_public)
    4851              $C$DW$513       .dwtag  DW_TAG_member
    4852                      .dwattr $C$DW$513, DW_AT_type(*$C$DW$T$47)
    4853                      .dwattr $C$DW$513, DW_AT_name("productName")
    4854                      .dwattr $C$DW$513, DW_AT_TI_symbol_name("_productName")
    4855                      .dwattr $C$DW$513, DW_AT_data_member_location[DW_OP_plus_uconst 0x2]
    4856                      .dwattr $C$DW$513, DW_AT_accessibility(DW_ACCESS_public)
    4857              $C$DW$514       .dwtag  DW_TAG_member
    4858                      .dwattr $C$DW$514, DW_AT_type(*$C$DW$T$19)
    4859                      .dwattr $C$DW$514, DW_AT_name("productRev")
    4860                      .dwattr $C$DW$514, DW_AT_TI_symbol_name("_productRev")
    4861                      .dwattr $C$DW$514, DW_AT_data_member_location[DW_OP_plus_uconst 0x8]
    4862                      .dwattr $C$DW$514, DW_AT_accessibility(DW_ACCESS_public)
    4863              $C$DW$515       .dwtag  DW_TAG_member
    4864                      .dwattr $C$DW$515, DW_AT_type(*$C$DW$T$48)
    4865                      .dwattr $C$DW$515, DW_AT_name("serialNumber")
    4866                      .dwattr $C$DW$515, DW_AT_TI_symbol_name("_serialNumber")
    4867                      .dwattr $C$DW$515, DW_AT_data_member_location[DW_OP_plus_uconst 0xa]
    4868                      .dwattr $C$DW$515, DW_AT_accessibility(DW_ACCESS_public)
    4869              $C$DW$516       .dwtag  DW_TAG_member
    4870                      .dwattr $C$DW$516, DW_AT_type(*$C$DW$T$19)
    4871                      .dwattr $C$DW$516, DW_AT_name("month")
    4872                      .dwattr $C$DW$516, DW_AT_TI_symbol_name("_month")
    4873                      .dwattr $C$DW$516, DW_AT_data_member_location[DW_OP_plus_uconst 0xc]
    4874                      .dwattr $C$DW$516, DW_AT_accessibility(DW_ACCESS_public)
    4875              $C$DW$517       .dwtag  DW_TAG_member
    4876                      .dwattr $C$DW$517, DW_AT_type(*$C$DW$T$19)
TMS320C55x Assembler PC v4.4.1 Sat Sep 29 23:09:00 2018

Tools Copyright (c) 1996-2012 Texas Instruments Incorporated
csl_mmcsd_dma_example.asm                                            PAGE  137

    4877                      .dwattr $C$DW$517, DW_AT_name("year")
    4878                      .dwattr $C$DW$517, DW_AT_TI_symbol_name("_year")
    4879                      .dwattr $C$DW$517, DW_AT_data_member_location[DW_OP_plus_uconst 0xd]
    4880                      .dwattr $C$DW$517, DW_AT_accessibility(DW_ACCESS_public)
    4881              $C$DW$518       .dwtag  DW_TAG_member
    4882                      .dwattr $C$DW$518, DW_AT_type(*$C$DW$T$19)
    4883                      .dwattr $C$DW$518, DW_AT_name("checksum")
    4884                      .dwattr $C$DW$518, DW_AT_TI_symbol_name("_checksum")
    4885                      .dwattr $C$DW$518, DW_AT_data_member_location[DW_OP_plus_uconst 0xe]
    4886                      .dwattr $C$DW$518, DW_AT_accessibility(DW_ACCESS_public)
    4887                      .dwendtag $C$DW$T$49
    4888              
    4889              $C$DW$T$54      .dwtag  DW_TAG_typedef, DW_AT_name("CSL_MMCCardIdObj")
    4890                      .dwattr $C$DW$T$54, DW_AT_type(*$C$DW$T$49)
    4891                      .dwattr $C$DW$T$54, DW_AT_language(DW_LANG_C)
    4892              $C$DW$T$55      .dwtag  DW_TAG_pointer_type
    4893                      .dwattr $C$DW$T$55, DW_AT_type(*$C$DW$T$54)
    4894                      .dwattr $C$DW$T$55, DW_AT_address_class(0x17)
    4895              
    4896              $C$DW$T$50      .dwtag  DW_TAG_structure_type
    4897                      .dwattr $C$DW$T$50, DW_AT_byte_size(0x22)
    4898              $C$DW$519       .dwtag  DW_TAG_member
    4899                      .dwattr $C$DW$519, DW_AT_type(*$C$DW$T$19)
    4900                      .dwattr $C$DW$519, DW_AT_name("csdStruct")
    4901                      .dwattr $C$DW$519, DW_AT_TI_symbol_name("_csdStruct")
    4902                      .dwattr $C$DW$519, DW_AT_data_member_location[DW_OP_plus_uconst 0x0]
    4903                      .dwattr $C$DW$519, DW_AT_accessibility(DW_ACCESS_public)
    4904              $C$DW$520       .dwtag  DW_TAG_member
    4905                      .dwattr $C$DW$520, DW_AT_type(*$C$DW$T$19)
    4906                      .dwattr $C$DW$520, DW_AT_name("mmcProt")
    4907                      .dwattr $C$DW$520, DW_AT_TI_symbol_name("_mmcProt")
    4908                      .dwattr $C$DW$520, DW_AT_data_member_location[DW_OP_plus_uconst 0x1]
    4909                      .dwattr $C$DW$520, DW_AT_accessibility(DW_ACCESS_public)
    4910              $C$DW$521       .dwtag  DW_TAG_member
    4911                      .dwattr $C$DW$521, DW_AT_type(*$C$DW$T$19)
    4912                      .dwattr $C$DW$521, DW_AT_name("taac")
    4913                      .dwattr $C$DW$521, DW_AT_TI_symbol_name("_taac")
    4914                      .dwattr $C$DW$521, DW_AT_data_member_location[DW_OP_plus_uconst 0x2]
    4915                      .dwattr $C$DW$521, DW_AT_accessibility(DW_ACCESS_public)
    4916              $C$DW$522       .dwtag  DW_TAG_member
    4917                      .dwattr $C$DW$522, DW_AT_type(*$C$DW$T$19)
    4918                      .dwattr $C$DW$522, DW_AT_name("nsac")
    4919                      .dwattr $C$DW$522, DW_AT_TI_symbol_name("_nsac")
    4920                      .dwattr $C$DW$522, DW_AT_data_member_location[DW_OP_plus_uconst 0x3]
    4921                      .dwattr $C$DW$522, DW_AT_accessibility(DW_ACCESS_public)
    4922              $C$DW$523       .dwtag  DW_TAG_member
    4923                      .dwattr $C$DW$523, DW_AT_type(*$C$DW$T$19)
    4924                      .dwattr $C$DW$523, DW_AT_name("tranSpeed")
    4925                      .dwattr $C$DW$523, DW_AT_TI_symbol_name("_tranSpeed")
    4926                      .dwattr $C$DW$523, DW_AT_data_member_location[DW_OP_plus_uconst 0x4]
    4927                      .dwattr $C$DW$523, DW_AT_accessibility(DW_ACCESS_public)
    4928              $C$DW$524       .dwtag  DW_TAG_member
    4929                      .dwattr $C$DW$524, DW_AT_type(*$C$DW$T$19)
    4930                      .dwattr $C$DW$524, DW_AT_name("ccc")
    4931                      .dwattr $C$DW$524, DW_AT_TI_symbol_name("_ccc")
TMS320C55x Assembler PC v4.4.1 Sat Sep 29 23:09:00 2018

Tools Copyright (c) 1996-2012 Texas Instruments Incorporated
csl_mmcsd_dma_example.asm                                            PAGE  138

    4932                      .dwattr $C$DW$524, DW_AT_data_member_location[DW_OP_plus_uconst 0x5]
    4933                      .dwattr $C$DW$524, DW_AT_accessibility(DW_ACCESS_public)
    4934              $C$DW$525       .dwtag  DW_TAG_member
    4935                      .dwattr $C$DW$525, DW_AT_type(*$C$DW$T$19)
    4936                      .dwattr $C$DW$525, DW_AT_name("readBlLen")
    4937                      .dwattr $C$DW$525, DW_AT_TI_symbol_name("_readBlLen")
    4938                      .dwattr $C$DW$525, DW_AT_data_member_location[DW_OP_plus_uconst 0x6]
    4939                      .dwattr $C$DW$525, DW_AT_accessibility(DW_ACCESS_public)
    4940              $C$DW$526       .dwtag  DW_TAG_member
    4941                      .dwattr $C$DW$526, DW_AT_type(*$C$DW$T$19)
    4942                      .dwattr $C$DW$526, DW_AT_name("readBlPartial")
    4943                      .dwattr $C$DW$526, DW_AT_TI_symbol_name("_readBlPartial")
    4944                      .dwattr $C$DW$526, DW_AT_data_member_location[DW_OP_plus_uconst 0x7]
    4945                      .dwattr $C$DW$526, DW_AT_accessibility(DW_ACCESS_public)
    4946              $C$DW$527       .dwtag  DW_TAG_member
    4947                      .dwattr $C$DW$527, DW_AT_type(*$C$DW$T$19)
    4948                      .dwattr $C$DW$527, DW_AT_name("writeBlkMisalign")
    4949                      .dwattr $C$DW$527, DW_AT_TI_symbol_name("_writeBlkMisalign")
    4950                      .dwattr $C$DW$527, DW_AT_data_member_location[DW_OP_plus_uconst 0x8]
    4951                      .dwattr $C$DW$527, DW_AT_accessibility(DW_ACCESS_public)
    4952              $C$DW$528       .dwtag  DW_TAG_member
    4953                      .dwattr $C$DW$528, DW_AT_type(*$C$DW$T$19)
    4954                      .dwattr $C$DW$528, DW_AT_name("readBlkMisalign")
    4955                      .dwattr $C$DW$528, DW_AT_TI_symbol_name("_readBlkMisalign")
    4956                      .dwattr $C$DW$528, DW_AT_data_member_location[DW_OP_plus_uconst 0x9]
    4957                      .dwattr $C$DW$528, DW_AT_accessibility(DW_ACCESS_public)
    4958              $C$DW$529       .dwtag  DW_TAG_member
    4959                      .dwattr $C$DW$529, DW_AT_type(*$C$DW$T$19)
    4960                      .dwattr $C$DW$529, DW_AT_name("dsrImp")
    4961                      .dwattr $C$DW$529, DW_AT_TI_symbol_name("_dsrImp")
    4962                      .dwattr $C$DW$529, DW_AT_data_member_location[DW_OP_plus_uconst 0xa]
    4963                      .dwattr $C$DW$529, DW_AT_accessibility(DW_ACCESS_public)
    4964              $C$DW$530       .dwtag  DW_TAG_member
    4965                      .dwattr $C$DW$530, DW_AT_type(*$C$DW$T$19)
    4966                      .dwattr $C$DW$530, DW_AT_name("cSize")
    4967                      .dwattr $C$DW$530, DW_AT_TI_symbol_name("_cSize")
    4968                      .dwattr $C$DW$530, DW_AT_data_member_location[DW_OP_plus_uconst 0xb]
    4969                      .dwattr $C$DW$530, DW_AT_accessibility(DW_ACCESS_public)
    4970              $C$DW$531       .dwtag  DW_TAG_member
    4971                      .dwattr $C$DW$531, DW_AT_type(*$C$DW$T$19)
    4972                      .dwattr $C$DW$531, DW_AT_name("vddRCurrMin")
    4973                      .dwattr $C$DW$531, DW_AT_TI_symbol_name("_vddRCurrMin")
    4974                      .dwattr $C$DW$531, DW_AT_data_member_location[DW_OP_plus_uconst 0xc]
    4975                      .dwattr $C$DW$531, DW_AT_accessibility(DW_ACCESS_public)
    4976              $C$DW$532       .dwtag  DW_TAG_member
    4977                      .dwattr $C$DW$532, DW_AT_type(*$C$DW$T$19)
    4978                      .dwattr $C$DW$532, DW_AT_name("vddRCurrMax")
    4979                      .dwattr $C$DW$532, DW_AT_TI_symbol_name("_vddRCurrMax")
    4980                      .dwattr $C$DW$532, DW_AT_data_member_location[DW_OP_plus_uconst 0xd]
    4981                      .dwattr $C$DW$532, DW_AT_accessibility(DW_ACCESS_public)
    4982              $C$DW$533       .dwtag  DW_TAG_member
    4983                      .dwattr $C$DW$533, DW_AT_type(*$C$DW$T$19)
    4984                      .dwattr $C$DW$533, DW_AT_name("vddWCurrMin")
    4985                      .dwattr $C$DW$533, DW_AT_TI_symbol_name("_vddWCurrMin")
    4986                      .dwattr $C$DW$533, DW_AT_data_member_location[DW_OP_plus_uconst 0xe]
TMS320C55x Assembler PC v4.4.1 Sat Sep 29 23:09:00 2018

Tools Copyright (c) 1996-2012 Texas Instruments Incorporated
csl_mmcsd_dma_example.asm                                            PAGE  139

    4987                      .dwattr $C$DW$533, DW_AT_accessibility(DW_ACCESS_public)
    4988              $C$DW$534       .dwtag  DW_TAG_member
    4989                      .dwattr $C$DW$534, DW_AT_type(*$C$DW$T$19)
    4990                      .dwattr $C$DW$534, DW_AT_name("vddWCurrMax")
    4991                      .dwattr $C$DW$534, DW_AT_TI_symbol_name("_vddWCurrMax")
    4992                      .dwattr $C$DW$534, DW_AT_data_member_location[DW_OP_plus_uconst 0xf]
    4993                      .dwattr $C$DW$534, DW_AT_accessibility(DW_ACCESS_public)
    4994              $C$DW$535       .dwtag  DW_TAG_member
    4995                      .dwattr $C$DW$535, DW_AT_type(*$C$DW$T$19)
    4996                      .dwattr $C$DW$535, DW_AT_name("cSizeMult")
    4997                      .dwattr $C$DW$535, DW_AT_TI_symbol_name("_cSizeMult")
    4998                      .dwattr $C$DW$535, DW_AT_data_member_location[DW_OP_plus_uconst 0x10]
    4999                      .dwattr $C$DW$535, DW_AT_accessibility(DW_ACCESS_public)
    5000              $C$DW$536       .dwtag  DW_TAG_member
    5001                      .dwattr $C$DW$536, DW_AT_type(*$C$DW$T$19)
    5002                      .dwattr $C$DW$536, DW_AT_name("eraseBlkEnable")
    5003                      .dwattr $C$DW$536, DW_AT_TI_symbol_name("_eraseBlkEnable")
    5004                      .dwattr $C$DW$536, DW_AT_data_member_location[DW_OP_plus_uconst 0x11]
    5005                      .dwattr $C$DW$536, DW_AT_accessibility(DW_ACCESS_public)
    5006              $C$DW$537       .dwtag  DW_TAG_member
    5007                      .dwattr $C$DW$537, DW_AT_type(*$C$DW$T$19)
    5008                      .dwattr $C$DW$537, DW_AT_name("eraseGrpSize")
    5009                      .dwattr $C$DW$537, DW_AT_TI_symbol_name("_eraseGrpSize")
    5010                      .dwattr $C$DW$537, DW_AT_data_member_location[DW_OP_plus_uconst 0x12]
    5011                      .dwattr $C$DW$537, DW_AT_accessibility(DW_ACCESS_public)
    5012              $C$DW$538       .dwtag  DW_TAG_member
    5013                      .dwattr $C$DW$538, DW_AT_type(*$C$DW$T$19)
    5014                      .dwattr $C$DW$538, DW_AT_name("eraseGrpMult")
    5015                      .dwattr $C$DW$538, DW_AT_TI_symbol_name("_eraseGrpMult")
    5016                      .dwattr $C$DW$538, DW_AT_data_member_location[DW_OP_plus_uconst 0x13]
    5017                      .dwattr $C$DW$538, DW_AT_accessibility(DW_ACCESS_public)
    5018              $C$DW$539       .dwtag  DW_TAG_member
    5019                      .dwattr $C$DW$539, DW_AT_type(*$C$DW$T$19)
    5020                      .dwattr $C$DW$539, DW_AT_name("wpGrpSize")
    5021                      .dwattr $C$DW$539, DW_AT_TI_symbol_name("_wpGrpSize")
    5022                      .dwattr $C$DW$539, DW_AT_data_member_location[DW_OP_plus_uconst 0x14]
    5023                      .dwattr $C$DW$539, DW_AT_accessibility(DW_ACCESS_public)
    5024              $C$DW$540       .dwtag  DW_TAG_member
    5025                      .dwattr $C$DW$540, DW_AT_type(*$C$DW$T$19)
    5026                      .dwattr $C$DW$540, DW_AT_name("wpGrpEnable")
    5027                      .dwattr $C$DW$540, DW_AT_TI_symbol_name("_wpGrpEnable")
    5028                      .dwattr $C$DW$540, DW_AT_data_member_location[DW_OP_plus_uconst 0x15]
    5029                      .dwattr $C$DW$540, DW_AT_accessibility(DW_ACCESS_public)
    5030              $C$DW$541       .dwtag  DW_TAG_member
    5031                      .dwattr $C$DW$541, DW_AT_type(*$C$DW$T$19)
    5032                      .dwattr $C$DW$541, DW_AT_name("defaultEcc")
    5033                      .dwattr $C$DW$541, DW_AT_TI_symbol_name("_defaultEcc")
    5034                      .dwattr $C$DW$541, DW_AT_data_member_location[DW_OP_plus_uconst 0x16]
    5035                      .dwattr $C$DW$541, DW_AT_accessibility(DW_ACCESS_public)
    5036              $C$DW$542       .dwtag  DW_TAG_member
    5037                      .dwattr $C$DW$542, DW_AT_type(*$C$DW$T$19)
    5038                      .dwattr $C$DW$542, DW_AT_name("r2wFactor")
    5039                      .dwattr $C$DW$542, DW_AT_TI_symbol_name("_r2wFactor")
    5040                      .dwattr $C$DW$542, DW_AT_data_member_location[DW_OP_plus_uconst 0x17]
    5041                      .dwattr $C$DW$542, DW_AT_accessibility(DW_ACCESS_public)
TMS320C55x Assembler PC v4.4.1 Sat Sep 29 23:09:00 2018

Tools Copyright (c) 1996-2012 Texas Instruments Incorporated
csl_mmcsd_dma_example.asm                                            PAGE  140

    5042              $C$DW$543       .dwtag  DW_TAG_member
    5043                      .dwattr $C$DW$543, DW_AT_type(*$C$DW$T$19)
    5044                      .dwattr $C$DW$543, DW_AT_name("writeBlLen")
    5045                      .dwattr $C$DW$543, DW_AT_TI_symbol_name("_writeBlLen")
    5046                      .dwattr $C$DW$543, DW_AT_data_member_location[DW_OP_plus_uconst 0x18]
    5047                      .dwattr $C$DW$543, DW_AT_accessibility(DW_ACCESS_public)
    5048              $C$DW$544       .dwtag  DW_TAG_member
    5049                      .dwattr $C$DW$544, DW_AT_type(*$C$DW$T$19)
    5050                      .dwattr $C$DW$544, DW_AT_name("writeBlPartial")
    5051                      .dwattr $C$DW$544, DW_AT_TI_symbol_name("_writeBlPartial")
    5052                      .dwattr $C$DW$544, DW_AT_data_member_location[DW_OP_plus_uconst 0x19]
    5053                      .dwattr $C$DW$544, DW_AT_accessibility(DW_ACCESS_public)
    5054              $C$DW$545       .dwtag  DW_TAG_member
    5055                      .dwattr $C$DW$545, DW_AT_type(*$C$DW$T$19)
    5056                      .dwattr $C$DW$545, DW_AT_name("contProtApp")
    5057                      .dwattr $C$DW$545, DW_AT_TI_symbol_name("_contProtApp")
    5058                      .dwattr $C$DW$545, DW_AT_data_member_location[DW_OP_plus_uconst 0x1a]
    5059                      .dwattr $C$DW$545, DW_AT_accessibility(DW_ACCESS_public)
    5060              $C$DW$546       .dwtag  DW_TAG_member
    5061                      .dwattr $C$DW$546, DW_AT_type(*$C$DW$T$19)
    5062                      .dwattr $C$DW$546, DW_AT_name("fileFmtGrp")
    5063                      .dwattr $C$DW$546, DW_AT_TI_symbol_name("_fileFmtGrp")
    5064                      .dwattr $C$DW$546, DW_AT_data_member_location[DW_OP_plus_uconst 0x1b]
    5065                      .dwattr $C$DW$546, DW_AT_accessibility(DW_ACCESS_public)
    5066              $C$DW$547       .dwtag  DW_TAG_member
    5067                      .dwattr $C$DW$547, DW_AT_type(*$C$DW$T$19)
    5068                      .dwattr $C$DW$547, DW_AT_name("copyFlag")
    5069                      .dwattr $C$DW$547, DW_AT_TI_symbol_name("_copyFlag")
    5070                      .dwattr $C$DW$547, DW_AT_data_member_location[DW_OP_plus_uconst 0x1c]
    5071                      .dwattr $C$DW$547, DW_AT_accessibility(DW_ACCESS_public)
    5072              $C$DW$548       .dwtag  DW_TAG_member
    5073                      .dwattr $C$DW$548, DW_AT_type(*$C$DW$T$19)
    5074                      .dwattr $C$DW$548, DW_AT_name("permWriteProtect")
    5075                      .dwattr $C$DW$548, DW_AT_TI_symbol_name("_permWriteProtect")
    5076                      .dwattr $C$DW$548, DW_AT_data_member_location[DW_OP_plus_uconst 0x1d]
    5077                      .dwattr $C$DW$548, DW_AT_accessibility(DW_ACCESS_public)
    5078              $C$DW$549       .dwtag  DW_TAG_member
    5079                      .dwattr $C$DW$549, DW_AT_type(*$C$DW$T$19)
    5080                      .dwattr $C$DW$549, DW_AT_name("tmpWriteProtect")
    5081                      .dwattr $C$DW$549, DW_AT_TI_symbol_name("_tmpWriteProtect")
    5082                      .dwattr $C$DW$549, DW_AT_data_member_location[DW_OP_plus_uconst 0x1e]
    5083                      .dwattr $C$DW$549, DW_AT_accessibility(DW_ACCESS_public)
    5084              $C$DW$550       .dwtag  DW_TAG_member
    5085                      .dwattr $C$DW$550, DW_AT_type(*$C$DW$T$19)
    5086                      .dwattr $C$DW$550, DW_AT_name("fileFmt")
    5087                      .dwattr $C$DW$550, DW_AT_TI_symbol_name("_fileFmt")
    5088                      .dwattr $C$DW$550, DW_AT_data_member_location[DW_OP_plus_uconst 0x1f]
    5089                      .dwattr $C$DW$550, DW_AT_accessibility(DW_ACCESS_public)
    5090              $C$DW$551       .dwtag  DW_TAG_member
    5091                      .dwattr $C$DW$551, DW_AT_type(*$C$DW$T$19)
    5092                      .dwattr $C$DW$551, DW_AT_name("ecc")
    5093                      .dwattr $C$DW$551, DW_AT_TI_symbol_name("_ecc")
    5094                      .dwattr $C$DW$551, DW_AT_data_member_location[DW_OP_plus_uconst 0x20]
    5095                      .dwattr $C$DW$551, DW_AT_accessibility(DW_ACCESS_public)
    5096              $C$DW$552       .dwtag  DW_TAG_member
TMS320C55x Assembler PC v4.4.1 Sat Sep 29 23:09:00 2018

Tools Copyright (c) 1996-2012 Texas Instruments Incorporated
csl_mmcsd_dma_example.asm                                            PAGE  141

    5097                      .dwattr $C$DW$552, DW_AT_type(*$C$DW$T$19)
    5098                      .dwattr $C$DW$552, DW_AT_name("crc")
    5099                      .dwattr $C$DW$552, DW_AT_TI_symbol_name("_crc")
    5100                      .dwattr $C$DW$552, DW_AT_data_member_location[DW_OP_plus_uconst 0x21]
    5101                      .dwattr $C$DW$552, DW_AT_accessibility(DW_ACCESS_public)
    5102                      .dwendtag $C$DW$T$50
    5103              
    5104              $C$DW$T$56      .dwtag  DW_TAG_typedef, DW_AT_name("CSL_MMCCardCsdObj")
    5105                      .dwattr $C$DW$T$56, DW_AT_type(*$C$DW$T$50)
    5106                      .dwattr $C$DW$T$56, DW_AT_language(DW_LANG_C)
    5107              $C$DW$T$57      .dwtag  DW_TAG_pointer_type
    5108                      .dwattr $C$DW$T$57, DW_AT_type(*$C$DW$T$56)
    5109                      .dwattr $C$DW$T$57, DW_AT_address_class(0x17)
    5110              
    5111              $C$DW$T$51      .dwtag  DW_TAG_structure_type
    5112                      .dwattr $C$DW$T$51, DW_AT_byte_size(0x06)
    5113              $C$DW$553       .dwtag  DW_TAG_member
    5114                      .dwattr $C$DW$553, DW_AT_type(*$C$DW$T$19)
    5115                      .dwattr $C$DW$553, DW_AT_name("securitySysId")
    5116                      .dwattr $C$DW$553, DW_AT_TI_symbol_name("_securitySysId")
    5117                      .dwattr $C$DW$553, DW_AT_data_member_location[DW_OP_plus_uconst 0x0]
    5118                      .dwattr $C$DW$553, DW_AT_accessibility(DW_ACCESS_public)
    5119              $C$DW$554       .dwtag  DW_TAG_member
    5120                      .dwattr $C$DW$554, DW_AT_type(*$C$DW$T$19)
    5121                      .dwattr $C$DW$554, DW_AT_name("securitySysVers")
    5122                      .dwattr $C$DW$554, DW_AT_TI_symbol_name("_securitySysVers")
    5123                      .dwattr $C$DW$554, DW_AT_data_member_location[DW_OP_plus_uconst 0x1]
    5124                      .dwattr $C$DW$554, DW_AT_accessibility(DW_ACCESS_public)
    5125              $C$DW$555       .dwtag  DW_TAG_member
    5126                      .dwattr $C$DW$555, DW_AT_type(*$C$DW$T$19)
    5127                      .dwattr $C$DW$555, DW_AT_name("maxLicenses")
    5128                      .dwattr $C$DW$555, DW_AT_TI_symbol_name("_maxLicenses")
    5129                      .dwattr $C$DW$555, DW_AT_data_member_location[DW_OP_plus_uconst 0x2]
    5130                      .dwattr $C$DW$555, DW_AT_accessibility(DW_ACCESS_public)
    5131              $C$DW$556       .dwtag  DW_TAG_member
    5132                      .dwattr $C$DW$556, DW_AT_type(*$C$DW$T$48)
    5133                      .dwattr $C$DW$556, DW_AT_name("xStatus")
    5134                      .dwattr $C$DW$556, DW_AT_TI_symbol_name("_xStatus")
    5135                      .dwattr $C$DW$556, DW_AT_data_member_location[DW_OP_plus_uconst 0x4]
    5136                      .dwattr $C$DW$556, DW_AT_accessibility(DW_ACCESS_public)
    5137                      .dwendtag $C$DW$T$51
    5138              
    5139              $C$DW$T$58      .dwtag  DW_TAG_typedef, DW_AT_name("CSL_MMCCardXCsdObj")
    5140                      .dwattr $C$DW$T$58, DW_AT_type(*$C$DW$T$51)
    5141                      .dwattr $C$DW$T$58, DW_AT_language(DW_LANG_C)
    5142              $C$DW$T$59      .dwtag  DW_TAG_pointer_type
    5143                      .dwattr $C$DW$T$59, DW_AT_type(*$C$DW$T$58)
    5144                      .dwattr $C$DW$T$59, DW_AT_address_class(0x17)
    5145              
    5146              $C$DW$T$60      .dwtag  DW_TAG_structure_type
    5147                      .dwattr $C$DW$T$60, DW_AT_byte_size(0x1e)
    5148              $C$DW$557       .dwtag  DW_TAG_member
    5149                      .dwattr $C$DW$557, DW_AT_type(*$C$DW$T$19)
    5150                      .dwattr $C$DW$557, DW_AT_name("rca")
    5151                      .dwattr $C$DW$557, DW_AT_TI_symbol_name("_rca")
TMS320C55x Assembler PC v4.4.1 Sat Sep 29 23:09:00 2018

Tools Copyright (c) 1996-2012 Texas Instruments Incorporated
csl_mmcsd_dma_example.asm                                            PAGE  142

    5152                      .dwattr $C$DW$557, DW_AT_data_member_location[DW_OP_plus_uconst 0x0]
    5153                      .dwattr $C$DW$557, DW_AT_accessibility(DW_ACCESS_public)
    5154              $C$DW$558       .dwtag  DW_TAG_member
    5155                      .dwattr $C$DW$558, DW_AT_type(*$C$DW$T$19)
    5156                      .dwattr $C$DW$558, DW_AT_name("ST0")
    5157                      .dwattr $C$DW$558, DW_AT_TI_symbol_name("_ST0")
    5158                      .dwattr $C$DW$558, DW_AT_data_member_location[DW_OP_plus_uconst 0x1]
    5159                      .dwattr $C$DW$558, DW_AT_accessibility(DW_ACCESS_public)
    5160              $C$DW$559       .dwtag  DW_TAG_member
    5161                      .dwattr $C$DW$559, DW_AT_type(*$C$DW$T$19)
    5162                      .dwattr $C$DW$559, DW_AT_name("ST1")
    5163                      .dwattr $C$DW$559, DW_AT_TI_symbol_name("_ST1")
    5164                      .dwattr $C$DW$559, DW_AT_data_member_location[DW_OP_plus_uconst 0x2]
    5165                      .dwattr $C$DW$559, DW_AT_accessibility(DW_ACCESS_public)
    5166              $C$DW$560       .dwtag  DW_TAG_member
    5167                      .dwattr $C$DW$560, DW_AT_type(*$C$DW$T$19)
    5168                      .dwattr $C$DW$560, DW_AT_name("cardIndex")
    5169                      .dwattr $C$DW$560, DW_AT_TI_symbol_name("_cardIndex")
    5170                      .dwattr $C$DW$560, DW_AT_data_member_location[DW_OP_plus_uconst 0x3]
    5171                      .dwattr $C$DW$560, DW_AT_accessibility(DW_ACCESS_public)
    5172              $C$DW$561       .dwtag  DW_TAG_member
    5173                      .dwattr $C$DW$561, DW_AT_type(*$C$DW$T$48)
    5174                      .dwattr $C$DW$561, DW_AT_name("maxXfrRate")
    5175                      .dwattr $C$DW$561, DW_AT_TI_symbol_name("_maxXfrRate")
    5176                      .dwattr $C$DW$561, DW_AT_data_member_location[DW_OP_plus_uconst 0x4]
    5177                      .dwattr $C$DW$561, DW_AT_accessibility(DW_ACCESS_public)
    5178              $C$DW$562       .dwtag  DW_TAG_member
    5179                      .dwattr $C$DW$562, DW_AT_type(*$C$DW$T$48)
    5180                      .dwattr $C$DW$562, DW_AT_name("readAccessTime")
    5181                      .dwattr $C$DW$562, DW_AT_TI_symbol_name("_readAccessTime")
    5182                      .dwattr $C$DW$562, DW_AT_data_member_location[DW_OP_plus_uconst 0x6]
    5183                      .dwattr $C$DW$562, DW_AT_accessibility(DW_ACCESS_public)
    5184              $C$DW$563       .dwtag  DW_TAG_member
    5185                      .dwattr $C$DW$563, DW_AT_type(*$C$DW$T$48)
    5186                      .dwattr $C$DW$563, DW_AT_name("cardCapacity")
    5187                      .dwattr $C$DW$563, DW_AT_TI_symbol_name("_cardCapacity")
    5188                      .dwattr $C$DW$563, DW_AT_data_member_location[DW_OP_plus_uconst 0x8]
    5189                      .dwattr $C$DW$563, DW_AT_accessibility(DW_ACCESS_public)
    5190              $C$DW$564       .dwtag  DW_TAG_member
    5191                      .dwattr $C$DW$564, DW_AT_type(*$C$DW$T$48)
    5192                      .dwattr $C$DW$564, DW_AT_name("blockLength")
    5193                      .dwattr $C$DW$564, DW_AT_TI_symbol_name("_blockLength")
    5194                      .dwattr $C$DW$564, DW_AT_data_member_location[DW_OP_plus_uconst 0xa]
    5195                      .dwattr $C$DW$564, DW_AT_accessibility(DW_ACCESS_public)
    5196              $C$DW$565       .dwtag  DW_TAG_member
    5197                      .dwattr $C$DW$565, DW_AT_type(*$C$DW$T$48)
    5198                      .dwattr $C$DW$565, DW_AT_name("totalSectors")
    5199                      .dwattr $C$DW$565, DW_AT_TI_symbol_name("_totalSectors")
    5200                      .dwattr $C$DW$565, DW_AT_data_member_location[DW_OP_plus_uconst 0xc]
    5201                      .dwattr $C$DW$565, DW_AT_accessibility(DW_ACCESS_public)
    5202              $C$DW$566       .dwtag  DW_TAG_member
    5203                      .dwattr $C$DW$566, DW_AT_type(*$C$DW$T$48)
    5204                      .dwattr $C$DW$566, DW_AT_name("lastAddrRead")
    5205                      .dwattr $C$DW$566, DW_AT_TI_symbol_name("_lastAddrRead")
    5206                      .dwattr $C$DW$566, DW_AT_data_member_location[DW_OP_plus_uconst 0xe]
TMS320C55x Assembler PC v4.4.1 Sat Sep 29 23:09:00 2018

Tools Copyright (c) 1996-2012 Texas Instruments Incorporated
csl_mmcsd_dma_example.asm                                            PAGE  143

    5207                      .dwattr $C$DW$566, DW_AT_accessibility(DW_ACCESS_public)
    5208              $C$DW$567       .dwtag  DW_TAG_member
    5209                      .dwattr $C$DW$567, DW_AT_type(*$C$DW$T$48)
    5210                      .dwattr $C$DW$567, DW_AT_name("lastAddrWritten")
    5211                      .dwattr $C$DW$567, DW_AT_TI_symbol_name("_lastAddrWritten")
    5212                      .dwattr $C$DW$567, DW_AT_data_member_location[DW_OP_plus_uconst 0x10]
    5213                      .dwattr $C$DW$567, DW_AT_accessibility(DW_ACCESS_public)
    5214              $C$DW$568       .dwtag  DW_TAG_member
    5215                      .dwattr $C$DW$568, DW_AT_type(*$C$DW$T$53)
    5216                      .dwattr $C$DW$568, DW_AT_name("cardType")
    5217                      .dwattr $C$DW$568, DW_AT_TI_symbol_name("_cardType")
    5218                      .dwattr $C$DW$568, DW_AT_data_member_location[DW_OP_plus_uconst 0x12]
    5219                      .dwattr $C$DW$568, DW_AT_accessibility(DW_ACCESS_public)
    5220              $C$DW$569       .dwtag  DW_TAG_member
    5221                      .dwattr $C$DW$569, DW_AT_type(*$C$DW$T$55)
    5222                      .dwattr $C$DW$569, DW_AT_name("cid")
    5223                      .dwattr $C$DW$569, DW_AT_TI_symbol_name("_cid")
    5224                      .dwattr $C$DW$569, DW_AT_data_member_location[DW_OP_plus_uconst 0x14]
    5225                      .dwattr $C$DW$569, DW_AT_accessibility(DW_ACCESS_public)
    5226              $C$DW$570       .dwtag  DW_TAG_member
    5227                      .dwattr $C$DW$570, DW_AT_type(*$C$DW$T$57)
    5228                      .dwattr $C$DW$570, DW_AT_name("csd")
    5229                      .dwattr $C$DW$570, DW_AT_TI_symbol_name("_csd")
    5230                      .dwattr $C$DW$570, DW_AT_data_member_location[DW_OP_plus_uconst 0x16]
    5231                      .dwattr $C$DW$570, DW_AT_accessibility(DW_ACCESS_public)
    5232              $C$DW$571       .dwtag  DW_TAG_member
    5233                      .dwattr $C$DW$571, DW_AT_type(*$C$DW$T$59)
    5234                      .dwattr $C$DW$571, DW_AT_name("xcsd")
    5235                      .dwattr $C$DW$571, DW_AT_TI_symbol_name("_xcsd")
    5236                      .dwattr $C$DW$571, DW_AT_data_member_location[DW_OP_plus_uconst 0x18]
    5237                      .dwattr $C$DW$571, DW_AT_accessibility(DW_ACCESS_public)
    5238              $C$DW$572       .dwtag  DW_TAG_member
    5239                      .dwattr $C$DW$572, DW_AT_type(*$C$DW$T$31)
    5240                      .dwattr $C$DW$572, DW_AT_name("sdHcDetected")
    5241                      .dwattr $C$DW$572, DW_AT_TI_symbol_name("_sdHcDetected")
    5242                      .dwattr $C$DW$572, DW_AT_data_member_location[DW_OP_plus_uconst 0x1a]
    5243                      .dwattr $C$DW$572, DW_AT_accessibility(DW_ACCESS_public)
    5244              $C$DW$573       .dwtag  DW_TAG_member
    5245                      .dwattr $C$DW$573, DW_AT_type(*$C$DW$T$31)
    5246                      .dwattr $C$DW$573, DW_AT_name("cardAtaFsOpen")
    5247                      .dwattr $C$DW$573, DW_AT_TI_symbol_name("_cardAtaFsOpen")
    5248                      .dwattr $C$DW$573, DW_AT_data_member_location[DW_OP_plus_uconst 0x1b]
    5249                      .dwattr $C$DW$573, DW_AT_accessibility(DW_ACCESS_public)
    5250              $C$DW$574       .dwtag  DW_TAG_member
    5251                      .dwattr $C$DW$574, DW_AT_type(*$C$DW$T$19)
    5252                      .dwattr $C$DW$574, DW_AT_name("cardMscStatus")
    5253                      .dwattr $C$DW$574, DW_AT_TI_symbol_name("_cardMscStatus")
    5254                      .dwattr $C$DW$574, DW_AT_data_member_location[DW_OP_plus_uconst 0x1c]
    5255                      .dwattr $C$DW$574, DW_AT_accessibility(DW_ACCESS_public)
    5256                      .dwendtag $C$DW$T$60
    5257              
    5258              $C$DW$T$81      .dwtag  DW_TAG_typedef, DW_AT_name("CSL_MMCCardObj")
    5259                      .dwattr $C$DW$T$81, DW_AT_type(*$C$DW$T$60)
    5260                      .dwattr $C$DW$T$81, DW_AT_language(DW_LANG_C)
    5261              $C$DW$T$82      .dwtag  DW_TAG_pointer_type
TMS320C55x Assembler PC v4.4.1 Sat Sep 29 23:09:00 2018

Tools Copyright (c) 1996-2012 Texas Instruments Incorporated
csl_mmcsd_dma_example.asm                                            PAGE  144

    5262                      .dwattr $C$DW$T$82, DW_AT_type(*$C$DW$T$81)
    5263                      .dwattr $C$DW$T$82, DW_AT_address_class(0x17)
    5264              
    5265              $C$DW$T$65      .dwtag  DW_TAG_structure_type
    5266                      .dwattr $C$DW$T$65, DW_AT_byte_size(0x18)
    5267              $C$DW$575       .dwtag  DW_TAG_member
    5268                      .dwattr $C$DW$575, DW_AT_type(*$C$DW$T$64)
    5269                      .dwattr $C$DW$575, DW_AT_name("isr")
    5270                      .dwattr $C$DW$575, DW_AT_TI_symbol_name("_isr")
    5271                      .dwattr $C$DW$575, DW_AT_data_member_location[DW_OP_plus_uconst 0x0]
    5272                      .dwattr $C$DW$575, DW_AT_accessibility(DW_ACCESS_public)
    5273                      .dwendtag $C$DW$T$65
    5274              
    5275              $C$DW$T$83      .dwtag  DW_TAG_typedef, DW_AT_name("CSL_MMCCallBackObj")
    5276                      .dwattr $C$DW$T$83, DW_AT_type(*$C$DW$T$65)
    5277                      .dwattr $C$DW$T$83, DW_AT_language(DW_LANG_C)
    5278              $C$DW$T$84      .dwtag  DW_TAG_pointer_type
    5279                      .dwattr $C$DW$T$84, DW_AT_type(*$C$DW$T$83)
    5280                      .dwattr $C$DW$T$84, DW_AT_address_class(0x17)
    5281              
    5282              $C$DW$T$74      .dwtag  DW_TAG_structure_type
    5283                      .dwattr $C$DW$T$74, DW_AT_byte_size(0x0e)
    5284              $C$DW$576       .dwtag  DW_TAG_member
    5285                      .dwattr $C$DW$576, DW_AT_type(*$C$DW$T$67)
    5286                      .dwattr $C$DW$576, DW_AT_name("pingPongMode")
    5287                      .dwattr $C$DW$576, DW_AT_TI_symbol_name("_pingPongMode")
    5288                      .dwattr $C$DW$576, DW_AT_data_member_location[DW_OP_plus_uconst 0x0]
    5289                      .dwattr $C$DW$576, DW_AT_accessibility(DW_ACCESS_public)
    5290              $C$DW$577       .dwtag  DW_TAG_member
    5291                      .dwattr $C$DW$577, DW_AT_type(*$C$DW$T$69)
    5292                      .dwattr $C$DW$577, DW_AT_name("autoMode")
    5293                      .dwattr $C$DW$577, DW_AT_TI_symbol_name("_autoMode")
    5294                      .dwattr $C$DW$577, DW_AT_data_member_location[DW_OP_plus_uconst 0x1]
    5295                      .dwattr $C$DW$577, DW_AT_accessibility(DW_ACCESS_public)
    5296              $C$DW$578       .dwtag  DW_TAG_member
    5297                      .dwattr $C$DW$578, DW_AT_type(*$C$DW$T$71)
    5298                      .dwattr $C$DW$578, DW_AT_name("burstLen")
    5299                      .dwattr $C$DW$578, DW_AT_TI_symbol_name("_burstLen")
    5300                      .dwattr $C$DW$578, DW_AT_data_member_location[DW_OP_plus_uconst 0x2]
    5301                      .dwattr $C$DW$578, DW_AT_accessibility(DW_ACCESS_public)
    5302              $C$DW$579       .dwtag  DW_TAG_member
    5303                      .dwattr $C$DW$579, DW_AT_type(*$C$DW$T$35)
    5304                      .dwattr $C$DW$579, DW_AT_name("trigger")
    5305                      .dwattr $C$DW$579, DW_AT_TI_symbol_name("_trigger")
    5306                      .dwattr $C$DW$579, DW_AT_data_member_location[DW_OP_plus_uconst 0x3]
    5307                      .dwattr $C$DW$579, DW_AT_accessibility(DW_ACCESS_public)
    5308              $C$DW$580       .dwtag  DW_TAG_member
    5309                      .dwattr $C$DW$580, DW_AT_type(*$C$DW$T$73)
    5310                      .dwattr $C$DW$580, DW_AT_name("dmaEvt")
    5311                      .dwattr $C$DW$580, DW_AT_TI_symbol_name("_dmaEvt")
    5312                      .dwattr $C$DW$580, DW_AT_data_member_location[DW_OP_plus_uconst 0x4]
    5313                      .dwattr $C$DW$580, DW_AT_accessibility(DW_ACCESS_public)
    5314              $C$DW$581       .dwtag  DW_TAG_member
    5315                      .dwattr $C$DW$581, DW_AT_type(*$C$DW$T$39)
    5316                      .dwattr $C$DW$581, DW_AT_name("dmaInt")
TMS320C55x Assembler PC v4.4.1 Sat Sep 29 23:09:00 2018

Tools Copyright (c) 1996-2012 Texas Instruments Incorporated
csl_mmcsd_dma_example.asm                                            PAGE  145

    5317                      .dwattr $C$DW$581, DW_AT_TI_symbol_name("_dmaInt")
    5318                      .dwattr $C$DW$581, DW_AT_data_member_location[DW_OP_plus_uconst 0x5]
    5319                      .dwattr $C$DW$581, DW_AT_accessibility(DW_ACCESS_public)
    5320              $C$DW$582       .dwtag  DW_TAG_member
    5321                      .dwattr $C$DW$582, DW_AT_type(*$C$DW$T$33)
    5322                      .dwattr $C$DW$582, DW_AT_name("chanDir")
    5323                      .dwattr $C$DW$582, DW_AT_TI_symbol_name("_chanDir")
    5324                      .dwattr $C$DW$582, DW_AT_data_member_location[DW_OP_plus_uconst 0x6]
    5325                      .dwattr $C$DW$582, DW_AT_accessibility(DW_ACCESS_public)
    5326              $C$DW$583       .dwtag  DW_TAG_member
    5327                      .dwattr $C$DW$583, DW_AT_type(*$C$DW$T$37)
    5328                      .dwattr $C$DW$583, DW_AT_name("trfType")
    5329                      .dwattr $C$DW$583, DW_AT_TI_symbol_name("_trfType")
    5330                      .dwattr $C$DW$583, DW_AT_data_member_location[DW_OP_plus_uconst 0x7]
    5331                      .dwattr $C$DW$583, DW_AT_accessibility(DW_ACCESS_public)
    5332              $C$DW$584       .dwtag  DW_TAG_member
    5333                      .dwattr $C$DW$584, DW_AT_type(*$C$DW$T$19)
    5334                      .dwattr $C$DW$584, DW_AT_name("dataLen")
    5335                      .dwattr $C$DW$584, DW_AT_TI_symbol_name("_dataLen")
    5336                      .dwattr $C$DW$584, DW_AT_data_member_location[DW_OP_plus_uconst 0x8]
    5337                      .dwattr $C$DW$584, DW_AT_accessibility(DW_ACCESS_public)
    5338              $C$DW$585       .dwtag  DW_TAG_member
    5339                      .dwattr $C$DW$585, DW_AT_type(*$C$DW$T$48)
    5340                      .dwattr $C$DW$585, DW_AT_name("srcAddr")
    5341                      .dwattr $C$DW$585, DW_AT_TI_symbol_name("_srcAddr")
    5342                      .dwattr $C$DW$585, DW_AT_data_member_location[DW_OP_plus_uconst 0xa]
    5343                      .dwattr $C$DW$585, DW_AT_accessibility(DW_ACCESS_public)
    5344              $C$DW$586       .dwtag  DW_TAG_member
    5345                      .dwattr $C$DW$586, DW_AT_type(*$C$DW$T$48)
    5346                      .dwattr $C$DW$586, DW_AT_name("destAddr")
    5347                      .dwattr $C$DW$586, DW_AT_TI_symbol_name("_destAddr")
    5348                      .dwattr $C$DW$586, DW_AT_data_member_location[DW_OP_plus_uconst 0xc]
    5349                      .dwattr $C$DW$586, DW_AT_accessibility(DW_ACCESS_public)
    5350                      .dwendtag $C$DW$T$74
    5351              
    5352              $C$DW$T$90      .dwtag  DW_TAG_typedef, DW_AT_name("CSL_DMA_Config")
    5353                      .dwattr $C$DW$T$90, DW_AT_type(*$C$DW$T$74)
    5354                      .dwattr $C$DW$T$90, DW_AT_language(DW_LANG_C)
    5355              
    5356              $C$DW$T$75      .dwtag  DW_TAG_structure_type
    5357                      .dwattr $C$DW$T$75, DW_AT_byte_size(0x08)
    5358              $C$DW$587       .dwtag  DW_TAG_member
    5359                      .dwattr $C$DW$587, DW_AT_type(*$C$DW$T$19)
    5360                      .dwattr $C$DW$587, DW_AT_name("slice127_112")
    5361                      .dwattr $C$DW$587, DW_AT_TI_symbol_name("_slice127_112")
    5362                      .dwattr $C$DW$587, DW_AT_data_member_location[DW_OP_plus_uconst 0x0]
    5363                      .dwattr $C$DW$587, DW_AT_accessibility(DW_ACCESS_public)
    5364              $C$DW$588       .dwtag  DW_TAG_member
    5365                      .dwattr $C$DW$588, DW_AT_type(*$C$DW$T$19)
    5366                      .dwattr $C$DW$588, DW_AT_name("slice111_96")
    5367                      .dwattr $C$DW$588, DW_AT_TI_symbol_name("_slice111_96")
    5368                      .dwattr $C$DW$588, DW_AT_data_member_location[DW_OP_plus_uconst 0x1]
    5369                      .dwattr $C$DW$588, DW_AT_accessibility(DW_ACCESS_public)
    5370              $C$DW$589       .dwtag  DW_TAG_member
    5371                      .dwattr $C$DW$589, DW_AT_type(*$C$DW$T$19)
TMS320C55x Assembler PC v4.4.1 Sat Sep 29 23:09:00 2018

Tools Copyright (c) 1996-2012 Texas Instruments Incorporated
csl_mmcsd_dma_example.asm                                            PAGE  146

    5372                      .dwattr $C$DW$589, DW_AT_name("slice95_80")
    5373                      .dwattr $C$DW$589, DW_AT_TI_symbol_name("_slice95_80")
    5374                      .dwattr $C$DW$589, DW_AT_data_member_location[DW_OP_plus_uconst 0x2]
    5375                      .dwattr $C$DW$589, DW_AT_accessibility(DW_ACCESS_public)
    5376              $C$DW$590       .dwtag  DW_TAG_member
    5377                      .dwattr $C$DW$590, DW_AT_type(*$C$DW$T$19)
    5378                      .dwattr $C$DW$590, DW_AT_name("slice79_64")
    5379                      .dwattr $C$DW$590, DW_AT_TI_symbol_name("_slice79_64")
    5380                      .dwattr $C$DW$590, DW_AT_data_member_location[DW_OP_plus_uconst 0x3]
    5381                      .dwattr $C$DW$590, DW_AT_accessibility(DW_ACCESS_public)
    5382              $C$DW$591       .dwtag  DW_TAG_member
    5383                      .dwattr $C$DW$591, DW_AT_type(*$C$DW$T$19)
    5384                      .dwattr $C$DW$591, DW_AT_name("slice63_48")
    5385                      .dwattr $C$DW$591, DW_AT_TI_symbol_name("_slice63_48")
    5386                      .dwattr $C$DW$591, DW_AT_data_member_location[DW_OP_plus_uconst 0x4]
    5387                      .dwattr $C$DW$591, DW_AT_accessibility(DW_ACCESS_public)
    5388              $C$DW$592       .dwtag  DW_TAG_member
    5389                      .dwattr $C$DW$592, DW_AT_type(*$C$DW$T$19)
    5390                      .dwattr $C$DW$592, DW_AT_name("slice47_32")
    5391                      .dwattr $C$DW$592, DW_AT_TI_symbol_name("_slice47_32")
    5392                      .dwattr $C$DW$592, DW_AT_data_member_location[DW_OP_plus_uconst 0x5]
    5393                      .dwattr $C$DW$592, DW_AT_accessibility(DW_ACCESS_public)
    5394              $C$DW$593       .dwtag  DW_TAG_member
    5395                      .dwattr $C$DW$593, DW_AT_type(*$C$DW$T$19)
    5396                      .dwattr $C$DW$593, DW_AT_name("slice31_16")
    5397                      .dwattr $C$DW$593, DW_AT_TI_symbol_name("_slice31_16")
    5398                      .dwattr $C$DW$593, DW_AT_data_member_location[DW_OP_plus_uconst 0x6]
    5399                      .dwattr $C$DW$593, DW_AT_accessibility(DW_ACCESS_public)
    5400              $C$DW$594       .dwtag  DW_TAG_member
    5401                      .dwattr $C$DW$594, DW_AT_type(*$C$DW$T$19)
    5402                      .dwattr $C$DW$594, DW_AT_name("slice15_0")
    5403                      .dwattr $C$DW$594, DW_AT_TI_symbol_name("_slice15_0")
    5404                      .dwattr $C$DW$594, DW_AT_data_member_location[DW_OP_plus_uconst 0x7]
    5405                      .dwattr $C$DW$594, DW_AT_accessibility(DW_ACCESS_public)
    5406                      .dwendtag $C$DW$T$75
    5407              
    5408              $C$DW$T$94      .dwtag  DW_TAG_typedef, DW_AT_name("CSL_MMCSDCidStruct")
    5409                      .dwattr $C$DW$T$94, DW_AT_type(*$C$DW$T$75)
    5410                      .dwattr $C$DW$T$94, DW_AT_language(DW_LANG_C)
    5411              
    5412              $C$DW$T$76      .dwtag  DW_TAG_structure_type
    5413                      .dwattr $C$DW$T$76, DW_AT_byte_size(0x08)
    5414              $C$DW$595       .dwtag  DW_TAG_member
    5415                      .dwattr $C$DW$595, DW_AT_type(*$C$DW$T$19)
    5416                      .dwattr $C$DW$595, DW_AT_name("slice127_112")
    5417                      .dwattr $C$DW$595, DW_AT_TI_symbol_name("_slice127_112")
    5418                      .dwattr $C$DW$595, DW_AT_data_member_location[DW_OP_plus_uconst 0x0]
    5419                      .dwattr $C$DW$595, DW_AT_accessibility(DW_ACCESS_public)
    5420              $C$DW$596       .dwtag  DW_TAG_member
    5421                      .dwattr $C$DW$596, DW_AT_type(*$C$DW$T$19)
    5422                      .dwattr $C$DW$596, DW_AT_name("slice111_96")
    5423                      .dwattr $C$DW$596, DW_AT_TI_symbol_name("_slice111_96")
    5424                      .dwattr $C$DW$596, DW_AT_data_member_location[DW_OP_plus_uconst 0x1]
    5425                      .dwattr $C$DW$596, DW_AT_accessibility(DW_ACCESS_public)
    5426              $C$DW$597       .dwtag  DW_TAG_member
TMS320C55x Assembler PC v4.4.1 Sat Sep 29 23:09:00 2018

Tools Copyright (c) 1996-2012 Texas Instruments Incorporated
csl_mmcsd_dma_example.asm                                            PAGE  147

    5427                      .dwattr $C$DW$597, DW_AT_type(*$C$DW$T$19)
    5428                      .dwattr $C$DW$597, DW_AT_name("slice95_80")
    5429                      .dwattr $C$DW$597, DW_AT_TI_symbol_name("_slice95_80")
    5430                      .dwattr $C$DW$597, DW_AT_data_member_location[DW_OP_plus_uconst 0x2]
    5431                      .dwattr $C$DW$597, DW_AT_accessibility(DW_ACCESS_public)
    5432              $C$DW$598       .dwtag  DW_TAG_member
    5433                      .dwattr $C$DW$598, DW_AT_type(*$C$DW$T$19)
    5434                      .dwattr $C$DW$598, DW_AT_name("slice79_64")
    5435                      .dwattr $C$DW$598, DW_AT_TI_symbol_name("_slice79_64")
    5436                      .dwattr $C$DW$598, DW_AT_data_member_location[DW_OP_plus_uconst 0x3]
    5437                      .dwattr $C$DW$598, DW_AT_accessibility(DW_ACCESS_public)
    5438              $C$DW$599       .dwtag  DW_TAG_member
    5439                      .dwattr $C$DW$599, DW_AT_type(*$C$DW$T$19)
    5440                      .dwattr $C$DW$599, DW_AT_name("slice63_48")
    5441                      .dwattr $C$DW$599, DW_AT_TI_symbol_name("_slice63_48")
    5442                      .dwattr $C$DW$599, DW_AT_data_member_location[DW_OP_plus_uconst 0x4]
    5443                      .dwattr $C$DW$599, DW_AT_accessibility(DW_ACCESS_public)
    5444              $C$DW$600       .dwtag  DW_TAG_member
    5445                      .dwattr $C$DW$600, DW_AT_type(*$C$DW$T$19)
    5446                      .dwattr $C$DW$600, DW_AT_name("slice47_32")
    5447                      .dwattr $C$DW$600, DW_AT_TI_symbol_name("_slice47_32")
    5448                      .dwattr $C$DW$600, DW_AT_data_member_location[DW_OP_plus_uconst 0x5]
    5449                      .dwattr $C$DW$600, DW_AT_accessibility(DW_ACCESS_public)
    5450              $C$DW$601       .dwtag  DW_TAG_member
    5451                      .dwattr $C$DW$601, DW_AT_type(*$C$DW$T$19)
    5452                      .dwattr $C$DW$601, DW_AT_name("slice31_16")
    5453                      .dwattr $C$DW$601, DW_AT_TI_symbol_name("_slice31_16")
    5454                      .dwattr $C$DW$601, DW_AT_data_member_location[DW_OP_plus_uconst 0x6]
    5455                      .dwattr $C$DW$601, DW_AT_accessibility(DW_ACCESS_public)
    5456              $C$DW$602       .dwtag  DW_TAG_member
    5457                      .dwattr $C$DW$602, DW_AT_type(*$C$DW$T$19)
    5458                      .dwattr $C$DW$602, DW_AT_name("slice15_0")
    5459                      .dwattr $C$DW$602, DW_AT_TI_symbol_name("_slice15_0")
    5460                      .dwattr $C$DW$602, DW_AT_data_member_location[DW_OP_plus_uconst 0x7]
    5461                      .dwattr $C$DW$602, DW_AT_accessibility(DW_ACCESS_public)
    5462                      .dwendtag $C$DW$T$76
    5463              
    5464              $C$DW$T$95      .dwtag  DW_TAG_typedef, DW_AT_name("CSL_MMCSDCsdStruct")
    5465                      .dwattr $C$DW$T$95, DW_AT_type(*$C$DW$T$76)
    5466                      .dwattr $C$DW$T$95, DW_AT_language(DW_LANG_C)
    5467              
    5468              $C$DW$T$98      .dwtag  DW_TAG_structure_type
    5469                      .dwattr $C$DW$T$98, DW_AT_byte_size(0x40)
    5470              $C$DW$603       .dwtag  DW_TAG_member
    5471                      .dwattr $C$DW$603, DW_AT_type(*$C$DW$T$80)
    5472                      .dwattr $C$DW$603, DW_AT_name("mmcRegs")
    5473                      .dwattr $C$DW$603, DW_AT_TI_symbol_name("_mmcRegs")
    5474                      .dwattr $C$DW$603, DW_AT_data_member_location[DW_OP_plus_uconst 0x0]
    5475                      .dwattr $C$DW$603, DW_AT_accessibility(DW_ACCESS_public)
    5476              $C$DW$604       .dwtag  DW_TAG_member
    5477                      .dwattr $C$DW$604, DW_AT_type(*$C$DW$T$82)
    5478                      .dwattr $C$DW$604, DW_AT_name("cardObj")
    5479                      .dwattr $C$DW$604, DW_AT_TI_symbol_name("_cardObj")
    5480                      .dwattr $C$DW$604, DW_AT_data_member_location[DW_OP_plus_uconst 0x2]
    5481                      .dwattr $C$DW$604, DW_AT_accessibility(DW_ACCESS_public)
TMS320C55x Assembler PC v4.4.1 Sat Sep 29 23:09:00 2018

Tools Copyright (c) 1996-2012 Texas Instruments Incorporated
csl_mmcsd_dma_example.asm                                            PAGE  148

    5482              $C$DW$605       .dwtag  DW_TAG_member
    5483                      .dwattr $C$DW$605, DW_AT_type(*$C$DW$T$19)
    5484                      .dwattr $C$DW$605, DW_AT_name("numCardsActive")
    5485                      .dwattr $C$DW$605, DW_AT_TI_symbol_name("_numCardsActive")
    5486                      .dwattr $C$DW$605, DW_AT_data_member_location[DW_OP_plus_uconst 0x4]
    5487                      .dwattr $C$DW$605, DW_AT_accessibility(DW_ACCESS_public)
    5488              $C$DW$606       .dwtag  DW_TAG_member
    5489                      .dwattr $C$DW$606, DW_AT_type(*$C$DW$T$84)
    5490                      .dwattr $C$DW$606, DW_AT_name("callBackTbl")
    5491                      .dwattr $C$DW$606, DW_AT_TI_symbol_name("_callBackTbl")
    5492                      .dwattr $C$DW$606, DW_AT_data_member_location[DW_OP_plus_uconst 0x6]
    5493                      .dwattr $C$DW$606, DW_AT_accessibility(DW_ACCESS_public)
    5494              $C$DW$607       .dwtag  DW_TAG_member
    5495                      .dwattr $C$DW$607, DW_AT_type(*$C$DW$T$86)
    5496                      .dwattr $C$DW$607, DW_AT_name("opMode")
    5497                      .dwattr $C$DW$607, DW_AT_TI_symbol_name("_opMode")
    5498                      .dwattr $C$DW$607, DW_AT_data_member_location[DW_OP_plus_uconst 0x8]
    5499                      .dwattr $C$DW$607, DW_AT_accessibility(DW_ACCESS_public)
    5500              $C$DW$608       .dwtag  DW_TAG_member
    5501                      .dwattr $C$DW$608, DW_AT_type(*$C$DW$T$89)
    5502                      .dwattr $C$DW$608, DW_AT_name("hDmaWrite")
    5503                      .dwattr $C$DW$608, DW_AT_TI_symbol_name("_hDmaWrite")
    5504                      .dwattr $C$DW$608, DW_AT_data_member_location[DW_OP_plus_uconst 0xa]
    5505                      .dwattr $C$DW$608, DW_AT_accessibility(DW_ACCESS_public)
    5506              $C$DW$609       .dwtag  DW_TAG_member
    5507                      .dwattr $C$DW$609, DW_AT_type(*$C$DW$T$89)
    5508                      .dwattr $C$DW$609, DW_AT_name("hDmaRead")
    5509                      .dwattr $C$DW$609, DW_AT_TI_symbol_name("_hDmaRead")
    5510                      .dwattr $C$DW$609, DW_AT_data_member_location[DW_OP_plus_uconst 0xc]
    5511                      .dwattr $C$DW$609, DW_AT_accessibility(DW_ACCESS_public)
    5512              $C$DW$610       .dwtag  DW_TAG_member
    5513                      .dwattr $C$DW$610, DW_AT_type(*$C$DW$T$90)
    5514                      .dwattr $C$DW$610, DW_AT_name("dmaWriteCfg")
    5515                      .dwattr $C$DW$610, DW_AT_TI_symbol_name("_dmaWriteCfg")
    5516                      .dwattr $C$DW$610, DW_AT_data_member_location[DW_OP_plus_uconst 0xe]
    5517                      .dwattr $C$DW$610, DW_AT_accessibility(DW_ACCESS_public)
    5518              $C$DW$611       .dwtag  DW_TAG_member
    5519                      .dwattr $C$DW$611, DW_AT_type(*$C$DW$T$90)
    5520                      .dwattr $C$DW$611, DW_AT_name("dmaReadCfg")
    5521                      .dwattr $C$DW$611, DW_AT_TI_symbol_name("_dmaReadCfg")
    5522                      .dwattr $C$DW$611, DW_AT_data_member_location[DW_OP_plus_uconst 0x1c]
    5523                      .dwattr $C$DW$611, DW_AT_accessibility(DW_ACCESS_public)
    5524              $C$DW$612       .dwtag  DW_TAG_member
    5525                      .dwattr $C$DW$612, DW_AT_type(*$C$DW$T$93)
    5526                      .dwattr $C$DW$612, DW_AT_name("dataTransferCallback")
    5527                      .dwattr $C$DW$612, DW_AT_TI_symbol_name("_dataTransferCallback")
    5528                      .dwattr $C$DW$612, DW_AT_data_member_location[DW_OP_plus_uconst 0x2a]
    5529                      .dwattr $C$DW$612, DW_AT_accessibility(DW_ACCESS_public)
    5530              $C$DW$613       .dwtag  DW_TAG_member
    5531                      .dwattr $C$DW$613, DW_AT_type(*$C$DW$T$31)
    5532                      .dwattr $C$DW$613, DW_AT_name("isCallbackSet")
    5533                      .dwattr $C$DW$613, DW_AT_TI_symbol_name("_isCallbackSet")
    5534                      .dwattr $C$DW$613, DW_AT_data_member_location[DW_OP_plus_uconst 0x2c]
    5535                      .dwattr $C$DW$613, DW_AT_accessibility(DW_ACCESS_public)
    5536              $C$DW$614       .dwtag  DW_TAG_member
TMS320C55x Assembler PC v4.4.1 Sat Sep 29 23:09:00 2018

Tools Copyright (c) 1996-2012 Texas Instruments Incorporated
csl_mmcsd_dma_example.asm                                            PAGE  149

    5537                      .dwattr $C$DW$614, DW_AT_type(*$C$DW$T$94)
    5538                      .dwattr $C$DW$614, DW_AT_name("cidSliceInfo")
    5539                      .dwattr $C$DW$614, DW_AT_TI_symbol_name("_cidSliceInfo")
    5540                      .dwattr $C$DW$614, DW_AT_data_member_location[DW_OP_plus_uconst 0x2d]
    5541                      .dwattr $C$DW$614, DW_AT_accessibility(DW_ACCESS_public)
    5542              $C$DW$615       .dwtag  DW_TAG_member
    5543                      .dwattr $C$DW$615, DW_AT_type(*$C$DW$T$95)
    5544                      .dwattr $C$DW$615, DW_AT_name("csdSliceInfo")
    5545                      .dwattr $C$DW$615, DW_AT_TI_symbol_name("_csdSliceInfo")
    5546                      .dwattr $C$DW$615, DW_AT_data_member_location[DW_OP_plus_uconst 0x35]
    5547                      .dwattr $C$DW$615, DW_AT_accessibility(DW_ACCESS_public)
    5548              $C$DW$616       .dwtag  DW_TAG_member
    5549                      .dwattr $C$DW$616, DW_AT_type(*$C$DW$T$97)
    5550                      .dwattr $C$DW$616, DW_AT_name("readEndianMode")
    5551                      .dwattr $C$DW$616, DW_AT_TI_symbol_name("_readEndianMode")
    5552                      .dwattr $C$DW$616, DW_AT_data_member_location[DW_OP_plus_uconst 0x3d]
    5553                      .dwattr $C$DW$616, DW_AT_accessibility(DW_ACCESS_public)
    5554              $C$DW$617       .dwtag  DW_TAG_member
    5555                      .dwattr $C$DW$617, DW_AT_type(*$C$DW$T$97)
    5556                      .dwattr $C$DW$617, DW_AT_name("writeEndianMode")
    5557                      .dwattr $C$DW$617, DW_AT_TI_symbol_name("_writeEndianMode")
    5558                      .dwattr $C$DW$617, DW_AT_data_member_location[DW_OP_plus_uconst 0x3e]
    5559                      .dwattr $C$DW$617, DW_AT_accessibility(DW_ACCESS_public)
    5560              $C$DW$618       .dwtag  DW_TAG_member
    5561                      .dwattr $C$DW$618, DW_AT_type(*$C$DW$T$19)
    5562                      .dwattr $C$DW$618, DW_AT_name("blockLen")
    5563                      .dwattr $C$DW$618, DW_AT_TI_symbol_name("_blockLen")
    5564                      .dwattr $C$DW$618, DW_AT_data_member_location[DW_OP_plus_uconst 0x3f]
    5565                      .dwattr $C$DW$618, DW_AT_accessibility(DW_ACCESS_public)
    5566                      .dwendtag $C$DW$T$98
    5567              
    5568              $C$DW$T$110     .dwtag  DW_TAG_typedef, DW_AT_name("CSL_MMCControllerObj")
    5569                      .dwattr $C$DW$T$110, DW_AT_type(*$C$DW$T$98)
    5570                      .dwattr $C$DW$T$110, DW_AT_language(DW_LANG_C)
    5571              $C$DW$T$111     .dwtag  DW_TAG_pointer_type
    5572                      .dwattr $C$DW$T$111, DW_AT_type(*$C$DW$T$110)
    5573                      .dwattr $C$DW$T$111, DW_AT_address_class(0x17)
    5574              $C$DW$T$112     .dwtag  DW_TAG_typedef, DW_AT_name("CSL_MmcsdHandle")
    5575                      .dwattr $C$DW$T$112, DW_AT_type(*$C$DW$T$111)
    5576                      .dwattr $C$DW$T$112, DW_AT_language(DW_LANG_C)
    5577              
    5578              $C$DW$T$99      .dwtag  DW_TAG_structure_type
    5579                      .dwattr $C$DW$T$99, DW_AT_byte_size(0x05)
    5580              $C$DW$619       .dwtag  DW_TAG_member
    5581                      .dwattr $C$DW$619, DW_AT_type(*$C$DW$T$31)
    5582                      .dwattr $C$DW$619, DW_AT_name("pingPongEnable")
    5583                      .dwattr $C$DW$619, DW_AT_TI_symbol_name("_pingPongEnable")
    5584                      .dwattr $C$DW$619, DW_AT_data_member_location[DW_OP_plus_uconst 0x0]
    5585                      .dwattr $C$DW$619, DW_AT_accessibility(DW_ACCESS_public)
    5586              $C$DW$620       .dwtag  DW_TAG_member
    5587                      .dwattr $C$DW$620, DW_AT_type(*$C$DW$T$69)
    5588                      .dwattr $C$DW$620, DW_AT_name("autoMode")
    5589                      .dwattr $C$DW$620, DW_AT_TI_symbol_name("_autoMode")
    5590                      .dwattr $C$DW$620, DW_AT_data_member_location[DW_OP_plus_uconst 0x1]
    5591                      .dwattr $C$DW$620, DW_AT_accessibility(DW_ACCESS_public)
TMS320C55x Assembler PC v4.4.1 Sat Sep 29 23:09:00 2018

Tools Copyright (c) 1996-2012 Texas Instruments Incorporated
csl_mmcsd_dma_example.asm                                            PAGE  150

    5592              $C$DW$621       .dwtag  DW_TAG_member
    5593                      .dwattr $C$DW$621, DW_AT_type(*$C$DW$T$71)
    5594                      .dwattr $C$DW$621, DW_AT_name("burstLen")
    5595                      .dwattr $C$DW$621, DW_AT_TI_symbol_name("_burstLen")
    5596                      .dwattr $C$DW$621, DW_AT_data_member_location[DW_OP_plus_uconst 0x2]
    5597                      .dwattr $C$DW$621, DW_AT_accessibility(DW_ACCESS_public)
    5598              $C$DW$622       .dwtag  DW_TAG_member
    5599                      .dwattr $C$DW$622, DW_AT_type(*$C$DW$T$39)
    5600                      .dwattr $C$DW$622, DW_AT_name("dmaInt")
    5601                      .dwattr $C$DW$622, DW_AT_TI_symbol_name("_dmaInt")
    5602                      .dwattr $C$DW$622, DW_AT_data_member_location[DW_OP_plus_uconst 0x3]
    5603                      .dwattr $C$DW$622, DW_AT_accessibility(DW_ACCESS_public)
    5604              $C$DW$623       .dwtag  DW_TAG_member
    5605                      .dwattr $C$DW$623, DW_AT_type(*$C$DW$T$33)
    5606                      .dwattr $C$DW$623, DW_AT_name("chanDir")
    5607                      .dwattr $C$DW$623, DW_AT_TI_symbol_name("_chanDir")
    5608                      .dwattr $C$DW$623, DW_AT_data_member_location[DW_OP_plus_uconst 0x4]
    5609                      .dwattr $C$DW$623, DW_AT_accessibility(DW_ACCESS_public)
    5610                      .dwendtag $C$DW$T$99
    5611              
    5612              $C$DW$T$115     .dwtag  DW_TAG_typedef, DW_AT_name("CSL_MmcsdDmaConfig")
    5613                      .dwattr $C$DW$T$115, DW_AT_type(*$C$DW$T$99)
    5614                      .dwattr $C$DW$T$115, DW_AT_language(DW_LANG_C)
    5615              
    5616              $C$DW$T$102     .dwtag  DW_TAG_structure_type
    5617                      .dwattr $C$DW$T$102, DW_AT_byte_size(0x48)
    5618              $C$DW$624       .dwtag  DW_TAG_member
    5619                      .dwattr $C$DW$624, DW_AT_type(*$C$DW$T$20)
    5620                      .dwattr $C$DW$624, DW_AT_name("EBSR")
    5621                      .dwattr $C$DW$624, DW_AT_TI_symbol_name("_EBSR")
    5622                      .dwattr $C$DW$624, DW_AT_data_member_location[DW_OP_plus_uconst 0x0]
    5623                      .dwattr $C$DW$624, DW_AT_accessibility(DW_ACCESS_public)
    5624              $C$DW$625       .dwtag  DW_TAG_member
    5625                      .dwattr $C$DW$625, DW_AT_type(*$C$DW$T$20)
    5626                      .dwattr $C$DW$625, DW_AT_name("RSVD0")
    5627                      .dwattr $C$DW$625, DW_AT_TI_symbol_name("_RSVD0")
    5628                      .dwattr $C$DW$625, DW_AT_data_member_location[DW_OP_plus_uconst 0x1]
    5629                      .dwattr $C$DW$625, DW_AT_accessibility(DW_ACCESS_public)
    5630              $C$DW$626       .dwtag  DW_TAG_member
    5631                      .dwattr $C$DW$626, DW_AT_type(*$C$DW$T$20)
    5632                      .dwattr $C$DW$626, DW_AT_name("PCGCR1")
    5633                      .dwattr $C$DW$626, DW_AT_TI_symbol_name("_PCGCR1")
    5634                      .dwattr $C$DW$626, DW_AT_data_member_location[DW_OP_plus_uconst 0x2]
    5635                      .dwattr $C$DW$626, DW_AT_accessibility(DW_ACCESS_public)
    5636              $C$DW$627       .dwtag  DW_TAG_member
    5637                      .dwattr $C$DW$627, DW_AT_type(*$C$DW$T$20)
    5638                      .dwattr $C$DW$627, DW_AT_name("PCGCR2")
    5639                      .dwattr $C$DW$627, DW_AT_TI_symbol_name("_PCGCR2")
    5640                      .dwattr $C$DW$627, DW_AT_data_member_location[DW_OP_plus_uconst 0x3]
    5641                      .dwattr $C$DW$627, DW_AT_accessibility(DW_ACCESS_public)
    5642              $C$DW$628       .dwtag  DW_TAG_member
    5643                      .dwattr $C$DW$628, DW_AT_type(*$C$DW$T$20)
    5644                      .dwattr $C$DW$628, DW_AT_name("PSRCR")
    5645                      .dwattr $C$DW$628, DW_AT_TI_symbol_name("_PSRCR")
    5646                      .dwattr $C$DW$628, DW_AT_data_member_location[DW_OP_plus_uconst 0x4]
TMS320C55x Assembler PC v4.4.1 Sat Sep 29 23:09:00 2018

Tools Copyright (c) 1996-2012 Texas Instruments Incorporated
csl_mmcsd_dma_example.asm                                            PAGE  151

    5647                      .dwattr $C$DW$628, DW_AT_accessibility(DW_ACCESS_public)
    5648              $C$DW$629       .dwtag  DW_TAG_member
    5649                      .dwattr $C$DW$629, DW_AT_type(*$C$DW$T$20)
    5650                      .dwattr $C$DW$629, DW_AT_name("PRCR")
    5651                      .dwattr $C$DW$629, DW_AT_TI_symbol_name("_PRCR")
    5652                      .dwattr $C$DW$629, DW_AT_data_member_location[DW_OP_plus_uconst 0x5]
    5653                      .dwattr $C$DW$629, DW_AT_accessibility(DW_ACCESS_public)
    5654              $C$DW$630       .dwtag  DW_TAG_member
    5655                      .dwattr $C$DW$630, DW_AT_type(*$C$DW$T$100)
    5656                      .dwattr $C$DW$630, DW_AT_name("RSVD1")
    5657                      .dwattr $C$DW$630, DW_AT_TI_symbol_name("_RSVD1")
    5658                      .dwattr $C$DW$630, DW_AT_data_member_location[DW_OP_plus_uconst 0x6]
    5659                      .dwattr $C$DW$630, DW_AT_accessibility(DW_ACCESS_public)
    5660              $C$DW$631       .dwtag  DW_TAG_member
    5661                      .dwattr $C$DW$631, DW_AT_type(*$C$DW$T$20)
    5662                      .dwattr $C$DW$631, DW_AT_name("TIAFR")
    5663                      .dwattr $C$DW$631, DW_AT_TI_symbol_name("_TIAFR")
    5664                      .dwattr $C$DW$631, DW_AT_data_member_location[DW_OP_plus_uconst 0x14]
    5665                      .dwattr $C$DW$631, DW_AT_accessibility(DW_ACCESS_public)
    5666              $C$DW$632       .dwtag  DW_TAG_member
    5667                      .dwattr $C$DW$632, DW_AT_type(*$C$DW$T$20)
    5668                      .dwattr $C$DW$632, DW_AT_name("RSVD2")
    5669                      .dwattr $C$DW$632, DW_AT_TI_symbol_name("_RSVD2")
    5670                      .dwattr $C$DW$632, DW_AT_data_member_location[DW_OP_plus_uconst 0x15]
    5671                      .dwattr $C$DW$632, DW_AT_accessibility(DW_ACCESS_public)
    5672              $C$DW$633       .dwtag  DW_TAG_member
    5673                      .dwattr $C$DW$633, DW_AT_type(*$C$DW$T$20)
    5674                      .dwattr $C$DW$633, DW_AT_name("ODSCR")
    5675                      .dwattr $C$DW$633, DW_AT_TI_symbol_name("_ODSCR")
    5676                      .dwattr $C$DW$633, DW_AT_data_member_location[DW_OP_plus_uconst 0x16]
    5677                      .dwattr $C$DW$633, DW_AT_accessibility(DW_ACCESS_public)
    5678              $C$DW$634       .dwtag  DW_TAG_member
    5679                      .dwattr $C$DW$634, DW_AT_type(*$C$DW$T$20)
    5680                      .dwattr $C$DW$634, DW_AT_name("PDINHIBR1")
    5681                      .dwattr $C$DW$634, DW_AT_TI_symbol_name("_PDINHIBR1")
    5682                      .dwattr $C$DW$634, DW_AT_data_member_location[DW_OP_plus_uconst 0x17]
    5683                      .dwattr $C$DW$634, DW_AT_accessibility(DW_ACCESS_public)
    5684              $C$DW$635       .dwtag  DW_TAG_member
    5685                      .dwattr $C$DW$635, DW_AT_type(*$C$DW$T$20)
    5686                      .dwattr $C$DW$635, DW_AT_name("PDINHIBR2")
    5687                      .dwattr $C$DW$635, DW_AT_TI_symbol_name("_PDINHIBR2")
    5688                      .dwattr $C$DW$635, DW_AT_data_member_location[DW_OP_plus_uconst 0x18]
    5689                      .dwattr $C$DW$635, DW_AT_accessibility(DW_ACCESS_public)
    5690              $C$DW$636       .dwtag  DW_TAG_member
    5691                      .dwattr $C$DW$636, DW_AT_type(*$C$DW$T$20)
    5692                      .dwattr $C$DW$636, DW_AT_name("PDINHIBR3")
    5693                      .dwattr $C$DW$636, DW_AT_TI_symbol_name("_PDINHIBR3")
    5694                      .dwattr $C$DW$636, DW_AT_data_member_location[DW_OP_plus_uconst 0x19]
    5695                      .dwattr $C$DW$636, DW_AT_accessibility(DW_ACCESS_public)
    5696              $C$DW$637       .dwtag  DW_TAG_member
    5697                      .dwattr $C$DW$637, DW_AT_type(*$C$DW$T$20)
    5698                      .dwattr $C$DW$637, DW_AT_name("DMA0CESR1")
    5699                      .dwattr $C$DW$637, DW_AT_TI_symbol_name("_DMA0CESR1")
    5700                      .dwattr $C$DW$637, DW_AT_data_member_location[DW_OP_plus_uconst 0x1a]
    5701                      .dwattr $C$DW$637, DW_AT_accessibility(DW_ACCESS_public)
TMS320C55x Assembler PC v4.4.1 Sat Sep 29 23:09:00 2018

Tools Copyright (c) 1996-2012 Texas Instruments Incorporated
csl_mmcsd_dma_example.asm                                            PAGE  152

    5702              $C$DW$638       .dwtag  DW_TAG_member
    5703                      .dwattr $C$DW$638, DW_AT_type(*$C$DW$T$20)
    5704                      .dwattr $C$DW$638, DW_AT_name("DMA0CESR2")
    5705                      .dwattr $C$DW$638, DW_AT_TI_symbol_name("_DMA0CESR2")
    5706                      .dwattr $C$DW$638, DW_AT_data_member_location[DW_OP_plus_uconst 0x1b]
    5707                      .dwattr $C$DW$638, DW_AT_accessibility(DW_ACCESS_public)
    5708              $C$DW$639       .dwtag  DW_TAG_member
    5709                      .dwattr $C$DW$639, DW_AT_type(*$C$DW$T$20)
    5710                      .dwattr $C$DW$639, DW_AT_name("DMA1CESR1")
    5711                      .dwattr $C$DW$639, DW_AT_TI_symbol_name("_DMA1CESR1")
    5712                      .dwattr $C$DW$639, DW_AT_data_member_location[DW_OP_plus_uconst 0x1c]
    5713                      .dwattr $C$DW$639, DW_AT_accessibility(DW_ACCESS_public)
    5714              $C$DW$640       .dwtag  DW_TAG_member
    5715                      .dwattr $C$DW$640, DW_AT_type(*$C$DW$T$20)
    5716                      .dwattr $C$DW$640, DW_AT_name("DMA1CESR2")
    5717                      .dwattr $C$DW$640, DW_AT_TI_symbol_name("_DMA1CESR2")
    5718                      .dwattr $C$DW$640, DW_AT_data_member_location[DW_OP_plus_uconst 0x1d]
    5719                      .dwattr $C$DW$640, DW_AT_accessibility(DW_ACCESS_public)
    5720              $C$DW$641       .dwtag  DW_TAG_member
    5721                      .dwattr $C$DW$641, DW_AT_type(*$C$DW$T$20)
    5722                      .dwattr $C$DW$641, DW_AT_name("SDRAMCCR")
    5723                      .dwattr $C$DW$641, DW_AT_TI_symbol_name("_SDRAMCCR")
    5724                      .dwattr $C$DW$641, DW_AT_data_member_location[DW_OP_plus_uconst 0x1e]
    5725                      .dwattr $C$DW$641, DW_AT_accessibility(DW_ACCESS_public)
    5726              $C$DW$642       .dwtag  DW_TAG_member
    5727                      .dwattr $C$DW$642, DW_AT_type(*$C$DW$T$20)
    5728                      .dwattr $C$DW$642, DW_AT_name("CCR2")
    5729                      .dwattr $C$DW$642, DW_AT_TI_symbol_name("_CCR2")
    5730                      .dwattr $C$DW$642, DW_AT_data_member_location[DW_OP_plus_uconst 0x1f]
    5731                      .dwattr $C$DW$642, DW_AT_accessibility(DW_ACCESS_public)
    5732              $C$DW$643       .dwtag  DW_TAG_member
    5733                      .dwattr $C$DW$643, DW_AT_type(*$C$DW$T$20)
    5734                      .dwattr $C$DW$643, DW_AT_name("CGCR1")
    5735                      .dwattr $C$DW$643, DW_AT_TI_symbol_name("_CGCR1")
    5736                      .dwattr $C$DW$643, DW_AT_data_member_location[DW_OP_plus_uconst 0x20]
    5737                      .dwattr $C$DW$643, DW_AT_accessibility(DW_ACCESS_public)
    5738              $C$DW$644       .dwtag  DW_TAG_member
    5739                      .dwattr $C$DW$644, DW_AT_type(*$C$DW$T$20)
    5740                      .dwattr $C$DW$644, DW_AT_name("CGICR")
    5741                      .dwattr $C$DW$644, DW_AT_TI_symbol_name("_CGICR")
    5742                      .dwattr $C$DW$644, DW_AT_data_member_location[DW_OP_plus_uconst 0x21]
    5743                      .dwattr $C$DW$644, DW_AT_accessibility(DW_ACCESS_public)
    5744              $C$DW$645       .dwtag  DW_TAG_member
    5745                      .dwattr $C$DW$645, DW_AT_type(*$C$DW$T$20)
    5746                      .dwattr $C$DW$645, DW_AT_name("CGCR2")
    5747                      .dwattr $C$DW$645, DW_AT_TI_symbol_name("_CGCR2")
    5748                      .dwattr $C$DW$645, DW_AT_data_member_location[DW_OP_plus_uconst 0x22]
    5749                      .dwattr $C$DW$645, DW_AT_accessibility(DW_ACCESS_public)
    5750              $C$DW$646       .dwtag  DW_TAG_member
    5751                      .dwattr $C$DW$646, DW_AT_type(*$C$DW$T$20)
    5752                      .dwattr $C$DW$646, DW_AT_name("CGOCR")
    5753                      .dwattr $C$DW$646, DW_AT_TI_symbol_name("_CGOCR")
    5754                      .dwattr $C$DW$646, DW_AT_data_member_location[DW_OP_plus_uconst 0x23]
    5755                      .dwattr $C$DW$646, DW_AT_accessibility(DW_ACCESS_public)
    5756              $C$DW$647       .dwtag  DW_TAG_member
TMS320C55x Assembler PC v4.4.1 Sat Sep 29 23:09:00 2018

Tools Copyright (c) 1996-2012 Texas Instruments Incorporated
csl_mmcsd_dma_example.asm                                            PAGE  153

    5757                      .dwattr $C$DW$647, DW_AT_type(*$C$DW$T$20)
    5758                      .dwattr $C$DW$647, DW_AT_name("CCSSR")
    5759                      .dwattr $C$DW$647, DW_AT_TI_symbol_name("_CCSSR")
    5760                      .dwattr $C$DW$647, DW_AT_data_member_location[DW_OP_plus_uconst 0x24]
    5761                      .dwattr $C$DW$647, DW_AT_accessibility(DW_ACCESS_public)
    5762              $C$DW$648       .dwtag  DW_TAG_member
    5763                      .dwattr $C$DW$648, DW_AT_type(*$C$DW$T$20)
    5764                      .dwattr $C$DW$648, DW_AT_name("RSVD3")
    5765                      .dwattr $C$DW$648, DW_AT_TI_symbol_name("_RSVD3")
    5766                      .dwattr $C$DW$648, DW_AT_data_member_location[DW_OP_plus_uconst 0x25]
    5767                      .dwattr $C$DW$648, DW_AT_accessibility(DW_ACCESS_public)
    5768              $C$DW$649       .dwtag  DW_TAG_member
    5769                      .dwattr $C$DW$649, DW_AT_type(*$C$DW$T$20)
    5770                      .dwattr $C$DW$649, DW_AT_name("ECDR")
    5771                      .dwattr $C$DW$649, DW_AT_TI_symbol_name("_ECDR")
    5772                      .dwattr $C$DW$649, DW_AT_data_member_location[DW_OP_plus_uconst 0x26]
    5773                      .dwattr $C$DW$649, DW_AT_accessibility(DW_ACCESS_public)
    5774              $C$DW$650       .dwtag  DW_TAG_member
    5775                      .dwattr $C$DW$650, DW_AT_type(*$C$DW$T$20)
    5776                      .dwattr $C$DW$650, DW_AT_name("RSVD4")
    5777                      .dwattr $C$DW$650, DW_AT_TI_symbol_name("_RSVD4")
    5778                      .dwattr $C$DW$650, DW_AT_data_member_location[DW_OP_plus_uconst 0x27]
    5779                      .dwattr $C$DW$650, DW_AT_accessibility(DW_ACCESS_public)
    5780              $C$DW$651       .dwtag  DW_TAG_member
    5781                      .dwattr $C$DW$651, DW_AT_type(*$C$DW$T$20)
    5782                      .dwattr $C$DW$651, DW_AT_name("RAMSLPMDCNTLR1")
    5783                      .dwattr $C$DW$651, DW_AT_TI_symbol_name("_RAMSLPMDCNTLR1")
    5784                      .dwattr $C$DW$651, DW_AT_data_member_location[DW_OP_plus_uconst 0x28]
    5785                      .dwattr $C$DW$651, DW_AT_accessibility(DW_ACCESS_public)
    5786              $C$DW$652       .dwtag  DW_TAG_member
    5787                      .dwattr $C$DW$652, DW_AT_type(*$C$DW$T$20)
    5788                      .dwattr $C$DW$652, DW_AT_name("RSVD5")
    5789                      .dwattr $C$DW$652, DW_AT_TI_symbol_name("_RSVD5")
    5790                      .dwattr $C$DW$652, DW_AT_data_member_location[DW_OP_plus_uconst 0x29]
    5791                      .dwattr $C$DW$652, DW_AT_accessibility(DW_ACCESS_public)
    5792              $C$DW$653       .dwtag  DW_TAG_member
    5793                      .dwattr $C$DW$653, DW_AT_type(*$C$DW$T$20)
    5794                      .dwattr $C$DW$653, DW_AT_name("RAMSLPMDCNTLR2")
    5795                      .dwattr $C$DW$653, DW_AT_TI_symbol_name("_RAMSLPMDCNTLR2")
    5796                      .dwattr $C$DW$653, DW_AT_data_member_location[DW_OP_plus_uconst 0x2a]
    5797                      .dwattr $C$DW$653, DW_AT_accessibility(DW_ACCESS_public)
    5798              $C$DW$654       .dwtag  DW_TAG_member
    5799                      .dwattr $C$DW$654, DW_AT_type(*$C$DW$T$20)
    5800                      .dwattr $C$DW$654, DW_AT_name("RAMSLPMDCNTLR3")
    5801                      .dwattr $C$DW$654, DW_AT_TI_symbol_name("_RAMSLPMDCNTLR3")
    5802                      .dwattr $C$DW$654, DW_AT_data_member_location[DW_OP_plus_uconst 0x2b]
    5803                      .dwattr $C$DW$654, DW_AT_accessibility(DW_ACCESS_public)
    5804              $C$DW$655       .dwtag  DW_TAG_member
    5805                      .dwattr $C$DW$655, DW_AT_type(*$C$DW$T$20)
    5806                      .dwattr $C$DW$655, DW_AT_name("RAMSLPMDCNTLR4")
    5807                      .dwattr $C$DW$655, DW_AT_TI_symbol_name("_RAMSLPMDCNTLR4")
    5808                      .dwattr $C$DW$655, DW_AT_data_member_location[DW_OP_plus_uconst 0x2c]
    5809                      .dwattr $C$DW$655, DW_AT_accessibility(DW_ACCESS_public)
    5810              $C$DW$656       .dwtag  DW_TAG_member
    5811                      .dwattr $C$DW$656, DW_AT_type(*$C$DW$T$20)
TMS320C55x Assembler PC v4.4.1 Sat Sep 29 23:09:00 2018

Tools Copyright (c) 1996-2012 Texas Instruments Incorporated
csl_mmcsd_dma_example.asm                                            PAGE  154

    5812                      .dwattr $C$DW$656, DW_AT_name("RAMSLPMDCNTLR5")
    5813                      .dwattr $C$DW$656, DW_AT_TI_symbol_name("_RAMSLPMDCNTLR5")
    5814                      .dwattr $C$DW$656, DW_AT_data_member_location[DW_OP_plus_uconst 0x2d]
    5815                      .dwattr $C$DW$656, DW_AT_accessibility(DW_ACCESS_public)
    5816              $C$DW$657       .dwtag  DW_TAG_member
    5817                      .dwattr $C$DW$657, DW_AT_type(*$C$DW$T$42)
    5818                      .dwattr $C$DW$657, DW_AT_name("RSVD6")
    5819                      .dwattr $C$DW$657, DW_AT_TI_symbol_name("_RSVD6")
    5820                      .dwattr $C$DW$657, DW_AT_data_member_location[DW_OP_plus_uconst 0x2e]
    5821                      .dwattr $C$DW$657, DW_AT_accessibility(DW_ACCESS_public)
    5822              $C$DW$658       .dwtag  DW_TAG_member
    5823                      .dwattr $C$DW$658, DW_AT_type(*$C$DW$T$20)
    5824                      .dwattr $C$DW$658, DW_AT_name("DMAIFR")
    5825                      .dwattr $C$DW$658, DW_AT_TI_symbol_name("_DMAIFR")
    5826                      .dwattr $C$DW$658, DW_AT_data_member_location[DW_OP_plus_uconst 0x30]
    5827                      .dwattr $C$DW$658, DW_AT_accessibility(DW_ACCESS_public)
    5828              $C$DW$659       .dwtag  DW_TAG_member
    5829                      .dwattr $C$DW$659, DW_AT_type(*$C$DW$T$20)
    5830                      .dwattr $C$DW$659, DW_AT_name("DMAIER")
    5831                      .dwattr $C$DW$659, DW_AT_TI_symbol_name("_DMAIER")
    5832                      .dwattr $C$DW$659, DW_AT_data_member_location[DW_OP_plus_uconst 0x31]
    5833                      .dwattr $C$DW$659, DW_AT_accessibility(DW_ACCESS_public)
    5834              $C$DW$660       .dwtag  DW_TAG_member
    5835                      .dwattr $C$DW$660, DW_AT_type(*$C$DW$T$20)
    5836                      .dwattr $C$DW$660, DW_AT_name("USBSCR")
    5837                      .dwattr $C$DW$660, DW_AT_TI_symbol_name("_USBSCR")
    5838                      .dwattr $C$DW$660, DW_AT_data_member_location[DW_OP_plus_uconst 0x32]
    5839                      .dwattr $C$DW$660, DW_AT_accessibility(DW_ACCESS_public)
    5840              $C$DW$661       .dwtag  DW_TAG_member
    5841                      .dwattr $C$DW$661, DW_AT_type(*$C$DW$T$20)
    5842                      .dwattr $C$DW$661, DW_AT_name("ESCR")
    5843                      .dwattr $C$DW$661, DW_AT_TI_symbol_name("_ESCR")
    5844                      .dwattr $C$DW$661, DW_AT_data_member_location[DW_OP_plus_uconst 0x33]
    5845                      .dwattr $C$DW$661, DW_AT_accessibility(DW_ACCESS_public)
    5846              $C$DW$662       .dwtag  DW_TAG_member
    5847                      .dwattr $C$DW$662, DW_AT_type(*$C$DW$T$42)
    5848                      .dwattr $C$DW$662, DW_AT_name("RSVD7")
    5849                      .dwattr $C$DW$662, DW_AT_TI_symbol_name("_RSVD7")
    5850                      .dwattr $C$DW$662, DW_AT_data_member_location[DW_OP_plus_uconst 0x34]
    5851                      .dwattr $C$DW$662, DW_AT_accessibility(DW_ACCESS_public)
    5852              $C$DW$663       .dwtag  DW_TAG_member
    5853                      .dwattr $C$DW$663, DW_AT_type(*$C$DW$T$20)
    5854                      .dwattr $C$DW$663, DW_AT_name("DMA2CESR1")
    5855                      .dwattr $C$DW$663, DW_AT_TI_symbol_name("_DMA2CESR1")
    5856                      .dwattr $C$DW$663, DW_AT_data_member_location[DW_OP_plus_uconst 0x36]
    5857                      .dwattr $C$DW$663, DW_AT_accessibility(DW_ACCESS_public)
    5858              $C$DW$664       .dwtag  DW_TAG_member
    5859                      .dwattr $C$DW$664, DW_AT_type(*$C$DW$T$20)
    5860                      .dwattr $C$DW$664, DW_AT_name("DMA2CESR2")
    5861                      .dwattr $C$DW$664, DW_AT_TI_symbol_name("_DMA2CESR2")
    5862                      .dwattr $C$DW$664, DW_AT_data_member_location[DW_OP_plus_uconst 0x37]
    5863                      .dwattr $C$DW$664, DW_AT_accessibility(DW_ACCESS_public)
    5864              $C$DW$665       .dwtag  DW_TAG_member
    5865                      .dwattr $C$DW$665, DW_AT_type(*$C$DW$T$20)
    5866                      .dwattr $C$DW$665, DW_AT_name("DMA3CESR1")
TMS320C55x Assembler PC v4.4.1 Sat Sep 29 23:09:00 2018

Tools Copyright (c) 1996-2012 Texas Instruments Incorporated
csl_mmcsd_dma_example.asm                                            PAGE  155

    5867                      .dwattr $C$DW$665, DW_AT_TI_symbol_name("_DMA3CESR1")
    5868                      .dwattr $C$DW$665, DW_AT_data_member_location[DW_OP_plus_uconst 0x38]
    5869                      .dwattr $C$DW$665, DW_AT_accessibility(DW_ACCESS_public)
    5870              $C$DW$666       .dwtag  DW_TAG_member
    5871                      .dwattr $C$DW$666, DW_AT_type(*$C$DW$T$20)
    5872                      .dwattr $C$DW$666, DW_AT_name("DMA3CESR2")
    5873                      .dwattr $C$DW$666, DW_AT_TI_symbol_name("_DMA3CESR2")
    5874                      .dwattr $C$DW$666, DW_AT_data_member_location[DW_OP_plus_uconst 0x39]
    5875                      .dwattr $C$DW$666, DW_AT_accessibility(DW_ACCESS_public)
    5876              $C$DW$667       .dwtag  DW_TAG_member
    5877                      .dwattr $C$DW$667, DW_AT_type(*$C$DW$T$20)
    5878                      .dwattr $C$DW$667, DW_AT_name("CLKSTOP")
    5879                      .dwattr $C$DW$667, DW_AT_TI_symbol_name("_CLKSTOP")
    5880                      .dwattr $C$DW$667, DW_AT_data_member_location[DW_OP_plus_uconst 0x3a]
    5881                      .dwattr $C$DW$667, DW_AT_accessibility(DW_ACCESS_public)
    5882              $C$DW$668       .dwtag  DW_TAG_member
    5883                      .dwattr $C$DW$668, DW_AT_type(*$C$DW$T$101)
    5884                      .dwattr $C$DW$668, DW_AT_name("RSVD8")
    5885                      .dwattr $C$DW$668, DW_AT_TI_symbol_name("_RSVD8")
    5886                      .dwattr $C$DW$668, DW_AT_data_member_location[DW_OP_plus_uconst 0x3b]
    5887                      .dwattr $C$DW$668, DW_AT_accessibility(DW_ACCESS_public)
    5888              $C$DW$669       .dwtag  DW_TAG_member
    5889                      .dwattr $C$DW$669, DW_AT_type(*$C$DW$T$20)
    5890                      .dwattr $C$DW$669, DW_AT_name("DIEIDR0")
    5891                      .dwattr $C$DW$669, DW_AT_TI_symbol_name("_DIEIDR0")
    5892                      .dwattr $C$DW$669, DW_AT_data_member_location[DW_OP_plus_uconst 0x40]
    5893                      .dwattr $C$DW$669, DW_AT_accessibility(DW_ACCESS_public)
    5894              $C$DW$670       .dwtag  DW_TAG_member
    5895                      .dwattr $C$DW$670, DW_AT_type(*$C$DW$T$20)
    5896                      .dwattr $C$DW$670, DW_AT_name("DIEIDR1")
    5897                      .dwattr $C$DW$670, DW_AT_TI_symbol_name("_DIEIDR1")
    5898                      .dwattr $C$DW$670, DW_AT_data_member_location[DW_OP_plus_uconst 0x41]
    5899                      .dwattr $C$DW$670, DW_AT_accessibility(DW_ACCESS_public)
    5900              $C$DW$671       .dwtag  DW_TAG_member
    5901                      .dwattr $C$DW$671, DW_AT_type(*$C$DW$T$20)
    5902                      .dwattr $C$DW$671, DW_AT_name("DIEIDR2")
    5903                      .dwattr $C$DW$671, DW_AT_TI_symbol_name("_DIEIDR2")
    5904                      .dwattr $C$DW$671, DW_AT_data_member_location[DW_OP_plus_uconst 0x42]
    5905                      .dwattr $C$DW$671, DW_AT_accessibility(DW_ACCESS_public)
    5906              $C$DW$672       .dwtag  DW_TAG_member
    5907                      .dwattr $C$DW$672, DW_AT_type(*$C$DW$T$20)
    5908                      .dwattr $C$DW$672, DW_AT_name("DIEIDR3")
    5909                      .dwattr $C$DW$672, DW_AT_TI_symbol_name("_DIEIDR3")
    5910                      .dwattr $C$DW$672, DW_AT_data_member_location[DW_OP_plus_uconst 0x43]
    5911                      .dwattr $C$DW$672, DW_AT_accessibility(DW_ACCESS_public)
    5912              $C$DW$673       .dwtag  DW_TAG_member
    5913                      .dwattr $C$DW$673, DW_AT_type(*$C$DW$T$20)
    5914                      .dwattr $C$DW$673, DW_AT_name("DIEIDR4")
    5915                      .dwattr $C$DW$673, DW_AT_TI_symbol_name("_DIEIDR4")
    5916                      .dwattr $C$DW$673, DW_AT_data_member_location[DW_OP_plus_uconst 0x44]
    5917                      .dwattr $C$DW$673, DW_AT_accessibility(DW_ACCESS_public)
    5918              $C$DW$674       .dwtag  DW_TAG_member
    5919                      .dwattr $C$DW$674, DW_AT_type(*$C$DW$T$20)
    5920                      .dwattr $C$DW$674, DW_AT_name("DIEIDR5")
    5921                      .dwattr $C$DW$674, DW_AT_TI_symbol_name("_DIEIDR5")
TMS320C55x Assembler PC v4.4.1 Sat Sep 29 23:09:00 2018

Tools Copyright (c) 1996-2012 Texas Instruments Incorporated
csl_mmcsd_dma_example.asm                                            PAGE  156

    5922                      .dwattr $C$DW$674, DW_AT_data_member_location[DW_OP_plus_uconst 0x45]
    5923                      .dwattr $C$DW$674, DW_AT_accessibility(DW_ACCESS_public)
    5924              $C$DW$675       .dwtag  DW_TAG_member
    5925                      .dwattr $C$DW$675, DW_AT_type(*$C$DW$T$20)
    5926                      .dwattr $C$DW$675, DW_AT_name("DIEIDR6")
    5927                      .dwattr $C$DW$675, DW_AT_TI_symbol_name("_DIEIDR6")
    5928                      .dwattr $C$DW$675, DW_AT_data_member_location[DW_OP_plus_uconst 0x46]
    5929                      .dwattr $C$DW$675, DW_AT_accessibility(DW_ACCESS_public)
    5930              $C$DW$676       .dwtag  DW_TAG_member
    5931                      .dwattr $C$DW$676, DW_AT_type(*$C$DW$T$20)
    5932                      .dwattr $C$DW$676, DW_AT_name("DIEIDR7")
    5933                      .dwattr $C$DW$676, DW_AT_TI_symbol_name("_DIEIDR7")
    5934                      .dwattr $C$DW$676, DW_AT_data_member_location[DW_OP_plus_uconst 0x47]
    5935                      .dwattr $C$DW$676, DW_AT_accessibility(DW_ACCESS_public)
    5936                      .dwendtag $C$DW$T$102
    5937              
    5938              $C$DW$T$117     .dwtag  DW_TAG_typedef, DW_AT_name("CSL_SysRegs")
    5939                      .dwattr $C$DW$T$117, DW_AT_type(*$C$DW$T$102)
    5940                      .dwattr $C$DW$T$117, DW_AT_language(DW_LANG_C)
    5941              $C$DW$677       .dwtag  DW_TAG_TI_far_type
    5942                      .dwattr $C$DW$677, DW_AT_type(*$C$DW$T$117)
    5943              $C$DW$678       .dwtag  DW_TAG_TI_ioport_type
    5944                      .dwattr $C$DW$678, DW_AT_type(*$C$DW$677)
    5945              $C$DW$T$118     .dwtag  DW_TAG_volatile_type
    5946                      .dwattr $C$DW$T$118, DW_AT_type(*$C$DW$678)
    5947              $C$DW$T$119     .dwtag  DW_TAG_pointer_type
    5948                      .dwattr $C$DW$T$119, DW_AT_type(*$C$DW$T$118)
    5949                      .dwattr $C$DW$T$119, DW_AT_address_class(0x10)
    5950              $C$DW$T$120     .dwtag  DW_TAG_typedef, DW_AT_name("CSL_SysRegsOvly")
    5951                      .dwattr $C$DW$T$120, DW_AT_type(*$C$DW$T$119)
    5952                      .dwattr $C$DW$T$120, DW_AT_language(DW_LANG_C)
    5953              $C$DW$T$3       .dwtag  DW_TAG_pointer_type
    5954                      .dwattr $C$DW$T$3, DW_AT_address_class(0x17)
    5955              
    5956              $C$DW$T$61      .dwtag  DW_TAG_subroutine_type
    5957                      .dwattr $C$DW$T$61, DW_AT_language(DW_LANG_C)
    5958              $C$DW$T$62      .dwtag  DW_TAG_pointer_type
    5959                      .dwattr $C$DW$T$62, DW_AT_type(*$C$DW$T$61)
    5960                      .dwattr $C$DW$T$62, DW_AT_address_class(0x20)
    5961              $C$DW$T$63      .dwtag  DW_TAG_typedef, DW_AT_name("CSL_MMCCallBackPtr")
    5962                      .dwattr $C$DW$T$63, DW_AT_type(*$C$DW$T$62)
    5963                      .dwattr $C$DW$T$63, DW_AT_language(DW_LANG_C)
    5964              
    5965              $C$DW$T$64      .dwtag  DW_TAG_array_type
    5966                      .dwattr $C$DW$T$64, DW_AT_type(*$C$DW$T$63)
    5967                      .dwattr $C$DW$T$64, DW_AT_language(DW_LANG_C)
    5968                      .dwattr $C$DW$T$64, DW_AT_byte_size(0x18)
    5969              $C$DW$679       .dwtag  DW_TAG_subrange_type
    5970                      .dwattr $C$DW$679, DW_AT_upper_bound(0x0b)
    5971                      .dwendtag $C$DW$T$64
    5972              
    5973              $C$DW$T$121     .dwtag  DW_TAG_typedef, DW_AT_name("IRQ_IsrPtr")
    5974                      .dwattr $C$DW$T$121, DW_AT_type(*$C$DW$T$62)
    5975                      .dwattr $C$DW$T$121, DW_AT_language(DW_LANG_C)
    5976              
TMS320C55x Assembler PC v4.4.1 Sat Sep 29 23:09:00 2018

Tools Copyright (c) 1996-2012 Texas Instruments Incorporated
csl_mmcsd_dma_example.asm                                            PAGE  157

    5977              $C$DW$T$91      .dwtag  DW_TAG_subroutine_type
    5978                      .dwattr $C$DW$T$91, DW_AT_language(DW_LANG_C)
    5979              $C$DW$680       .dwtag  DW_TAG_formal_parameter
    5980                      .dwattr $C$DW$680, DW_AT_type(*$C$DW$T$3)
    5981                      .dwendtag $C$DW$T$91
    5982              
    5983              $C$DW$T$92      .dwtag  DW_TAG_pointer_type
    5984                      .dwattr $C$DW$T$92, DW_AT_type(*$C$DW$T$91)
    5985                      .dwattr $C$DW$T$92, DW_AT_address_class(0x20)
    5986              $C$DW$T$93      .dwtag  DW_TAG_typedef, DW_AT_name("CSL_MMCDataTxferCallBackPtr")
    5987                      .dwattr $C$DW$T$93, DW_AT_type(*$C$DW$T$92)
    5988                      .dwattr $C$DW$T$93, DW_AT_language(DW_LANG_C)
    5989              $C$DW$T$4       .dwtag  DW_TAG_base_type
    5990                      .dwattr $C$DW$T$4, DW_AT_encoding(DW_ATE_boolean)
    5991                      .dwattr $C$DW$T$4, DW_AT_name("bool")
    5992                      .dwattr $C$DW$T$4, DW_AT_byte_size(0x01)
    5993              $C$DW$T$5       .dwtag  DW_TAG_base_type
    5994                      .dwattr $C$DW$T$5, DW_AT_encoding(DW_ATE_signed_char)
    5995                      .dwattr $C$DW$T$5, DW_AT_name("signed char")
    5996                      .dwattr $C$DW$T$5, DW_AT_byte_size(0x01)
    5997              $C$DW$T$6       .dwtag  DW_TAG_base_type
    5998                      .dwattr $C$DW$T$6, DW_AT_encoding(DW_ATE_unsigned_char)
    5999                      .dwattr $C$DW$T$6, DW_AT_name("unsigned char")
    6000                      .dwattr $C$DW$T$6, DW_AT_byte_size(0x01)
    6001              $C$DW$T$46      .dwtag  DW_TAG_typedef, DW_AT_name("Uint8")
    6002                      .dwattr $C$DW$T$46, DW_AT_type(*$C$DW$T$6)
    6003                      .dwattr $C$DW$T$46, DW_AT_language(DW_LANG_C)
    6004              
    6005              $C$DW$T$47      .dwtag  DW_TAG_array_type
    6006                      .dwattr $C$DW$T$47, DW_AT_type(*$C$DW$T$46)
    6007                      .dwattr $C$DW$T$47, DW_AT_language(DW_LANG_C)
    6008                      .dwattr $C$DW$T$47, DW_AT_byte_size(0x06)
    6009              $C$DW$681       .dwtag  DW_TAG_subrange_type
    6010                      .dwattr $C$DW$681, DW_AT_upper_bound(0x05)
    6011                      .dwendtag $C$DW$T$47
    6012              
    6013              $C$DW$T$7       .dwtag  DW_TAG_base_type
    6014                      .dwattr $C$DW$T$7, DW_AT_encoding(DW_ATE_signed_char)
    6015                      .dwattr $C$DW$T$7, DW_AT_name("wchar_t")
    6016                      .dwattr $C$DW$T$7, DW_AT_byte_size(0x01)
    6017              $C$DW$T$8       .dwtag  DW_TAG_base_type
    6018                      .dwattr $C$DW$T$8, DW_AT_encoding(DW_ATE_signed)
    6019                      .dwattr $C$DW$T$8, DW_AT_name("short")
    6020                      .dwattr $C$DW$T$8, DW_AT_byte_size(0x01)
    6021              $C$DW$T$105     .dwtag  DW_TAG_typedef, DW_AT_name("Int16")
    6022                      .dwattr $C$DW$T$105, DW_AT_type(*$C$DW$T$8)
    6023                      .dwattr $C$DW$T$105, DW_AT_language(DW_LANG_C)
    6024              $C$DW$T$106     .dwtag  DW_TAG_typedef, DW_AT_name("CSL_Status")
    6025                      .dwattr $C$DW$T$106, DW_AT_type(*$C$DW$T$105)
    6026                      .dwattr $C$DW$T$106, DW_AT_language(DW_LANG_C)
    6027              $C$DW$T$107     .dwtag  DW_TAG_pointer_type
    6028                      .dwattr $C$DW$T$107, DW_AT_type(*$C$DW$T$106)
    6029                      .dwattr $C$DW$T$107, DW_AT_address_class(0x17)
    6030              $C$DW$682       .dwtag  DW_TAG_TI_far_type
    6031                      .dwattr $C$DW$682, DW_AT_type(*$C$DW$T$105)
TMS320C55x Assembler PC v4.4.1 Sat Sep 29 23:09:00 2018

Tools Copyright (c) 1996-2012 Texas Instruments Incorporated
csl_mmcsd_dma_example.asm                                            PAGE  158

    6032              $C$DW$T$159     .dwtag  DW_TAG_volatile_type
    6033                      .dwattr $C$DW$T$159, DW_AT_type(*$C$DW$682)
    6034              $C$DW$T$9       .dwtag  DW_TAG_base_type
    6035                      .dwattr $C$DW$T$9, DW_AT_encoding(DW_ATE_unsigned)
    6036                      .dwattr $C$DW$T$9, DW_AT_name("unsigned short")
    6037                      .dwattr $C$DW$T$9, DW_AT_byte_size(0x01)
    6038              $C$DW$T$19      .dwtag  DW_TAG_typedef, DW_AT_name("Uint16")
    6039                      .dwattr $C$DW$T$19, DW_AT_type(*$C$DW$T$9)
    6040                      .dwattr $C$DW$T$19, DW_AT_language(DW_LANG_C)
    6041              $C$DW$683       .dwtag  DW_TAG_TI_far_type
    6042                      .dwattr $C$DW$683, DW_AT_type(*$C$DW$T$19)
    6043              $C$DW$T$20      .dwtag  DW_TAG_volatile_type
    6044                      .dwattr $C$DW$T$20, DW_AT_type(*$C$DW$683)
    6045              
    6046              $C$DW$T$21      .dwtag  DW_TAG_array_type
    6047                      .dwattr $C$DW$T$21, DW_AT_type(*$C$DW$T$20)
    6048                      .dwattr $C$DW$T$21, DW_AT_language(DW_LANG_C)
    6049                      .dwattr $C$DW$T$21, DW_AT_byte_size(0x1a)
    6050              $C$DW$684       .dwtag  DW_TAG_subrange_type
    6051                      .dwattr $C$DW$684, DW_AT_upper_bound(0x19)
    6052                      .dwendtag $C$DW$T$21
    6053              
    6054              
    6055              $C$DW$T$41      .dwtag  DW_TAG_array_type
    6056                      .dwattr $C$DW$T$41, DW_AT_type(*$C$DW$T$20)
    6057                      .dwattr $C$DW$T$41, DW_AT_language(DW_LANG_C)
    6058                      .dwattr $C$DW$T$41, DW_AT_byte_size(0x03)
    6059              $C$DW$685       .dwtag  DW_TAG_subrange_type
    6060                      .dwattr $C$DW$685, DW_AT_upper_bound(0x02)
    6061                      .dwendtag $C$DW$T$41
    6062              
    6063              
    6064              $C$DW$T$42      .dwtag  DW_TAG_array_type
    6065                      .dwattr $C$DW$T$42, DW_AT_type(*$C$DW$T$20)
    6066                      .dwattr $C$DW$T$42, DW_AT_language(DW_LANG_C)
    6067                      .dwattr $C$DW$T$42, DW_AT_byte_size(0x02)
    6068              $C$DW$686       .dwtag  DW_TAG_subrange_type
    6069                      .dwattr $C$DW$686, DW_AT_upper_bound(0x01)
    6070                      .dwendtag $C$DW$T$42
    6071              
    6072              
    6073              $C$DW$T$43      .dwtag  DW_TAG_array_type
    6074                      .dwattr $C$DW$T$43, DW_AT_type(*$C$DW$T$20)
    6075                      .dwattr $C$DW$T$43, DW_AT_language(DW_LANG_C)
    6076                      .dwattr $C$DW$T$43, DW_AT_byte_size(0x07)
    6077              $C$DW$687       .dwtag  DW_TAG_subrange_type
    6078                      .dwattr $C$DW$687, DW_AT_upper_bound(0x06)
    6079                      .dwendtag $C$DW$T$43
    6080              
    6081              
    6082              $C$DW$T$44      .dwtag  DW_TAG_array_type
    6083                      .dwattr $C$DW$T$44, DW_AT_type(*$C$DW$T$20)
    6084                      .dwattr $C$DW$T$44, DW_AT_language(DW_LANG_C)
    6085                      .dwattr $C$DW$T$44, DW_AT_byte_size(0x13)
    6086              $C$DW$688       .dwtag  DW_TAG_subrange_type
TMS320C55x Assembler PC v4.4.1 Sat Sep 29 23:09:00 2018

Tools Copyright (c) 1996-2012 Texas Instruments Incorporated
csl_mmcsd_dma_example.asm                                            PAGE  159

    6087                      .dwattr $C$DW$688, DW_AT_upper_bound(0x12)
    6088                      .dwendtag $C$DW$T$44
    6089              
    6090              
    6091              $C$DW$T$100     .dwtag  DW_TAG_array_type
    6092                      .dwattr $C$DW$T$100, DW_AT_type(*$C$DW$T$20)
    6093                      .dwattr $C$DW$T$100, DW_AT_language(DW_LANG_C)
    6094                      .dwattr $C$DW$T$100, DW_AT_byte_size(0x0e)
    6095              $C$DW$689       .dwtag  DW_TAG_subrange_type
    6096                      .dwattr $C$DW$689, DW_AT_upper_bound(0x0d)
    6097                      .dwendtag $C$DW$T$100
    6098              
    6099              
    6100              $C$DW$T$101     .dwtag  DW_TAG_array_type
    6101                      .dwattr $C$DW$T$101, DW_AT_type(*$C$DW$T$20)
    6102                      .dwattr $C$DW$T$101, DW_AT_language(DW_LANG_C)
    6103                      .dwattr $C$DW$T$101, DW_AT_byte_size(0x05)
    6104              $C$DW$690       .dwtag  DW_TAG_subrange_type
    6105                      .dwattr $C$DW$690, DW_AT_upper_bound(0x04)
    6106                      .dwendtag $C$DW$T$101
    6107              
    6108              $C$DW$T$130     .dwtag  DW_TAG_pointer_type
    6109                      .dwattr $C$DW$T$130, DW_AT_type(*$C$DW$T$19)
    6110                      .dwattr $C$DW$T$130, DW_AT_address_class(0x17)
    6111              
    6112              $C$DW$T$163     .dwtag  DW_TAG_array_type
    6113                      .dwattr $C$DW$T$163, DW_AT_type(*$C$DW$T$19)
    6114                      .dwattr $C$DW$T$163, DW_AT_language(DW_LANG_C)
    6115                      .dwattr $C$DW$T$163, DW_AT_byte_size(0x200)
    6116              $C$DW$691       .dwtag  DW_TAG_subrange_type
    6117                      .dwattr $C$DW$691, DW_AT_upper_bound(0x1ff)
    6118                      .dwendtag $C$DW$T$163
    6119              
    6120              $C$DW$T$10      .dwtag  DW_TAG_base_type
    6121                      .dwattr $C$DW$T$10, DW_AT_encoding(DW_ATE_signed)
    6122                      .dwattr $C$DW$T$10, DW_AT_name("int")
    6123                      .dwattr $C$DW$T$10, DW_AT_byte_size(0x01)
    6124              $C$DW$T$31      .dwtag  DW_TAG_typedef, DW_AT_name("Bool")
    6125                      .dwattr $C$DW$T$31, DW_AT_type(*$C$DW$T$10)
    6126                      .dwattr $C$DW$T$31, DW_AT_language(DW_LANG_C)
    6127              $C$DW$692       .dwtag  DW_TAG_TI_far_type
    6128                      .dwattr $C$DW$692, DW_AT_type(*$C$DW$T$31)
    6129              $C$DW$T$164     .dwtag  DW_TAG_volatile_type
    6130                      .dwattr $C$DW$T$164, DW_AT_type(*$C$DW$692)
    6131              $C$DW$T$11      .dwtag  DW_TAG_base_type
    6132                      .dwattr $C$DW$T$11, DW_AT_encoding(DW_ATE_unsigned)
    6133                      .dwattr $C$DW$T$11, DW_AT_name("unsigned int")
    6134                      .dwattr $C$DW$T$11, DW_AT_byte_size(0x01)
    6135              $C$DW$T$12      .dwtag  DW_TAG_base_type
    6136                      .dwattr $C$DW$T$12, DW_AT_encoding(DW_ATE_signed)
    6137                      .dwattr $C$DW$T$12, DW_AT_name("long")
    6138                      .dwattr $C$DW$T$12, DW_AT_byte_size(0x02)
    6139              $C$DW$T$13      .dwtag  DW_TAG_base_type
    6140                      .dwattr $C$DW$T$13, DW_AT_encoding(DW_ATE_unsigned)
    6141                      .dwattr $C$DW$T$13, DW_AT_name("unsigned long")
TMS320C55x Assembler PC v4.4.1 Sat Sep 29 23:09:00 2018

Tools Copyright (c) 1996-2012 Texas Instruments Incorporated
csl_mmcsd_dma_example.asm                                            PAGE  160

    6142                      .dwattr $C$DW$T$13, DW_AT_byte_size(0x02)
    6143              $C$DW$T$48      .dwtag  DW_TAG_typedef, DW_AT_name("Uint32")
    6144                      .dwattr $C$DW$T$48, DW_AT_type(*$C$DW$T$13)
    6145                      .dwattr $C$DW$T$48, DW_AT_language(DW_LANG_C)
    6146              $C$DW$T$14      .dwtag  DW_TAG_base_type
    6147                      .dwattr $C$DW$T$14, DW_AT_encoding(DW_ATE_signed)
    6148                      .dwattr $C$DW$T$14, DW_AT_name("long long")
    6149                      .dwattr $C$DW$T$14, DW_AT_byte_size(0x04)
    6150                      .dwattr $C$DW$T$14, DW_AT_bit_size(0x28)
    6151                      .dwattr $C$DW$T$14, DW_AT_bit_offset(0x18)
    6152              $C$DW$T$15      .dwtag  DW_TAG_base_type
    6153                      .dwattr $C$DW$T$15, DW_AT_encoding(DW_ATE_unsigned)
    6154                      .dwattr $C$DW$T$15, DW_AT_name("unsigned long long")
    6155                      .dwattr $C$DW$T$15, DW_AT_byte_size(0x04)
    6156                      .dwattr $C$DW$T$15, DW_AT_bit_size(0x28)
    6157                      .dwattr $C$DW$T$15, DW_AT_bit_offset(0x18)
    6158              $C$DW$T$16      .dwtag  DW_TAG_base_type
    6159                      .dwattr $C$DW$T$16, DW_AT_encoding(DW_ATE_float)
    6160                      .dwattr $C$DW$T$16, DW_AT_name("float")
    6161                      .dwattr $C$DW$T$16, DW_AT_byte_size(0x02)
    6162              $C$DW$T$17      .dwtag  DW_TAG_base_type
    6163                      .dwattr $C$DW$T$17, DW_AT_encoding(DW_ATE_float)
    6164                      .dwattr $C$DW$T$17, DW_AT_name("double")
    6165                      .dwattr $C$DW$T$17, DW_AT_byte_size(0x02)
    6166              $C$DW$T$18      .dwtag  DW_TAG_base_type
    6167                      .dwattr $C$DW$T$18, DW_AT_encoding(DW_ATE_float)
    6168                      .dwattr $C$DW$T$18, DW_AT_name("long double")
    6169                      .dwattr $C$DW$T$18, DW_AT_byte_size(0x02)
    6170              $C$DW$T$171     .dwtag  DW_TAG_base_type
    6171                      .dwattr $C$DW$T$171, DW_AT_encoding(DW_ATE_signed_char)
    6172                      .dwattr $C$DW$T$171, DW_AT_name("signed char")
    6173                      .dwattr $C$DW$T$171, DW_AT_byte_size(0x01)
    6174              $C$DW$693       .dwtag  DW_TAG_TI_far_type
    6175                      .dwattr $C$DW$693, DW_AT_type(*$C$DW$T$171)
    6176              $C$DW$T$172     .dwtag  DW_TAG_const_type
    6177                      .dwattr $C$DW$T$172, DW_AT_type(*$C$DW$693)
    6178              $C$DW$T$173     .dwtag  DW_TAG_pointer_type
    6179                      .dwattr $C$DW$T$173, DW_AT_type(*$C$DW$T$172)
    6180                      .dwattr $C$DW$T$173, DW_AT_address_class(0x17)
    6181                      .dwattr $C$DW$CU, DW_AT_language(DW_LANG_C)
    6182              
    6183              ;***************************************************************
    6184              ;* DWARF CIE ENTRIES                                           *
    6185              ;***************************************************************
    6186              
    6187              $C$DW$CIE       .dwcie 91
    6188                      .dwcfi  cfa_register, 36
    6189                      .dwcfi  cfa_offset, 0
    6190                      .dwcfi  undefined, 0
    6191                      .dwcfi  undefined, 1
    6192                      .dwcfi  undefined, 2
    6193                      .dwcfi  undefined, 3
    6194                      .dwcfi  undefined, 4
    6195                      .dwcfi  undefined, 5
    6196                      .dwcfi  undefined, 6
TMS320C55x Assembler PC v4.4.1 Sat Sep 29 23:09:00 2018

Tools Copyright (c) 1996-2012 Texas Instruments Incorporated
csl_mmcsd_dma_example.asm                                            PAGE  161

    6197                      .dwcfi  undefined, 7
    6198                      .dwcfi  undefined, 8
    6199                      .dwcfi  undefined, 9
    6200                      .dwcfi  undefined, 10
    6201                      .dwcfi  undefined, 11
    6202                      .dwcfi  undefined, 12
    6203                      .dwcfi  undefined, 13
    6204                      .dwcfi  same_value, 14
    6205                      .dwcfi  same_value, 15
    6206                      .dwcfi  undefined, 16
    6207                      .dwcfi  undefined, 17
    6208                      .dwcfi  undefined, 18
    6209                      .dwcfi  undefined, 19
    6210                      .dwcfi  undefined, 20
    6211                      .dwcfi  undefined, 21
    6212                      .dwcfi  undefined, 22
    6213                      .dwcfi  undefined, 23
    6214                      .dwcfi  undefined, 24
    6215                      .dwcfi  undefined, 25
    6216                      .dwcfi  same_value, 26
    6217                      .dwcfi  same_value, 27
    6218                      .dwcfi  same_value, 28
    6219                      .dwcfi  same_value, 29
    6220                      .dwcfi  same_value, 30
    6221                      .dwcfi  same_value, 31
    6222                      .dwcfi  undefined, 32
    6223                      .dwcfi  undefined, 33
    6224                      .dwcfi  undefined, 34
    6225                      .dwcfi  undefined, 35
    6226                      .dwcfi  undefined, 36
    6227                      .dwcfi  undefined, 37
    6228                      .dwcfi  undefined, 38
    6229                      .dwcfi  undefined, 39
    6230                      .dwcfi  undefined, 40
    6231                      .dwcfi  undefined, 41
    6232                      .dwcfi  undefined, 42
    6233                      .dwcfi  undefined, 43
    6234                      .dwcfi  undefined, 44
    6235                      .dwcfi  undefined, 45
    6236                      .dwcfi  undefined, 46
    6237                      .dwcfi  undefined, 47
    6238                      .dwcfi  undefined, 48
    6239                      .dwcfi  undefined, 49
    6240                      .dwcfi  undefined, 50
    6241                      .dwcfi  undefined, 51
    6242                      .dwcfi  undefined, 52
    6243                      .dwcfi  undefined, 53
    6244                      .dwcfi  undefined, 54
    6245                      .dwcfi  undefined, 55
    6246                      .dwcfi  undefined, 56
    6247                      .dwcfi  undefined, 57
    6248                      .dwcfi  undefined, 58
    6249                      .dwcfi  undefined, 59
    6250                      .dwcfi  undefined, 60
    6251                      .dwcfi  undefined, 61
TMS320C55x Assembler PC v4.4.1 Sat Sep 29 23:09:00 2018

Tools Copyright (c) 1996-2012 Texas Instruments Incorporated
csl_mmcsd_dma_example.asm                                            PAGE  162

    6252                      .dwcfi  undefined, 62
    6253                      .dwcfi  undefined, 63
    6254                      .dwcfi  undefined, 64
    6255                      .dwcfi  undefined, 65
    6256                      .dwcfi  undefined, 66
    6257                      .dwcfi  undefined, 67
    6258                      .dwcfi  undefined, 68
    6259                      .dwcfi  undefined, 69
    6260                      .dwcfi  undefined, 70
    6261                      .dwcfi  undefined, 71
    6262                      .dwcfi  undefined, 72
    6263                      .dwcfi  undefined, 73
    6264                      .dwcfi  undefined, 74
    6265                      .dwcfi  undefined, 75
    6266                      .dwcfi  undefined, 76
    6267                      .dwcfi  undefined, 77
    6268                      .dwcfi  undefined, 78
    6269                      .dwcfi  undefined, 79
    6270                      .dwcfi  undefined, 80
    6271                      .dwcfi  undefined, 81
    6272                      .dwcfi  undefined, 82
    6273                      .dwcfi  undefined, 83
    6274                      .dwcfi  undefined, 84
    6275                      .dwcfi  undefined, 85
    6276                      .dwcfi  undefined, 86
    6277                      .dwcfi  undefined, 87
    6278                      .dwcfi  undefined, 88
    6279                      .dwcfi  undefined, 89
    6280                      .dwcfi  undefined, 90
    6281                      .dwcfi  undefined, 91
    6282                      .dwendentry
    6283              
    6284              ;***************************************************************
    6285              ;* DWARF REGISTER MAP                                          *
    6286              ;***************************************************************
    6287              
    6288              $C$DW$694       .dwtag  DW_TAG_TI_assign_register, DW_AT_name("AC0")
    6289                      .dwattr $C$DW$694, DW_AT_location[DW_OP_reg0]
    6290              $C$DW$695       .dwtag  DW_TAG_TI_assign_register, DW_AT_name("AC0")
    6291                      .dwattr $C$DW$695, DW_AT_location[DW_OP_reg1]
    6292              $C$DW$696       .dwtag  DW_TAG_TI_assign_register, DW_AT_name("AC0_G")
    6293                      .dwattr $C$DW$696, DW_AT_location[DW_OP_reg2]
    6294              $C$DW$697       .dwtag  DW_TAG_TI_assign_register, DW_AT_name("AC1")
    6295                      .dwattr $C$DW$697, DW_AT_location[DW_OP_reg3]
    6296              $C$DW$698       .dwtag  DW_TAG_TI_assign_register, DW_AT_name("AC1")
    6297                      .dwattr $C$DW$698, DW_AT_location[DW_OP_reg4]
    6298              $C$DW$699       .dwtag  DW_TAG_TI_assign_register, DW_AT_name("AC1_G")
    6299                      .dwattr $C$DW$699, DW_AT_location[DW_OP_reg5]
    6300              $C$DW$700       .dwtag  DW_TAG_TI_assign_register, DW_AT_name("AC2")
    6301                      .dwattr $C$DW$700, DW_AT_location[DW_OP_reg6]
    6302              $C$DW$701       .dwtag  DW_TAG_TI_assign_register, DW_AT_name("AC2")
    6303                      .dwattr $C$DW$701, DW_AT_location[DW_OP_reg7]
    6304              $C$DW$702       .dwtag  DW_TAG_TI_assign_register, DW_AT_name("AC2_G")
    6305                      .dwattr $C$DW$702, DW_AT_location[DW_OP_reg8]
    6306              $C$DW$703       .dwtag  DW_TAG_TI_assign_register, DW_AT_name("AC3")
TMS320C55x Assembler PC v4.4.1 Sat Sep 29 23:09:00 2018

Tools Copyright (c) 1996-2012 Texas Instruments Incorporated
csl_mmcsd_dma_example.asm                                            PAGE  163

    6307                      .dwattr $C$DW$703, DW_AT_location[DW_OP_reg9]
    6308              $C$DW$704       .dwtag  DW_TAG_TI_assign_register, DW_AT_name("AC3")
    6309                      .dwattr $C$DW$704, DW_AT_location[DW_OP_reg10]
    6310              $C$DW$705       .dwtag  DW_TAG_TI_assign_register, DW_AT_name("AC3_G")
    6311                      .dwattr $C$DW$705, DW_AT_location[DW_OP_reg11]
    6312              $C$DW$706       .dwtag  DW_TAG_TI_assign_register, DW_AT_name("T0")
    6313                      .dwattr $C$DW$706, DW_AT_location[DW_OP_reg12]
    6314              $C$DW$707       .dwtag  DW_TAG_TI_assign_register, DW_AT_name("T1")
    6315                      .dwattr $C$DW$707, DW_AT_location[DW_OP_reg13]
    6316              $C$DW$708       .dwtag  DW_TAG_TI_assign_register, DW_AT_name("T2")
    6317                      .dwattr $C$DW$708, DW_AT_location[DW_OP_reg14]
    6318              $C$DW$709       .dwtag  DW_TAG_TI_assign_register, DW_AT_name("T3")
    6319                      .dwattr $C$DW$709, DW_AT_location[DW_OP_reg15]
    6320              $C$DW$710       .dwtag  DW_TAG_TI_assign_register, DW_AT_name("AR0")
    6321                      .dwattr $C$DW$710, DW_AT_location[DW_OP_reg16]
    6322              $C$DW$711       .dwtag  DW_TAG_TI_assign_register, DW_AT_name("XAR0")
    6323                      .dwattr $C$DW$711, DW_AT_location[DW_OP_reg17]
    6324              $C$DW$712       .dwtag  DW_TAG_TI_assign_register, DW_AT_name("AR1")
    6325                      .dwattr $C$DW$712, DW_AT_location[DW_OP_reg18]
    6326              $C$DW$713       .dwtag  DW_TAG_TI_assign_register, DW_AT_name("XAR1")
    6327                      .dwattr $C$DW$713, DW_AT_location[DW_OP_reg19]
    6328              $C$DW$714       .dwtag  DW_TAG_TI_assign_register, DW_AT_name("AR2")
    6329                      .dwattr $C$DW$714, DW_AT_location[DW_OP_reg20]
    6330              $C$DW$715       .dwtag  DW_TAG_TI_assign_register, DW_AT_name("XAR2")
    6331                      .dwattr $C$DW$715, DW_AT_location[DW_OP_reg21]
    6332              $C$DW$716       .dwtag  DW_TAG_TI_assign_register, DW_AT_name("AR3")
    6333                      .dwattr $C$DW$716, DW_AT_location[DW_OP_reg22]
    6334              $C$DW$717       .dwtag  DW_TAG_TI_assign_register, DW_AT_name("XAR3")
    6335                      .dwattr $C$DW$717, DW_AT_location[DW_OP_reg23]
    6336              $C$DW$718       .dwtag  DW_TAG_TI_assign_register, DW_AT_name("AR4")
    6337                      .dwattr $C$DW$718, DW_AT_location[DW_OP_reg24]
    6338              $C$DW$719       .dwtag  DW_TAG_TI_assign_register, DW_AT_name("XAR4")
    6339                      .dwattr $C$DW$719, DW_AT_location[DW_OP_reg25]
    6340              $C$DW$720       .dwtag  DW_TAG_TI_assign_register, DW_AT_name("AR5")
    6341                      .dwattr $C$DW$720, DW_AT_location[DW_OP_reg26]
    6342              $C$DW$721       .dwtag  DW_TAG_TI_assign_register, DW_AT_name("XAR5")
    6343                      .dwattr $C$DW$721, DW_AT_location[DW_OP_reg27]
    6344              $C$DW$722       .dwtag  DW_TAG_TI_assign_register, DW_AT_name("AR6")
    6345                      .dwattr $C$DW$722, DW_AT_location[DW_OP_reg28]
    6346              $C$DW$723       .dwtag  DW_TAG_TI_assign_register, DW_AT_name("XAR6")
    6347                      .dwattr $C$DW$723, DW_AT_location[DW_OP_reg29]
    6348              $C$DW$724       .dwtag  DW_TAG_TI_assign_register, DW_AT_name("AR7")
    6349                      .dwattr $C$DW$724, DW_AT_location[DW_OP_reg30]
    6350              $C$DW$725       .dwtag  DW_TAG_TI_assign_register, DW_AT_name("XAR7")
    6351                      .dwattr $C$DW$725, DW_AT_location[DW_OP_reg31]
    6352              $C$DW$726       .dwtag  DW_TAG_TI_assign_register, DW_AT_name("FP")
    6353                      .dwattr $C$DW$726, DW_AT_location[DW_OP_regx 0x20]
    6354              $C$DW$727       .dwtag  DW_TAG_TI_assign_register, DW_AT_name("XFP")
    6355                      .dwattr $C$DW$727, DW_AT_location[DW_OP_regx 0x21]
    6356              $C$DW$728       .dwtag  DW_TAG_TI_assign_register, DW_AT_name("PC")
    6357                      .dwattr $C$DW$728, DW_AT_location[DW_OP_regx 0x22]
    6358              $C$DW$729       .dwtag  DW_TAG_TI_assign_register, DW_AT_name("SP")
    6359                      .dwattr $C$DW$729, DW_AT_location[DW_OP_regx 0x23]
    6360              $C$DW$730       .dwtag  DW_TAG_TI_assign_register, DW_AT_name("XSP")
    6361                      .dwattr $C$DW$730, DW_AT_location[DW_OP_regx 0x24]
TMS320C55x Assembler PC v4.4.1 Sat Sep 29 23:09:00 2018

Tools Copyright (c) 1996-2012 Texas Instruments Incorporated
csl_mmcsd_dma_example.asm                                            PAGE  164

    6362              $C$DW$731       .dwtag  DW_TAG_TI_assign_register, DW_AT_name("BKC")
    6363                      .dwattr $C$DW$731, DW_AT_location[DW_OP_regx 0x25]
    6364              $C$DW$732       .dwtag  DW_TAG_TI_assign_register, DW_AT_name("BK03")
    6365                      .dwattr $C$DW$732, DW_AT_location[DW_OP_regx 0x26]
    6366              $C$DW$733       .dwtag  DW_TAG_TI_assign_register, DW_AT_name("BK47")
    6367                      .dwattr $C$DW$733, DW_AT_location[DW_OP_regx 0x27]
    6368              $C$DW$734       .dwtag  DW_TAG_TI_assign_register, DW_AT_name("ST0")
    6369                      .dwattr $C$DW$734, DW_AT_location[DW_OP_regx 0x28]
    6370              $C$DW$735       .dwtag  DW_TAG_TI_assign_register, DW_AT_name("ST1")
    6371                      .dwattr $C$DW$735, DW_AT_location[DW_OP_regx 0x29]
    6372              $C$DW$736       .dwtag  DW_TAG_TI_assign_register, DW_AT_name("ST2")
    6373                      .dwattr $C$DW$736, DW_AT_location[DW_OP_regx 0x2a]
    6374              $C$DW$737       .dwtag  DW_TAG_TI_assign_register, DW_AT_name("ST3")
    6375                      .dwattr $C$DW$737, DW_AT_location[DW_OP_regx 0x2b]
    6376              $C$DW$738       .dwtag  DW_TAG_TI_assign_register, DW_AT_name("MDP")
    6377                      .dwattr $C$DW$738, DW_AT_location[DW_OP_regx 0x2c]
    6378              $C$DW$739       .dwtag  DW_TAG_TI_assign_register, DW_AT_name("MDP05")
    6379                      .dwattr $C$DW$739, DW_AT_location[DW_OP_regx 0x2d]
    6380              $C$DW$740       .dwtag  DW_TAG_TI_assign_register, DW_AT_name("MDP67")
    6381                      .dwattr $C$DW$740, DW_AT_location[DW_OP_regx 0x2e]
    6382              $C$DW$741       .dwtag  DW_TAG_TI_assign_register, DW_AT_name("BRC0")
    6383                      .dwattr $C$DW$741, DW_AT_location[DW_OP_regx 0x2f]
    6384              $C$DW$742       .dwtag  DW_TAG_TI_assign_register, DW_AT_name("RSA0")
    6385                      .dwattr $C$DW$742, DW_AT_location[DW_OP_regx 0x30]
    6386              $C$DW$743       .dwtag  DW_TAG_TI_assign_register, DW_AT_name("RSA0_H")
    6387                      .dwattr $C$DW$743, DW_AT_location[DW_OP_regx 0x31]
    6388              $C$DW$744       .dwtag  DW_TAG_TI_assign_register, DW_AT_name("REA0")
    6389                      .dwattr $C$DW$744, DW_AT_location[DW_OP_regx 0x32]
    6390              $C$DW$745       .dwtag  DW_TAG_TI_assign_register, DW_AT_name("REA0_H")
    6391                      .dwattr $C$DW$745, DW_AT_location[DW_OP_regx 0x33]
    6392              $C$DW$746       .dwtag  DW_TAG_TI_assign_register, DW_AT_name("BRS1")
    6393                      .dwattr $C$DW$746, DW_AT_location[DW_OP_regx 0x34]
    6394              $C$DW$747       .dwtag  DW_TAG_TI_assign_register, DW_AT_name("BRC1")
    6395                      .dwattr $C$DW$747, DW_AT_location[DW_OP_regx 0x35]
    6396              $C$DW$748       .dwtag  DW_TAG_TI_assign_register, DW_AT_name("RSA1")
    6397                      .dwattr $C$DW$748, DW_AT_location[DW_OP_regx 0x36]
    6398              $C$DW$749       .dwtag  DW_TAG_TI_assign_register, DW_AT_name("RSA1_H")
    6399                      .dwattr $C$DW$749, DW_AT_location[DW_OP_regx 0x37]
    6400              $C$DW$750       .dwtag  DW_TAG_TI_assign_register, DW_AT_name("REA1")
    6401                      .dwattr $C$DW$750, DW_AT_location[DW_OP_regx 0x38]
    6402              $C$DW$751       .dwtag  DW_TAG_TI_assign_register, DW_AT_name("REA1_H")
    6403                      .dwattr $C$DW$751, DW_AT_location[DW_OP_regx 0x39]
    6404              $C$DW$752       .dwtag  DW_TAG_TI_assign_register, DW_AT_name("CSR")
    6405                      .dwattr $C$DW$752, DW_AT_location[DW_OP_regx 0x3a]
    6406              $C$DW$753       .dwtag  DW_TAG_TI_assign_register, DW_AT_name("RPTC")
    6407                      .dwattr $C$DW$753, DW_AT_location[DW_OP_regx 0x3b]
    6408              $C$DW$754       .dwtag  DW_TAG_TI_assign_register, DW_AT_name("CDP")
    6409                      .dwattr $C$DW$754, DW_AT_location[DW_OP_regx 0x3c]
    6410              $C$DW$755       .dwtag  DW_TAG_TI_assign_register, DW_AT_name("XCDP")
    6411                      .dwattr $C$DW$755, DW_AT_location[DW_OP_regx 0x3d]
    6412              $C$DW$756       .dwtag  DW_TAG_TI_assign_register, DW_AT_name("TRN0")
    6413                      .dwattr $C$DW$756, DW_AT_location[DW_OP_regx 0x3e]
    6414              $C$DW$757       .dwtag  DW_TAG_TI_assign_register, DW_AT_name("TRN1")
    6415                      .dwattr $C$DW$757, DW_AT_location[DW_OP_regx 0x3f]
    6416              $C$DW$758       .dwtag  DW_TAG_TI_assign_register, DW_AT_name("BSA01")
TMS320C55x Assembler PC v4.4.1 Sat Sep 29 23:09:00 2018

Tools Copyright (c) 1996-2012 Texas Instruments Incorporated
csl_mmcsd_dma_example.asm                                            PAGE  165

    6417                      .dwattr $C$DW$758, DW_AT_location[DW_OP_regx 0x40]
    6418              $C$DW$759       .dwtag  DW_TAG_TI_assign_register, DW_AT_name("BSA23")
    6419                      .dwattr $C$DW$759, DW_AT_location[DW_OP_regx 0x41]
    6420              $C$DW$760       .dwtag  DW_TAG_TI_assign_register, DW_AT_name("BSA45")
    6421                      .dwattr $C$DW$760, DW_AT_location[DW_OP_regx 0x42]
    6422              $C$DW$761       .dwtag  DW_TAG_TI_assign_register, DW_AT_name("BSA67")
    6423                      .dwattr $C$DW$761, DW_AT_location[DW_OP_regx 0x43]
    6424              $C$DW$762       .dwtag  DW_TAG_TI_assign_register, DW_AT_name("BSAC")
    6425                      .dwattr $C$DW$762, DW_AT_location[DW_OP_regx 0x44]
    6426              $C$DW$763       .dwtag  DW_TAG_TI_assign_register, DW_AT_name("CARRY")
    6427                      .dwattr $C$DW$763, DW_AT_location[DW_OP_regx 0x45]
    6428              $C$DW$764       .dwtag  DW_TAG_TI_assign_register, DW_AT_name("TC1")
    6429                      .dwattr $C$DW$764, DW_AT_location[DW_OP_regx 0x46]
    6430              $C$DW$765       .dwtag  DW_TAG_TI_assign_register, DW_AT_name("TC2")
    6431                      .dwattr $C$DW$765, DW_AT_location[DW_OP_regx 0x47]
    6432              $C$DW$766       .dwtag  DW_TAG_TI_assign_register, DW_AT_name("M40")
    6433                      .dwattr $C$DW$766, DW_AT_location[DW_OP_regx 0x48]
    6434              $C$DW$767       .dwtag  DW_TAG_TI_assign_register, DW_AT_name("SXMD")
    6435                      .dwattr $C$DW$767, DW_AT_location[DW_OP_regx 0x49]
    6436              $C$DW$768       .dwtag  DW_TAG_TI_assign_register, DW_AT_name("ARMS")
    6437                      .dwattr $C$DW$768, DW_AT_location[DW_OP_regx 0x4a]
    6438              $C$DW$769       .dwtag  DW_TAG_TI_assign_register, DW_AT_name("C54CM")
    6439                      .dwattr $C$DW$769, DW_AT_location[DW_OP_regx 0x4b]
    6440              $C$DW$770       .dwtag  DW_TAG_TI_assign_register, DW_AT_name("SATA")
    6441                      .dwattr $C$DW$770, DW_AT_location[DW_OP_regx 0x4c]
    6442              $C$DW$771       .dwtag  DW_TAG_TI_assign_register, DW_AT_name("SATD")
    6443                      .dwattr $C$DW$771, DW_AT_location[DW_OP_regx 0x4d]
    6444              $C$DW$772       .dwtag  DW_TAG_TI_assign_register, DW_AT_name("RDM")
    6445                      .dwattr $C$DW$772, DW_AT_location[DW_OP_regx 0x4e]
    6446              $C$DW$773       .dwtag  DW_TAG_TI_assign_register, DW_AT_name("FRCT")
    6447                      .dwattr $C$DW$773, DW_AT_location[DW_OP_regx 0x4f]
    6448              $C$DW$774       .dwtag  DW_TAG_TI_assign_register, DW_AT_name("SMUL")
    6449                      .dwattr $C$DW$774, DW_AT_location[DW_OP_regx 0x50]
    6450              $C$DW$775       .dwtag  DW_TAG_TI_assign_register, DW_AT_name("INTM")
    6451                      .dwattr $C$DW$775, DW_AT_location[DW_OP_regx 0x51]
    6452              $C$DW$776       .dwtag  DW_TAG_TI_assign_register, DW_AT_name("AR0LC")
    6453                      .dwattr $C$DW$776, DW_AT_location[DW_OP_regx 0x52]
    6454              $C$DW$777       .dwtag  DW_TAG_TI_assign_register, DW_AT_name("AR1LC")
    6455                      .dwattr $C$DW$777, DW_AT_location[DW_OP_regx 0x53]
    6456              $C$DW$778       .dwtag  DW_TAG_TI_assign_register, DW_AT_name("AR2LC")
    6457                      .dwattr $C$DW$778, DW_AT_location[DW_OP_regx 0x54]
    6458              $C$DW$779       .dwtag  DW_TAG_TI_assign_register, DW_AT_name("AR3LC")
    6459                      .dwattr $C$DW$779, DW_AT_location[DW_OP_regx 0x55]
    6460              $C$DW$780       .dwtag  DW_TAG_TI_assign_register, DW_AT_name("AR4LC")
    6461                      .dwattr $C$DW$780, DW_AT_location[DW_OP_regx 0x56]
    6462              $C$DW$781       .dwtag  DW_TAG_TI_assign_register, DW_AT_name("AR5LC")
    6463                      .dwattr $C$DW$781, DW_AT_location[DW_OP_regx 0x57]
    6464              $C$DW$782       .dwtag  DW_TAG_TI_assign_register, DW_AT_name("AR6LC")
    6465                      .dwattr $C$DW$782, DW_AT_location[DW_OP_regx 0x58]
    6466              $C$DW$783       .dwtag  DW_TAG_TI_assign_register, DW_AT_name("AR7LC")
    6467                      .dwattr $C$DW$783, DW_AT_location[DW_OP_regx 0x59]
    6468              $C$DW$784       .dwtag  DW_TAG_TI_assign_register, DW_AT_name("CDPLC")
    6469                      .dwattr $C$DW$784, DW_AT_location[DW_OP_regx 0x5a]
    6470              $C$DW$785       .dwtag  DW_TAG_TI_assign_register, DW_AT_name("CIE_RETA")
    6471                      .dwattr $C$DW$785, DW_AT_location[DW_OP_regx 0x5b]
TMS320C55x Assembler PC v4.4.1 Sat Sep 29 23:09:00 2018

Tools Copyright (c) 1996-2012 Texas Instruments Incorporated
csl_mmcsd_dma_example.asm                                            PAGE  166

    6472                      .dwendtag $C$DW$CU
    6473              
    6473              
    6473              

No Assembly Errors, No Assembly Warnings
