TMS320C55x Assembler PC v4.4.1 Sat Sep 29 23:09:00 2018

Tools Copyright (c) 1996-2012 Texas Instruments Incorporated
csl_mmcsd_dma_example.asm                                            PAGE    1

    6473              ; Temporary Registers Used: None
       1              ;*******************************************************************************
       2              ;* TMS320C55x C/C++ Codegen                                          PC v4.4.1 *
       3              ;* Date/Time created: Sat Sep 29 23:08:59 2018                                 *
       4              ;*******************************************************************************
       5                      .compiler_opts --hll_source=on --mem_model:code=flat --mem_model:data=large --object_format=coff --si
       6                      .mmregs
       7                      .cpl_on
       8                      .arms_on
       9                      .c54cm_off
      10                      .asg AR6, FP
      11                      .asg XAR6, XFP
      12                      .asg DPH, MDP
      13                      .model call=c55_std
      14                      .model mem=large
      15                      .noremark 5002  ; code respects overwrite rules
      16              ;*******************************************************************************
      17              ;* GLOBAL FILE PARAMETERS                                                      *
      18              ;*                                                                             *
      19              ;*   Architecture       : TMS320C55x                                           *
      20              ;*   Optimizing for     : Speed                                                *
      21              ;*   Memory             : Large Model (23-Bit Data Pointers)                   *
      22              ;*   Calls              : Normal Library ASM calls                             *
      23              ;*   Debug Info         : Standard TI Debug Information                        *
      24              ;*******************************************************************************
      25              
      26              $C$DW$CU        .dwtag  DW_TAG_compile_unit
      27                      .dwattr $C$DW$CU, DW_AT_name("../c5535_bsl_revc/ezdsp5535_v1/c55xx_csl/ccs_v4.0_examples/mmc_sd/CSL_M
      28                      .dwattr $C$DW$CU, DW_AT_producer("TMS320C55x C/C++ Codegen PC v4.4.1 Copyright (c) 1996-2012 Texas In
      29                      .dwattr $C$DW$CU, DW_AT_TI_version(0x01)
      30                      .dwattr $C$DW$CU, DW_AT_comp_dir("F:\eZdsp_DBG\tmp1\c55x-sim2\foo\Debug")
      31              ;******************************************************************************
      32              ;* CINIT RECORDS                                                              *
      33              ;******************************************************************************
      34 000000               .sect   ".cinit"
      35                      .align  1
      36 000000 0001          .field          1,16
      37 000001 0006-         .field          _PaSs_StAtE+0,24
         000002 B000 
      38 000002 B000          .field          0,8
      39 000003 0001          .field  1,16                    ; _PaSs_StAtE @ 0
      40              
      41 000004               .sect   ".cinit"
      42                      .align  1
      43 000004 0001          .field          1,16
      44 000005 0006-         .field          _PaSs+0,24
         000006 B100 
      45 000006 B100          .field          0,8
      46 000007 0000          .field  0,16                    ; _PaSs @ 0
      47              
      48              
      49              $C$DW$1 .dwtag  DW_TAG_subprogram, DW_AT_name("DMA_init")
      50                      .dwattr $C$DW$1, DW_AT_TI_symbol_name("_DMA_init")
      51                      .dwattr $C$DW$1, DW_AT_type(*$C$DW$T$106)
      52                      .dwattr $C$DW$1, DW_AT_declaration
TMS320C55x Assembler PC v4.4.1 Sat Sep 29 23:09:00 2018

Tools Copyright (c) 1996-2012 Texas Instruments Incorporated
csl_mmcsd_dma_example.asm                                            PAGE    2

      53                      .dwattr $C$DW$1, DW_AT_external
      54              
      55              $C$DW$2 .dwtag  DW_TAG_subprogram, DW_AT_name("DMA_open")
      56                      .dwattr $C$DW$2, DW_AT_TI_symbol_name("_DMA_open")
      57                      .dwattr $C$DW$2, DW_AT_type(*$C$DW$T$89)
      58                      .dwattr $C$DW$2, DW_AT_declaration
      59                      .dwattr $C$DW$2, DW_AT_external
      60              $C$DW$3 .dwtag  DW_TAG_formal_parameter
      61                      .dwattr $C$DW$3, DW_AT_type(*$C$DW$T$28)
      62              $C$DW$4 .dwtag  DW_TAG_formal_parameter
      63                      .dwattr $C$DW$4, DW_AT_type(*$C$DW$T$88)
      64              $C$DW$5 .dwtag  DW_TAG_formal_parameter
      65                      .dwattr $C$DW$5, DW_AT_type(*$C$DW$T$107)
      66                      .dwendtag $C$DW$2
      67              
      68              
      69              $C$DW$6 .dwtag  DW_TAG_subprogram, DW_AT_name("MMC_init")
      70                      .dwattr $C$DW$6, DW_AT_TI_symbol_name("_MMC_init")
      71                      .dwattr $C$DW$6, DW_AT_type(*$C$DW$T$106)
      72                      .dwattr $C$DW$6, DW_AT_declaration
      73                      .dwattr $C$DW$6, DW_AT_external
      74              
      75              $C$DW$7 .dwtag  DW_TAG_subprogram, DW_AT_name("MMC_open")
      76                      .dwattr $C$DW$7, DW_AT_TI_symbol_name("_MMC_open")
      77                      .dwattr $C$DW$7, DW_AT_type(*$C$DW$T$112)
      78                      .dwattr $C$DW$7, DW_AT_declaration
      79                      .dwattr $C$DW$7, DW_AT_external
      80              $C$DW$8 .dwtag  DW_TAG_formal_parameter
      81                      .dwattr $C$DW$8, DW_AT_type(*$C$DW$T$111)
      82              $C$DW$9 .dwtag  DW_TAG_formal_parameter
      83                      .dwattr $C$DW$9, DW_AT_type(*$C$DW$T$104)
      84              $C$DW$10        .dwtag  DW_TAG_formal_parameter
      85                      .dwattr $C$DW$10, DW_AT_type(*$C$DW$T$86)
      86              $C$DW$11        .dwtag  DW_TAG_formal_parameter
      87                      .dwattr $C$DW$11, DW_AT_type(*$C$DW$T$107)
      88                      .dwendtag $C$DW$7
      89              
      90              
      91              $C$DW$12        .dwtag  DW_TAG_subprogram, DW_AT_name("MMC_close")
      92                      .dwattr $C$DW$12, DW_AT_TI_symbol_name("_MMC_close")
      93                      .dwattr $C$DW$12, DW_AT_type(*$C$DW$T$106)
      94                      .dwattr $C$DW$12, DW_AT_declaration
      95                      .dwattr $C$DW$12, DW_AT_external
      96              $C$DW$13        .dwtag  DW_TAG_formal_parameter
      97                      .dwattr $C$DW$13, DW_AT_type(*$C$DW$T$112)
      98                      .dwendtag $C$DW$12
      99              
     100              
     101              $C$DW$14        .dwtag  DW_TAG_subprogram, DW_AT_name("MMC_setCardType")
     102                      .dwattr $C$DW$14, DW_AT_TI_symbol_name("_MMC_setCardType")
     103                      .dwattr $C$DW$14, DW_AT_type(*$C$DW$T$106)
     104                      .dwattr $C$DW$14, DW_AT_declaration
     105                      .dwattr $C$DW$14, DW_AT_external
     106              $C$DW$15        .dwtag  DW_TAG_formal_parameter
     107                      .dwattr $C$DW$15, DW_AT_type(*$C$DW$T$82)
TMS320C55x Assembler PC v4.4.1 Sat Sep 29 23:09:00 2018

Tools Copyright (c) 1996-2012 Texas Instruments Incorporated
csl_mmcsd_dma_example.asm                                            PAGE    3

     108              $C$DW$16        .dwtag  DW_TAG_formal_parameter
     109                      .dwattr $C$DW$16, DW_AT_type(*$C$DW$T$53)
     110                      .dwendtag $C$DW$14
     111              
     112              
     113              $C$DW$17        .dwtag  DW_TAG_subprogram, DW_AT_name("MMC_setCardPtr")
     114                      .dwattr $C$DW$17, DW_AT_TI_symbol_name("_MMC_setCardPtr")
     115                      .dwattr $C$DW$17, DW_AT_type(*$C$DW$T$106)
     116                      .dwattr $C$DW$17, DW_AT_declaration
     117                      .dwattr $C$DW$17, DW_AT_external
     118              $C$DW$18        .dwtag  DW_TAG_formal_parameter
     119                      .dwattr $C$DW$18, DW_AT_type(*$C$DW$T$112)
     120              $C$DW$19        .dwtag  DW_TAG_formal_parameter
     121                      .dwattr $C$DW$19, DW_AT_type(*$C$DW$T$82)
     122                      .dwendtag $C$DW$17
     123              
     124              
     125              $C$DW$20        .dwtag  DW_TAG_subprogram, DW_AT_name("MMC_getNumberOfCards")
     126                      .dwattr $C$DW$20, DW_AT_TI_symbol_name("_MMC_getNumberOfCards")
     127                      .dwattr $C$DW$20, DW_AT_type(*$C$DW$T$106)
     128                      .dwattr $C$DW$20, DW_AT_declaration
     129                      .dwattr $C$DW$20, DW_AT_external
     130              $C$DW$21        .dwtag  DW_TAG_formal_parameter
     131                      .dwattr $C$DW$21, DW_AT_type(*$C$DW$T$112)
     132              $C$DW$22        .dwtag  DW_TAG_formal_parameter
     133                      .dwattr $C$DW$22, DW_AT_type(*$C$DW$T$130)
     134                      .dwendtag $C$DW$20
     135              
     136              
     137              $C$DW$23        .dwtag  DW_TAG_subprogram, DW_AT_name("MMC_intEnable")
     138                      .dwattr $C$DW$23, DW_AT_TI_symbol_name("_MMC_intEnable")
     139                      .dwattr $C$DW$23, DW_AT_type(*$C$DW$T$106)
     140                      .dwattr $C$DW$23, DW_AT_declaration
     141                      .dwattr $C$DW$23, DW_AT_external
     142              $C$DW$24        .dwtag  DW_TAG_formal_parameter
     143                      .dwattr $C$DW$24, DW_AT_type(*$C$DW$T$112)
     144              $C$DW$25        .dwtag  DW_TAG_formal_parameter
     145                      .dwattr $C$DW$25, DW_AT_type(*$C$DW$T$19)
     146                      .dwendtag $C$DW$23
     147              
     148              
     149              $C$DW$26        .dwtag  DW_TAG_subprogram, DW_AT_name("MMC_sendGoIdle")
     150                      .dwattr $C$DW$26, DW_AT_TI_symbol_name("_MMC_sendGoIdle")
     151                      .dwattr $C$DW$26, DW_AT_type(*$C$DW$T$106)
     152                      .dwattr $C$DW$26, DW_AT_declaration
     153                      .dwattr $C$DW$26, DW_AT_external
     154              $C$DW$27        .dwtag  DW_TAG_formal_parameter
     155                      .dwattr $C$DW$27, DW_AT_type(*$C$DW$T$112)
     156                      .dwendtag $C$DW$26
     157              
     158              
     159              $C$DW$28        .dwtag  DW_TAG_subprogram, DW_AT_name("MMC_selectCard")
     160                      .dwattr $C$DW$28, DW_AT_TI_symbol_name("_MMC_selectCard")
     161                      .dwattr $C$DW$28, DW_AT_type(*$C$DW$T$106)
     162                      .dwattr $C$DW$28, DW_AT_declaration
TMS320C55x Assembler PC v4.4.1 Sat Sep 29 23:09:00 2018

Tools Copyright (c) 1996-2012 Texas Instruments Incorporated
csl_mmcsd_dma_example.asm                                            PAGE    4

     163                      .dwattr $C$DW$28, DW_AT_external
     164              $C$DW$29        .dwtag  DW_TAG_formal_parameter
     165                      .dwattr $C$DW$29, DW_AT_type(*$C$DW$T$112)
     166              $C$DW$30        .dwtag  DW_TAG_formal_parameter
     167                      .dwattr $C$DW$30, DW_AT_type(*$C$DW$T$82)
     168                      .dwendtag $C$DW$28
     169              
     170              
     171              $C$DW$31        .dwtag  DW_TAG_subprogram, DW_AT_name("MMC_sendOpCond")
     172                      .dwattr $C$DW$31, DW_AT_TI_symbol_name("_MMC_sendOpCond")
     173                      .dwattr $C$DW$31, DW_AT_type(*$C$DW$T$106)
     174                      .dwattr $C$DW$31, DW_AT_declaration
     175                      .dwattr $C$DW$31, DW_AT_external
     176              $C$DW$32        .dwtag  DW_TAG_formal_parameter
     177                      .dwattr $C$DW$32, DW_AT_type(*$C$DW$T$112)
     178              $C$DW$33        .dwtag  DW_TAG_formal_parameter
     179                      .dwattr $C$DW$33, DW_AT_type(*$C$DW$T$19)
     180                      .dwendtag $C$DW$31
     181              
     182              
     183              $C$DW$34        .dwtag  DW_TAG_subprogram, DW_AT_name("MMC_setRca")
     184                      .dwattr $C$DW$34, DW_AT_TI_symbol_name("_MMC_setRca")
     185                      .dwattr $C$DW$34, DW_AT_type(*$C$DW$T$106)
     186                      .dwattr $C$DW$34, DW_AT_declaration
     187                      .dwattr $C$DW$34, DW_AT_external
     188              $C$DW$35        .dwtag  DW_TAG_formal_parameter
     189                      .dwattr $C$DW$35, DW_AT_type(*$C$DW$T$112)
     190              $C$DW$36        .dwtag  DW_TAG_formal_parameter
     191                      .dwattr $C$DW$36, DW_AT_type(*$C$DW$T$82)
     192              $C$DW$37        .dwtag  DW_TAG_formal_parameter
     193                      .dwattr $C$DW$37, DW_AT_type(*$C$DW$T$19)
     194                      .dwendtag $C$DW$34
     195              
     196              
     197              $C$DW$38        .dwtag  DW_TAG_subprogram, DW_AT_name("SD_sendRca")
     198                      .dwattr $C$DW$38, DW_AT_TI_symbol_name("_SD_sendRca")
     199                      .dwattr $C$DW$38, DW_AT_type(*$C$DW$T$106)
     200                      .dwattr $C$DW$38, DW_AT_declaration
     201                      .dwattr $C$DW$38, DW_AT_external
     202              $C$DW$39        .dwtag  DW_TAG_formal_parameter
     203                      .dwattr $C$DW$39, DW_AT_type(*$C$DW$T$112)
     204              $C$DW$40        .dwtag  DW_TAG_formal_parameter
     205                      .dwattr $C$DW$40, DW_AT_type(*$C$DW$T$82)
     206              $C$DW$41        .dwtag  DW_TAG_formal_parameter
     207                      .dwattr $C$DW$41, DW_AT_type(*$C$DW$T$130)
     208                      .dwendtag $C$DW$38
     209              
     210              
     211              $C$DW$42        .dwtag  DW_TAG_subprogram, DW_AT_name("MMC_sendAllCID")
     212                      .dwattr $C$DW$42, DW_AT_TI_symbol_name("_MMC_sendAllCID")
     213                      .dwattr $C$DW$42, DW_AT_type(*$C$DW$T$106)
     214                      .dwattr $C$DW$42, DW_AT_declaration
     215                      .dwattr $C$DW$42, DW_AT_external
     216              $C$DW$43        .dwtag  DW_TAG_formal_parameter
     217                      .dwattr $C$DW$43, DW_AT_type(*$C$DW$T$112)
TMS320C55x Assembler PC v4.4.1 Sat Sep 29 23:09:00 2018

Tools Copyright (c) 1996-2012 Texas Instruments Incorporated
csl_mmcsd_dma_example.asm                                            PAGE    5

     218              $C$DW$44        .dwtag  DW_TAG_formal_parameter
     219                      .dwattr $C$DW$44, DW_AT_type(*$C$DW$T$55)
     220                      .dwendtag $C$DW$42
     221              
     222              
     223              $C$DW$45        .dwtag  DW_TAG_subprogram, DW_AT_name("SD_sendAllCID")
     224                      .dwattr $C$DW$45, DW_AT_TI_symbol_name("_SD_sendAllCID")
     225                      .dwattr $C$DW$45, DW_AT_type(*$C$DW$T$106)
     226                      .dwattr $C$DW$45, DW_AT_declaration
     227                      .dwattr $C$DW$45, DW_AT_external
     228              $C$DW$46        .dwtag  DW_TAG_formal_parameter
     229                      .dwattr $C$DW$46, DW_AT_type(*$C$DW$T$112)
     230              $C$DW$47        .dwtag  DW_TAG_formal_parameter
     231                      .dwattr $C$DW$47, DW_AT_type(*$C$DW$T$55)
     232                      .dwendtag $C$DW$45
     233              
     234              
     235              $C$DW$48        .dwtag  DW_TAG_subprogram, DW_AT_name("MMC_getCardCsd")
     236                      .dwattr $C$DW$48, DW_AT_TI_symbol_name("_MMC_getCardCsd")
     237                      .dwattr $C$DW$48, DW_AT_type(*$C$DW$T$106)
     238                      .dwattr $C$DW$48, DW_AT_declaration
     239                      .dwattr $C$DW$48, DW_AT_external
     240              $C$DW$49        .dwtag  DW_TAG_formal_parameter
     241                      .dwattr $C$DW$49, DW_AT_type(*$C$DW$T$112)
     242              $C$DW$50        .dwtag  DW_TAG_formal_parameter
     243                      .dwattr $C$DW$50, DW_AT_type(*$C$DW$T$57)
     244                      .dwendtag $C$DW$48
     245              
     246              
     247              $C$DW$51        .dwtag  DW_TAG_subprogram, DW_AT_name("SD_getCardCsd")
     248                      .dwattr $C$DW$51, DW_AT_TI_symbol_name("_SD_getCardCsd")
     249                      .dwattr $C$DW$51, DW_AT_type(*$C$DW$T$106)
     250                      .dwattr $C$DW$51, DW_AT_declaration
     251                      .dwattr $C$DW$51, DW_AT_external
     252              $C$DW$52        .dwtag  DW_TAG_formal_parameter
     253                      .dwattr $C$DW$52, DW_AT_type(*$C$DW$T$112)
     254              $C$DW$53        .dwtag  DW_TAG_formal_parameter
     255                      .dwattr $C$DW$53, DW_AT_type(*$C$DW$T$57)
     256                      .dwendtag $C$DW$51
     257              
     258              
     259              $C$DW$54        .dwtag  DW_TAG_subprogram, DW_AT_name("MMC_read")
     260                      .dwattr $C$DW$54, DW_AT_TI_symbol_name("_MMC_read")
     261                      .dwattr $C$DW$54, DW_AT_type(*$C$DW$T$106)
     262                      .dwattr $C$DW$54, DW_AT_declaration
     263                      .dwattr $C$DW$54, DW_AT_external
     264              $C$DW$55        .dwtag  DW_TAG_formal_parameter
     265                      .dwattr $C$DW$55, DW_AT_type(*$C$DW$T$112)
     266              $C$DW$56        .dwtag  DW_TAG_formal_parameter
     267                      .dwattr $C$DW$56, DW_AT_type(*$C$DW$T$48)
     268              $C$DW$57        .dwtag  DW_TAG_formal_parameter
     269                      .dwattr $C$DW$57, DW_AT_type(*$C$DW$T$19)
     270              $C$DW$58        .dwtag  DW_TAG_formal_parameter
     271                      .dwattr $C$DW$58, DW_AT_type(*$C$DW$T$130)
     272                      .dwendtag $C$DW$54
TMS320C55x Assembler PC v4.4.1 Sat Sep 29 23:09:00 2018

Tools Copyright (c) 1996-2012 Texas Instruments Incorporated
csl_mmcsd_dma_example.asm                                            PAGE    6

     273              
     274              
     275              $C$DW$59        .dwtag  DW_TAG_subprogram, DW_AT_name("MMC_write")
     276                      .dwattr $C$DW$59, DW_AT_TI_symbol_name("_MMC_write")
     277                      .dwattr $C$DW$59, DW_AT_type(*$C$DW$T$106)
     278                      .dwattr $C$DW$59, DW_AT_declaration
     279                      .dwattr $C$DW$59, DW_AT_external
     280              $C$DW$60        .dwtag  DW_TAG_formal_parameter
     281                      .dwattr $C$DW$60, DW_AT_type(*$C$DW$T$112)
     282              $C$DW$61        .dwtag  DW_TAG_formal_parameter
     283                      .dwattr $C$DW$61, DW_AT_type(*$C$DW$T$48)
     284              $C$DW$62        .dwtag  DW_TAG_formal_parameter
     285                      .dwattr $C$DW$62, DW_AT_type(*$C$DW$T$19)
     286              $C$DW$63        .dwtag  DW_TAG_formal_parameter
     287                      .dwattr $C$DW$63, DW_AT_type(*$C$DW$T$130)
     288                      .dwendtag $C$DW$59
     289              
     290              
     291              $C$DW$64        .dwtag  DW_TAG_subprogram, DW_AT_name("MMC_setDmaHandle")
     292                      .dwattr $C$DW$64, DW_AT_TI_symbol_name("_MMC_setDmaHandle")
     293                      .dwattr $C$DW$64, DW_AT_type(*$C$DW$T$106)
     294                      .dwattr $C$DW$64, DW_AT_declaration
     295                      .dwattr $C$DW$64, DW_AT_external
     296              $C$DW$65        .dwtag  DW_TAG_formal_parameter
     297                      .dwattr $C$DW$65, DW_AT_type(*$C$DW$T$112)
     298              $C$DW$66        .dwtag  DW_TAG_formal_parameter
     299                      .dwattr $C$DW$66, DW_AT_type(*$C$DW$T$89)
     300              $C$DW$67        .dwtag  DW_TAG_formal_parameter
     301                      .dwattr $C$DW$67, DW_AT_type(*$C$DW$T$89)
     302                      .dwendtag $C$DW$64
     303              
     304              
     305              $C$DW$68        .dwtag  DW_TAG_subprogram, DW_AT_name("MMC_setDataTransferCallback")
     306                      .dwattr $C$DW$68, DW_AT_TI_symbol_name("_MMC_setDataTransferCallback")
     307                      .dwattr $C$DW$68, DW_AT_type(*$C$DW$T$106)
     308                      .dwattr $C$DW$68, DW_AT_declaration
     309                      .dwattr $C$DW$68, DW_AT_external
     310              $C$DW$69        .dwtag  DW_TAG_formal_parameter
     311                      .dwattr $C$DW$69, DW_AT_type(*$C$DW$T$112)
     312              $C$DW$70        .dwtag  DW_TAG_formal_parameter
     313                      .dwattr $C$DW$70, DW_AT_type(*$C$DW$T$93)
     314                      .dwendtag $C$DW$68
     315              
     316              
     317              $C$DW$71        .dwtag  DW_TAG_subprogram, DW_AT_name("MMC_setDmaChanConfig")
     318                      .dwattr $C$DW$71, DW_AT_TI_symbol_name("_MMC_setDmaChanConfig")
     319                      .dwattr $C$DW$71, DW_AT_type(*$C$DW$T$106)
     320                      .dwattr $C$DW$71, DW_AT_declaration
     321                      .dwattr $C$DW$71, DW_AT_external
     322              $C$DW$72        .dwtag  DW_TAG_formal_parameter
     323                      .dwattr $C$DW$72, DW_AT_type(*$C$DW$T$112)
     324              $C$DW$73        .dwtag  DW_TAG_formal_parameter
     325                      .dwattr $C$DW$73, DW_AT_type(*$C$DW$T$115)
     326                      .dwendtag $C$DW$71
     327              
TMS320C55x Assembler PC v4.4.1 Sat Sep 29 23:09:00 2018

Tools Copyright (c) 1996-2012 Texas Instruments Incorporated
csl_mmcsd_dma_example.asm                                            PAGE    7

     328              
     329              $C$DW$74        .dwtag  DW_TAG_subprogram, DW_AT_name("MMC_setEndianMode")
     330                      .dwattr $C$DW$74, DW_AT_TI_symbol_name("_MMC_setEndianMode")
     331                      .dwattr $C$DW$74, DW_AT_type(*$C$DW$T$106)
     332                      .dwattr $C$DW$74, DW_AT_declaration
     333                      .dwattr $C$DW$74, DW_AT_external
     334              $C$DW$75        .dwtag  DW_TAG_formal_parameter
     335                      .dwattr $C$DW$75, DW_AT_type(*$C$DW$T$112)
     336              $C$DW$76        .dwtag  DW_TAG_formal_parameter
     337                      .dwattr $C$DW$76, DW_AT_type(*$C$DW$T$97)
     338              $C$DW$77        .dwtag  DW_TAG_formal_parameter
     339                      .dwattr $C$DW$77, DW_AT_type(*$C$DW$T$97)
     340                      .dwendtag $C$DW$74
     341              
     342              
     343              $C$DW$78        .dwtag  DW_TAG_subprogram, DW_AT_name("MMC_setBlockLength")
     344                      .dwattr $C$DW$78, DW_AT_TI_symbol_name("_MMC_setBlockLength")
     345                      .dwattr $C$DW$78, DW_AT_type(*$C$DW$T$106)
     346                      .dwattr $C$DW$78, DW_AT_declaration
     347                      .dwattr $C$DW$78, DW_AT_external
     348              $C$DW$79        .dwtag  DW_TAG_formal_parameter
     349                      .dwattr $C$DW$79, DW_AT_type(*$C$DW$T$112)
     350              $C$DW$80        .dwtag  DW_TAG_formal_parameter
     351                      .dwattr $C$DW$80, DW_AT_type(*$C$DW$T$48)
     352                      .dwendtag $C$DW$78
     353              
     354              
     355              $C$DW$81        .dwtag  DW_TAG_subprogram, DW_AT_name("MMC_setWriteBlkEraseCnt")
     356                      .dwattr $C$DW$81, DW_AT_TI_symbol_name("_MMC_setWriteBlkEraseCnt")
     357                      .dwattr $C$DW$81, DW_AT_type(*$C$DW$T$106)
     358                      .dwattr $C$DW$81, DW_AT_declaration
     359                      .dwattr $C$DW$81, DW_AT_external
     360              $C$DW$82        .dwtag  DW_TAG_formal_parameter
     361                      .dwattr $C$DW$82, DW_AT_type(*$C$DW$T$112)
     362              $C$DW$83        .dwtag  DW_TAG_formal_parameter
     363                      .dwattr $C$DW$83, DW_AT_type(*$C$DW$T$48)
     364                      .dwendtag $C$DW$81
     365              
     366              
     367              $C$DW$84        .dwtag  DW_TAG_subprogram, DW_AT_name("IRQ_plug")
     368                      .dwattr $C$DW$84, DW_AT_TI_symbol_name("_IRQ_plug")
     369                      .dwattr $C$DW$84, DW_AT_type(*$C$DW$T$10)
     370                      .dwattr $C$DW$84, DW_AT_declaration
     371                      .dwattr $C$DW$84, DW_AT_external
     372              $C$DW$85        .dwtag  DW_TAG_formal_parameter
     373                      .dwattr $C$DW$85, DW_AT_type(*$C$DW$T$19)
     374              $C$DW$86        .dwtag  DW_TAG_formal_parameter
     375                      .dwattr $C$DW$86, DW_AT_type(*$C$DW$T$121)
     376                      .dwendtag $C$DW$84
     377              
     378              
     379              $C$DW$87        .dwtag  DW_TAG_subprogram, DW_AT_name("IRQ_clear")
     380                      .dwattr $C$DW$87, DW_AT_TI_symbol_name("_IRQ_clear")
     381                      .dwattr $C$DW$87, DW_AT_type(*$C$DW$T$106)
     382                      .dwattr $C$DW$87, DW_AT_declaration
TMS320C55x Assembler PC v4.4.1 Sat Sep 29 23:09:00 2018

Tools Copyright (c) 1996-2012 Texas Instruments Incorporated
csl_mmcsd_dma_example.asm                                            PAGE    8

     383                      .dwattr $C$DW$87, DW_AT_external
     384              $C$DW$88        .dwtag  DW_TAG_formal_parameter
     385                      .dwattr $C$DW$88, DW_AT_type(*$C$DW$T$19)
     386                      .dwendtag $C$DW$87
     387              
     388              
     389              $C$DW$89        .dwtag  DW_TAG_subprogram, DW_AT_name("IRQ_clearAll")
     390                      .dwattr $C$DW$89, DW_AT_TI_symbol_name("_IRQ_clearAll")
     391                      .dwattr $C$DW$89, DW_AT_declaration
     392                      .dwattr $C$DW$89, DW_AT_external
     393              
     394              $C$DW$90        .dwtag  DW_TAG_subprogram, DW_AT_name("IRQ_disableAll")
     395                      .dwattr $C$DW$90, DW_AT_TI_symbol_name("_IRQ_disableAll")
     396                      .dwattr $C$DW$90, DW_AT_declaration
     397                      .dwattr $C$DW$90, DW_AT_external
     398              
     399              $C$DW$91        .dwtag  DW_TAG_subprogram, DW_AT_name("IRQ_enable")
     400                      .dwattr $C$DW$91, DW_AT_TI_symbol_name("_IRQ_enable")
     401                      .dwattr $C$DW$91, DW_AT_type(*$C$DW$T$10)
     402                      .dwattr $C$DW$91, DW_AT_declaration
     403                      .dwattr $C$DW$91, DW_AT_external
     404              $C$DW$92        .dwtag  DW_TAG_formal_parameter
     405                      .dwattr $C$DW$92, DW_AT_type(*$C$DW$T$19)
     406                      .dwendtag $C$DW$91
     407              
     408              
     409              $C$DW$93        .dwtag  DW_TAG_subprogram, DW_AT_name("IRQ_setVecs")
     410                      .dwattr $C$DW$93, DW_AT_TI_symbol_name("_IRQ_setVecs")
     411                      .dwattr $C$DW$93, DW_AT_type(*$C$DW$T$106)
     412                      .dwattr $C$DW$93, DW_AT_declaration
     413                      .dwattr $C$DW$93, DW_AT_external
     414              $C$DW$94        .dwtag  DW_TAG_formal_parameter
     415                      .dwattr $C$DW$94, DW_AT_type(*$C$DW$T$48)
     416                      .dwendtag $C$DW$93
     417              
     418              
     419              $C$DW$95        .dwtag  DW_TAG_subprogram, DW_AT_name("IRQ_globalDisable")
     420                      .dwattr $C$DW$95, DW_AT_TI_symbol_name("_IRQ_globalDisable")
     421                      .dwattr $C$DW$95, DW_AT_type(*$C$DW$T$31)
     422                      .dwattr $C$DW$95, DW_AT_declaration
     423                      .dwattr $C$DW$95, DW_AT_external
     424              
     425              $C$DW$96        .dwtag  DW_TAG_subprogram, DW_AT_name("IRQ_globalEnable")
     426                      .dwattr $C$DW$96, DW_AT_TI_symbol_name("_IRQ_globalEnable")
     427                      .dwattr $C$DW$96, DW_AT_type(*$C$DW$T$31)
     428                      .dwattr $C$DW$96, DW_AT_declaration
     429                      .dwattr $C$DW$96, DW_AT_external
     430              
     431              $C$DW$97        .dwtag  DW_TAG_subprogram, DW_AT_name("printf")
     432                      .dwattr $C$DW$97, DW_AT_TI_symbol_name("_printf")
     433                      .dwattr $C$DW$97, DW_AT_type(*$C$DW$T$10)
     434                      .dwattr $C$DW$97, DW_AT_declaration
     435                      .dwattr $C$DW$97, DW_AT_external
     436              $C$DW$98        .dwtag  DW_TAG_formal_parameter
     437                      .dwattr $C$DW$98, DW_AT_type(*$C$DW$T$173)
TMS320C55x Assembler PC v4.4.1 Sat Sep 29 23:09:00 2018

Tools Copyright (c) 1996-2012 Texas Instruments Incorporated
csl_mmcsd_dma_example.asm                                            PAGE    9

     438              $C$DW$99        .dwtag  DW_TAG_unspecified_parameters
     439                      .dwendtag $C$DW$97
     440              
     441              
     442              $C$DW$100       .dwtag  DW_TAG_subprogram, DW_AT_name("VECSTART")
     443                      .dwattr $C$DW$100, DW_AT_TI_symbol_name("_VECSTART")
     444                      .dwattr $C$DW$100, DW_AT_declaration
     445                      .dwattr $C$DW$100, DW_AT_external
     446                      .global _pMmcsdContObj
     447 000000               .bss    _pMmcsdContObj,64,0,2
     448              $C$DW$101       .dwtag  DW_TAG_variable, DW_AT_name("pMmcsdContObj")
     449                      .dwattr $C$DW$101, DW_AT_TI_symbol_name("_pMmcsdContObj")
     450                      .dwattr $C$DW$101, DW_AT_location[DW_OP_addr _pMmcsdContObj]
     451                      .dwattr $C$DW$101, DW_AT_type(*$C$DW$T$110)
     452                      .dwattr $C$DW$101, DW_AT_external
     453                      .global _mmcsdHandle
     454 000040               .bss    _mmcsdHandle,2,0,2
     455              $C$DW$102       .dwtag  DW_TAG_variable, DW_AT_name("mmcsdHandle")
     456                      .dwattr $C$DW$102, DW_AT_TI_symbol_name("_mmcsdHandle")
     457                      .dwattr $C$DW$102, DW_AT_location[DW_OP_addr _mmcsdHandle]
     458                      .dwattr $C$DW$102, DW_AT_type(*$C$DW$T$112)
     459                      .dwattr $C$DW$102, DW_AT_external
     460                      .global _mmcCardObj
     461 000042               .bss    _mmcCardObj,30,0,2
     462              $C$DW$103       .dwtag  DW_TAG_variable, DW_AT_name("mmcCardObj")
     463                      .dwattr $C$DW$103, DW_AT_TI_symbol_name("_mmcCardObj")
     464                      .dwattr $C$DW$103, DW_AT_location[DW_OP_addr _mmcCardObj]
     465                      .dwattr $C$DW$103, DW_AT_type(*$C$DW$T$81)
     466                      .dwattr $C$DW$103, DW_AT_external
     467                      .global _cardIdObj
     468 000060               .bss    _cardIdObj,16,0,2
     469              $C$DW$104       .dwtag  DW_TAG_variable, DW_AT_name("cardIdObj")
     470                      .dwattr $C$DW$104, DW_AT_TI_symbol_name("_cardIdObj")
     471                      .dwattr $C$DW$104, DW_AT_location[DW_OP_addr _cardIdObj]
     472                      .dwattr $C$DW$104, DW_AT_type(*$C$DW$T$54)
     473                      .dwattr $C$DW$104, DW_AT_external
     474                      .global _cardCsdObj
     475 000070               .bss    _cardCsdObj,34,0,0
     476              $C$DW$105       .dwtag  DW_TAG_variable, DW_AT_name("cardCsdObj")
     477                      .dwattr $C$DW$105, DW_AT_TI_symbol_name("_cardCsdObj")
     478                      .dwattr $C$DW$105, DW_AT_location[DW_OP_addr _cardCsdObj]
     479                      .dwattr $C$DW$105, DW_AT_type(*$C$DW$T$56)
     480                      .dwattr $C$DW$105, DW_AT_external
     481                      .global _mmcsdDmaConfig
     482 000092               .bss    _mmcsdDmaConfig,5,0,0
     483              $C$DW$106       .dwtag  DW_TAG_variable, DW_AT_name("mmcsdDmaConfig")
     484                      .dwattr $C$DW$106, DW_AT_TI_symbol_name("_mmcsdDmaConfig")
     485                      .dwattr $C$DW$106, DW_AT_location[DW_OP_addr _mmcsdDmaConfig]
     486                      .dwattr $C$DW$106, DW_AT_type(*$C$DW$T$115)
     487                      .dwattr $C$DW$106, DW_AT_external
     488                      .global _gMmcIntr
     489 000097               .bss    _gMmcIntr,1,0,0
     490              $C$DW$107       .dwtag  DW_TAG_variable, DW_AT_name("gMmcIntr")
     491                      .dwattr $C$DW$107, DW_AT_TI_symbol_name("_gMmcIntr")
     492                      .dwattr $C$DW$107, DW_AT_location[DW_OP_addr _gMmcIntr]
TMS320C55x Assembler PC v4.4.1 Sat Sep 29 23:09:00 2018

Tools Copyright (c) 1996-2012 Texas Instruments Incorporated
csl_mmcsd_dma_example.asm                                            PAGE   10

     493                      .dwattr $C$DW$107, DW_AT_type(*$C$DW$T$164)
     494                      .dwattr $C$DW$107, DW_AT_external
     495                      .global _dmaWrHandle
     496 000098               .bss    _dmaWrHandle,2,0,2
     497              $C$DW$108       .dwtag  DW_TAG_variable, DW_AT_name("dmaWrHandle")
     498                      .dwattr $C$DW$108, DW_AT_TI_symbol_name("_dmaWrHandle")
     499                      .dwattr $C$DW$108, DW_AT_location[DW_OP_addr _dmaWrHandle]
     500                      .dwattr $C$DW$108, DW_AT_type(*$C$DW$T$89)
     501                      .dwattr $C$DW$108, DW_AT_external
     502                      .global _dmaRdHandle
     503 00009a               .bss    _dmaRdHandle,2,0,2
     504              $C$DW$109       .dwtag  DW_TAG_variable, DW_AT_name("dmaRdHandle")
     505                      .dwattr $C$DW$109, DW_AT_TI_symbol_name("_dmaRdHandle")
     506                      .dwattr $C$DW$109, DW_AT_location[DW_OP_addr _dmaRdHandle]
     507                      .dwattr $C$DW$109, DW_AT_type(*$C$DW$T$89)
     508                      .dwattr $C$DW$109, DW_AT_external
     509                      .global _dmaWrChanObj
     510 00009c               .bss    _dmaWrChanObj,9,0,0
     511              $C$DW$110       .dwtag  DW_TAG_variable, DW_AT_name("dmaWrChanObj")
     512                      .dwattr $C$DW$110, DW_AT_TI_symbol_name("_dmaWrChanObj")
     513                      .dwattr $C$DW$110, DW_AT_location[DW_OP_addr _dmaWrChanObj]
     514                      .dwattr $C$DW$110, DW_AT_type(*$C$DW$T$87)
     515                      .dwattr $C$DW$110, DW_AT_external
     516                      .global _dmaRdChanObj
     517 0000a5               .bss    _dmaRdChanObj,9,0,0
     518              $C$DW$111       .dwtag  DW_TAG_variable, DW_AT_name("dmaRdChanObj")
     519                      .dwattr $C$DW$111, DW_AT_TI_symbol_name("_dmaRdChanObj")
     520                      .dwattr $C$DW$111, DW_AT_location[DW_OP_addr _dmaRdChanObj]
     521                      .dwattr $C$DW$111, DW_AT_type(*$C$DW$T$87)
     522                      .dwattr $C$DW$111, DW_AT_external
     523                      .global _dmaHandle
     524 0000ae               .bss    _dmaHandle,2,0,2
     525              $C$DW$112       .dwtag  DW_TAG_variable, DW_AT_name("dmaHandle")
     526                      .dwattr $C$DW$112, DW_AT_TI_symbol_name("_dmaHandle")
     527                      .dwattr $C$DW$112, DW_AT_location[DW_OP_addr _dmaHandle]
     528                      .dwattr $C$DW$112, DW_AT_type(*$C$DW$T$89)
     529                      .dwattr $C$DW$112, DW_AT_external
     530                      .global _gReadBuff
     531 0000b0               .bss    _gReadBuff,512,0,4
     532              $C$DW$113       .dwtag  DW_TAG_variable, DW_AT_name("gReadBuff")
     533                      .dwattr $C$DW$113, DW_AT_TI_symbol_name("_gReadBuff")
     534                      .dwattr $C$DW$113, DW_AT_location[DW_OP_addr _gReadBuff]
     535                      .dwattr $C$DW$113, DW_AT_type(*$C$DW$T$163)
     536                      .dwattr $C$DW$113, DW_AT_external
     537                      .global _gWriteBuff
     538 0002b0               .bss    _gWriteBuff,512,0,4
     539              $C$DW$114       .dwtag  DW_TAG_variable, DW_AT_name("gWriteBuff")
     540                      .dwattr $C$DW$114, DW_AT_TI_symbol_name("_gWriteBuff")
     541                      .dwattr $C$DW$114, DW_AT_location[DW_OP_addr _gWriteBuff]
     542                      .dwattr $C$DW$114, DW_AT_type(*$C$DW$T$163)
     543                      .dwattr $C$DW$114, DW_AT_external
     544                      .global _gWriteTempBuff
     545 0004b0               .bss    _gWriteTempBuff,512,0,4
     546              $C$DW$115       .dwtag  DW_TAG_variable, DW_AT_name("gWriteTempBuff")
     547                      .dwattr $C$DW$115, DW_AT_TI_symbol_name("_gWriteTempBuff")
TMS320C55x Assembler PC v4.4.1 Sat Sep 29 23:09:00 2018

Tools Copyright (c) 1996-2012 Texas Instruments Incorporated
csl_mmcsd_dma_example.asm                                            PAGE   11

     548                      .dwattr $C$DW$115, DW_AT_location[DW_OP_addr _gWriteTempBuff]
     549                      .dwattr $C$DW$115, DW_AT_type(*$C$DW$T$163)
     550                      .dwattr $C$DW$115, DW_AT_external
     551                      .global _PaSs_StAtE
     552 0006b0               .bss    _PaSs_StAtE,1,0,0
     553              $C$DW$116       .dwtag  DW_TAG_variable, DW_AT_name("PaSs_StAtE")
     554                      .dwattr $C$DW$116, DW_AT_TI_symbol_name("_PaSs_StAtE")
     555                      .dwattr $C$DW$116, DW_AT_location[DW_OP_addr _PaSs_StAtE]
     556                      .dwattr $C$DW$116, DW_AT_type(*$C$DW$T$159)
     557                      .dwattr $C$DW$116, DW_AT_external
     558                      .global _PaSs
     559 0006b1               .bss    _PaSs,1,0,0
     560              $C$DW$117       .dwtag  DW_TAG_variable, DW_AT_name("PaSs")
     561                      .dwattr $C$DW$117, DW_AT_TI_symbol_name("_PaSs")
     562                      .dwattr $C$DW$117, DW_AT_location[DW_OP_addr _PaSs]
     563                      .dwattr $C$DW$117, DW_AT_type(*$C$DW$T$159)
     564                      .dwattr $C$DW$117, DW_AT_external
     565              ;       F:\t\cc5p5\ccsv5\tools\compiler\c5500_4.4.1\bin\acp55.exe -@f:\\AppData\\Local\\Temp\\1995212 
     566 000000               .sect   ".text"
     567                      .align 4
     568                      .global _main
     569              
     570              $C$DW$118       .dwtag  DW_TAG_subprogram, DW_AT_name("main")
     571                      .dwattr $C$DW$118, DW_AT_low_pc(_main)
     572                      .dwattr $C$DW$118, DW_AT_high_pc(0x00)
     573                      .dwattr $C$DW$118, DW_AT_TI_symbol_name("_main")
     574                      .dwattr $C$DW$118, DW_AT_external
     575                      .dwattr $C$DW$118, DW_AT_TI_begin_file("../c5535_bsl_revc/ezdsp5535_v1/c55xx_csl/ccs_v4.0_examples/mm
     576                      .dwattr $C$DW$118, DW_AT_TI_begin_line(0x112)
     577                      .dwattr $C$DW$118, DW_AT_TI_begin_column(0x06)
     578                      .dwattr $C$DW$118, DW_AT_TI_max_frame_size(0x06)
     579                      .dwpsn  file "../c5535_bsl_revc/ezdsp5535_v1/c55xx_csl/ccs_v4.0_examples/mmc_sd/CSL_MMCSD_dmaExample/
     580              
     581                      .dwfde $C$DW$CIE, _main
     582              ;*******************************************************************************
     583              ;* FUNCTION NAME: main                                                         *
     584              ;*                                                                             *
     585              ;*   Function Uses Regs : T0,AR1,AR3,XAR3,SP,TC1,M40,SATA,SATD,RDM,FRCT,SMUL   *
     586              ;*   Stack Frame        : Compact (No Frame Pointer, w/ debug)                 *
     587              ;*   Total Frame Size   : 6 words                                              *
     588              ;*                        (2 return address/alignment)                         *
     589              ;*                        (2 function parameters)                              *
     590              ;*                        (2 local values)                                     *
     591              ;*   Min System Stack   : 1 word                                               *
     592              ;*******************************************************************************
     593 000000       _main:
     594                      .dwcfi  cfa_offset, 1
     595                      .dwcfi  save_reg_to_mem, 91, -1
     596 000000 4EFB          AADD #-5, SP
     597                      .dwcfi  cfa_offset, 6
     598              $C$DW$119       .dwtag  DW_TAG_variable, DW_AT_name("status")
     599                      .dwattr $C$DW$119, DW_AT_TI_symbol_name("_status")
     600                      .dwattr $C$DW$119, DW_AT_type(*$C$DW$T$106)
     601                      .dwattr $C$DW$119, DW_AT_location[DW_OP_bregx 0x24 2]
     602              $C$DW$120       .dwtag  DW_TAG_variable, DW_AT_name("testFailed")
TMS320C55x Assembler PC v4.4.1 Sat Sep 29 23:09:00 2018

Tools Copyright (c) 1996-2012 Texas Instruments Incorporated
csl_mmcsd_dma_example.asm                                            PAGE   12

     603                      .dwattr $C$DW$120, DW_AT_TI_symbol_name("_testFailed")
     604                      .dwattr $C$DW$120, DW_AT_type(*$C$DW$T$31)
     605                      .dwattr $C$DW$120, DW_AT_location[DW_OP_bregx 0x24 3]
     606                      .dwpsn  file "../c5535_bsl_revc/ezdsp5535_v1/c55xx_csl/ccs_v4.0_examples/mmc_sd/CSL_MMCSD_dmaExample/
     607 000002 E606          MOV #0, *SP(#3) ; |279| 
         000004 00   
     608                      .dwpsn  file "../c5535_bsl_revc/ezdsp5535_v1/c55xx_csl/ccs_v4.0_examples/mmc_sd/CSL_MMCSD_dmaExample/
     609 000005 EC31          AMOV #$C$FSL1, XAR3 ; |281| 
         000007 BE00 
         000009 0000+
     610 00000b EB00          MOV XAR3, dbl(*SP(#0))
         00000d B5   
     611              $C$DW$121       .dwtag  DW_TAG_TI_branch
     612                      .dwattr $C$DW$121, DW_AT_low_pc(0x00)
     613                      .dwattr $C$DW$121, DW_AT_name("_printf")
     614                      .dwattr $C$DW$121, DW_AT_TI_call
     615 00000e 6C00          CALL #_printf ; |281| 
         000010 0000!
     616                                                      ; call occurs [#_printf] ; |281| 
     617                      .dwpsn  file "../c5535_bsl_revc/ezdsp5535_v1/c55xx_csl/ccs_v4.0_examples/mmc_sd/CSL_MMCSD_dmaExample/
     618 000012 EC31          AMOV #$C$FSL2, XAR3 ; |283| 
         000014 BE00 
         000016 001C+
     619 000018 EB00          MOV XAR3, dbl(*SP(#0))
         00001a B5   
     620              $C$DW$122       .dwtag  DW_TAG_TI_branch
     621                      .dwattr $C$DW$122, DW_AT_low_pc(0x00)
     622                      .dwattr $C$DW$122, DW_AT_name("_printf")
     623                      .dwattr $C$DW$122, DW_AT_TI_call
     624 00001b 6C00          CALL #_printf ; |283| 
         00001d 0000!
     625                                                      ; call occurs [#_printf] ; |283| 
     626                      .dwpsn  file "../c5535_bsl_revc/ezdsp5535_v1/c55xx_csl/ccs_v4.0_examples/mmc_sd/CSL_MMCSD_dmaExample/
     627              $C$DW$123       .dwtag  DW_TAG_TI_branch
     628                      .dwattr $C$DW$123, DW_AT_low_pc(0x00)
     629                      .dwattr $C$DW$123, DW_AT_name("_mmcsdDmaTest")
     630                      .dwattr $C$DW$123, DW_AT_TI_call
     631 00001f 0800          CALL #_mmcsdDmaTest ; |284| 
         000021 A2   
     632                                                      ; call occurs [#_mmcsdDmaTest] ; |284| 
     633 000022 C404          MOV T0, *SP(#2) ; |284| 
     634                      .dwpsn  file "../c5535_bsl_revc/ezdsp5535_v1/c55xx_csl/ccs_v4.0_examples/mmc_sd/CSL_MMCSD_dmaExample/
     635 000024 2249          MOV T0, AR1
     636 000026 0409          BCC $C$L1,AR1 == #0 ; |285| 
         000028 18   
     637                                                      ; branchcc occurs ; |285| 
     638                      .dwpsn  file "../c5535_bsl_revc/ezdsp5535_v1/c55xx_csl/ccs_v4.0_examples/mmc_sd/CSL_MMCSD_dmaExample/
     639 000029 E606          MOV #1, *SP(#3) ; |287| 
         00002b 01   
     640                      .dwpsn  file "../c5535_bsl_revc/ezdsp5535_v1/c55xx_csl/ccs_v4.0_examples/mmc_sd/CSL_MMCSD_dmaExample/
     641 00002c E631          MOV #0, *(#_PaSs_StAtE) ; |290| 
         00002e 0000 
         000030 06B0-
     642                      .dwpsn  file "../c5535_bsl_revc/ezdsp5535_v1/c55xx_csl/ccs_v4.0_examples/mmc_sd/CSL_MMCSD_dmaExample/
     643 000032 EC31          AMOV #$C$FSL3, XAR3 ; |292| 
TMS320C55x Assembler PC v4.4.1 Sat Sep 29 23:09:00 2018

Tools Copyright (c) 1996-2012 Texas Instruments Incorporated
csl_mmcsd_dma_example.asm                                            PAGE   13

         000034 BE00 
         000036 003E+
     644 000038 EB00          MOV XAR3, dbl(*SP(#0))
         00003a B5   
     645              $C$DW$124       .dwtag  DW_TAG_TI_branch
     646                      .dwattr $C$DW$124, DW_AT_low_pc(0x00)
     647                      .dwattr $C$DW$124, DW_AT_name("_printf")
     648                      .dwattr $C$DW$124, DW_AT_TI_call
     649 00003b 6C00          CALL #_printf ; |292| 
         00003d 0000!
     650                                                      ; call occurs [#_printf] ; |292| 
     651                      .dwpsn  file "../c5535_bsl_revc/ezdsp5535_v1/c55xx_csl/ccs_v4.0_examples/mmc_sd/CSL_MMCSD_dmaExample/
     652 00003f 4A0D          B $C$L2   ; |293| 
     653                                                      ; branch occurs ; |293| 
     654 000041       $C$L1:    
     655                      .dwpsn  file "../c5535_bsl_revc/ezdsp5535_v1/c55xx_csl/ccs_v4.0_examples/mmc_sd/CSL_MMCSD_dmaExample/
     656 000041 EC31          AMOV #$C$FSL4, XAR3 ; |296| 
         000043 BE00 
         000045 0068+
     657 000047 EB00          MOV XAR3, dbl(*SP(#0))
         000049 B5   
     658              $C$DW$125       .dwtag  DW_TAG_TI_branch
     659                      .dwattr $C$DW$125, DW_AT_low_pc(0x00)
     660                      .dwattr $C$DW$125, DW_AT_name("_printf")
     661                      .dwattr $C$DW$125, DW_AT_TI_call
     662 00004a 6C00          CALL #_printf ; |296| 
         00004c 0000!
     663                                                      ; call occurs [#_printf] ; |296| 
     664 00004e       $C$L2:    
     665                      .dwpsn  file "../c5535_bsl_revc/ezdsp5535_v1/c55xx_csl/ccs_v4.0_examples/mmc_sd/CSL_MMCSD_dmaExample/
     666 00004e EC31          AMOV #$C$FSL5, XAR3 ; |299| 
         000050 BE00 
         000052 0092+
     667 000054 EB00          MOV XAR3, dbl(*SP(#0))
         000056 B5   
     668              $C$DW$126       .dwtag  DW_TAG_TI_branch
     669                      .dwattr $C$DW$126, DW_AT_low_pc(0x00)
     670                      .dwattr $C$DW$126, DW_AT_name("_printf")
     671                      .dwattr $C$DW$126, DW_AT_TI_call
     672 000057 6C00          CALL #_printf ; |299| 
         000059 0000!
     673                                                      ; call occurs [#_printf] ; |299| 
     674                      .dwpsn  file "../c5535_bsl_revc/ezdsp5535_v1/c55xx_csl/ccs_v4.0_examples/mmc_sd/CSL_MMCSD_dmaExample/
     675              $C$DW$127       .dwtag  DW_TAG_TI_branch
     676                      .dwattr $C$DW$127, DW_AT_low_pc(0x00)
     677                      .dwattr $C$DW$127, DW_AT_name("_mmcsdDmaCallbackTest")
     678                      .dwattr $C$DW$127, DW_AT_TI_call
     679 00005b 0805          CALL #_mmcsdDmaCallbackTest ; |300| 
         00005d F2   
     680                                                      ; call occurs [#_mmcsdDmaCallbackTest] ; |300| 
     681 00005e C404          MOV T0, *SP(#2) ; |300| 
     682                      .dwpsn  file "../c5535_bsl_revc/ezdsp5535_v1/c55xx_csl/ccs_v4.0_examples/mmc_sd/CSL_MMCSD_dmaExample/
     683 000060 2249          MOV T0, AR1
     684 000062 0409          BCC $C$L3,AR1 == #0 ; |301| 
         000064 18   
TMS320C55x Assembler PC v4.4.1 Sat Sep 29 23:09:00 2018

Tools Copyright (c) 1996-2012 Texas Instruments Incorporated
csl_mmcsd_dma_example.asm                                            PAGE   14

     685                                                      ; branchcc occurs ; |301| 
     686                      .dwpsn  file "../c5535_bsl_revc/ezdsp5535_v1/c55xx_csl/ccs_v4.0_examples/mmc_sd/CSL_MMCSD_dmaExample/
     687 000065 E606          MOV #1, *SP(#3) ; |303| 
         000067 01   
     688                      .dwpsn  file "../c5535_bsl_revc/ezdsp5535_v1/c55xx_csl/ccs_v4.0_examples/mmc_sd/CSL_MMCSD_dmaExample/
     689 000068 E631          MOV #0, *(#_PaSs_StAtE) ; |306| 
         00006a 0000 
         00006c 06B0-
     690                      .dwpsn  file "../c5535_bsl_revc/ezdsp5535_v1/c55xx_csl/ccs_v4.0_examples/mmc_sd/CSL_MMCSD_dmaExample/
     691 00006e EC31          AMOV #$C$FSL6, XAR3 ; |308| 
         000070 BE00 
         000072 00B4+
     692 000074 EB00          MOV XAR3, dbl(*SP(#0))
         000076 B5   
     693              $C$DW$128       .dwtag  DW_TAG_TI_branch
     694                      .dwattr $C$DW$128, DW_AT_low_pc(0x00)
     695                      .dwattr $C$DW$128, DW_AT_name("_printf")
     696                      .dwattr $C$DW$128, DW_AT_TI_call
     697 000077 6C00          CALL #_printf ; |308| 
         000079 0000!
     698                                                      ; call occurs [#_printf] ; |308| 
     699                      .dwpsn  file "../c5535_bsl_revc/ezdsp5535_v1/c55xx_csl/ccs_v4.0_examples/mmc_sd/CSL_MMCSD_dmaExample/
     700 00007b 4A0D          B $C$L4   ; |309| 
     701                                                      ; branch occurs ; |309| 
     702 00007d       $C$L3:    
     703                      .dwpsn  file "../c5535_bsl_revc/ezdsp5535_v1/c55xx_csl/ccs_v4.0_examples/mmc_sd/CSL_MMCSD_dmaExample/
     704 00007d EC31          AMOV #$C$FSL7, XAR3 ; |312| 
         00007f BE00 
         000081 00DA+
     705 000083 EB00          MOV XAR3, dbl(*SP(#0))
         000085 B5   
     706              $C$DW$129       .dwtag  DW_TAG_TI_branch
     707                      .dwattr $C$DW$129, DW_AT_low_pc(0x00)
     708                      .dwattr $C$DW$129, DW_AT_name("_printf")
     709                      .dwattr $C$DW$129, DW_AT_TI_call
     710 000086 6C00          CALL #_printf ; |312| 
         000088 0000!
     711                                                      ; call occurs [#_printf] ; |312| 
     712 00008a       $C$L4:    
     713                      .dwpsn  file "../c5535_bsl_revc/ezdsp5535_v1/c55xx_csl/ccs_v4.0_examples/mmc_sd/CSL_MMCSD_dmaExample/
     714 00008a F006          CMP *SP(#3) == #1, TC1 ; |315| 
         00008c 0001 
     715 00008e 0474          BCC $C$L5,!TC1 ; |315| 
         000090 15   
     716                                                      ; branchcc occurs ; |315| 
     717                      .dwpsn  file "../c5535_bsl_revc/ezdsp5535_v1/c55xx_csl/ccs_v4.0_examples/mmc_sd/CSL_MMCSD_dmaExample/
     718 000091 EC31          AMOV #$C$FSL8, XAR3 ; |317| 
         000093 BE00 
         000095 0100+
     719 000097 EB00          MOV XAR3, dbl(*SP(#0))
         000099 B5   
     720              $C$DW$130       .dwtag  DW_TAG_TI_branch
     721                      .dwattr $C$DW$130, DW_AT_low_pc(0x00)
     722                      .dwattr $C$DW$130, DW_AT_name("_printf")
     723                      .dwattr $C$DW$130, DW_AT_TI_call
TMS320C55x Assembler PC v4.4.1 Sat Sep 29 23:09:00 2018

Tools Copyright (c) 1996-2012 Texas Instruments Incorporated
csl_mmcsd_dma_example.asm                                            PAGE   15

     724 00009a 6C00          CALL #_printf ; |317| 
         00009c 0000!
     725                                                      ; call occurs [#_printf] ; |317| 
     726                      .dwpsn  file "../c5535_bsl_revc/ezdsp5535_v1/c55xx_csl/ccs_v4.0_examples/mmc_sd/CSL_MMCSD_dmaExample/
     727 00009e E631          MOV #0, *(#_PaSs_StAtE) ; |320| 
         0000a0 0000 
         0000a2 06B0-
     728                      .dwpsn  file "../c5535_bsl_revc/ezdsp5535_v1/c55xx_csl/ccs_v4.0_examples/mmc_sd/CSL_MMCSD_dmaExample/
     729 0000a4 4A0D          B $C$L6   ; |322| 
     730                                                      ; branch occurs ; |322| 
     731 0000a6       $C$L5:    
     732                      .dwpsn  file "../c5535_bsl_revc/ezdsp5535_v1/c55xx_csl/ccs_v4.0_examples/mmc_sd/CSL_MMCSD_dmaExample/
     733 0000a6 EC31          AMOV #$C$FSL9, XAR3 ; |325| 
         0000a8 BE00 
         0000aa 0124+
     734 0000ac EB00          MOV XAR3, dbl(*SP(#0))
         0000ae B5   
     735              $C$DW$131       .dwtag  DW_TAG_TI_branch
     736                      .dwattr $C$DW$131, DW_AT_low_pc(0x00)
     737                      .dwattr $C$DW$131, DW_AT_name("_printf")
     738                      .dwattr $C$DW$131, DW_AT_TI_call
     739 0000af 6C00          CALL #_printf ; |325| 
         0000b1 0000!
     740                                                      ; call occurs [#_printf] ; |325| 
     741 0000b3       $C$L6:    
     742                      .dwpsn  file "../c5535_bsl_revc/ezdsp5535_v1/c55xx_csl/ccs_v4.0_examples/mmc_sd/CSL_MMCSD_dmaExample/
     743 0000b3 A931          MOV *(#_PaSs_StAtE), AR1 ; |329| 
         0000b5 0006 
         0000b7 B0-  
     744 0000b8 C931          MOV AR1, *(#_PaSs) ; |329| 
         0000ba 0006 
         0000bc B1-  
     745                      .dwpsn  file "../c5535_bsl_revc/ezdsp5535_v1/c55xx_csl/ccs_v4.0_examples/mmc_sd/CSL_MMCSD_dmaExample/
     746 0000bd 4E05          AADD #5, SP
     747                      .dwcfi  cfa_offset, 1
     748              $C$DW$132       .dwtag  DW_TAG_TI_branch
     749                      .dwattr $C$DW$132, DW_AT_low_pc(0x00)
     750                      .dwattr $C$DW$132, DW_AT_TI_return
     751 0000bf 4804          RET
     752                                                      ; return occurs
     753                      .dwattr $C$DW$118, DW_AT_TI_end_file("../c5535_bsl_revc/ezdsp5535_v1/c55xx_csl/ccs_v4.0_examples/mmc_
     754                      .dwattr $C$DW$118, DW_AT_TI_end_line(0x14e)
     755                      .dwattr $C$DW$118, DW_AT_TI_end_column(0x01)
     756                      .dwendentry
     757                      .dwendtag $C$DW$118
     758              
     759 0000c1               .sect   ".text"
     760                      .align 4
     761                      .global _mmcsdDmaTest
     762              
     763              $C$DW$133       .dwtag  DW_TAG_subprogram, DW_AT_name("mmcsdDmaTest")
     764                      .dwattr $C$DW$133, DW_AT_low_pc(_mmcsdDmaTest)
     765                      .dwattr $C$DW$133, DW_AT_high_pc(0x00)
     766                      .dwattr $C$DW$133, DW_AT_TI_symbol_name("_mmcsdDmaTest")
     767                      .dwattr $C$DW$133, DW_AT_external
TMS320C55x Assembler PC v4.4.1 Sat Sep 29 23:09:00 2018

Tools Copyright (c) 1996-2012 Texas Instruments Incorporated
csl_mmcsd_dma_example.asm                                            PAGE   16

     768                      .dwattr $C$DW$133, DW_AT_type(*$C$DW$T$106)
     769                      .dwattr $C$DW$133, DW_AT_TI_begin_file("../c5535_bsl_revc/ezdsp5535_v1/c55xx_csl/ccs_v4.0_examples/mm
     770                      .dwattr $C$DW$133, DW_AT_TI_begin_line(0x15b)
     771                      .dwattr $C$DW$133, DW_AT_TI_begin_column(0x0c)
     772                      .dwattr $C$DW$133, DW_AT_TI_max_frame_size(0x10)
     773                      .dwpsn  file "../c5535_bsl_revc/ezdsp5535_v1/c55xx_csl/ccs_v4.0_examples/mmc_sd/CSL_MMCSD_dmaExample/
     774              
     775                      .dwfde $C$DW$CIE, _mmcsdDmaTest
     776              ;*******************************************************************************
     777              ;* FUNCTION NAME: mmcsdDmaTest                                                 *
     778              ;*                                                                             *
     779              ;*   Function Uses Regs : AC0,AC0,T0,T1,AR0,XAR0,AR1,XAR1,AR2,XAR2,AR3,XAR3,SP,*
     780              ;*                        CARRY,TC1,M40,SATA,SATD,RDM,FRCT,SMUL                *
     781              ;*   Stack Frame        : Compact (No Frame Pointer, w/ debug)                 *
     782              ;*   Total Frame Size   : 16 words                                             *
     783              ;*                        (1 return address/alignment)                         *
     784              ;*                        (3 function parameters)                              *
     785              ;*                        (12 local values)                                    *
     786              ;*   Min System Stack   : 1 word                                               *
     787              ;*******************************************************************************
     788 0000c4       _mmcsdDmaTest:
     789                      .dwcfi  cfa_offset, 1
     790                      .dwcfi  save_reg_to_mem, 91, -1
     791 0000c4 4EF1          AADD #-15, SP
     792                      .dwcfi  cfa_offset, 16
     793              $C$DW$134       .dwtag  DW_TAG_variable, DW_AT_name("sectCount")
     794                      .dwattr $C$DW$134, DW_AT_TI_symbol_name("_sectCount")
     795                      .dwattr $C$DW$134, DW_AT_type(*$C$DW$T$48)
     796                      .dwattr $C$DW$134, DW_AT_location[DW_OP_bregx 0x24 4]
     797              $C$DW$135       .dwtag  DW_TAG_variable, DW_AT_name("cardAddr")
     798                      .dwattr $C$DW$135, DW_AT_TI_symbol_name("_cardAddr")
     799                      .dwattr $C$DW$135, DW_AT_type(*$C$DW$T$48)
     800                      .dwattr $C$DW$135, DW_AT_location[DW_OP_bregx 0x24 6]
     801              $C$DW$136       .dwtag  DW_TAG_variable, DW_AT_name("mmcStatus")
     802                      .dwattr $C$DW$136, DW_AT_TI_symbol_name("_mmcStatus")
     803                      .dwattr $C$DW$136, DW_AT_type(*$C$DW$T$106)
     804                      .dwattr $C$DW$136, DW_AT_location[DW_OP_bregx 0x24 8]
     805              $C$DW$137       .dwtag  DW_TAG_variable, DW_AT_name("count")
     806                      .dwattr $C$DW$137, DW_AT_TI_symbol_name("_count")
     807                      .dwattr $C$DW$137, DW_AT_type(*$C$DW$T$19)
     808                      .dwattr $C$DW$137, DW_AT_location[DW_OP_bregx 0x24 9]
     809              $C$DW$138       .dwtag  DW_TAG_variable, DW_AT_name("actCard")
     810                      .dwattr $C$DW$138, DW_AT_TI_symbol_name("_actCard")
     811                      .dwattr $C$DW$138, DW_AT_type(*$C$DW$T$19)
     812                      .dwattr $C$DW$138, DW_AT_location[DW_OP_bregx 0x24 10]
     813              $C$DW$139       .dwtag  DW_TAG_variable, DW_AT_name("rca")
     814                      .dwattr $C$DW$139, DW_AT_TI_symbol_name("_rca")
     815                      .dwattr $C$DW$139, DW_AT_type(*$C$DW$T$19)
     816                      .dwattr $C$DW$139, DW_AT_location[DW_OP_bregx 0x24 11]
     817              $C$DW$140       .dwtag  DW_TAG_variable, DW_AT_name("clockDiv")
     818                      .dwattr $C$DW$140, DW_AT_TI_symbol_name("_clockDiv")
     819                      .dwattr $C$DW$140, DW_AT_type(*$C$DW$T$19)
     820                      .dwattr $C$DW$140, DW_AT_location[DW_OP_bregx 0x24 12]
     821              $C$DW$141       .dwtag  DW_TAG_variable, DW_AT_name("cardType")
     822                      .dwattr $C$DW$141, DW_AT_TI_symbol_name("_cardType")
TMS320C55x Assembler PC v4.4.1 Sat Sep 29 23:09:00 2018

Tools Copyright (c) 1996-2012 Texas Instruments Incorporated
csl_mmcsd_dma_example.asm                                            PAGE   17

     823                      .dwattr $C$DW$141, DW_AT_type(*$C$DW$T$53)
     824                      .dwattr $C$DW$141, DW_AT_location[DW_OP_bregx 0x24 13]
     825              $C$DW$142       .dwtag  DW_TAG_variable, DW_AT_name("opMode")
     826                      .dwattr $C$DW$142, DW_AT_TI_symbol_name("_opMode")
     827                      .dwattr $C$DW$142, DW_AT_type(*$C$DW$T$86)
     828                      .dwattr $C$DW$142, DW_AT_location[DW_OP_bregx 0x24 14]
     829                      .dwpsn  file "../c5535_bsl_revc/ezdsp5535_v1/c55xx_csl/ccs_v4.0_examples/mmc_sd/CSL_MMCSD_dmaExample/
     830 0000c6 E61A          MOV #0, *SP(#13) ; |359| 
         0000c8 00   
     831                      .dwpsn  file "../c5535_bsl_revc/ezdsp5535_v1/c55xx_csl/ccs_v4.0_examples/mmc_sd/CSL_MMCSD_dmaExample/
     832 0000c9 3C00          MOV #0, AC0 ; |360| 
     833 0000cb EB08          MOV AC0, dbl(*SP(#4)) ; |360| 
         0000cd 08   
     834                      .dwpsn  file "../c5535_bsl_revc/ezdsp5535_v1/c55xx_csl/ccs_v4.0_examples/mmc_sd/CSL_MMCSD_dmaExample/
     835 0000ce E61C          MOV #2, *SP(#14) ; |361| 
         0000d0 02   
     836                      .dwpsn  file "../c5535_bsl_revc/ezdsp5535_v1/c55xx_csl/ccs_v4.0_examples/mmc_sd/CSL_MMCSD_dmaExample/
     837 0000d1 E612          MOV #0, *SP(#9) ; |364| 
         0000d3 00   
     838                      .dwpsn  file "../c5535_bsl_revc/ezdsp5535_v1/c55xx_csl/ccs_v4.0_examples/mmc_sd/CSL_MMCSD_dmaExample/
     839 0000d4 7601          MOV #256, AR2 ; |364| 
         0000d6 00A8 
     840 0000d8 A912          MOV *SP(#9), AR1 ; |364| 
     841 0000da 1298          CMPU AR1 >= AR2, TC1 ; |364| 
         0000dc A4   
     842 0000dd 0464          BCC $C$L8,TC1 ; |364| 
         0000df 3D   
     843                                                      ; branchcc occurs ; |364| 
     844 0000e0       $C$L7:    
     845 0000e0       $C$DW$L$_mmcsdDmaTest$2$B:
     846                      .dwpsn  file "../c5535_bsl_revc/ezdsp5535_v1/c55xx_csl/ccs_v4.0_examples/mmc_sd/CSL_MMCSD_dmaExample/
     847 0000e0 A412          MOV *SP(#9), T0 ; |366| 
     848 0000e2 EC31          AMOV #_gReadBuff, XAR3 ; |366| 
         0000e4 BE00 
         0000e6 00B0-
     849 0000e8 E66B          MOV #0, *AR3(T0) ; |366| 
         0000ea 00   
     850                      .dwpsn  file "../c5535_bsl_revc/ezdsp5535_v1/c55xx_csl/ccs_v4.0_examples/mmc_sd/CSL_MMCSD_dmaExample/
     851 0000eb A412          MOV *SP(#9), T0 ; |367| 
     852 0000ed A912          MOV *SP(#9), AR1 ; |367| 
     853 0000ef EC31          AMOV #_gWriteBuff, XAR3 ; |367| 
         0000f1 BE00 
         0000f3 02B0-
     854 0000f5 C96B          MOV AR1, *AR3(T0) ; |367| 
     855                      .dwpsn  file "../c5535_bsl_revc/ezdsp5535_v1/c55xx_csl/ccs_v4.0_examples/mmc_sd/CSL_MMCSD_dmaExample/
     856 0000f7 A412          MOV *SP(#9), T0 ; |368| 
     857 0000f9 2249          MOV T0, AR1 ; |368| 
     858 0000fb EC31          AMOV #_gWriteTempBuff, XAR3 ; |368| 
         0000fd BE00 
         0000ff 04B0-
     859 000101 EC31          AMOV #_gWriteBuff, XAR2 ; |368| 
         000103 AE00 
         000105 02B0-
     860 000107 1490          AADD AR1, AR3 ; |368| 
         000109 B0   
TMS320C55x Assembler PC v4.4.1 Sat Sep 29 23:09:00 2018

Tools Copyright (c) 1996-2012 Texas Instruments Incorporated
csl_mmcsd_dma_example.asm                                            PAGE   18

     861 00010a 805D          MOV *AR2(T0), *AR3 ; |368| 
         00010c 84   
     862                      .dwpsn  file "../c5535_bsl_revc/ezdsp5535_v1/c55xx_csl/ccs_v4.0_examples/mmc_sd/CSL_MMCSD_dmaExample/
     863 00010d F712          ADD #1, *SP(#9) ; |364| 
         00010f 0001 
     864                      .dwpsn  file "../c5535_bsl_revc/ezdsp5535_v1/c55xx_csl/ccs_v4.0_examples/mmc_sd/CSL_MMCSD_dmaExample/
     865 000111 7601          MOV #256, AR2 ; |364| 
         000113 00A8 
     866 000115 A912          MOV *SP(#9), AR1 ; |364| 
     867 000117 1294          CMPU AR1 < AR2, TC1 ; |364| 
         000119 A4   
     868 00011a 0464          BCC $C$L7,TC1 ; |364| 
         00011c C3   
     869                                                      ; branchcc occurs ; |364| 
     870 00011d       $C$DW$L$_mmcsdDmaTest$2$E:
     871 00011d       $C$L8:    
     872                      .dwpsn  file "../c5535_bsl_revc/ezdsp5535_v1/c55xx_csl/ccs_v4.0_examples/mmc_sd/CSL_MMCSD_dmaExample/
     873              $C$DW$143       .dwtag  DW_TAG_TI_branch
     874                      .dwattr $C$DW$143, DW_AT_low_pc(0x00)
     875                      .dwattr $C$DW$143, DW_AT_name("_MMC_init")
     876                      .dwattr $C$DW$143, DW_AT_TI_call
     877 00011d 6C00          CALL #_MMC_init ; |372| 
         00011f 0000!
     878                                                      ; call occurs [#_MMC_init] ; |372| 
     879 000121 C410          MOV T0, *SP(#8) ; |372| 
     880                      .dwpsn  file "../c5535_bsl_revc/ezdsp5535_v1/c55xx_csl/ccs_v4.0_examples/mmc_sd/CSL_MMCSD_dmaExample/
     881 000123 2249          MOV T0, AR1
     882 000125 0409          BCC $C$L9,AR1 == #0 ; |373| 
         000127 12   
     883                                                      ; branchcc occurs ; |373| 
     884                      .dwpsn  file "../c5535_bsl_revc/ezdsp5535_v1/c55xx_csl/ccs_v4.0_examples/mmc_sd/CSL_MMCSD_dmaExample/
     885 000128 EC31          AMOV #$C$FSL10, XAR3 ; |375| 
         00012a BE00 
         00012c 0148+
     886 00012e EB00          MOV XAR3, dbl(*SP(#0))
         000130 B5   
     887              $C$DW$144       .dwtag  DW_TAG_TI_branch
     888                      .dwattr $C$DW$144, DW_AT_low_pc(0x00)
     889                      .dwattr $C$DW$144, DW_AT_name("_printf")
     890                      .dwattr $C$DW$144, DW_AT_TI_call
     891 000131 6C00          CALL #_printf ; |375| 
         000133 0000!
     892                                                      ; call occurs [#_printf] ; |375| 
     893                      .dwpsn  file "../c5535_bsl_revc/ezdsp5535_v1/c55xx_csl/ccs_v4.0_examples/mmc_sd/CSL_MMCSD_dmaExample/
     894 000135 A410          MOV *SP(#8), T0 ; |376| 
     895 000137 0605          B $C$L45  ; |376| 
         000139 12   
     896                                                      ; branch occurs ; |376| 
     897 00013a       $C$L9:    
     898                      .dwpsn  file "../c5535_bsl_revc/ezdsp5535_v1/c55xx_csl/ccs_v4.0_examples/mmc_sd/CSL_MMCSD_dmaExample/
     899              $C$DW$145       .dwtag  DW_TAG_TI_branch
     900                      .dwattr $C$DW$145, DW_AT_low_pc(0x00)
     901                      .dwattr $C$DW$145, DW_AT_name("_DMA_init")
     902                      .dwattr $C$DW$145, DW_AT_TI_call
     903 00013a 6C00          CALL #_DMA_init ; |380| 
TMS320C55x Assembler PC v4.4.1 Sat Sep 29 23:09:00 2018

Tools Copyright (c) 1996-2012 Texas Instruments Incorporated
csl_mmcsd_dma_example.asm                                            PAGE   19

         00013c 0000!
     904                                                      ; call occurs [#_DMA_init] ; |380| 
     905 00013e C410          MOV T0, *SP(#8) ; |380| 
     906                      .dwpsn  file "../c5535_bsl_revc/ezdsp5535_v1/c55xx_csl/ccs_v4.0_examples/mmc_sd/CSL_MMCSD_dmaExample/
     907 000140 2249          MOV T0, AR1
     908 000142 0409          BCC $C$L10,AR1 == #0 ; |381| 
         000144 12   
     909                                                      ; branchcc occurs ; |381| 
     910                      .dwpsn  file "../c5535_bsl_revc/ezdsp5535_v1/c55xx_csl/ccs_v4.0_examples/mmc_sd/CSL_MMCSD_dmaExample/
     911 000145 EC31          AMOV #$C$FSL11, XAR3 ; |383| 
         000147 BE00 
         000149 0160+
     912 00014b EB00          MOV XAR3, dbl(*SP(#0))
         00014d B5   
     913              $C$DW$146       .dwtag  DW_TAG_TI_branch
     914                      .dwattr $C$DW$146, DW_AT_low_pc(0x00)
     915                      .dwattr $C$DW$146, DW_AT_name("_printf")
     916                      .dwattr $C$DW$146, DW_AT_TI_call
     917 00014e 6C00          CALL #_printf ; |383| 
         000150 0000!
     918                                                      ; call occurs [#_printf] ; |383| 
     919                      .dwpsn  file "../c5535_bsl_revc/ezdsp5535_v1/c55xx_csl/ccs_v4.0_examples/mmc_sd/CSL_MMCSD_dmaExample/
     920 000152 A410          MOV *SP(#8), T0 ; |384| 
     921 000154 0604          B $C$L45  ; |384| 
         000156 F5   
     922                                                      ; branch occurs ; |384| 
     923 000157       $C$L10:    
     924                      .dwpsn  file "../c5535_bsl_revc/ezdsp5535_v1/c55xx_csl/ccs_v4.0_examples/mmc_sd/CSL_MMCSD_dmaExample/
     925 000157 EC10          AMAR *SP(#8), XAR1
         000159 9E   
     926 00015a EC31          AMOV #_dmaWrChanObj, XAR0 ; |388| 
         00015c 8E00 
         00015e 009C-
     927              $C$DW$147       .dwtag  DW_TAG_TI_branch
     928                      .dwattr $C$DW$147, DW_AT_low_pc(0x00)
     929                      .dwattr $C$DW$147, DW_AT_name("_DMA_open")
     930                      .dwattr $C$DW$147, DW_AT_TI_call
     931              
     932 000160 6C00          CALL #_DMA_open ; |388| 
         000162 0000!
     933 000164 3D04  ||      MOV #0, T0
     934              
     935                                                      ; call occurs [#_DMA_open] ; |388| 
     936 000166 EB31          MOV XAR0, dbl(*(#_dmaWrHandle))
         000168 8500 
         00016a 0098-
     937                      .dwpsn  file "../c5535_bsl_revc/ezdsp5535_v1/c55xx_csl/ccs_v4.0_examples/mmc_sd/CSL_MMCSD_dmaExample/
     938 00016c ED31          MOV dbl(*(#_dmaWrHandle)), XAR3
         00016e BF00 
         000170 0098-
     939 000172 90B0          MOV XAR3, AC0
     940 000174 6280          BCC $C$L11,AC0 == #0 ; |389| 
     941                                                      ; branchcc occurs ; |389| 
     942 000176 A910          MOV *SP(#8), AR1 ; |389| 
     943 000178 0409          BCC $C$L12,AR1 == #0 ; |389| 
TMS320C55x Assembler PC v4.4.1 Sat Sep 29 23:09:00 2018

Tools Copyright (c) 1996-2012 Texas Instruments Incorporated
csl_mmcsd_dma_example.asm                                            PAGE   20

         00017a 12   
     944                                                      ; branchcc occurs ; |389| 
     945 00017b       $C$L11:    
     946                      .dwpsn  file "../c5535_bsl_revc/ezdsp5535_v1/c55xx_csl/ccs_v4.0_examples/mmc_sd/CSL_MMCSD_dmaExample/
     947 00017b EC31          AMOV #$C$FSL12, XAR3 ; |391| 
         00017d BE00 
         00017f 0178+
     948 000181 EB00          MOV XAR3, dbl(*SP(#0))
         000183 B5   
     949              $C$DW$148       .dwtag  DW_TAG_TI_branch
     950                      .dwattr $C$DW$148, DW_AT_low_pc(0x00)
     951                      .dwattr $C$DW$148, DW_AT_name("_printf")
     952                      .dwattr $C$DW$148, DW_AT_TI_call
     953 000184 6C00          CALL #_printf ; |391| 
         000186 0000!
     954                                                      ; call occurs [#_printf] ; |391| 
     955                      .dwpsn  file "../c5535_bsl_revc/ezdsp5535_v1/c55xx_csl/ccs_v4.0_examples/mmc_sd/CSL_MMCSD_dmaExample/
     956 000188 A410          MOV *SP(#8), T0 ; |392| 
     957 00018a 0604          B $C$L45  ; |392| 
         00018c BF   
     958                                                      ; branch occurs ; |392| 
     959 00018d       $C$L12:    
     960                      .dwpsn  file "../c5535_bsl_revc/ezdsp5535_v1/c55xx_csl/ccs_v4.0_examples/mmc_sd/CSL_MMCSD_dmaExample/
     961 00018d EC10          AMAR *SP(#8), XAR1
         00018f 9E   
     962 000190 EC31          AMOV #_dmaRdChanObj, XAR0 ; |396| 
         000192 8E00 
         000194 00A5-
     963              $C$DW$149       .dwtag  DW_TAG_TI_branch
     964                      .dwattr $C$DW$149, DW_AT_low_pc(0x00)
     965                      .dwattr $C$DW$149, DW_AT_name("_DMA_open")
     966                      .dwattr $C$DW$149, DW_AT_TI_call
     967              
     968 000196 6C00          CALL #_DMA_open ; |396| 
         000198 0000!
     969 00019a 3D14  ||      MOV #1, T0
     970              
     971                                                      ; call occurs [#_DMA_open] ; |396| 
     972 00019c EB31          MOV XAR0, dbl(*(#_dmaRdHandle))
         00019e 8500 
         0001a0 009A-
     973                      .dwpsn  file "../c5535_bsl_revc/ezdsp5535_v1/c55xx_csl/ccs_v4.0_examples/mmc_sd/CSL_MMCSD_dmaExample/
     974 0001a2 ED31          MOV dbl(*(#_dmaRdHandle)), XAR3
         0001a4 BF00 
         0001a6 009A-
     975 0001a8 90B0          MOV XAR3, AC0
     976 0001aa 6280          BCC $C$L13,AC0 == #0 ; |397| 
     977                                                      ; branchcc occurs ; |397| 
     978 0001ac A910          MOV *SP(#8), AR1 ; |397| 
     979 0001ae 0409          BCC $C$L14,AR1 == #0 ; |397| 
         0001b0 12   
     980                                                      ; branchcc occurs ; |397| 
     981 0001b1       $C$L13:    
     982                      .dwpsn  file "../c5535_bsl_revc/ezdsp5535_v1/c55xx_csl/ccs_v4.0_examples/mmc_sd/CSL_MMCSD_dmaExample/
     983 0001b1 EC31          AMOV #$C$FSL13, XAR3 ; |399| 
TMS320C55x Assembler PC v4.4.1 Sat Sep 29 23:09:00 2018

Tools Copyright (c) 1996-2012 Texas Instruments Incorporated
csl_mmcsd_dma_example.asm                                            PAGE   21

         0001b3 BE00 
         0001b5 01A0+
     984 0001b7 EB00          MOV XAR3, dbl(*SP(#0))
         0001b9 B5   
     985              $C$DW$150       .dwtag  DW_TAG_TI_branch
     986                      .dwattr $C$DW$150, DW_AT_low_pc(0x00)
     987                      .dwattr $C$DW$150, DW_AT_name("_printf")
     988                      .dwattr $C$DW$150, DW_AT_TI_call
     989 0001ba 6C00          CALL #_printf ; |399| 
         0001bc 0000!
     990                                                      ; call occurs [#_printf] ; |399| 
     991                      .dwpsn  file "../c5535_bsl_revc/ezdsp5535_v1/c55xx_csl/ccs_v4.0_examples/mmc_sd/CSL_MMCSD_dmaExample/
     992 0001be A410          MOV *SP(#8), T0 ; |400| 
     993 0001c0 0604          B $C$L45  ; |400| 
         0001c2 89   
     994                                                      ; branch occurs ; |400| 
     995 0001c3       $C$L14:    
     996                      .dwpsn  file "../c5535_bsl_revc/ezdsp5535_v1/c55xx_csl/ccs_v4.0_examples/mmc_sd/CSL_MMCSD_dmaExample/
     997 0001c3 A51C          MOV *SP(#14), T1 ; |407| 
     998 0001c5 EC10          AMAR *SP(#8), XAR1
         0001c7 9E   
     999 0001c8 EC31          AMOV #_pMmcsdContObj, XAR0 ; |407| 
         0001ca 8E00 
         0001cc 0000-
    1000              $C$DW$151       .dwtag  DW_TAG_TI_branch
    1001                      .dwattr $C$DW$151, DW_AT_low_pc(0x00)
    1002                      .dwattr $C$DW$151, DW_AT_name("_MMC_open")
    1003                      .dwattr $C$DW$151, DW_AT_TI_call
    1004              
    1005 0001ce 6C00          CALL #_MMC_open ; |407| 
         0001d0 0000!
    1006 0001d2 3D04  ||      MOV #0, T0
    1007              
    1008                                                      ; call occurs [#_MMC_open] ; |407| 
    1009 0001d4 EB31          MOV XAR0, dbl(*(#_mmcsdHandle))
         0001d6 8500 
         0001d8 0040-
    1010                      .dwpsn  file "../c5535_bsl_revc/ezdsp5535_v1/c55xx_csl/ccs_v4.0_examples/mmc_sd/CSL_MMCSD_dmaExample/
    1011 0001da A910          MOV *SP(#8), AR1 ; |409| 
    1012 0001dc 6599          BCC $C$L15,AR1 != #0 ; |409| 
    1013                                                      ; branchcc occurs ; |409| 
    1014 0001de ED31          MOV dbl(*(#_mmcsdHandle)), XAR3
         0001e0 BF00 
         0001e2 0040-
    1015 0001e4 90B0          MOV XAR3, AC0
    1016 0001e6 0410          BCC $C$L16,AC0 != #0 ; |409| 
         0001e8 12   
    1017                                                      ; branchcc occurs ; |409| 
    1018 0001e9       $C$L15:    
    1019                      .dwpsn  file "../c5535_bsl_revc/ezdsp5535_v1/c55xx_csl/ccs_v4.0_examples/mmc_sd/CSL_MMCSD_dmaExample/
    1020 0001e9 EC31          AMOV #$C$FSL14, XAR3 ; |411| 
         0001eb BE00 
         0001ed 01C6+
    1021 0001ef EB00          MOV XAR3, dbl(*SP(#0))
         0001f1 B5   
TMS320C55x Assembler PC v4.4.1 Sat Sep 29 23:09:00 2018

Tools Copyright (c) 1996-2012 Texas Instruments Incorporated
csl_mmcsd_dma_example.asm                                            PAGE   22

    1022              $C$DW$152       .dwtag  DW_TAG_TI_branch
    1023                      .dwattr $C$DW$152, DW_AT_low_pc(0x00)
    1024                      .dwattr $C$DW$152, DW_AT_name("_printf")
    1025                      .dwattr $C$DW$152, DW_AT_TI_call
    1026 0001f2 6C00          CALL #_printf ; |411| 
         0001f4 0000!
    1027                                                      ; call occurs [#_printf] ; |411| 
    1028                      .dwpsn  file "../c5535_bsl_revc/ezdsp5535_v1/c55xx_csl/ccs_v4.0_examples/mmc_sd/CSL_MMCSD_dmaExample/
    1029 0001f6 A410          MOV *SP(#8), T0 ; |412| 
    1030 0001f8 0604          B $C$L45  ; |412| 
         0001fa 51   
    1031                                                      ; branch occurs ; |412| 
    1032 0001fb       $C$L16:    
    1033                      .dwpsn  file "../c5535_bsl_revc/ezdsp5535_v1/c55xx_csl/ccs_v4.0_examples/mmc_sd/CSL_MMCSD_dmaExample/
    1034 0001fb F01C          CMP *SP(#14) == #2, TC1 ; |416| 
         0001fd 0002 
    1035 0001ff 0474          BCC $C$L17,!TC1 ; |416| 
         000201 29   
    1036                                                      ; branchcc occurs ; |416| 
    1037                      .dwpsn  file "../c5535_bsl_revc/ezdsp5535_v1/c55xx_csl/ccs_v4.0_examples/mmc_sd/CSL_MMCSD_dmaExample/
    1038 000202 ED31          MOV dbl(*(#_dmaWrHandle)), XAR1
         000204 9F00 
         000206 0098-
    1039 000208 ED31          MOV dbl(*(#_dmaRdHandle)), XAR2
         00020a AF00 
         00020c 009A-
    1040              $C$DW$153       .dwtag  DW_TAG_TI_branch
    1041                      .dwattr $C$DW$153, DW_AT_low_pc(0x00)
    1042                      .dwattr $C$DW$153, DW_AT_name("_MMC_setDmaHandle")
    1043                      .dwattr $C$DW$153, DW_AT_TI_call
    1044 00020e 6C00          CALL #_MMC_setDmaHandle ; |419| 
         000210 0000!
    1045                                                      ; call occurs [#_MMC_setDmaHandle] ; |419| 
    1046 000212 C410          MOV T0, *SP(#8) ; |419| 
    1047                      .dwpsn  file "../c5535_bsl_revc/ezdsp5535_v1/c55xx_csl/ccs_v4.0_examples/mmc_sd/CSL_MMCSD_dmaExample/
    1048 000214 2249          MOV T0, AR1
    1049 000216 0409          BCC $C$L17,AR1 == #0 ; |420| 
         000218 12   
    1050                                                      ; branchcc occurs ; |420| 
    1051                      .dwpsn  file "../c5535_bsl_revc/ezdsp5535_v1/c55xx_csl/ccs_v4.0_examples/mmc_sd/CSL_MMCSD_dmaExample/
    1052 000219 EC31          AMOV #$C$FSL15, XAR3 ; |422| 
         00021b BE00 
         00021d 01DC+
    1053 00021f EB00          MOV XAR3, dbl(*SP(#0))
         000221 B5   
    1054              $C$DW$154       .dwtag  DW_TAG_TI_branch
    1055                      .dwattr $C$DW$154, DW_AT_low_pc(0x00)
    1056                      .dwattr $C$DW$154, DW_AT_name("_printf")
    1057                      .dwattr $C$DW$154, DW_AT_TI_call
    1058 000222 6C00          CALL #_printf ; |422| 
         000224 0000!
    1059                                                      ; call occurs [#_printf] ; |422| 
    1060                      .dwpsn  file "../c5535_bsl_revc/ezdsp5535_v1/c55xx_csl/ccs_v4.0_examples/mmc_sd/CSL_MMCSD_dmaExample/
    1061 000226 A410          MOV *SP(#8), T0 ; |423| 
    1062 000228 0604          B $C$L45  ; |423| 
TMS320C55x Assembler PC v4.4.1 Sat Sep 29 23:09:00 2018

Tools Copyright (c) 1996-2012 Texas Instruments Incorporated
csl_mmcsd_dma_example.asm                                            PAGE   23

         00022a 21   
    1063                                                      ; branch occurs ; |423| 
    1064 00022b       $C$L17:    
    1065                      .dwpsn  file "../c5535_bsl_revc/ezdsp5535_v1/c55xx_csl/ccs_v4.0_examples/mmc_sd/CSL_MMCSD_dmaExample/
    1066 00022b ED31          MOV dbl(*(#_mmcsdHandle)), XAR0
         00022d 8F00 
         00022f 0040-
    1067              $C$DW$155       .dwtag  DW_TAG_TI_branch
    1068                      .dwattr $C$DW$155, DW_AT_low_pc(0x00)
    1069                      .dwattr $C$DW$155, DW_AT_name("_MMC_sendGoIdle")
    1070                      .dwattr $C$DW$155, DW_AT_TI_call
    1071 000231 6C00          CALL #_MMC_sendGoIdle ; |428| 
         000233 0000!
    1072                                                      ; call occurs [#_MMC_sendGoIdle] ; |428| 
    1073 000235 C410          MOV T0, *SP(#8) ; |428| 
    1074                      .dwpsn  file "../c5535_bsl_revc/ezdsp5535_v1/c55xx_csl/ccs_v4.0_examples/mmc_sd/CSL_MMCSD_dmaExample/
    1075 000237 2249          MOV T0, AR1
    1076 000239 0409          BCC $C$L18,AR1 == #0 ; |429| 
         00023b 12   
    1077                                                      ; branchcc occurs ; |429| 
    1078                      .dwpsn  file "../c5535_bsl_revc/ezdsp5535_v1/c55xx_csl/ccs_v4.0_examples/mmc_sd/CSL_MMCSD_dmaExample/
    1079 00023c EC31          AMOV #$C$FSL16, XAR3 ; |431| 
         00023e BE00 
         000240 0204+
    1080 000242 EB00          MOV XAR3, dbl(*SP(#0))
         000244 B5   
    1081              $C$DW$156       .dwtag  DW_TAG_TI_branch
    1082                      .dwattr $C$DW$156, DW_AT_low_pc(0x00)
    1083                      .dwattr $C$DW$156, DW_AT_name("_printf")
    1084                      .dwattr $C$DW$156, DW_AT_TI_call
    1085 000245 6C00          CALL #_printf ; |431| 
         000247 0000!
    1086                                                      ; call occurs [#_printf] ; |431| 
    1087                      .dwpsn  file "../c5535_bsl_revc/ezdsp5535_v1/c55xx_csl/ccs_v4.0_examples/mmc_sd/CSL_MMCSD_dmaExample/
    1088 000249 A410          MOV *SP(#8), T0 ; |432| 
    1089 00024b 0603          B $C$L45  ; |432| 
         00024d FE   
    1090                                                      ; branch occurs ; |432| 
    1091 00024e       $C$L18:    
    1092                      .dwpsn  file "../c5535_bsl_revc/ezdsp5535_v1/c55xx_csl/ccs_v4.0_examples/mmc_sd/CSL_MMCSD_dmaExample/
    1093 00024e ED31          MOV dbl(*(#_mmcsdHandle)), XAR0
         000250 8F00 
         000252 0040-
    1094 000254 EC31          AMOV #_mmcCardObj, XAR1 ; |436| 
         000256 9E00 
         000258 0042-
    1095              $C$DW$157       .dwtag  DW_TAG_TI_branch
    1096                      .dwattr $C$DW$157, DW_AT_low_pc(0x00)
    1097                      .dwattr $C$DW$157, DW_AT_name("_MMC_selectCard")
    1098                      .dwattr $C$DW$157, DW_AT_TI_call
    1099 00025a 6C00          CALL #_MMC_selectCard ; |436| 
         00025c 0000!
    1100                                                      ; call occurs [#_MMC_selectCard] ; |436| 
    1101 00025e C410          MOV T0, *SP(#8) ; |436| 
    1102                      .dwpsn  file "../c5535_bsl_revc/ezdsp5535_v1/c55xx_csl/ccs_v4.0_examples/mmc_sd/CSL_MMCSD_dmaExample/
TMS320C55x Assembler PC v4.4.1 Sat Sep 29 23:09:00 2018

Tools Copyright (c) 1996-2012 Texas Instruments Incorporated
csl_mmcsd_dma_example.asm                                            PAGE   24

    1103 000260 F010          CMP *SP(#8) == #-5, TC1 ; |437| 
         000262 FFFB 
    1104 000264 63E4          BCC $C$L19,TC1 ; |437| 
    1105                                                      ; branchcc occurs ; |437| 
    1106 000266 F010          CMP *SP(#8) == #-6, TC1 ; |437| 
         000268 FFFA 
    1107 00026a 0474          BCC $C$L20,!TC1 ; |437| 
         00026c 12   
    1108                                                      ; branchcc occurs ; |437| 
    1109 00026d       $C$L19:    
    1110                      .dwpsn  file "../c5535_bsl_revc/ezdsp5535_v1/c55xx_csl/ccs_v4.0_examples/mmc_sd/CSL_MMCSD_dmaExample/
    1111 00026d EC31          AMOV #$C$FSL17, XAR3 ; |440| 
         00026f BE00 
         000271 0220+
    1112 000273 EB00          MOV XAR3, dbl(*SP(#0))
         000275 B5   
    1113              $C$DW$158       .dwtag  DW_TAG_TI_branch
    1114                      .dwattr $C$DW$158, DW_AT_low_pc(0x00)
    1115                      .dwattr $C$DW$158, DW_AT_name("_printf")
    1116                      .dwattr $C$DW$158, DW_AT_TI_call
    1117 000276 6C00          CALL #_printf ; |440| 
         000278 0000!
    1118                                                      ; call occurs [#_printf] ; |440| 
    1119                      .dwpsn  file "../c5535_bsl_revc/ezdsp5535_v1/c55xx_csl/ccs_v4.0_examples/mmc_sd/CSL_MMCSD_dmaExample/
    1120 00027a A410          MOV *SP(#8), T0 ; |441| 
    1121 00027c 0603          B $C$L45  ; |441| 
         00027e CD   
    1122                                                      ; branch occurs ; |441| 
    1123 00027f       $C$L20:    
    1124                      .dwpsn  file "../c5535_bsl_revc/ezdsp5535_v1/c55xx_csl/ccs_v4.0_examples/mmc_sd/CSL_MMCSD_dmaExample/
    1125 00027f F031          CMP *(#(_mmcCardObj+18)) == #2, TC1 ; |445| 
         000281 0002 
         000283 0000 
         000285 54-  
    1126 000286 6D74          BCC $C$L24,!TC1 ; |445| 
         000288 00A2 
    1127                                                      ; branchcc occurs ; |445| 
    1128                      .dwpsn  file "../c5535_bsl_revc/ezdsp5535_v1/c55xx_csl/ccs_v4.0_examples/mmc_sd/CSL_MMCSD_dmaExample/
    1129 00028a EC31          AMOV #$C$FSL18, XAR3 ; |447| 
         00028c BE00 
         00028e 023C+
    1130 000290 EB00          MOV XAR3, dbl(*SP(#0))
         000292 B5   
    1131              $C$DW$159       .dwtag  DW_TAG_TI_branch
    1132                      .dwattr $C$DW$159, DW_AT_low_pc(0x00)
    1133                      .dwattr $C$DW$159, DW_AT_name("_printf")
    1134                      .dwattr $C$DW$159, DW_AT_TI_call
    1135 000293 6C00          CALL #_printf ; |447| 
         000295 0000!
    1136                                                      ; call occurs [#_printf] ; |447| 
    1137                      .dwpsn  file "../c5535_bsl_revc/ezdsp5535_v1/c55xx_csl/ccs_v4.0_examples/mmc_sd/CSL_MMCSD_dmaExample/
    1138 000297 E61A          MOV #2, *SP(#13) ; |448| 
         000299 02   
    1139                      .dwpsn  file "../c5535_bsl_revc/ezdsp5535_v1/c55xx_csl/ccs_v4.0_examples/mmc_sd/CSL_MMCSD_dmaExample/
    1140 00029a ED08          MOV dbl(*SP(#4)), AC0 ; |449| 
TMS320C55x Assembler PC v4.4.1 Sat Sep 29 23:09:00 2018

Tools Copyright (c) 1996-2012 Texas Instruments Incorporated
csl_mmcsd_dma_example.asm                                            PAGE   25

         00029c 08   
    1141 00029d 1007          SFTL AC0, #9, AC0 ; |449| 
         00029f 09   
    1142 0002a0 EB0C          MOV AC0, dbl(*SP(#6)) ; |449| 
         0002a2 08   
    1143                      .dwpsn  file "../c5535_bsl_revc/ezdsp5535_v1/c55xx_csl/ccs_v4.0_examples/mmc_sd/CSL_MMCSD_dmaExample/
    1144 0002a3 EC31          AMOV #_cardIdObj, XAR1 ; |452| 
         0002a5 9E00 
         0002a7 0060-
    1145 0002a9 ED31          MOV dbl(*(#_mmcsdHandle)), XAR0
         0002ab 8F00 
         0002ad 0040-
    1146              $C$DW$160       .dwtag  DW_TAG_TI_branch
    1147                      .dwattr $C$DW$160, DW_AT_low_pc(0x00)
    1148                      .dwattr $C$DW$160, DW_AT_name("_MMC_sendAllCID")
    1149                      .dwattr $C$DW$160, DW_AT_TI_call
    1150 0002af 6C00          CALL #_MMC_sendAllCID ; |452| 
         0002b1 0000!
    1151                                                      ; call occurs [#_MMC_sendAllCID] ; |452| 
    1152 0002b3 C410          MOV T0, *SP(#8) ; |452| 
    1153                      .dwpsn  file "../c5535_bsl_revc/ezdsp5535_v1/c55xx_csl/ccs_v4.0_examples/mmc_sd/CSL_MMCSD_dmaExample/
    1154 0002b5 2249          MOV T0, AR1
    1155 0002b7 0409          BCC $C$L21,AR1 == #0 ; |453| 
         0002b9 12   
    1156                                                      ; branchcc occurs ; |453| 
    1157                      .dwpsn  file "../c5535_bsl_revc/ezdsp5535_v1/c55xx_csl/ccs_v4.0_examples/mmc_sd/CSL_MMCSD_dmaExample/
    1158 0002ba EC31          AMOV #$C$FSL19, XAR3 ; |455| 
         0002bc BE00 
         0002be 0252+
    1159 0002c0 EB00          MOV XAR3, dbl(*SP(#0))
         0002c2 B5   
    1160              $C$DW$161       .dwtag  DW_TAG_TI_branch
    1161                      .dwattr $C$DW$161, DW_AT_low_pc(0x00)
    1162                      .dwattr $C$DW$161, DW_AT_name("_printf")
    1163                      .dwattr $C$DW$161, DW_AT_TI_call
    1164 0002c3 6C00          CALL #_printf ; |455| 
         0002c5 0000!
    1165                                                      ; call occurs [#_printf] ; |455| 
    1166                      .dwpsn  file "../c5535_bsl_revc/ezdsp5535_v1/c55xx_csl/ccs_v4.0_examples/mmc_sd/CSL_MMCSD_dmaExample/
    1167 0002c7 A410          MOV *SP(#8), T0 ; |456| 
    1168 0002c9 0603          B $C$L45  ; |456| 
         0002cb 80   
    1169                                                      ; branch occurs ; |456| 
    1170 0002cc       $C$L21:    
    1171                      .dwpsn  file "../c5535_bsl_revc/ezdsp5535_v1/c55xx_csl/ccs_v4.0_examples/mmc_sd/CSL_MMCSD_dmaExample/
    1172 0002cc ED31          MOV dbl(*(#_mmcsdHandle)), XAR0
         0002ce 8F00 
         0002d0 0040-
    1173 0002d2 EC31          AMOV #_mmcCardObj, XAR1 ; |460| 
         0002d4 9E00 
         0002d6 0042-
    1174              $C$DW$162       .dwtag  DW_TAG_TI_branch
    1175                      .dwattr $C$DW$162, DW_AT_low_pc(0x00)
    1176                      .dwattr $C$DW$162, DW_AT_name("_MMC_setRca")
    1177                      .dwattr $C$DW$162, DW_AT_TI_call
TMS320C55x Assembler PC v4.4.1 Sat Sep 29 23:09:00 2018

Tools Copyright (c) 1996-2012 Texas Instruments Incorporated
csl_mmcsd_dma_example.asm                                            PAGE   26

    1178              
    1179 0002d8 6C00          CALL #_MMC_setRca ; |460| 
         0002da 0000!
    1180 0002dc 3D14  ||      MOV #1, T0
    1181              
    1182                                                      ; call occurs [#_MMC_setRca] ; |460| 
    1183 0002de C410          MOV T0, *SP(#8) ; |460| 
    1184                      .dwpsn  file "../c5535_bsl_revc/ezdsp5535_v1/c55xx_csl/ccs_v4.0_examples/mmc_sd/CSL_MMCSD_dmaExample/
    1185 0002e0 2249          MOV T0, AR1
    1186 0002e2 0409          BCC $C$L22,AR1 == #0 ; |461| 
         0002e4 12   
    1187                                                      ; branchcc occurs ; |461| 
    1188                      .dwpsn  file "../c5535_bsl_revc/ezdsp5535_v1/c55xx_csl/ccs_v4.0_examples/mmc_sd/CSL_MMCSD_dmaExample/
    1189 0002e5 EC31          AMOV #$C$FSL20, XAR3 ; |463| 
         0002e7 BE00 
         0002e9 026E+
    1190 0002eb EB00          MOV XAR3, dbl(*SP(#0))
         0002ed B5   
    1191              $C$DW$163       .dwtag  DW_TAG_TI_branch
    1192                      .dwattr $C$DW$163, DW_AT_low_pc(0x00)
    1193                      .dwattr $C$DW$163, DW_AT_name("_printf")
    1194                      .dwattr $C$DW$163, DW_AT_TI_call
    1195 0002ee 6C00          CALL #_printf ; |463| 
         0002f0 0000!
    1196                                                      ; call occurs [#_printf] ; |463| 
    1197                      .dwpsn  file "../c5535_bsl_revc/ezdsp5535_v1/c55xx_csl/ccs_v4.0_examples/mmc_sd/CSL_MMCSD_dmaExample/
    1198 0002f2 A410          MOV *SP(#8), T0 ; |464| 
    1199 0002f4 0603          B $C$L45  ; |464| 
         0002f6 55   
    1200                                                      ; branch occurs ; |464| 
    1201 0002f7       $C$L22:    
    1202                      .dwpsn  file "../c5535_bsl_revc/ezdsp5535_v1/c55xx_csl/ccs_v4.0_examples/mmc_sd/CSL_MMCSD_dmaExample/
    1203 0002f7 ED31          MOV dbl(*(#_mmcsdHandle)), XAR0
         0002f9 8F00 
         0002fb 0040-
    1204 0002fd EC31          AMOV #_cardCsdObj, XAR1 ; |468| 
         0002ff 9E00 
         000301 0070-
    1205              $C$DW$164       .dwtag  DW_TAG_TI_branch
    1206                      .dwattr $C$DW$164, DW_AT_low_pc(0x00)
    1207                      .dwattr $C$DW$164, DW_AT_name("_MMC_getCardCsd")
    1208                      .dwattr $C$DW$164, DW_AT_TI_call
    1209 000303 6C00          CALL #_MMC_getCardCsd ; |468| 
         000305 0000!
    1210                                                      ; call occurs [#_MMC_getCardCsd] ; |468| 
    1211 000307 C410          MOV T0, *SP(#8) ; |468| 
    1212                      .dwpsn  file "../c5535_bsl_revc/ezdsp5535_v1/c55xx_csl/ccs_v4.0_examples/mmc_sd/CSL_MMCSD_dmaExample/
    1213 000309 2249          MOV T0, AR1
    1214 00030b 0409          BCC $C$L23,AR1 == #0 ; |469| 
         00030d 12   
    1215                                                      ; branchcc occurs ; |469| 
    1216                      .dwpsn  file "../c5535_bsl_revc/ezdsp5535_v1/c55xx_csl/ccs_v4.0_examples/mmc_sd/CSL_MMCSD_dmaExample/
    1217 00030e EC31          AMOV #$C$FSL21, XAR3 ; |471| 
         000310 BE00 
         000312 0286+
TMS320C55x Assembler PC v4.4.1 Sat Sep 29 23:09:00 2018

Tools Copyright (c) 1996-2012 Texas Instruments Incorporated
csl_mmcsd_dma_example.asm                                            PAGE   27

    1218 000314 EB00          MOV XAR3, dbl(*SP(#0))
         000316 B5   
    1219              $C$DW$165       .dwtag  DW_TAG_TI_branch
    1220                      .dwattr $C$DW$165, DW_AT_low_pc(0x00)
    1221                      .dwattr $C$DW$165, DW_AT_name("_printf")
    1222                      .dwattr $C$DW$165, DW_AT_TI_call
    1223 000317 6C00          CALL #_printf ; |471| 
         000319 0000!
    1224                                                      ; call occurs [#_printf] ; |471| 
    1225                      .dwpsn  file "../c5535_bsl_revc/ezdsp5535_v1/c55xx_csl/ccs_v4.0_examples/mmc_sd/CSL_MMCSD_dmaExample/
    1226 00031b A410          MOV *SP(#8), T0 ; |472| 
    1227 00031d 0603          B $C$L45  ; |472| 
         00031f 2C   
    1228                                                      ; branch occurs ; |472| 
    1229 000320       $C$L23:    
    1230                      .dwpsn  file "../c5535_bsl_revc/ezdsp5535_v1/c55xx_csl/ccs_v4.0_examples/mmc_sd/CSL_MMCSD_dmaExample/
    1231 000320 7613          MOV #5000, AC0 ; |476| 
         000322 8808 
    1232              $C$DW$166       .dwtag  DW_TAG_TI_branch
    1233                      .dwattr $C$DW$166, DW_AT_low_pc(0x00)
    1234                      .dwattr $C$DW$166, DW_AT_name("_computeClkRate")
    1235                      .dwattr $C$DW$166, DW_AT_TI_call
    1236 000324 0809          CALL #_computeClkRate ; |476| 
         000326 E1   
    1237                                                      ; call occurs [#_computeClkRate] ; |476| 
    1238 000327 C418          MOV T0, *SP(#12) ; |476| 
    1239                      .dwpsn  file "../c5535_bsl_revc/ezdsp5535_v1/c55xx_csl/ccs_v4.0_examples/mmc_sd/CSL_MMCSD_dmaExample/
    1240 000329 0601          B $C$L32  ; |477| 
         00032b 41   
    1241                                                      ; branch occurs ; |477| 
    1242 00032c       $C$L24:    
    1243                      .dwpsn  file "../c5535_bsl_revc/ezdsp5535_v1/c55xx_csl/ccs_v4.0_examples/mmc_sd/CSL_MMCSD_dmaExample/
    1244 00032c F031          CMP *(#(_mmcCardObj+18)) == #1, TC1 ; |478| 
         00032e 0001 
         000330 0000 
         000332 54-  
    1245 000333 6D74          BCC $C$L31,!TC1 ; |478| 
         000335 0117 
    1246                                                      ; branchcc occurs ; |478| 
    1247                      .dwpsn  file "../c5535_bsl_revc/ezdsp5535_v1/c55xx_csl/ccs_v4.0_examples/mmc_sd/CSL_MMCSD_dmaExample/
    1248 000337 EC31          AMOV #$C$FSL22, XAR3 ; |480| 
         000339 BE00 
         00033b 02A2+
    1249 00033d EB00          MOV XAR3, dbl(*SP(#0))
         00033f B5   
    1250              $C$DW$167       .dwtag  DW_TAG_TI_branch
    1251                      .dwattr $C$DW$167, DW_AT_low_pc(0x00)
    1252                      .dwattr $C$DW$167, DW_AT_name("_printf")
    1253                      .dwattr $C$DW$167, DW_AT_TI_call
    1254 000340 6C00          CALL #_printf ; |480| 
         000342 0000!
    1255                                                      ; call occurs [#_printf] ; |480| 
    1256                      .dwpsn  file "../c5535_bsl_revc/ezdsp5535_v1/c55xx_csl/ccs_v4.0_examples/mmc_sd/CSL_MMCSD_dmaExample/
    1257 000344 E61A          MOV #1, *SP(#13) ; |481| 
         000346 01   
TMS320C55x Assembler PC v4.4.1 Sat Sep 29 23:09:00 2018

Tools Copyright (c) 1996-2012 Texas Instruments Incorporated
csl_mmcsd_dma_example.asm                                            PAGE   28

    1258                      .dwpsn  file "../c5535_bsl_revc/ezdsp5535_v1/c55xx_csl/ccs_v4.0_examples/mmc_sd/CSL_MMCSD_dmaExample/
    1259 000347 ED31          MOV dbl(*(#_mmcsdHandle)), XAR3
         000349 BF00 
         00034b 0040-
    1260 00034d ED75          MOV dbl(*AR3(short(#2))), XAR3
         00034f BF   
    1261 000350 F06D          CMP *AR3(#26) == #1, TC1 ; |484| 
         000352 0001 
         000354 001A 
    1262 000356 0474          BCC $C$L25,!TC1 ; |484| 
         000358 22   
    1263                                                      ; branchcc occurs ; |484| 
    1264                      .dwpsn  file "../c5535_bsl_revc/ezdsp5535_v1/c55xx_csl/ccs_v4.0_examples/mmc_sd/CSL_MMCSD_dmaExample/
    1265 000359 EC31          AMOV #$C$FSL23, XAR3 ; |486| 
         00035b BE00 
         00035d 02B6+
    1266 00035f EB00          MOV XAR3, dbl(*SP(#0))
         000361 B5   
    1267              $C$DW$168       .dwtag  DW_TAG_TI_branch
    1268                      .dwattr $C$DW$168, DW_AT_low_pc(0x00)
    1269                      .dwattr $C$DW$168, DW_AT_name("_printf")
    1270                      .dwattr $C$DW$168, DW_AT_TI_call
    1271 000362 6C00          CALL #_printf ; |486| 
         000364 0000!
    1272                                                      ; call occurs [#_printf] ; |486| 
    1273                      .dwpsn  file "../c5535_bsl_revc/ezdsp5535_v1/c55xx_csl/ccs_v4.0_examples/mmc_sd/CSL_MMCSD_dmaExample/
    1274 000366 EC31          AMOV #$C$FSL24, XAR3 ; |487| 
         000368 BE00 
         00036a 02D6+
    1275 00036c EB00          MOV XAR3, dbl(*SP(#0))
         00036e B5   
    1276              $C$DW$169       .dwtag  DW_TAG_TI_branch
    1277                      .dwattr $C$DW$169, DW_AT_low_pc(0x00)
    1278                      .dwattr $C$DW$169, DW_AT_name("_printf")
    1279                      .dwattr $C$DW$169, DW_AT_TI_call
    1280 00036f 6C00          CALL #_printf ; |487| 
         000371 0000!
    1281                                                      ; call occurs [#_printf] ; |487| 
    1282                      .dwpsn  file "../c5535_bsl_revc/ezdsp5535_v1/c55xx_csl/ccs_v4.0_examples/mmc_sd/CSL_MMCSD_dmaExample/
    1283 000373 ED08          MOV dbl(*SP(#4)), AC0 ; |491| 
         000375 08   
    1284 000376 EB0C          MOV AC0, dbl(*SP(#6)) ; |491| 
         000378 08   
    1285                      .dwpsn  file "../c5535_bsl_revc/ezdsp5535_v1/c55xx_csl/ccs_v4.0_examples/mmc_sd/CSL_MMCSD_dmaExample/
    1286 000379 4A23          B $C$L26  ; |492| 
    1287                                                      ; branch occurs ; |492| 
    1288 00037b       $C$L25:    
    1289                      .dwpsn  file "../c5535_bsl_revc/ezdsp5535_v1/c55xx_csl/ccs_v4.0_examples/mmc_sd/CSL_MMCSD_dmaExample/
    1290 00037b EC31          AMOV #$C$FSL25, XAR3 ; |495| 
         00037d BE00 
         00037f 02FC+
    1291 000381 EB00          MOV XAR3, dbl(*SP(#0))
         000383 B5   
    1292              $C$DW$170       .dwtag  DW_TAG_TI_branch
    1293                      .dwattr $C$DW$170, DW_AT_low_pc(0x00)
TMS320C55x Assembler PC v4.4.1 Sat Sep 29 23:09:00 2018

Tools Copyright (c) 1996-2012 Texas Instruments Incorporated
csl_mmcsd_dma_example.asm                                            PAGE   29

    1294                      .dwattr $C$DW$170, DW_AT_name("_printf")
    1295                      .dwattr $C$DW$170, DW_AT_TI_call
    1296 000384 6C00          CALL #_printf ; |495| 
         000386 0000!
    1297                                                      ; call occurs [#_printf] ; |495| 
    1298                      .dwpsn  file "../c5535_bsl_revc/ezdsp5535_v1/c55xx_csl/ccs_v4.0_examples/mmc_sd/CSL_MMCSD_dmaExample/
    1299 000388 EC31          AMOV #$C$FSL26, XAR3 ; |496| 
         00038a BE00 
         00038c 0320+
    1300 00038e EB00          MOV XAR3, dbl(*SP(#0))
         000390 B5   
    1301              $C$DW$171       .dwtag  DW_TAG_TI_branch
    1302                      .dwattr $C$DW$171, DW_AT_low_pc(0x00)
    1303                      .dwattr $C$DW$171, DW_AT_name("_printf")
    1304                      .dwattr $C$DW$171, DW_AT_TI_call
    1305 000391 6C00          CALL #_printf ; |496| 
         000393 0000!
    1306                                                      ; call occurs [#_printf] ; |496| 
    1307                      .dwpsn  file "../c5535_bsl_revc/ezdsp5535_v1/c55xx_csl/ccs_v4.0_examples/mmc_sd/CSL_MMCSD_dmaExample/
    1308 000395 ED08          MOV dbl(*SP(#4)), AC0 ; |500| 
         000397 08   
    1309 000398 1007          SFTL AC0, #9, AC0 ; |500| 
         00039a 09   
    1310 00039b EB0C          MOV AC0, dbl(*SP(#6)) ; |500| 
         00039d 08   
    1311 00039e       $C$L26:    
    1312                      .dwpsn  file "../c5535_bsl_revc/ezdsp5535_v1/c55xx_csl/ccs_v4.0_examples/mmc_sd/CSL_MMCSD_dmaExample/
    1313 00039e ED31          MOV dbl(*(#_mmcsdHandle)), XAR0
         0003a0 8F00 
         0003a2 0040-
    1314 0003a4 7600          MOV #70, T0 ; |504| 
         0003a6 4648 
    1315              $C$DW$172       .dwtag  DW_TAG_TI_branch
    1316                      .dwattr $C$DW$172, DW_AT_low_pc(0x00)
    1317                      .dwattr $C$DW$172, DW_AT_name("_MMC_sendOpCond")
    1318                      .dwattr $C$DW$172, DW_AT_TI_call
    1319 0003a8 6C00          CALL #_MMC_sendOpCond ; |504| 
         0003aa 0000!
    1320                                                      ; call occurs [#_MMC_sendOpCond] ; |504| 
    1321 0003ac C410          MOV T0, *SP(#8) ; |504| 
    1322                      .dwpsn  file "../c5535_bsl_revc/ezdsp5535_v1/c55xx_csl/ccs_v4.0_examples/mmc_sd/CSL_MMCSD_dmaExample/
    1323 0003ae 2249          MOV T0, AR1
    1324 0003b0 0409          BCC $C$L27,AR1 == #0 ; |505| 
         0003b2 12   
    1325                                                      ; branchcc occurs ; |505| 
    1326                      .dwpsn  file "../c5535_bsl_revc/ezdsp5535_v1/c55xx_csl/ccs_v4.0_examples/mmc_sd/CSL_MMCSD_dmaExample/
    1327 0003b3 EC31          AMOV #$C$FSL27, XAR3 ; |507| 
         0003b5 BE00 
         0003b7 0346+
    1328 0003b9 EB00          MOV XAR3, dbl(*SP(#0))
         0003bb B5   
    1329              $C$DW$173       .dwtag  DW_TAG_TI_branch
    1330                      .dwattr $C$DW$173, DW_AT_low_pc(0x00)
    1331                      .dwattr $C$DW$173, DW_AT_name("_printf")
    1332                      .dwattr $C$DW$173, DW_AT_TI_call
TMS320C55x Assembler PC v4.4.1 Sat Sep 29 23:09:00 2018

Tools Copyright (c) 1996-2012 Texas Instruments Incorporated
csl_mmcsd_dma_example.asm                                            PAGE   30

    1333 0003bc 6C00          CALL #_printf ; |507| 
         0003be 0000!
    1334                                                      ; call occurs [#_printf] ; |507| 
    1335                      .dwpsn  file "../c5535_bsl_revc/ezdsp5535_v1/c55xx_csl/ccs_v4.0_examples/mmc_sd/CSL_MMCSD_dmaExample/
    1336 0003c0 A410          MOV *SP(#8), T0 ; |508| 
    1337 0003c2 0602          B $C$L45  ; |508| 
         0003c4 87   
    1338                                                      ; branch occurs ; |508| 
    1339 0003c5       $C$L27:    
    1340                      .dwpsn  file "../c5535_bsl_revc/ezdsp5535_v1/c55xx_csl/ccs_v4.0_examples/mmc_sd/CSL_MMCSD_dmaExample/
    1341 0003c5 ED31          MOV dbl(*(#_mmcsdHandle)), XAR0
         0003c7 8F00 
         0003c9 0040-
    1342 0003cb EC31          AMOV #_cardIdObj, XAR1 ; |512| 
         0003cd 9E00 
         0003cf 0060-
    1343              $C$DW$174       .dwtag  DW_TAG_TI_branch
    1344                      .dwattr $C$DW$174, DW_AT_low_pc(0x00)
    1345                      .dwattr $C$DW$174, DW_AT_name("_SD_sendAllCID")
    1346                      .dwattr $C$DW$174, DW_AT_TI_call
    1347 0003d1 6C00          CALL #_SD_sendAllCID ; |512| 
         0003d3 0000!
    1348                                                      ; call occurs [#_SD_sendAllCID] ; |512| 
    1349 0003d5 C410          MOV T0, *SP(#8) ; |512| 
    1350                      .dwpsn  file "../c5535_bsl_revc/ezdsp5535_v1/c55xx_csl/ccs_v4.0_examples/mmc_sd/CSL_MMCSD_dmaExample/
    1351 0003d7 2249          MOV T0, AR1
    1352 0003d9 0409          BCC $C$L28,AR1 == #0 ; |513| 
         0003db 12   
    1353                                                      ; branchcc occurs ; |513| 
    1354                      .dwpsn  file "../c5535_bsl_revc/ezdsp5535_v1/c55xx_csl/ccs_v4.0_examples/mmc_sd/CSL_MMCSD_dmaExample/
    1355 0003dc EC31          AMOV #$C$FSL28, XAR3 ; |515| 
         0003de BE00 
         0003e0 0362+
    1356 0003e2 EB00          MOV XAR3, dbl(*SP(#0))
         0003e4 B5   
    1357              $C$DW$175       .dwtag  DW_TAG_TI_branch
    1358                      .dwattr $C$DW$175, DW_AT_low_pc(0x00)
    1359                      .dwattr $C$DW$175, DW_AT_name("_printf")
    1360                      .dwattr $C$DW$175, DW_AT_TI_call
    1361 0003e5 6C00          CALL #_printf ; |515| 
         0003e7 0000!
    1362                                                      ; call occurs [#_printf] ; |515| 
    1363                      .dwpsn  file "../c5535_bsl_revc/ezdsp5535_v1/c55xx_csl/ccs_v4.0_examples/mmc_sd/CSL_MMCSD_dmaExample/
    1364 0003e9 A410          MOV *SP(#8), T0 ; |516| 
    1365 0003eb 0602          B $C$L45  ; |516| 
         0003ed 5E   
    1366                                                      ; branch occurs ; |516| 
    1367 0003ee       $C$L28:    
    1368                      .dwpsn  file "../c5535_bsl_revc/ezdsp5535_v1/c55xx_csl/ccs_v4.0_examples/mmc_sd/CSL_MMCSD_dmaExample/
    1369 0003ee EC16          AMAR *SP(#11), XAR2
         0003f0 AE   
    1370 0003f1 ED31          MOV dbl(*(#_mmcsdHandle)), XAR0
         0003f3 8F00 
         0003f5 0040-
    1371 0003f7 EC31          AMOV #_mmcCardObj, XAR1 ; |520| 
TMS320C55x Assembler PC v4.4.1 Sat Sep 29 23:09:00 2018

Tools Copyright (c) 1996-2012 Texas Instruments Incorporated
csl_mmcsd_dma_example.asm                                            PAGE   31

         0003f9 9E00 
         0003fb 0042-
    1372              $C$DW$176       .dwtag  DW_TAG_TI_branch
    1373                      .dwattr $C$DW$176, DW_AT_low_pc(0x00)
    1374                      .dwattr $C$DW$176, DW_AT_name("_SD_sendRca")
    1375                      .dwattr $C$DW$176, DW_AT_TI_call
    1376 0003fd 6C00          CALL #_SD_sendRca ; |520| 
         0003ff 0000!
    1377                                                      ; call occurs [#_SD_sendRca] ; |520| 
    1378 000401 C410          MOV T0, *SP(#8) ; |520| 
    1379                      .dwpsn  file "../c5535_bsl_revc/ezdsp5535_v1/c55xx_csl/ccs_v4.0_examples/mmc_sd/CSL_MMCSD_dmaExample/
    1380 000403 2249          MOV T0, AR1
    1381 000405 0409          BCC $C$L29,AR1 == #0 ; |521| 
         000407 12   
    1382                                                      ; branchcc occurs ; |521| 
    1383                      .dwpsn  file "../c5535_bsl_revc/ezdsp5535_v1/c55xx_csl/ccs_v4.0_examples/mmc_sd/CSL_MMCSD_dmaExample/
    1384 000408 EC31          AMOV #$C$FSL29, XAR3 ; |523| 
         00040a BE00 
         00040c 037E+
    1385 00040e EB00          MOV XAR3, dbl(*SP(#0))
         000410 B5   
    1386              $C$DW$177       .dwtag  DW_TAG_TI_branch
    1387                      .dwattr $C$DW$177, DW_AT_low_pc(0x00)
    1388                      .dwattr $C$DW$177, DW_AT_name("_printf")
    1389                      .dwattr $C$DW$177, DW_AT_TI_call
    1390 000411 6C00          CALL #_printf ; |523| 
         000413 0000!
    1391                                                      ; call occurs [#_printf] ; |523| 
    1392                      .dwpsn  file "../c5535_bsl_revc/ezdsp5535_v1/c55xx_csl/ccs_v4.0_examples/mmc_sd/CSL_MMCSD_dmaExample/
    1393 000415 A410          MOV *SP(#8), T0 ; |524| 
    1394 000417 0602          B $C$L45  ; |524| 
         000419 32   
    1395                                                      ; branch occurs ; |524| 
    1396 00041a       $C$L29:    
    1397                      .dwpsn  file "../c5535_bsl_revc/ezdsp5535_v1/c55xx_csl/ccs_v4.0_examples/mmc_sd/CSL_MMCSD_dmaExample/
    1398 00041a ED31          MOV dbl(*(#_mmcsdHandle)), XAR0
         00041c 8F00 
         00041e 0040-
    1399 000420 EC31          AMOV #_cardCsdObj, XAR1 ; |528| 
         000422 9E00 
         000424 0070-
    1400              $C$DW$178       .dwtag  DW_TAG_TI_branch
    1401                      .dwattr $C$DW$178, DW_AT_low_pc(0x00)
    1402                      .dwattr $C$DW$178, DW_AT_name("_SD_getCardCsd")
    1403                      .dwattr $C$DW$178, DW_AT_TI_call
    1404 000426 6C00          CALL #_SD_getCardCsd ; |528| 
         000428 0000!
    1405                                                      ; call occurs [#_SD_getCardCsd] ; |528| 
    1406 00042a C410          MOV T0, *SP(#8) ; |528| 
    1407                      .dwpsn  file "../c5535_bsl_revc/ezdsp5535_v1/c55xx_csl/ccs_v4.0_examples/mmc_sd/CSL_MMCSD_dmaExample/
    1408 00042c 2249          MOV T0, AR1
    1409 00042e 0409          BCC $C$L30,AR1 == #0 ; |529| 
         000430 12   
    1410                                                      ; branchcc occurs ; |529| 
    1411                      .dwpsn  file "../c5535_bsl_revc/ezdsp5535_v1/c55xx_csl/ccs_v4.0_examples/mmc_sd/CSL_MMCSD_dmaExample/
TMS320C55x Assembler PC v4.4.1 Sat Sep 29 23:09:00 2018

Tools Copyright (c) 1996-2012 Texas Instruments Incorporated
csl_mmcsd_dma_example.asm                                            PAGE   32

    1412 000431 EC31          AMOV #$C$FSL30, XAR3 ; |531| 
         000433 BE00 
         000435 0396+
    1413 000437 EB00          MOV XAR3, dbl(*SP(#0))
         000439 B5   
    1414              $C$DW$179       .dwtag  DW_TAG_TI_branch
    1415                      .dwattr $C$DW$179, DW_AT_low_pc(0x00)
    1416                      .dwattr $C$DW$179, DW_AT_name("_printf")
    1417                      .dwattr $C$DW$179, DW_AT_TI_call
    1418 00043a 6C00          CALL #_printf ; |531| 
         00043c 0000!
    1419                                                      ; call occurs [#_printf] ; |531| 
    1420                      .dwpsn  file "../c5535_bsl_revc/ezdsp5535_v1/c55xx_csl/ccs_v4.0_examples/mmc_sd/CSL_MMCSD_dmaExample/
    1421 00043e A410          MOV *SP(#8), T0 ; |532| 
    1422 000440 0602          B $C$L45  ; |532| 
         000442 09   
    1423                                                      ; branch occurs ; |532| 
    1424 000443       $C$L30:    
    1425                      .dwpsn  file "../c5535_bsl_revc/ezdsp5535_v1/c55xx_csl/ccs_v4.0_examples/mmc_sd/CSL_MMCSD_dmaExample/
    1426 000443 764E          MOV #20000, AC0 ; |536| 
         000445 2008 
    1427              $C$DW$180       .dwtag  DW_TAG_TI_branch
    1428                      .dwattr $C$DW$180, DW_AT_low_pc(0x00)
    1429                      .dwattr $C$DW$180, DW_AT_name("_computeClkRate")
    1430                      .dwattr $C$DW$180, DW_AT_TI_call
    1431 000447 0808          CALL #_computeClkRate ; |536| 
         000449 BE   
    1432                                                      ; call occurs [#_computeClkRate] ; |536| 
    1433 00044a C418          MOV T0, *SP(#12) ; |536| 
    1434                      .dwpsn  file "../c5535_bsl_revc/ezdsp5535_v1/c55xx_csl/ccs_v4.0_examples/mmc_sd/CSL_MMCSD_dmaExample/
    1435 00044c 4A1F          B $C$L32  ; |537| 
    1436                                                      ; branch occurs ; |537| 
    1437 00044e       $C$L31:    
    1438                      .dwpsn  file "../c5535_bsl_revc/ezdsp5535_v1/c55xx_csl/ccs_v4.0_examples/mmc_sd/CSL_MMCSD_dmaExample/
    1439 00044e EC31          AMOV #$C$FSL31, XAR3 ; |540| 
         000450 BE00 
         000452 03B2+
    1440 000454 EB00          MOV XAR3, dbl(*SP(#0))
         000456 B5   
    1441              $C$DW$181       .dwtag  DW_TAG_TI_branch
    1442                      .dwattr $C$DW$181, DW_AT_low_pc(0x00)
    1443                      .dwattr $C$DW$181, DW_AT_name("_printf")
    1444                      .dwattr $C$DW$181, DW_AT_TI_call
    1445 000457 6C00          CALL #_printf ; |540| 
         000459 0000!
    1446                                                      ; call occurs [#_printf] ; |540| 
    1447                      .dwpsn  file "../c5535_bsl_revc/ezdsp5535_v1/c55xx_csl/ccs_v4.0_examples/mmc_sd/CSL_MMCSD_dmaExample/
    1448 00045b EC31          AMOV #$C$FSL32, XAR3 ; |541| 
         00045d BE00 
         00045f 03C6+
    1449 000461 EB00          MOV XAR3, dbl(*SP(#0))
         000463 B5   
    1450              $C$DW$182       .dwtag  DW_TAG_TI_branch
    1451                      .dwattr $C$DW$182, DW_AT_low_pc(0x00)
    1452                      .dwattr $C$DW$182, DW_AT_name("_printf")
TMS320C55x Assembler PC v4.4.1 Sat Sep 29 23:09:00 2018

Tools Copyright (c) 1996-2012 Texas Instruments Incorporated
csl_mmcsd_dma_example.asm                                            PAGE   33

    1453                      .dwattr $C$DW$182, DW_AT_TI_call
    1454 000464 6C00          CALL #_printf ; |541| 
         000466 0000!
    1455                                                      ; call occurs [#_printf] ; |541| 
    1456                      .dwpsn  file "../c5535_bsl_revc/ezdsp5535_v1/c55xx_csl/ccs_v4.0_examples/mmc_sd/CSL_MMCSD_dmaExample/
    1457 000468 3E14          MOV #-1, T0
    1458 00046a 0601          B $C$L45  ; |542| 
         00046c DF   
    1459                                                      ; branch occurs ; |542| 
    1460 00046d       $C$L32:    
    1461                      .dwpsn  file "../c5535_bsl_revc/ezdsp5535_v1/c55xx_csl/ccs_v4.0_examples/mmc_sd/CSL_MMCSD_dmaExample/
    1462 00046d A41A          MOV *SP(#13), T0 ; |546| 
    1463 00046f EC31          AMOV #_mmcCardObj, XAR0 ; |546| 
         000471 8E00 
         000473 0042-
    1464              $C$DW$183       .dwtag  DW_TAG_TI_branch
    1465                      .dwattr $C$DW$183, DW_AT_low_pc(0x00)
    1466                      .dwattr $C$DW$183, DW_AT_name("_MMC_setCardType")
    1467                      .dwattr $C$DW$183, DW_AT_TI_call
    1468 000475 6C00          CALL #_MMC_setCardType ; |546| 
         000477 0000!
    1469                                                      ; call occurs [#_MMC_setCardType] ; |546| 
    1470 000479 C410          MOV T0, *SP(#8) ; |546| 
    1471                      .dwpsn  file "../c5535_bsl_revc/ezdsp5535_v1/c55xx_csl/ccs_v4.0_examples/mmc_sd/CSL_MMCSD_dmaExample/
    1472 00047b 2249          MOV T0, AR1
    1473 00047d 0409          BCC $C$L33,AR1 == #0 ; |547| 
         00047f 12   
    1474                                                      ; branchcc occurs ; |547| 
    1475                      .dwpsn  file "../c5535_bsl_revc/ezdsp5535_v1/c55xx_csl/ccs_v4.0_examples/mmc_sd/CSL_MMCSD_dmaExample/
    1476 000480 EC31          AMOV #$C$FSL33, XAR3 ; |549| 
         000482 BE00 
         000484 03DC+
    1477 000486 EB00          MOV XAR3, dbl(*SP(#0))
         000488 B5   
    1478              $C$DW$184       .dwtag  DW_TAG_TI_branch
    1479                      .dwattr $C$DW$184, DW_AT_low_pc(0x00)
    1480                      .dwattr $C$DW$184, DW_AT_name("_printf")
    1481                      .dwattr $C$DW$184, DW_AT_TI_call
    1482 000489 6C00          CALL #_printf ; |549| 
         00048b 0000!
    1483                                                      ; call occurs [#_printf] ; |549| 
    1484                      .dwpsn  file "../c5535_bsl_revc/ezdsp5535_v1/c55xx_csl/ccs_v4.0_examples/mmc_sd/CSL_MMCSD_dmaExample/
    1485 00048d A410          MOV *SP(#8), T0 ; |550| 
    1486 00048f 0601          B $C$L45  ; |550| 
         000491 BA   
    1487                                                      ; branch occurs ; |550| 
    1488 000492       $C$L33:    
    1489                      .dwpsn  file "../c5535_bsl_revc/ezdsp5535_v1/c55xx_csl/ccs_v4.0_examples/mmc_sd/CSL_MMCSD_dmaExample/
    1490 000492 ED31          MOV dbl(*(#_mmcsdHandle)), XAR0
         000494 8F00 
         000496 0040-
    1491 000498 EC31          AMOV #_mmcCardObj, XAR1 ; |554| 
         00049a 9E00 
         00049c 0042-
    1492              $C$DW$185       .dwtag  DW_TAG_TI_branch
TMS320C55x Assembler PC v4.4.1 Sat Sep 29 23:09:00 2018

Tools Copyright (c) 1996-2012 Texas Instruments Incorporated
csl_mmcsd_dma_example.asm                                            PAGE   34

    1493                      .dwattr $C$DW$185, DW_AT_low_pc(0x00)
    1494                      .dwattr $C$DW$185, DW_AT_name("_MMC_setCardPtr")
    1495                      .dwattr $C$DW$185, DW_AT_TI_call
    1496 00049e 6C00          CALL #_MMC_setCardPtr ; |554| 
         0004a0 0000!
    1497                                                      ; call occurs [#_MMC_setCardPtr] ; |554| 
    1498 0004a2 C410          MOV T0, *SP(#8) ; |554| 
    1499                      .dwpsn  file "../c5535_bsl_revc/ezdsp5535_v1/c55xx_csl/ccs_v4.0_examples/mmc_sd/CSL_MMCSD_dmaExample/
    1500 0004a4 2249          MOV T0, AR1
    1501 0004a6 0409          BCC $C$L34,AR1 == #0 ; |555| 
         0004a8 12   
    1502                                                      ; branchcc occurs ; |555| 
    1503                      .dwpsn  file "../c5535_bsl_revc/ezdsp5535_v1/c55xx_csl/ccs_v4.0_examples/mmc_sd/CSL_MMCSD_dmaExample/
    1504 0004a9 EC31          AMOV #$C$FSL34, XAR3 ; |557| 
         0004ab BE00 
         0004ad 03FA+
    1505 0004af EB00          MOV XAR3, dbl(*SP(#0))
         0004b1 B5   
    1506              $C$DW$186       .dwtag  DW_TAG_TI_branch
    1507                      .dwattr $C$DW$186, DW_AT_low_pc(0x00)
    1508                      .dwattr $C$DW$186, DW_AT_name("_printf")
    1509                      .dwattr $C$DW$186, DW_AT_TI_call
    1510 0004b2 6C00          CALL #_printf ; |557| 
         0004b4 0000!
    1511                                                      ; call occurs [#_printf] ; |557| 
    1512                      .dwpsn  file "../c5535_bsl_revc/ezdsp5535_v1/c55xx_csl/ccs_v4.0_examples/mmc_sd/CSL_MMCSD_dmaExample/
    1513 0004b6 A410          MOV *SP(#8), T0 ; |558| 
    1514 0004b8 0601          B $C$L45  ; |558| 
         0004ba 91   
    1515                                                      ; branch occurs ; |558| 
    1516 0004bb       $C$L34:    
    1517                      .dwpsn  file "../c5535_bsl_revc/ezdsp5535_v1/c55xx_csl/ccs_v4.0_examples/mmc_sd/CSL_MMCSD_dmaExample/
    1518 0004bb EC14          AMAR *SP(#10), XAR1
         0004bd 9E   
    1519 0004be ED31          MOV dbl(*(#_mmcsdHandle)), XAR0
         0004c0 8F00 
         0004c2 0040-
    1520              $C$DW$187       .dwtag  DW_TAG_TI_branch
    1521                      .dwattr $C$DW$187, DW_AT_low_pc(0x00)
    1522                      .dwattr $C$DW$187, DW_AT_name("_MMC_getNumberOfCards")
    1523                      .dwattr $C$DW$187, DW_AT_TI_call
    1524 0004c4 6C00          CALL #_MMC_getNumberOfCards ; |562| 
         0004c6 0000!
    1525                                                      ; call occurs [#_MMC_getNumberOfCards] ; |562| 
    1526 0004c8 C410          MOV T0, *SP(#8) ; |562| 
    1527                      .dwpsn  file "../c5535_bsl_revc/ezdsp5535_v1/c55xx_csl/ccs_v4.0_examples/mmc_sd/CSL_MMCSD_dmaExample/
    1528 0004ca 2249          MOV T0, AR1
    1529 0004cc 0409          BCC $C$L35,AR1 == #0 ; |563| 
         0004ce 12   
    1530                                                      ; branchcc occurs ; |563| 
    1531                      .dwpsn  file "../c5535_bsl_revc/ezdsp5535_v1/c55xx_csl/ccs_v4.0_examples/mmc_sd/CSL_MMCSD_dmaExample/
    1532 0004cf EC31          AMOV #$C$FSL35, XAR3 ; |565| 
         0004d1 BE00 
         0004d3 0416+
    1533 0004d5 EB00          MOV XAR3, dbl(*SP(#0))
TMS320C55x Assembler PC v4.4.1 Sat Sep 29 23:09:00 2018

Tools Copyright (c) 1996-2012 Texas Instruments Incorporated
csl_mmcsd_dma_example.asm                                            PAGE   35

         0004d7 B5   
    1534              $C$DW$188       .dwtag  DW_TAG_TI_branch
    1535                      .dwattr $C$DW$188, DW_AT_low_pc(0x00)
    1536                      .dwattr $C$DW$188, DW_AT_name("_printf")
    1537                      .dwattr $C$DW$188, DW_AT_TI_call
    1538 0004d8 6C00          CALL #_printf ; |565| 
         0004da 0000!
    1539                                                      ; call occurs [#_printf] ; |565| 
    1540                      .dwpsn  file "../c5535_bsl_revc/ezdsp5535_v1/c55xx_csl/ccs_v4.0_examples/mmc_sd/CSL_MMCSD_dmaExample/
    1541 0004dc A410          MOV *SP(#8), T0 ; |566| 
    1542 0004de 0601          B $C$L45  ; |566| 
         0004e0 6B   
    1543                                                      ; branch occurs ; |566| 
    1544 0004e1       $C$L35:    
    1545                      .dwpsn  file "../c5535_bsl_revc/ezdsp5535_v1/c55xx_csl/ccs_v4.0_examples/mmc_sd/CSL_MMCSD_dmaExample/
    1546 0004e1 A418          MOV *SP(#12), T0 ; |570| 
    1547 0004e3 ED31          MOV dbl(*(#_mmcsdHandle)), XAR0
         0004e5 8F00 
         0004e7 0040-
    1548              $C$DW$189       .dwtag  DW_TAG_TI_branch
    1549                      .dwattr $C$DW$189, DW_AT_low_pc(0x00)
    1550                      .dwattr $C$DW$189, DW_AT_name("_MMC_sendOpCond")
    1551                      .dwattr $C$DW$189, DW_AT_TI_call
    1552 0004e9 6C00          CALL #_MMC_sendOpCond ; |570| 
         0004eb 0000!
    1553                                                      ; call occurs [#_MMC_sendOpCond] ; |570| 
    1554 0004ed C410          MOV T0, *SP(#8) ; |570| 
    1555                      .dwpsn  file "../c5535_bsl_revc/ezdsp5535_v1/c55xx_csl/ccs_v4.0_examples/mmc_sd/CSL_MMCSD_dmaExample/
    1556 0004ef 2249          MOV T0, AR1
    1557 0004f1 0409          BCC $C$L36,AR1 == #0 ; |571| 
         0004f3 12   
    1558                                                      ; branchcc occurs ; |571| 
    1559                      .dwpsn  file "../c5535_bsl_revc/ezdsp5535_v1/c55xx_csl/ccs_v4.0_examples/mmc_sd/CSL_MMCSD_dmaExample/
    1560 0004f4 EC31          AMOV #$C$FSL27, XAR3 ; |573| 
         0004f6 BE00 
         0004f8 0346+
    1561 0004fa EB00          MOV XAR3, dbl(*SP(#0))
         0004fc B5   
    1562              $C$DW$190       .dwtag  DW_TAG_TI_branch
    1563                      .dwattr $C$DW$190, DW_AT_low_pc(0x00)
    1564                      .dwattr $C$DW$190, DW_AT_name("_printf")
    1565                      .dwattr $C$DW$190, DW_AT_TI_call
    1566 0004fd 6C00          CALL #_printf ; |573| 
         0004ff 0000!
    1567                                                      ; call occurs [#_printf] ; |573| 
    1568                      .dwpsn  file "../c5535_bsl_revc/ezdsp5535_v1/c55xx_csl/ccs_v4.0_examples/mmc_sd/CSL_MMCSD_dmaExample/
    1569 000501 A410          MOV *SP(#8), T0 ; |574| 
    1570 000503 0601          B $C$L45  ; |574| 
         000505 46   
    1571                                                      ; branch occurs ; |574| 
    1572 000506       $C$L36:    
    1573                      .dwpsn  file "../c5535_bsl_revc/ezdsp5535_v1/c55xx_csl/ccs_v4.0_examples/mmc_sd/CSL_MMCSD_dmaExample/
    1574 000506 ED31          MOV dbl(*(#_mmcsdHandle)), XAR0
         000508 8F00 
         00050a 0040-
TMS320C55x Assembler PC v4.4.1 Sat Sep 29 23:09:00 2018

Tools Copyright (c) 1996-2012 Texas Instruments Incorporated
csl_mmcsd_dma_example.asm                                            PAGE   36

    1575 00050c 3C04          MOV #0, T0
    1576              $C$DW$191       .dwtag  DW_TAG_TI_branch
    1577                      .dwattr $C$DW$191, DW_AT_low_pc(0x00)
    1578                      .dwattr $C$DW$191, DW_AT_name("_MMC_setEndianMode")
    1579                      .dwattr $C$DW$191, DW_AT_TI_call
    1580              
    1581 00050e 6C00          CALL #_MMC_setEndianMode ; |578| 
         000510 0000!
    1582 000512 3D05  ||      MOV #0, T1
    1583              
    1584                                                      ; call occurs [#_MMC_setEndianMode] ; |578| 
    1585 000514 C410          MOV T0, *SP(#8) ; |578| 
    1586                      .dwpsn  file "../c5535_bsl_revc/ezdsp5535_v1/c55xx_csl/ccs_v4.0_examples/mmc_sd/CSL_MMCSD_dmaExample/
    1587 000516 2249          MOV T0, AR1
    1588 000518 0409          BCC $C$L37,AR1 == #0 ; |580| 
         00051a 12   
    1589                                                      ; branchcc occurs ; |580| 
    1590                      .dwpsn  file "../c5535_bsl_revc/ezdsp5535_v1/c55xx_csl/ccs_v4.0_examples/mmc_sd/CSL_MMCSD_dmaExample/
    1591 00051b EC31          AMOV #$C$FSL36, XAR3 ; |582| 
         00051d BE00 
         00051f 0438+
    1592 000521 EB00          MOV XAR3, dbl(*SP(#0))
         000523 B5   
    1593              $C$DW$192       .dwtag  DW_TAG_TI_branch
    1594                      .dwattr $C$DW$192, DW_AT_low_pc(0x00)
    1595                      .dwattr $C$DW$192, DW_AT_name("_printf")
    1596                      .dwattr $C$DW$192, DW_AT_TI_call
    1597 000524 6C00          CALL #_printf ; |582| 
         000526 0000!
    1598                                                      ; call occurs [#_printf] ; |582| 
    1599                      .dwpsn  file "../c5535_bsl_revc/ezdsp5535_v1/c55xx_csl/ccs_v4.0_examples/mmc_sd/CSL_MMCSD_dmaExample/
    1600 000528 A410          MOV *SP(#8), T0 ; |583| 
    1601 00052a 0601          B $C$L45  ; |583| 
         00052c 1F   
    1602                                                      ; branch occurs ; |583| 
    1603 00052d       $C$L37:    
    1604                      .dwpsn  file "../c5535_bsl_revc/ezdsp5535_v1/c55xx_csl/ccs_v4.0_examples/mmc_sd/CSL_MMCSD_dmaExample/
    1605 00052d ED31          MOV dbl(*(#_mmcsdHandle)), XAR0
         00052f 8F00 
         000531 0040-
    1606 000533 7602          MOV #512, AC0 ; |590| 
         000535 0008 
    1607              $C$DW$193       .dwtag  DW_TAG_TI_branch
    1608                      .dwattr $C$DW$193, DW_AT_low_pc(0x00)
    1609                      .dwattr $C$DW$193, DW_AT_name("_MMC_setBlockLength")
    1610                      .dwattr $C$DW$193, DW_AT_TI_call
    1611 000537 6C00          CALL #_MMC_setBlockLength ; |590| 
         000539 0000!
    1612                                                      ; call occurs [#_MMC_setBlockLength] ; |590| 
    1613 00053b C410          MOV T0, *SP(#8) ; |590| 
    1614                      .dwpsn  file "../c5535_bsl_revc/ezdsp5535_v1/c55xx_csl/ccs_v4.0_examples/mmc_sd/CSL_MMCSD_dmaExample/
    1615 00053d 2249          MOV T0, AR1
    1616 00053f 0409          BCC $C$L38,AR1 == #0 ; |591| 
         000541 12   
    1617                                                      ; branchcc occurs ; |591| 
TMS320C55x Assembler PC v4.4.1 Sat Sep 29 23:09:00 2018

Tools Copyright (c) 1996-2012 Texas Instruments Incorporated
csl_mmcsd_dma_example.asm                                            PAGE   37

    1618                      .dwpsn  file "../c5535_bsl_revc/ezdsp5535_v1/c55xx_csl/ccs_v4.0_examples/mmc_sd/CSL_MMCSD_dmaExample/
    1619 000542 EC31          AMOV #$C$FSL37, XAR3 ; |593| 
         000544 BE00 
         000546 0458+
    1620 000548 EB00          MOV XAR3, dbl(*SP(#0))
         00054a B5   
    1621              $C$DW$194       .dwtag  DW_TAG_TI_branch
    1622                      .dwattr $C$DW$194, DW_AT_low_pc(0x00)
    1623                      .dwattr $C$DW$194, DW_AT_name("_printf")
    1624                      .dwattr $C$DW$194, DW_AT_TI_call
    1625 00054b 6C00          CALL #_printf ; |593| 
         00054d 0000!
    1626                                                      ; call occurs [#_printf] ; |593| 
    1627                      .dwpsn  file "../c5535_bsl_revc/ezdsp5535_v1/c55xx_csl/ccs_v4.0_examples/mmc_sd/CSL_MMCSD_dmaExample/
    1628 00054f A410          MOV *SP(#8), T0 ; |594| 
    1629 000551 0600          B $C$L45  ; |594| 
         000553 F8   
    1630                                                      ; branch occurs ; |594| 
    1631 000554       $C$L38:    
    1632                      .dwpsn  file "../c5535_bsl_revc/ezdsp5535_v1/c55xx_csl/ccs_v4.0_examples/mmc_sd/CSL_MMCSD_dmaExample/
    1633 000554 ED0C          MOV dbl(*SP(#6)), AC0 ; |598| 
         000556 08   
    1634 000557 ED31          MOV dbl(*(#_mmcsdHandle)), XAR0
         000559 8F00 
         00055b 0040-
    1635 00055d EC31          AMOV #_gWriteTempBuff, XAR1 ; |598| 
         00055f 9E00 
         000561 04B0-
    1636 000563 7602          MOV #512, T0 ; |598| 
         000565 0048 
    1637              $C$DW$195       .dwtag  DW_TAG_TI_branch
    1638                      .dwattr $C$DW$195, DW_AT_low_pc(0x00)
    1639                      .dwattr $C$DW$195, DW_AT_name("_MMC_write")
    1640                      .dwattr $C$DW$195, DW_AT_TI_call
    1641 000567 6C00          CALL #_MMC_write ; |598| 
         000569 0000!
    1642                                                      ; call occurs [#_MMC_write] ; |598| 
    1643 00056b C410          MOV T0, *SP(#8) ; |598| 
    1644                      .dwpsn  file "../c5535_bsl_revc/ezdsp5535_v1/c55xx_csl/ccs_v4.0_examples/mmc_sd/CSL_MMCSD_dmaExample/
    1645 00056d 2249          MOV T0, AR1
    1646 00056f 0409          BCC $C$L39,AR1 == #0 ; |600| 
         000571 12   
    1647                                                      ; branchcc occurs ; |600| 
    1648                      .dwpsn  file "../c5535_bsl_revc/ezdsp5535_v1/c55xx_csl/ccs_v4.0_examples/mmc_sd/CSL_MMCSD_dmaExample/
    1649 000572 EC31          AMOV #$C$FSL38, XAR3 ; |602| 
         000574 BE00 
         000576 0478+
    1650 000578 EB00          MOV XAR3, dbl(*SP(#0))
         00057a B5   
    1651              $C$DW$196       .dwtag  DW_TAG_TI_branch
    1652                      .dwattr $C$DW$196, DW_AT_low_pc(0x00)
    1653                      .dwattr $C$DW$196, DW_AT_name("_printf")
    1654                      .dwattr $C$DW$196, DW_AT_TI_call
    1655 00057b 6C00          CALL #_printf ; |602| 
         00057d 0000!
TMS320C55x Assembler PC v4.4.1 Sat Sep 29 23:09:00 2018

Tools Copyright (c) 1996-2012 Texas Instruments Incorporated
csl_mmcsd_dma_example.asm                                            PAGE   38

    1656                                                      ; call occurs [#_printf] ; |602| 
    1657                      .dwpsn  file "../c5535_bsl_revc/ezdsp5535_v1/c55xx_csl/ccs_v4.0_examples/mmc_sd/CSL_MMCSD_dmaExample/
    1658 00057f A410          MOV *SP(#8), T0 ; |603| 
    1659 000581 0600          B $C$L45  ; |603| 
         000583 C8   
    1660                                                      ; branch occurs ; |603| 
    1661 000584       $C$L39:    
    1662                      .dwpsn  file "../c5535_bsl_revc/ezdsp5535_v1/c55xx_csl/ccs_v4.0_examples/mmc_sd/CSL_MMCSD_dmaExample/
    1663 000584 EC31          AMOV #$C$FSL39, XAR3 ; |607| 
         000586 BE00 
         000588 0490+
    1664 00058a EB00          MOV XAR3, dbl(*SP(#0))
         00058c B5   
    1665              $C$DW$197       .dwtag  DW_TAG_TI_branch
    1666                      .dwattr $C$DW$197, DW_AT_low_pc(0x00)
    1667                      .dwattr $C$DW$197, DW_AT_name("_printf")
    1668                      .dwattr $C$DW$197, DW_AT_TI_call
    1669 00058d 6C00          CALL #_printf ; |607| 
         00058f 0000!
    1670                                                      ; call occurs [#_printf] ; |607| 
    1671                      .dwpsn  file "../c5535_bsl_revc/ezdsp5535_v1/c55xx_csl/ccs_v4.0_examples/mmc_sd/CSL_MMCSD_dmaExample/
    1672 000591 7602          MOV #512, T0 ; |611| 
         000593 0048 
    1673 000595 EC31          AMOV #_gReadBuff, XAR1 ; |611| 
         000597 9E00 
         000599 00B0-
    1674 00059b ED31          MOV dbl(*(#_mmcsdHandle)), XAR0
         00059d 8F00 
         00059f 0040-
    1675 0005a1 ED0C          MOV dbl(*SP(#6)), AC0 ; |611| 
         0005a3 08   
    1676              $C$DW$198       .dwtag  DW_TAG_TI_branch
    1677                      .dwattr $C$DW$198, DW_AT_low_pc(0x00)
    1678                      .dwattr $C$DW$198, DW_AT_name("_MMC_read")
    1679                      .dwattr $C$DW$198, DW_AT_TI_call
    1680 0005a4 6C00          CALL #_MMC_read ; |611| 
         0005a6 0000!
    1681                                                      ; call occurs [#_MMC_read] ; |611| 
    1682 0005a8 C410          MOV T0, *SP(#8) ; |611| 
    1683                      .dwpsn  file "../c5535_bsl_revc/ezdsp5535_v1/c55xx_csl/ccs_v4.0_examples/mmc_sd/CSL_MMCSD_dmaExample/
    1684 0005aa 2249          MOV T0, AR1
    1685 0005ac 0409          BCC $C$L40,AR1 == #0 ; |612| 
         0005ae 12   
    1686                                                      ; branchcc occurs ; |612| 
    1687                      .dwpsn  file "../c5535_bsl_revc/ezdsp5535_v1/c55xx_csl/ccs_v4.0_examples/mmc_sd/CSL_MMCSD_dmaExample/
    1688 0005af EC31          AMOV #$C$FSL40, XAR3 ; |614| 
         0005b1 BE00 
         0005b3 04AC+
    1689 0005b5 EB00          MOV XAR3, dbl(*SP(#0))
         0005b7 B5   
    1690              $C$DW$199       .dwtag  DW_TAG_TI_branch
    1691                      .dwattr $C$DW$199, DW_AT_low_pc(0x00)
    1692                      .dwattr $C$DW$199, DW_AT_name("_printf")
    1693                      .dwattr $C$DW$199, DW_AT_TI_call
    1694 0005b8 6C00          CALL #_printf ; |614| 
TMS320C55x Assembler PC v4.4.1 Sat Sep 29 23:09:00 2018

Tools Copyright (c) 1996-2012 Texas Instruments Incorporated
csl_mmcsd_dma_example.asm                                            PAGE   39

         0005ba 0000!
    1695                                                      ; call occurs [#_printf] ; |614| 
    1696                      .dwpsn  file "../c5535_bsl_revc/ezdsp5535_v1/c55xx_csl/ccs_v4.0_examples/mmc_sd/CSL_MMCSD_dmaExample/
    1697 0005bc A410          MOV *SP(#8), T0 ; |615| 
    1698 0005be 0600          B $C$L45  ; |615| 
         0005c0 8B   
    1699                                                      ; branch occurs ; |615| 
    1700 0005c1       $C$L40:    
    1701                      .dwpsn  file "../c5535_bsl_revc/ezdsp5535_v1/c55xx_csl/ccs_v4.0_examples/mmc_sd/CSL_MMCSD_dmaExample/
    1702 0005c1 EC31          AMOV #$C$FSL41, XAR3 ; |619| 
         0005c3 BE00 
         0005c5 04C2+
    1703 0005c7 EB00          MOV XAR3, dbl(*SP(#0))
         0005c9 B5   
    1704              $C$DW$200       .dwtag  DW_TAG_TI_branch
    1705                      .dwattr $C$DW$200, DW_AT_low_pc(0x00)
    1706                      .dwattr $C$DW$200, DW_AT_name("_printf")
    1707                      .dwattr $C$DW$200, DW_AT_TI_call
    1708 0005ca 6C00          CALL #_printf ; |619| 
         0005cc 0000!
    1709                                                      ; call occurs [#_printf] ; |619| 
    1710                      .dwpsn  file "../c5535_bsl_revc/ezdsp5535_v1/c55xx_csl/ccs_v4.0_examples/mmc_sd/CSL_MMCSD_dmaExample/
    1711 0005ce ED31          MOV dbl(*(#_mmcsdHandle)), XAR0
         0005d0 8F00 
         0005d2 0040-
    1712              $C$DW$201       .dwtag  DW_TAG_TI_branch
    1713                      .dwattr $C$DW$201, DW_AT_low_pc(0x00)
    1714                      .dwattr $C$DW$201, DW_AT_name("_MMC_close")
    1715                      .dwattr $C$DW$201, DW_AT_TI_call
    1716 0005d4 6C00          CALL #_MMC_close ; |623| 
         0005d6 0000!
    1717                                                      ; call occurs [#_MMC_close] ; |623| 
    1718 0005d8 C410          MOV T0, *SP(#8) ; |623| 
    1719                      .dwpsn  file "../c5535_bsl_revc/ezdsp5535_v1/c55xx_csl/ccs_v4.0_examples/mmc_sd/CSL_MMCSD_dmaExample/
    1720 0005da 2249          MOV T0, AR1
    1721 0005dc 0409          BCC $C$L41,AR1 == #0 ; |624| 
         0005de 12   
    1722                                                      ; branchcc occurs ; |624| 
    1723                      .dwpsn  file "../c5535_bsl_revc/ezdsp5535_v1/c55xx_csl/ccs_v4.0_examples/mmc_sd/CSL_MMCSD_dmaExample/
    1724 0005df EC31          AMOV #$C$FSL42, XAR3 ; |626| 
         0005e1 BE00 
         0005e3 04DE+
    1725 0005e5 EB00          MOV XAR3, dbl(*SP(#0))
         0005e7 B5   
    1726              $C$DW$202       .dwtag  DW_TAG_TI_branch
    1727                      .dwattr $C$DW$202, DW_AT_low_pc(0x00)
    1728                      .dwattr $C$DW$202, DW_AT_name("_printf")
    1729                      .dwattr $C$DW$202, DW_AT_TI_call
    1730 0005e8 6C00          CALL #_printf ; |626| 
         0005ea 0000!
    1731                                                      ; call occurs [#_printf] ; |626| 
    1732                      .dwpsn  file "../c5535_bsl_revc/ezdsp5535_v1/c55xx_csl/ccs_v4.0_examples/mmc_sd/CSL_MMCSD_dmaExample/
    1733 0005ec A410          MOV *SP(#8), T0 ; |627| 
    1734 0005ee 0600          B $C$L45  ; |627| 
         0005f0 5B   
TMS320C55x Assembler PC v4.4.1 Sat Sep 29 23:09:00 2018

Tools Copyright (c) 1996-2012 Texas Instruments Incorporated
csl_mmcsd_dma_example.asm                                            PAGE   40

    1735                                                      ; branch occurs ; |627| 
    1736 0005f1       $C$L41:    
    1737                      .dwpsn  file "../c5535_bsl_revc/ezdsp5535_v1/c55xx_csl/ccs_v4.0_examples/mmc_sd/CSL_MMCSD_dmaExample/
    1738 0005f1 E612          MOV #0, *SP(#9) ; |631| 
         0005f3 00   
    1739                      .dwpsn  file "../c5535_bsl_revc/ezdsp5535_v1/c55xx_csl/ccs_v4.0_examples/mmc_sd/CSL_MMCSD_dmaExample/
    1740 0005f4 7601          MOV #256, AR2 ; |631| 
         0005f6 00A8 
    1741 0005f8 A912          MOV *SP(#9), AR1 ; |631| 
    1742 0005fa 1298          CMPU AR1 >= AR2, TC1 ; |631| 
         0005fc A4   
    1743 0005fd 0464          BCC $C$L44,TC1 ; |631| 
         0005ff 3D   
    1744                                                      ; branchcc occurs ; |631| 
    1745 000600       $C$L42:    
    1746 000600       $C$DW$L$_mmcsdDmaTest$67$B:
    1747                      .dwpsn  file "../c5535_bsl_revc/ezdsp5535_v1/c55xx_csl/ccs_v4.0_examples/mmc_sd/CSL_MMCSD_dmaExample/
    1748 000600 A412          MOV *SP(#9), T0 ; |633| 
    1749 000602 EC31          AMOV #_gWriteBuff, XAR3 ; |633| 
         000604 BE00 
         000606 02B0-
    1750 000608 A96B          MOV *AR3(T0), AR1 ; |633| 
    1751 00060a EC31          AMOV #_gReadBuff, XAR3 ; |633| 
         00060c BE00 
         00060e 00B0-
    1752 000610 AA6B          MOV *AR3(T0), AR2 ; |633| 
    1753 000612 12A0          CMPU AR2 == AR1, TC1 ; |633| 
         000614 94   
    1754 000615 0464          BCC $C$L43,TC1 ; |633| 
         000617 15   
    1755                                                      ; branchcc occurs ; |633| 
    1756 000618       $C$DW$L$_mmcsdDmaTest$67$E:
    1757                      .dwpsn  file "../c5535_bsl_revc/ezdsp5535_v1/c55xx_csl/ccs_v4.0_examples/mmc_sd/CSL_MMCSD_dmaExample/
    1758 000618 EC31          AMOV #$C$FSL43, XAR3 ; |635| 
         00061a BE00 
         00061c 04F6+
    1759 00061e EB00          MOV XAR3, dbl(*SP(#0))
         000620 B5   
    1760 000621 A912          MOV *SP(#9), AR1 ; |635| 
    1761 000623 C904          MOV AR1, *SP(#2) ; |635| 
    1762              $C$DW$203       .dwtag  DW_TAG_TI_branch
    1763                      .dwattr $C$DW$203, DW_AT_low_pc(0x00)
    1764                      .dwattr $C$DW$203, DW_AT_name("_printf")
    1765                      .dwattr $C$DW$203, DW_AT_TI_call
    1766 000625 6C00          CALL #_printf ; |635| 
         000627 0000!
    1767                                                      ; call occurs [#_printf] ; |635| 
    1768                      .dwpsn  file "../c5535_bsl_revc/ezdsp5535_v1/c55xx_csl/ccs_v4.0_examples/mmc_sd/CSL_MMCSD_dmaExample/
    1769 000629 3E14          MOV #-1, T0
    1770 00062b 4A1F          B $C$L45  ; |636| 
    1771                                                      ; branch occurs ; |636| 
    1772 00062d       $C$L43:    
    1773 00062d       $C$DW$L$_mmcsdDmaTest$69$B:
    1774                      .dwpsn  file "../c5535_bsl_revc/ezdsp5535_v1/c55xx_csl/ccs_v4.0_examples/mmc_sd/CSL_MMCSD_dmaExample/
    1775 00062d F712          ADD #1, *SP(#9) ; |631| 
TMS320C55x Assembler PC v4.4.1 Sat Sep 29 23:09:00 2018

Tools Copyright (c) 1996-2012 Texas Instruments Incorporated
csl_mmcsd_dma_example.asm                                            PAGE   41

         00062f 0001 
    1776                      .dwpsn  file "../c5535_bsl_revc/ezdsp5535_v1/c55xx_csl/ccs_v4.0_examples/mmc_sd/CSL_MMCSD_dmaExample/
    1777 000631 7601          MOV #256, AR2 ; |631| 
         000633 00A8 
    1778 000635 A912          MOV *SP(#9), AR1 ; |631| 
    1779 000637 1294          CMPU AR1 < AR2, TC1 ; |631| 
         000639 A4   
    1780 00063a 0464          BCC $C$L42,TC1 ; |631| 
         00063c C3   
    1781                                                      ; branchcc occurs ; |631| 
    1782 00063d       $C$DW$L$_mmcsdDmaTest$69$E:
    1783 00063d       $C$L44:    
    1784                      .dwpsn  file "../c5535_bsl_revc/ezdsp5535_v1/c55xx_csl/ccs_v4.0_examples/mmc_sd/CSL_MMCSD_dmaExample/
    1785 00063d EC31          AMOV #$C$FSL44, XAR3 ; |640| 
         00063f BE00 
         000641 051A+
    1786 000643 EB00          MOV XAR3, dbl(*SP(#0))
         000645 B5   
    1787              $C$DW$204       .dwtag  DW_TAG_TI_branch
    1788                      .dwattr $C$DW$204, DW_AT_low_pc(0x00)
    1789                      .dwattr $C$DW$204, DW_AT_name("_printf")
    1790                      .dwattr $C$DW$204, DW_AT_TI_call
    1791 000646 6C00          CALL #_printf ; |640| 
         000648 0000!
    1792                                                      ; call occurs [#_printf] ; |640| 
    1793                      .dwpsn  file "../c5535_bsl_revc/ezdsp5535_v1/c55xx_csl/ccs_v4.0_examples/mmc_sd/CSL_MMCSD_dmaExample/
    1794 00064a 3C04          MOV #0, T0
    1795 00064c       $C$L45:    
    1796                      .dwpsn  file "../c5535_bsl_revc/ezdsp5535_v1/c55xx_csl/ccs_v4.0_examples/mmc_sd/CSL_MMCSD_dmaExample/
    1797 00064c 4E0F          AADD #15, SP
    1798                      .dwcfi  cfa_offset, 1
    1799              $C$DW$205       .dwtag  DW_TAG_TI_branch
    1800                      .dwattr $C$DW$205, DW_AT_low_pc(0x00)
    1801                      .dwattr $C$DW$205, DW_AT_TI_return
    1802 00064e 4804          RET
    1803                                                      ; return occurs
    1804              
    1805              $C$DW$206       .dwtag  DW_TAG_TI_loop
    1806                      .dwattr $C$DW$206, DW_AT_name("F:\eZdsp_DBG\tmp1\c55x-sim2\foo\Debug\csl_mmcsd_dma_example.asm:$C$L42
    1807                      .dwattr $C$DW$206, DW_AT_TI_begin_file("../c5535_bsl_revc/ezdsp5535_v1/c55xx_csl/ccs_v4.0_examples/mm
    1808                      .dwattr $C$DW$206, DW_AT_TI_begin_line(0x277)
    1809                      .dwattr $C$DW$206, DW_AT_TI_end_line(0x27e)
    1810              $C$DW$207       .dwtag  DW_TAG_TI_loop_range
    1811                      .dwattr $C$DW$207, DW_AT_low_pc($C$DW$L$_mmcsdDmaTest$67$B)
    1812                      .dwattr $C$DW$207, DW_AT_high_pc($C$DW$L$_mmcsdDmaTest$67$E)
    1813              $C$DW$208       .dwtag  DW_TAG_TI_loop_range
    1814                      .dwattr $C$DW$208, DW_AT_low_pc($C$DW$L$_mmcsdDmaTest$69$B)
    1815                      .dwattr $C$DW$208, DW_AT_high_pc($C$DW$L$_mmcsdDmaTest$69$E)
    1816                      .dwendtag $C$DW$206
    1817              
    1818              
    1819              $C$DW$209       .dwtag  DW_TAG_TI_loop
    1820                      .dwattr $C$DW$209, DW_AT_name("F:\eZdsp_DBG\tmp1\c55x-sim2\foo\Debug\csl_mmcsd_dma_example.asm:$C$L7:
    1821                      .dwattr $C$DW$209, DW_AT_TI_begin_file("../c5535_bsl_revc/ezdsp5535_v1/c55xx_csl/ccs_v4.0_examples/mm
    1822                      .dwattr $C$DW$209, DW_AT_TI_begin_line(0x16c)
TMS320C55x Assembler PC v4.4.1 Sat Sep 29 23:09:00 2018

Tools Copyright (c) 1996-2012 Texas Instruments Incorporated
csl_mmcsd_dma_example.asm                                            PAGE   42

    1823                      .dwattr $C$DW$209, DW_AT_TI_end_line(0x171)
    1824              $C$DW$210       .dwtag  DW_TAG_TI_loop_range
    1825                      .dwattr $C$DW$210, DW_AT_low_pc($C$DW$L$_mmcsdDmaTest$2$B)
    1826                      .dwattr $C$DW$210, DW_AT_high_pc($C$DW$L$_mmcsdDmaTest$2$E)
    1827                      .dwendtag $C$DW$209
    1828              
    1829                      .dwattr $C$DW$133, DW_AT_TI_end_file("../c5535_bsl_revc/ezdsp5535_v1/c55xx_csl/ccs_v4.0_examples/mmc_
    1830                      .dwattr $C$DW$133, DW_AT_TI_end_line(0x283)
    1831                      .dwattr $C$DW$133, DW_AT_TI_end_column(0x01)
    1832                      .dwendentry
    1833                      .dwendtag $C$DW$133
    1834              
    1835 000650               .sect   ".text"
    1836                      .align 4
    1837                      .global _mmcsdDmaCallbackTest
    1838              
    1839              $C$DW$211       .dwtag  DW_TAG_subprogram, DW_AT_name("mmcsdDmaCallbackTest")
    1840                      .dwattr $C$DW$211, DW_AT_low_pc(_mmcsdDmaCallbackTest)
    1841                      .dwattr $C$DW$211, DW_AT_high_pc(0x00)
    1842                      .dwattr $C$DW$211, DW_AT_TI_symbol_name("_mmcsdDmaCallbackTest")
    1843                      .dwattr $C$DW$211, DW_AT_external
    1844                      .dwattr $C$DW$211, DW_AT_type(*$C$DW$T$106)
    1845                      .dwattr $C$DW$211, DW_AT_TI_begin_file("../c5535_bsl_revc/ezdsp5535_v1/c55xx_csl/ccs_v4.0_examples/mm
    1846                      .dwattr $C$DW$211, DW_AT_TI_begin_line(0x292)
    1847                      .dwattr $C$DW$211, DW_AT_TI_begin_column(0x0c)
    1848                      .dwattr $C$DW$211, DW_AT_TI_max_frame_size(0x10)
    1849                      .dwpsn  file "../c5535_bsl_revc/ezdsp5535_v1/c55xx_csl/ccs_v4.0_examples/mmc_sd/CSL_MMCSD_dmaExample/
    1850              
    1851                      .dwfde $C$DW$CIE, _mmcsdDmaCallbackTest
    1852              ;*******************************************************************************
    1853              ;* FUNCTION NAME: mmcsdDmaCallbackTest                                         *
    1854              ;*                                                                             *
    1855              ;*   Function Uses Regs : AC0,AC0,T0,T1,AR0,XAR0,AR1,XAR1,AR2,XAR2,AR3,XAR3,SP,*
    1856              ;*                        CARRY,TC1,M40,SATA,SATD,RDM,FRCT,SMUL                *
    1857              ;*   Stack Frame        : Compact (No Frame Pointer, w/ debug)                 *
    1858              ;*   Total Frame Size   : 16 words                                             *
    1859              ;*                        (2 return address/alignment)                         *
    1860              ;*                        (3 function parameters)                              *
    1861              ;*                        (11 local values)                                    *
    1862              ;*   Min System Stack   : 1 word                                               *
    1863              ;*******************************************************************************
    1864 000650       _mmcsdDmaCallbackTest:
    1865                      .dwcfi  cfa_offset, 1
    1866                      .dwcfi  save_reg_to_mem, 91, -1
    1867 000650 4EF1          AADD #-15, SP
    1868                      .dwcfi  cfa_offset, 16
    1869              $C$DW$212       .dwtag  DW_TAG_variable, DW_AT_name("sectCount")
    1870                      .dwattr $C$DW$212, DW_AT_TI_symbol_name("_sectCount")
    1871                      .dwattr $C$DW$212, DW_AT_type(*$C$DW$T$48)
    1872                      .dwattr $C$DW$212, DW_AT_location[DW_OP_bregx 0x24 4]
    1873              $C$DW$213       .dwtag  DW_TAG_variable, DW_AT_name("cardAddr")
    1874                      .dwattr $C$DW$213, DW_AT_TI_symbol_name("_cardAddr")
    1875                      .dwattr $C$DW$213, DW_AT_type(*$C$DW$T$48)
    1876                      .dwattr $C$DW$213, DW_AT_location[DW_OP_bregx 0x24 6]
    1877              $C$DW$214       .dwtag  DW_TAG_variable, DW_AT_name("mmcStatus")
TMS320C55x Assembler PC v4.4.1 Sat Sep 29 23:09:00 2018

Tools Copyright (c) 1996-2012 Texas Instruments Incorporated
csl_mmcsd_dma_example.asm                                            PAGE   43

    1878                      .dwattr $C$DW$214, DW_AT_TI_symbol_name("_mmcStatus")
    1879                      .dwattr $C$DW$214, DW_AT_type(*$C$DW$T$106)
    1880                      .dwattr $C$DW$214, DW_AT_location[DW_OP_bregx 0x24 8]
    1881              $C$DW$215       .dwtag  DW_TAG_variable, DW_AT_name("count")
    1882                      .dwattr $C$DW$215, DW_AT_TI_symbol_name("_count")
    1883                      .dwattr $C$DW$215, DW_AT_type(*$C$DW$T$19)
    1884                      .dwattr $C$DW$215, DW_AT_location[DW_OP_bregx 0x24 9]
    1885              $C$DW$216       .dwtag  DW_TAG_variable, DW_AT_name("actCard")
    1886                      .dwattr $C$DW$216, DW_AT_TI_symbol_name("_actCard")
    1887                      .dwattr $C$DW$216, DW_AT_type(*$C$DW$T$19)
    1888                      .dwattr $C$DW$216, DW_AT_location[DW_OP_bregx 0x24 10]
    1889              $C$DW$217       .dwtag  DW_TAG_variable, DW_AT_name("clockDiv")
    1890                      .dwattr $C$DW$217, DW_AT_TI_symbol_name("_clockDiv")
    1891                      .dwattr $C$DW$217, DW_AT_type(*$C$DW$T$19)
    1892                      .dwattr $C$DW$217, DW_AT_location[DW_OP_bregx 0x24 11]
    1893              $C$DW$218       .dwtag  DW_TAG_variable, DW_AT_name("cardType")
    1894                      .dwattr $C$DW$218, DW_AT_TI_symbol_name("_cardType")
    1895                      .dwattr $C$DW$218, DW_AT_type(*$C$DW$T$53)
    1896                      .dwattr $C$DW$218, DW_AT_location[DW_OP_bregx 0x24 12]
    1897              $C$DW$219       .dwtag  DW_TAG_variable, DW_AT_name("rca")
    1898                      .dwattr $C$DW$219, DW_AT_TI_symbol_name("_rca")
    1899                      .dwattr $C$DW$219, DW_AT_type(*$C$DW$T$19)
    1900                      .dwattr $C$DW$219, DW_AT_location[DW_OP_bregx 0x24 13]
    1901                      .dwpsn  file "../c5535_bsl_revc/ezdsp5535_v1/c55xx_csl/ccs_v4.0_examples/mmc_sd/CSL_MMCSD_dmaExample/
    1902 000652 E618          MOV #0, *SP(#12) ; |669| 
         000654 00   
    1903                      .dwpsn  file "../c5535_bsl_revc/ezdsp5535_v1/c55xx_csl/ccs_v4.0_examples/mmc_sd/CSL_MMCSD_dmaExample/
    1904 000655 3C00          MOV #0, AC0 ; |670| 
    1905 000657 EB08          MOV AC0, dbl(*SP(#4)) ; |670| 
         000659 08   
    1906                      .dwpsn  file "../c5535_bsl_revc/ezdsp5535_v1/c55xx_csl/ccs_v4.0_examples/mmc_sd/CSL_MMCSD_dmaExample/
    1907 00065a E612          MOV #0, *SP(#9) ; |673| 
         00065c 00   
    1908                      .dwpsn  file "../c5535_bsl_revc/ezdsp5535_v1/c55xx_csl/ccs_v4.0_examples/mmc_sd/CSL_MMCSD_dmaExample/
    1909 00065d 7602          MOV #512, AR2 ; |673| 
         00065f 00A8 
    1910 000661 A912          MOV *SP(#9), AR1 ; |673| 
    1911 000663 1298          CMPU AR1 >= AR2, TC1 ; |673| 
         000665 A4   
    1912 000666 0464          BCC $C$L47,TC1 ; |673| 
         000668 3D   
    1913                                                      ; branchcc occurs ; |673| 
    1914 000669       $C$L46:    
    1915 000669       $C$DW$L$_mmcsdDmaCallbackTest$2$B:
    1916                      .dwpsn  file "../c5535_bsl_revc/ezdsp5535_v1/c55xx_csl/ccs_v4.0_examples/mmc_sd/CSL_MMCSD_dmaExample/
    1917 000669 A412          MOV *SP(#9), T0 ; |675| 
    1918 00066b EC31          AMOV #_gReadBuff, XAR3 ; |675| 
         00066d BE00 
         00066f 00B0-
    1919 000671 E66B          MOV #0, *AR3(T0) ; |675| 
         000673 00   
    1920                      .dwpsn  file "../c5535_bsl_revc/ezdsp5535_v1/c55xx_csl/ccs_v4.0_examples/mmc_sd/CSL_MMCSD_dmaExample/
    1921 000674 A412          MOV *SP(#9), T0 ; |676| 
    1922 000676 A912          MOV *SP(#9), AR1 ; |676| 
    1923 000678 EC31          AMOV #_gWriteBuff, XAR3 ; |676| 
TMS320C55x Assembler PC v4.4.1 Sat Sep 29 23:09:00 2018

Tools Copyright (c) 1996-2012 Texas Instruments Incorporated
csl_mmcsd_dma_example.asm                                            PAGE   44

         00067a BE00 
         00067c 02B0-
    1924 00067e C96B          MOV AR1, *AR3(T0) ; |676| 
    1925                      .dwpsn  file "../c5535_bsl_revc/ezdsp5535_v1/c55xx_csl/ccs_v4.0_examples/mmc_sd/CSL_MMCSD_dmaExample/
    1926 000680 A412          MOV *SP(#9), T0 ; |677| 
    1927 000682 2249          MOV T0, AR1 ; |677| 
    1928 000684 EC31          AMOV #_gWriteTempBuff, XAR3 ; |677| 
         000686 BE00 
         000688 04B0-
    1929 00068a EC31          AMOV #_gWriteBuff, XAR2 ; |677| 
         00068c AE00 
         00068e 02B0-
    1930 000690 1490          AADD AR1, AR3 ; |677| 
         000692 B0   
    1931 000693 805D          MOV *AR2(T0), *AR3 ; |677| 
         000695 84   
    1932                      .dwpsn  file "../c5535_bsl_revc/ezdsp5535_v1/c55xx_csl/ccs_v4.0_examples/mmc_sd/CSL_MMCSD_dmaExample/
    1933 000696 F712          ADD #1, *SP(#9) ; |673| 
         000698 0001 
    1934                      .dwpsn  file "../c5535_bsl_revc/ezdsp5535_v1/c55xx_csl/ccs_v4.0_examples/mmc_sd/CSL_MMCSD_dmaExample/
    1935 00069a 7602          MOV #512, AR2 ; |673| 
         00069c 00A8 
    1936 00069e A912          MOV *SP(#9), AR1 ; |673| 
    1937 0006a0 1294          CMPU AR1 < AR2, TC1 ; |673| 
         0006a2 A4   
    1938 0006a3 0464          BCC $C$L46,TC1 ; |673| 
         0006a5 C3   
    1939                                                      ; branchcc occurs ; |673| 
    1940 0006a6       $C$DW$L$_mmcsdDmaCallbackTest$2$E:
    1941 0006a6       $C$L47:    
    1942                      .dwpsn  file "../c5535_bsl_revc/ezdsp5535_v1/c55xx_csl/ccs_v4.0_examples/mmc_sd/CSL_MMCSD_dmaExample/
    1943              $C$DW$220       .dwtag  DW_TAG_TI_branch
    1944                      .dwattr $C$DW$220, DW_AT_low_pc(0x00)
    1945                      .dwattr $C$DW$220, DW_AT_name("_IRQ_globalDisable")
    1946                      .dwattr $C$DW$220, DW_AT_TI_call
    1947 0006a6 6C00          CALL #_IRQ_globalDisable ; |681| 
         0006a8 0000!
    1948                                                      ; call occurs [#_IRQ_globalDisable] ; |681| 
    1949                      .dwpsn  file "../c5535_bsl_revc/ezdsp5535_v1/c55xx_csl/ccs_v4.0_examples/mmc_sd/CSL_MMCSD_dmaExample/
    1950              $C$DW$221       .dwtag  DW_TAG_TI_branch
    1951                      .dwattr $C$DW$221, DW_AT_low_pc(0x00)
    1952                      .dwattr $C$DW$221, DW_AT_name("_IRQ_clearAll")
    1953                      .dwattr $C$DW$221, DW_AT_TI_call
    1954 0006aa 6C00          CALL #_IRQ_clearAll ; |684| 
         0006ac 0000!
    1955                                                      ; call occurs [#_IRQ_clearAll] ; |684| 
    1956                      .dwpsn  file "../c5535_bsl_revc/ezdsp5535_v1/c55xx_csl/ccs_v4.0_examples/mmc_sd/CSL_MMCSD_dmaExample/
    1957              $C$DW$222       .dwtag  DW_TAG_TI_branch
    1958                      .dwattr $C$DW$222, DW_AT_low_pc(0x00)
    1959                      .dwattr $C$DW$222, DW_AT_name("_IRQ_disableAll")
    1960                      .dwattr $C$DW$222, DW_AT_TI_call
    1961 0006ae 6C00          CALL #_IRQ_disableAll ; |687| 
         0006b0 0000!
    1962                                                      ; call occurs [#_IRQ_disableAll] ; |687| 
    1963                      .dwpsn  file "../c5535_bsl_revc/ezdsp5535_v1/c55xx_csl/ccs_v4.0_examples/mmc_sd/CSL_MMCSD_dmaExample/
TMS320C55x Assembler PC v4.4.1 Sat Sep 29 23:09:00 2018

Tools Copyright (c) 1996-2012 Texas Instruments Incorporated
csl_mmcsd_dma_example.asm                                            PAGE   45

    1964 0006b2 7A00          MOV #(_VECSTART >> 16) << #16, AC0 ; |701| 
         0006b4 000A%
    1965 0006b6 7E00          OR #(_VECSTART & 0xffff), AC0, AC0 ; |701| 
         0006b8 0000%
    1966              $C$DW$223       .dwtag  DW_TAG_TI_branch
    1967                      .dwattr $C$DW$223, DW_AT_low_pc(0x00)
    1968                      .dwattr $C$DW$223, DW_AT_name("_IRQ_setVecs")
    1969                      .dwattr $C$DW$223, DW_AT_TI_call
    1970 0006ba 6C00          CALL #_IRQ_setVecs ; |701| 
         0006bc 0000!
    1971                                                      ; call occurs [#_IRQ_setVecs] ; |701| 
    1972                      .dwpsn  file "../c5535_bsl_revc/ezdsp5535_v1/c55xx_csl/ccs_v4.0_examples/mmc_sd/CSL_MMCSD_dmaExample/
    1973              $C$DW$224       .dwtag  DW_TAG_TI_branch
    1974                      .dwattr $C$DW$224, DW_AT_low_pc(0x00)
    1975                      .dwattr $C$DW$224, DW_AT_name("_IRQ_clear")
    1976                      .dwattr $C$DW$224, DW_AT_TI_call
    1977              
    1978 0006be 6C00          CALL #_IRQ_clear ; |702| 
         0006c0 0000!
    1979 0006c2 3D54  ||      MOV #5, T0
    1980              
    1981                                                      ; call occurs [#_IRQ_clear] ; |702| 
    1982                      .dwpsn  file "../c5535_bsl_revc/ezdsp5535_v1/c55xx_csl/ccs_v4.0_examples/mmc_sd/CSL_MMCSD_dmaExample/
    1983 0006c4 7A00          MOV #(_mmcsd_isr >> 16) << #16, AC0 ; |705| 
         0006c6 000A%
    1984 0006c8 7E00          OR #(_mmcsd_isr & 0xffff), AC0, AC0 ; |705| 
         0006ca 0000%
    1985              $C$DW$225       .dwtag  DW_TAG_TI_branch
    1986                      .dwattr $C$DW$225, DW_AT_low_pc(0x00)
    1987                      .dwattr $C$DW$225, DW_AT_name("_IRQ_plug")
    1988                      .dwattr $C$DW$225, DW_AT_TI_call
    1989              
    1990 0006cc 6C00          CALL #_IRQ_plug ; |705| 
         0006ce 0000!
    1991 0006d0 3D54  ||      MOV #5, T0
    1992              
    1993                                                      ; call occurs [#_IRQ_plug] ; |705| 
    1994                      .dwpsn  file "../c5535_bsl_revc/ezdsp5535_v1/c55xx_csl/ccs_v4.0_examples/mmc_sd/CSL_MMCSD_dmaExample/
    1995              $C$DW$226       .dwtag  DW_TAG_TI_branch
    1996                      .dwattr $C$DW$226, DW_AT_low_pc(0x00)
    1997                      .dwattr $C$DW$226, DW_AT_name("_IRQ_enable")
    1998                      .dwattr $C$DW$226, DW_AT_TI_call
    1999              
    2000 0006d2 6C00          CALL #_IRQ_enable ; |708| 
         0006d4 0000!
    2001 0006d6 3D54  ||      MOV #5, T0
    2002              
    2003                                                      ; call occurs [#_IRQ_enable] ; |708| 
    2004                      .dwpsn  file "../c5535_bsl_revc/ezdsp5535_v1/c55xx_csl/ccs_v4.0_examples/mmc_sd/CSL_MMCSD_dmaExample/
    2005              $C$DW$227       .dwtag  DW_TAG_TI_branch
    2006                      .dwattr $C$DW$227, DW_AT_low_pc(0x00)
    2007                      .dwattr $C$DW$227, DW_AT_name("_MMC_init")
    2008                      .dwattr $C$DW$227, DW_AT_TI_call
    2009 0006d8 6C00          CALL #_MMC_init ; |711| 
         0006da 0000!
TMS320C55x Assembler PC v4.4.1 Sat Sep 29 23:09:00 2018

Tools Copyright (c) 1996-2012 Texas Instruments Incorporated
csl_mmcsd_dma_example.asm                                            PAGE   46

    2010                                                      ; call occurs [#_MMC_init] ; |711| 
    2011 0006dc C410          MOV T0, *SP(#8) ; |711| 
    2012                      .dwpsn  file "../c5535_bsl_revc/ezdsp5535_v1/c55xx_csl/ccs_v4.0_examples/mmc_sd/CSL_MMCSD_dmaExample/
    2013 0006de 2249          MOV T0, AR1
    2014 0006e0 0409          BCC $C$L48,AR1 == #0 ; |712| 
         0006e2 12   
    2015                                                      ; branchcc occurs ; |712| 
    2016                      .dwpsn  file "../c5535_bsl_revc/ezdsp5535_v1/c55xx_csl/ccs_v4.0_examples/mmc_sd/CSL_MMCSD_dmaExample/
    2017 0006e3 EC31          AMOV #$C$FSL10, XAR3 ; |714| 
         0006e5 BE00 
         0006e7 0148+
    2018 0006e9 EB00          MOV XAR3, dbl(*SP(#0))
         0006eb B5   
    2019              $C$DW$228       .dwtag  DW_TAG_TI_branch
    2020                      .dwattr $C$DW$228, DW_AT_low_pc(0x00)
    2021                      .dwattr $C$DW$228, DW_AT_name("_printf")
    2022                      .dwattr $C$DW$228, DW_AT_TI_call
    2023 0006ec 6C00          CALL #_printf ; |714| 
         0006ee 0000!
    2024                                                      ; call occurs [#_printf] ; |714| 
    2025                      .dwpsn  file "../c5535_bsl_revc/ezdsp5535_v1/c55xx_csl/ccs_v4.0_examples/mmc_sd/CSL_MMCSD_dmaExample/
    2026 0006f0 A410          MOV *SP(#8), T0 ; |715| 
    2027 0006f2 0606          B $C$L88  ; |715| 
         0006f4 0F   
    2028                                                      ; branch occurs ; |715| 
    2029 0006f5       $C$L48:    
    2030                      .dwpsn  file "../c5535_bsl_revc/ezdsp5535_v1/c55xx_csl/ccs_v4.0_examples/mmc_sd/CSL_MMCSD_dmaExample/
    2031              $C$DW$229       .dwtag  DW_TAG_TI_branch
    2032                      .dwattr $C$DW$229, DW_AT_low_pc(0x00)
    2033                      .dwattr $C$DW$229, DW_AT_name("_DMA_init")
    2034                      .dwattr $C$DW$229, DW_AT_TI_call
    2035 0006f5 6C00          CALL #_DMA_init ; |719| 
         0006f7 0000!
    2036                                                      ; call occurs [#_DMA_init] ; |719| 
    2037 0006f9 C410          MOV T0, *SP(#8) ; |719| 
    2038                      .dwpsn  file "../c5535_bsl_revc/ezdsp5535_v1/c55xx_csl/ccs_v4.0_examples/mmc_sd/CSL_MMCSD_dmaExample/
    2039 0006fb 2249          MOV T0, AR1
    2040 0006fd 0409          BCC $C$L49,AR1 == #0 ; |720| 
         0006ff 12   
    2041                                                      ; branchcc occurs ; |720| 
    2042                      .dwpsn  file "../c5535_bsl_revc/ezdsp5535_v1/c55xx_csl/ccs_v4.0_examples/mmc_sd/CSL_MMCSD_dmaExample/
    2043 000700 EC31          AMOV #$C$FSL11, XAR3 ; |722| 
         000702 BE00 
         000704 0160+
    2044 000706 EB00          MOV XAR3, dbl(*SP(#0))
         000708 B5   
    2045              $C$DW$230       .dwtag  DW_TAG_TI_branch
    2046                      .dwattr $C$DW$230, DW_AT_low_pc(0x00)
    2047                      .dwattr $C$DW$230, DW_AT_name("_printf")
    2048                      .dwattr $C$DW$230, DW_AT_TI_call
    2049 000709 6C00          CALL #_printf ; |722| 
         00070b 0000!
    2050                                                      ; call occurs [#_printf] ; |722| 
    2051                      .dwpsn  file "../c5535_bsl_revc/ezdsp5535_v1/c55xx_csl/ccs_v4.0_examples/mmc_sd/CSL_MMCSD_dmaExample/
    2052 00070d A410          MOV *SP(#8), T0 ; |723| 
TMS320C55x Assembler PC v4.4.1 Sat Sep 29 23:09:00 2018

Tools Copyright (c) 1996-2012 Texas Instruments Incorporated
csl_mmcsd_dma_example.asm                                            PAGE   47

    2053 00070f 0605          B $C$L88  ; |723| 
         000711 F2   
    2054                                                      ; branch occurs ; |723| 
    2055 000712       $C$L49:    
    2056                      .dwpsn  file "../c5535_bsl_revc/ezdsp5535_v1/c55xx_csl/ccs_v4.0_examples/mmc_sd/CSL_MMCSD_dmaExample/
    2057 000712 EC10          AMAR *SP(#8), XAR1
         000714 9E   
    2058 000715 EC31          AMOV #_dmaWrChanObj, XAR0 ; |727| 
         000717 8E00 
         000719 009C-
    2059              $C$DW$231       .dwtag  DW_TAG_TI_branch
    2060                      .dwattr $C$DW$231, DW_AT_low_pc(0x00)
    2061                      .dwattr $C$DW$231, DW_AT_name("_DMA_open")
    2062                      .dwattr $C$DW$231, DW_AT_TI_call
    2063              
    2064 00071b 6C00          CALL #_DMA_open ; |727| 
         00071d 0000!
    2065 00071f 3D04  ||      MOV #0, T0
    2066              
    2067                                                      ; call occurs [#_DMA_open] ; |727| 
    2068 000721 EB31          MOV XAR0, dbl(*(#_dmaWrHandle))
         000723 8500 
         000725 0098-
    2069                      .dwpsn  file "../c5535_bsl_revc/ezdsp5535_v1/c55xx_csl/ccs_v4.0_examples/mmc_sd/CSL_MMCSD_dmaExample/
    2070 000727 ED31          MOV dbl(*(#_dmaWrHandle)), XAR3
         000729 BF00 
         00072b 0098-
    2071 00072d 90B0          MOV XAR3, AC0
    2072 00072f 6280          BCC $C$L50,AC0 == #0 ; |728| 
    2073                                                      ; branchcc occurs ; |728| 
    2074 000731 A910          MOV *SP(#8), AR1 ; |728| 
    2075 000733 0409          BCC $C$L51,AR1 == #0 ; |728| 
         000735 12   
    2076                                                      ; branchcc occurs ; |728| 
    2077 000736       $C$L50:    
    2078                      .dwpsn  file "../c5535_bsl_revc/ezdsp5535_v1/c55xx_csl/ccs_v4.0_examples/mmc_sd/CSL_MMCSD_dmaExample/
    2079 000736 EC31          AMOV #$C$FSL12, XAR3 ; |730| 
         000738 BE00 
         00073a 0178+
    2080 00073c EB00          MOV XAR3, dbl(*SP(#0))
         00073e B5   
    2081              $C$DW$232       .dwtag  DW_TAG_TI_branch
    2082                      .dwattr $C$DW$232, DW_AT_low_pc(0x00)
    2083                      .dwattr $C$DW$232, DW_AT_name("_printf")
    2084                      .dwattr $C$DW$232, DW_AT_TI_call
    2085 00073f 6C00          CALL #_printf ; |730| 
         000741 0000!
    2086                                                      ; call occurs [#_printf] ; |730| 
    2087                      .dwpsn  file "../c5535_bsl_revc/ezdsp5535_v1/c55xx_csl/ccs_v4.0_examples/mmc_sd/CSL_MMCSD_dmaExample/
    2088 000743 A410          MOV *SP(#8), T0 ; |731| 
    2089 000745 0605          B $C$L88  ; |731| 
         000747 BC   
    2090                                                      ; branch occurs ; |731| 
    2091 000748       $C$L51:    
    2092                      .dwpsn  file "../c5535_bsl_revc/ezdsp5535_v1/c55xx_csl/ccs_v4.0_examples/mmc_sd/CSL_MMCSD_dmaExample/
TMS320C55x Assembler PC v4.4.1 Sat Sep 29 23:09:00 2018

Tools Copyright (c) 1996-2012 Texas Instruments Incorporated
csl_mmcsd_dma_example.asm                                            PAGE   48

    2093 000748 EC10          AMAR *SP(#8), XAR1
         00074a 9E   
    2094 00074b EC31          AMOV #_dmaRdChanObj, XAR0 ; |735| 
         00074d 8E00 
         00074f 00A5-
    2095              $C$DW$233       .dwtag  DW_TAG_TI_branch
    2096                      .dwattr $C$DW$233, DW_AT_low_pc(0x00)
    2097                      .dwattr $C$DW$233, DW_AT_name("_DMA_open")
    2098                      .dwattr $C$DW$233, DW_AT_TI_call
    2099              
    2100 000751 6C00          CALL #_DMA_open ; |735| 
         000753 0000!
    2101 000755 3D14  ||      MOV #1, T0
    2102              
    2103                                                      ; call occurs [#_DMA_open] ; |735| 
    2104 000757 EB31          MOV XAR0, dbl(*(#_dmaRdHandle))
         000759 8500 
         00075b 009A-
    2105                      .dwpsn  file "../c5535_bsl_revc/ezdsp5535_v1/c55xx_csl/ccs_v4.0_examples/mmc_sd/CSL_MMCSD_dmaExample/
    2106 00075d ED31          MOV dbl(*(#_dmaRdHandle)), XAR3
         00075f BF00 
         000761 009A-
    2107 000763 90B0          MOV XAR3, AC0
    2108 000765 6280          BCC $C$L52,AC0 == #0 ; |736| 
    2109                                                      ; branchcc occurs ; |736| 
    2110 000767 A910          MOV *SP(#8), AR1 ; |736| 
    2111 000769 0409          BCC $C$L53,AR1 == #0 ; |736| 
         00076b 12   
    2112                                                      ; branchcc occurs ; |736| 
    2113 00076c       $C$L52:    
    2114                      .dwpsn  file "../c5535_bsl_revc/ezdsp5535_v1/c55xx_csl/ccs_v4.0_examples/mmc_sd/CSL_MMCSD_dmaExample/
    2115 00076c EC31          AMOV #$C$FSL45, XAR3 ; |738| 
         00076e BE00 
         000770 0538+
    2116 000772 EB00          MOV XAR3, dbl(*SP(#0))
         000774 B5   
    2117              $C$DW$234       .dwtag  DW_TAG_TI_branch
    2118                      .dwattr $C$DW$234, DW_AT_low_pc(0x00)
    2119                      .dwattr $C$DW$234, DW_AT_name("_printf")
    2120                      .dwattr $C$DW$234, DW_AT_TI_call
    2121 000775 6C00          CALL #_printf ; |738| 
         000777 0000!
    2122                                                      ; call occurs [#_printf] ; |738| 
    2123                      .dwpsn  file "../c5535_bsl_revc/ezdsp5535_v1/c55xx_csl/ccs_v4.0_examples/mmc_sd/CSL_MMCSD_dmaExample/
    2124 000779 A410          MOV *SP(#8), T0 ; |739| 
    2125 00077b 0605          B $C$L88  ; |739| 
         00077d 86   
    2126                                                      ; branch occurs ; |739| 
    2127 00077e       $C$L53:    
    2128                      .dwpsn  file "../c5535_bsl_revc/ezdsp5535_v1/c55xx_csl/ccs_v4.0_examples/mmc_sd/CSL_MMCSD_dmaExample/
    2129 00077e EC31          AMOV #_pMmcsdContObj, XAR0 ; |747| 
         000780 8E00 
         000782 0000-
    2130              
    2131 000787 3D04          MOV #0, T0
TMS320C55x Assembler PC v4.4.1 Sat Sep 29 23:09:00 2018

Tools Copyright (c) 1996-2012 Texas Instruments Incorporated
csl_mmcsd_dma_example.asm                                            PAGE   49

    2132 000784 EC10  ||      AMAR *SP(#8), XAR1
         000786 9E   
    2133              
    2134              $C$DW$235       .dwtag  DW_TAG_TI_branch
    2135                      .dwattr $C$DW$235, DW_AT_low_pc(0x00)
    2136                      .dwattr $C$DW$235, DW_AT_name("_MMC_open")
    2137                      .dwattr $C$DW$235, DW_AT_TI_call
    2138              
    2139 000789 6C00          CALL #_MMC_open ; |747| 
         00078b 0000!
    2140 00078d 3D25  ||      MOV #2, T1
    2141              
    2142                                                      ; call occurs [#_MMC_open] ; |747| 
    2143 00078f EB31          MOV XAR0, dbl(*(#_mmcsdHandle))
         000791 8500 
         000793 0040-
    2144                      .dwpsn  file "../c5535_bsl_revc/ezdsp5535_v1/c55xx_csl/ccs_v4.0_examples/mmc_sd/CSL_MMCSD_dmaExample/
    2145 000795 A910          MOV *SP(#8), AR1 ; |750| 
    2146 000797 6599          BCC $C$L54,AR1 != #0 ; |750| 
    2147                                                      ; branchcc occurs ; |750| 
    2148 000799 ED31          MOV dbl(*(#_mmcsdHandle)), XAR3
         00079b BF00 
         00079d 0040-
    2149 00079f 90B0          MOV XAR3, AC0
    2150 0007a1 0410          BCC $C$L55,AC0 != #0 ; |750| 
         0007a3 12   
    2151                                                      ; branchcc occurs ; |750| 
    2152 0007a4       $C$L54:    
    2153                      .dwpsn  file "../c5535_bsl_revc/ezdsp5535_v1/c55xx_csl/ccs_v4.0_examples/mmc_sd/CSL_MMCSD_dmaExample/
    2154 0007a4 EC31          AMOV #$C$FSL14, XAR3 ; |752| 
         0007a6 BE00 
         0007a8 01C6+
    2155 0007aa EB00          MOV XAR3, dbl(*SP(#0))
         0007ac B5   
    2156              $C$DW$236       .dwtag  DW_TAG_TI_branch
    2157                      .dwattr $C$DW$236, DW_AT_low_pc(0x00)
    2158                      .dwattr $C$DW$236, DW_AT_name("_printf")
    2159                      .dwattr $C$DW$236, DW_AT_TI_call
    2160 0007ad 6C00          CALL #_printf ; |752| 
         0007af 0000!
    2161                                                      ; call occurs [#_printf] ; |752| 
    2162                      .dwpsn  file "../c5535_bsl_revc/ezdsp5535_v1/c55xx_csl/ccs_v4.0_examples/mmc_sd/CSL_MMCSD_dmaExample/
    2163 0007b1 A410          MOV *SP(#8), T0 ; |753| 
    2164 0007b3 0605          B $C$L88  ; |753| 
         0007b5 4E   
    2165                                                      ; branch occurs ; |753| 
    2166 0007b6       $C$L55:    
    2167                      .dwpsn  file "../c5535_bsl_revc/ezdsp5535_v1/c55xx_csl/ccs_v4.0_examples/mmc_sd/CSL_MMCSD_dmaExample/
    2168 0007b6 ED31          MOV dbl(*(#_dmaWrHandle)), XAR1
         0007b8 9F00 
         0007ba 0098-
    2169 0007bc ED31          MOV dbl(*(#_dmaRdHandle)), XAR2
         0007be AF00 
         0007c0 009A-
    2170              $C$DW$237       .dwtag  DW_TAG_TI_branch
TMS320C55x Assembler PC v4.4.1 Sat Sep 29 23:09:00 2018

Tools Copyright (c) 1996-2012 Texas Instruments Incorporated
csl_mmcsd_dma_example.asm                                            PAGE   50

    2171                      .dwattr $C$DW$237, DW_AT_low_pc(0x00)
    2172                      .dwattr $C$DW$237, DW_AT_name("_MMC_setDmaHandle")
    2173                      .dwattr $C$DW$237, DW_AT_TI_call
    2174 0007c2 6C00          CALL #_MMC_setDmaHandle ; |757| 
         0007c4 0000!
    2175                                                      ; call occurs [#_MMC_setDmaHandle] ; |757| 
    2176 0007c6 C410          MOV T0, *SP(#8) ; |757| 
    2177                      .dwpsn  file "../c5535_bsl_revc/ezdsp5535_v1/c55xx_csl/ccs_v4.0_examples/mmc_sd/CSL_MMCSD_dmaExample/
    2178 0007c8 2249          MOV T0, AR1
    2179 0007ca 0409          BCC $C$L56,AR1 == #0 ; |758| 
         0007cc 12   
    2180                                                      ; branchcc occurs ; |758| 
    2181                      .dwpsn  file "../c5535_bsl_revc/ezdsp5535_v1/c55xx_csl/ccs_v4.0_examples/mmc_sd/CSL_MMCSD_dmaExample/
    2182 0007cd EC31          AMOV #$C$FSL46, XAR3 ; |760| 
         0007cf BE00 
         0007d1 055A+
    2183 0007d3 EB00          MOV XAR3, dbl(*SP(#0))
         0007d5 B5   
    2184              $C$DW$238       .dwtag  DW_TAG_TI_branch
    2185                      .dwattr $C$DW$238, DW_AT_low_pc(0x00)
    2186                      .dwattr $C$DW$238, DW_AT_name("_printf")
    2187                      .dwattr $C$DW$238, DW_AT_TI_call
    2188 0007d6 6C00          CALL #_printf ; |760| 
         0007d8 0000!
    2189                                                      ; call occurs [#_printf] ; |760| 
    2190                      .dwpsn  file "../c5535_bsl_revc/ezdsp5535_v1/c55xx_csl/ccs_v4.0_examples/mmc_sd/CSL_MMCSD_dmaExample/
    2191 0007da A410          MOV *SP(#8), T0 ; |761| 
    2192 0007dc 0605          B $C$L88  ; |761| 
         0007de 25   
    2193                                                      ; branch occurs ; |761| 
    2194 0007df       $C$L56:    
    2195                      .dwpsn  file "../c5535_bsl_revc/ezdsp5535_v1/c55xx_csl/ccs_v4.0_examples/mmc_sd/CSL_MMCSD_dmaExample/
    2196 0007df 7A00          MOV #(_mmcsdTransferDoneCallBack >> 16) << #16, AC0 ; |765| 
         0007e1 000A%
    2197 0007e3 ED31          MOV dbl(*(#_mmcsdHandle)), XAR0
         0007e5 8F00 
         0007e7 0040-
    2198 0007e9 7E00          OR #(_mmcsdTransferDoneCallBack & 0xffff), AC0, AC0 ; |765| 
         0007eb 0000%
    2199              $C$DW$239       .dwtag  DW_TAG_TI_branch
    2200                      .dwattr $C$DW$239, DW_AT_low_pc(0x00)
    2201                      .dwattr $C$DW$239, DW_AT_name("_MMC_setDataTransferCallback")
    2202                      .dwattr $C$DW$239, DW_AT_TI_call
    2203 0007ed 6C00          CALL #_MMC_setDataTransferCallback ; |765| 
         0007ef 0000!
    2204                                                      ; call occurs [#_MMC_setDataTransferCallback] ; |765| 
    2205 0007f1 C410          MOV T0, *SP(#8) ; |765| 
    2206                      .dwpsn  file "../c5535_bsl_revc/ezdsp5535_v1/c55xx_csl/ccs_v4.0_examples/mmc_sd/CSL_MMCSD_dmaExample/
    2207 0007f3 2249          MOV T0, AR1
    2208 0007f5 0409          BCC $C$L57,AR1 == #0 ; |766| 
         0007f7 12   
    2209                                                      ; branchcc occurs ; |766| 
    2210                      .dwpsn  file "../c5535_bsl_revc/ezdsp5535_v1/c55xx_csl/ccs_v4.0_examples/mmc_sd/CSL_MMCSD_dmaExample/
    2211 0007f8 EC31          AMOV #$C$FSL47, XAR3 ; |768| 
         0007fa BE00 
TMS320C55x Assembler PC v4.4.1 Sat Sep 29 23:09:00 2018

Tools Copyright (c) 1996-2012 Texas Instruments Incorporated
csl_mmcsd_dma_example.asm                                            PAGE   51

         0007fc 0578+
    2212 0007fe EB00          MOV XAR3, dbl(*SP(#0))
         000800 B5   
    2213              $C$DW$240       .dwtag  DW_TAG_TI_branch
    2214                      .dwattr $C$DW$240, DW_AT_low_pc(0x00)
    2215                      .dwattr $C$DW$240, DW_AT_name("_printf")
    2216                      .dwattr $C$DW$240, DW_AT_TI_call
    2217 000801 6C00          CALL #_printf ; |768| 
         000803 0000!
    2218                                                      ; call occurs [#_printf] ; |768| 
    2219                      .dwpsn  file "../c5535_bsl_revc/ezdsp5535_v1/c55xx_csl/ccs_v4.0_examples/mmc_sd/CSL_MMCSD_dmaExample/
    2220 000805 A410          MOV *SP(#8), T0 ; |769| 
    2221 000807 0604          B $C$L88  ; |769| 
         000809 FA   
    2222                                                      ; branch occurs ; |769| 
    2223 00080a       $C$L57:    
    2224                      .dwpsn  file "../c5535_bsl_revc/ezdsp5535_v1/c55xx_csl/ccs_v4.0_examples/mmc_sd/CSL_MMCSD_dmaExample/
    2225 00080a E631          MOV #0, *(#_mmcsdDmaConfig) ; |779| 
         00080c 0000 
         00080e 0092-
    2226                      .dwpsn  file "../c5535_bsl_revc/ezdsp5535_v1/c55xx_csl/ccs_v4.0_examples/mmc_sd/CSL_MMCSD_dmaExample/
    2227 000810 E631          MOV #0, *(#(_mmcsdDmaConfig+1)) ; |780| 
         000812 0000 
         000814 0093-
    2228                      .dwpsn  file "../c5535_bsl_revc/ezdsp5535_v1/c55xx_csl/ccs_v4.0_examples/mmc_sd/CSL_MMCSD_dmaExample/
    2229 000816 E631          MOV #3, *(#(_mmcsdDmaConfig+2)) ; |781| 
         000818 0300 
         00081a 0094-
    2230                      .dwpsn  file "../c5535_bsl_revc/ezdsp5535_v1/c55xx_csl/ccs_v4.0_examples/mmc_sd/CSL_MMCSD_dmaExample/
    2231 00081c E631          MOV #0, *(#(_mmcsdDmaConfig+3)) ; |782| 
         00081e 0000 
         000820 0095-
    2232                      .dwpsn  file "../c5535_bsl_revc/ezdsp5535_v1/c55xx_csl/ccs_v4.0_examples/mmc_sd/CSL_MMCSD_dmaExample/
    2233 000822 E631          MOV #1, *(#(_mmcsdDmaConfig+4)) ; |783| 
         000824 0100 
         000826 0096-
    2234                      .dwpsn  file "../c5535_bsl_revc/ezdsp5535_v1/c55xx_csl/ccs_v4.0_examples/mmc_sd/CSL_MMCSD_dmaExample/
    2235 000828 ED31          MOV dbl(*(#_mmcsdHandle)), XAR0
         00082a 8F00 
         00082c 0040-
    2236 00082e EC31          AMOV #_mmcsdDmaConfig, XAR1 ; |785| 
         000830 9E00 
         000832 0092-
    2237              $C$DW$241       .dwtag  DW_TAG_TI_branch
    2238                      .dwattr $C$DW$241, DW_AT_low_pc(0x00)
    2239                      .dwattr $C$DW$241, DW_AT_name("_MMC_setDmaChanConfig")
    2240                      .dwattr $C$DW$241, DW_AT_TI_call
    2241 000834 6C00          CALL #_MMC_setDmaChanConfig ; |785| 
         000836 0000!
    2242                                                      ; call occurs [#_MMC_setDmaChanConfig] ; |785| 
    2243 000838 C410          MOV T0, *SP(#8) ; |785| 
    2244                      .dwpsn  file "../c5535_bsl_revc/ezdsp5535_v1/c55xx_csl/ccs_v4.0_examples/mmc_sd/CSL_MMCSD_dmaExample/
    2245 00083a 2249          MOV T0, AR1
    2246 00083c 0409          BCC $C$L58,AR1 == #0 ; |786| 
         00083e 12   
TMS320C55x Assembler PC v4.4.1 Sat Sep 29 23:09:00 2018

Tools Copyright (c) 1996-2012 Texas Instruments Incorporated
csl_mmcsd_dma_example.asm                                            PAGE   52

    2247                                                      ; branchcc occurs ; |786| 
    2248                      .dwpsn  file "../c5535_bsl_revc/ezdsp5535_v1/c55xx_csl/ccs_v4.0_examples/mmc_sd/CSL_MMCSD_dmaExample/
    2249 00083f EC31          AMOV #$C$FSL48, XAR3 ; |788| 
         000841 BE00 
         000843 05A2+
    2250 000845 EB00          MOV XAR3, dbl(*SP(#0))
         000847 B5   
    2251              $C$DW$242       .dwtag  DW_TAG_TI_branch
    2252                      .dwattr $C$DW$242, DW_AT_low_pc(0x00)
    2253                      .dwattr $C$DW$242, DW_AT_name("_printf")
    2254                      .dwattr $C$DW$242, DW_AT_TI_call
    2255 000848 6C00          CALL #_printf ; |788| 
         00084a 0000!
    2256                                                      ; call occurs [#_printf] ; |788| 
    2257                      .dwpsn  file "../c5535_bsl_revc/ezdsp5535_v1/c55xx_csl/ccs_v4.0_examples/mmc_sd/CSL_MMCSD_dmaExample/
    2258 00084c A410          MOV *SP(#8), T0 ; |789| 
    2259 00084e 0604          B $C$L88  ; |789| 
         000850 B3   
    2260                                                      ; branch occurs ; |789| 
    2261 000851       $C$L58:    
    2262                      .dwpsn  file "../c5535_bsl_revc/ezdsp5535_v1/c55xx_csl/ccs_v4.0_examples/mmc_sd/CSL_MMCSD_dmaExample/
    2263 000851 E631          MOV #0, *(#_mmcsdDmaConfig) ; |794| 
         000853 0000 
         000855 0092-
    2264                      .dwpsn  file "../c5535_bsl_revc/ezdsp5535_v1/c55xx_csl/ccs_v4.0_examples/mmc_sd/CSL_MMCSD_dmaExample/
    2265 000857 E631          MOV #0, *(#(_mmcsdDmaConfig+1)) ; |795| 
         000859 0000 
         00085b 0093-
    2266                      .dwpsn  file "../c5535_bsl_revc/ezdsp5535_v1/c55xx_csl/ccs_v4.0_examples/mmc_sd/CSL_MMCSD_dmaExample/
    2267 00085d E631          MOV #3, *(#(_mmcsdDmaConfig+2)) ; |796| 
         00085f 0300 
         000861 0094-
    2268                      .dwpsn  file "../c5535_bsl_revc/ezdsp5535_v1/c55xx_csl/ccs_v4.0_examples/mmc_sd/CSL_MMCSD_dmaExample/
    2269 000863 E631          MOV #0, *(#(_mmcsdDmaConfig+3)) ; |797| 
         000865 0000 
         000867 0095-
    2270                      .dwpsn  file "../c5535_bsl_revc/ezdsp5535_v1/c55xx_csl/ccs_v4.0_examples/mmc_sd/CSL_MMCSD_dmaExample/
    2271 000869 E631          MOV #0, *(#(_mmcsdDmaConfig+4)) ; |798| 
         00086b 0000 
         00086d 0096-
    2272                      .dwpsn  file "../c5535_bsl_revc/ezdsp5535_v1/c55xx_csl/ccs_v4.0_examples/mmc_sd/CSL_MMCSD_dmaExample/
    2273 00086f ED31          MOV dbl(*(#_mmcsdHandle)), XAR0
         000871 8F00 
         000873 0040-
    2274 000875 EC31          AMOV #_mmcsdDmaConfig, XAR1 ; |800| 
         000877 9E00 
         000879 0092-
    2275              $C$DW$243       .dwtag  DW_TAG_TI_branch
    2276                      .dwattr $C$DW$243, DW_AT_low_pc(0x00)
    2277                      .dwattr $C$DW$243, DW_AT_name("_MMC_setDmaChanConfig")
    2278                      .dwattr $C$DW$243, DW_AT_TI_call
    2279 00087b 6C00          CALL #_MMC_setDmaChanConfig ; |800| 
         00087d 0000!
    2280                                                      ; call occurs [#_MMC_setDmaChanConfig] ; |800| 
    2281 00087f C410          MOV T0, *SP(#8) ; |800| 
TMS320C55x Assembler PC v4.4.1 Sat Sep 29 23:09:00 2018

Tools Copyright (c) 1996-2012 Texas Instruments Incorporated
csl_mmcsd_dma_example.asm                                            PAGE   53

    2282                      .dwpsn  file "../c5535_bsl_revc/ezdsp5535_v1/c55xx_csl/ccs_v4.0_examples/mmc_sd/CSL_MMCSD_dmaExample/
    2283 000881 2249          MOV T0, AR1
    2284 000883 0409          BCC $C$L59,AR1 == #0 ; |801| 
         000885 12   
    2285                                                      ; branchcc occurs ; |801| 
    2286                      .dwpsn  file "../c5535_bsl_revc/ezdsp5535_v1/c55xx_csl/ccs_v4.0_examples/mmc_sd/CSL_MMCSD_dmaExample/
    2287 000886 EC31          AMOV #$C$FSL49, XAR3 ; |803| 
         000888 BE00 
         00088a 05CE+
    2288 00088c EB00          MOV XAR3, dbl(*SP(#0))
         00088e B5   
    2289              $C$DW$244       .dwtag  DW_TAG_TI_branch
    2290                      .dwattr $C$DW$244, DW_AT_low_pc(0x00)
    2291                      .dwattr $C$DW$244, DW_AT_name("_printf")
    2292                      .dwattr $C$DW$244, DW_AT_TI_call
    2293 00088f 6C00          CALL #_printf ; |803| 
         000891 0000!
    2294                                                      ; call occurs [#_printf] ; |803| 
    2295                      .dwpsn  file "../c5535_bsl_revc/ezdsp5535_v1/c55xx_csl/ccs_v4.0_examples/mmc_sd/CSL_MMCSD_dmaExample/
    2296 000893 A410          MOV *SP(#8), T0 ; |804| 
    2297 000895 0604          B $C$L88  ; |804| 
         000897 6C   
    2298                                                      ; branch occurs ; |804| 
    2299 000898       $C$L59:    
    2300                      .dwpsn  file "../c5535_bsl_revc/ezdsp5535_v1/c55xx_csl/ccs_v4.0_examples/mmc_sd/CSL_MMCSD_dmaExample/
    2301 000898 ED31          MOV dbl(*(#_mmcsdHandle)), XAR0
         00089a 8F00 
         00089c 0040-
    2302              $C$DW$245       .dwtag  DW_TAG_TI_branch
    2303                      .dwattr $C$DW$245, DW_AT_low_pc(0x00)
    2304                      .dwattr $C$DW$245, DW_AT_name("_MMC_sendGoIdle")
    2305                      .dwattr $C$DW$245, DW_AT_TI_call
    2306 00089e 6C00          CALL #_MMC_sendGoIdle ; |808| 
         0008a0 0000!
    2307                                                      ; call occurs [#_MMC_sendGoIdle] ; |808| 
    2308 0008a2 C410          MOV T0, *SP(#8) ; |808| 
    2309                      .dwpsn  file "../c5535_bsl_revc/ezdsp5535_v1/c55xx_csl/ccs_v4.0_examples/mmc_sd/CSL_MMCSD_dmaExample/
    2310 0008a4 2249          MOV T0, AR1
    2311 0008a6 0409          BCC $C$L60,AR1 == #0 ; |809| 
         0008a8 12   
    2312                                                      ; branchcc occurs ; |809| 
    2313                      .dwpsn  file "../c5535_bsl_revc/ezdsp5535_v1/c55xx_csl/ccs_v4.0_examples/mmc_sd/CSL_MMCSD_dmaExample/
    2314 0008a9 EC31          AMOV #$C$FSL16, XAR3 ; |811| 
         0008ab BE00 
         0008ad 0204+
    2315 0008af EB00          MOV XAR3, dbl(*SP(#0))
         0008b1 B5   
    2316              $C$DW$246       .dwtag  DW_TAG_TI_branch
    2317                      .dwattr $C$DW$246, DW_AT_low_pc(0x00)
    2318                      .dwattr $C$DW$246, DW_AT_name("_printf")
    2319                      .dwattr $C$DW$246, DW_AT_TI_call
    2320 0008b2 6C00          CALL #_printf ; |811| 
         0008b4 0000!
    2321                                                      ; call occurs [#_printf] ; |811| 
    2322                      .dwpsn  file "../c5535_bsl_revc/ezdsp5535_v1/c55xx_csl/ccs_v4.0_examples/mmc_sd/CSL_MMCSD_dmaExample/
TMS320C55x Assembler PC v4.4.1 Sat Sep 29 23:09:00 2018

Tools Copyright (c) 1996-2012 Texas Instruments Incorporated
csl_mmcsd_dma_example.asm                                            PAGE   54

    2323 0008b6 A410          MOV *SP(#8), T0 ; |812| 
    2324 0008b8 0604          B $C$L88  ; |812| 
         0008ba 49   
    2325                                                      ; branch occurs ; |812| 
    2326 0008bb       $C$L60:    
    2327                      .dwpsn  file "../c5535_bsl_revc/ezdsp5535_v1/c55xx_csl/ccs_v4.0_examples/mmc_sd/CSL_MMCSD_dmaExample/
    2328 0008bb ED31          MOV dbl(*(#_mmcsdHandle)), XAR0
         0008bd 8F00 
         0008bf 0040-
    2329 0008c1 EC31          AMOV #_mmcCardObj, XAR1 ; |816| 
         0008c3 9E00 
         0008c5 0042-
    2330              $C$DW$247       .dwtag  DW_TAG_TI_branch
    2331                      .dwattr $C$DW$247, DW_AT_low_pc(0x00)
    2332                      .dwattr $C$DW$247, DW_AT_name("_MMC_selectCard")
    2333                      .dwattr $C$DW$247, DW_AT_TI_call
    2334 0008c7 6C00          CALL #_MMC_selectCard ; |816| 
         0008c9 0000!
    2335                                                      ; call occurs [#_MMC_selectCard] ; |816| 
    2336 0008cb C410          MOV T0, *SP(#8) ; |816| 
    2337                      .dwpsn  file "../c5535_bsl_revc/ezdsp5535_v1/c55xx_csl/ccs_v4.0_examples/mmc_sd/CSL_MMCSD_dmaExample/
    2338 0008cd F010          CMP *SP(#8) == #-5, TC1 ; |817| 
         0008cf FFFB 
    2339 0008d1 63E4          BCC $C$L61,TC1 ; |817| 
    2340                                                      ; branchcc occurs ; |817| 
    2341 0008d3 F010          CMP *SP(#8) == #-6, TC1 ; |817| 
         0008d5 FFFA 
    2342 0008d7 0474          BCC $C$L62,!TC1 ; |817| 
         0008d9 12   
    2343                                                      ; branchcc occurs ; |817| 
    2344 0008da       $C$L61:    
    2345                      .dwpsn  file "../c5535_bsl_revc/ezdsp5535_v1/c55xx_csl/ccs_v4.0_examples/mmc_sd/CSL_MMCSD_dmaExample/
    2346 0008da EC31          AMOV #$C$FSL17, XAR3 ; |820| 
         0008dc BE00 
         0008de 0220+
    2347 0008e0 EB00          MOV XAR3, dbl(*SP(#0))
         0008e2 B5   
    2348              $C$DW$248       .dwtag  DW_TAG_TI_branch
    2349                      .dwattr $C$DW$248, DW_AT_low_pc(0x00)
    2350                      .dwattr $C$DW$248, DW_AT_name("_printf")
    2351                      .dwattr $C$DW$248, DW_AT_TI_call
    2352 0008e3 6C00          CALL #_printf ; |820| 
         0008e5 0000!
    2353                                                      ; call occurs [#_printf] ; |820| 
    2354                      .dwpsn  file "../c5535_bsl_revc/ezdsp5535_v1/c55xx_csl/ccs_v4.0_examples/mmc_sd/CSL_MMCSD_dmaExample/
    2355 0008e7 A410          MOV *SP(#8), T0 ; |821| 
    2356 0008e9 0604          B $C$L88  ; |821| 
         0008eb 18   
    2357                                                      ; branch occurs ; |821| 
    2358 0008ec       $C$L62:    
    2359                      .dwpsn  file "../c5535_bsl_revc/ezdsp5535_v1/c55xx_csl/ccs_v4.0_examples/mmc_sd/CSL_MMCSD_dmaExample/
    2360 0008ec F031          CMP *(#(_mmcCardObj+18)) == #2, TC1 ; |825| 
         0008ee 0002 
         0008f0 0000 
         0008f2 54-  
TMS320C55x Assembler PC v4.4.1 Sat Sep 29 23:09:00 2018

Tools Copyright (c) 1996-2012 Texas Instruments Incorporated
csl_mmcsd_dma_example.asm                                            PAGE   55

    2361 0008f3 6D74          BCC $C$L66,!TC1 ; |825| 
         0008f5 00A2 
    2362                                                      ; branchcc occurs ; |825| 
    2363                      .dwpsn  file "../c5535_bsl_revc/ezdsp5535_v1/c55xx_csl/ccs_v4.0_examples/mmc_sd/CSL_MMCSD_dmaExample/
    2364 0008f7 EC31          AMOV #$C$FSL18, XAR3 ; |827| 
         0008f9 BE00 
         0008fb 023C+
    2365 0008fd EB00          MOV XAR3, dbl(*SP(#0))
         0008ff B5   
    2366              $C$DW$249       .dwtag  DW_TAG_TI_branch
    2367                      .dwattr $C$DW$249, DW_AT_low_pc(0x00)
    2368                      .dwattr $C$DW$249, DW_AT_name("_printf")
    2369                      .dwattr $C$DW$249, DW_AT_TI_call
    2370 000900 6C00          CALL #_printf ; |827| 
         000902 0000!
    2371                                                      ; call occurs [#_printf] ; |827| 
    2372                      .dwpsn  file "../c5535_bsl_revc/ezdsp5535_v1/c55xx_csl/ccs_v4.0_examples/mmc_sd/CSL_MMCSD_dmaExample/
    2373 000904 E618          MOV #2, *SP(#12) ; |828| 
         000906 02   
    2374                      .dwpsn  file "../c5535_bsl_revc/ezdsp5535_v1/c55xx_csl/ccs_v4.0_examples/mmc_sd/CSL_MMCSD_dmaExample/
    2375 000907 ED08          MOV dbl(*SP(#4)), AC0 ; |829| 
         000909 08   
    2376 00090a 1007          SFTL AC0, #9, AC0 ; |829| 
         00090c 09   
    2377 00090d EB0C          MOV AC0, dbl(*SP(#6)) ; |829| 
         00090f 08   
    2378                      .dwpsn  file "../c5535_bsl_revc/ezdsp5535_v1/c55xx_csl/ccs_v4.0_examples/mmc_sd/CSL_MMCSD_dmaExample/
    2379 000910 EC31          AMOV #_cardIdObj, XAR1 ; |832| 
         000912 9E00 
         000914 0060-
    2380 000916 ED31          MOV dbl(*(#_mmcsdHandle)), XAR0
         000918 8F00 
         00091a 0040-
    2381              $C$DW$250       .dwtag  DW_TAG_TI_branch
    2382                      .dwattr $C$DW$250, DW_AT_low_pc(0x00)
    2383                      .dwattr $C$DW$250, DW_AT_name("_MMC_sendAllCID")
    2384                      .dwattr $C$DW$250, DW_AT_TI_call
    2385 00091c 6C00          CALL #_MMC_sendAllCID ; |832| 
         00091e 0000!
    2386                                                      ; call occurs [#_MMC_sendAllCID] ; |832| 
    2387 000920 C410          MOV T0, *SP(#8) ; |832| 
    2388                      .dwpsn  file "../c5535_bsl_revc/ezdsp5535_v1/c55xx_csl/ccs_v4.0_examples/mmc_sd/CSL_MMCSD_dmaExample/
    2389 000922 2249          MOV T0, AR1
    2390 000924 0409          BCC $C$L63,AR1 == #0 ; |833| 
         000926 12   
    2391                                                      ; branchcc occurs ; |833| 
    2392                      .dwpsn  file "../c5535_bsl_revc/ezdsp5535_v1/c55xx_csl/ccs_v4.0_examples/mmc_sd/CSL_MMCSD_dmaExample/
    2393 000927 EC31          AMOV #$C$FSL19, XAR3 ; |835| 
         000929 BE00 
         00092b 0252+
    2394 00092d EB00          MOV XAR3, dbl(*SP(#0))
         00092f B5   
    2395              $C$DW$251       .dwtag  DW_TAG_TI_branch
    2396                      .dwattr $C$DW$251, DW_AT_low_pc(0x00)
    2397                      .dwattr $C$DW$251, DW_AT_name("_printf")
TMS320C55x Assembler PC v4.4.1 Sat Sep 29 23:09:00 2018

Tools Copyright (c) 1996-2012 Texas Instruments Incorporated
csl_mmcsd_dma_example.asm                                            PAGE   56

    2398                      .dwattr $C$DW$251, DW_AT_TI_call
    2399 000930 6C00          CALL #_printf ; |835| 
         000932 0000!
    2400                                                      ; call occurs [#_printf] ; |835| 
    2401                      .dwpsn  file "../c5535_bsl_revc/ezdsp5535_v1/c55xx_csl/ccs_v4.0_examples/mmc_sd/CSL_MMCSD_dmaExample/
    2402 000934 A410          MOV *SP(#8), T0 ; |836| 
    2403 000936 0603          B $C$L88  ; |836| 
         000938 CB   
    2404                                                      ; branch occurs ; |836| 
    2405 000939       $C$L63:    
    2406                      .dwpsn  file "../c5535_bsl_revc/ezdsp5535_v1/c55xx_csl/ccs_v4.0_examples/mmc_sd/CSL_MMCSD_dmaExample/
    2407 000939 ED31          MOV dbl(*(#_mmcsdHandle)), XAR0
         00093b 8F00 
         00093d 0040-
    2408 00093f EC31          AMOV #_mmcCardObj, XAR1 ; |840| 
         000941 9E00 
         000943 0042-
    2409              $C$DW$252       .dwtag  DW_TAG_TI_branch
    2410                      .dwattr $C$DW$252, DW_AT_low_pc(0x00)
    2411                      .dwattr $C$DW$252, DW_AT_name("_MMC_setRca")
    2412                      .dwattr $C$DW$252, DW_AT_TI_call
    2413              
    2414 000945 6C00          CALL #_MMC_setRca ; |840| 
         000947 0000!
    2415 000949 3D14  ||      MOV #1, T0
    2416              
    2417                                                      ; call occurs [#_MMC_setRca] ; |840| 
    2418 00094b C410          MOV T0, *SP(#8) ; |840| 
    2419                      .dwpsn  file "../c5535_bsl_revc/ezdsp5535_v1/c55xx_csl/ccs_v4.0_examples/mmc_sd/CSL_MMCSD_dmaExample/
    2420 00094d 2249          MOV T0, AR1
    2421 00094f 0409          BCC $C$L64,AR1 == #0 ; |841| 
         000951 12   
    2422                                                      ; branchcc occurs ; |841| 
    2423                      .dwpsn  file "../c5535_bsl_revc/ezdsp5535_v1/c55xx_csl/ccs_v4.0_examples/mmc_sd/CSL_MMCSD_dmaExample/
    2424 000952 EC31          AMOV #$C$FSL20, XAR3 ; |843| 
         000954 BE00 
         000956 026E+
    2425 000958 EB00          MOV XAR3, dbl(*SP(#0))
         00095a B5   
    2426              $C$DW$253       .dwtag  DW_TAG_TI_branch
    2427                      .dwattr $C$DW$253, DW_AT_low_pc(0x00)
    2428                      .dwattr $C$DW$253, DW_AT_name("_printf")
    2429                      .dwattr $C$DW$253, DW_AT_TI_call
    2430 00095b 6C00          CALL #_printf ; |843| 
         00095d 0000!
    2431                                                      ; call occurs [#_printf] ; |843| 
    2432                      .dwpsn  file "../c5535_bsl_revc/ezdsp5535_v1/c55xx_csl/ccs_v4.0_examples/mmc_sd/CSL_MMCSD_dmaExample/
    2433 00095f A410          MOV *SP(#8), T0 ; |844| 
    2434 000961 0603          B $C$L88  ; |844| 
         000963 A0   
    2435                                                      ; branch occurs ; |844| 
    2436 000964       $C$L64:    
    2437                      .dwpsn  file "../c5535_bsl_revc/ezdsp5535_v1/c55xx_csl/ccs_v4.0_examples/mmc_sd/CSL_MMCSD_dmaExample/
    2438 000964 ED31          MOV dbl(*(#_mmcsdHandle)), XAR0
         000966 8F00 
TMS320C55x Assembler PC v4.4.1 Sat Sep 29 23:09:00 2018

Tools Copyright (c) 1996-2012 Texas Instruments Incorporated
csl_mmcsd_dma_example.asm                                            PAGE   57

         000968 0040-
    2439 00096a EC31          AMOV #_cardCsdObj, XAR1 ; |848| 
         00096c 9E00 
         00096e 0070-
    2440              $C$DW$254       .dwtag  DW_TAG_TI_branch
    2441                      .dwattr $C$DW$254, DW_AT_low_pc(0x00)
    2442                      .dwattr $C$DW$254, DW_AT_name("_MMC_getCardCsd")
    2443                      .dwattr $C$DW$254, DW_AT_TI_call
    2444 000970 6C00          CALL #_MMC_getCardCsd ; |848| 
         000972 0000!
    2445                                                      ; call occurs [#_MMC_getCardCsd] ; |848| 
    2446 000974 C410          MOV T0, *SP(#8) ; |848| 
    2447                      .dwpsn  file "../c5535_bsl_revc/ezdsp5535_v1/c55xx_csl/ccs_v4.0_examples/mmc_sd/CSL_MMCSD_dmaExample/
    2448 000976 2249          MOV T0, AR1
    2449 000978 0409          BCC $C$L65,AR1 == #0 ; |849| 
         00097a 12   
    2450                                                      ; branchcc occurs ; |849| 
    2451                      .dwpsn  file "../c5535_bsl_revc/ezdsp5535_v1/c55xx_csl/ccs_v4.0_examples/mmc_sd/CSL_MMCSD_dmaExample/
    2452 00097b EC31          AMOV #$C$FSL21, XAR3 ; |851| 
         00097d BE00 
         00097f 0286+
    2453 000981 EB00          MOV XAR3, dbl(*SP(#0))
         000983 B5   
    2454              $C$DW$255       .dwtag  DW_TAG_TI_branch
    2455                      .dwattr $C$DW$255, DW_AT_low_pc(0x00)
    2456                      .dwattr $C$DW$255, DW_AT_name("_printf")
    2457                      .dwattr $C$DW$255, DW_AT_TI_call
    2458 000984 6C00          CALL #_printf ; |851| 
         000986 0000!
    2459                                                      ; call occurs [#_printf] ; |851| 
    2460                      .dwpsn  file "../c5535_bsl_revc/ezdsp5535_v1/c55xx_csl/ccs_v4.0_examples/mmc_sd/CSL_MMCSD_dmaExample/
    2461 000988 A410          MOV *SP(#8), T0 ; |852| 
    2462 00098a 0603          B $C$L88  ; |852| 
         00098c 77   
    2463                                                      ; branch occurs ; |852| 
    2464 00098d       $C$L65:    
    2465                      .dwpsn  file "../c5535_bsl_revc/ezdsp5535_v1/c55xx_csl/ccs_v4.0_examples/mmc_sd/CSL_MMCSD_dmaExample/
    2466 00098d 7613          MOV #5000, AC0 ; |856| 
         00098f 8808 
    2467              $C$DW$256       .dwtag  DW_TAG_TI_branch
    2468                      .dwattr $C$DW$256, DW_AT_low_pc(0x00)
    2469                      .dwattr $C$DW$256, DW_AT_name("_computeClkRate")
    2470                      .dwattr $C$DW$256, DW_AT_TI_call
    2471 000991 0803          CALL #_computeClkRate ; |856| 
         000993 74   
    2472                                                      ; call occurs [#_computeClkRate] ; |856| 
    2473 000994 C416          MOV T0, *SP(#11) ; |856| 
    2474                      .dwpsn  file "../c5535_bsl_revc/ezdsp5535_v1/c55xx_csl/ccs_v4.0_examples/mmc_sd/CSL_MMCSD_dmaExample/
    2475 000996 0601          B $C$L74  ; |857| 
         000998 41   
    2476                                                      ; branch occurs ; |857| 
    2477 000999       $C$L66:    
    2478                      .dwpsn  file "../c5535_bsl_revc/ezdsp5535_v1/c55xx_csl/ccs_v4.0_examples/mmc_sd/CSL_MMCSD_dmaExample/
    2479 000999 F031          CMP *(#(_mmcCardObj+18)) == #1, TC1 ; |858| 
         00099b 0001 
TMS320C55x Assembler PC v4.4.1 Sat Sep 29 23:09:00 2018

Tools Copyright (c) 1996-2012 Texas Instruments Incorporated
csl_mmcsd_dma_example.asm                                            PAGE   58

         00099d 0000 
         00099f 54-  
    2480 0009a0 6D74          BCC $C$L73,!TC1 ; |858| 
         0009a2 0117 
    2481                                                      ; branchcc occurs ; |858| 
    2482                      .dwpsn  file "../c5535_bsl_revc/ezdsp5535_v1/c55xx_csl/ccs_v4.0_examples/mmc_sd/CSL_MMCSD_dmaExample/
    2483 0009a4 EC31          AMOV #$C$FSL22, XAR3 ; |860| 
         0009a6 BE00 
         0009a8 02A2+
    2484 0009aa EB00          MOV XAR3, dbl(*SP(#0))
         0009ac B5   
    2485              $C$DW$257       .dwtag  DW_TAG_TI_branch
    2486                      .dwattr $C$DW$257, DW_AT_low_pc(0x00)
    2487                      .dwattr $C$DW$257, DW_AT_name("_printf")
    2488                      .dwattr $C$DW$257, DW_AT_TI_call
    2489 0009ad 6C00          CALL #_printf ; |860| 
         0009af 0000!
    2490                                                      ; call occurs [#_printf] ; |860| 
    2491                      .dwpsn  file "../c5535_bsl_revc/ezdsp5535_v1/c55xx_csl/ccs_v4.0_examples/mmc_sd/CSL_MMCSD_dmaExample/
    2492 0009b1 E618          MOV #1, *SP(#12) ; |861| 
         0009b3 01   
    2493                      .dwpsn  file "../c5535_bsl_revc/ezdsp5535_v1/c55xx_csl/ccs_v4.0_examples/mmc_sd/CSL_MMCSD_dmaExample/
    2494 0009b4 ED31          MOV dbl(*(#_mmcsdHandle)), XAR3
         0009b6 BF00 
         0009b8 0040-
    2495 0009ba ED75          MOV dbl(*AR3(short(#2))), XAR3
         0009bc BF   
    2496 0009bd F06D          CMP *AR3(#26) == #1, TC1 ; |864| 
         0009bf 0001 
         0009c1 001A 
    2497 0009c3 0474          BCC $C$L67,!TC1 ; |864| 
         0009c5 22   
    2498                                                      ; branchcc occurs ; |864| 
    2499                      .dwpsn  file "../c5535_bsl_revc/ezdsp5535_v1/c55xx_csl/ccs_v4.0_examples/mmc_sd/CSL_MMCSD_dmaExample/
    2500 0009c6 EC31          AMOV #$C$FSL23, XAR3 ; |866| 
         0009c8 BE00 
         0009ca 02B6+
    2501 0009cc EB00          MOV XAR3, dbl(*SP(#0))
         0009ce B5   
    2502              $C$DW$258       .dwtag  DW_TAG_TI_branch
    2503                      .dwattr $C$DW$258, DW_AT_low_pc(0x00)
    2504                      .dwattr $C$DW$258, DW_AT_name("_printf")
    2505                      .dwattr $C$DW$258, DW_AT_TI_call
    2506 0009cf 6C00          CALL #_printf ; |866| 
         0009d1 0000!
    2507                                                      ; call occurs [#_printf] ; |866| 
    2508                      .dwpsn  file "../c5535_bsl_revc/ezdsp5535_v1/c55xx_csl/ccs_v4.0_examples/mmc_sd/CSL_MMCSD_dmaExample/
    2509 0009d3 EC31          AMOV #$C$FSL24, XAR3 ; |867| 
         0009d5 BE00 
         0009d7 02D6+
    2510 0009d9 EB00          MOV XAR3, dbl(*SP(#0))
         0009db B5   
    2511              $C$DW$259       .dwtag  DW_TAG_TI_branch
    2512                      .dwattr $C$DW$259, DW_AT_low_pc(0x00)
    2513                      .dwattr $C$DW$259, DW_AT_name("_printf")
TMS320C55x Assembler PC v4.4.1 Sat Sep 29 23:09:00 2018

Tools Copyright (c) 1996-2012 Texas Instruments Incorporated
csl_mmcsd_dma_example.asm                                            PAGE   59

    2514                      .dwattr $C$DW$259, DW_AT_TI_call
    2515 0009dc 6C00          CALL #_printf ; |867| 
         0009de 0000!
    2516                                                      ; call occurs [#_printf] ; |867| 
    2517                      .dwpsn  file "../c5535_bsl_revc/ezdsp5535_v1/c55xx_csl/ccs_v4.0_examples/mmc_sd/CSL_MMCSD_dmaExample/
    2518 0009e0 ED08          MOV dbl(*SP(#4)), AC0 ; |871| 
         0009e2 08   
    2519 0009e3 EB0C          MOV AC0, dbl(*SP(#6)) ; |871| 
         0009e5 08   
    2520                      .dwpsn  file "../c5535_bsl_revc/ezdsp5535_v1/c55xx_csl/ccs_v4.0_examples/mmc_sd/CSL_MMCSD_dmaExample/
    2521 0009e6 4A23          B $C$L68  ; |872| 
    2522                                                      ; branch occurs ; |872| 
    2523 0009e8       $C$L67:    
    2524                      .dwpsn  file "../c5535_bsl_revc/ezdsp5535_v1/c55xx_csl/ccs_v4.0_examples/mmc_sd/CSL_MMCSD_dmaExample/
    2525 0009e8 EC31          AMOV #$C$FSL25, XAR3 ; |875| 
         0009ea BE00 
         0009ec 02FC+
    2526 0009ee EB00          MOV XAR3, dbl(*SP(#0))
         0009f0 B5   
    2527              $C$DW$260       .dwtag  DW_TAG_TI_branch
    2528                      .dwattr $C$DW$260, DW_AT_low_pc(0x00)
    2529                      .dwattr $C$DW$260, DW_AT_name("_printf")
    2530                      .dwattr $C$DW$260, DW_AT_TI_call
    2531 0009f1 6C00          CALL #_printf ; |875| 
         0009f3 0000!
    2532                                                      ; call occurs [#_printf] ; |875| 
    2533                      .dwpsn  file "../c5535_bsl_revc/ezdsp5535_v1/c55xx_csl/ccs_v4.0_examples/mmc_sd/CSL_MMCSD_dmaExample/
    2534 0009f5 EC31          AMOV #$C$FSL26, XAR3 ; |876| 
         0009f7 BE00 
         0009f9 0320+
    2535 0009fb EB00          MOV XAR3, dbl(*SP(#0))
         0009fd B5   
    2536              $C$DW$261       .dwtag  DW_TAG_TI_branch
    2537                      .dwattr $C$DW$261, DW_AT_low_pc(0x00)
    2538                      .dwattr $C$DW$261, DW_AT_name("_printf")
    2539                      .dwattr $C$DW$261, DW_AT_TI_call
    2540 0009fe 6C00          CALL #_printf ; |876| 
         000a00 0000!
    2541                                                      ; call occurs [#_printf] ; |876| 
    2542                      .dwpsn  file "../c5535_bsl_revc/ezdsp5535_v1/c55xx_csl/ccs_v4.0_examples/mmc_sd/CSL_MMCSD_dmaExample/
    2543 000a02 ED08          MOV dbl(*SP(#4)), AC0 ; |880| 
         000a04 08   
    2544 000a05 1007          SFTL AC0, #9, AC0 ; |880| 
         000a07 09   
    2545 000a08 EB0C          MOV AC0, dbl(*SP(#6)) ; |880| 
         000a0a 08   
    2546 000a0b       $C$L68:    
    2547                      .dwpsn  file "../c5535_bsl_revc/ezdsp5535_v1/c55xx_csl/ccs_v4.0_examples/mmc_sd/CSL_MMCSD_dmaExample/
    2548 000a0b ED31          MOV dbl(*(#_mmcsdHandle)), XAR0
         000a0d 8F00 
         000a0f 0040-
    2549 000a11 7600          MOV #70, T0 ; |884| 
         000a13 4648 
    2550              $C$DW$262       .dwtag  DW_TAG_TI_branch
    2551                      .dwattr $C$DW$262, DW_AT_low_pc(0x00)
TMS320C55x Assembler PC v4.4.1 Sat Sep 29 23:09:00 2018

Tools Copyright (c) 1996-2012 Texas Instruments Incorporated
csl_mmcsd_dma_example.asm                                            PAGE   60

    2552                      .dwattr $C$DW$262, DW_AT_name("_MMC_sendOpCond")
    2553                      .dwattr $C$DW$262, DW_AT_TI_call
    2554 000a15 6C00          CALL #_MMC_sendOpCond ; |884| 
         000a17 0000!
    2555                                                      ; call occurs [#_MMC_sendOpCond] ; |884| 
    2556 000a19 C410          MOV T0, *SP(#8) ; |884| 
    2557                      .dwpsn  file "../c5535_bsl_revc/ezdsp5535_v1/c55xx_csl/ccs_v4.0_examples/mmc_sd/CSL_MMCSD_dmaExample/
    2558 000a1b 2249          MOV T0, AR1
    2559 000a1d 0409          BCC $C$L69,AR1 == #0 ; |885| 
         000a1f 12   
    2560                                                      ; branchcc occurs ; |885| 
    2561                      .dwpsn  file "../c5535_bsl_revc/ezdsp5535_v1/c55xx_csl/ccs_v4.0_examples/mmc_sd/CSL_MMCSD_dmaExample/
    2562 000a20 EC31          AMOV #$C$FSL27, XAR3 ; |887| 
         000a22 BE00 
         000a24 0346+
    2563 000a26 EB00          MOV XAR3, dbl(*SP(#0))
         000a28 B5   
    2564              $C$DW$263       .dwtag  DW_TAG_TI_branch
    2565                      .dwattr $C$DW$263, DW_AT_low_pc(0x00)
    2566                      .dwattr $C$DW$263, DW_AT_name("_printf")
    2567                      .dwattr $C$DW$263, DW_AT_TI_call
    2568 000a29 6C00          CALL #_printf ; |887| 
         000a2b 0000!
    2569                                                      ; call occurs [#_printf] ; |887| 
    2570                      .dwpsn  file "../c5535_bsl_revc/ezdsp5535_v1/c55xx_csl/ccs_v4.0_examples/mmc_sd/CSL_MMCSD_dmaExample/
    2571 000a2d A410          MOV *SP(#8), T0 ; |888| 
    2572 000a2f 0602          B $C$L88  ; |888| 
         000a31 D2   
    2573                                                      ; branch occurs ; |888| 
    2574 000a32       $C$L69:    
    2575                      .dwpsn  file "../c5535_bsl_revc/ezdsp5535_v1/c55xx_csl/ccs_v4.0_examples/mmc_sd/CSL_MMCSD_dmaExample/
    2576 000a32 ED31          MOV dbl(*(#_mmcsdHandle)), XAR0
         000a34 8F00 
         000a36 0040-
    2577 000a38 EC31          AMOV #_cardIdObj, XAR1 ; |892| 
         000a3a 9E00 
         000a3c 0060-
    2578              $C$DW$264       .dwtag  DW_TAG_TI_branch
    2579                      .dwattr $C$DW$264, DW_AT_low_pc(0x00)
    2580                      .dwattr $C$DW$264, DW_AT_name("_SD_sendAllCID")
    2581                      .dwattr $C$DW$264, DW_AT_TI_call
    2582 000a3e 6C00          CALL #_SD_sendAllCID ; |892| 
         000a40 0000!
    2583                                                      ; call occurs [#_SD_sendAllCID] ; |892| 
    2584 000a42 C410          MOV T0, *SP(#8) ; |892| 
    2585                      .dwpsn  file "../c5535_bsl_revc/ezdsp5535_v1/c55xx_csl/ccs_v4.0_examples/mmc_sd/CSL_MMCSD_dmaExample/
    2586 000a44 2249          MOV T0, AR1
    2587 000a46 0409          BCC $C$L70,AR1 == #0 ; |893| 
         000a48 12   
    2588                                                      ; branchcc occurs ; |893| 
    2589                      .dwpsn  file "../c5535_bsl_revc/ezdsp5535_v1/c55xx_csl/ccs_v4.0_examples/mmc_sd/CSL_MMCSD_dmaExample/
    2590 000a49 EC31          AMOV #$C$FSL28, XAR3 ; |895| 
         000a4b BE00 
         000a4d 0362+
    2591 000a4f EB00          MOV XAR3, dbl(*SP(#0))
TMS320C55x Assembler PC v4.4.1 Sat Sep 29 23:09:00 2018

Tools Copyright (c) 1996-2012 Texas Instruments Incorporated
csl_mmcsd_dma_example.asm                                            PAGE   61

         000a51 B5   
    2592              $C$DW$265       .dwtag  DW_TAG_TI_branch
    2593                      .dwattr $C$DW$265, DW_AT_low_pc(0x00)
    2594                      .dwattr $C$DW$265, DW_AT_name("_printf")
    2595                      .dwattr $C$DW$265, DW_AT_TI_call
    2596 000a52 6C00          CALL #_printf ; |895| 
         000a54 0000!
    2597                                                      ; call occurs [#_printf] ; |895| 
    2598                      .dwpsn  file "../c5535_bsl_revc/ezdsp5535_v1/c55xx_csl/ccs_v4.0_examples/mmc_sd/CSL_MMCSD_dmaExample/
    2599 000a56 A410          MOV *SP(#8), T0 ; |896| 
    2600 000a58 0602          B $C$L88  ; |896| 
         000a5a A9   
    2601                                                      ; branch occurs ; |896| 
    2602 000a5b       $C$L70:    
    2603                      .dwpsn  file "../c5535_bsl_revc/ezdsp5535_v1/c55xx_csl/ccs_v4.0_examples/mmc_sd/CSL_MMCSD_dmaExample/
    2604 000a5b EC1A          AMAR *SP(#13), XAR2
         000a5d AE   
    2605 000a5e ED31          MOV dbl(*(#_mmcsdHandle)), XAR0
         000a60 8F00 
         000a62 0040-
    2606 000a64 EC31          AMOV #_mmcCardObj, XAR1 ; |900| 
         000a66 9E00 
         000a68 0042-
    2607              $C$DW$266       .dwtag  DW_TAG_TI_branch
    2608                      .dwattr $C$DW$266, DW_AT_low_pc(0x00)
    2609                      .dwattr $C$DW$266, DW_AT_name("_SD_sendRca")
    2610                      .dwattr $C$DW$266, DW_AT_TI_call
    2611 000a6a 6C00          CALL #_SD_sendRca ; |900| 
         000a6c 0000!
    2612                                                      ; call occurs [#_SD_sendRca] ; |900| 
    2613 000a6e C410          MOV T0, *SP(#8) ; |900| 
    2614                      .dwpsn  file "../c5535_bsl_revc/ezdsp5535_v1/c55xx_csl/ccs_v4.0_examples/mmc_sd/CSL_MMCSD_dmaExample/
    2615 000a70 2249          MOV T0, AR1
    2616 000a72 0409          BCC $C$L71,AR1 == #0 ; |901| 
         000a74 12   
    2617                                                      ; branchcc occurs ; |901| 
    2618                      .dwpsn  file "../c5535_bsl_revc/ezdsp5535_v1/c55xx_csl/ccs_v4.0_examples/mmc_sd/CSL_MMCSD_dmaExample/
    2619 000a75 EC31          AMOV #$C$FSL29, XAR3 ; |903| 
         000a77 BE00 
         000a79 037E+
    2620 000a7b EB00          MOV XAR3, dbl(*SP(#0))
         000a7d B5   
    2621              $C$DW$267       .dwtag  DW_TAG_TI_branch
    2622                      .dwattr $C$DW$267, DW_AT_low_pc(0x00)
    2623                      .dwattr $C$DW$267, DW_AT_name("_printf")
    2624                      .dwattr $C$DW$267, DW_AT_TI_call
    2625 000a7e 6C00          CALL #_printf ; |903| 
         000a80 0000!
    2626                                                      ; call occurs [#_printf] ; |903| 
    2627                      .dwpsn  file "../c5535_bsl_revc/ezdsp5535_v1/c55xx_csl/ccs_v4.0_examples/mmc_sd/CSL_MMCSD_dmaExample/
    2628 000a82 A410          MOV *SP(#8), T0 ; |904| 
    2629 000a84 0602          B $C$L88  ; |904| 
         000a86 7D   
    2630                                                      ; branch occurs ; |904| 
    2631 000a87       $C$L71:    
TMS320C55x Assembler PC v4.4.1 Sat Sep 29 23:09:00 2018

Tools Copyright (c) 1996-2012 Texas Instruments Incorporated
csl_mmcsd_dma_example.asm                                            PAGE   62

    2632                      .dwpsn  file "../c5535_bsl_revc/ezdsp5535_v1/c55xx_csl/ccs_v4.0_examples/mmc_sd/CSL_MMCSD_dmaExample/
    2633 000a87 ED31          MOV dbl(*(#_mmcsdHandle)), XAR0
         000a89 8F00 
         000a8b 0040-
    2634 000a8d EC31          AMOV #_cardCsdObj, XAR1 ; |908| 
         000a8f 9E00 
         000a91 0070-
    2635              $C$DW$268       .dwtag  DW_TAG_TI_branch
    2636                      .dwattr $C$DW$268, DW_AT_low_pc(0x00)
    2637                      .dwattr $C$DW$268, DW_AT_name("_SD_getCardCsd")
    2638                      .dwattr $C$DW$268, DW_AT_TI_call
    2639 000a93 6C00          CALL #_SD_getCardCsd ; |908| 
         000a95 0000!
    2640                                                      ; call occurs [#_SD_getCardCsd] ; |908| 
    2641 000a97 C410          MOV T0, *SP(#8) ; |908| 
    2642                      .dwpsn  file "../c5535_bsl_revc/ezdsp5535_v1/c55xx_csl/ccs_v4.0_examples/mmc_sd/CSL_MMCSD_dmaExample/
    2643 000a99 2249          MOV T0, AR1
    2644 000a9b 0409          BCC $C$L72,AR1 == #0 ; |909| 
         000a9d 12   
    2645                                                      ; branchcc occurs ; |909| 
    2646                      .dwpsn  file "../c5535_bsl_revc/ezdsp5535_v1/c55xx_csl/ccs_v4.0_examples/mmc_sd/CSL_MMCSD_dmaExample/
    2647 000a9e EC31          AMOV #$C$FSL30, XAR3 ; |911| 
         000aa0 BE00 
         000aa2 0396+
    2648 000aa4 EB00          MOV XAR3, dbl(*SP(#0))
         000aa6 B5   
    2649              $C$DW$269       .dwtag  DW_TAG_TI_branch
    2650                      .dwattr $C$DW$269, DW_AT_low_pc(0x00)
    2651                      .dwattr $C$DW$269, DW_AT_name("_printf")
    2652                      .dwattr $C$DW$269, DW_AT_TI_call
    2653 000aa7 6C00          CALL #_printf ; |911| 
         000aa9 0000!
    2654                                                      ; call occurs [#_printf] ; |911| 
    2655                      .dwpsn  file "../c5535_bsl_revc/ezdsp5535_v1/c55xx_csl/ccs_v4.0_examples/mmc_sd/CSL_MMCSD_dmaExample/
    2656 000aab A410          MOV *SP(#8), T0 ; |912| 
    2657 000aad 0602          B $C$L88  ; |912| 
         000aaf 54   
    2658                                                      ; branch occurs ; |912| 
    2659 000ab0       $C$L72:    
    2660                      .dwpsn  file "../c5535_bsl_revc/ezdsp5535_v1/c55xx_csl/ccs_v4.0_examples/mmc_sd/CSL_MMCSD_dmaExample/
    2661 000ab0 764E          MOV #20000, AC0 ; |916| 
         000ab2 2008 
    2662              $C$DW$270       .dwtag  DW_TAG_TI_branch
    2663                      .dwattr $C$DW$270, DW_AT_low_pc(0x00)
    2664                      .dwattr $C$DW$270, DW_AT_name("_computeClkRate")
    2665                      .dwattr $C$DW$270, DW_AT_TI_call
    2666 000ab4 0802          CALL #_computeClkRate ; |916| 
         000ab6 51   
    2667                                                      ; call occurs [#_computeClkRate] ; |916| 
    2668 000ab7 C416          MOV T0, *SP(#11) ; |916| 
    2669                      .dwpsn  file "../c5535_bsl_revc/ezdsp5535_v1/c55xx_csl/ccs_v4.0_examples/mmc_sd/CSL_MMCSD_dmaExample/
    2670 000ab9 4A1F          B $C$L74  ; |917| 
    2671                                                      ; branch occurs ; |917| 
    2672 000abb       $C$L73:    
    2673                      .dwpsn  file "../c5535_bsl_revc/ezdsp5535_v1/c55xx_csl/ccs_v4.0_examples/mmc_sd/CSL_MMCSD_dmaExample/
TMS320C55x Assembler PC v4.4.1 Sat Sep 29 23:09:00 2018

Tools Copyright (c) 1996-2012 Texas Instruments Incorporated
csl_mmcsd_dma_example.asm                                            PAGE   63

    2674 000abb EC31          AMOV #$C$FSL31, XAR3 ; |920| 
         000abd BE00 
         000abf 03B2+
    2675 000ac1 EB00          MOV XAR3, dbl(*SP(#0))
         000ac3 B5   
    2676              $C$DW$271       .dwtag  DW_TAG_TI_branch
    2677                      .dwattr $C$DW$271, DW_AT_low_pc(0x00)
    2678                      .dwattr $C$DW$271, DW_AT_name("_printf")
    2679                      .dwattr $C$DW$271, DW_AT_TI_call
    2680 000ac4 6C00          CALL #_printf ; |920| 
         000ac6 0000!
    2681                                                      ; call occurs [#_printf] ; |920| 
    2682                      .dwpsn  file "../c5535_bsl_revc/ezdsp5535_v1/c55xx_csl/ccs_v4.0_examples/mmc_sd/CSL_MMCSD_dmaExample/
    2683 000ac8 EC31          AMOV #$C$FSL32, XAR3 ; |921| 
         000aca BE00 
         000acc 03C6+
    2684 000ace EB00          MOV XAR3, dbl(*SP(#0))
         000ad0 B5   
    2685              $C$DW$272       .dwtag  DW_TAG_TI_branch
    2686                      .dwattr $C$DW$272, DW_AT_low_pc(0x00)
    2687                      .dwattr $C$DW$272, DW_AT_name("_printf")
    2688                      .dwattr $C$DW$272, DW_AT_TI_call
    2689 000ad1 6C00          CALL #_printf ; |921| 
         000ad3 0000!
    2690                                                      ; call occurs [#_printf] ; |921| 
    2691                      .dwpsn  file "../c5535_bsl_revc/ezdsp5535_v1/c55xx_csl/ccs_v4.0_examples/mmc_sd/CSL_MMCSD_dmaExample/
    2692 000ad5 3E14          MOV #-1, T0
    2693 000ad7 0602          B $C$L88  ; |922| 
         000ad9 2A   
    2694                                                      ; branch occurs ; |922| 
    2695 000ada       $C$L74:    
    2696                      .dwpsn  file "../c5535_bsl_revc/ezdsp5535_v1/c55xx_csl/ccs_v4.0_examples/mmc_sd/CSL_MMCSD_dmaExample/
    2697 000ada A418          MOV *SP(#12), T0 ; |926| 
    2698 000adc EC31          AMOV #_mmcCardObj, XAR0 ; |926| 
         000ade 8E00 
         000ae0 0042-
    2699              $C$DW$273       .dwtag  DW_TAG_TI_branch
    2700                      .dwattr $C$DW$273, DW_AT_low_pc(0x00)
    2701                      .dwattr $C$DW$273, DW_AT_name("_MMC_setCardType")
    2702                      .dwattr $C$DW$273, DW_AT_TI_call
    2703 000ae2 6C00          CALL #_MMC_setCardType ; |926| 
         000ae4 0000!
    2704                                                      ; call occurs [#_MMC_setCardType] ; |926| 
    2705 000ae6 C410          MOV T0, *SP(#8) ; |926| 
    2706                      .dwpsn  file "../c5535_bsl_revc/ezdsp5535_v1/c55xx_csl/ccs_v4.0_examples/mmc_sd/CSL_MMCSD_dmaExample/
    2707 000ae8 2249          MOV T0, AR1
    2708 000aea 0409          BCC $C$L75,AR1 == #0 ; |927| 
         000aec 12   
    2709                                                      ; branchcc occurs ; |927| 
    2710                      .dwpsn  file "../c5535_bsl_revc/ezdsp5535_v1/c55xx_csl/ccs_v4.0_examples/mmc_sd/CSL_MMCSD_dmaExample/
    2711 000aed EC31          AMOV #$C$FSL33, XAR3 ; |929| 
         000aef BE00 
         000af1 03DC+
    2712 000af3 EB00          MOV XAR3, dbl(*SP(#0))
         000af5 B5   
TMS320C55x Assembler PC v4.4.1 Sat Sep 29 23:09:00 2018

Tools Copyright (c) 1996-2012 Texas Instruments Incorporated
csl_mmcsd_dma_example.asm                                            PAGE   64

    2713              $C$DW$274       .dwtag  DW_TAG_TI_branch
    2714                      .dwattr $C$DW$274, DW_AT_low_pc(0x00)
    2715                      .dwattr $C$DW$274, DW_AT_name("_printf")
    2716                      .dwattr $C$DW$274, DW_AT_TI_call
    2717 000af6 6C00          CALL #_printf ; |929| 
         000af8 0000!
    2718                                                      ; call occurs [#_printf] ; |929| 
    2719                      .dwpsn  file "../c5535_bsl_revc/ezdsp5535_v1/c55xx_csl/ccs_v4.0_examples/mmc_sd/CSL_MMCSD_dmaExample/
    2720 000afa A410          MOV *SP(#8), T0 ; |930| 
    2721 000afc 0602          B $C$L88  ; |930| 
         000afe 05   
    2722                                                      ; branch occurs ; |930| 
    2723 000aff       $C$L75:    
    2724                      .dwpsn  file "../c5535_bsl_revc/ezdsp5535_v1/c55xx_csl/ccs_v4.0_examples/mmc_sd/CSL_MMCSD_dmaExample/
    2725 000aff ED31          MOV dbl(*(#_mmcsdHandle)), XAR0
         000b01 8F00 
         000b03 0040-
    2726 000b05 EC31          AMOV #_mmcCardObj, XAR1 ; |934| 
         000b07 9E00 
         000b09 0042-
    2727              $C$DW$275       .dwtag  DW_TAG_TI_branch
    2728                      .dwattr $C$DW$275, DW_AT_low_pc(0x00)
    2729                      .dwattr $C$DW$275, DW_AT_name("_MMC_setCardPtr")
    2730                      .dwattr $C$DW$275, DW_AT_TI_call
    2731 000b0b 6C00          CALL #_MMC_setCardPtr ; |934| 
         000b0d 0000!
    2732                                                      ; call occurs [#_MMC_setCardPtr] ; |934| 
    2733 000b0f C410          MOV T0, *SP(#8) ; |934| 
    2734                      .dwpsn  file "../c5535_bsl_revc/ezdsp5535_v1/c55xx_csl/ccs_v4.0_examples/mmc_sd/CSL_MMCSD_dmaExample/
    2735 000b11 2249          MOV T0, AR1
    2736 000b13 0409          BCC $C$L76,AR1 == #0 ; |935| 
         000b15 12   
    2737                                                      ; branchcc occurs ; |935| 
    2738                      .dwpsn  file "../c5535_bsl_revc/ezdsp5535_v1/c55xx_csl/ccs_v4.0_examples/mmc_sd/CSL_MMCSD_dmaExample/
    2739 000b16 EC31          AMOV #$C$FSL34, XAR3 ; |937| 
         000b18 BE00 
         000b1a 03FA+
    2740 000b1c EB00          MOV XAR3, dbl(*SP(#0))
         000b1e B5   
    2741              $C$DW$276       .dwtag  DW_TAG_TI_branch
    2742                      .dwattr $C$DW$276, DW_AT_low_pc(0x00)
    2743                      .dwattr $C$DW$276, DW_AT_name("_printf")
    2744                      .dwattr $C$DW$276, DW_AT_TI_call
    2745 000b1f 6C00          CALL #_printf ; |937| 
         000b21 0000!
    2746                                                      ; call occurs [#_printf] ; |937| 
    2747                      .dwpsn  file "../c5535_bsl_revc/ezdsp5535_v1/c55xx_csl/ccs_v4.0_examples/mmc_sd/CSL_MMCSD_dmaExample/
    2748 000b23 A410          MOV *SP(#8), T0 ; |938| 
    2749 000b25 0601          B $C$L88  ; |938| 
         000b27 DC   
    2750                                                      ; branch occurs ; |938| 
    2751 000b28       $C$L76:    
    2752                      .dwpsn  file "../c5535_bsl_revc/ezdsp5535_v1/c55xx_csl/ccs_v4.0_examples/mmc_sd/CSL_MMCSD_dmaExample/
    2753 000b28 EC14          AMAR *SP(#10), XAR1
         000b2a 9E   
TMS320C55x Assembler PC v4.4.1 Sat Sep 29 23:09:00 2018

Tools Copyright (c) 1996-2012 Texas Instruments Incorporated
csl_mmcsd_dma_example.asm                                            PAGE   65

    2754 000b2b ED31          MOV dbl(*(#_mmcsdHandle)), XAR0
         000b2d 8F00 
         000b2f 0040-
    2755              $C$DW$277       .dwtag  DW_TAG_TI_branch
    2756                      .dwattr $C$DW$277, DW_AT_low_pc(0x00)
    2757                      .dwattr $C$DW$277, DW_AT_name("_MMC_getNumberOfCards")
    2758                      .dwattr $C$DW$277, DW_AT_TI_call
    2759 000b31 6C00          CALL #_MMC_getNumberOfCards ; |942| 
         000b33 0000!
    2760                                                      ; call occurs [#_MMC_getNumberOfCards] ; |942| 
    2761 000b35 C410          MOV T0, *SP(#8) ; |942| 
    2762                      .dwpsn  file "../c5535_bsl_revc/ezdsp5535_v1/c55xx_csl/ccs_v4.0_examples/mmc_sd/CSL_MMCSD_dmaExample/
    2763 000b37 2249          MOV T0, AR1
    2764 000b39 0409          BCC $C$L77,AR1 == #0 ; |943| 
         000b3b 12   
    2765                                                      ; branchcc occurs ; |943| 
    2766                      .dwpsn  file "../c5535_bsl_revc/ezdsp5535_v1/c55xx_csl/ccs_v4.0_examples/mmc_sd/CSL_MMCSD_dmaExample/
    2767 000b3c EC31          AMOV #$C$FSL35, XAR3 ; |945| 
         000b3e BE00 
         000b40 0416+
    2768 000b42 EB00          MOV XAR3, dbl(*SP(#0))
         000b44 B5   
    2769              $C$DW$278       .dwtag  DW_TAG_TI_branch
    2770                      .dwattr $C$DW$278, DW_AT_low_pc(0x00)
    2771                      .dwattr $C$DW$278, DW_AT_name("_printf")
    2772                      .dwattr $C$DW$278, DW_AT_TI_call
    2773 000b45 6C00          CALL #_printf ; |945| 
         000b47 0000!
    2774                                                      ; call occurs [#_printf] ; |945| 
    2775                      .dwpsn  file "../c5535_bsl_revc/ezdsp5535_v1/c55xx_csl/ccs_v4.0_examples/mmc_sd/CSL_MMCSD_dmaExample/
    2776 000b49 A410          MOV *SP(#8), T0 ; |946| 
    2777 000b4b 0601          B $C$L88  ; |946| 
         000b4d B6   
    2778                                                      ; branch occurs ; |946| 
    2779 000b4e       $C$L77:    
    2780                      .dwpsn  file "../c5535_bsl_revc/ezdsp5535_v1/c55xx_csl/ccs_v4.0_examples/mmc_sd/CSL_MMCSD_dmaExample/
    2781              $C$DW$279       .dwtag  DW_TAG_TI_branch
    2782                      .dwattr $C$DW$279, DW_AT_low_pc(0x00)
    2783                      .dwattr $C$DW$279, DW_AT_name("_IRQ_globalEnable")
    2784                      .dwattr $C$DW$279, DW_AT_TI_call
    2785 000b4e 6C00          CALL #_IRQ_globalEnable ; |950| 
         000b50 0000!
    2786                                                      ; call occurs [#_IRQ_globalEnable] ; |950| 
    2787                      .dwpsn  file "../c5535_bsl_revc/ezdsp5535_v1/c55xx_csl/ccs_v4.0_examples/mmc_sd/CSL_MMCSD_dmaExample/
    2788 000b52 E631          MOV #0, *(#_gMmcIntr) ; |952| 
         000b54 0000 
         000b56 0097-
    2789                      .dwpsn  file "../c5535_bsl_revc/ezdsp5535_v1/c55xx_csl/ccs_v4.0_examples/mmc_sd/CSL_MMCSD_dmaExample/
    2790 000b58 A416          MOV *SP(#11), T0 ; |955| 
    2791 000b5a ED31          MOV dbl(*(#_mmcsdHandle)), XAR0
         000b5c 8F00 
         000b5e 0040-
    2792              $C$DW$280       .dwtag  DW_TAG_TI_branch
    2793                      .dwattr $C$DW$280, DW_AT_low_pc(0x00)
    2794                      .dwattr $C$DW$280, DW_AT_name("_MMC_sendOpCond")
TMS320C55x Assembler PC v4.4.1 Sat Sep 29 23:09:00 2018

Tools Copyright (c) 1996-2012 Texas Instruments Incorporated
csl_mmcsd_dma_example.asm                                            PAGE   66

    2795                      .dwattr $C$DW$280, DW_AT_TI_call
    2796 000b60 6C00          CALL #_MMC_sendOpCond ; |955| 
         000b62 0000!
    2797                                                      ; call occurs [#_MMC_sendOpCond] ; |955| 
    2798 000b64 C410          MOV T0, *SP(#8) ; |955| 
    2799                      .dwpsn  file "../c5535_bsl_revc/ezdsp5535_v1/c55xx_csl/ccs_v4.0_examples/mmc_sd/CSL_MMCSD_dmaExample/
    2800 000b66 2249          MOV T0, AR1
    2801 000b68 0409          BCC $C$L78,AR1 == #0 ; |956| 
         000b6a 12   
    2802                                                      ; branchcc occurs ; |956| 
    2803                      .dwpsn  file "../c5535_bsl_revc/ezdsp5535_v1/c55xx_csl/ccs_v4.0_examples/mmc_sd/CSL_MMCSD_dmaExample/
    2804 000b6b EC31          AMOV #$C$FSL27, XAR3 ; |958| 
         000b6d BE00 
         000b6f 0346+
    2805 000b71 EB00          MOV XAR3, dbl(*SP(#0))
         000b73 B5   
    2806              $C$DW$281       .dwtag  DW_TAG_TI_branch
    2807                      .dwattr $C$DW$281, DW_AT_low_pc(0x00)
    2808                      .dwattr $C$DW$281, DW_AT_name("_printf")
    2809                      .dwattr $C$DW$281, DW_AT_TI_call
    2810 000b74 6C00          CALL #_printf ; |958| 
         000b76 0000!
    2811                                                      ; call occurs [#_printf] ; |958| 
    2812                      .dwpsn  file "../c5535_bsl_revc/ezdsp5535_v1/c55xx_csl/ccs_v4.0_examples/mmc_sd/CSL_MMCSD_dmaExample/
    2813 000b78 A410          MOV *SP(#8), T0 ; |959| 
    2814 000b7a 0601          B $C$L88  ; |959| 
         000b7c 87   
    2815                                                      ; branch occurs ; |959| 
    2816 000b7d       $C$L78:    
    2817                      .dwpsn  file "../c5535_bsl_revc/ezdsp5535_v1/c55xx_csl/ccs_v4.0_examples/mmc_sd/CSL_MMCSD_dmaExample/
    2818 000b7d ED31          MOV dbl(*(#_mmcsdHandle)), XAR0
         000b7f 8F00 
         000b81 0040-
    2819 000b83 3C04          MOV #0, T0
    2820              $C$DW$282       .dwtag  DW_TAG_TI_branch
    2821                      .dwattr $C$DW$282, DW_AT_low_pc(0x00)
    2822                      .dwattr $C$DW$282, DW_AT_name("_MMC_setEndianMode")
    2823                      .dwattr $C$DW$282, DW_AT_TI_call
    2824              
    2825 000b85 6C00          CALL #_MMC_setEndianMode ; |963| 
         000b87 0000!
    2826 000b89 3D05  ||      MOV #0, T1
    2827              
    2828                                                      ; call occurs [#_MMC_setEndianMode] ; |963| 
    2829 000b8b C410          MOV T0, *SP(#8) ; |963| 
    2830                      .dwpsn  file "../c5535_bsl_revc/ezdsp5535_v1/c55xx_csl/ccs_v4.0_examples/mmc_sd/CSL_MMCSD_dmaExample/
    2831 000b8d 2249          MOV T0, AR1
    2832 000b8f 0409          BCC $C$L79,AR1 == #0 ; |965| 
         000b91 12   
    2833                                                      ; branchcc occurs ; |965| 
    2834                      .dwpsn  file "../c5535_bsl_revc/ezdsp5535_v1/c55xx_csl/ccs_v4.0_examples/mmc_sd/CSL_MMCSD_dmaExample/
    2835 000b92 EC31          AMOV #$C$FSL36, XAR3 ; |967| 
         000b94 BE00 
         000b96 0438+
    2836 000b98 EB00          MOV XAR3, dbl(*SP(#0))
TMS320C55x Assembler PC v4.4.1 Sat Sep 29 23:09:00 2018

Tools Copyright (c) 1996-2012 Texas Instruments Incorporated
csl_mmcsd_dma_example.asm                                            PAGE   67

         000b9a B5   
    2837              $C$DW$283       .dwtag  DW_TAG_TI_branch
    2838                      .dwattr $C$DW$283, DW_AT_low_pc(0x00)
    2839                      .dwattr $C$DW$283, DW_AT_name("_printf")
    2840                      .dwattr $C$DW$283, DW_AT_TI_call
    2841 000b9b 6C00          CALL #_printf ; |967| 
         000b9d 0000!
    2842                                                      ; call occurs [#_printf] ; |967| 
    2843                      .dwpsn  file "../c5535_bsl_revc/ezdsp5535_v1/c55xx_csl/ccs_v4.0_examples/mmc_sd/CSL_MMCSD_dmaExample/
    2844 000b9f A410          MOV *SP(#8), T0 ; |968| 
    2845 000ba1 0601          B $C$L88  ; |968| 
         000ba3 60   
    2846                                                      ; branch occurs ; |968| 
    2847 000ba4       $C$L79:    
    2848                      .dwpsn  file "../c5535_bsl_revc/ezdsp5535_v1/c55xx_csl/ccs_v4.0_examples/mmc_sd/CSL_MMCSD_dmaExample/
    2849 000ba4 ED31          MOV dbl(*(#_mmcsdHandle)), XAR0
         000ba6 8F00 
         000ba8 0040-
    2850 000baa 7602          MOV #512, AC0 ; |975| 
         000bac 0008 
    2851              $C$DW$284       .dwtag  DW_TAG_TI_branch
    2852                      .dwattr $C$DW$284, DW_AT_low_pc(0x00)
    2853                      .dwattr $C$DW$284, DW_AT_name("_MMC_setBlockLength")
    2854                      .dwattr $C$DW$284, DW_AT_TI_call
    2855 000bae 6C00          CALL #_MMC_setBlockLength ; |975| 
         000bb0 0000!
    2856                                                      ; call occurs [#_MMC_setBlockLength] ; |975| 
    2857 000bb2 C410          MOV T0, *SP(#8) ; |975| 
    2858                      .dwpsn  file "../c5535_bsl_revc/ezdsp5535_v1/c55xx_csl/ccs_v4.0_examples/mmc_sd/CSL_MMCSD_dmaExample/
    2859 000bb4 2249          MOV T0, AR1
    2860 000bb6 0409          BCC $C$L80,AR1 == #0 ; |976| 
         000bb8 12   
    2861                                                      ; branchcc occurs ; |976| 
    2862                      .dwpsn  file "../c5535_bsl_revc/ezdsp5535_v1/c55xx_csl/ccs_v4.0_examples/mmc_sd/CSL_MMCSD_dmaExample/
    2863 000bb9 EC31          AMOV #$C$FSL37, XAR3 ; |978| 
         000bbb BE00 
         000bbd 0458+
    2864 000bbf EB00          MOV XAR3, dbl(*SP(#0))
         000bc1 B5   
    2865              $C$DW$285       .dwtag  DW_TAG_TI_branch
    2866                      .dwattr $C$DW$285, DW_AT_low_pc(0x00)
    2867                      .dwattr $C$DW$285, DW_AT_name("_printf")
    2868                      .dwattr $C$DW$285, DW_AT_TI_call
    2869 000bc2 6C00          CALL #_printf ; |978| 
         000bc4 0000!
    2870                                                      ; call occurs [#_printf] ; |978| 
    2871                      .dwpsn  file "../c5535_bsl_revc/ezdsp5535_v1/c55xx_csl/ccs_v4.0_examples/mmc_sd/CSL_MMCSD_dmaExample/
    2872 000bc6 A410          MOV *SP(#8), T0 ; |979| 
    2873 000bc8 0601          B $C$L88  ; |979| 
         000bca 39   
    2874                                                      ; branch occurs ; |979| 
    2875 000bcb       $C$L80:    
    2876                      .dwpsn  file "../c5535_bsl_revc/ezdsp5535_v1/c55xx_csl/ccs_v4.0_examples/mmc_sd/CSL_MMCSD_dmaExample/
    2877 000bcb F031          CMP *(#(_mmcCardObj+18)) == #1, TC1 ; |982| 
         000bcd 0001 
TMS320C55x Assembler PC v4.4.1 Sat Sep 29 23:09:00 2018

Tools Copyright (c) 1996-2012 Texas Instruments Incorporated
csl_mmcsd_dma_example.asm                                            PAGE   68

         000bcf 0000 
         000bd1 54-  
    2878 000bd2 0474          BCC $C$L81,!TC1 ; |982| 
         000bd4 25   
    2879                                                      ; branchcc occurs ; |982| 
    2880                      .dwpsn  file "../c5535_bsl_revc/ezdsp5535_v1/c55xx_csl/ccs_v4.0_examples/mmc_sd/CSL_MMCSD_dmaExample/
    2881 000bd5 ED31          MOV dbl(*(#_mmcsdHandle)), XAR0
         000bd7 8F00 
         000bd9 0040-
    2882              $C$DW$286       .dwtag  DW_TAG_TI_branch
    2883                      .dwattr $C$DW$286, DW_AT_low_pc(0x00)
    2884                      .dwattr $C$DW$286, DW_AT_name("_MMC_setWriteBlkEraseCnt")
    2885                      .dwattr $C$DW$286, DW_AT_TI_call
    2886              
    2887 000bdb 6C00          CALL #_MMC_setWriteBlkEraseCnt ; |985| 
         000bdd 0000!
    2888 000bdf 3D10  ||      MOV #1, AC0 ; |985| 
    2889              
    2890                                                      ; call occurs [#_MMC_setWriteBlkEraseCnt] ; |985| 
    2891 000be1 C410          MOV T0, *SP(#8) ; |985| 
    2892                      .dwpsn  file "../c5535_bsl_revc/ezdsp5535_v1/c55xx_csl/ccs_v4.0_examples/mmc_sd/CSL_MMCSD_dmaExample/
    2893 000be3 2249          MOV T0, AR1
    2894 000be5 0409          BCC $C$L81,AR1 == #0 ; |986| 
         000be7 12   
    2895                                                      ; branchcc occurs ; |986| 
    2896                      .dwpsn  file "../c5535_bsl_revc/ezdsp5535_v1/c55xx_csl/ccs_v4.0_examples/mmc_sd/CSL_MMCSD_dmaExample/
    2897 000be8 EC31          AMOV #$C$FSL50, XAR3 ; |988| 
         000bea BE00 
         000bec 05FA+
    2898 000bee EB00          MOV XAR3, dbl(*SP(#0))
         000bf0 B5   
    2899              $C$DW$287       .dwtag  DW_TAG_TI_branch
    2900                      .dwattr $C$DW$287, DW_AT_low_pc(0x00)
    2901                      .dwattr $C$DW$287, DW_AT_name("_printf")
    2902                      .dwattr $C$DW$287, DW_AT_TI_call
    2903 000bf1 6C00          CALL #_printf ; |988| 
         000bf3 0000!
    2904                                                      ; call occurs [#_printf] ; |988| 
    2905                      .dwpsn  file "../c5535_bsl_revc/ezdsp5535_v1/c55xx_csl/ccs_v4.0_examples/mmc_sd/CSL_MMCSD_dmaExample/
    2906 000bf5 A410          MOV *SP(#8), T0 ; |989| 
    2907 000bf7 0601          B $C$L88  ; |989| 
         000bf9 0A   
    2908                                                      ; branch occurs ; |989| 
    2909 000bfa       $C$L81:    
    2910                      .dwpsn  file "../c5535_bsl_revc/ezdsp5535_v1/c55xx_csl/ccs_v4.0_examples/mmc_sd/CSL_MMCSD_dmaExample/
    2911 000bfa ED0C          MOV dbl(*SP(#6)), AC0 ; |994| 
         000bfc 08   
    2912 000bfd ED31          MOV dbl(*(#_mmcsdHandle)), XAR0
         000bff 8F00 
         000c01 0040-
    2913 000c03 EC31          AMOV #_gWriteTempBuff, XAR1 ; |994| 
         000c05 9E00 
         000c07 04B0-
    2914 000c09 7604          MOV #1024, T0 ; |994| 
         000c0b 0048 
TMS320C55x Assembler PC v4.4.1 Sat Sep 29 23:09:00 2018

Tools Copyright (c) 1996-2012 Texas Instruments Incorporated
csl_mmcsd_dma_example.asm                                            PAGE   69

    2915              $C$DW$288       .dwtag  DW_TAG_TI_branch
    2916                      .dwattr $C$DW$288, DW_AT_low_pc(0x00)
    2917                      .dwattr $C$DW$288, DW_AT_name("_MMC_write")
    2918                      .dwattr $C$DW$288, DW_AT_TI_call
    2919 000c0d 6C00          CALL #_MMC_write ; |994| 
         000c0f 0000!
    2920                                                      ; call occurs [#_MMC_write] ; |994| 
    2921 000c11 C410          MOV T0, *SP(#8) ; |994| 
    2922                      .dwpsn  file "../c5535_bsl_revc/ezdsp5535_v1/c55xx_csl/ccs_v4.0_examples/mmc_sd/CSL_MMCSD_dmaExample/
    2923 000c13 2249          MOV T0, AR1
    2924 000c15 0409          BCC $C$L82,AR1 == #0 ; |996| 
         000c17 12   
    2925                                                      ; branchcc occurs ; |996| 
    2926                      .dwpsn  file "../c5535_bsl_revc/ezdsp5535_v1/c55xx_csl/ccs_v4.0_examples/mmc_sd/CSL_MMCSD_dmaExample/
    2927 000c18 EC31          AMOV #$C$FSL38, XAR3 ; |998| 
         000c1a BE00 
         000c1c 0478+
    2928 000c1e EB00          MOV XAR3, dbl(*SP(#0))
         000c20 B5   
    2929              $C$DW$289       .dwtag  DW_TAG_TI_branch
    2930                      .dwattr $C$DW$289, DW_AT_low_pc(0x00)
    2931                      .dwattr $C$DW$289, DW_AT_name("_printf")
    2932                      .dwattr $C$DW$289, DW_AT_TI_call
    2933 000c21 6C00          CALL #_printf ; |998| 
         000c23 0000!
    2934                                                      ; call occurs [#_printf] ; |998| 
    2935                      .dwpsn  file "../c5535_bsl_revc/ezdsp5535_v1/c55xx_csl/ccs_v4.0_examples/mmc_sd/CSL_MMCSD_dmaExample/
    2936 000c25 A410          MOV *SP(#8), T0 ; |999| 
    2937 000c27 0600          B $C$L88  ; |999| 
         000c29 DA   
    2938                                                      ; branch occurs ; |999| 
    2939 000c2a       $C$L82:    
    2940                      .dwpsn  file "../c5535_bsl_revc/ezdsp5535_v1/c55xx_csl/ccs_v4.0_examples/mmc_sd/CSL_MMCSD_dmaExample/
    2941 000c2a EC31          AMOV #$C$FSL39, XAR3 ; |1003| 
         000c2c BE00 
         000c2e 0490+
    2942 000c30 EB00          MOV XAR3, dbl(*SP(#0))
         000c32 B5   
    2943              $C$DW$290       .dwtag  DW_TAG_TI_branch
    2944                      .dwattr $C$DW$290, DW_AT_low_pc(0x00)
    2945                      .dwattr $C$DW$290, DW_AT_name("_printf")
    2946                      .dwattr $C$DW$290, DW_AT_TI_call
    2947 000c33 6C00          CALL #_printf ; |1003| 
         000c35 0000!
    2948                                                      ; call occurs [#_printf] ; |1003| 
    2949                      .dwpsn  file "../c5535_bsl_revc/ezdsp5535_v1/c55xx_csl/ccs_v4.0_examples/mmc_sd/CSL_MMCSD_dmaExample/
    2950 000c37 E631          MOV #0, *(#_gMmcIntr) ; |1006| 
         000c39 0000 
         000c3b 0097-
    2951                      .dwpsn  file "../c5535_bsl_revc/ezdsp5535_v1/c55xx_csl/ccs_v4.0_examples/mmc_sd/CSL_MMCSD_dmaExample/
    2952 000c3d 7604          MOV #1024, T0 ; |1009| 
         000c3f 0048 
    2953 000c41 EC31          AMOV #_gReadBuff, XAR1 ; |1009| 
         000c43 9E00 
         000c45 00B0-
TMS320C55x Assembler PC v4.4.1 Sat Sep 29 23:09:00 2018

Tools Copyright (c) 1996-2012 Texas Instruments Incorporated
csl_mmcsd_dma_example.asm                                            PAGE   70

    2954 000c47 ED31          MOV dbl(*(#_mmcsdHandle)), XAR0
         000c49 8F00 
         000c4b 0040-
    2955 000c4d ED0C          MOV dbl(*SP(#6)), AC0 ; |1009| 
         000c4f 08   
    2956              $C$DW$291       .dwtag  DW_TAG_TI_branch
    2957                      .dwattr $C$DW$291, DW_AT_low_pc(0x00)
    2958                      .dwattr $C$DW$291, DW_AT_name("_MMC_read")
    2959                      .dwattr $C$DW$291, DW_AT_TI_call
    2960 000c50 6C00          CALL #_MMC_read ; |1009| 
         000c52 0000!
    2961                                                      ; call occurs [#_MMC_read] ; |1009| 
    2962 000c54 C410          MOV T0, *SP(#8) ; |1009| 
    2963                      .dwpsn  file "../c5535_bsl_revc/ezdsp5535_v1/c55xx_csl/ccs_v4.0_examples/mmc_sd/CSL_MMCSD_dmaExample/
    2964 000c56 2249          MOV T0, AR1
    2965 000c58 0409          BCC $C$L83,AR1 == #0 ; |1010| 
         000c5a 12   
    2966                                                      ; branchcc occurs ; |1010| 
    2967                      .dwpsn  file "../c5535_bsl_revc/ezdsp5535_v1/c55xx_csl/ccs_v4.0_examples/mmc_sd/CSL_MMCSD_dmaExample/
    2968 000c5b EC31          AMOV #$C$FSL40, XAR3 ; |1012| 
         000c5d BE00 
         000c5f 04AC+
    2969 000c61 EB00          MOV XAR3, dbl(*SP(#0))
         000c63 B5   
    2970              $C$DW$292       .dwtag  DW_TAG_TI_branch
    2971                      .dwattr $C$DW$292, DW_AT_low_pc(0x00)
    2972                      .dwattr $C$DW$292, DW_AT_name("_printf")
    2973                      .dwattr $C$DW$292, DW_AT_TI_call
    2974 000c64 6C00          CALL #_printf ; |1012| 
         000c66 0000!
    2975                                                      ; call occurs [#_printf] ; |1012| 
    2976                      .dwpsn  file "../c5535_bsl_revc/ezdsp5535_v1/c55xx_csl/ccs_v4.0_examples/mmc_sd/CSL_MMCSD_dmaExample/
    2977 000c68 A410          MOV *SP(#8), T0 ; |1013| 
    2978 000c6a 0600          B $C$L88  ; |1013| 
         000c6c 97   
    2979                                                      ; branch occurs ; |1013| 
    2980 000c6d       $C$L83:    
    2981                      .dwpsn  file "../c5535_bsl_revc/ezdsp5535_v1/c55xx_csl/ccs_v4.0_examples/mmc_sd/CSL_MMCSD_dmaExample/
    2982 000c6d EC31          AMOV #$C$FSL41, XAR3 ; |1017| 
         000c6f BE00 
         000c71 04C2+
    2983 000c73 EB00          MOV XAR3, dbl(*SP(#0))
         000c75 B5   
    2984              $C$DW$293       .dwtag  DW_TAG_TI_branch
    2985                      .dwattr $C$DW$293, DW_AT_low_pc(0x00)
