TMS320C55x Assembler PC v4.4.1 Sat Sep 29 23:09:33 2018

Tools Copyright (c) 1996-2012 Texas Instruments Incorporated
csl_i2s_DmaExample.asm                                               PAGE    1

    3463              ; Temporary Registers Used: None
       1              ;*******************************************************************************
       2              ;* TMS320C55x C/C++ Codegen                                          PC v4.4.1 *
       3              ;* Date/Time created: Sat Sep 29 23:09:33 2018                                 *
       4              ;*******************************************************************************
       5                      .compiler_opts --hll_source=on --mem_model:code=flat --mem_model:data=large --object_format=coff --si
       6                      .mmregs
       7                      .cpl_on
       8                      .arms_on
       9                      .c54cm_off
      10                      .asg AR6, FP
      11                      .asg XAR6, XFP
      12                      .asg DPH, MDP
      13                      .model call=c55_std
      14                      .model mem=large
      15                      .noremark 5002  ; code respects overwrite rules
      16              ;*******************************************************************************
      17              ;* GLOBAL FILE PARAMETERS                                                      *
      18              ;*                                                                             *
      19              ;*   Architecture       : TMS320C55x                                           *
      20              ;*   Optimizing for     : Speed                                                *
      21              ;*   Memory             : Large Model (23-Bit Data Pointers)                   *
      22              ;*   Calls              : Normal Library ASM calls                             *
      23              ;*   Debug Info         : Standard TI Debug Information                        *
      24              ;*******************************************************************************
      25              
      26              $C$DW$CU        .dwtag  DW_TAG_compile_unit
      27                      .dwattr $C$DW$CU, DW_AT_name("../c5535_bsl_revc/ezdsp5535_v1/c55xx_csl/ccs_v4.0_examples/i2s/CSL_I2S_
      28                      .dwattr $C$DW$CU, DW_AT_producer("TMS320C55x C/C++ Codegen PC v4.4.1 Copyright (c) 1996-2012 Texas In
      29                      .dwattr $C$DW$CU, DW_AT_TI_version(0x01)
      30                      .dwattr $C$DW$CU, DW_AT_comp_dir("F:\eZdsp_DBG\tmp1\c55x-sim2\foo\Debug")
      31              ;******************************************************************************
      32              ;* CINIT RECORDS                                                              *
      33              ;******************************************************************************
      34 000000               .sect   ".cinit"
      35                      .align  1
      36 000000 0002          .field          $C$IR_1,16
      37 000001 0000-         .field          _i2sDmaWriteLeftBuff+0,24
         000002 2000 
      38 000002 2000          .field          0,8
      39 000003 DEAD          .field  -559038737,32                   ; _i2sDmaWriteLeftBuff[0] @ 0
         000004 BEEF 
      40              $C$IR_1:        .set    2
      41              
      42 000005               .sect   ".cinit"
      43                      .align  1
      44 000005 0002          .field          $C$IR_2,16
      45 000006 0000-         .field          _i2sDmaWriteRightBuff+0,24
         000007 2800 
      46 000007 2800          .field          0,8
      47 000008 1234          .field  305419896,32                    ; _i2sDmaWriteRightBuff[0] @ 0
         000009 5678 
      48              $C$IR_2:        .set    2
      49              
      50 00000a               .sect   ".cinit"
TMS320C55x Assembler PC v4.4.1 Sat Sep 29 23:09:33 2018

Tools Copyright (c) 1996-2012 Texas Instruments Incorporated
csl_i2s_DmaExample.asm                                               PAGE    2

      51                      .align  1
      52 00000a 0002          .field          $C$IR_3,16
      53 00000b 0000-         .field          _i2sDmaReadLeftBuff+0,24
         00000c 3000 
      54 00000c 3000          .field          0,8
      55 00000d 0000          .field  0,32                    ; _i2sDmaReadLeftBuff[0] @ 0
         00000e 0000 
      56              $C$IR_3:        .set    2
      57              
      58 00000f               .sect   ".cinit"
      59                      .align  1
      60 00000f 0002          .field          $C$IR_4,16
      61 000010 0000-         .field          _i2sDmaReadRightBuff+0,24
         000011 3800 
      62 000011 3800          .field          0,8
      63 000012 0000          .field  0,32                    ; _i2sDmaReadRightBuff[0] @ 0
         000013 0000 
      64              $C$IR_4:        .set    2
      65              
      66 000014               .sect   ".cinit"
      67                      .align  1
      68 000014 0001          .field          1,16
      69 000015 0000-         .field          _PaSs_StAtE+0,24
         000016 0900 
      70 000016 0900          .field          0,8
      71 000017 0001          .field  1,16                    ; _PaSs_StAtE @ 0
      72              
      73 000018               .sect   ".cinit"
      74                      .align  1
      75 000018 0001          .field          1,16
      76 000019 0000-         .field          _PaSs+0,24
         00001a 2200 
      77 00001a 2200          .field          0,8
      78 00001b 0000          .field  0,16                    ; _PaSs @ 0
      79              
      80              
      81              $C$DW$1 .dwtag  DW_TAG_subprogram, DW_AT_name("DMA_init")
      82                      .dwattr $C$DW$1, DW_AT_TI_symbol_name("_DMA_init")
      83                      .dwattr $C$DW$1, DW_AT_type(*$C$DW$T$101)
      84                      .dwattr $C$DW$1, DW_AT_declaration
      85                      .dwattr $C$DW$1, DW_AT_external
      86              
      87              $C$DW$2 .dwtag  DW_TAG_subprogram, DW_AT_name("DMA_open")
      88                      .dwattr $C$DW$2, DW_AT_TI_symbol_name("_DMA_open")
      89                      .dwattr $C$DW$2, DW_AT_type(*$C$DW$T$99)
      90                      .dwattr $C$DW$2, DW_AT_declaration
      91                      .dwattr $C$DW$2, DW_AT_external
      92              $C$DW$3 .dwtag  DW_TAG_formal_parameter
      93                      .dwattr $C$DW$3, DW_AT_type(*$C$DW$T$28)
      94              $C$DW$4 .dwtag  DW_TAG_formal_parameter
      95                      .dwattr $C$DW$4, DW_AT_type(*$C$DW$T$98)
      96              $C$DW$5 .dwtag  DW_TAG_formal_parameter
      97                      .dwattr $C$DW$5, DW_AT_type(*$C$DW$T$102)
      98                      .dwendtag $C$DW$2
      99              
TMS320C55x Assembler PC v4.4.1 Sat Sep 29 23:09:33 2018

Tools Copyright (c) 1996-2012 Texas Instruments Incorporated
csl_i2s_DmaExample.asm                                               PAGE    3

     100              
     101              $C$DW$6 .dwtag  DW_TAG_subprogram, DW_AT_name("DMA_config")
     102                      .dwattr $C$DW$6, DW_AT_TI_symbol_name("_DMA_config")
     103                      .dwattr $C$DW$6, DW_AT_type(*$C$DW$T$101)
     104                      .dwattr $C$DW$6, DW_AT_declaration
     105                      .dwattr $C$DW$6, DW_AT_external
     106              $C$DW$7 .dwtag  DW_TAG_formal_parameter
     107                      .dwattr $C$DW$7, DW_AT_type(*$C$DW$T$99)
     108              $C$DW$8 .dwtag  DW_TAG_formal_parameter
     109                      .dwattr $C$DW$8, DW_AT_type(*$C$DW$T$108)
     110                      .dwendtag $C$DW$6
     111              
     112              
     113              $C$DW$9 .dwtag  DW_TAG_subprogram, DW_AT_name("DMA_start")
     114                      .dwattr $C$DW$9, DW_AT_TI_symbol_name("_DMA_start")
     115                      .dwattr $C$DW$9, DW_AT_type(*$C$DW$T$101)
     116                      .dwattr $C$DW$9, DW_AT_declaration
     117                      .dwattr $C$DW$9, DW_AT_external
     118              $C$DW$10        .dwtag  DW_TAG_formal_parameter
     119                      .dwattr $C$DW$10, DW_AT_type(*$C$DW$T$99)
     120                      .dwendtag $C$DW$9
     121              
     122              
     123              $C$DW$11        .dwtag  DW_TAG_subprogram, DW_AT_name("DMA_swapWords")
     124                      .dwattr $C$DW$11, DW_AT_TI_symbol_name("_DMA_swapWords")
     125                      .dwattr $C$DW$11, DW_AT_type(*$C$DW$T$101)
     126                      .dwattr $C$DW$11, DW_AT_declaration
     127                      .dwattr $C$DW$11, DW_AT_external
     128              $C$DW$12        .dwtag  DW_TAG_formal_parameter
     129                      .dwattr $C$DW$12, DW_AT_type(*$C$DW$T$126)
     130              $C$DW$13        .dwtag  DW_TAG_formal_parameter
     131                      .dwattr $C$DW$13, DW_AT_type(*$C$DW$T$49)
     132                      .dwendtag $C$DW$11
     133              
     134              
     135              $C$DW$14        .dwtag  DW_TAG_subprogram, DW_AT_name("I2S_open")
     136                      .dwattr $C$DW$14, DW_AT_TI_symbol_name("_I2S_open")
     137                      .dwattr $C$DW$14, DW_AT_type(*$C$DW$T$111)
     138                      .dwattr $C$DW$14, DW_AT_declaration
     139                      .dwattr $C$DW$14, DW_AT_external
     140              $C$DW$15        .dwtag  DW_TAG_formal_parameter
     141                      .dwattr $C$DW$15, DW_AT_type(*$C$DW$T$56)
     142              $C$DW$16        .dwtag  DW_TAG_formal_parameter
     143                      .dwattr $C$DW$16, DW_AT_type(*$C$DW$T$58)
     144              $C$DW$17        .dwtag  DW_TAG_formal_parameter
     145                      .dwattr $C$DW$17, DW_AT_type(*$C$DW$T$60)
     146                      .dwendtag $C$DW$14
     147              
     148              
     149              $C$DW$18        .dwtag  DW_TAG_subprogram, DW_AT_name("I2S_setup")
     150                      .dwattr $C$DW$18, DW_AT_TI_symbol_name("_I2S_setup")
     151                      .dwattr $C$DW$18, DW_AT_type(*$C$DW$T$101)
     152                      .dwattr $C$DW$18, DW_AT_declaration
     153                      .dwattr $C$DW$18, DW_AT_external
     154              $C$DW$19        .dwtag  DW_TAG_formal_parameter
TMS320C55x Assembler PC v4.4.1 Sat Sep 29 23:09:33 2018

Tools Copyright (c) 1996-2012 Texas Instruments Incorporated
csl_i2s_DmaExample.asm                                               PAGE    4

     155                      .dwattr $C$DW$19, DW_AT_type(*$C$DW$T$111)
     156              $C$DW$20        .dwtag  DW_TAG_formal_parameter
     157                      .dwattr $C$DW$20, DW_AT_type(*$C$DW$T$115)
     158                      .dwendtag $C$DW$18
     159              
     160              
     161              $C$DW$21        .dwtag  DW_TAG_subprogram, DW_AT_name("I2S_close")
     162                      .dwattr $C$DW$21, DW_AT_TI_symbol_name("_I2S_close")
     163                      .dwattr $C$DW$21, DW_AT_type(*$C$DW$T$101)
     164                      .dwattr $C$DW$21, DW_AT_declaration
     165                      .dwattr $C$DW$21, DW_AT_external
     166              $C$DW$22        .dwtag  DW_TAG_formal_parameter
     167                      .dwattr $C$DW$22, DW_AT_type(*$C$DW$T$111)
     168                      .dwendtag $C$DW$21
     169              
     170              
     171              $C$DW$23        .dwtag  DW_TAG_subprogram, DW_AT_name("I2S_reset")
     172                      .dwattr $C$DW$23, DW_AT_TI_symbol_name("_I2S_reset")
     173                      .dwattr $C$DW$23, DW_AT_type(*$C$DW$T$101)
     174                      .dwattr $C$DW$23, DW_AT_declaration
     175                      .dwattr $C$DW$23, DW_AT_external
     176              $C$DW$24        .dwtag  DW_TAG_formal_parameter
     177                      .dwattr $C$DW$24, DW_AT_type(*$C$DW$T$111)
     178                      .dwendtag $C$DW$23
     179              
     180              
     181              $C$DW$25        .dwtag  DW_TAG_subprogram, DW_AT_name("I2S_transEnable")
     182                      .dwattr $C$DW$25, DW_AT_TI_symbol_name("_I2S_transEnable")
     183                      .dwattr $C$DW$25, DW_AT_type(*$C$DW$T$101)
     184                      .dwattr $C$DW$25, DW_AT_declaration
     185                      .dwattr $C$DW$25, DW_AT_external
     186              $C$DW$26        .dwtag  DW_TAG_formal_parameter
     187                      .dwattr $C$DW$26, DW_AT_type(*$C$DW$T$111)
     188              $C$DW$27        .dwtag  DW_TAG_formal_parameter
     189                      .dwattr $C$DW$27, DW_AT_type(*$C$DW$T$19)
     190                      .dwendtag $C$DW$25
     191              
     192              
     193              $C$DW$28        .dwtag  DW_TAG_subprogram, DW_AT_name("printf")
     194                      .dwattr $C$DW$28, DW_AT_TI_symbol_name("_printf")
     195                      .dwattr $C$DW$28, DW_AT_type(*$C$DW$T$10)
     196                      .dwattr $C$DW$28, DW_AT_declaration
     197                      .dwattr $C$DW$28, DW_AT_external
     198              $C$DW$29        .dwtag  DW_TAG_formal_parameter
     199                      .dwattr $C$DW$29, DW_AT_type(*$C$DW$T$144)
     200              $C$DW$30        .dwtag  DW_TAG_unspecified_parameters
     201                      .dwendtag $C$DW$28
     202              
     203                      .global _dmaObj
     204 000000               .bss    _dmaObj,9,0,0
     205              $C$DW$31        .dwtag  DW_TAG_variable, DW_AT_name("dmaObj")
     206                      .dwattr $C$DW$31, DW_AT_TI_symbol_name("_dmaObj")
     207                      .dwattr $C$DW$31, DW_AT_location[DW_OP_addr _dmaObj]
     208                      .dwattr $C$DW$31, DW_AT_type(*$C$DW$T$97)
     209                      .dwattr $C$DW$31, DW_AT_external
TMS320C55x Assembler PC v4.4.1 Sat Sep 29 23:09:33 2018

Tools Copyright (c) 1996-2012 Texas Instruments Incorporated
csl_i2s_DmaExample.asm                                               PAGE    5

     210                      .global _dmaLeftTxHandle
     211 00000a               .bss    _dmaLeftTxHandle,2,0,2
     212              $C$DW$32        .dwtag  DW_TAG_variable, DW_AT_name("dmaLeftTxHandle")
     213                      .dwattr $C$DW$32, DW_AT_TI_symbol_name("_dmaLeftTxHandle")
     214                      .dwattr $C$DW$32, DW_AT_location[DW_OP_addr _dmaLeftTxHandle]
     215                      .dwattr $C$DW$32, DW_AT_type(*$C$DW$T$99)
     216                      .dwattr $C$DW$32, DW_AT_external
     217                      .global _dmaRightTxHandle
     218 00000c               .bss    _dmaRightTxHandle,2,0,2
     219              $C$DW$33        .dwtag  DW_TAG_variable, DW_AT_name("dmaRightTxHandle")
     220                      .dwattr $C$DW$33, DW_AT_TI_symbol_name("_dmaRightTxHandle")
     221                      .dwattr $C$DW$33, DW_AT_location[DW_OP_addr _dmaRightTxHandle]
     222                      .dwattr $C$DW$33, DW_AT_type(*$C$DW$T$99)
     223                      .dwattr $C$DW$33, DW_AT_external
     224                      .global _dmaLeftRxHandle
     225 00000e               .bss    _dmaLeftRxHandle,2,0,2
     226              $C$DW$34        .dwtag  DW_TAG_variable, DW_AT_name("dmaLeftRxHandle")
     227                      .dwattr $C$DW$34, DW_AT_TI_symbol_name("_dmaLeftRxHandle")
     228                      .dwattr $C$DW$34, DW_AT_location[DW_OP_addr _dmaLeftRxHandle]
     229                      .dwattr $C$DW$34, DW_AT_type(*$C$DW$T$99)
     230                      .dwattr $C$DW$34, DW_AT_external
     231                      .global _dmaRightRxHandle
     232 000010               .bss    _dmaRightRxHandle,2,0,2
     233              $C$DW$35        .dwtag  DW_TAG_variable, DW_AT_name("dmaRightRxHandle")
     234                      .dwattr $C$DW$35, DW_AT_TI_symbol_name("_dmaRightRxHandle")
     235                      .dwattr $C$DW$35, DW_AT_location[DW_OP_addr _dmaRightRxHandle]
     236                      .dwattr $C$DW$35, DW_AT_type(*$C$DW$T$99)
     237                      .dwattr $C$DW$35, DW_AT_external
     238                      .global _dmaConfig
     239 000012               .bss    _dmaConfig,14,0,2
     240              $C$DW$36        .dwtag  DW_TAG_variable, DW_AT_name("dmaConfig")
     241                      .dwattr $C$DW$36, DW_AT_TI_symbol_name("_dmaConfig")
     242                      .dwattr $C$DW$36, DW_AT_location[DW_OP_addr _dmaConfig]
     243                      .dwattr $C$DW$36, DW_AT_type(*$C$DW$T$107)
     244                      .dwattr $C$DW$36, DW_AT_external
     245                      .global _i2sDmaWriteLeftBuff
     246 000020               .bss    _i2sDmaWriteLeftBuff,2,0,8
     247              $C$DW$37        .dwtag  DW_TAG_variable, DW_AT_name("i2sDmaWriteLeftBuff")
     248                      .dwattr $C$DW$37, DW_AT_TI_symbol_name("_i2sDmaWriteLeftBuff")
     249                      .dwattr $C$DW$37, DW_AT_location[DW_OP_addr _i2sDmaWriteLeftBuff]
     250                      .dwattr $C$DW$37, DW_AT_type(*$C$DW$T$147)
     251                      .dwattr $C$DW$37, DW_AT_external
     252                      .global _i2sDmaWriteRightBuff
     253 000028               .bss    _i2sDmaWriteRightBuff,2,0,8
     254              $C$DW$38        .dwtag  DW_TAG_variable, DW_AT_name("i2sDmaWriteRightBuff")
     255                      .dwattr $C$DW$38, DW_AT_TI_symbol_name("_i2sDmaWriteRightBuff")
     256                      .dwattr $C$DW$38, DW_AT_location[DW_OP_addr _i2sDmaWriteRightBuff]
     257                      .dwattr $C$DW$38, DW_AT_type(*$C$DW$T$147)
     258                      .dwattr $C$DW$38, DW_AT_external
     259                      .global _i2sDmaReadLeftBuff
     260 000030               .bss    _i2sDmaReadLeftBuff,2,0,8
     261              $C$DW$39        .dwtag  DW_TAG_variable, DW_AT_name("i2sDmaReadLeftBuff")
     262                      .dwattr $C$DW$39, DW_AT_TI_symbol_name("_i2sDmaReadLeftBuff")
     263                      .dwattr $C$DW$39, DW_AT_location[DW_OP_addr _i2sDmaReadLeftBuff]
     264                      .dwattr $C$DW$39, DW_AT_type(*$C$DW$T$147)
TMS320C55x Assembler PC v4.4.1 Sat Sep 29 23:09:33 2018

Tools Copyright (c) 1996-2012 Texas Instruments Incorporated
csl_i2s_DmaExample.asm                                               PAGE    6

     265                      .dwattr $C$DW$39, DW_AT_external
     266                      .global _i2sDmaReadRightBuff
     267 000038               .bss    _i2sDmaReadRightBuff,2,0,8
     268              $C$DW$40        .dwtag  DW_TAG_variable, DW_AT_name("i2sDmaReadRightBuff")
     269                      .dwattr $C$DW$40, DW_AT_TI_symbol_name("_i2sDmaReadRightBuff")
     270                      .dwattr $C$DW$40, DW_AT_location[DW_OP_addr _i2sDmaReadRightBuff]
     271                      .dwattr $C$DW$40, DW_AT_type(*$C$DW$T$147)
     272                      .dwattr $C$DW$40, DW_AT_external
     273                      .global _PaSs_StAtE
     274 000009               .bss    _PaSs_StAtE,1,0,0
     275              $C$DW$41        .dwtag  DW_TAG_variable, DW_AT_name("PaSs_StAtE")
     276                      .dwattr $C$DW$41, DW_AT_TI_symbol_name("_PaSs_StAtE")
     277                      .dwattr $C$DW$41, DW_AT_location[DW_OP_addr _PaSs_StAtE]
     278                      .dwattr $C$DW$41, DW_AT_type(*$C$DW$T$135)
     279                      .dwattr $C$DW$41, DW_AT_external
     280                      .global _PaSs
     281 000022               .bss    _PaSs,1,0,0
     282              $C$DW$42        .dwtag  DW_TAG_variable, DW_AT_name("PaSs")
     283                      .dwattr $C$DW$42, DW_AT_TI_symbol_name("_PaSs")
     284                      .dwattr $C$DW$42, DW_AT_location[DW_OP_addr _PaSs]
     285                      .dwattr $C$DW$42, DW_AT_type(*$C$DW$T$135)
     286                      .dwattr $C$DW$42, DW_AT_external
     287              ;       F:\t\cc5p5\ccsv5\tools\compiler\c5500_4.4.1\bin\acp55.exe -@f:\\AppData\\Local\\Temp\\2820812 
     288 000000               .sect   ".text"
     289                      .align 4
     290              
     291              $C$DW$43        .dwtag  DW_TAG_subprogram, DW_AT_name("DMA_getStatus")
     292                      .dwattr $C$DW$43, DW_AT_low_pc(_DMA_getStatus)
     293                      .dwattr $C$DW$43, DW_AT_high_pc(0x00)
     294                      .dwattr $C$DW$43, DW_AT_TI_symbol_name("_DMA_getStatus")
     295                      .dwattr $C$DW$43, DW_AT_type(*$C$DW$T$139)
     296                      .dwattr $C$DW$43, DW_AT_TI_begin_file("F:/eZdsp_DBG/tmp1/c55x-sim2/foo/c5535_bsl_revc/ezdsp5535_v1/c5
     297                      .dwattr $C$DW$43, DW_AT_TI_begin_line(0x3f0)
     298                      .dwattr $C$DW$43, DW_AT_TI_begin_column(0x05)
     299                      .dwattr $C$DW$43, DW_AT_TI_max_frame_size(0x06)
     300                      .dwpsn  file "F:/eZdsp_DBG/tmp1/c55x-sim2/foo/c5535_bsl_revc/ezdsp5535_v1/c55xx_csl/inc/csl_dma.h",li
     301              
     302                      .dwfde $C$DW$CIE, _DMA_getStatus
     303              $C$DW$44        .dwtag  DW_TAG_formal_parameter, DW_AT_name("hDMA")
     304                      .dwattr $C$DW$44, DW_AT_TI_symbol_name("_hDMA")
     305                      .dwattr $C$DW$44, DW_AT_type(*$C$DW$T$99)
     306                      .dwattr $C$DW$44, DW_AT_location[DW_OP_reg17]
     307              ;*******************************************************************************
     308              ;* FUNCTION NAME: DMA_getStatus                                                *
     309              ;*                                                                             *
     310              ;*   Function Uses Regs : AC0,AC0,T0,AR0,XAR0,AR1,AR2,AR3,XAR3,SP,CARRY,TC1,   *
     311              ;*                        M40,SATA,SATD,RDM,FRCT,SMUL                          *
     312              ;*   Stack Frame        : Compact (No Frame Pointer, w/ debug)                 *
     313              ;*   Total Frame Size   : 6 words                                              *
     314              ;*                        (2 return address/alignment)                         *
     315              ;*                        (4 local values)                                     *
     316              ;*   Min System Stack   : 1 word                                               *
     317              ;*******************************************************************************
     318 000000       _DMA_getStatus:
     319                      .dwcfi  cfa_offset, 1
TMS320C55x Assembler PC v4.4.1 Sat Sep 29 23:09:33 2018

Tools Copyright (c) 1996-2012 Texas Instruments Incorporated
csl_i2s_DmaExample.asm                                               PAGE    7

     320                      .dwcfi  save_reg_to_mem, 91, -1
     321 000000 4EFB          AADD #-5, SP
     322                      .dwcfi  cfa_offset, 6
     323              $C$DW$45        .dwtag  DW_TAG_variable, DW_AT_name("hDMA")
     324                      .dwattr $C$DW$45, DW_AT_TI_symbol_name("_hDMA")
     325                      .dwattr $C$DW$45, DW_AT_type(*$C$DW$T$99)
     326                      .dwattr $C$DW$45, DW_AT_location[DW_OP_bregx 0x24 0]
     327              $C$DW$46        .dwtag  DW_TAG_variable, DW_AT_name("status")
     328                      .dwattr $C$DW$46, DW_AT_TI_symbol_name("_status")
     329                      .dwattr $C$DW$46, DW_AT_type(*$C$DW$T$139)
     330                      .dwattr $C$DW$46, DW_AT_location[DW_OP_bregx 0x24 2]
     331              $C$DW$47        .dwtag  DW_TAG_variable, DW_AT_name("chanNum")
     332                      .dwattr $C$DW$47, DW_AT_TI_symbol_name("_chanNum")
     333                      .dwattr $C$DW$47, DW_AT_type(*$C$DW$T$19)
     334                      .dwattr $C$DW$47, DW_AT_location[DW_OP_bregx 0x24 3]
     335 000002 EB00          MOV XAR0, dbl(*SP(#0))
         000004 85   
     336                      .dwpsn  file "F:/eZdsp_DBG/tmp1/c55x-sim2/foo/c5535_bsl_revc/ezdsp5535_v1/c55xx_csl/inc/csl_dma.h",li
     337 000005 ED00          MOV dbl(*SP(#0)), XAR3
         000007 BF   
     338 000008 90B0          MOV XAR3, AC0
     339 00000a 6D00          BCC $C$L7,AC0 == #0 ; |1018| 
         00000c 0094 
     340                                                      ; branchcc occurs ; |1018| 
     341                      .dwpsn  file "F:/eZdsp_DBG/tmp1/c55x-sim2/foo/c5535_bsl_revc/ezdsp5535_v1/c55xx_csl/inc/csl_dma.h",li
     342 00000e A973          MOV *AR3(short(#1)), AR1 ; |1020| 
     343 000010 C906          MOV AR1, *SP(#3) ; |1020| 
     344                      .dwpsn  file "F:/eZdsp_DBG/tmp1/c55x-sim2/foo/c5535_bsl_revc/ezdsp5535_v1/c55xx_csl/inc/csl_dma.h",li
     345 000012 3C4A          MOV #4, AR2
     346 000014 1294          CMPU AR1 < AR2, TC1 ; |1022| 
         000016 A4   
     347 000017 0464          BCC $C$L6,TC1 ; |1022| 
         000019 69   
     348                                                      ; branchcc occurs ; |1022| 
     349 00001a       $C$L1:    
     350 00001a       $C$DW$L$_DMA_getStatus$3$B:
     351                      .dwpsn  file "F:/eZdsp_DBG/tmp1/c55x-sim2/foo/c5535_bsl_revc/ezdsp5535_v1/c55xx_csl/inc/csl_dma.h",li
     352 00001a F706          SUB #4, *SP(#3) ; |1024| 
         00001c FFFC 
     353                      .dwpsn  file "F:/eZdsp_DBG/tmp1/c55x-sim2/foo/c5535_bsl_revc/ezdsp5535_v1/c55xx_csl/inc/csl_dma.h",li
     354 00001e A906          MOV *SP(#3), AR1 ; |1022| 
     355 000020 1298          CMPU AR1 >= AR2, TC1 ; |1022| 
         000022 A4   
     356 000023 0464          BCC $C$L1,TC1 ; |1022| 
         000025 F4   
     357                                                      ; branchcc occurs ; |1022| 
     358 000026       $C$DW$L$_DMA_getStatus$3$E:
     359                      .dwpsn  file "F:/eZdsp_DBG/tmp1/c55x-sim2/foo/c5535_bsl_revc/ezdsp5535_v1/c55xx_csl/inc/csl_dma.h",li
     360 000026 0600          B $C$L6   ; |1027| 
         000028 5A   
     361                                                      ; branch occurs ; |1027| 
     362 000029       $C$L2:    
     363                      .dwpsn  file "F:/eZdsp_DBG/tmp1/c55x-sim2/foo/c5535_bsl_revc/ezdsp5535_v1/c55xx_csl/inc/csl_dma.h",li
     364 000029 ED00          MOV dbl(*SP(#0)), XAR3
         00002b BF   
TMS320C55x Assembler PC v4.4.1 Sat Sep 29 23:09:33 2018

Tools Copyright (c) 1996-2012 Texas Instruments Incorporated
csl_i2s_DmaExample.asm                                               PAGE    8

     365 00002c AB61          MOV *AR3, AR3 ; |1030| 
     366 00002e A97B          MOV port(*AR3(short(#5))), AR1 ; |1030| 
         000030 99   
     367 000031 7D80          AND #0x8000, AR1, AC0 ; |1030| 
         000033 0009 
     368 000035 1005          SFTS AC0, #-15, AC0 ; |1030| 
         000037 31   
     369 000038 C004          MOV AC0, *SP(#2) ; |1030| 
     370                      .dwpsn  file "F:/eZdsp_DBG/tmp1/c55x-sim2/foo/c5535_bsl_revc/ezdsp5535_v1/c55xx_csl/inc/csl_dma.h",li
     371 00003a 0600          B $C$L8   ; |1031| 
         00003c 68   
     372                                                      ; branch occurs ; |1031| 
     373 00003d       $C$L3:    
     374                      .dwpsn  file "F:/eZdsp_DBG/tmp1/c55x-sim2/foo/c5535_bsl_revc/ezdsp5535_v1/c55xx_csl/inc/csl_dma.h",li
     375 00003d ED00          MOV dbl(*SP(#0)), XAR3
         00003f BF   
     376 000040 7600          MOV #37, T0 ; |1033| 
         000042 2548 
     377 000044 AB61          MOV *AR3, AR3 ; |1033| 
     378 000046 A96B          MOV port(*AR3(T0)), AR1 ; |1033| 
         000048 99   
     379 000049 7D80          AND #0x8000, AR1, AC0 ; |1033| 
         00004b 0009 
     380 00004d 1005          SFTS AC0, #-15, AC0 ; |1033| 
         00004f 31   
     381 000050 C004          MOV AC0, *SP(#2) ; |1033| 
     382                      .dwpsn  file "F:/eZdsp_DBG/tmp1/c55x-sim2/foo/c5535_bsl_revc/ezdsp5535_v1/c55xx_csl/inc/csl_dma.h",li
     383 000052 0600          B $C$L8   ; |1034| 
         000054 50   
     384                                                      ; branch occurs ; |1034| 
     385 000055       $C$L4:    
     386                      .dwpsn  file "F:/eZdsp_DBG/tmp1/c55x-sim2/foo/c5535_bsl_revc/ezdsp5535_v1/c55xx_csl/inc/csl_dma.h",li
     387 000055 ED00          MOV dbl(*SP(#0)), XAR3
         000057 BF   
     388 000058 7600          MOV #69, T0 ; |1036| 
         00005a 4548 
     389 00005c AB61          MOV *AR3, AR3 ; |1036| 
     390 00005e A96B          MOV port(*AR3(T0)), AR1 ; |1036| 
         000060 99   
     391 000061 7D80          AND #0x8000, AR1, AC0 ; |1036| 
         000063 0009 
     392 000065 1005          SFTS AC0, #-15, AC0 ; |1036| 
         000067 31   
     393 000068 C004          MOV AC0, *SP(#2) ; |1036| 
     394                      .dwpsn  file "F:/eZdsp_DBG/tmp1/c55x-sim2/foo/c5535_bsl_revc/ezdsp5535_v1/c55xx_csl/inc/csl_dma.h",li
     395 00006a 4A39          B $C$L8   ; |1037| 
     396                                                      ; branch occurs ; |1037| 
     397 00006c       $C$L5:    
     398                      .dwpsn  file "F:/eZdsp_DBG/tmp1/c55x-sim2/foo/c5535_bsl_revc/ezdsp5535_v1/c55xx_csl/inc/csl_dma.h",li
     399 00006c ED00          MOV dbl(*SP(#0)), XAR3
         00006e BF   
     400 00006f 7600          MOV #101, T0 ; |1039| 
         000071 6548 
     401 000073 AB61          MOV *AR3, AR3 ; |1039| 
     402 000075 A96B          MOV port(*AR3(T0)), AR1 ; |1039| 
TMS320C55x Assembler PC v4.4.1 Sat Sep 29 23:09:33 2018

Tools Copyright (c) 1996-2012 Texas Instruments Incorporated
csl_i2s_DmaExample.asm                                               PAGE    9

         000077 99   
     403 000078 7D80          AND #0x8000, AR1, AC0 ; |1039| 
         00007a 0009 
     404 00007c 1005          SFTS AC0, #-15, AC0 ; |1039| 
         00007e 31   
     405 00007f C004          MOV AC0, *SP(#2) ; |1039| 
     406                      .dwpsn  file "F:/eZdsp_DBG/tmp1/c55x-sim2/foo/c5535_bsl_revc/ezdsp5535_v1/c55xx_csl/inc/csl_dma.h",li
     407 000081 4A22          B $C$L8   ; |1040| 
     408                                                      ; branch occurs ; |1040| 
     409 000083       $C$L6:    
     410                      .dwpsn  file "F:/eZdsp_DBG/tmp1/c55x-sim2/foo/c5535_bsl_revc/ezdsp5535_v1/c55xx_csl/inc/csl_dma.h",li
     411 000083 A906          MOV *SP(#3), AR1 ; |1027| 
     412 000085 0409          BCC $C$L2,AR1 == #0 ; |1027| 
         000087 A1   
     413                                                      ; branchcc occurs ; |1027| 
     414 000088 3C1A          MOV #1, AR2
     415 00008a 1290          CMP AR1 == AR2, TC1 ; |1027| 
         00008c A0   
     416 00008d 0464          BCC $C$L3,TC1 ; |1027| 
         00008f AD   
     417                                                      ; branchcc occurs ; |1027| 
     418 000090 3C2A          MOV #2, AR2
     419 000092 1290          CMP AR1 == AR2, TC1 ; |1027| 
         000094 A0   
     420 000095 0464          BCC $C$L4,TC1 ; |1027| 
         000097 BD   
     421                                                      ; branchcc occurs ; |1027| 
     422 000098 3C3A          MOV #3, AR2
     423 00009a 1290          CMP AR1 == AR2, TC1 ; |1027| 
         00009c A0   
     424 00009d 0464          BCC $C$L5,TC1 ; |1027| 
         00009f CC   
     425                                                      ; branchcc occurs ; |1027| 
     426 0000a0 4A03          B $C$L8   ; |1027| 
     427                                                      ; branch occurs ; |1027| 
     428 0000a2       $C$L7:    
     429                      .dwpsn  file "F:/eZdsp_DBG/tmp1/c55x-sim2/foo/c5535_bsl_revc/ezdsp5535_v1/c55xx_csl/inc/csl_dma.h",li
     430 0000a2 E604          MOV #-5, *SP(#2) ; |1045| 
         0000a4 FB   
     431 0000a5       $C$L8:    
     432                      .dwpsn  file "F:/eZdsp_DBG/tmp1/c55x-sim2/foo/c5535_bsl_revc/ezdsp5535_v1/c55xx_csl/inc/csl_dma.h",li
     433 0000a5 A404          MOV *SP(#2), T0 ; |1048| 
     434                      .dwpsn  file "F:/eZdsp_DBG/tmp1/c55x-sim2/foo/c5535_bsl_revc/ezdsp5535_v1/c55xx_csl/inc/csl_dma.h",li
     435 0000a7 4E05          AADD #5, SP
     436                      .dwcfi  cfa_offset, 1
     437              $C$DW$48        .dwtag  DW_TAG_TI_branch
     438                      .dwattr $C$DW$48, DW_AT_low_pc(0x00)
     439                      .dwattr $C$DW$48, DW_AT_TI_return
     440 0000a9 4804          RET
     441                                                      ; return occurs
     442              
     443              $C$DW$49        .dwtag  DW_TAG_TI_loop
     444                      .dwattr $C$DW$49, DW_AT_name("F:\eZdsp_DBG\tmp1\c55x-sim2\foo\Debug\csl_i2s_DmaExample.asm:$C$L1:1:15
     445                      .dwattr $C$DW$49, DW_AT_TI_begin_file("F:/eZdsp_DBG/tmp1/c55x-sim2/foo/c5535_bsl_revc/ezdsp5535_v1/c5
     446                      .dwattr $C$DW$49, DW_AT_TI_begin_line(0x3fe)
TMS320C55x Assembler PC v4.4.1 Sat Sep 29 23:09:33 2018

Tools Copyright (c) 1996-2012 Texas Instruments Incorporated
csl_i2s_DmaExample.asm                                               PAGE   10

     447                      .dwattr $C$DW$49, DW_AT_TI_end_line(0x401)
     448              $C$DW$50        .dwtag  DW_TAG_TI_loop_range
     449                      .dwattr $C$DW$50, DW_AT_low_pc($C$DW$L$_DMA_getStatus$3$B)
     450                      .dwattr $C$DW$50, DW_AT_high_pc($C$DW$L$_DMA_getStatus$3$E)
     451                      .dwendtag $C$DW$49
     452              
     453                      .dwattr $C$DW$43, DW_AT_TI_end_file("F:/eZdsp_DBG/tmp1/c55x-sim2/foo/c5535_bsl_revc/ezdsp5535_v1/c55x
     454                      .dwattr $C$DW$43, DW_AT_TI_end_line(0x419)
     455                      .dwattr $C$DW$43, DW_AT_TI_end_column(0x01)
     456                      .dwendentry
     457                      .dwendtag $C$DW$43
     458              
     459 0000ab               .sect   ".text"
     460                      .align 4
     461                      .global _CSL_configDmaForI2s
     462              
     463              $C$DW$51        .dwtag  DW_TAG_subprogram, DW_AT_name("CSL_configDmaForI2s")
     464                      .dwattr $C$DW$51, DW_AT_low_pc(_CSL_configDmaForI2s)
     465                      .dwattr $C$DW$51, DW_AT_high_pc(0x00)
     466                      .dwattr $C$DW$51, DW_AT_TI_symbol_name("_CSL_configDmaForI2s")
     467                      .dwattr $C$DW$51, DW_AT_external
     468                      .dwattr $C$DW$51, DW_AT_type(*$C$DW$T$99)
     469                      .dwattr $C$DW$51, DW_AT_TI_begin_file("../c5535_bsl_revc/ezdsp5535_v1/c55xx_csl/ccs_v4.0_examples/i2s
     470                      .dwattr $C$DW$51, DW_AT_TI_begin_line(0x66)
     471                      .dwattr $C$DW$51, DW_AT_TI_begin_column(0x10)
     472                      .dwattr $C$DW$51, DW_AT_TI_max_frame_size(0x0a)
     473                      .dwpsn  file "../c5535_bsl_revc/ezdsp5535_v1/c55xx_csl/ccs_v4.0_examples/i2s/CSL_I2S_DMAExampale/csl_
     474              
     475                      .dwfde $C$DW$CIE, _CSL_configDmaForI2s
     476              $C$DW$52        .dwtag  DW_TAG_formal_parameter, DW_AT_name("chanNum")
     477                      .dwattr $C$DW$52, DW_AT_TI_symbol_name("_chanNum")
     478                      .dwattr $C$DW$52, DW_AT_type(*$C$DW$T$28)
     479                      .dwattr $C$DW$52, DW_AT_location[DW_OP_reg12]
     480              ;*******************************************************************************
     481              ;* FUNCTION NAME: CSL_configDmaForI2s                                          *
     482              ;*                                                                             *
     483              ;*   Function Uses Regs : AC0,AC0,T0,AR0,XAR0,AR1,XAR1,AR3,XAR3,SP,M40,SATA,   *
     484              ;*                        SATD,RDM,FRCT,SMUL                                   *
     485              ;*   Stack Frame        : Compact (No Frame Pointer, w/ debug)                 *
     486              ;*   Total Frame Size   : 10 words                                             *
     487              ;*                        (2 return address/alignment)                         *
     488              ;*                        (2 function parameters)                              *
     489              ;*                        (6 local values)                                     *
     490              ;*   Min System Stack   : 1 word                                               *
     491              ;*******************************************************************************
     492 0000ac       _CSL_configDmaForI2s:
     493                      .dwcfi  cfa_offset, 1
     494                      .dwcfi  save_reg_to_mem, 91, -1
     495 0000ac 4EF7          AADD #-9, SP
     496                      .dwcfi  cfa_offset, 10
     497              $C$DW$53        .dwtag  DW_TAG_variable, DW_AT_name("chanNum")
     498                      .dwattr $C$DW$53, DW_AT_TI_symbol_name("_chanNum")
     499                      .dwattr $C$DW$53, DW_AT_type(*$C$DW$T$28)
     500                      .dwattr $C$DW$53, DW_AT_location[DW_OP_bregx 0x24 2]
     501              $C$DW$54        .dwtag  DW_TAG_variable, DW_AT_name("dmaHandle")
TMS320C55x Assembler PC v4.4.1 Sat Sep 29 23:09:33 2018

Tools Copyright (c) 1996-2012 Texas Instruments Incorporated
csl_i2s_DmaExample.asm                                               PAGE   11

     502                      .dwattr $C$DW$54, DW_AT_TI_symbol_name("_dmaHandle")
     503                      .dwattr $C$DW$54, DW_AT_type(*$C$DW$T$99)
     504                      .dwattr $C$DW$54, DW_AT_location[DW_OP_bregx 0x24 4]
     505              $C$DW$55        .dwtag  DW_TAG_variable, DW_AT_name("status")
     506                      .dwattr $C$DW$55, DW_AT_TI_symbol_name("_status")
     507                      .dwattr $C$DW$55, DW_AT_type(*$C$DW$T$101)
     508                      .dwattr $C$DW$55, DW_AT_location[DW_OP_bregx 0x24 6]
     509              $C$DW$56        .dwtag  DW_TAG_variable, DW_AT_name("sysRegs")
     510                      .dwattr $C$DW$56, DW_AT_TI_symbol_name("_sysRegs")
     511                      .dwattr $C$DW$56, DW_AT_type(*$C$DW$T$118)
     512                      .dwattr $C$DW$56, DW_AT_location[DW_OP_bregx 0x24 7]
     513 0000ae C404          MOV T0, *SP(#2) ; |103| 
     514                      .dwpsn  file "../c5535_bsl_revc/ezdsp5535_v1/c55xx_csl/ccs_v4.0_examples/i2s/CSL_I2S_DMAExampale/csl_
     515 0000b0 FB0E          MOV #7168, *SP(#7) ; |108| 
         0000b2 1C00 
     516                      .dwpsn  file "../c5535_bsl_revc/ezdsp5535_v1/c55xx_csl/ccs_v4.0_examples/i2s/CSL_I2S_DMAExampale/csl_
     517 0000b4 AB0E          MOV *SP(#7), AR3 ; |111| 
     518 0000b6 A975          MOV port(*AR3(short(#2))), AR1 ; |111| 
         0000b8 99   
     519 0000b9 EC06          BCLR @#3, AR1 ; |111| 
         0000bb 92   
     520 0000bc C975          MOV AR1, port(*AR3(short(#2))) ; |111| 
         0000be 9A   
     521                      .dwpsn  file "../c5535_bsl_revc/ezdsp5535_v1/c55xx_csl/ccs_v4.0_examples/i2s/CSL_I2S_DMAExampale/csl_
     522 0000bf AB0E          MOV *SP(#7), AR3 ; |112| 
     523 0000c1 A977          MOV port(*AR3(short(#3))), AR1 ; |112| 
         0000c3 99   
     524 0000c4 EC06          BCLR @#3, AR1 ; |112| 
         0000c6 92   
     525 0000c7 C977          MOV AR1, port(*AR3(short(#3))) ; |112| 
         0000c9 9A   
     526                      .dwpsn  file "../c5535_bsl_revc/ezdsp5535_v1/c55xx_csl/ccs_v4.0_examples/i2s/CSL_I2S_DMAExampale/csl_
     527 0000ca AB0E          MOV *SP(#7), AR3 ; |113| 
     528 0000cc A977          MOV port(*AR3(short(#3))), AR1 ; |113| 
         0000ce 99   
     529 0000cf EC08          BCLR @#4, AR1 ; |113| 
         0000d1 92   
     530 0000d2 C977          MOV AR1, port(*AR3(short(#3))) ; |113| 
         0000d4 9A   
     531                      .dwpsn  file "../c5535_bsl_revc/ezdsp5535_v1/c55xx_csl/ccs_v4.0_examples/i2s/CSL_I2S_DMAExampale/csl_
     532 0000d5 AB0E          MOV *SP(#7), AR3 ; |114| 
     533 0000d7 A977          MOV port(*AR3(short(#3))), AR1 ; |114| 
         0000d9 99   
     534 0000da EC0A          BCLR @#5, AR1 ; |114| 
         0000dc 92   
     535 0000dd C977          MOV AR1, port(*AR3(short(#3))) ; |114| 
         0000df 9A   
     536                      .dwpsn  file "../c5535_bsl_revc/ezdsp5535_v1/c55xx_csl/ccs_v4.0_examples/i2s/CSL_I2S_DMAExampale/csl_
     537              $C$DW$57        .dwtag  DW_TAG_TI_branch
     538                      .dwattr $C$DW$57, DW_AT_low_pc(0x00)
     539                      .dwattr $C$DW$57, DW_AT_name("_DMA_init")
     540                      .dwattr $C$DW$57, DW_AT_TI_call
     541 0000e0 6C00          CALL #_DMA_init ; |116| 
         0000e2 0000!
     542                                                      ; call occurs [#_DMA_init] ; |116| 
TMS320C55x Assembler PC v4.4.1 Sat Sep 29 23:09:33 2018

Tools Copyright (c) 1996-2012 Texas Instruments Incorporated
csl_i2s_DmaExample.asm                                               PAGE   12

     543 0000e4 C40C          MOV T0, *SP(#6) ; |116| 
     544                      .dwpsn  file "../c5535_bsl_revc/ezdsp5535_v1/c55xx_csl/ccs_v4.0_examples/i2s/CSL_I2S_DMAExampale/csl_
     545 0000e6 2249          MOV T0, AR1
     546 0000e8 0409          BCC $C$L9,AR1 == #0 ; |117| 
         0000ea 12   
     547                                                      ; branchcc occurs ; |117| 
     548                      .dwpsn  file "../c5535_bsl_revc/ezdsp5535_v1/c55xx_csl/ccs_v4.0_examples/i2s/CSL_I2S_DMAExampale/csl_
     549 0000eb EC31          AMOV #$C$FSL1, XAR3 ; |119| 
         0000ed BE00 
         0000ef 0000+
     550 0000f1 EB00          MOV XAR3, dbl(*SP(#0))
         0000f3 B5   
     551              $C$DW$58        .dwtag  DW_TAG_TI_branch
     552                      .dwattr $C$DW$58, DW_AT_low_pc(0x00)
     553                      .dwattr $C$DW$58, DW_AT_name("_printf")
     554                      .dwattr $C$DW$58, DW_AT_TI_call
     555 0000f4 6C00          CALL #_printf ; |119| 
         0000f6 0000!
     556                                                      ; call occurs [#_printf] ; |119| 
     557                      .dwpsn  file "../c5535_bsl_revc/ezdsp5535_v1/c55xx_csl/ccs_v4.0_examples/i2s/CSL_I2S_DMAExampale/csl_
     558 0000f8 3C00          MOV #0, AC0 ; |120| 
     559 0000fa EB08          MOV AC0, dbl(*SP(#4))
         0000fc 08   
     560 0000fd       $C$L9:    
     561                      .dwpsn  file "../c5535_bsl_revc/ezdsp5535_v1/c55xx_csl/ccs_v4.0_examples/i2s/CSL_I2S_DMAExampale/csl_
     562 0000fd A404          MOV *SP(#2), T0 ; |123| 
     563 0000ff EC0C          AMAR *SP(#6), XAR1
         000101 9E   
     564 000102 EC31          AMOV #_dmaObj, XAR0 ; |123| 
         000104 8E00 
         000106 0000-
     565              $C$DW$59        .dwtag  DW_TAG_TI_branch
     566                      .dwattr $C$DW$59, DW_AT_low_pc(0x00)
     567                      .dwattr $C$DW$59, DW_AT_name("_DMA_open")
     568                      .dwattr $C$DW$59, DW_AT_TI_call
     569 000108 6C00          CALL #_DMA_open ; |123| 
         00010a 0000!
     570                                                      ; call occurs [#_DMA_open] ; |123| 
     571 00010c EB08          MOV XAR0, dbl(*SP(#4))
         00010e 85   
     572                      .dwpsn  file "../c5535_bsl_revc/ezdsp5535_v1/c55xx_csl/ccs_v4.0_examples/i2s/CSL_I2S_DMAExampale/csl_
     573 00010f ED08          MOV dbl(*SP(#4)), XAR3
         000111 BF   
     574 000112 90B0          MOV XAR3, AC0
     575 000114 0410          BCC $C$L10,AC0 != #0 ; |124| 
         000116 12   
     576                                                      ; branchcc occurs ; |124| 
     577                      .dwpsn  file "../c5535_bsl_revc/ezdsp5535_v1/c55xx_csl/ccs_v4.0_examples/i2s/CSL_I2S_DMAExampale/csl_
     578 000117 EC31          AMOV #$C$FSL2, XAR3 ; |126| 
         000119 BE00 
         00011b 0014+
     579 00011d EB00          MOV XAR3, dbl(*SP(#0))
         00011f B5   
     580              $C$DW$60        .dwtag  DW_TAG_TI_branch
     581                      .dwattr $C$DW$60, DW_AT_low_pc(0x00)
TMS320C55x Assembler PC v4.4.1 Sat Sep 29 23:09:33 2018

Tools Copyright (c) 1996-2012 Texas Instruments Incorporated
csl_i2s_DmaExample.asm                                               PAGE   13

     582                      .dwattr $C$DW$60, DW_AT_name("_printf")
     583                      .dwattr $C$DW$60, DW_AT_TI_call
     584 000120 6C00          CALL #_printf ; |126| 
         000122 0000!
     585                                                      ; call occurs [#_printf] ; |126| 
     586                      .dwpsn  file "../c5535_bsl_revc/ezdsp5535_v1/c55xx_csl/ccs_v4.0_examples/i2s/CSL_I2S_DMAExampale/csl_
     587 000124 3C00          MOV #0, AC0 ; |127| 
     588 000126 EB08          MOV AC0, dbl(*SP(#4))
         000128 08   
     589 000129       $C$L10:    
     590                      .dwpsn  file "../c5535_bsl_revc/ezdsp5535_v1/c55xx_csl/ccs_v4.0_examples/i2s/CSL_I2S_DMAExampale/csl_
     591 000129 ED08          MOV dbl(*SP(#4)), XAR0
         00012b 8F   
     592 00012c EC31          AMOV #_dmaConfig, XAR1 ; |130| 
         00012e 9E00 
         000130 0012-
     593              $C$DW$61        .dwtag  DW_TAG_TI_branch
     594                      .dwattr $C$DW$61, DW_AT_low_pc(0x00)
     595                      .dwattr $C$DW$61, DW_AT_name("_DMA_config")
     596                      .dwattr $C$DW$61, DW_AT_TI_call
     597 000132 6C00          CALL #_DMA_config ; |130| 
         000134 0000!
     598                                                      ; call occurs [#_DMA_config] ; |130| 
     599 000136 C40C          MOV T0, *SP(#6) ; |130| 
     600                      .dwpsn  file "../c5535_bsl_revc/ezdsp5535_v1/c55xx_csl/ccs_v4.0_examples/i2s/CSL_I2S_DMAExampale/csl_
     601 000138 2249          MOV T0, AR1
     602 00013a 0409          BCC $C$L11,AR1 == #0 ; |131| 
         00013c 12   
     603                                                      ; branchcc occurs ; |131| 
     604                      .dwpsn  file "../c5535_bsl_revc/ezdsp5535_v1/c55xx_csl/ccs_v4.0_examples/i2s/CSL_I2S_DMAExampale/csl_
     605 00013d EC31          AMOV #$C$FSL3, XAR3 ; |133| 
         00013f BE00 
         000141 0028+
     606 000143 EB00          MOV XAR3, dbl(*SP(#0))
         000145 B5   
     607              $C$DW$62        .dwtag  DW_TAG_TI_branch
     608                      .dwattr $C$DW$62, DW_AT_low_pc(0x00)
     609                      .dwattr $C$DW$62, DW_AT_name("_printf")
     610                      .dwattr $C$DW$62, DW_AT_TI_call
     611 000146 6C00          CALL #_printf ; |133| 
         000148 0000!
     612                                                      ; call occurs [#_printf] ; |133| 
     613                      .dwpsn  file "../c5535_bsl_revc/ezdsp5535_v1/c55xx_csl/ccs_v4.0_examples/i2s/CSL_I2S_DMAExampale/csl_
     614 00014a 3C00          MOV #0, AC0 ; |134| 
     615 00014c EB08          MOV AC0, dbl(*SP(#4))
         00014e 08   
     616 00014f       $C$L11:    
     617                      .dwpsn  file "../c5535_bsl_revc/ezdsp5535_v1/c55xx_csl/ccs_v4.0_examples/i2s/CSL_I2S_DMAExampale/csl_
     618 00014f ED08          MOV dbl(*SP(#4)), XAR0
         000151 8F   
     619                      .dwpsn  file "../c5535_bsl_revc/ezdsp5535_v1/c55xx_csl/ccs_v4.0_examples/i2s/CSL_I2S_DMAExampale/csl_
     620 000152 4E09          AADD #9, SP
     621                      .dwcfi  cfa_offset, 1
     622              $C$DW$63        .dwtag  DW_TAG_TI_branch
     623                      .dwattr $C$DW$63, DW_AT_low_pc(0x00)
TMS320C55x Assembler PC v4.4.1 Sat Sep 29 23:09:33 2018

Tools Copyright (c) 1996-2012 Texas Instruments Incorporated
csl_i2s_DmaExample.asm                                               PAGE   14

     624                      .dwattr $C$DW$63, DW_AT_TI_return
     625 000154 4804          RET
     626                                                      ; return occurs
     627                      .dwattr $C$DW$51, DW_AT_TI_end_file("../c5535_bsl_revc/ezdsp5535_v1/c55xx_csl/ccs_v4.0_examples/i2s/C
     628                      .dwattr $C$DW$51, DW_AT_TI_end_line(0x8a)
     629                      .dwattr $C$DW$51, DW_AT_TI_end_column(0x01)
     630                      .dwendentry
     631                      .dwendtag $C$DW$51
     632              
     633 000156               .sect   ".text"
     634                      .align 4
     635                      .global _i2s_DMA_sample
     636              
     637              $C$DW$64        .dwtag  DW_TAG_subprogram, DW_AT_name("i2s_DMA_sample")
     638                      .dwattr $C$DW$64, DW_AT_low_pc(_i2s_DMA_sample)
     639                      .dwattr $C$DW$64, DW_AT_high_pc(0x00)
     640                      .dwattr $C$DW$64, DW_AT_TI_symbol_name("_i2s_DMA_sample")
     641                      .dwattr $C$DW$64, DW_AT_external
     642                      .dwattr $C$DW$64, DW_AT_type(*$C$DW$T$100)
     643                      .dwattr $C$DW$64, DW_AT_TI_begin_file("../c5535_bsl_revc/ezdsp5535_v1/c55xx_csl/ccs_v4.0_examples/i2s
     644                      .dwattr $C$DW$64, DW_AT_TI_begin_line(0x95)
     645                      .dwattr $C$DW$64, DW_AT_TI_begin_column(0x07)
     646                      .dwattr $C$DW$64, DW_AT_TI_max_frame_size(0x16)
     647                      .dwpsn  file "../c5535_bsl_revc/ezdsp5535_v1/c55xx_csl/ccs_v4.0_examples/i2s/CSL_I2S_DMAExampale/csl_
     648              
     649                      .dwfde $C$DW$CIE, _i2s_DMA_sample
     650              ;*******************************************************************************
     651              ;* FUNCTION NAME: i2s_DMA_sample                                               *
     652              ;*                                                                             *
     653              ;*   Function Uses Regs : AC0,AC0,AC1,AC1,T0,T1,AR0,XAR0,AR1,XAR1,AR3,XAR3,SP, *
     654              ;*                        CARRY,TC1,M40,SATA,SATD,RDM,FRCT,SMUL                *
     655              ;*   Stack Frame        : Compact (No Frame Pointer, w/ debug)                 *
     656              ;*   Total Frame Size   : 22 words                                             *
     657              ;*                        (1 return address/alignment)                         *
     658              ;*                        (2 function parameters)                              *
     659              ;*                        (19 local values)                                    *
     660              ;*   Min System Stack   : 1 word                                               *
     661              ;*******************************************************************************
     662 000158       _i2s_DMA_sample:
     663                      .dwcfi  cfa_offset, 1
     664                      .dwcfi  save_reg_to_mem, 91, -1
     665 000158 4EEB          AADD #-21, SP
     666                      .dwcfi  cfa_offset, 22
     667              $C$DW$65        .dwtag  DW_TAG_variable, DW_AT_name("status")
     668                      .dwattr $C$DW$65, DW_AT_TI_symbol_name("_status")
     669                      .dwattr $C$DW$65, DW_AT_type(*$C$DW$T$100)
     670                      .dwattr $C$DW$65, DW_AT_location[DW_OP_bregx 0x24 2]
     671              $C$DW$66        .dwtag  DW_TAG_variable, DW_AT_name("result")
     672                      .dwattr $C$DW$66, DW_AT_TI_symbol_name("_result")
     673                      .dwattr $C$DW$66, DW_AT_type(*$C$DW$T$100)
     674                      .dwattr $C$DW$66, DW_AT_location[DW_OP_bregx 0x24 3]
     675              $C$DW$67        .dwtag  DW_TAG_variable, DW_AT_name("hI2s")
     676                      .dwattr $C$DW$67, DW_AT_TI_symbol_name("_hI2s")
     677                      .dwattr $C$DW$67, DW_AT_type(*$C$DW$T$111)
     678                      .dwattr $C$DW$67, DW_AT_location[DW_OP_bregx 0x24 4]
TMS320C55x Assembler PC v4.4.1 Sat Sep 29 23:09:33 2018

Tools Copyright (c) 1996-2012 Texas Instruments Incorporated
csl_i2s_DmaExample.asm                                               PAGE   15

     679              $C$DW$68        .dwtag  DW_TAG_variable, DW_AT_name("hwConfig")
     680                      .dwattr $C$DW$68, DW_AT_TI_symbol_name("_hwConfig")
     681                      .dwattr $C$DW$68, DW_AT_type(*$C$DW$T$114)
     682                      .dwattr $C$DW$68, DW_AT_location[DW_OP_bregx 0x24 6]
     683              $C$DW$69        .dwtag  DW_TAG_variable, DW_AT_name("looper")
     684                      .dwattr $C$DW$69, DW_AT_TI_symbol_name("_looper")
     685                      .dwattr $C$DW$69, DW_AT_type(*$C$DW$T$19)
     686                      .dwattr $C$DW$69, DW_AT_location[DW_OP_bregx 0x24 20]
     687                      .dwpsn  file "../c5535_bsl_revc/ezdsp5535_v1/c55xx_csl/ccs_v4.0_examples/i2s/CSL_I2S_DMAExampale/csl_
     688 00015a E604          MOV #1, *SP(#2) ; |151| 
         00015c 01   
     689                      .dwpsn  file "../c5535_bsl_revc/ezdsp5535_v1/c55xx_csl/ccs_v4.0_examples/i2s/CSL_I2S_DMAExampale/csl_
     690 00015d E628          MOV #0, *SP(#20) ; |158| 
         00015f 00   
     691                      .dwpsn  file "../c5535_bsl_revc/ezdsp5535_v1/c55xx_csl/ccs_v4.0_examples/i2s/CSL_I2S_DMAExampale/csl_
     692 000160 A928          MOV *SP(#20), AR1 ; |158| 
     693 000162 0419          BCC $C$L13,AR1 != #0 ; |158| 
         000164 2D   
     694                                                      ; branchcc occurs ; |158| 
     695 000165       $C$L12:    
     696 000165       $C$DW$L$_i2s_DMA_sample$2$B:
     697                      .dwpsn  file "../c5535_bsl_revc/ezdsp5535_v1/c55xx_csl/ccs_v4.0_examples/i2s/CSL_I2S_DMAExampale/csl_
     698 000165 A428          MOV *SP(#20), T0 ; |160| 
     699 000167 5040          SFTL T0, #1 ; |160| 
     700 000169 7A12          MOV #4660 << #16, AC0 ; |160| 
         00016b 340A 
     701 00016d EC31          AMOV #_i2sDmaWriteLeftBuff, XAR3 ; |160| 
         00016f BE00 
         000171 0020-
     702 000173 7E56          OR #0x5678, AC0, AC0 ; |160| 
         000175 7800 
     703 000177 EB6B          MOV AC0, dbl(*AR3(T0)) ; |160| 
         000179 08   
     704                      .dwpsn  file "../c5535_bsl_revc/ezdsp5535_v1/c55xx_csl/ccs_v4.0_examples/i2s/CSL_I2S_DMAExampale/csl_
     705 00017a A428          MOV *SP(#20), T0 ; |161| 
     706 00017c 5040          SFTL T0, #1 ; |161| 
     707 00017e EC31          AMOV #_i2sDmaReadLeftBuff, XAR3 ; |161| 
         000180 BE00 
         000182 0030-
     708 000184 3C00          MOV #0, AC0 ; |161| 
     709 000186 EB6B          MOV AC0, dbl(*AR3(T0)) ; |161| 
         000188 08   
     710                      .dwpsn  file "../c5535_bsl_revc/ezdsp5535_v1/c55xx_csl/ccs_v4.0_examples/i2s/CSL_I2S_DMAExampale/csl_
     711 000189 F728          ADD #1, *SP(#20) ; |158| 
         00018b 0001 
     712                      .dwpsn  file "../c5535_bsl_revc/ezdsp5535_v1/c55xx_csl/ccs_v4.0_examples/i2s/CSL_I2S_DMAExampale/csl_
     713 00018d A928          MOV *SP(#20), AR1 ; |158| 
     714 00018f 0409          BCC $C$L12,AR1 == #0 ; |158| 
         000191 D3   
     715                                                      ; branchcc occurs ; |158| 
     716 000192       $C$DW$L$_i2s_DMA_sample$2$E:
     717 000192       $C$L13:    
     718                      .dwpsn  file "../c5535_bsl_revc/ezdsp5535_v1/c55xx_csl/ccs_v4.0_examples/i2s/CSL_I2S_DMAExampale/csl_
     719 000192 EC31          AMOV #_i2sDmaWriteLeftBuff, XAR0 ; |179| 
         000194 8E00 
TMS320C55x Assembler PC v4.4.1 Sat Sep 29 23:09:33 2018

Tools Copyright (c) 1996-2012 Texas Instruments Incorporated
csl_i2s_DmaExample.asm                                               PAGE   16

         000196 0020-
     720              $C$DW$70        .dwtag  DW_TAG_TI_branch
     721                      .dwattr $C$DW$70, DW_AT_low_pc(0x00)
     722                      .dwattr $C$DW$70, DW_AT_name("_DMA_swapWords")
     723                      .dwattr $C$DW$70, DW_AT_TI_call
     724              
     725 000198 6C00          CALL #_DMA_swapWords ; |179| 
         00019a 0000!
     726 00019c 3D20  ||      MOV #2, AC0 ; |179| 
     727              
     728                                                      ; call occurs [#_DMA_swapWords] ; |179| 
     729 00019e C406          MOV T0, *SP(#3) ; |179| 
     730                      .dwpsn  file "../c5535_bsl_revc/ezdsp5535_v1/c55xx_csl/ccs_v4.0_examples/i2s/CSL_I2S_DMAExampale/csl_
     731 0001a0 2249          MOV T0, AR1
     732 0001a2 0409          BCC $C$L14,AR1 == #0 ; |180| 
         0001a4 15   
     733                                                      ; branchcc occurs ; |180| 
     734                      .dwpsn  file "../c5535_bsl_revc/ezdsp5535_v1/c55xx_csl/ccs_v4.0_examples/i2s/CSL_I2S_DMAExampale/csl_
     735 0001a5 EC31          AMOV #$C$FSL4, XAR3 ; |182| 
         0001a7 BE00 
         0001a9 003E+
     736 0001ab EB00          MOV XAR3, dbl(*SP(#0))
         0001ad B5   
     737              $C$DW$71        .dwtag  DW_TAG_TI_branch
     738                      .dwattr $C$DW$71, DW_AT_low_pc(0x00)
     739                      .dwattr $C$DW$71, DW_AT_name("_printf")
     740                      .dwattr $C$DW$71, DW_AT_TI_call
     741 0001ae 6C00          CALL #_printf ; |182| 
         0001b0 0000!
     742                                                      ; call occurs [#_printf] ; |182| 
     743                      .dwpsn  file "../c5535_bsl_revc/ezdsp5535_v1/c55xx_csl/ccs_v4.0_examples/i2s/CSL_I2S_DMAExampale/csl_
     744 0001b2 E604          MOV #1, *SP(#2) ; |183| 
         0001b4 01   
     745                      .dwpsn  file "../c5535_bsl_revc/ezdsp5535_v1/c55xx_csl/ccs_v4.0_examples/i2s/CSL_I2S_DMAExampale/csl_
     746 0001b5 A404          MOV *SP(#2), T0 ; |184| 
     747 0001b7 0604          B $C$L40  ; |184| 
         0001b9 21   
     748                                                      ; branch occurs ; |184| 
     749 0001ba       $C$L14:    
     750                      .dwpsn  file "../c5535_bsl_revc/ezdsp5535_v1/c55xx_csl/ccs_v4.0_examples/i2s/CSL_I2S_DMAExampale/csl_
     751              
     752 0001ba 3C04          MOV #0, T0
     753 0001bc 3D25  ||      MOV #2, T1
     754              
     755              $C$DW$72        .dwtag  DW_TAG_TI_branch
     756                      .dwattr $C$DW$72, DW_AT_low_pc(0x00)
     757                      .dwattr $C$DW$72, DW_AT_name("_I2S_open")
     758                      .dwattr $C$DW$72, DW_AT_TI_call
     759              
     760 0001be 6C00          CALL #_I2S_open ; |188| 
         0001c0 0000!
     761 0001c2 3D18  ||      MOV #1, AR0
     762              
     763                                                      ; call occurs [#_I2S_open] ; |188| 
     764 0001c4 EB08          MOV XAR0, dbl(*SP(#4))
TMS320C55x Assembler PC v4.4.1 Sat Sep 29 23:09:33 2018

Tools Copyright (c) 1996-2012 Texas Instruments Incorporated
csl_i2s_DmaExample.asm                                               PAGE   17

         0001c6 85   
     765                      .dwpsn  file "../c5535_bsl_revc/ezdsp5535_v1/c55xx_csl/ccs_v4.0_examples/i2s/CSL_I2S_DMAExampale/csl_
     766 0001c7 ED08          MOV dbl(*SP(#4)), XAR3
         0001c9 BF   
     767              
     768 0001ca 90B0          MOV XAR3, AC0
     769 0001cc 3D01  ||      MOV #0, AC1 ; |189| 
     770              
     771 0001ce 121C          CMPU AC1 != AC0, TC1 ; |189| 
         0001d0 04   
     772 0001d1 6464          BCC $C$L15,TC1 ; |189| 
     773                                                      ; branchcc occurs ; |189| 
     774                      .dwpsn  file "../c5535_bsl_revc/ezdsp5535_v1/c55xx_csl/ccs_v4.0_examples/i2s/CSL_I2S_DMAExampale/csl_
     775 0001d3 E604          MOV #1, *SP(#2) ; |191| 
         0001d5 01   
     776                      .dwpsn  file "../c5535_bsl_revc/ezdsp5535_v1/c55xx_csl/ccs_v4.0_examples/i2s/CSL_I2S_DMAExampale/csl_
     777 0001d6 A404          MOV *SP(#2), T0 ; |192| 
     778 0001d8 0604          B $C$L40  ; |192| 
         0001da 00   
     779                                                      ; branch occurs ; |192| 
     780 0001db       $C$L15:    
     781                      .dwpsn  file "../c5535_bsl_revc/ezdsp5535_v1/c55xx_csl/ccs_v4.0_examples/i2s/CSL_I2S_DMAExampale/csl_
     782 0001db EC31          AMOV #$C$FSL5, XAR3 ; |196| 
         0001dd BE00 
         0001df 0058+
     783 0001e1 EB00          MOV XAR3, dbl(*SP(#0))
         0001e3 B5   
     784              $C$DW$73        .dwtag  DW_TAG_TI_branch
     785                      .dwattr $C$DW$73, DW_AT_low_pc(0x00)
     786                      .dwattr $C$DW$73, DW_AT_name("_printf")
     787                      .dwattr $C$DW$73, DW_AT_TI_call
     788 0001e4 6C00          CALL #_printf ; |196| 
         0001e6 0000!
     789                                                      ; call occurs [#_printf] ; |196| 
     790                      .dwpsn  file "../c5535_bsl_revc/ezdsp5535_v1/c55xx_csl/ccs_v4.0_examples/i2s/CSL_I2S_DMAExampale/csl_
     791 0001e8 E60C          MOV #0, *SP(#6) ; |200| 
         0001ea 00   
     792                      .dwpsn  file "../c5535_bsl_revc/ezdsp5535_v1/c55xx_csl/ccs_v4.0_examples/i2s/CSL_I2S_DMAExampale/csl_
     793 0001eb E60E          MOV #1, *SP(#7) ; |201| 
         0001ed 01   
     794                      .dwpsn  file "../c5535_bsl_revc/ezdsp5535_v1/c55xx_csl/ccs_v4.0_examples/i2s/CSL_I2S_DMAExampale/csl_
     795 0001ee E610          MOV #0, *SP(#8) ; |202| 
         0001f0 00   
     796                      .dwpsn  file "../c5535_bsl_revc/ezdsp5535_v1/c55xx_csl/ccs_v4.0_examples/i2s/CSL_I2S_DMAExampale/csl_
     797 0001f1 E612          MOV #1, *SP(#9) ; |203| 
         0001f3 01   
     798                      .dwpsn  file "../c5535_bsl_revc/ezdsp5535_v1/c55xx_csl/ccs_v4.0_examples/i2s/CSL_I2S_DMAExampale/csl_
     799 0001f4 E614          MOV #0, *SP(#10) ; |204| 
         0001f6 00   
     800                      .dwpsn  file "../c5535_bsl_revc/ezdsp5535_v1/c55xx_csl/ccs_v4.0_examples/i2s/CSL_I2S_DMAExampale/csl_
     801 0001f7 E616          MOV #1, *SP(#11) ; |205| 
         0001f9 01   
     802                      .dwpsn  file "../c5535_bsl_revc/ezdsp5535_v1/c55xx_csl/ccs_v4.0_examples/i2s/CSL_I2S_DMAExampale/csl_
     803 0001fa E618          MOV #0, *SP(#12) ; |206| 
         0001fc 00   
TMS320C55x Assembler PC v4.4.1 Sat Sep 29 23:09:33 2018

Tools Copyright (c) 1996-2012 Texas Instruments Incorporated
csl_i2s_DmaExample.asm                                               PAGE   18

     804                      .dwpsn  file "../c5535_bsl_revc/ezdsp5535_v1/c55xx_csl/ccs_v4.0_examples/i2s/CSL_I2S_DMAExampale/csl_
     805 0001fd E61A          MOV #4, *SP(#13) ; |207| 
         0001ff 04   
     806                      .dwpsn  file "../c5535_bsl_revc/ezdsp5535_v1/c55xx_csl/ccs_v4.0_examples/i2s/CSL_I2S_DMAExampale/csl_
     807 000200 E61C          MOV #1, *SP(#14) ; |208| 
         000202 01   
     808                      .dwpsn  file "../c5535_bsl_revc/ezdsp5535_v1/c55xx_csl/ccs_v4.0_examples/i2s/CSL_I2S_DMAExampale/csl_
     809 000203 E622          MOV #1, *SP(#17) ; |209| 
         000205 01   
     810                      .dwpsn  file "../c5535_bsl_revc/ezdsp5535_v1/c55xx_csl/ccs_v4.0_examples/i2s/CSL_I2S_DMAExampale/csl_
     811 000206 E620          MOV #2, *SP(#16) ; |210| 
         000208 02   
     812                      .dwpsn  file "../c5535_bsl_revc/ezdsp5535_v1/c55xx_csl/ccs_v4.0_examples/i2s/CSL_I2S_DMAExampale/csl_
     813 000209 E624          MOV #0, *SP(#18) ; |211| 
         00020b 00   
     814                      .dwpsn  file "../c5535_bsl_revc/ezdsp5535_v1/c55xx_csl/ccs_v4.0_examples/i2s/CSL_I2S_DMAExampale/csl_
     815 00020c E626          MOV #0, *SP(#19) ; |212| 
         00020e 00   
     816                      .dwpsn  file "../c5535_bsl_revc/ezdsp5535_v1/c55xx_csl/ccs_v4.0_examples/i2s/CSL_I2S_DMAExampale/csl_
     817 00020f EC0C          AMAR *SP(#6), XAR1
         000211 9E   
     818 000212 ED08          MOV dbl(*SP(#4)), XAR0
         000214 8F   
     819              $C$DW$74        .dwtag  DW_TAG_TI_branch
     820                      .dwattr $C$DW$74, DW_AT_low_pc(0x00)
     821                      .dwattr $C$DW$74, DW_AT_name("_I2S_setup")
     822                      .dwattr $C$DW$74, DW_AT_TI_call
     823 000215 6C00          CALL #_I2S_setup ; |215| 
         000217 0000!
     824                                                      ; call occurs [#_I2S_setup] ; |215| 
     825 000219 C406          MOV T0, *SP(#3) ; |215| 
     826                      .dwpsn  file "../c5535_bsl_revc/ezdsp5535_v1/c55xx_csl/ccs_v4.0_examples/i2s/CSL_I2S_DMAExampale/csl_
     827 00021b 2249          MOV T0, AR1
     828 00021d 6409          BCC $C$L16,AR1 == #0 ; |216| 
     829                                                      ; branchcc occurs ; |216| 
     830                      .dwpsn  file "../c5535_bsl_revc/ezdsp5535_v1/c55xx_csl/ccs_v4.0_examples/i2s/CSL_I2S_DMAExampale/csl_
     831 00021f E604          MOV #1, *SP(#2) ; |218| 
         000221 01   
     832                      .dwpsn  file "../c5535_bsl_revc/ezdsp5535_v1/c55xx_csl/ccs_v4.0_examples/i2s/CSL_I2S_DMAExampale/csl_
     833 000222 A404          MOV *SP(#2), T0 ; |219| 
     834 000224 0603          B $C$L40  ; |219| 
         000226 B4   
     835                                                      ; branch occurs ; |219| 
     836 000227       $C$L16:    
     837                      .dwpsn  file "../c5535_bsl_revc/ezdsp5535_v1/c55xx_csl/ccs_v4.0_examples/i2s/CSL_I2S_DMAExampale/csl_
     838 000227 EC31          AMOV #$C$FSL6, XAR3 ; |223| 
         000229 BE00 
         00022b 0082+
     839 00022d EB00          MOV XAR3, dbl(*SP(#0))
         00022f B5   
     840              $C$DW$75        .dwtag  DW_TAG_TI_branch
     841                      .dwattr $C$DW$75, DW_AT_low_pc(0x00)
     842                      .dwattr $C$DW$75, DW_AT_name("_printf")
     843                      .dwattr $C$DW$75, DW_AT_TI_call
     844 000230 6C00          CALL #_printf ; |223| 
TMS320C55x Assembler PC v4.4.1 Sat Sep 29 23:09:33 2018

Tools Copyright (c) 1996-2012 Texas Instruments Incorporated
csl_i2s_DmaExample.asm                                               PAGE   19

         000232 0000!
     845                                                      ; call occurs [#_printf] ; |223| 
     846                      .dwpsn  file "../c5535_bsl_revc/ezdsp5535_v1/c55xx_csl/ccs_v4.0_examples/i2s/CSL_I2S_DMAExampale/csl_
     847 000234 E631          MOV #0, *(#_dmaConfig) ; |228| 
         000236 0000 
         000238 0012-
     848                      .dwpsn  file "../c5535_bsl_revc/ezdsp5535_v1/c55xx_csl/ccs_v4.0_examples/i2s/CSL_I2S_DMAExampale/csl_
     849 00023a E631          MOV #0, *(#(_dmaConfig+1)) ; |230| 
         00023c 0000 
         00023e 0013-
     850                      .dwpsn  file "../c5535_bsl_revc/ezdsp5535_v1/c55xx_csl/ccs_v4.0_examples/i2s/CSL_I2S_DMAExampale/csl_
     851 000240 E631          MOV #0, *(#(_dmaConfig+2)) ; |231| 
         000242 0000 
         000244 0014-
     852                      .dwpsn  file "../c5535_bsl_revc/ezdsp5535_v1/c55xx_csl/ccs_v4.0_examples/i2s/CSL_I2S_DMAExampale/csl_
     853 000246 E631          MOV #1, *(#(_dmaConfig+3)) ; |232| 
         000248 0100 
         00024a 0015-
     854                      .dwpsn  file "../c5535_bsl_revc/ezdsp5535_v1/c55xx_csl/ccs_v4.0_examples/i2s/CSL_I2S_DMAExampale/csl_
     855 00024c E631          MOV #1, *(#(_dmaConfig+4)) ; |233| 
         00024e 0100 
         000250 0016-
     856                      .dwpsn  file "../c5535_bsl_revc/ezdsp5535_v1/c55xx_csl/ccs_v4.0_examples/i2s/CSL_I2S_DMAExampale/csl_
     857 000252 E631          MOV #0, *(#(_dmaConfig+5)) ; |234| 
         000254 0000 
         000256 0017-
     858                      .dwpsn  file "../c5535_bsl_revc/ezdsp5535_v1/c55xx_csl/ccs_v4.0_examples/i2s/CSL_I2S_DMAExampale/csl_
     859 000258 E631          MOV #1, *(#(_dmaConfig+6)) ; |235| 
         00025a 0100 
         00025c 0018-
     860                      .dwpsn  file "../c5535_bsl_revc/ezdsp5535_v1/c55xx_csl/ccs_v4.0_examples/i2s/CSL_I2S_DMAExampale/csl_
     861 00025e E631          MOV #0, *(#(_dmaConfig+7)) ; |236| 
         000260 0000 
         000262 0019-
     862                      .dwpsn  file "../c5535_bsl_revc/ezdsp5535_v1/c55xx_csl/ccs_v4.0_examples/i2s/CSL_I2S_DMAExampale/csl_
     863 000264 E631          MOV #4, *(#(_dmaConfig+8)) ; |237| 
         000266 0400 
         000268 001A-
     864                      .dwpsn  file "../c5535_bsl_revc/ezdsp5535_v1/c55xx_csl/ccs_v4.0_examples/i2s/CSL_I2S_DMAExampale/csl_
     865 00026a 7A00          MOV #(_i2sDmaWriteLeftBuff >> 16) << #16, AC0 ; |238| 
         00026c 000A%
     866 00026e 7E00          OR #(_i2sDmaWriteLeftBuff & 0xffff), AC0, AC0 ; |238| 
         000270 0000%
     867 000272 EB31          MOV AC0, dbl(*(#(_dmaConfig+10))) ; |238| 
         000274 0800 
         000276 001C-
     868                      .dwpsn  file "../c5535_bsl_revc/ezdsp5535_v1/c55xx_csl/ccs_v4.0_examples/i2s/CSL_I2S_DMAExampale/csl_
     869 000278 7628          MOV #10248, AC0 ; |239| 
         00027a 0808 
     870 00027c EB31          MOV AC0, dbl(*(#(_dmaConfig+12))) ; |239| 
         00027e 0800 
         000280 001E-
     871                      .dwpsn  file "../c5535_bsl_revc/ezdsp5535_v1/c55xx_csl/ccs_v4.0_examples/i2s/CSL_I2S_DMAExampale/csl_
     872              $C$DW$76        .dwtag  DW_TAG_TI_branch
     873                      .dwattr $C$DW$76, DW_AT_low_pc(0x00)
TMS320C55x Assembler PC v4.4.1 Sat Sep 29 23:09:33 2018

Tools Copyright (c) 1996-2012 Texas Instruments Incorporated
csl_i2s_DmaExample.asm                                               PAGE   20

     874                      .dwattr $C$DW$76, DW_AT_name("_CSL_configDmaForI2s")
     875                      .dwattr $C$DW$76, DW_AT_TI_call
     876              
     877 000282 08FE          CALL #_CSL_configDmaForI2s ; |240| 
         000284 25   
     878 000285 3D04  ||      MOV #0, T0
     879              
     880                                                      ; call occurs [#_CSL_configDmaForI2s] ; |240| 
     881 000287 EB31          MOV XAR0, dbl(*(#_dmaLeftTxHandle))
         000289 8500 
         00028b 000A-
     882                      .dwpsn  file "../c5535_bsl_revc/ezdsp5535_v1/c55xx_csl/ccs_v4.0_examples/i2s/CSL_I2S_DMAExampale/csl_
     883 00028d ED31          MOV dbl(*(#_dmaLeftTxHandle)), XAR3
         00028f BF00 
         000291 000A-
     884 000293 90B0          MOV XAR3, AC0
     885 000295 0410          BCC $C$L17,AC0 != #0 ; |241| 
         000297 12   
     886                                                      ; branchcc occurs ; |241| 
     887                      .dwpsn  file "../c5535_bsl_revc/ezdsp5535_v1/c55xx_csl/ccs_v4.0_examples/i2s/CSL_I2S_DMAExampale/csl_
     888 000298 EC31          AMOV #$C$FSL7, XAR3 ; |243| 
         00029a BE00 
         00029c 00A6+
     889 00029e EB00          MOV XAR3, dbl(*SP(#0))
         0002a0 B5   
     890              $C$DW$77        .dwtag  DW_TAG_TI_branch
     891                      .dwattr $C$DW$77, DW_AT_low_pc(0x00)
     892                      .dwattr $C$DW$77, DW_AT_name("_printf")
     893                      .dwattr $C$DW$77, DW_AT_TI_call
     894 0002a1 6C00          CALL #_printf ; |243| 
         0002a3 0000!
     895                                                      ; call occurs [#_printf] ; |243| 
     896                      .dwpsn  file "../c5535_bsl_revc/ezdsp5535_v1/c55xx_csl/ccs_v4.0_examples/i2s/CSL_I2S_DMAExampale/csl_
     897 0002a5 3C14          MOV #1, T0
     898 0002a7 0603          B $C$L40  ; |244| 
         0002a9 31   
     899                                                      ; branch occurs ; |244| 
     900 0002aa       $C$L17:    
     901                      .dwpsn  file "../c5535_bsl_revc/ezdsp5535_v1/c55xx_csl/ccs_v4.0_examples/i2s/CSL_I2S_DMAExampale/csl_
     902 0002aa ED08          MOV dbl(*SP(#4)), XAR0
         0002ac 8F   
     903              $C$DW$78        .dwtag  DW_TAG_TI_branch
     904                      .dwattr $C$DW$78, DW_AT_low_pc(0x00)
     905                      .dwattr $C$DW$78, DW_AT_name("_I2S_transEnable")
     906                      .dwattr $C$DW$78, DW_AT_TI_call
     907              
     908 0002ad 6C00          CALL #_I2S_transEnable ; |247| 
         0002af 0000!
     909 0002b1 3D14  ||      MOV #1, T0
     910              
     911                                                      ; call occurs [#_I2S_transEnable] ; |247| 
     912                      .dwpsn  file "../c5535_bsl_revc/ezdsp5535_v1/c55xx_csl/ccs_v4.0_examples/i2s/CSL_I2S_DMAExampale/csl_
     913 0002b3 ED31          MOV dbl(*(#_dmaLeftTxHandle)), XAR0
         0002b5 8F00 
         0002b7 000A-
TMS320C55x Assembler PC v4.4.1 Sat Sep 29 23:09:33 2018

Tools Copyright (c) 1996-2012 Texas Instruments Incorporated
csl_i2s_DmaExample.asm                                               PAGE   21

     914              $C$DW$79        .dwtag  DW_TAG_TI_branch
     915                      .dwattr $C$DW$79, DW_AT_low_pc(0x00)
     916                      .dwattr $C$DW$79, DW_AT_name("_DMA_start")
     917                      .dwattr $C$DW$79, DW_AT_TI_call
     918 0002b9 6C00          CALL #_DMA_start ; |249| 
         0002bb 0000!
     919                                                      ; call occurs [#_DMA_start] ; |249| 
     920 0002bd C404          MOV T0, *SP(#2) ; |249| 
     921                      .dwpsn  file "../c5535_bsl_revc/ezdsp5535_v1/c55xx_csl/ccs_v4.0_examples/i2s/CSL_I2S_DMAExampale/csl_
     922 0002bf 2249          MOV T0, AR1
     923 0002c1 0409          BCC $C$L18,AR1 == #0 ; |250| 
         0002c3 12   
     924                                                      ; branchcc occurs ; |250| 
     925                      .dwpsn  file "../c5535_bsl_revc/ezdsp5535_v1/c55xx_csl/ccs_v4.0_examples/i2s/CSL_I2S_DMAExampale/csl_
     926 0002c4 EC31          AMOV #$C$FSL8, XAR3 ; |252| 
         0002c6 BE00 
         0002c8 00CA+
     927 0002ca EB00          MOV XAR3, dbl(*SP(#0))
         0002cc B5   
     928              $C$DW$80        .dwtag  DW_TAG_TI_branch
     929                      .dwattr $C$DW$80, DW_AT_low_pc(0x00)
     930                      .dwattr $C$DW$80, DW_AT_name("_printf")
     931                      .dwattr $C$DW$80, DW_AT_TI_call
     932 0002cd 6C00          CALL #_printf ; |252| 
         0002cf 0000!
     933                                                      ; call occurs [#_printf] ; |252| 
     934                      .dwpsn  file "../c5535_bsl_revc/ezdsp5535_v1/c55xx_csl/ccs_v4.0_examples/i2s/CSL_I2S_DMAExampale/csl_
     935 0002d1 A406          MOV *SP(#3), T0 ; |253| 
     936 0002d3 0603          B $C$L40  ; |253| 
         0002d5 05   
     937                                                      ; branch occurs ; |253| 
     938 0002d6       $C$L18:    
     939                      .dwpsn  file "../c5535_bsl_revc/ezdsp5535_v1/c55xx_csl/ccs_v4.0_examples/i2s/CSL_I2S_DMAExampale/csl_
     940 0002d6 ED31          MOV dbl(*(#_dmaLeftTxHandle)), XAR0
         0002d8 8F00 
         0002da 000A-
     941              $C$DW$81        .dwtag  DW_TAG_TI_branch
     942                      .dwattr $C$DW$81, DW_AT_low_pc(0x00)
     943                      .dwattr $C$DW$81, DW_AT_name("_DMA_getStatus")
     944                      .dwattr $C$DW$81, DW_AT_TI_call
     945 0002dc 08FD          CALL #_DMA_getStatus ; |255| 
         0002de 21   
     946                                                      ; call occurs [#_DMA_getStatus] ; |255| 
     947 0002df 6604          BCC $C$L20,T0 == #0 ; |255| 
     948                                                      ; branchcc occurs ; |255| 
     949 0002e1       $C$L19:    
     950 0002e1       $C$DW$L$_i2s_DMA_sample$16$B:
     951 0002e1 ED31          MOV dbl(*(#_dmaLeftTxHandle)), XAR0
         0002e3 8F00 
         0002e5 000A-
     952              $C$DW$82        .dwtag  DW_TAG_TI_branch
     953                      .dwattr $C$DW$82, DW_AT_low_pc(0x00)
     954                      .dwattr $C$DW$82, DW_AT_name("_DMA_getStatus")
     955                      .dwattr $C$DW$82, DW_AT_TI_call
     956 0002e7 08FD          CALL #_DMA_getStatus ; |255| 
TMS320C55x Assembler PC v4.4.1 Sat Sep 29 23:09:33 2018

Tools Copyright (c) 1996-2012 Texas Instruments Incorporated
csl_i2s_DmaExample.asm                                               PAGE   22

         0002e9 16   
     957                                                      ; call occurs [#_DMA_getStatus] ; |255| 
     958 0002ea 0414          BCC $C$L19,T0 != #0 ; |255| 
         0002ec F4   
     959                                                      ; branchcc occurs ; |255| 
     960 0002ed       $C$DW$L$_i2s_DMA_sample$16$E:
     961 0002ed       $C$L20:    
     962                      .dwpsn  file "../c5535_bsl_revc/ezdsp5535_v1/c55xx_csl/ccs_v4.0_examples/i2s/CSL_I2S_DMAExampale/csl_
     963 0002ed E631          MOV #0, *(#_dmaConfig) ; |259| 
         0002ef 0000 
         0002f1 0012-
     964                      .dwpsn  file "../c5535_bsl_revc/ezdsp5535_v1/c55xx_csl/ccs_v4.0_examples/i2s/CSL_I2S_DMAExampale/csl_
     965 0002f3 E631          MOV #0, *(#(_dmaConfig+1)) ; |261| 
         0002f5 0000 
         0002f7 0013-
     966                      .dwpsn  file "../c5535_bsl_revc/ezdsp5535_v1/c55xx_csl/ccs_v4.0_examples/i2s/CSL_I2S_DMAExampale/csl_
     967 0002f9 E631          MOV #0, *(#(_dmaConfig+2)) ; |262| 
         0002fb 0000 
         0002fd 0014-
     968                      .dwpsn  file "../c5535_bsl_revc/ezdsp5535_v1/c55xx_csl/ccs_v4.0_examples/i2s/CSL_I2S_DMAExampale/csl_
     969 0002ff E631          MOV #1, *(#(_dmaConfig+3)) ; |263| 
         000301 0100 
         000303 0015-
     970                      .dwpsn  file "../c5535_bsl_revc/ezdsp5535_v1/c55xx_csl/ccs_v4.0_examples/i2s/CSL_I2S_DMAExampale/csl_
     971 000305 E631          MOV #1, *(#(_dmaConfig+4)) ; |264| 
         000307 0100 
         000309 0016-
     972                      .dwpsn  file "../c5535_bsl_revc/ezdsp5535_v1/c55xx_csl/ccs_v4.0_examples/i2s/CSL_I2S_DMAExampale/csl_
     973 00030b E631          MOV #0, *(#(_dmaConfig+5)) ; |265| 
         00030d 0000 
         00030f 0017-
     974                      .dwpsn  file "../c5535_bsl_revc/ezdsp5535_v1/c55xx_csl/ccs_v4.0_examples/i2s/CSL_I2S_DMAExampale/csl_
     975 000311 E631          MOV #1, *(#(_dmaConfig+6)) ; |266| 
         000313 0100 
         000315 0018-
     976                      .dwpsn  file "../c5535_bsl_revc/ezdsp5535_v1/c55xx_csl/ccs_v4.0_examples/i2s/CSL_I2S_DMAExampale/csl_
     977 000317 E631          MOV #0, *(#(_dmaConfig+7)) ; |267| 
         000319 0000 
         00031b 0019-
     978                      .dwpsn  file "../c5535_bsl_revc/ezdsp5535_v1/c55xx_csl/ccs_v4.0_examples/i2s/CSL_I2S_DMAExampale/csl_
     979 00031d E631          MOV #4, *(#(_dmaConfig+8)) ; |268| 
         00031f 0400 
         000321 001A-
     980                      .dwpsn  file "../c5535_bsl_revc/ezdsp5535_v1/c55xx_csl/ccs_v4.0_examples/i2s/CSL_I2S_DMAExampale/csl_
     981 000323 7A00          MOV #(_i2sDmaWriteRightBuff >> 16) << #16, AC0 ; |269| 
         000325 000A%
     982 000327 7E00          OR #(_i2sDmaWriteRightBuff & 0xffff), AC0, AC0 ; |269| 
         000329 0000%
     983 00032b EB31          MOV AC0, dbl(*(#(_dmaConfig+10))) ; |269| 
         00032d 0800 
         00032f 001C-
     984                      .dwpsn  file "../c5535_bsl_revc/ezdsp5535_v1/c55xx_csl/ccs_v4.0_examples/i2s/CSL_I2S_DMAExampale/csl_
     985 000331 7628          MOV #10252, AC0 ; |270| 
         000333 0C08 
     986 000335 EB31          MOV AC0, dbl(*(#(_dmaConfig+12))) ; |270| 
TMS320C55x Assembler PC v4.4.1 Sat Sep 29 23:09:33 2018

Tools Copyright (c) 1996-2012 Texas Instruments Incorporated
csl_i2s_DmaExample.asm                                               PAGE   23

         000337 0800 
         000339 001E-
     987                      .dwpsn  file "../c5535_bsl_revc/ezdsp5535_v1/c55xx_csl/ccs_v4.0_examples/i2s/CSL_I2S_DMAExampale/csl_
     988              $C$DW$83        .dwtag  DW_TAG_TI_branch
     989                      .dwattr $C$DW$83, DW_AT_low_pc(0x00)
     990                      .dwattr $C$DW$83, DW_AT_name("_CSL_configDmaForI2s")
     991                      .dwattr $C$DW$83, DW_AT_TI_call
     992              
     993 00033b 08FD          CALL #_CSL_configDmaForI2s ; |271| 
         00033d 6C   
     994 00033e 3D04  ||      MOV #0, T0
     995              
     996                                                      ; call occurs [#_CSL_configDmaForI2s] ; |271| 
     997 000340 EB31          MOV XAR0, dbl(*(#_dmaRightTxHandle))
         000342 8500 
         000344 000C-
     998                      .dwpsn  file "../c5535_bsl_revc/ezdsp5535_v1/c55xx_csl/ccs_v4.0_examples/i2s/CSL_I2S_DMAExampale/csl_
     999 000346 ED31          MOV dbl(*(#_dmaRightTxHandle)), XAR3
         000348 BF00 
         00034a 000C-
    1000 00034c 90B0          MOV XAR3, AC0
    1001 00034e 0410          BCC $C$L21,AC0 != #0 ; |272| 
         000350 12   
    1002                                                      ; branchcc occurs ; |272| 
    1003                      .dwpsn  file "../c5535_bsl_revc/ezdsp5535_v1/c55xx_csl/ccs_v4.0_examples/i2s/CSL_I2S_DMAExampale/csl_
    1004 000351 EC31          AMOV #$C$FSL7, XAR3 ; |274| 
         000353 BE00 
         000355 00A6+
    1005 000357 EB00          MOV XAR3, dbl(*SP(#0))
         000359 B5   
    1006              $C$DW$84        .dwtag  DW_TAG_TI_branch
    1007                      .dwattr $C$DW$84, DW_AT_low_pc(0x00)
    1008                      .dwattr $C$DW$84, DW_AT_name("_printf")
    1009                      .dwattr $C$DW$84, DW_AT_TI_call
    1010 00035a 6C00          CALL #_printf ; |274| 
         00035c 0000!
    1011                                                      ; call occurs [#_printf] ; |274| 
    1012                      .dwpsn  file "../c5535_bsl_revc/ezdsp5535_v1/c55xx_csl/ccs_v4.0_examples/i2s/CSL_I2S_DMAExampale/csl_
    1013 00035e 3C14          MOV #1, T0
    1014 000360 0602          B $C$L40  ; |275| 
         000362 78   
    1015                                                      ; branch occurs ; |275| 
    1016 000363       $C$L21:    
    1017                      .dwpsn  file "../c5535_bsl_revc/ezdsp5535_v1/c55xx_csl/ccs_v4.0_examples/i2s/CSL_I2S_DMAExampale/csl_
    1018 000363 ED08          MOV dbl(*SP(#4)), XAR0
         000365 8F   
    1019              $C$DW$85        .dwtag  DW_TAG_TI_branch
    1020                      .dwattr $C$DW$85, DW_AT_low_pc(0x00)
    1021                      .dwattr $C$DW$85, DW_AT_name("_I2S_transEnable")
    1022                      .dwattr $C$DW$85, DW_AT_TI_call
    1023              
    1024 000366 6C00          CALL #_I2S_transEnable ; |278| 
         000368 0000!
    1025 00036a 3D14  ||      MOV #1, T0
    1026              
TMS320C55x Assembler PC v4.4.1 Sat Sep 29 23:09:33 2018

Tools Copyright (c) 1996-2012 Texas Instruments Incorporated
csl_i2s_DmaExample.asm                                               PAGE   24

    1027                                                      ; call occurs [#_I2S_transEnable] ; |278| 
    1028                      .dwpsn  file "../c5535_bsl_revc/ezdsp5535_v1/c55xx_csl/ccs_v4.0_examples/i2s/CSL_I2S_DMAExampale/csl_
    1029 00036c ED31          MOV dbl(*(#_dmaRightTxHandle)), XAR0
         00036e 8F00 
         000370 000C-
    1030              $C$DW$86        .dwtag  DW_TAG_TI_branch
    1031                      .dwattr $C$DW$86, DW_AT_low_pc(0x00)
    1032                      .dwattr $C$DW$86, DW_AT_name("_DMA_start")
    1033                      .dwattr $C$DW$86, DW_AT_TI_call
    1034 000372 6C00          CALL #_DMA_start ; |280| 
         000374 0000!
    1035                                                      ; call occurs [#_DMA_start] ; |280| 
    1036 000376 C404          MOV T0, *SP(#2) ; |280| 
    1037                      .dwpsn  file "../c5535_bsl_revc/ezdsp5535_v1/c55xx_csl/ccs_v4.0_examples/i2s/CSL_I2S_DMAExampale/csl_
    1038 000378 2249          MOV T0, AR1
    1039 00037a 0409          BCC $C$L22,AR1 == #0 ; |281| 
         00037c 12   
    1040                                                      ; branchcc occurs ; |281| 
    1041                      .dwpsn  file "../c5535_bsl_revc/ezdsp5535_v1/c55xx_csl/ccs_v4.0_examples/i2s/CSL_I2S_DMAExampale/csl_
    1042 00037d EC31          AMOV #$C$FSL8, XAR3 ; |283| 
         00037f BE00 
         000381 00CA+
    1043 000383 EB00          MOV XAR3, dbl(*SP(#0))
         000385 B5   
    1044              $C$DW$87        .dwtag  DW_TAG_TI_branch
    1045                      .dwattr $C$DW$87, DW_AT_low_pc(0x00)
    1046                      .dwattr $C$DW$87, DW_AT_name("_printf")
    1047                      .dwattr $C$DW$87, DW_AT_TI_call
    1048 000386 6C00          CALL #_printf ; |283| 
         000388 0000!
    1049                                                      ; call occurs [#_printf] ; |283| 
    1050                      .dwpsn  file "../c5535_bsl_revc/ezdsp5535_v1/c55xx_csl/ccs_v4.0_examples/i2s/CSL_I2S_DMAExampale/csl_
    1051 00038a A406          MOV *SP(#3), T0 ; |284| 
    1052 00038c 0602          B $C$L40  ; |284| 
         00038e 4C   
    1053                                                      ; branch occurs ; |284| 
    1054 00038f       $C$L22:    
    1055                      .dwpsn  file "../c5535_bsl_revc/ezdsp5535_v1/c55xx_csl/ccs_v4.0_examples/i2s/CSL_I2S_DMAExampale/csl_
    1056 00038f ED31          MOV dbl(*(#_dmaRightTxHandle)), XAR0
         000391 8F00 
         000393 000C-
    1057              $C$DW$88        .dwtag  DW_TAG_TI_branch
    1058                      .dwattr $C$DW$88, DW_AT_low_pc(0x00)
    1059                      .dwattr $C$DW$88, DW_AT_name("_DMA_getStatus")
    1060                      .dwattr $C$DW$88, DW_AT_TI_call
    1061 000395 08FC          CALL #_DMA_getStatus ; |286| 
         000397 68   
    1062                                                      ; call occurs [#_DMA_getStatus] ; |286| 
    1063 000398 6604          BCC $C$L24,T0 == #0 ; |286| 
    1064                                                      ; branchcc occurs ; |286| 
    1065 00039a       $C$L23:    
    1066 00039a       $C$DW$L$_i2s_DMA_sample$22$B:
    1067 00039a ED31          MOV dbl(*(#_dmaRightTxHandle)), XAR0
         00039c 8F00 
         00039e 000C-
TMS320C55x Assembler PC v4.4.1 Sat Sep 29 23:09:33 2018

Tools Copyright (c) 1996-2012 Texas Instruments Incorporated
csl_i2s_DmaExample.asm                                               PAGE   25

    1068              $C$DW$89        .dwtag  DW_TAG_TI_branch
    1069                      .dwattr $C$DW$89, DW_AT_low_pc(0x00)
    1070                      .dwattr $C$DW$89, DW_AT_name("_DMA_getStatus")
    1071                      .dwattr $C$DW$89, DW_AT_TI_call
    1072 0003a0 08FC          CALL #_DMA_getStatus ; |286| 
         0003a2 5D   
    1073                                                      ; call occurs [#_DMA_getStatus] ; |286| 
    1074 0003a3 0414          BCC $C$L23,T0 != #0 ; |286| 
         0003a5 F4   
    1075                                                      ; branchcc occurs ; |286| 
    1076 0003a6       $C$DW$L$_i2s_DMA_sample$22$E:
    1077 0003a6       $C$L24:    
    1078                      .dwpsn  file "../c5535_bsl_revc/ezdsp5535_v1/c55xx_csl/ccs_v4.0_examples/i2s/CSL_I2S_DMAExampale/csl_
    1079 0003a6 E631          MOV #0, *(#_dmaConfig) ; |290| 
         0003a8 0000 
         0003aa 0012-
    1080                      .dwpsn  file "../c5535_bsl_revc/ezdsp5535_v1/c55xx_csl/ccs_v4.0_examples/i2s/CSL_I2S_DMAExampale/csl_
    1081 0003ac E631          MOV #0, *(#(_dmaConfig+1)) ; |292| 
         0003ae 0000 
         0003b0 0013-
    1082                      .dwpsn  file "../c5535_bsl_revc/ezdsp5535_v1/c55xx_csl/ccs_v4.0_examples/i2s/CSL_I2S_DMAExampale/csl_
    1083 0003b2 E631          MOV #0, *(#(_dmaConfig+2)) ; |293| 
         0003b4 0000 
         0003b6 0014-
    1084                      .dwpsn  file "../c5535_bsl_revc/ezdsp5535_v1/c55xx_csl/ccs_v4.0_examples/i2s/CSL_I2S_DMAExampale/csl_
    1085 0003b8 E631          MOV #1, *(#(_dmaConfig+3)) ; |294| 
         0003ba 0100 
         0003bc 0015-
    1086                      .dwpsn  file "../c5535_bsl_revc/ezdsp5535_v1/c55xx_csl/ccs_v4.0_examples/i2s/CSL_I2S_DMAExampale/csl_
    1087 0003be E631          MOV #2, *(#(_dmaConfig+4)) ; |295| 
         0003c0 0200 
         0003c2 0016-
    1088                      .dwpsn  file "../c5535_bsl_revc/ezdsp5535_v1/c55xx_csl/ccs_v4.0_examples/i2s/CSL_I2S_DMAExampale/csl_
    1089 0003c4 E631          MOV #0, *(#(_dmaConfig+5)) ; |296| 
         0003c6 0000 
         0003c8 0017-
    1090                      .dwpsn  file "../c5535_bsl_revc/ezdsp5535_v1/c55xx_csl/ccs_v4.0_examples/i2s/CSL_I2S_DMAExampale/csl_
    1091 0003ca E631          MOV #0, *(#(_dmaConfig+6)) ; |297| 
         0003cc 0000 
         0003ce 0018-
    1092                      .dwpsn  file "../c5535_bsl_revc/ezdsp5535_v1/c55xx_csl/ccs_v4.0_examples/i2s/CSL_I2S_DMAExampale/csl_
    1093 0003d0 E631          MOV #0, *(#(_dmaConfig+7)) ; |298| 
         0003d2 0000 
         0003d4 0019-
    1094                      .dwpsn  file "../c5535_bsl_revc/ezdsp5535_v1/c55xx_csl/ccs_v4.0_examples/i2s/CSL_I2S_DMAExampale/csl_
    1095 0003d6 E631          MOV #4, *(#(_dmaConfig+8)) ; |299| 
         0003d8 0400 
         0003da 001A-
    1096                      .dwpsn  file "../c5535_bsl_revc/ezdsp5535_v1/c55xx_csl/ccs_v4.0_examples/i2s/CSL_I2S_DMAExampale/csl_
    1097 0003dc 7628          MOV #10280, AC0 ; |300| 
         0003de 2808 
    1098 0003e0 EB31          MOV AC0, dbl(*(#(_dmaConfig+10))) ; |300| 
         0003e2 0800 
         0003e4 001C-
    1099                      .dwpsn  file "../c5535_bsl_revc/ezdsp5535_v1/c55xx_csl/ccs_v4.0_examples/i2s/CSL_I2S_DMAExampale/csl_
TMS320C55x Assembler PC v4.4.1 Sat Sep 29 23:09:33 2018

Tools Copyright (c) 1996-2012 Texas Instruments Incorporated
csl_i2s_DmaExample.asm                                               PAGE   26

    1100 0003e6 7A00          MOV #(_i2sDmaReadLeftBuff >> 16) << #16, AC0 ; |301| 
         0003e8 000A%
    1101 0003ea 7E00          OR #(_i2sDmaReadLeftBuff & 0xffff), AC0, AC0 ; |301| 
         0003ec 0000%
    1102 0003ee EB31          MOV AC0, dbl(*(#(_dmaConfig+12))) ; |301| 
         0003f0 0800 
         0003f2 001E-
    1103                      .dwpsn  file "../c5535_bsl_revc/ezdsp5535_v1/c55xx_csl/ccs_v4.0_examples/i2s/CSL_I2S_DMAExampale/csl_
    1104              $C$DW$90        .dwtag  DW_TAG_TI_branch
    1105                      .dwattr $C$DW$90, DW_AT_low_pc(0x00)
    1106                      .dwattr $C$DW$90, DW_AT_name("_CSL_configDmaForI2s")
    1107                      .dwattr $C$DW$90, DW_AT_TI_call
    1108              
    1109 0003f4 08FC          CALL #_CSL_configDmaForI2s ; |302| 
         0003f6 B3   
    1110 0003f7 3D04  ||      MOV #0, T0
    1111              
    1112                                                      ; call occurs [#_CSL_configDmaForI2s] ; |302| 
    1113 0003f9 EB31          MOV XAR0, dbl(*(#_dmaLeftRxHandle))
         0003fb 8500 
         0003fd 000E-
    1114                      .dwpsn  file "../c5535_bsl_revc/ezdsp5535_v1/c55xx_csl/ccs_v4.0_examples/i2s/CSL_I2S_DMAExampale/csl_
    1115 0003ff ED31          MOV dbl(*(#_dmaLeftRxHandle)), XAR3
         000401 BF00 
         000403 000E-
    1116 000405 90B0          MOV XAR3, AC0
    1117 000407 0410          BCC $C$L25,AC0 != #0 ; |303| 
         000409 12   
    1118                                                      ; branchcc occurs ; |303| 
    1119                      .dwpsn  file "../c5535_bsl_revc/ezdsp5535_v1/c55xx_csl/ccs_v4.0_examples/i2s/CSL_I2S_DMAExampale/csl_
    1120 00040a EC31          AMOV #$C$FSL9, XAR3 ; |305| 
         00040c BE00 
         00040e 00E2+
    1121 000410 EB00          MOV XAR3, dbl(*SP(#0))
         000412 B5   
    1122              $C$DW$91        .dwtag  DW_TAG_TI_branch
    1123                      .dwattr $C$DW$91, DW_AT_low_pc(0x00)
    1124                      .dwattr $C$DW$91, DW_AT_name("_printf")
    1125                      .dwattr $C$DW$91, DW_AT_TI_call
    1126 000413 6C00          CALL #_printf ; |305| 
         000415 0000!
    1127                                                      ; call occurs [#_printf] ; |305| 
    1128                      .dwpsn  file "../c5535_bsl_revc/ezdsp5535_v1/c55xx_csl/ccs_v4.0_examples/i2s/CSL_I2S_DMAExampale/csl_
    1129 000417 3C14          MOV #1, T0
    1130 000419 0601          B $C$L40  ; |306| 
         00041b BF   
    1131                                                      ; branch occurs ; |306| 
    1132 00041c       $C$L25:    
    1133                      .dwpsn  file "../c5535_bsl_revc/ezdsp5535_v1/c55xx_csl/ccs_v4.0_examples/i2s/CSL_I2S_DMAExampale/csl_
    1134              $C$DW$92        .dwtag  DW_TAG_TI_branch
    1135                      .dwattr $C$DW$92, DW_AT_low_pc(0x00)
    1136                      .dwattr $C$DW$92, DW_AT_name("_DMA_start")
    1137                      .dwattr $C$DW$92, DW_AT_TI_call
    1138 00041c 6C00          CALL #_DMA_start ; |309| 
         00041e 0000!
TMS320C55x Assembler PC v4.4.1 Sat Sep 29 23:09:33 2018

Tools Copyright (c) 1996-2012 Texas Instruments Incorporated
csl_i2s_DmaExample.asm                                               PAGE   27

    1139                                                      ; call occurs [#_DMA_start] ; |309| 
    1140 000420 C404          MOV T0, *SP(#2) ; |309| 
    1141                      .dwpsn  file "../c5535_bsl_revc/ezdsp5535_v1/c55xx_csl/ccs_v4.0_examples/i2s/CSL_I2S_DMAExampale/csl_
    1142 000422 2249          MOV T0, AR1
    1143 000424 0409          BCC $C$L26,AR1 == #0 ; |310| 
         000426 12   
    1144                                                      ; branchcc occurs ; |310| 
    1145                      .dwpsn  file "../c5535_bsl_revc/ezdsp5535_v1/c55xx_csl/ccs_v4.0_examples/i2s/CSL_I2S_DMAExampale/csl_
    1146 000427 EC31          AMOV #$C$FSL10, XAR3 ; |312| 
         000429 BE00 
         00042b 0104+
    1147 00042d EB00          MOV XAR3, dbl(*SP(#0))
         00042f B5   
    1148              $C$DW$93        .dwtag  DW_TAG_TI_branch
    1149                      .dwattr $C$DW$93, DW_AT_low_pc(0x00)
    1150                      .dwattr $C$DW$93, DW_AT_name("_printf")
    1151                      .dwattr $C$DW$93, DW_AT_TI_call
    1152 000430 6C00          CALL #_printf ; |312| 
         000432 0000!
    1153                                                      ; call occurs [#_printf] ; |312| 
    1154                      .dwpsn  file "../c5535_bsl_revc/ezdsp5535_v1/c55xx_csl/ccs_v4.0_examples/i2s/CSL_I2S_DMAExampale/csl_
    1155 000434 A406          MOV *SP(#3), T0 ; |313| 
    1156 000436 0601          B $C$L40  ; |313| 
         000438 A2   
    1157                                                      ; branch occurs ; |313| 
    1158 000439       $C$L26:    
    1159                      .dwpsn  file "../c5535_bsl_revc/ezdsp5535_v1/c55xx_csl/ccs_v4.0_examples/i2s/CSL_I2S_DMAExampale/csl_
    1160 000439 ED31          MOV dbl(*(#_dmaLeftRxHandle)), XAR0
         00043b 8F00 
         00043d 000E-
    1161              $C$DW$94        .dwtag  DW_TAG_TI_branch
    1162                      .dwattr $C$DW$94, DW_AT_low_pc(0x00)
    1163                      .dwattr $C$DW$94, DW_AT_name("_DMA_getStatus")
    1164                      .dwattr $C$DW$94, DW_AT_TI_call
    1165 00043f 08FB          CALL #_DMA_getStatus ; |315| 
         000441 BE   
    1166                                                      ; call occurs [#_DMA_getStatus] ; |315| 
    1167 000442 6604          BCC $C$L28,T0 == #0 ; |315| 
    1168                                                      ; branchcc occurs ; |315| 
    1169 000444       $C$L27:    
    1170 000444       $C$DW$L$_i2s_DMA_sample$28$B:
    1171 000444 ED31          MOV dbl(*(#_dmaLeftRxHandle)), XAR0
         000446 8F00 
         000448 000E-
    1172              $C$DW$95        .dwtag  DW_TAG_TI_branch
    1173                      .dwattr $C$DW$95, DW_AT_low_pc(0x00)
    1174                      .dwattr $C$DW$95, DW_AT_name("_DMA_getStatus")
    1175                      .dwattr $C$DW$95, DW_AT_TI_call
    1176 00044a 08FB          CALL #_DMA_getStatus ; |315| 
         00044c B3   
    1177                                                      ; call occurs [#_DMA_getStatus] ; |315| 
    1178 00044d 0414          BCC $C$L27,T0 != #0 ; |315| 
         00044f F4   
    1179                                                      ; branchcc occurs ; |315| 
    1180 000450       $C$DW$L$_i2s_DMA_sample$28$E:
TMS320C55x Assembler PC v4.4.1 Sat Sep 29 23:09:33 2018

Tools Copyright (c) 1996-2012 Texas Instruments Incorporated
csl_i2s_DmaExample.asm                                               PAGE   28

    1181 000450       $C$L28:    
    1182                      .dwpsn  file "../c5535_bsl_revc/ezdsp5535_v1/c55xx_csl/ccs_v4.0_examples/i2s/CSL_I2S_DMAExampale/csl_
    1183 000450 E631          MOV #0, *(#_dmaConfig) ; |319| 
         000452 0000 
         000454 0012-
    1184                      .dwpsn  file "../c5535_bsl_revc/ezdsp5535_v1/c55xx_csl/ccs_v4.0_examples/i2s/CSL_I2S_DMAExampale/csl_
    1185 000456 E631          MOV #0, *(#(_dmaConfig+1)) ; |321| 
         000458 0000 
         00045a 0013-
    1186                      .dwpsn  file "../c5535_bsl_revc/ezdsp5535_v1/c55xx_csl/ccs_v4.0_examples/i2s/CSL_I2S_DMAExampale/csl_
    1187 00045c E631          MOV #0, *(#(_dmaConfig+2)) ; |322| 
         00045e 0000 
         000460 0014-
    1188                      .dwpsn  file "../c5535_bsl_revc/ezdsp5535_v1/c55xx_csl/ccs_v4.0_examples/i2s/CSL_I2S_DMAExampale/csl_
    1189 000462 E631          MOV #1, *(#(_dmaConfig+3)) ; |323| 
         000464 0100 
         000466 0015-
    1190                      .dwpsn  file "../c5535_bsl_revc/ezdsp5535_v1/c55xx_csl/ccs_v4.0_examples/i2s/CSL_I2S_DMAExampale/csl_
    1191 000468 E631          MOV #2, *(#(_dmaConfig+4)) ; |324| 
         00046a 0200 
         00046c 0016-
    1192                      .dwpsn  file "../c5535_bsl_revc/ezdsp5535_v1/c55xx_csl/ccs_v4.0_examples/i2s/CSL_I2S_DMAExampale/csl_
    1193 00046e E631          MOV #0, *(#(_dmaConfig+5)) ; |325| 
         000470 0000 
         000472 0017-
    1194                      .dwpsn  file "../c5535_bsl_revc/ezdsp5535_v1/c55xx_csl/ccs_v4.0_examples/i2s/CSL_I2S_DMAExampale/csl_
    1195 000474 E631          MOV #0, *(#(_dmaConfig+6)) ; |326| 
         000476 0000 
         000478 0018-
    1196                      .dwpsn  file "../c5535_bsl_revc/ezdsp5535_v1/c55xx_csl/ccs_v4.0_examples/i2s/CSL_I2S_DMAExampale/csl_
    1197 00047a E631          MOV #0, *(#(_dmaConfig+7)) ; |327| 
         00047c 0000 
         00047e 0019-
    1198                      .dwpsn  file "../c5535_bsl_revc/ezdsp5535_v1/c55xx_csl/ccs_v4.0_examples/i2s/CSL_I2S_DMAExampale/csl_
    1199 000480 E631          MOV #4, *(#(_dmaConfig+8)) ; |328| 
         000482 0400 
         000484 001A-
    1200                      .dwpsn  file "../c5535_bsl_revc/ezdsp5535_v1/c55xx_csl/ccs_v4.0_examples/i2s/CSL_I2S_DMAExampale/csl_
    1201 000486 7628          MOV #10284, AC0 ; |329| 
         000488 2C08 
    1202 00048a EB31          MOV AC0, dbl(*(#(_dmaConfig+10))) ; |329| 
         00048c 0800 
         00048e 001C-
    1203                      .dwpsn  file "../c5535_bsl_revc/ezdsp5535_v1/c55xx_csl/ccs_v4.0_examples/i2s/CSL_I2S_DMAExampale/csl_
    1204 000490 7A00          MOV #(_i2sDmaReadRightBuff >> 16) << #16, AC0 ; |330| 
         000492 000A%
    1205 000494 7E00          OR #(_i2sDmaReadRightBuff & 0xffff), AC0, AC0 ; |330| 
         000496 0000%
    1206 000498 EB31          MOV AC0, dbl(*(#(_dmaConfig+12))) ; |330| 
         00049a 0800 
         00049c 001E-
    1207                      .dwpsn  file "../c5535_bsl_revc/ezdsp5535_v1/c55xx_csl/ccs_v4.0_examples/i2s/CSL_I2S_DMAExampale/csl_
    1208              $C$DW$96        .dwtag  DW_TAG_TI_branch
    1209                      .dwattr $C$DW$96, DW_AT_low_pc(0x00)
    1210                      .dwattr $C$DW$96, DW_AT_name("_CSL_configDmaForI2s")
TMS320C55x Assembler PC v4.4.1 Sat Sep 29 23:09:33 2018

Tools Copyright (c) 1996-2012 Texas Instruments Incorporated
csl_i2s_DmaExample.asm                                               PAGE   29

    1211                      .dwattr $C$DW$96, DW_AT_TI_call
    1212              
    1213 00049e 08FC          CALL #_CSL_configDmaForI2s ; |331| 
         0004a0 09   
    1214 0004a1 3D04  ||      MOV #0, T0
    1215              
    1216                                                      ; call occurs [#_CSL_configDmaForI2s] ; |331| 
    1217 0004a3 EB31          MOV XAR0, dbl(*(#_dmaRightRxHandle))
         0004a5 8500 
         0004a7 0010-
    1218                      .dwpsn  file "../c5535_bsl_revc/ezdsp5535_v1/c55xx_csl/ccs_v4.0_examples/i2s/CSL_I2S_DMAExampale/csl_
    1219 0004a9 ED31          MOV dbl(*(#_dmaRightRxHandle)), XAR3
         0004ab BF00 
         0004ad 0010-
    1220 0004af 90B0          MOV XAR3, AC0
    1221 0004b1 0410          BCC $C$L29,AC0 != #0 ; |332| 
         0004b3 12   
    1222                                                      ; branchcc occurs ; |332| 
    1223                      .dwpsn  file "../c5535_bsl_revc/ezdsp5535_v1/c55xx_csl/ccs_v4.0_examples/i2s/CSL_I2S_DMAExampale/csl_
    1224 0004b4 EC31          AMOV #$C$FSL9, XAR3 ; |334| 
         0004b6 BE00 
         0004b8 00E2+
    1225 0004ba EB00          MOV XAR3, dbl(*SP(#0))
         0004bc B5   
    1226              $C$DW$97        .dwtag  DW_TAG_TI_branch
    1227                      .dwattr $C$DW$97, DW_AT_low_pc(0x00)
    1228                      .dwattr $C$DW$97, DW_AT_name("_printf")
    1229                      .dwattr $C$DW$97, DW_AT_TI_call
    1230 0004bd 6C00          CALL #_printf ; |334| 
         0004bf 0000!
    1231                                                      ; call occurs [#_printf] ; |334| 
    1232                      .dwpsn  file "../c5535_bsl_revc/ezdsp5535_v1/c55xx_csl/ccs_v4.0_examples/i2s/CSL_I2S_DMAExampale/csl_
    1233 0004c1 3C14          MOV #1, T0
    1234 0004c3 0601          B $C$L40  ; |335| 
         0004c5 15   
    1235                                                      ; branch occurs ; |335| 
    1236 0004c6       $C$L29:    
    1237                      .dwpsn  file "../c5535_bsl_revc/ezdsp5535_v1/c55xx_csl/ccs_v4.0_examples/i2s/CSL_I2S_DMAExampale/csl_
    1238 0004c6 ED08          MOV dbl(*SP(#4)), XAR0
         0004c8 8F   
    1239              $C$DW$98        .dwtag  DW_TAG_TI_branch
    1240                      .dwattr $C$DW$98, DW_AT_low_pc(0x00)
    1241                      .dwattr $C$DW$98, DW_AT_name("_I2S_transEnable")
    1242                      .dwattr $C$DW$98, DW_AT_TI_call
    1243              
    1244 0004c9 6C00          CALL #_I2S_transEnable ; |338| 
         0004cb 0000!
    1245 0004cd 3D14  ||      MOV #1, T0
    1246              
    1247                                                      ; call occurs [#_I2S_transEnable] ; |338| 
    1248                      .dwpsn  file "../c5535_bsl_revc/ezdsp5535_v1/c55xx_csl/ccs_v4.0_examples/i2s/CSL_I2S_DMAExampale/csl_
    1249 0004cf ED31          MOV dbl(*(#_dmaRightRxHandle)), XAR0
         0004d1 8F00 
         0004d3 0010-
    1250              $C$DW$99        .dwtag  DW_TAG_TI_branch
TMS320C55x Assembler PC v4.4.1 Sat Sep 29 23:09:33 2018

Tools Copyright (c) 1996-2012 Texas Instruments Incorporated
csl_i2s_DmaExample.asm                                               PAGE   30

    1251                      .dwattr $C$DW$99, DW_AT_low_pc(0x00)
    1252                      .dwattr $C$DW$99, DW_AT_name("_DMA_start")
    1253                      .dwattr $C$DW$99, DW_AT_TI_call
    1254 0004d5 6C00          CALL #_DMA_start ; |340| 
         0004d7 0000!
    1255                                                      ; call occurs [#_DMA_start] ; |340| 
    1256 0004d9 C404          MOV T0, *SP(#2) ; |340| 
    1257                      .dwpsn  file "../c5535_bsl_revc/ezdsp5535_v1/c55xx_csl/ccs_v4.0_examples/i2s/CSL_I2S_DMAExampale/csl_
    1258 0004db 2249          MOV T0, AR1
    1259 0004dd 0409          BCC $C$L30,AR1 == #0 ; |341| 
         0004df 12   
    1260                                                      ; branchcc occurs ; |341| 
    1261                      .dwpsn  file "../c5535_bsl_revc/ezdsp5535_v1/c55xx_csl/ccs_v4.0_examples/i2s/CSL_I2S_DMAExampale/csl_
    1262 0004e0 EC31          AMOV #$C$FSL10, XAR3 ; |343| 
         0004e2 BE00 
         0004e4 0104+
    1263 0004e6 EB00          MOV XAR3, dbl(*SP(#0))
         0004e8 B5   
    1264              $C$DW$100       .dwtag  DW_TAG_TI_branch
    1265                      .dwattr $C$DW$100, DW_AT_low_pc(0x00)
    1266                      .dwattr $C$DW$100, DW_AT_name("_printf")
    1267                      .dwattr $C$DW$100, DW_AT_TI_call
    1268 0004e9 6C00          CALL #_printf ; |343| 
         0004eb 0000!
    1269                                                      ; call occurs [#_printf] ; |343| 
    1270                      .dwpsn  file "../c5535_bsl_revc/ezdsp5535_v1/c55xx_csl/ccs_v4.0_examples/i2s/CSL_I2S_DMAExampale/csl_
    1271 0004ed A406          MOV *SP(#3), T0 ; |344| 
    1272 0004ef 0600          B $C$L40  ; |344| 
         0004f1 E9   
    1273                                                      ; branch occurs ; |344| 
    1274 0004f2       $C$L30:    
    1275                      .dwpsn  file "../c5535_bsl_revc/ezdsp5535_v1/c55xx_csl/ccs_v4.0_examples/i2s/CSL_I2S_DMAExampale/csl_
    1276 0004f2 ED31          MOV dbl(*(#_dmaRightRxHandle)), XAR0
         0004f4 8F00 
         0004f6 0010-
    1277              $C$DW$101       .dwtag  DW_TAG_TI_branch
    1278                      .dwattr $C$DW$101, DW_AT_low_pc(0x00)
    1279                      .dwattr $C$DW$101, DW_AT_name("_DMA_getStatus")
    1280                      .dwattr $C$DW$101, DW_AT_TI_call
    1281 0004f8 08FB          CALL #_DMA_getStatus ; |346| 
         0004fa 05   
    1282                                                      ; call occurs [#_DMA_getStatus] ; |346| 
    1283 0004fb 6604          BCC $C$L32,T0 == #0 ; |346| 
    1284                                                      ; branchcc occurs ; |346| 
    1285 0004fd       $C$L31:    
    1286 0004fd       $C$DW$L$_i2s_DMA_sample$34$B:
    1287 0004fd ED31          MOV dbl(*(#_dmaRightRxHandle)), XAR0
         0004ff 8F00 
         000501 0010-
    1288              $C$DW$102       .dwtag  DW_TAG_TI_branch
    1289                      .dwattr $C$DW$102, DW_AT_low_pc(0x00)
    1290                      .dwattr $C$DW$102, DW_AT_name("_DMA_getStatus")
    1291                      .dwattr $C$DW$102, DW_AT_TI_call
    1292 000503 08FA          CALL #_DMA_getStatus ; |346| 
         000505 FA   
TMS320C55x Assembler PC v4.4.1 Sat Sep 29 23:09:33 2018

Tools Copyright (c) 1996-2012 Texas Instruments Incorporated
csl_i2s_DmaExample.asm                                               PAGE   31

    1293                                                      ; call occurs [#_DMA_getStatus] ; |346| 
    1294 000506 0414          BCC $C$L31,T0 != #0 ; |346| 
         000508 F4   
    1295                                                      ; branchcc occurs ; |346| 
    1296 000509       $C$DW$L$_i2s_DMA_sample$34$E:
    1297 000509       $C$L32:    
    1298                      .dwpsn  file "../c5535_bsl_revc/ezdsp5535_v1/c55xx_csl/ccs_v4.0_examples/i2s/CSL_I2S_DMAExampale/csl_
    1299 000509 ED08          MOV dbl(*SP(#4)), XAR0
         00050b 8F   
    1300              $C$DW$103       .dwtag  DW_TAG_TI_branch
    1301                      .dwattr $C$DW$103, DW_AT_low_pc(0x00)
    1302                      .dwattr $C$DW$103, DW_AT_name("_I2S_transEnable")
    1303                      .dwattr $C$DW$103, DW_AT_TI_call
    1304              
    1305 00050c 6C00          CALL #_I2S_transEnable ; |348| 
         00050e 0000!
    1306 000510 3D04  ||      MOV #0, T0
    1307              
    1308                                                      ; call occurs [#_I2S_transEnable] ; |348| 
    1309                      .dwpsn  file "../c5535_bsl_revc/ezdsp5535_v1/c55xx_csl/ccs_v4.0_examples/i2s/CSL_I2S_DMAExampale/csl_
    1310 000512 ED08          MOV dbl(*SP(#4)), XAR0
         000514 8F   
    1311              $C$DW$104       .dwtag  DW_TAG_TI_branch
    1312                      .dwattr $C$DW$104, DW_AT_low_pc(0x00)
    1313                      .dwattr $C$DW$104, DW_AT_name("_I2S_reset")
    1314                      .dwattr $C$DW$104, DW_AT_TI_call
    1315 000515 6C00          CALL #_I2S_reset ; |350| 
         000517 0000!
    1316                                                      ; call occurs [#_I2S_reset] ; |350| 
    1317 000519 C406          MOV T0, *SP(#3) ; |350| 
    1318                      .dwpsn  file "../c5535_bsl_revc/ezdsp5535_v1/c55xx_csl/ccs_v4.0_examples/i2s/CSL_I2S_DMAExampale/csl_
    1319 00051b 2249          MOV T0, AR1
    1320 00051d 6409          BCC $C$L33,AR1 == #0 ; |352| 
    1321                                                      ; branchcc occurs ; |352| 
    1322                      .dwpsn  file "../c5535_bsl_revc/ezdsp5535_v1/c55xx_csl/ccs_v4.0_examples/i2s/CSL_I2S_DMAExampale/csl_
    1323 00051f E604          MOV #1, *SP(#2) ; |354| 
         000521 01   
    1324                      .dwpsn  file "../c5535_bsl_revc/ezdsp5535_v1/c55xx_csl/ccs_v4.0_examples/i2s/CSL_I2S_DMAExampale/csl_
    1325 000522 A404          MOV *SP(#2), T0 ; |355| 
    1326 000524 0600          B $C$L40  ; |355| 
         000526 B4   
    1327                                                      ; branch occurs ; |355| 
    1328 000527       $C$L33:    
    1329                      .dwpsn  file "../c5535_bsl_revc/ezdsp5535_v1/c55xx_csl/ccs_v4.0_examples/i2s/CSL_I2S_DMAExampale/csl_
    1330 000527 EC31          AMOV #$C$FSL11, XAR3 ; |359| 
         000529 BE00 
         00052b 011C+
    1331 00052d EB00          MOV XAR3, dbl(*SP(#0))
         00052f B5   
    1332              $C$DW$105       .dwtag  DW_TAG_TI_branch
    1333                      .dwattr $C$DW$105, DW_AT_low_pc(0x00)
    1334                      .dwattr $C$DW$105, DW_AT_name("_printf")
    1335                      .dwattr $C$DW$105, DW_AT_TI_call
    1336 000530 6C00          CALL #_printf ; |359| 
         000532 0000!
TMS320C55x Assembler PC v4.4.1 Sat Sep 29 23:09:33 2018

Tools Copyright (c) 1996-2012 Texas Instruments Incorporated
csl_i2s_DmaExample.asm                                               PAGE   32

    1337                                                      ; call occurs [#_printf] ; |359| 
    1338                      .dwpsn  file "../c5535_bsl_revc/ezdsp5535_v1/c55xx_csl/ccs_v4.0_examples/i2s/CSL_I2S_DMAExampale/csl_
    1339 000534 ED08          MOV dbl(*SP(#4)), XAR0
         000536 8F   
    1340              $C$DW$106       .dwtag  DW_TAG_TI_branch
    1341                      .dwattr $C$DW$106, DW_AT_low_pc(0x00)
    1342                      .dwattr $C$DW$106, DW_AT_name("_I2S_close")
    1343                      .dwattr $C$DW$106, DW_AT_TI_call
    1344 000537 6C00          CALL #_I2S_close ; |363| 
         000539 0000!
    1345                                                      ; call occurs [#_I2S_close] ; |363| 
    1346 00053b C406          MOV T0, *SP(#3) ; |363| 
    1347                      .dwpsn  file "../c5535_bsl_revc/ezdsp5535_v1/c55xx_csl/ccs_v4.0_examples/i2s/CSL_I2S_DMAExampale/csl_
    1348 00053d 2249          MOV T0, AR1
    1349 00053f 6409          BCC $C$L34,AR1 == #0 ; |365| 
    1350                                                      ; branchcc occurs ; |365| 
    1351                      .dwpsn  file "../c5535_bsl_revc/ezdsp5535_v1/c55xx_csl/ccs_v4.0_examples/i2s/CSL_I2S_DMAExampale/csl_
    1352 000541 E604          MOV #1, *SP(#2) ; |367| 
         000543 01   
    1353                      .dwpsn  file "../c5535_bsl_revc/ezdsp5535_v1/c55xx_csl/ccs_v4.0_examples/i2s/CSL_I2S_DMAExampale/csl_
    1354 000544 A404          MOV *SP(#2), T0 ; |368| 
    1355 000546 0600          B $C$L40  ; |368| 
         000548 92   
    1356                                                      ; branch occurs ; |368| 
    1357 000549       $C$L34:    
    1358                      .dwpsn  file "../c5535_bsl_revc/ezdsp5535_v1/c55xx_csl/ccs_v4.0_examples/i2s/CSL_I2S_DMAExampale/csl_
    1359 000549 EC31          AMOV #$C$FSL12, XAR3 ; |372| 
         00054b BE00 
         00054d 0132+
    1360 00054f EB00          MOV XAR3, dbl(*SP(#0))
         000551 B5   
    1361              $C$DW$107       .dwtag  DW_TAG_TI_branch
    1362                      .dwattr $C$DW$107, DW_AT_low_pc(0x00)
    1363                      .dwattr $C$DW$107, DW_AT_name("_printf")
    1364                      .dwattr $C$DW$107, DW_AT_TI_call
    1365 000552 6C00          CALL #_printf ; |372| 
         000554 0000!
    1366                                                      ; call occurs [#_printf] ; |372| 
    1367                      .dwpsn  file "../c5535_bsl_revc/ezdsp5535_v1/c55xx_csl/ccs_v4.0_examples/i2s/CSL_I2S_DMAExampale/csl_
    1368 000556 EC31          AMOV #_i2sDmaWriteLeftBuff, XAR0 ; |379| 
         000558 8E00 
         00055a 0020-
    1369              $C$DW$108       .dwtag  DW_TAG_TI_branch
    1370                      .dwattr $C$DW$108, DW_AT_low_pc(0x00)
    1371                      .dwattr $C$DW$108, DW_AT_name("_DMA_swapWords")
    1372                      .dwattr $C$DW$108, DW_AT_TI_call
    1373              
    1374 00055c 6C00          CALL #_DMA_swapWords ; |379| 
         00055e 0000!
    1375 000560 3D20  ||      MOV #2, AC0 ; |379| 
    1376              
    1377                                                      ; call occurs [#_DMA_swapWords] ; |379| 
    1378 000562 C406          MOV T0, *SP(#3) ; |379| 
    1379                      .dwpsn  file "../c5535_bsl_revc/ezdsp5535_v1/c55xx_csl/ccs_v4.0_examples/i2s/CSL_I2S_DMAExampale/csl_
    1380 000564 2249          MOV T0, AR1
TMS320C55x Assembler PC v4.4.1 Sat Sep 29 23:09:33 2018

Tools Copyright (c) 1996-2012 Texas Instruments Incorporated
csl_i2s_DmaExample.asm                                               PAGE   33

    1381 000566 0409          BCC $C$L35,AR1 == #0 ; |380| 
         000568 15   
    1382                                                      ; branchcc occurs ; |380| 
    1383                      .dwpsn  file "../c5535_bsl_revc/ezdsp5535_v1/c55xx_csl/ccs_v4.0_examples/i2s/CSL_I2S_DMAExampale/csl_
    1384 000569 EC31          AMOV #$C$FSL4, XAR3 ; |382| 
         00056b BE00 
         00056d 003E+
    1385 00056f EB00          MOV XAR3, dbl(*SP(#0))
         000571 B5   
    1386              $C$DW$109       .dwtag  DW_TAG_TI_branch
    1387                      .dwattr $C$DW$109, DW_AT_low_pc(0x00)
    1388                      .dwattr $C$DW$109, DW_AT_name("_printf")
    1389                      .dwattr $C$DW$109, DW_AT_TI_call
    1390 000572 6C00          CALL #_printf ; |382| 
         000574 0000!
    1391                                                      ; call occurs [#_printf] ; |382| 
    1392                      .dwpsn  file "../c5535_bsl_revc/ezdsp5535_v1/c55xx_csl/ccs_v4.0_examples/i2s/CSL_I2S_DMAExampale/csl_
    1393 000576 E604          MOV #1, *SP(#2) ; |383| 
         000578 01   
    1394                      .dwpsn  file "../c5535_bsl_revc/ezdsp5535_v1/c55xx_csl/ccs_v4.0_examples/i2s/CSL_I2S_DMAExampale/csl_
    1395 000579 A404          MOV *SP(#2), T0 ; |384| 
    1396 00057b 0600          B $C$L40  ; |384| 
         00057d 5D   
    1397                                                      ; branch occurs ; |384| 
    1398 00057e       $C$L35:    
    1399                      .dwpsn  file "../c5535_bsl_revc/ezdsp5535_v1/c55xx_csl/ccs_v4.0_examples/i2s/CSL_I2S_DMAExampale/csl_
    1400 00057e E628          MOV #0, *SP(#20) ; |388| 
         000580 00   
    1401                      .dwpsn  file "../c5535_bsl_revc/ezdsp5535_v1/c55xx_csl/ccs_v4.0_examples/i2s/CSL_I2S_DMAExampale/csl_
    1402 000581 A928          MOV *SP(#20), AR1 ; |388| 
    1403 000583 0419          BCC $C$L38,AR1 != #0 ; |388| 
         000585 3D   
    1404                                                      ; branchcc occurs ; |388| 
    1405 000586       $C$L36:    
    1406 000586       $C$DW$L$_i2s_DMA_sample$44$B:
    1407                      .dwpsn  file "../c5535_bsl_revc/ezdsp5535_v1/c55xx_csl/ccs_v4.0_examples/i2s/CSL_I2S_DMAExampale/csl_
    1408 000586 A428          MOV *SP(#20), T0 ; |390| 
    1409 000588 5040          SFTL T0, #1 ; |390| 
    1410 00058a EC31          AMOV #_i2sDmaReadLeftBuff, XAR3 ; |390| 
         00058c BE00 
         00058e 0030-
    1411 000590 ED6B          MOV dbl(*AR3(T0)), AC0 ; |390| 
         000592 08   
    1412 000593 A428          MOV *SP(#20), T0 ; |390| 
    1413 000595 5040          SFTL T0, #1 ; |390| 
    1414 000597 EC31          AMOV #_i2sDmaWriteLeftBuff, XAR3 ; |390| 
         000599 BE00 
         00059b 0020-
    1415 00059d ED6B          MOV dbl(*AR3(T0)), AC1 ; |390| 
         00059f 18   
    1416 0005a0 1210          CMPU AC1 == AC0, TC1 ; |390| 
         0005a2 04   
    1417 0005a3 0464          BCC $C$L37,TC1 ; |390| 
         0005a5 14   
    1418                                                      ; branchcc occurs ; |390| 
TMS320C55x Assembler PC v4.4.1 Sat Sep 29 23:09:33 2018

Tools Copyright (c) 1996-2012 Texas Instruments Incorporated
csl_i2s_DmaExample.asm                                               PAGE   34

    1419 0005a6       $C$DW$L$_i2s_DMA_sample$44$E:
    1420                      .dwpsn  file "../c5535_bsl_revc/ezdsp5535_v1/c55xx_csl/ccs_v4.0_examples/i2s/CSL_I2S_DMAExampale/csl_
    1421 0005a6 EC31          AMOV #$C$FSL13, XAR3 ; |392| 
         0005a8 BE00 
         0005aa 0148+
    1422 0005ac EB00          MOV XAR3, dbl(*SP(#0))
         0005ae B5   
    1423              $C$DW$110       .dwtag  DW_TAG_TI_branch
    1424                      .dwattr $C$DW$110, DW_AT_low_pc(0x00)
    1425                      .dwattr $C$DW$110, DW_AT_name("_printf")
    1426                      .dwattr $C$DW$110, DW_AT_TI_call
    1427 0005af 6C00          CALL #_printf ; |392| 
         0005b1 0000!
    1428                                                      ; call occurs [#_printf] ; |392| 
    1429                      .dwpsn  file "../c5535_bsl_revc/ezdsp5535_v1/c55xx_csl/ccs_v4.0_examples/i2s/CSL_I2S_DMAExampale/csl_
    1430 0005b3 E604          MOV #1, *SP(#2) ; |393| 
         0005b5 01   
    1431                      .dwpsn  file "../c5535_bsl_revc/ezdsp5535_v1/c55xx_csl/ccs_v4.0_examples/i2s/CSL_I2S_DMAExampale/csl_
    1432 0005b6 A404          MOV *SP(#2), T0 ; |394| 
    1433 0005b8 4A21          B $C$L40  ; |394| 
    1434                                                      ; branch occurs ; |394| 
    1435 0005ba       $C$L37:    
    1436 0005ba       $C$DW$L$_i2s_DMA_sample$46$B:
    1437                      .dwpsn  file "../c5535_bsl_revc/ezdsp5535_v1/c55xx_csl/ccs_v4.0_examples/i2s/CSL_I2S_DMAExampale/csl_
    1438 0005ba F728          ADD #1, *SP(#20) ; |388| 
         0005bc 0001 
    1439                      .dwpsn  file "../c5535_bsl_revc/ezdsp5535_v1/c55xx_csl/ccs_v4.0_examples/i2s/CSL_I2S_DMAExampale/csl_
    1440 0005be A928          MOV *SP(#20), AR1 ; |388| 
    1441 0005c0 0409          BCC $C$L36,AR1 == #0 ; |388| 
         0005c2 C3   
    1442                                                      ; branchcc occurs ; |388| 
    1443 0005c3       $C$DW$L$_i2s_DMA_sample$46$E:
    1444 0005c3       $C$L38:    
    1445                      .dwpsn  file "../c5535_bsl_revc/ezdsp5535_v1/c55xx_csl/ccs_v4.0_examples/i2s/CSL_I2S_DMAExampale/csl_
    1446 0005c3 F028          CMP *SP(#20) == #1, TC1 ; |398| 
         0005c5 0001 
    1447 0005c7 66F4          BCC $C$L39,!TC1 ; |398| 
    1448                                                      ; branchcc occurs ; |398| 
    1449                      .dwpsn  file "../c5535_bsl_revc/ezdsp5535_v1/c55xx_csl/ccs_v4.0_examples/i2s/CSL_I2S_DMAExampale/csl_
    1450 0005c9 EC31          AMOV #$C$FSL14, XAR3 ; |400| 
         0005cb BE00 
         0005cd 0174+
    1451 0005cf EB00          MOV XAR3, dbl(*SP(#0))
         0005d1 B5   
    1452              $C$DW$111       .dwtag  DW_TAG_TI_branch
    1453                      .dwattr $C$DW$111, DW_AT_low_pc(0x00)
    1454                      .dwattr $C$DW$111, DW_AT_name("_printf")
    1455                      .dwattr $C$DW$111, DW_AT_TI_call
    1456 0005d2 6C00          CALL #_printf ; |400| 
         0005d4 0000!
    1457                                                      ; call occurs [#_printf] ; |400| 
    1458 0005d6       $C$L39:    
    1459                      .dwpsn  file "../c5535_bsl_revc/ezdsp5535_v1/c55xx_csl/ccs_v4.0_examples/i2s/CSL_I2S_DMAExampale/csl_
    1460 0005d6 E604          MOV #0, *SP(#2) ; |403| 
         0005d8 00   
TMS320C55x Assembler PC v4.4.1 Sat Sep 29 23:09:33 2018

Tools Copyright (c) 1996-2012 Texas Instruments Incorporated
csl_i2s_DmaExample.asm                                               PAGE   35

    1461                      .dwpsn  file "../c5535_bsl_revc/ezdsp5535_v1/c55xx_csl/ccs_v4.0_examples/i2s/CSL_I2S_DMAExampale/csl_
    1462 0005d9 A404          MOV *SP(#2), T0 ; |404| 
    1463 0005db       $C$L40:    
    1464                      .dwpsn  file "../c5535_bsl_revc/ezdsp5535_v1/c55xx_csl/ccs_v4.0_examples/i2s/CSL_I2S_DMAExampale/csl_
    1465 0005db 4E15          AADD #21, SP
    1466                      .dwcfi  cfa_offset, 1
    1467              $C$DW$112       .dwtag  DW_TAG_TI_branch
    1468                      .dwattr $C$DW$112, DW_AT_low_pc(0x00)
    1469                      .dwattr $C$DW$112, DW_AT_TI_return
    1470 0005dd 4804          RET
    1471                                                      ; return occurs
    1472              
    1473              $C$DW$113       .dwtag  DW_TAG_TI_loop
    1474                      .dwattr $C$DW$113, DW_AT_name("F:\eZdsp_DBG\tmp1\c55x-sim2\foo\Debug\csl_i2s_DmaExample.asm:$C$L36:1:
    1475                      .dwattr $C$DW$113, DW_AT_TI_begin_file("../c5535_bsl_revc/ezdsp5535_v1/c55xx_csl/ccs_v4.0_examples/i2
    1476                      .dwattr $C$DW$113, DW_AT_TI_begin_line(0x184)
    1477                      .dwattr $C$DW$113, DW_AT_TI_end_line(0x18c)
    1478              $C$DW$114       .dwtag  DW_TAG_TI_loop_range
    1479                      .dwattr $C$DW$114, DW_AT_low_pc($C$DW$L$_i2s_DMA_sample$44$B)
    1480                      .dwattr $C$DW$114, DW_AT_high_pc($C$DW$L$_i2s_DMA_sample$44$E)
    1481              $C$DW$115       .dwtag  DW_TAG_TI_loop_range
    1482                      .dwattr $C$DW$115, DW_AT_low_pc($C$DW$L$_i2s_DMA_sample$46$B)
    1483                      .dwattr $C$DW$115, DW_AT_high_pc($C$DW$L$_i2s_DMA_sample$46$E)
    1484                      .dwendtag $C$DW$113
    1485              
    1486              
    1487              $C$DW$116       .dwtag  DW_TAG_TI_loop
    1488                      .dwattr $C$DW$116, DW_AT_name("F:\eZdsp_DBG\tmp1\c55x-sim2\foo\Debug\csl_i2s_DmaExample.asm:$C$L31:1:
    1489                      .dwattr $C$DW$116, DW_AT_TI_begin_file("../c5535_bsl_revc/ezdsp5535_v1/c55xx_csl/ccs_v4.0_examples/i2
    1490                      .dwattr $C$DW$116, DW_AT_TI_begin_line(0x15a)
    1491                      .dwattr $C$DW$116, DW_AT_TI_end_line(0x15a)
    1492              $C$DW$117       .dwtag  DW_TAG_TI_loop_range
    1493                      .dwattr $C$DW$117, DW_AT_low_pc($C$DW$L$_i2s_DMA_sample$34$B)
    1494                      .dwattr $C$DW$117, DW_AT_high_pc($C$DW$L$_i2s_DMA_sample$34$E)
    1495                      .dwendtag $C$DW$116
    1496              
    1497              
    1498              $C$DW$118       .dwtag  DW_TAG_TI_loop
    1499                      .dwattr $C$DW$118, DW_AT_name("F:\eZdsp_DBG\tmp1\c55x-sim2\foo\Debug\csl_i2s_DmaExample.asm:$C$L27:1:
    1500                      .dwattr $C$DW$118, DW_AT_TI_begin_file("../c5535_bsl_revc/ezdsp5535_v1/c55xx_csl/ccs_v4.0_examples/i2
    1501                      .dwattr $C$DW$118, DW_AT_TI_begin_line(0x13b)
    1502                      .dwattr $C$DW$118, DW_AT_TI_end_line(0x13b)
    1503              $C$DW$119       .dwtag  DW_TAG_TI_loop_range
    1504                      .dwattr $C$DW$119, DW_AT_low_pc($C$DW$L$_i2s_DMA_sample$28$B)
    1505                      .dwattr $C$DW$119, DW_AT_high_pc($C$DW$L$_i2s_DMA_sample$28$E)
    1506                      .dwendtag $C$DW$118
    1507              
    1508              
    1509              $C$DW$120       .dwtag  DW_TAG_TI_loop
    1510                      .dwattr $C$DW$120, DW_AT_name("F:\eZdsp_DBG\tmp1\c55x-sim2\foo\Debug\csl_i2s_DmaExample.asm:$C$L23:1:
    1511                      .dwattr $C$DW$120, DW_AT_TI_begin_file("../c5535_bsl_revc/ezdsp5535_v1/c55xx_csl/ccs_v4.0_examples/i2
    1512                      .dwattr $C$DW$120, DW_AT_TI_begin_line(0x11e)
    1513                      .dwattr $C$DW$120, DW_AT_TI_end_line(0x11e)
    1514              $C$DW$121       .dwtag  DW_TAG_TI_loop_range
    1515                      .dwattr $C$DW$121, DW_AT_low_pc($C$DW$L$_i2s_DMA_sample$22$B)
TMS320C55x Assembler PC v4.4.1 Sat Sep 29 23:09:33 2018

Tools Copyright (c) 1996-2012 Texas Instruments Incorporated
csl_i2s_DmaExample.asm                                               PAGE   36

    1516                      .dwattr $C$DW$121, DW_AT_high_pc($C$DW$L$_i2s_DMA_sample$22$E)
    1517                      .dwendtag $C$DW$120
    1518              
    1519              
    1520              $C$DW$122       .dwtag  DW_TAG_TI_loop
    1521                      .dwattr $C$DW$122, DW_AT_name("F:\eZdsp_DBG\tmp1\c55x-sim2\foo\Debug\csl_i2s_DmaExample.asm:$C$L19:1:
    1522                      .dwattr $C$DW$122, DW_AT_TI_begin_file("../c5535_bsl_revc/ezdsp5535_v1/c55xx_csl/ccs_v4.0_examples/i2
    1523                      .dwattr $C$DW$122, DW_AT_TI_begin_line(0xff)
    1524                      .dwattr $C$DW$122, DW_AT_TI_end_line(0xff)
    1525              $C$DW$123       .dwtag  DW_TAG_TI_loop_range
    1526                      .dwattr $C$DW$123, DW_AT_low_pc($C$DW$L$_i2s_DMA_sample$16$B)
    1527                      .dwattr $C$DW$123, DW_AT_high_pc($C$DW$L$_i2s_DMA_sample$16$E)
    1528                      .dwendtag $C$DW$122
    1529              
    1530              
    1531              $C$DW$124       .dwtag  DW_TAG_TI_loop
    1532                      .dwattr $C$DW$124, DW_AT_name("F:\eZdsp_DBG\tmp1\c55x-sim2\foo\Debug\csl_i2s_DmaExample.asm:$C$L12:1:
    1533                      .dwattr $C$DW$124, DW_AT_TI_begin_file("../c5535_bsl_revc/ezdsp5535_v1/c55xx_csl/ccs_v4.0_examples/i2
    1534                      .dwattr $C$DW$124, DW_AT_TI_begin_line(0x9e)
    1535                      .dwattr $C$DW$124, DW_AT_TI_end_line(0xa2)
    1536              $C$DW$125       .dwtag  DW_TAG_TI_loop_range
    1537                      .dwattr $C$DW$125, DW_AT_low_pc($C$DW$L$_i2s_DMA_sample$2$B)
    1538                      .dwattr $C$DW$125, DW_AT_high_pc($C$DW$L$_i2s_DMA_sample$2$E)
    1539                      .dwendtag $C$DW$124
    1540              
    1541                      .dwattr $C$DW$64, DW_AT_TI_end_file("../c5535_bsl_revc/ezdsp5535_v1/c55xx_csl/ccs_v4.0_examples/i2s/C
    1542                      .dwattr $C$DW$64, DW_AT_TI_end_line(0x195)
    1543                      .dwattr $C$DW$64, DW_AT_TI_end_column(0x01)
    1544                      .dwendentry
    1545                      .dwendtag $C$DW$64
    1546              
    1547 0005df               .sect   ".text"
    1548                      .align 4
    1549                      .global _main
    1550              
    1551              $C$DW$126       .dwtag  DW_TAG_subprogram, DW_AT_name("main")
    1552                      .dwattr $C$DW$126, DW_AT_low_pc(_main)
    1553                      .dwattr $C$DW$126, DW_AT_high_pc(0x00)
    1554                      .dwattr $C$DW$126, DW_AT_TI_symbol_name("_main")
    1555                      .dwattr $C$DW$126, DW_AT_external
    1556                      .dwattr $C$DW$126, DW_AT_TI_begin_file("../c5535_bsl_revc/ezdsp5535_v1/c55xx_csl/ccs_v4.0_examples/i2
    1557                      .dwattr $C$DW$126, DW_AT_TI_begin_line(0x1a1)
    1558                      .dwattr $C$DW$126, DW_AT_TI_begin_column(0x06)
    1559                      .dwattr $C$DW$126, DW_AT_TI_max_frame_size(0x04)
    1560                      .dwpsn  file "../c5535_bsl_revc/ezdsp5535_v1/c55xx_csl/ccs_v4.0_examples/i2s/CSL_I2S_DMAExampale/csl_
    1561              
    1562                      .dwfde $C$DW$CIE, _main
    1563              ;*******************************************************************************
    1564              ;* FUNCTION NAME: main                                                         *
    1565              ;*                                                                             *
    1566              ;*   Function Uses Regs : T0,AR1,AR3,XAR3,SP,M40,SATA,SATD,RDM,FRCT,SMUL       *
    1567              ;*   Stack Frame        : Compact (No Frame Pointer, w/ debug)                 *
    1568              ;*   Total Frame Size   : 4 words                                              *
    1569              ;*                        (1 return address/alignment)                         *
    1570              ;*                        (2 function parameters)                              *
TMS320C55x Assembler PC v4.4.1 Sat Sep 29 23:09:33 2018

Tools Copyright (c) 1996-2012 Texas Instruments Incorporated
csl_i2s_DmaExample.asm                                               PAGE   37

    1571              ;*                        (1 local values)                                     *
    1572              ;*   Min System Stack   : 1 word                                               *
    1573              ;*******************************************************************************
    1574 0005e0       _main:
    1575                      .dwcfi  cfa_offset, 1
    1576                      .dwcfi  save_reg_to_mem, 91, -1
    1577 0005e0 4EFD          AADD #-3, SP
    1578                      .dwcfi  cfa_offset, 4
    1579              $C$DW$127       .dwtag  DW_TAG_variable, DW_AT_name("status")
    1580                      .dwattr $C$DW$127, DW_AT_TI_symbol_name("_status")
    1581                      .dwattr $C$DW$127, DW_AT_type(*$C$DW$T$100)
    1582                      .dwattr $C$DW$127, DW_AT_location[DW_OP_bregx 0x24 2]
    1583                      .dwpsn  file "../c5535_bsl_revc/ezdsp5535_v1/c55xx_csl/ccs_v4.0_examples/i2s/CSL_I2S_DMAExampale/csl_
    1584 0005e2 EC31          AMOV #$C$FSL15, XAR3 ; |421| 
         0005e4 BE00 
         0005e6 0198+
    1585 0005e8 EB00          MOV XAR3, dbl(*SP(#0))
         0005ea B5   
    1586              $C$DW$128       .dwtag  DW_TAG_TI_branch
    1587                      .dwattr $C$DW$128, DW_AT_low_pc(0x00)
    1588                      .dwattr $C$DW$128, DW_AT_name("_printf")
    1589                      .dwattr $C$DW$128, DW_AT_TI_call
    1590 0005eb 6C00          CALL #_printf ; |421| 
         0005ed 0000!
    1591                                                      ; call occurs [#_printf] ; |421| 
    1592                      .dwpsn  file "../c5535_bsl_revc/ezdsp5535_v1/c55xx_csl/ccs_v4.0_examples/i2s/CSL_I2S_DMAExampale/csl_
    1593              $C$DW$129       .dwtag  DW_TAG_TI_branch
    1594                      .dwattr $C$DW$129, DW_AT_low_pc(0x00)
    1595                      .dwattr $C$DW$129, DW_AT_name("_i2s_DMA_sample")
    1596                      .dwattr $C$DW$129, DW_AT_TI_call
    1597 0005ef 08FB          CALL #_i2s_DMA_sample ; |423| 
         0005f1 66   
    1598                                                      ; call occurs [#_i2s_DMA_sample] ; |423| 
    1599 0005f2 C404          MOV T0, *SP(#2) ; |423| 
    1600                      .dwpsn  file "../c5535_bsl_revc/ezdsp5535_v1/c55xx_csl/ccs_v4.0_examples/i2s/CSL_I2S_DMAExampale/csl_
    1601 0005f4 2249          MOV T0, AR1
    1602 0005f6 0409          BCC $C$L41,AR1 == #0 ; |425| 
         0005f8 15   
    1603                                                      ; branchcc occurs ; |425| 
    1604                      .dwpsn  file "../c5535_bsl_revc/ezdsp5535_v1/c55xx_csl/ccs_v4.0_examples/i2s/CSL_I2S_DMAExampale/csl_
    1605 0005f9 EC31          AMOV #$C$FSL16, XAR3 ; |427| 
         0005fb BE00 
         0005fd 01B2+
    1606 0005ff EB00          MOV XAR3, dbl(*SP(#0))
         000601 B5   
    1607              $C$DW$130       .dwtag  DW_TAG_TI_branch
    1608                      .dwattr $C$DW$130, DW_AT_low_pc(0x00)
    1609                      .dwattr $C$DW$130, DW_AT_name("_printf")
    1610                      .dwattr $C$DW$130, DW_AT_TI_call
    1611 000602 6C00          CALL #_printf ; |427| 
         000604 0000!
    1612                                                      ; call occurs [#_printf] ; |427| 
    1613                      .dwpsn  file "../c5535_bsl_revc/ezdsp5535_v1/c55xx_csl/ccs_v4.0_examples/i2s/CSL_I2S_DMAExampale/csl_
    1614 000606 E631          MOV #0, *(#_PaSs_StAtE) ; |430| 
         000608 0000 
TMS320C55x Assembler PC v4.4.1 Sat Sep 29 23:09:33 2018

Tools Copyright (c) 1996-2012 Texas Instruments Incorporated
csl_i2s_DmaExample.asm                                               PAGE   38

         00060a 0009-
    1615                      .dwpsn  file "../c5535_bsl_revc/ezdsp5535_v1/c55xx_csl/ccs_v4.0_examples/i2s/CSL_I2S_DMAExampale/csl_
    1616 00060c 4A0D          B $C$L42  ; |432| 
    1617                                                      ; branch occurs ; |432| 
    1618 00060e       $C$L41:    
    1619                      .dwpsn  file "../c5535_bsl_revc/ezdsp5535_v1/c55xx_csl/ccs_v4.0_examples/i2s/CSL_I2S_DMAExampale/csl_
    1620 00060e EC31          AMOV #$C$FSL17, XAR3 ; |435| 
         000610 BE00 
         000612 01D4+
    1621 000614 EB00          MOV XAR3, dbl(*SP(#0))
         000616 B5   
    1622              $C$DW$131       .dwtag  DW_TAG_TI_branch
    1623                      .dwattr $C$DW$131, DW_AT_low_pc(0x00)
    1624                      .dwattr $C$DW$131, DW_AT_name("_printf")
    1625                      .dwattr $C$DW$131, DW_AT_TI_call
    1626 000617 6C00          CALL #_printf ; |435| 
         000619 0000!
    1627                                                      ; call occurs [#_printf] ; |435| 
    1628 00061b       $C$L42:    
    1629                      .dwpsn  file "../c5535_bsl_revc/ezdsp5535_v1/c55xx_csl/ccs_v4.0_examples/i2s/CSL_I2S_DMAExampale/csl_
    1630 00061b A931          MOV *(#_PaSs_StAtE), AR1 ; |439| 
         00061d 0000 
         00061f 09-  
    1631 000620 C931          MOV AR1, *(#_PaSs) ; |439| 
         000622 0000 
         000624 22-  
    1632                      .dwpsn  file "../c5535_bsl_revc/ezdsp5535_v1/c55xx_csl/ccs_v4.0_examples/i2s/CSL_I2S_DMAExampale/csl_
    1633 000625 4E03          AADD #3, SP
    1634                      .dwcfi  cfa_offset, 1
    1635              $C$DW$132       .dwtag  DW_TAG_TI_branch
    1636                      .dwattr $C$DW$132, DW_AT_low_pc(0x00)
    1637                      .dwattr $C$DW$132, DW_AT_TI_return
    1638 000627 4804          RET
    1639                                                      ; return occurs
    1640                      .dwattr $C$DW$126, DW_AT_TI_end_file("../c5535_bsl_revc/ezdsp5535_v1/c55xx_csl/ccs_v4.0_examples/i2s/
    1641                      .dwattr $C$DW$126, DW_AT_TI_end_line(0x1bc)
    1642                      .dwattr $C$DW$126, DW_AT_TI_end_column(0x01)
    1643                      .dwendentry
    1644                      .dwendtag $C$DW$126
    1645              
    1646              ;*******************************************************************************
    1647              ;* FAR STRINGS                                                                 *
    1648              ;*******************************************************************************
    1649 000000               .sect   ".const:.string"
    1650                      .align  2
    1651 000000 0044  $C$FSL1:        .string "DMA_init() Failed ",10,0
         000001 004D 
         000002 0041 
         000003 005F 
         000004 0069 
         000005 006E 
         000006 0069 
         000007 0074 
         000008 0028 
         000009 0029 
TMS320C55x Assembler PC v4.4.1 Sat Sep 29 23:09:33 2018

Tools Copyright (c) 1996-2012 Texas Instruments Incorporated
csl_i2s_DmaExample.asm                                               PAGE   39

         00000a 0020 
         00000b 0046 
         00000c 0061 
         00000d 0069 
         00000e 006C 
         00000f 0065 
         000010 0064 
         000011 0020 
         000012 000A 
         000013 0000 
    1652                      .align  2
    1653 000014 0044  $C$FSL2:        .string "DMA_open() Failed ",10,0
         000015 004D 
         000016 0041 
         000017 005F 
         000018 006F 
         000019 0070 
         00001a 0065 
         00001b 006E 
         00001c 0028 
         00001d 0029 
         00001e 0020 
         00001f 0046 
         000020 0061 
         000021 0069 
         000022 006C 
         000023 0065 
         000024 0064 
         000025 0020 
         000026 000A 
         000027 0000 
    1654                      .align  2
    1655 000028 0044  $C$FSL3:        .string "DMA_config() Failed ",10,0
         000029 004D 
         00002a 0041 
         00002b 005F 
         00002c 0063 
         00002d 006F 
         00002e 006E 
         00002f 0066 
         000030 0069 
         000031 0067 
         000032 0028 
         000033 0029 
         000034 0020 
         000035 0046 
         000036 0061 
         000037 0069 
         000038 006C 
         000039 0065 
         00003a 0064 
         00003b 0020 
         00003c 000A 
         00003d 0000 
    1656                      .align  2
TMS320C55x Assembler PC v4.4.1 Sat Sep 29 23:09:33 2018

Tools Copyright (c) 1996-2012 Texas Instruments Incorporated
csl_i2s_DmaExample.asm                                               PAGE   40

    1657 00003e 0044  $C$FSL4:        .string "DMA word swap API failed",10,0
         00003f 004D 
         000040 0041 
         000041 0020 
         000042 0077 
         000043 006F 
         000044 0072 
         000045 0064 
         000046 0020 
         000047 0073 
         000048 0077 
         000049 0061 
         00004a 0070 
         00004b 0020 
         00004c 0041 
         00004d 0050 
         00004e 0049 
         00004f 0020 
         000050 0066 
         000051 0061 
         000052 0069 
         000053 006C 
         000054 0065 
         000055 0064 
         000056 000A 
         000057 0000 
    1658                      .align  2
    1659 000058 0049  $C$FSL5:        .string "I2S Module Instance opened successfully",10,0
         000059 0032 
         00005a 0053 
         00005b 0020 
         00005c 004D 
         00005d 006F 
         00005e 0064 
         00005f 0075 
         000060 006C 
         000061 0065 
         000062 0020 
         000063 0049 
         000064 006E 
         000065 0073 
         000066 0074 
         000067 0061 
         000068 006E 
         000069 0063 
         00006a 0065 
         00006b 0020 
         00006c 006F 
         00006d 0070 
         00006e 0065 
         00006f 006E 
         000070 0065 
         000071 0064 
         000072 0020 
         000073 0073 
TMS320C55x Assembler PC v4.4.1 Sat Sep 29 23:09:33 2018

Tools Copyright (c) 1996-2012 Texas Instruments Incorporated
csl_i2s_DmaExample.asm                                               PAGE   41

         000074 0075 
         000075 0063 
         000076 0063 
         000077 0065 
         000078 0073 
         000079 0073 
         00007a 0066 
         00007b 0075 
         00007c 006C 
         00007d 006C 
         00007e 0079 
         00007f 000A 
         000080 0000 
    1660                      .align  2
    1661 000082 0049  $C$FSL6:        .string "I2S Module Configured successfully",10,0
         000083 0032 
         000084 0053 
         000085 0020 
         000086 004D 
         000087 006F 
         000088 0064 
         000089 0075 
         00008a 006C 
         00008b 0065 
         00008c 0020 
         00008d 0043 
         00008e 006F 
         00008f 006E 
         000090 0066 
         000091 0069 
         000092 0067 
         000093 0075 
         000094 0072 
         000095 0065 
         000096 0064 
         000097 0020 
         000098 0073 
         000099 0075 
         00009a 0063 
         00009b 0063 
         00009c 0065 
         00009d 0073 
         00009e 0073 
         00009f 0066 
         0000a0 0075 
         0000a1 006C 
         0000a2 006C 
         0000a3 0079 
         0000a4 000A 
         0000a5 0000 
    1662                      .align  2
    1663 0000a6 0044  $C$FSL7:        .string "DMA Config for I2S Write Failed!",10,"!",0
         0000a7 004D 
         0000a8 0041 
         0000a9 0020 
TMS320C55x Assembler PC v4.4.1 Sat Sep 29 23:09:33 2018

Tools Copyright (c) 1996-2012 Texas Instruments Incorporated
csl_i2s_DmaExample.asm                                               PAGE   42

         0000aa 0043 
         0000ab 006F 
         0000ac 006E 
         0000ad 0066 
         0000ae 0069 
         0000af 0067 
         0000b0 0020 
         0000b1 0066 
         0000b2 006F 
         0000b3 0072 
         0000b4 0020 
         0000b5 0049 
         0000b6 0032 
         0000b7 0053 
         0000b8 0020 
         0000b9 0057 
         0000ba 0072 
         0000bb 0069 
         0000bc 0074 
         0000bd 0065 
         0000be 0020 
         0000bf 0046 
         0000c0 0061 
         0000c1 0069 
         0000c2 006C 
         0000c3 0065 
         0000c4 0064 
         0000c5 0021 
         0000c6 000A 
         0000c7 0021 
         0000c8 0000 
    1664                      .align  2
    1665 0000ca 0049  $C$FSL8:        .string "I2S Dma Write Failed!!",10,0
         0000cb 0032 
         0000cc 0053 
         0000cd 0020 
         0000ce 0044 
         0000cf 006D 
         0000d0 0061 
         0000d1 0020 
         0000d2 0057 
         0000d3 0072 
         0000d4 0069 
         0000d5 0074 
         0000d6 0065 
         0000d7 0020 
         0000d8 0046 
         0000d9 0061 
         0000da 0069 
         0000db 006C 
         0000dc 0065 
         0000dd 0064 
         0000de 0021 
         0000df 0021 
         0000e0 000A 
TMS320C55x Assembler PC v4.4.1 Sat Sep 29 23:09:33 2018

Tools Copyright (c) 1996-2012 Texas Instruments Incorporated
csl_i2s_DmaExample.asm                                               PAGE   43

         0000e1 0000 
    1666                      .align  2
    1667 0000e2 0044  $C$FSL9:        .string "DMA Config for I2S Read Failed!",10,"!",0
         0000e3 004D 
         0000e4 0041 
         0000e5 0020 
         0000e6 0043 
         0000e7 006F 
         0000e8 006E 
         0000e9 0066 
         0000ea 0069 
         0000eb 0067 
         0000ec 0020 
         0000ed 0066 
         0000ee 006F 
         0000ef 0072 
         0000f0 0020 
         0000f1 0049 
         0000f2 0032 
         0000f3 0053 
         0000f4 0020 
         0000f5 0052 
         0000f6 0065 
         0000f7 0061 
         0000f8 0064 
         0000f9 0020 
         0000fa 0046 
         0000fb 0061 
         0000fc 0069 
         0000fd 006C 
         0000fe 0065 
         0000ff 0064 
         000100 0021 
         000101 000A 
         000102 0021 
         000103 0000 
    1668                      .align  2
    1669 000104 0049  $C$FSL10:       .string "I2S Dma Read Failed!!",10,0
         000105 0032 
         000106 0053 
         000107 0020 
         000108 0044 
         000109 006D 
         00010a 0061 
         00010b 0020 
         00010c 0052 
         00010d 0065 
         00010e 0061 
         00010f 0064 
         000110 0020 
         000111 0046 
         000112 0061 
         000113 0069 
         000114 006C 
         000115 0065 
TMS320C55x Assembler PC v4.4.1 Sat Sep 29 23:09:33 2018

Tools Copyright (c) 1996-2012 Texas Instruments Incorporated
csl_i2s_DmaExample.asm                                               PAGE   44

         000116 0064 
         000117 0021 
         000118 0021 
         000119 000A 
         00011a 0000 
    1670                      .align  2
    1671 00011c 0049  $C$FSL11:       .string "I2S Reset Successful",10,0
         00011d 0032 
         00011e 0053 
         00011f 0020 
         000120 0052 
         000121 0065 
         000122 0073 
         000123 0065 
         000124 0074 
         000125 0020 
         000126 0053 
         000127 0075 
         000128 0063 
         000129 0063 
         00012a 0065 
         00012b 0073 
         00012c 0073 
         00012d 0066 
         00012e 0075 
         00012f 006C 
         000130 000A 
         000131 0000 
    1672                      .align  2
    1673 000132 0049  $C$FSL12:       .string "I2S Close Successful",10,0
         000133 0032 
         000134 0053 
         000135 0020 
         000136 0043 
         000137 006C 
         000138 006F 
         000139 0073 
         00013a 0065 
         00013b 0020 
         00013c 0053 
         00013d 0075 
         00013e 0063 
         00013f 0063 
         000140 0065 
         000141 0073 
         000142 0073 
         000143 0066 
         000144 0075 
         000145 006C 
         000146 000A 
         000147 0000 
    1674                      .align  2
    1675 000148 0049  $C$FSL13:       .string "I2S Read & Write Buffers doesn't Match!!!",10,0
         000149 0032 
         00014a 0053 
TMS320C55x Assembler PC v4.4.1 Sat Sep 29 23:09:33 2018

Tools Copyright (c) 1996-2012 Texas Instruments Incorporated
csl_i2s_DmaExample.asm                                               PAGE   45

         00014b 0020 
         00014c 0052 
         00014d 0065 
         00014e 0061 
         00014f 0064 
         000150 0020 
         000151 0026 
         000152 0020 
         000153 0057 
         000154 0072 
         000155 0069 
         000156 0074 
         000157 0065 
         000158 0020 
         000159 0042 
         00015a 0075 
         00015b 0066 
         00015c 0066 
         00015d 0065 
         00015e 0072 
         00015f 0073 
         000160 0020 
         000161 0064 
         000162 006F 
         000163 0065 
         000164 0073 
         000165 006E 
         000166 0027 
         000167 0074 
         000168 0020 
         000169 004D 
         00016a 0061 
         00016b 0074 
         00016c 0063 
         00016d 0068 
         00016e 0021 
         00016f 0021 
         000170 0021 
         000171 000A 
         000172 0000 
    1676                      .align  2
    1677 000174 0049  $C$FSL14:       .string "I2S Read & Write Buffers Match!!!",10,0
         000175 0032 
         000176 0053 
         000177 0020 
         000178 0052 
         000179 0065 
         00017a 0061 
         00017b 0064 
         00017c 0020 
         00017d 0026 
         00017e 0020 
         00017f 0057 
         000180 0072 
         000181 0069 
TMS320C55x Assembler PC v4.4.1 Sat Sep 29 23:09:33 2018

Tools Copyright (c) 1996-2012 Texas Instruments Incorporated
csl_i2s_DmaExample.asm                                               PAGE   46

         000182 0074 
         000183 0065 
         000184 0020 
         000185 0042 
         000186 0075 
         000187 0066 
         000188 0066 
         000189 0065 
         00018a 0072 
         00018b 0073 
         00018c 0020 
         00018d 004D 
         00018e 0061 
         00018f 0074 
         000190 0063 
         000191 0068 
         000192 0021 
         000193 0021 
         000194 0021 
         000195 000A 
         000196 0000 
    1678                      .align  2
    1679 000198 0043  $C$FSL15:       .string "CSL I2S DMA MODE TEST!",10,10,0
         000199 0053 
         00019a 004C 
         00019b 0020 
         00019c 0049 
         00019d 0032 
         00019e 0053 
         00019f 0020 
         0001a0 0044 
         0001a1 004D 
         0001a2 0041 
         0001a3 0020 
         0001a4 004D 
         0001a5 004F 
         0001a6 0044 
         0001a7 0045 
         0001a8 0020 
         0001a9 0054 
         0001aa 0045 
         0001ab 0053 
         0001ac 0054 
         0001ad 0021 
         0001ae 000A 
         0001af 000A 
         0001b0 0000 
    1680                      .align  2
    1681 0001b2 000A  $C$FSL16:       .string 10,"CSL I2S DMA MODE TEST FAILED!!",10,10,0
         0001b3 0043 
         0001b4 0053 
         0001b5 004C 
         0001b6 0020 
         0001b7 0049 
         0001b8 0032 
TMS320C55x Assembler PC v4.4.1 Sat Sep 29 23:09:33 2018

Tools Copyright (c) 1996-2012 Texas Instruments Incorporated
csl_i2s_DmaExample.asm                                               PAGE   47

         0001b9 0053 
         0001ba 0020 
         0001bb 0044 
         0001bc 004D 
         0001bd 0041 
         0001be 0020 
         0001bf 004D 
         0001c0 004F 
         0001c1 0044 
         0001c2 0045 
         0001c3 0020 
         0001c4 0054 
         0001c5 0045 
         0001c6 0053 
         0001c7 0054 
         0001c8 0020 
         0001c9 0046 
         0001ca 0041 
         0001cb 0049 
         0001cc 004C 
         0001cd 0045 
         0001ce 0044 
         0001cf 0021 
         0001d0 0021 
         0001d1 000A 
         0001d2 000A 
         0001d3 0000 
    1682                      .align  2
    1683 0001d4 000A  $C$FSL17:       .string 10,"CSL I2S DMA MODE TEST PASSED!",10,10,0
         0001d5 0043 
         0001d6 0053 
         0001d7 004C 
         0001d8 0020 
         0001d9 0049 
         0001da 0032 
         0001db 0053 
         0001dc 0020 
         0001dd 0044 
         0001de 004D 
         0001df 0041 
         0001e0 0020 
         0001e1 004D 
         0001e2 004F 
         0001e3 0044 
         0001e4 0045 
         0001e5 0020 
         0001e6 0054 
         0001e7 0045 
         0001e8 0053 
         0001e9 0054 
         0001ea 0020 
         0001eb 0050 
         0001ec 0041 
         0001ed 0053 
         0001ee 0053 
TMS320C55x Assembler PC v4.4.1 Sat Sep 29 23:09:33 2018

Tools Copyright (c) 1996-2012 Texas Instruments Incorporated
csl_i2s_DmaExample.asm                                               PAGE   48

         0001ef 0045 
         0001f0 0044 
         0001f1 0021 
         0001f2 000A 
         0001f3 000A 
         0001f4 0000 
    1684              ;******************************************************************************
    1685              ;* UNDEFINED EXTERNAL REFERENCES                                              *
    1686              ;******************************************************************************
    1687                      .global _DMA_init
    1688                      .global _DMA_open
    1689                      .global _DMA_config
    1690                      .global _DMA_start
    1691                      .global _DMA_swapWords
    1692                      .global _I2S_open
    1693                      .global _I2S_setup
    1694                      .global _I2S_close
    1695                      .global _I2S_reset
    1696                      .global _I2S_transEnable
    1697                      .global _printf
    1698              
    1699              ;*******************************************************************************
    1700              ;* TYPE INFORMATION                                                            *
    1701              ;*******************************************************************************
    1702              
    1703              $C$DW$T$27      .dwtag  DW_TAG_enumeration_type
    1704                      .dwattr $C$DW$T$27, DW_AT_byte_size(0x01)
    1705              $C$DW$133       .dwtag  DW_TAG_enumerator, DW_AT_name("CSL_DMA_CHAN0"), DW_AT_const_value(0x00)
    1706              $C$DW$134       .dwtag  DW_TAG_enumerator, DW_AT_name("CSL_DMA_CHAN1"), DW_AT_const_value(0x01)
    1707              $C$DW$135       .dwtag  DW_TAG_enumerator, DW_AT_name("CSL_DMA_CHAN2"), DW_AT_const_value(0x02)
    1708              $C$DW$136       .dwtag  DW_TAG_enumerator, DW_AT_name("CSL_DMA_CHAN3"), DW_AT_const_value(0x03)
    1709              $C$DW$137       .dwtag  DW_TAG_enumerator, DW_AT_name("CSL_DMA_CHAN4"), DW_AT_const_value(0x04)
    1710              $C$DW$138       .dwtag  DW_TAG_enumerator, DW_AT_name("CSL_DMA_CHAN5"), DW_AT_const_value(0x05)
    1711              $C$DW$139       .dwtag  DW_TAG_enumerator, DW_AT_name("CSL_DMA_CHAN6"), DW_AT_const_value(0x06)
    1712              $C$DW$140       .dwtag  DW_TAG_enumerator, DW_AT_name("CSL_DMA_CHAN7"), DW_AT_const_value(0x07)
    1713              $C$DW$141       .dwtag  DW_TAG_enumerator, DW_AT_name("CSL_DMA_CHAN8"), DW_AT_const_value(0x08)
    1714              $C$DW$142       .dwtag  DW_TAG_enumerator, DW_AT_name("CSL_DMA_CHAN9"), DW_AT_const_value(0x09)
    1715              $C$DW$143       .dwtag  DW_TAG_enumerator, DW_AT_name("CSL_DMA_CHAN10"), DW_AT_const_value(0x0a)
    1716              $C$DW$144       .dwtag  DW_TAG_enumerator, DW_AT_name("CSL_DMA_CHAN11"), DW_AT_const_value(0x0b)
    1717              $C$DW$145       .dwtag  DW_TAG_enumerator, DW_AT_name("CSL_DMA_CHAN12"), DW_AT_const_value(0x0c)
    1718              $C$DW$146       .dwtag  DW_TAG_enumerator, DW_AT_name("CSL_DMA_CHAN13"), DW_AT_const_value(0x0d)
    1719              $C$DW$147       .dwtag  DW_TAG_enumerator, DW_AT_name("CSL_DMA_CHAN14"), DW_AT_const_value(0x0e)
    1720              $C$DW$148       .dwtag  DW_TAG_enumerator, DW_AT_name("CSL_DMA_CHAN15"), DW_AT_const_value(0x0f)
    1721              $C$DW$149       .dwtag  DW_TAG_enumerator, DW_AT_name("CSL_DMA_CHAN_INV"), DW_AT_const_value(0x10)
    1722                      .dwendtag $C$DW$T$27
    1723              
    1724              $C$DW$T$28      .dwtag  DW_TAG_typedef, DW_AT_name("CSL_DMAChanNum")
    1725                      .dwattr $C$DW$T$28, DW_AT_type(*$C$DW$T$27)
    1726                      .dwattr $C$DW$T$28, DW_AT_language(DW_LANG_C)
    1727              
    1728              $C$DW$T$29      .dwtag  DW_TAG_enumeration_type
    1729                      .dwattr $C$DW$T$29, DW_AT_byte_size(0x01)
    1730              $C$DW$150       .dwtag  DW_TAG_enumerator, DW_AT_name("CSL_DMA_ENGINE0"), DW_AT_const_value(0x00)
    1731              $C$DW$151       .dwtag  DW_TAG_enumerator, DW_AT_name("CSL_DMA_ENGINE1"), DW_AT_const_value(0x01)
    1732              $C$DW$152       .dwtag  DW_TAG_enumerator, DW_AT_name("CSL_DMA_ENGINE2"), DW_AT_const_value(0x02)
TMS320C55x Assembler PC v4.4.1 Sat Sep 29 23:09:33 2018

Tools Copyright (c) 1996-2012 Texas Instruments Incorporated
csl_i2s_DmaExample.asm                                               PAGE   49

    1733              $C$DW$153       .dwtag  DW_TAG_enumerator, DW_AT_name("CSL_DMA_ENGINE3"), DW_AT_const_value(0x03)
    1734              $C$DW$154       .dwtag  DW_TAG_enumerator, DW_AT_name("CSL_DMA_ENGINEINV"), DW_AT_const_value(0x04)
    1735                      .dwendtag $C$DW$T$29
    1736              
    1737              $C$DW$T$30      .dwtag  DW_TAG_typedef, DW_AT_name("CSL_DMAEngineId")
    1738                      .dwattr $C$DW$T$30, DW_AT_type(*$C$DW$T$29)
    1739                      .dwattr $C$DW$T$30, DW_AT_language(DW_LANG_C)
    1740              
    1741              $C$DW$T$32      .dwtag  DW_TAG_enumeration_type
    1742                      .dwattr $C$DW$T$32, DW_AT_byte_size(0x01)
    1743              $C$DW$155       .dwtag  DW_TAG_enumerator, DW_AT_name("CSL_DMA_READ"), DW_AT_const_value(0x00)
    1744              $C$DW$156       .dwtag  DW_TAG_enumerator, DW_AT_name("CSL_DMA_WRITE"), DW_AT_const_value(0x01)
    1745                      .dwendtag $C$DW$T$32
    1746              
    1747              $C$DW$T$33      .dwtag  DW_TAG_typedef, DW_AT_name("CSL_DMAChanDir")
    1748                      .dwattr $C$DW$T$33, DW_AT_type(*$C$DW$T$32)
    1749                      .dwattr $C$DW$T$33, DW_AT_language(DW_LANG_C)
    1750              
    1751              $C$DW$T$34      .dwtag  DW_TAG_enumeration_type
    1752                      .dwattr $C$DW$T$34, DW_AT_byte_size(0x01)
    1753              $C$DW$157       .dwtag  DW_TAG_enumerator, DW_AT_name("CSL_DMA_SOFTWARE_TRIGGER"), DW_AT_const_value(0x00)
    1754              $C$DW$158       .dwtag  DW_TAG_enumerator, DW_AT_name("CSL_DMA_EVENT_TRIGGER"), DW_AT_const_value(0x01)
    1755                      .dwendtag $C$DW$T$34
    1756              
    1757              $C$DW$T$35      .dwtag  DW_TAG_typedef, DW_AT_name("CSL_DMATriggerType")
    1758                      .dwattr $C$DW$T$35, DW_AT_type(*$C$DW$T$34)
    1759                      .dwattr $C$DW$T$35, DW_AT_language(DW_LANG_C)
    1760              
    1761              $C$DW$T$36      .dwtag  DW_TAG_enumeration_type
    1762                      .dwattr $C$DW$T$36, DW_AT_byte_size(0x01)
    1763              $C$DW$159       .dwtag  DW_TAG_enumerator, DW_AT_name("CSL_DMA_TRANSFER_IO_MEMORY"), DW_AT_const_value(0x00)
    1764              $C$DW$160       .dwtag  DW_TAG_enumerator, DW_AT_name("CSL_DMA_TRANSFER_MEMORY"), DW_AT_const_value(0x01)
    1765                      .dwendtag $C$DW$T$36
    1766              
    1767              $C$DW$T$37      .dwtag  DW_TAG_typedef, DW_AT_name("CSL_DMATransferType")
    1768                      .dwattr $C$DW$T$37, DW_AT_type(*$C$DW$T$36)
    1769                      .dwattr $C$DW$T$37, DW_AT_language(DW_LANG_C)
    1770              
    1771              $C$DW$T$38      .dwtag  DW_TAG_enumeration_type
    1772                      .dwattr $C$DW$T$38, DW_AT_byte_size(0x01)
    1773              $C$DW$161       .dwtag  DW_TAG_enumerator, DW_AT_name("CSL_DMA_INTERRUPT_DISABLE"), DW_AT_const_value(0x00)
    1774              $C$DW$162       .dwtag  DW_TAG_enumerator, DW_AT_name("CSL_DMA_INTERRUPT_ENABLE"), DW_AT_const_value(0x01)
    1775                      .dwendtag $C$DW$T$38
    1776              
    1777              $C$DW$T$39      .dwtag  DW_TAG_typedef, DW_AT_name("CSL_DMAInterruptState")
    1778                      .dwattr $C$DW$T$39, DW_AT_type(*$C$DW$T$38)
    1779                      .dwattr $C$DW$T$39, DW_AT_language(DW_LANG_C)
    1780              
    1781              $C$DW$T$41      .dwtag  DW_TAG_enumeration_type
    1782                      .dwattr $C$DW$T$41, DW_AT_byte_size(0x01)
    1783              $C$DW$163       .dwtag  DW_TAG_enumerator, DW_AT_name("CSL_DMA_PING_PONG_DISABLE"), DW_AT_const_value(0x00)
    1784              $C$DW$164       .dwtag  DW_TAG_enumerator, DW_AT_name("CSL_DMA_PING_PONG_ENABLE"), DW_AT_const_value(0x01)
    1785                      .dwendtag $C$DW$T$41
    1786              
    1787              $C$DW$T$42      .dwtag  DW_TAG_typedef, DW_AT_name("CSL_DMAPingPongMode")
TMS320C55x Assembler PC v4.4.1 Sat Sep 29 23:09:33 2018

Tools Copyright (c) 1996-2012 Texas Instruments Incorporated
csl_i2s_DmaExample.asm                                               PAGE   50

    1788                      .dwattr $C$DW$T$42, DW_AT_type(*$C$DW$T$41)
    1789                      .dwattr $C$DW$T$42, DW_AT_language(DW_LANG_C)
    1790              
    1791              $C$DW$T$43      .dwtag  DW_TAG_enumeration_type
    1792                      .dwattr $C$DW$T$43, DW_AT_byte_size(0x01)
    1793              $C$DW$165       .dwtag  DW_TAG_enumerator, DW_AT_name("CSL_DMA_AUTORELOAD_DISABLE"), DW_AT_const_value(0x00)
    1794              $C$DW$166       .dwtag  DW_TAG_enumerator, DW_AT_name("CSL_DMA_AUTORELOAD_ENABLE"), DW_AT_const_value(0x01)
    1795                      .dwendtag $C$DW$T$43
    1796              
    1797              $C$DW$T$44      .dwtag  DW_TAG_typedef, DW_AT_name("CSL_DMAAutoReloadMode")
    1798                      .dwattr $C$DW$T$44, DW_AT_type(*$C$DW$T$43)
    1799                      .dwattr $C$DW$T$44, DW_AT_language(DW_LANG_C)
    1800              
    1801              $C$DW$T$45      .dwtag  DW_TAG_enumeration_type
    1802                      .dwattr $C$DW$T$45, DW_AT_byte_size(0x01)
    1803              $C$DW$167       .dwtag  DW_TAG_enumerator, DW_AT_name("CSL_DMA_TXBURST_1WORD"), DW_AT_const_value(0x00)
    1804              $C$DW$168       .dwtag  DW_TAG_enumerator, DW_AT_name("CSL_DMA_TXBURST_2WORD"), DW_AT_const_value(0x01)
    1805              $C$DW$169       .dwtag  DW_TAG_enumerator, DW_AT_name("CSL_DMA_TXBURST_4WORD"), DW_AT_const_value(0x02)
    1806              $C$DW$170       .dwtag  DW_TAG_enumerator, DW_AT_name("CSL_DMA_TXBURST_8WORD"), DW_AT_const_value(0x03)
    1807              $C$DW$171       .dwtag  DW_TAG_enumerator, DW_AT_name("CSL_DMA_TXBURST_16WORD"), DW_AT_const_value(0x04)
    1808                      .dwendtag $C$DW$T$45
    1809              
    1810              $C$DW$T$46      .dwtag  DW_TAG_typedef, DW_AT_name("CSL_DMATxBurstLen")
    1811                      .dwattr $C$DW$T$46, DW_AT_type(*$C$DW$T$45)
    1812                      .dwattr $C$DW$T$46, DW_AT_language(DW_LANG_C)
    1813              
    1814              $C$DW$T$47      .dwtag  DW_TAG_enumeration_type
    1815                      .dwattr $C$DW$T$47, DW_AT_byte_size(0x01)
    1816              $C$DW$172       .dwtag  DW_TAG_enumerator, DW_AT_name("CSL_DMA_EVT_NONE"), DW_AT_const_value(0x00)
    1817              $C$DW$173       .dwtag  DW_TAG_enumerator, DW_AT_name("CSL_DMA_EVT_I2S0_TX"), DW_AT_const_value(0x01)
    1818              $C$DW$174       .dwtag  DW_TAG_enumerator, DW_AT_name("CSL_DMA_EVT_I2S0_RX"), DW_AT_const_value(0x02)
    1819              $C$DW$175       .dwtag  DW_TAG_enumerator, DW_AT_name("CSL_DMA_EVT_I2S1_TX"), DW_AT_const_value(0x01)
    1820              $C$DW$176       .dwtag  DW_TAG_enumerator, DW_AT_name("CSL_DMA_EVT_I2S1_RX"), DW_AT_const_value(0x02)
    1821              $C$DW$177       .dwtag  DW_TAG_enumerator, DW_AT_name("CSL_DMA_EVT_I2S2_TX"), DW_AT_const_value(0x01)
    1822              $C$DW$178       .dwtag  DW_TAG_enumerator, DW_AT_name("CSL_DMA_EVT_I2S2_RX"), DW_AT_const_value(0x02)
    1823              $C$DW$179       .dwtag  DW_TAG_enumerator, DW_AT_name("CSL_DMA_EVT_I2S3_TX"), DW_AT_const_value(0x04)
    1824              $C$DW$180       .dwtag  DW_TAG_enumerator, DW_AT_name("CSL_DMA_EVT_I2S3_RX"), DW_AT_const_value(0x05)
    1825              $C$DW$181       .dwtag  DW_TAG_enumerator, DW_AT_name("CSL_DMA_EVT_MMC_SD0_TX"), DW_AT_const_value(0x05)
    1826              $C$DW$182       .dwtag  DW_TAG_enumerator, DW_AT_name("CSL_DMA_EVT_MMC_SD0_RX"), DW_AT_const_value(0x06)
    1827              $C$DW$183       .dwtag  DW_TAG_enumerator, DW_AT_name("CSL_DMA_EVT_MMC_SD1_TX"), DW_AT_const_value(0x07)
    1828              $C$DW$184       .dwtag  DW_TAG_enumerator, DW_AT_name("CSL_DMA_EVT_MMC_SD1_RX"), DW_AT_const_value(0x08)
    1829              $C$DW$185       .dwtag  DW_TAG_enumerator, DW_AT_name("CSL_DMA_EVT_TIMER0"), DW_AT_const_value(0x0c)
    1830              $C$DW$186       .dwtag  DW_TAG_enumerator, DW_AT_name("CSL_DMA_EVT_TIMER1"), DW_AT_const_value(0x0d)
    1831              $C$DW$187       .dwtag  DW_TAG_enumerator, DW_AT_name("CSL_DMA_EVT_TIMER2"), DW_AT_const_value(0x0e)
    1832              $C$DW$188       .dwtag  DW_TAG_enumerator, DW_AT_name("CSL_DMA_EVT_UART_TX"), DW_AT_const_value(0x05)
    1833              $C$DW$189       .dwtag  DW_TAG_enumerator, DW_AT_name("CSL_DMA_EVT_UART_RX"), DW_AT_const_value(0x06)
    1834              $C$DW$190       .dwtag  DW_TAG_enumerator, DW_AT_name("CSL_DMA_EVT_I2C_TX"), DW_AT_const_value(0x01)
    1835              $C$DW$191       .dwtag  DW_TAG_enumerator, DW_AT_name("CSL_DMA_EVT_I2C_RX"), DW_AT_const_value(0x02)
    1836              $C$DW$192       .dwtag  DW_TAG_enumerator, DW_AT_name("CSL_DMA_EVT_SAR_AD"), DW_AT_const_value(0x03)
    1837              $C$DW$193       .dwtag  DW_TAG_enumerator, DW_AT_name("CSL_DMA_EVT_INVALID"), DW_AT_const_value(0x04)
    1838                      .dwendtag $C$DW$T$47
    1839              
    1840              $C$DW$T$48      .dwtag  DW_TAG_typedef, DW_AT_name("CSL_DMAEvtType")
    1841                      .dwattr $C$DW$T$48, DW_AT_type(*$C$DW$T$47)
    1842                      .dwattr $C$DW$T$48, DW_AT_language(DW_LANG_C)
TMS320C55x Assembler PC v4.4.1 Sat Sep 29 23:09:33 2018

Tools Copyright (c) 1996-2012 Texas Instruments Incorporated
csl_i2s_DmaExample.asm                                               PAGE   51

    1843              
    1844              $C$DW$T$55      .dwtag  DW_TAG_enumeration_type
    1845                      .dwattr $C$DW$T$55, DW_AT_byte_size(0x01)
    1846              $C$DW$194       .dwtag  DW_TAG_enumerator, DW_AT_name("I2S_INSTANCE0"), DW_AT_const_value(0x00)
    1847              $C$DW$195       .dwtag  DW_TAG_enumerator, DW_AT_name("I2S_INSTANCE1"), DW_AT_const_value(0x01)
    1848              $C$DW$196       .dwtag  DW_TAG_enumerator, DW_AT_name("I2S_INSTANCE2"), DW_AT_const_value(0x02)
    1849              $C$DW$197       .dwtag  DW_TAG_enumerator, DW_AT_name("I2S_INSTANCE3"), DW_AT_const_value(0x03)
    1850              $C$DW$198       .dwtag  DW_TAG_enumerator, DW_AT_name("I2S_INVALID"), DW_AT_const_value(0x04)
    1851                      .dwendtag $C$DW$T$55
    1852              
    1853              $C$DW$T$56      .dwtag  DW_TAG_typedef, DW_AT_name("I2S_Instance")
    1854                      .dwattr $C$DW$T$56, DW_AT_type(*$C$DW$T$55)
    1855                      .dwattr $C$DW$T$56, DW_AT_language(DW_LANG_C)
    1856              
    1857              $C$DW$T$57      .dwtag  DW_TAG_enumeration_type
    1858                      .dwattr $C$DW$T$57, DW_AT_byte_size(0x01)
    1859              $C$DW$199       .dwtag  DW_TAG_enumerator, DW_AT_name("I2S_POLLED"), DW_AT_const_value(0x00)
    1860              $C$DW$200       .dwtag  DW_TAG_enumerator, DW_AT_name("I2S_INTERRUPT"), DW_AT_const_value(0x01)
    1861              $C$DW$201       .dwtag  DW_TAG_enumerator, DW_AT_name("DMA_POLLED"), DW_AT_const_value(0x02)
    1862              $C$DW$202       .dwtag  DW_TAG_enumerator, DW_AT_name("DMA_INTERRUPT"), DW_AT_const_value(0x03)
    1863              $C$DW$203       .dwtag  DW_TAG_enumerator, DW_AT_name("I2S_OPMODE_OTHER"), DW_AT_const_value(0x04)
    1864                      .dwendtag $C$DW$T$57
    1865              
    1866              $C$DW$T$58      .dwtag  DW_TAG_typedef, DW_AT_name("I2S_OpMode")
    1867                      .dwattr $C$DW$T$58, DW_AT_type(*$C$DW$T$57)
    1868                      .dwattr $C$DW$T$58, DW_AT_language(DW_LANG_C)
    1869              
    1870              $C$DW$T$59      .dwtag  DW_TAG_enumeration_type
    1871                      .dwattr $C$DW$T$59, DW_AT_byte_size(0x01)
    1872              $C$DW$204       .dwtag  DW_TAG_enumerator, DW_AT_name("I2S_CHAN_MONO"), DW_AT_const_value(0x00)
    1873              $C$DW$205       .dwtag  DW_TAG_enumerator, DW_AT_name("I2S_CHAN_STEREO"), DW_AT_const_value(0x01)
    1874              $C$DW$206       .dwtag  DW_TAG_enumerator, DW_AT_name("I2S_CHAN_UNDEF"), DW_AT_const_value(0x02)
    1875                      .dwendtag $C$DW$T$59
    1876              
    1877              $C$DW$T$60      .dwtag  DW_TAG_typedef, DW_AT_name("I2S_ChanType")
    1878                      .dwattr $C$DW$T$60, DW_AT_type(*$C$DW$T$59)
    1879                      .dwattr $C$DW$T$60, DW_AT_language(DW_LANG_C)
    1880              
    1881              $C$DW$T$64      .dwtag  DW_TAG_enumeration_type
    1882                      .dwattr $C$DW$T$64, DW_AT_byte_size(0x01)
    1883              $C$DW$207       .dwtag  DW_TAG_enumerator, DW_AT_name("I2S_DATAPACK_DISABLE"), DW_AT_const_value(0x00)
    1884              $C$DW$208       .dwtag  DW_TAG_enumerator, DW_AT_name("I2S_DATAPACK_ENABLE"), DW_AT_const_value(0x01)
    1885                      .dwendtag $C$DW$T$64
    1886              
    1887              $C$DW$T$65      .dwtag  DW_TAG_typedef, DW_AT_name("I2S_DatapackType")
    1888                      .dwattr $C$DW$T$65, DW_AT_type(*$C$DW$T$64)
    1889                      .dwattr $C$DW$T$65, DW_AT_language(DW_LANG_C)
    1890              
    1891              $C$DW$T$66      .dwtag  DW_TAG_enumeration_type
    1892                      .dwattr $C$DW$T$66, DW_AT_byte_size(0x01)
    1893              $C$DW$209       .dwtag  DW_TAG_enumerator, DW_AT_name("I2S_FSDIV8"), DW_AT_const_value(0x00)
    1894              $C$DW$210       .dwtag  DW_TAG_enumerator, DW_AT_name("I2S_FSDIV16"), DW_AT_const_value(0x01)
    1895              $C$DW$211       .dwtag  DW_TAG_enumerator, DW_AT_name("I2S_FSDIV32"), DW_AT_const_value(0x02)
    1896              $C$DW$212       .dwtag  DW_TAG_enumerator, DW_AT_name("I2S_FSDIV64"), DW_AT_const_value(0x03)
    1897              $C$DW$213       .dwtag  DW_TAG_enumerator, DW_AT_name("I2S_FSDIV128"), DW_AT_const_value(0x04)
TMS320C55x Assembler PC v4.4.1 Sat Sep 29 23:09:33 2018

Tools Copyright (c) 1996-2012 Texas Instruments Incorporated
csl_i2s_DmaExample.asm                                               PAGE   52

    1898              $C$DW$214       .dwtag  DW_TAG_enumerator, DW_AT_name("I2S_FSDIV256"), DW_AT_const_value(0x05)
    1899              $C$DW$215       .dwtag  DW_TAG_enumerator, DW_AT_name("I2S_FSDIV_RESERVE"), DW_AT_const_value(0x06)
    1900                      .dwendtag $C$DW$T$66
    1901              
    1902              $C$DW$T$67      .dwtag  DW_TAG_typedef, DW_AT_name("I2S_Fsdiv")
    1903                      .dwattr $C$DW$T$67, DW_AT_type(*$C$DW$T$66)
    1904                      .dwattr $C$DW$T$67, DW_AT_language(DW_LANG_C)
    1905              
    1906              $C$DW$T$68      .dwtag  DW_TAG_enumeration_type
    1907                      .dwattr $C$DW$T$68, DW_AT_byte_size(0x01)
    1908              $C$DW$216       .dwtag  DW_TAG_enumerator, DW_AT_name("I2S_WORDLEN_8"), DW_AT_const_value(0x00)
    1909              $C$DW$217       .dwtag  DW_TAG_enumerator, DW_AT_name("I2S_WORDLEN_10"), DW_AT_const_value(0x01)
    1910              $C$DW$218       .dwtag  DW_TAG_enumerator, DW_AT_name("I2S_WORDLEN_12"), DW_AT_const_value(0x02)
    1911              $C$DW$219       .dwtag  DW_TAG_enumerator, DW_AT_name("I2S_WORDLEN_14"), DW_AT_const_value(0x03)
    1912              $C$DW$220       .dwtag  DW_TAG_enumerator, DW_AT_name("I2S_WORDLEN_16"), DW_AT_const_value(0x04)
    1913              $C$DW$221       .dwtag  DW_TAG_enumerator, DW_AT_name("I2S_WORDLEN_18"), DW_AT_const_value(0x05)
    1914              $C$DW$222       .dwtag  DW_TAG_enumerator, DW_AT_name("I2S_WORDLEN_20"), DW_AT_const_value(0x06)
    1915              $C$DW$223       .dwtag  DW_TAG_enumerator, DW_AT_name("I2S_WORDLEN_24"), DW_AT_const_value(0x07)
    1916              $C$DW$224       .dwtag  DW_TAG_enumerator, DW_AT_name("I2S_WORDLEN_32"), DW_AT_const_value(0x08)
    1917              $C$DW$225       .dwtag  DW_TAG_enumerator, DW_AT_name("I2S_WORDLEN_INVALID"), DW_AT_const_value(0x09)
    1918                      .dwendtag $C$DW$T$68
    1919              
    1920              $C$DW$T$69      .dwtag  DW_TAG_typedef, DW_AT_name("I2S_WordLen")
    1921                      .dwattr $C$DW$T$69, DW_AT_type(*$C$DW$T$68)
    1922                      .dwattr $C$DW$T$69, DW_AT_language(DW_LANG_C)
    1923              
    1924              $C$DW$T$70      .dwtag  DW_TAG_enumeration_type
    1925                      .dwattr $C$DW$T$70, DW_AT_byte_size(0x01)
    1926              $C$DW$226       .dwtag  DW_TAG_enumerator, DW_AT_name("I2S_LOOPBACK_DISABLE"), DW_AT_const_value(0x00)
    1927              $C$DW$227       .dwtag  DW_TAG_enumerator, DW_AT_name("I2S_LOOPBACK_ENABLE"), DW_AT_const_value(0x01)
    1928                      .dwendtag $C$DW$T$70
    1929              
    1930              $C$DW$T$71      .dwtag  DW_TAG_typedef, DW_AT_name("I2S_LoopbackType")
    1931                      .dwattr $C$DW$T$71, DW_AT_type(*$C$DW$T$70)
    1932                      .dwattr $C$DW$T$71, DW_AT_language(DW_LANG_C)
    1933              
    1934              $C$DW$T$73      .dwtag  DW_TAG_enumeration_type
    1935                      .dwattr $C$DW$T$73, DW_AT_byte_size(0x01)
    1936              $C$DW$228       .dwtag  DW_TAG_enumerator, DW_AT_name("I2S_STEREO_ENABLE"), DW_AT_const_value(0x00)
    1937              $C$DW$229       .dwtag  DW_TAG_enumerator, DW_AT_name("I2S_MONO_ENABLE"), DW_AT_const_value(0x01)
    1938                      .dwendtag $C$DW$T$73
    1939              
    1940              $C$DW$T$74      .dwtag  DW_TAG_typedef, DW_AT_name("I2S_MonoType")
    1941                      .dwattr $C$DW$T$74, DW_AT_type(*$C$DW$T$73)
    1942                      .dwattr $C$DW$T$74, DW_AT_language(DW_LANG_C)
    1943              
    1944              $C$DW$T$75      .dwtag  DW_TAG_enumeration_type
    1945                      .dwattr $C$DW$T$75, DW_AT_byte_size(0x01)
    1946              $C$DW$230       .dwtag  DW_TAG_enumerator, DW_AT_name("I2S_FSPOL_LOW"), DW_AT_const_value(0x00)
    1947              $C$DW$231       .dwtag  DW_TAG_enumerator, DW_AT_name("I2S_FSPOL_HIGH"), DW_AT_const_value(0x01)
    1948                      .dwendtag $C$DW$T$75
    1949              
    1950              $C$DW$T$76      .dwtag  DW_TAG_typedef, DW_AT_name("I2S_FsyncPol")
    1951                      .dwattr $C$DW$T$76, DW_AT_type(*$C$DW$T$75)
    1952                      .dwattr $C$DW$T$76, DW_AT_language(DW_LANG_C)
TMS320C55x Assembler PC v4.4.1 Sat Sep 29 23:09:33 2018

Tools Copyright (c) 1996-2012 Texas Instruments Incorporated
csl_i2s_DmaExample.asm                                               PAGE   53

    1953              
    1954              $C$DW$T$77      .dwtag  DW_TAG_enumeration_type
    1955                      .dwattr $C$DW$T$77, DW_AT_byte_size(0x01)
    1956              $C$DW$232       .dwtag  DW_TAG_enumerator, DW_AT_name("I2S_RISING_EDGE"), DW_AT_const_value(0x00)
    1957              $C$DW$233       .dwtag  DW_TAG_enumerator, DW_AT_name("I2S_FALLING_EDGE"), DW_AT_const_value(0x01)
    1958                      .dwendtag $C$DW$T$77
    1959              
    1960              $C$DW$T$78      .dwtag  DW_TAG_typedef, DW_AT_name("I2S_ClkPol")
    1961                      .dwattr $C$DW$T$78, DW_AT_type(*$C$DW$T$77)
    1962                      .dwattr $C$DW$T$78, DW_AT_language(DW_LANG_C)
    1963              
    1964              $C$DW$T$79      .dwtag  DW_TAG_enumeration_type
    1965                      .dwattr $C$DW$T$79, DW_AT_byte_size(0x01)
    1966              $C$DW$234       .dwtag  DW_TAG_enumerator, DW_AT_name("I2S_DATADELAY_ONEBIT"), DW_AT_const_value(0x00)
    1967              $C$DW$235       .dwtag  DW_TAG_enumerator, DW_AT_name("I2S_DATADELAY_TWOBIT"), DW_AT_const_value(0x01)
    1968                      .dwendtag $C$DW$T$79
    1969              
    1970              $C$DW$T$80      .dwtag  DW_TAG_typedef, DW_AT_name("I2S_DataDelay")
    1971                      .dwattr $C$DW$T$80, DW_AT_type(*$C$DW$T$79)
    1972                      .dwattr $C$DW$T$80, DW_AT_language(DW_LANG_C)
    1973              
    1974              $C$DW$T$81      .dwtag  DW_TAG_enumeration_type
    1975                      .dwattr $C$DW$T$81, DW_AT_byte_size(0x01)
    1976              $C$DW$236       .dwtag  DW_TAG_enumerator, DW_AT_name("I2S_SIGNEXT_DISABLE"), DW_AT_const_value(0x00)
    1977              $C$DW$237       .dwtag  DW_TAG_enumerator, DW_AT_name("I2S_SIGNEXT_ENABLE"), DW_AT_const_value(0x01)
    1978                      .dwendtag $C$DW$T$81
    1979              
    1980              $C$DW$T$82      .dwtag  DW_TAG_typedef, DW_AT_name("I2S_SignextType")
    1981                      .dwattr $C$DW$T$82, DW_AT_type(*$C$DW$T$81)
    1982                      .dwattr $C$DW$T$82, DW_AT_language(DW_LANG_C)
    1983              
    1984              $C$DW$T$83      .dwtag  DW_TAG_enumeration_type
    1985                      .dwattr $C$DW$T$83, DW_AT_byte_size(0x01)
    1986              $C$DW$238       .dwtag  DW_TAG_enumerator, DW_AT_name("I2S_SLAVE"), DW_AT_const_value(0x00)
    1987              $C$DW$239       .dwtag  DW_TAG_enumerator, DW_AT_name("I2S_MASTER"), DW_AT_const_value(0x01)
    1988                      .dwendtag $C$DW$T$83
    1989              
    1990              $C$DW$T$84      .dwtag  DW_TAG_typedef, DW_AT_name("I2S_Mode")
    1991                      .dwattr $C$DW$T$84, DW_AT_type(*$C$DW$T$83)
    1992                      .dwattr $C$DW$T$84, DW_AT_language(DW_LANG_C)
    1993              
    1994              $C$DW$T$85      .dwtag  DW_TAG_enumeration_type
    1995                      .dwattr $C$DW$T$85, DW_AT_byte_size(0x01)
    1996              $C$DW$240       .dwtag  DW_TAG_enumerator, DW_AT_name("I2S_DATAFORMAT_LJUST"), DW_AT_const_value(0x00)
    1997              $C$DW$241       .dwtag  DW_TAG_enumerator, DW_AT_name("I2S_DATAFORMAT_DSP"), DW_AT_const_value(0x01)
    1998                      .dwendtag $C$DW$T$85
    1999              
    2000              $C$DW$T$86      .dwtag  DW_TAG_typedef, DW_AT_name("I2S_DataFormat")
    2001                      .dwattr $C$DW$T$86, DW_AT_type(*$C$DW$T$85)
    2002                      .dwattr $C$DW$T$86, DW_AT_language(DW_LANG_C)
    2003              
    2004              $C$DW$T$87      .dwtag  DW_TAG_enumeration_type
    2005                      .dwattr $C$DW$T$87, DW_AT_byte_size(0x01)
    2006              $C$DW$242       .dwtag  DW_TAG_enumerator, DW_AT_name("I2S_CLKDIV2"), DW_AT_const_value(0x00)
    2007              $C$DW$243       .dwtag  DW_TAG_enumerator, DW_AT_name("I2S_CLKDIV4"), DW_AT_const_value(0x01)
TMS320C55x Assembler PC v4.4.1 Sat Sep 29 23:09:33 2018

Tools Copyright (c) 1996-2012 Texas Instruments Incorporated
csl_i2s_DmaExample.asm                                               PAGE   54

    2008              $C$DW$244       .dwtag  DW_TAG_enumerator, DW_AT_name("I2S_CLKDIV8"), DW_AT_const_value(0x02)
    2009              $C$DW$245       .dwtag  DW_TAG_enumerator, DW_AT_name("I2S_CLKDIV16"), DW_AT_const_value(0x03)
    2010              $C$DW$246       .dwtag  DW_TAG_enumerator, DW_AT_name("I2S_CLKDIV32"), DW_AT_const_value(0x04)
    2011              $C$DW$247       .dwtag  DW_TAG_enumerator, DW_AT_name("I2S_CLKDIV64"), DW_AT_const_value(0x05)
    2012              $C$DW$248       .dwtag  DW_TAG_enumerator, DW_AT_name("I2S_CLKDIV128"), DW_AT_const_value(0x06)
    2013              $C$DW$249       .dwtag  DW_TAG_enumerator, DW_AT_name("I2S_CLKDIV256"), DW_AT_const_value(0x07)
    2014                      .dwendtag $C$DW$T$87
    2015              
    2016              $C$DW$T$88      .dwtag  DW_TAG_typedef, DW_AT_name("I2S_Clkdiv")
    2017                      .dwattr $C$DW$T$88, DW_AT_type(*$C$DW$T$87)
    2018                      .dwattr $C$DW$T$88, DW_AT_language(DW_LANG_C)
    2019              
    2020              $C$DW$T$89      .dwtag  DW_TAG_enumeration_type
    2021                      .dwattr $C$DW$T$89, DW_AT_byte_size(0x01)
    2022              $C$DW$250       .dwtag  DW_TAG_enumerator, DW_AT_name("I2S_FSERROR_DISABLE"), DW_AT_const_value(0x00)
    2023              $C$DW$251       .dwtag  DW_TAG_enumerator, DW_AT_name("I2S_FSERROR_ENABLE"), DW_AT_const_value(0x01)
    2024                      .dwendtag $C$DW$T$89
    2025              
    2026              $C$DW$T$90      .dwtag  DW_TAG_typedef, DW_AT_name("I2S_FsErr")
    2027                      .dwattr $C$DW$T$90, DW_AT_type(*$C$DW$T$89)
    2028                      .dwattr $C$DW$T$90, DW_AT_language(DW_LANG_C)
    2029              
    2030              $C$DW$T$91      .dwtag  DW_TAG_enumeration_type
    2031                      .dwattr $C$DW$T$91, DW_AT_byte_size(0x01)
    2032              $C$DW$252       .dwtag  DW_TAG_enumerator, DW_AT_name("I2S_OUERROR_DISABLE"), DW_AT_const_value(0x00)
    2033              $C$DW$253       .dwtag  DW_TAG_enumerator, DW_AT_name("I2S_OUERROR_ENABLE"), DW_AT_const_value(0x01)
    2034                      .dwendtag $C$DW$T$91
    2035              
    2036              $C$DW$T$92      .dwtag  DW_TAG_typedef, DW_AT_name("I2S_OuErr")
    2037                      .dwattr $C$DW$T$92, DW_AT_type(*$C$DW$T$91)
    2038                      .dwattr $C$DW$T$92, DW_AT_language(DW_LANG_C)
    2039              
    2040              $C$DW$T$22      .dwtag  DW_TAG_structure_type
    2041                      .dwattr $C$DW$T$22, DW_AT_byte_size(0x66)
    2042              $C$DW$254       .dwtag  DW_TAG_member
    2043                      .dwattr $C$DW$254, DW_AT_type(*$C$DW$T$20)
    2044                      .dwattr $C$DW$254, DW_AT_name("DMACH0SSAL")
    2045                      .dwattr $C$DW$254, DW_AT_TI_symbol_name("_DMACH0SSAL")
    2046                      .dwattr $C$DW$254, DW_AT_data_member_location[DW_OP_plus_uconst 0x0]
    2047                      .dwattr $C$DW$254, DW_AT_accessibility(DW_ACCESS_public)
    2048              $C$DW$255       .dwtag  DW_TAG_member
    2049                      .dwattr $C$DW$255, DW_AT_type(*$C$DW$T$20)
    2050                      .dwattr $C$DW$255, DW_AT_name("DMACH0SSAU")
    2051                      .dwattr $C$DW$255, DW_AT_TI_symbol_name("_DMACH0SSAU")
    2052                      .dwattr $C$DW$255, DW_AT_data_member_location[DW_OP_plus_uconst 0x1]
    2053                      .dwattr $C$DW$255, DW_AT_accessibility(DW_ACCESS_public)
    2054              $C$DW$256       .dwtag  DW_TAG_member
    2055                      .dwattr $C$DW$256, DW_AT_type(*$C$DW$T$20)
    2056                      .dwattr $C$DW$256, DW_AT_name("DMACH0DSAL")
    2057                      .dwattr $C$DW$256, DW_AT_TI_symbol_name("_DMACH0DSAL")
    2058                      .dwattr $C$DW$256, DW_AT_data_member_location[DW_OP_plus_uconst 0x2]
    2059                      .dwattr $C$DW$256, DW_AT_accessibility(DW_ACCESS_public)
    2060              $C$DW$257       .dwtag  DW_TAG_member
    2061                      .dwattr $C$DW$257, DW_AT_type(*$C$DW$T$20)
    2062                      .dwattr $C$DW$257, DW_AT_name("DMACH0DSAU")
TMS320C55x Assembler PC v4.4.1 Sat Sep 29 23:09:33 2018

Tools Copyright (c) 1996-2012 Texas Instruments Incorporated
csl_i2s_DmaExample.asm                                               PAGE   55

    2063                      .dwattr $C$DW$257, DW_AT_TI_symbol_name("_DMACH0DSAU")
    2064                      .dwattr $C$DW$257, DW_AT_data_member_location[DW_OP_plus_uconst 0x3]
    2065                      .dwattr $C$DW$257, DW_AT_accessibility(DW_ACCESS_public)
    2066              $C$DW$258       .dwtag  DW_TAG_member
    2067                      .dwattr $C$DW$258, DW_AT_type(*$C$DW$T$20)
    2068                      .dwattr $C$DW$258, DW_AT_name("DMACH0TCR1")
    2069                      .dwattr $C$DW$258, DW_AT_TI_symbol_name("_DMACH0TCR1")
    2070                      .dwattr $C$DW$258, DW_AT_data_member_location[DW_OP_plus_uconst 0x4]
    2071                      .dwattr $C$DW$258, DW_AT_accessibility(DW_ACCESS_public)
    2072              $C$DW$259       .dwtag  DW_TAG_member
    2073                      .dwattr $C$DW$259, DW_AT_type(*$C$DW$T$20)
    2074                      .dwattr $C$DW$259, DW_AT_name("DMACH0TCR2")
    2075                      .dwattr $C$DW$259, DW_AT_TI_symbol_name("_DMACH0TCR2")
    2076                      .dwattr $C$DW$259, DW_AT_data_member_location[DW_OP_plus_uconst 0x5]
    2077                      .dwattr $C$DW$259, DW_AT_accessibility(DW_ACCESS_public)
    2078              $C$DW$260       .dwtag  DW_TAG_member
    2079                      .dwattr $C$DW$260, DW_AT_type(*$C$DW$T$21)
    2080                      .dwattr $C$DW$260, DW_AT_name("RSVD0")
    2081                      .dwattr $C$DW$260, DW_AT_TI_symbol_name("_RSVD0")
    2082                      .dwattr $C$DW$260, DW_AT_data_member_location[DW_OP_plus_uconst 0x6]
    2083                      .dwattr $C$DW$260, DW_AT_accessibility(DW_ACCESS_public)
    2084              $C$DW$261       .dwtag  DW_TAG_member
    2085                      .dwattr $C$DW$261, DW_AT_type(*$C$DW$T$20)
    2086                      .dwattr $C$DW$261, DW_AT_name("DMACH1SSAL")
    2087                      .dwattr $C$DW$261, DW_AT_TI_symbol_name("_DMACH1SSAL")
    2088                      .dwattr $C$DW$261, DW_AT_data_member_location[DW_OP_plus_uconst 0x20]
    2089                      .dwattr $C$DW$261, DW_AT_accessibility(DW_ACCESS_public)
    2090              $C$DW$262       .dwtag  DW_TAG_member
    2091                      .dwattr $C$DW$262, DW_AT_type(*$C$DW$T$20)
    2092                      .dwattr $C$DW$262, DW_AT_name("DMACH1SSAU")
    2093                      .dwattr $C$DW$262, DW_AT_TI_symbol_name("_DMACH1SSAU")
    2094                      .dwattr $C$DW$262, DW_AT_data_member_location[DW_OP_plus_uconst 0x21]
    2095                      .dwattr $C$DW$262, DW_AT_accessibility(DW_ACCESS_public)
    2096              $C$DW$263       .dwtag  DW_TAG_member
    2097                      .dwattr $C$DW$263, DW_AT_type(*$C$DW$T$20)
    2098                      .dwattr $C$DW$263, DW_AT_name("DMACH1DSAL")
    2099                      .dwattr $C$DW$263, DW_AT_TI_symbol_name("_DMACH1DSAL")
    2100                      .dwattr $C$DW$263, DW_AT_data_member_location[DW_OP_plus_uconst 0x22]
    2101                      .dwattr $C$DW$263, DW_AT_accessibility(DW_ACCESS_public)
    2102              $C$DW$264       .dwtag  DW_TAG_member
    2103                      .dwattr $C$DW$264, DW_AT_type(*$C$DW$T$20)
    2104                      .dwattr $C$DW$264, DW_AT_name("DMACH1DSAU")
    2105                      .dwattr $C$DW$264, DW_AT_TI_symbol_name("_DMACH1DSAU")
    2106                      .dwattr $C$DW$264, DW_AT_data_member_location[DW_OP_plus_uconst 0x23]
    2107                      .dwattr $C$DW$264, DW_AT_accessibility(DW_ACCESS_public)
    2108              $C$DW$265       .dwtag  DW_TAG_member
    2109                      .dwattr $C$DW$265, DW_AT_type(*$C$DW$T$20)
    2110                      .dwattr $C$DW$265, DW_AT_name("DMACH1TCR1")
    2111                      .dwattr $C$DW$265, DW_AT_TI_symbol_name("_DMACH1TCR1")
    2112                      .dwattr $C$DW$265, DW_AT_data_member_location[DW_OP_plus_uconst 0x24]
    2113                      .dwattr $C$DW$265, DW_AT_accessibility(DW_ACCESS_public)
    2114              $C$DW$266       .dwtag  DW_TAG_member
    2115                      .dwattr $C$DW$266, DW_AT_type(*$C$DW$T$20)
    2116                      .dwattr $C$DW$266, DW_AT_name("DMACH1TCR2")
    2117                      .dwattr $C$DW$266, DW_AT_TI_symbol_name("_DMACH1TCR2")
TMS320C55x Assembler PC v4.4.1 Sat Sep 29 23:09:33 2018

Tools Copyright (c) 1996-2012 Texas Instruments Incorporated
csl_i2s_DmaExample.asm                                               PAGE   56

    2118                      .dwattr $C$DW$266, DW_AT_data_member_location[DW_OP_plus_uconst 0x25]
    2119                      .dwattr $C$DW$266, DW_AT_accessibility(DW_ACCESS_public)
    2120              $C$DW$267       .dwtag  DW_TAG_member
    2121                      .dwattr $C$DW$267, DW_AT_type(*$C$DW$T$21)
    2122                      .dwattr $C$DW$267, DW_AT_name("RSVD1")
    2123                      .dwattr $C$DW$267, DW_AT_TI_symbol_name("_RSVD1")
    2124                      .dwattr $C$DW$267, DW_AT_data_member_location[DW_OP_plus_uconst 0x26]
    2125                      .dwattr $C$DW$267, DW_AT_accessibility(DW_ACCESS_public)
    2126              $C$DW$268       .dwtag  DW_TAG_member
    2127                      .dwattr $C$DW$268, DW_AT_type(*$C$DW$T$20)
    2128                      .dwattr $C$DW$268, DW_AT_name("DMACH2SSAL")
    2129                      .dwattr $C$DW$268, DW_AT_TI_symbol_name("_DMACH2SSAL")
    2130                      .dwattr $C$DW$268, DW_AT_data_member_location[DW_OP_plus_uconst 0x40]
    2131                      .dwattr $C$DW$268, DW_AT_accessibility(DW_ACCESS_public)
    2132              $C$DW$269       .dwtag  DW_TAG_member
    2133                      .dwattr $C$DW$269, DW_AT_type(*$C$DW$T$20)
    2134                      .dwattr $C$DW$269, DW_AT_name("DMACH2SSAU")
    2135                      .dwattr $C$DW$269, DW_AT_TI_symbol_name("_DMACH2SSAU")
    2136                      .dwattr $C$DW$269, DW_AT_data_member_location[DW_OP_plus_uconst 0x41]
    2137                      .dwattr $C$DW$269, DW_AT_accessibility(DW_ACCESS_public)
    2138              $C$DW$270       .dwtag  DW_TAG_member
    2139                      .dwattr $C$DW$270, DW_AT_type(*$C$DW$T$20)
    2140                      .dwattr $C$DW$270, DW_AT_name("DMACH2DSAL")
    2141                      .dwattr $C$DW$270, DW_AT_TI_symbol_name("_DMACH2DSAL")
    2142                      .dwattr $C$DW$270, DW_AT_data_member_location[DW_OP_plus_uconst 0x42]
    2143                      .dwattr $C$DW$270, DW_AT_accessibility(DW_ACCESS_public)
    2144              $C$DW$271       .dwtag  DW_TAG_member
    2145                      .dwattr $C$DW$271, DW_AT_type(*$C$DW$T$20)
    2146                      .dwattr $C$DW$271, DW_AT_name("DMACH2DSAU")
    2147                      .dwattr $C$DW$271, DW_AT_TI_symbol_name("_DMACH2DSAU")
    2148                      .dwattr $C$DW$271, DW_AT_data_member_location[DW_OP_plus_uconst 0x43]
    2149                      .dwattr $C$DW$271, DW_AT_accessibility(DW_ACCESS_public)
    2150              $C$DW$272       .dwtag  DW_TAG_member
    2151                      .dwattr $C$DW$272, DW_AT_type(*$C$DW$T$20)
    2152                      .dwattr $C$DW$272, DW_AT_name("DMACH2TCR1")
    2153                      .dwattr $C$DW$272, DW_AT_TI_symbol_name("_DMACH2TCR1")
    2154                      .dwattr $C$DW$272, DW_AT_data_member_location[DW_OP_plus_uconst 0x44]
    2155                      .dwattr $C$DW$272, DW_AT_accessibility(DW_ACCESS_public)
    2156              $C$DW$273       .dwtag  DW_TAG_member
    2157                      .dwattr $C$DW$273, DW_AT_type(*$C$DW$T$20)
    2158                      .dwattr $C$DW$273, DW_AT_name("DMACH2TCR2")
    2159                      .dwattr $C$DW$273, DW_AT_TI_symbol_name("_DMACH2TCR2")
    2160                      .dwattr $C$DW$273, DW_AT_data_member_location[DW_OP_plus_uconst 0x45]
    2161                      .dwattr $C$DW$273, DW_AT_accessibility(DW_ACCESS_public)
    2162              $C$DW$274       .dwtag  DW_TAG_member
    2163                      .dwattr $C$DW$274, DW_AT_type(*$C$DW$T$21)
    2164                      .dwattr $C$DW$274, DW_AT_name("RSVD2")
    2165                      .dwattr $C$DW$274, DW_AT_TI_symbol_name("_RSVD2")
    2166                      .dwattr $C$DW$274, DW_AT_data_member_location[DW_OP_plus_uconst 0x46]
    2167                      .dwattr $C$DW$274, DW_AT_accessibility(DW_ACCESS_public)
    2168              $C$DW$275       .dwtag  DW_TAG_member
    2169                      .dwattr $C$DW$275, DW_AT_type(*$C$DW$T$20)
    2170                      .dwattr $C$DW$275, DW_AT_name("DMACH3SSAL")
    2171                      .dwattr $C$DW$275, DW_AT_TI_symbol_name("_DMACH3SSAL")
    2172                      .dwattr $C$DW$275, DW_AT_data_member_location[DW_OP_plus_uconst 0x60]
TMS320C55x Assembler PC v4.4.1 Sat Sep 29 23:09:33 2018

Tools Copyright (c) 1996-2012 Texas Instruments Incorporated
csl_i2s_DmaExample.asm                                               PAGE   57

    2173                      .dwattr $C$DW$275, DW_AT_accessibility(DW_ACCESS_public)
    2174              $C$DW$276       .dwtag  DW_TAG_member
    2175                      .dwattr $C$DW$276, DW_AT_type(*$C$DW$T$20)
    2176                      .dwattr $C$DW$276, DW_AT_name("DMACH3SSAU")
    2177                      .dwattr $C$DW$276, DW_AT_TI_symbol_name("_DMACH3SSAU")
    2178                      .dwattr $C$DW$276, DW_AT_data_member_location[DW_OP_plus_uconst 0x61]
    2179                      .dwattr $C$DW$276, DW_AT_accessibility(DW_ACCESS_public)
    2180              $C$DW$277       .dwtag  DW_TAG_member
    2181                      .dwattr $C$DW$277, DW_AT_type(*$C$DW$T$20)
    2182                      .dwattr $C$DW$277, DW_AT_name("DMACH3DSAL")
    2183                      .dwattr $C$DW$277, DW_AT_TI_symbol_name("_DMACH3DSAL")
    2184                      .dwattr $C$DW$277, DW_AT_data_member_location[DW_OP_plus_uconst 0x62]
    2185                      .dwattr $C$DW$277, DW_AT_accessibility(DW_ACCESS_public)
    2186              $C$DW$278       .dwtag  DW_TAG_member
    2187                      .dwattr $C$DW$278, DW_AT_type(*$C$DW$T$20)
    2188                      .dwattr $C$DW$278, DW_AT_name("DMACH3DSAU")
    2189                      .dwattr $C$DW$278, DW_AT_TI_symbol_name("_DMACH3DSAU")
    2190                      .dwattr $C$DW$278, DW_AT_data_member_location[DW_OP_plus_uconst 0x63]
    2191                      .dwattr $C$DW$278, DW_AT_accessibility(DW_ACCESS_public)
    2192              $C$DW$279       .dwtag  DW_TAG_member
    2193                      .dwattr $C$DW$279, DW_AT_type(*$C$DW$T$20)
    2194                      .dwattr $C$DW$279, DW_AT_name("DMACH3TCR1")
    2195                      .dwattr $C$DW$279, DW_AT_TI_symbol_name("_DMACH3TCR1")
    2196                      .dwattr $C$DW$279, DW_AT_data_member_location[DW_OP_plus_uconst 0x64]
    2197                      .dwattr $C$DW$279, DW_AT_accessibility(DW_ACCESS_public)
    2198              $C$DW$280       .dwtag  DW_TAG_member
    2199                      .dwattr $C$DW$280, DW_AT_type(*$C$DW$T$20)
    2200                      .dwattr $C$DW$280, DW_AT_name("DMACH3TCR2")
    2201                      .dwattr $C$DW$280, DW_AT_TI_symbol_name("_DMACH3TCR2")
    2202                      .dwattr $C$DW$280, DW_AT_data_member_location[DW_OP_plus_uconst 0x65]
    2203                      .dwattr $C$DW$280, DW_AT_accessibility(DW_ACCESS_public)
    2204                      .dwendtag $C$DW$T$22
    2205              
    2206              $C$DW$T$23      .dwtag  DW_TAG_typedef, DW_AT_name("CSL_DmaRegs")
    2207                      .dwattr $C$DW$T$23, DW_AT_type(*$C$DW$T$22)
    2208                      .dwattr $C$DW$T$23, DW_AT_language(DW_LANG_C)
    2209              $C$DW$281       .dwtag  DW_TAG_TI_far_type
    2210                      .dwattr $C$DW$281, DW_AT_type(*$C$DW$T$23)
    2211              $C$DW$282       .dwtag  DW_TAG_TI_ioport_type
    2212                      .dwattr $C$DW$282, DW_AT_type(*$C$DW$281)
    2213              $C$DW$T$24      .dwtag  DW_TAG_volatile_type
    2214                      .dwattr $C$DW$T$24, DW_AT_type(*$C$DW$282)
    2215              $C$DW$T$25      .dwtag  DW_TAG_pointer_type
    2216                      .dwattr $C$DW$T$25, DW_AT_type(*$C$DW$T$24)
    2217                      .dwattr $C$DW$T$25, DW_AT_address_class(0x10)
    2218              $C$DW$T$26      .dwtag  DW_TAG_typedef, DW_AT_name("CSL_DmaRegsOvly")
    2219                      .dwattr $C$DW$T$26, DW_AT_type(*$C$DW$T$25)
    2220                      .dwattr $C$DW$T$26, DW_AT_language(DW_LANG_C)
    2221              
    2222              $C$DW$T$40      .dwtag  DW_TAG_structure_type
    2223                      .dwattr $C$DW$T$40, DW_AT_byte_size(0x09)
    2224              $C$DW$283       .dwtag  DW_TAG_member
    2225                      .dwattr $C$DW$283, DW_AT_type(*$C$DW$T$26)
    2226                      .dwattr $C$DW$283, DW_AT_name("dmaRegs")
    2227                      .dwattr $C$DW$283, DW_AT_TI_symbol_name("_dmaRegs")
TMS320C55x Assembler PC v4.4.1 Sat Sep 29 23:09:33 2018

Tools Copyright (c) 1996-2012 Texas Instruments Incorporated
csl_i2s_DmaExample.asm                                               PAGE   58

    2228                      .dwattr $C$DW$283, DW_AT_data_member_location[DW_OP_plus_uconst 0x0]
    2229                      .dwattr $C$DW$283, DW_AT_accessibility(DW_ACCESS_public)
    2230              $C$DW$284       .dwtag  DW_TAG_member
    2231                      .dwattr $C$DW$284, DW_AT_type(*$C$DW$T$28)
    2232                      .dwattr $C$DW$284, DW_AT_name("chanNum")
    2233                      .dwattr $C$DW$284, DW_AT_TI_symbol_name("_chanNum")
    2234                      .dwattr $C$DW$284, DW_AT_data_member_location[DW_OP_plus_uconst 0x1]
    2235                      .dwattr $C$DW$284, DW_AT_accessibility(DW_ACCESS_public)
    2236              $C$DW$285       .dwtag  DW_TAG_member
    2237                      .dwattr $C$DW$285, DW_AT_type(*$C$DW$T$30)
    2238                      .dwattr $C$DW$285, DW_AT_name("dmaInstNum")
    2239                      .dwattr $C$DW$285, DW_AT_TI_symbol_name("_dmaInstNum")
    2240                      .dwattr $C$DW$285, DW_AT_data_member_location[DW_OP_plus_uconst 0x2]
    2241                      .dwattr $C$DW$285, DW_AT_accessibility(DW_ACCESS_public)
    2242              $C$DW$286       .dwtag  DW_TAG_member
    2243                      .dwattr $C$DW$286, DW_AT_type(*$C$DW$T$31)
    2244                      .dwattr $C$DW$286, DW_AT_name("isChanFree")
    2245                      .dwattr $C$DW$286, DW_AT_TI_symbol_name("_isChanFree")
    2246                      .dwattr $C$DW$286, DW_AT_data_member_location[DW_OP_plus_uconst 0x3]
    2247                      .dwattr $C$DW$286, DW_AT_accessibility(DW_ACCESS_public)
    2248              $C$DW$287       .dwtag  DW_TAG_member
    2249                      .dwattr $C$DW$287, DW_AT_type(*$C$DW$T$33)
    2250                      .dwattr $C$DW$287, DW_AT_name("chanDir")
    2251                      .dwattr $C$DW$287, DW_AT_TI_symbol_name("_chanDir")
    2252                      .dwattr $C$DW$287, DW_AT_data_member_location[DW_OP_plus_uconst 0x4]
    2253                      .dwattr $C$DW$287, DW_AT_accessibility(DW_ACCESS_public)
    2254              $C$DW$288       .dwtag  DW_TAG_member
    2255                      .dwattr $C$DW$288, DW_AT_type(*$C$DW$T$35)
    2256                      .dwattr $C$DW$288, DW_AT_name("trigger")
    2257                      .dwattr $C$DW$288, DW_AT_TI_symbol_name("_trigger")
    2258                      .dwattr $C$DW$288, DW_AT_data_member_location[DW_OP_plus_uconst 0x5]
    2259                      .dwattr $C$DW$288, DW_AT_accessibility(DW_ACCESS_public)
    2260              $C$DW$289       .dwtag  DW_TAG_member
    2261                      .dwattr $C$DW$289, DW_AT_type(*$C$DW$T$37)
    2262                      .dwattr $C$DW$289, DW_AT_name("trfType")
    2263                      .dwattr $C$DW$289, DW_AT_TI_symbol_name("_trfType")
    2264                      .dwattr $C$DW$289, DW_AT_data_member_location[DW_OP_plus_uconst 0x6]
    2265                      .dwattr $C$DW$289, DW_AT_accessibility(DW_ACCESS_public)
    2266              $C$DW$290       .dwtag  DW_TAG_member
    2267                      .dwattr $C$DW$290, DW_AT_type(*$C$DW$T$39)
    2268                      .dwattr $C$DW$290, DW_AT_name("dmaInt")
    2269                      .dwattr $C$DW$290, DW_AT_TI_symbol_name("_dmaInt")
    2270                      .dwattr $C$DW$290, DW_AT_data_member_location[DW_OP_plus_uconst 0x7]
    2271                      .dwattr $C$DW$290, DW_AT_accessibility(DW_ACCESS_public)
    2272              $C$DW$291       .dwtag  DW_TAG_member
    2273                      .dwattr $C$DW$291, DW_AT_type(*$C$DW$T$31)
    2274                      .dwattr $C$DW$291, DW_AT_name("pingPongEnabled")
    2275                      .dwattr $C$DW$291, DW_AT_TI_symbol_name("_pingPongEnabled")
    2276                      .dwattr $C$DW$291, DW_AT_data_member_location[DW_OP_plus_uconst 0x8]
    2277                      .dwattr $C$DW$291, DW_AT_accessibility(DW_ACCESS_public)
    2278                      .dwendtag $C$DW$T$40
    2279              
    2280              $C$DW$T$97      .dwtag  DW_TAG_typedef, DW_AT_name("CSL_DMA_ChannelObj")
    2281                      .dwattr $C$DW$T$97, DW_AT_type(*$C$DW$T$40)
    2282                      .dwattr $C$DW$T$97, DW_AT_language(DW_LANG_C)
TMS320C55x Assembler PC v4.4.1 Sat Sep 29 23:09:33 2018

Tools Copyright (c) 1996-2012 Texas Instruments Incorporated
csl_i2s_DmaExample.asm                                               PAGE   59

    2283              $C$DW$T$98      .dwtag  DW_TAG_pointer_type
    2284                      .dwattr $C$DW$T$98, DW_AT_type(*$C$DW$T$97)
    2285                      .dwattr $C$DW$T$98, DW_AT_address_class(0x17)
    2286              $C$DW$T$99      .dwtag  DW_TAG_typedef, DW_AT_name("CSL_DMA_Handle")
    2287                      .dwattr $C$DW$T$99, DW_AT_type(*$C$DW$T$98)
    2288                      .dwattr $C$DW$T$99, DW_AT_language(DW_LANG_C)
    2289              
    2290              $C$DW$T$50      .dwtag  DW_TAG_structure_type
    2291                      .dwattr $C$DW$T$50, DW_AT_byte_size(0x0e)
    2292              $C$DW$292       .dwtag  DW_TAG_member
    2293                      .dwattr $C$DW$292, DW_AT_type(*$C$DW$T$42)
    2294                      .dwattr $C$DW$292, DW_AT_name("pingPongMode")
    2295                      .dwattr $C$DW$292, DW_AT_TI_symbol_name("_pingPongMode")
    2296                      .dwattr $C$DW$292, DW_AT_data_member_location[DW_OP_plus_uconst 0x0]
    2297                      .dwattr $C$DW$292, DW_AT_accessibility(DW_ACCESS_public)
    2298              $C$DW$293       .dwtag  DW_TAG_member
    2299                      .dwattr $C$DW$293, DW_AT_type(*$C$DW$T$44)
    2300                      .dwattr $C$DW$293, DW_AT_name("autoMode")
    2301                      .dwattr $C$DW$293, DW_AT_TI_symbol_name("_autoMode")
    2302                      .dwattr $C$DW$293, DW_AT_data_member_location[DW_OP_plus_uconst 0x1]
    2303                      .dwattr $C$DW$293, DW_AT_accessibility(DW_ACCESS_public)
    2304              $C$DW$294       .dwtag  DW_TAG_member
    2305                      .dwattr $C$DW$294, DW_AT_type(*$C$DW$T$46)
    2306                      .dwattr $C$DW$294, DW_AT_name("burstLen")
    2307                      .dwattr $C$DW$294, DW_AT_TI_symbol_name("_burstLen")
    2308                      .dwattr $C$DW$294, DW_AT_data_member_location[DW_OP_plus_uconst 0x2]
    2309                      .dwattr $C$DW$294, DW_AT_accessibility(DW_ACCESS_public)
    2310              $C$DW$295       .dwtag  DW_TAG_member
    2311                      .dwattr $C$DW$295, DW_AT_type(*$C$DW$T$35)
    2312                      .dwattr $C$DW$295, DW_AT_name("trigger")
    2313                      .dwattr $C$DW$295, DW_AT_TI_symbol_name("_trigger")
    2314                      .dwattr $C$DW$295, DW_AT_data_member_location[DW_OP_plus_uconst 0x3]
    2315                      .dwattr $C$DW$295, DW_AT_accessibility(DW_ACCESS_public)
    2316              $C$DW$296       .dwtag  DW_TAG_member
    2317                      .dwattr $C$DW$296, DW_AT_type(*$C$DW$T$48)
    2318                      .dwattr $C$DW$296, DW_AT_name("dmaEvt")
    2319                      .dwattr $C$DW$296, DW_AT_TI_symbol_name("_dmaEvt")
    2320                      .dwattr $C$DW$296, DW_AT_data_member_location[DW_OP_plus_uconst 0x4]
    2321                      .dwattr $C$DW$296, DW_AT_accessibility(DW_ACCESS_public)
    2322              $C$DW$297       .dwtag  DW_TAG_member
    2323                      .dwattr $C$DW$297, DW_AT_type(*$C$DW$T$39)
    2324                      .dwattr $C$DW$297, DW_AT_name("dmaInt")
    2325                      .dwattr $C$DW$297, DW_AT_TI_symbol_name("_dmaInt")
    2326                      .dwattr $C$DW$297, DW_AT_data_member_location[DW_OP_plus_uconst 0x5]
    2327                      .dwattr $C$DW$297, DW_AT_accessibility(DW_ACCESS_public)
    2328              $C$DW$298       .dwtag  DW_TAG_member
    2329                      .dwattr $C$DW$298, DW_AT_type(*$C$DW$T$33)
    2330                      .dwattr $C$DW$298, DW_AT_name("chanDir")
    2331                      .dwattr $C$DW$298, DW_AT_TI_symbol_name("_chanDir")
    2332                      .dwattr $C$DW$298, DW_AT_data_member_location[DW_OP_plus_uconst 0x6]
    2333                      .dwattr $C$DW$298, DW_AT_accessibility(DW_ACCESS_public)
    2334              $C$DW$299       .dwtag  DW_TAG_member
    2335                      .dwattr $C$DW$299, DW_AT_type(*$C$DW$T$37)
    2336                      .dwattr $C$DW$299, DW_AT_name("trfType")
    2337                      .dwattr $C$DW$299, DW_AT_TI_symbol_name("_trfType")
TMS320C55x Assembler PC v4.4.1 Sat Sep 29 23:09:33 2018

Tools Copyright (c) 1996-2012 Texas Instruments Incorporated
csl_i2s_DmaExample.asm                                               PAGE   60

    2338                      .dwattr $C$DW$299, DW_AT_data_member_location[DW_OP_plus_uconst 0x7]
    2339                      .dwattr $C$DW$299, DW_AT_accessibility(DW_ACCESS_public)
    2340              $C$DW$300       .dwtag  DW_TAG_member
    2341                      .dwattr $C$DW$300, DW_AT_type(*$C$DW$T$19)
    2342                      .dwattr $C$DW$300, DW_AT_name("dataLen")
    2343                      .dwattr $C$DW$300, DW_AT_TI_symbol_name("_dataLen")
    2344                      .dwattr $C$DW$300, DW_AT_data_member_location[DW_OP_plus_uconst 0x8]
    2345                      .dwattr $C$DW$300, DW_AT_accessibility(DW_ACCESS_public)
    2346              $C$DW$301       .dwtag  DW_TAG_member
    2347                      .dwattr $C$DW$301, DW_AT_type(*$C$DW$T$49)
    2348                      .dwattr $C$DW$301, DW_AT_name("srcAddr")
    2349                      .dwattr $C$DW$301, DW_AT_TI_symbol_name("_srcAddr")
    2350                      .dwattr $C$DW$301, DW_AT_data_member_location[DW_OP_plus_uconst 0xa]
    2351                      .dwattr $C$DW$301, DW_AT_accessibility(DW_ACCESS_public)
    2352              $C$DW$302       .dwtag  DW_TAG_member
    2353                      .dwattr $C$DW$302, DW_AT_type(*$C$DW$T$49)
    2354                      .dwattr $C$DW$302, DW_AT_name("destAddr")
    2355                      .dwattr $C$DW$302, DW_AT_TI_symbol_name("_destAddr")
    2356                      .dwattr $C$DW$302, DW_AT_data_member_location[DW_OP_plus_uconst 0xc]
    2357                      .dwattr $C$DW$302, DW_AT_accessibility(DW_ACCESS_public)
    2358                      .dwendtag $C$DW$T$50
    2359              
    2360              $C$DW$T$107     .dwtag  DW_TAG_typedef, DW_AT_name("CSL_DMA_Config")
    2361                      .dwattr $C$DW$T$107, DW_AT_type(*$C$DW$T$50)
    2362                      .dwattr $C$DW$T$107, DW_AT_language(DW_LANG_C)
    2363              $C$DW$T$108     .dwtag  DW_TAG_pointer_type
    2364                      .dwattr $C$DW$T$108, DW_AT_type(*$C$DW$T$107)
    2365                      .dwattr $C$DW$T$108, DW_AT_address_class(0x17)
    2366              
    2367              $C$DW$T$54      .dwtag  DW_TAG_structure_type
    2368                      .dwattr $C$DW$T$54, DW_AT_byte_size(0x2e)
    2369              $C$DW$303       .dwtag  DW_TAG_member
    2370                      .dwattr $C$DW$303, DW_AT_type(*$C$DW$T$20)
    2371                      .dwattr $C$DW$303, DW_AT_name("I2SSCTRL")
    2372                      .dwattr $C$DW$303, DW_AT_TI_symbol_name("_I2SSCTRL")
    2373                      .dwattr $C$DW$303, DW_AT_data_member_location[DW_OP_plus_uconst 0x0]
    2374                      .dwattr $C$DW$303, DW_AT_accessibility(DW_ACCESS_public)
    2375              $C$DW$304       .dwtag  DW_TAG_member
    2376                      .dwattr $C$DW$304, DW_AT_type(*$C$DW$T$51)
    2377                      .dwattr $C$DW$304, DW_AT_name("RSVD0")
    2378                      .dwattr $C$DW$304, DW_AT_TI_symbol_name("_RSVD0")
    2379                      .dwattr $C$DW$304, DW_AT_data_member_location[DW_OP_plus_uconst 0x1]
    2380                      .dwattr $C$DW$304, DW_AT_accessibility(DW_ACCESS_public)
    2381              $C$DW$305       .dwtag  DW_TAG_member
    2382                      .dwattr $C$DW$305, DW_AT_type(*$C$DW$T$20)
    2383                      .dwattr $C$DW$305, DW_AT_name("I2SSRATE")
    2384                      .dwattr $C$DW$305, DW_AT_TI_symbol_name("_I2SSRATE")
    2385                      .dwattr $C$DW$305, DW_AT_data_member_location[DW_OP_plus_uconst 0x4]
    2386                      .dwattr $C$DW$305, DW_AT_accessibility(DW_ACCESS_public)
    2387              $C$DW$306       .dwtag  DW_TAG_member
    2388                      .dwattr $C$DW$306, DW_AT_type(*$C$DW$T$51)
    2389                      .dwattr $C$DW$306, DW_AT_name("RSVD1")
    2390                      .dwattr $C$DW$306, DW_AT_TI_symbol_name("_RSVD1")
    2391                      .dwattr $C$DW$306, DW_AT_data_member_location[DW_OP_plus_uconst 0x5]
    2392                      .dwattr $C$DW$306, DW_AT_accessibility(DW_ACCESS_public)
TMS320C55x Assembler PC v4.4.1 Sat Sep 29 23:09:33 2018

Tools Copyright (c) 1996-2012 Texas Instruments Incorporated
csl_i2s_DmaExample.asm                                               PAGE   61

    2393              $C$DW$307       .dwtag  DW_TAG_member
    2394                      .dwattr $C$DW$307, DW_AT_type(*$C$DW$T$20)
    2395                      .dwattr $C$DW$307, DW_AT_name("I2STXLT0")
    2396                      .dwattr $C$DW$307, DW_AT_TI_symbol_name("_I2STXLT0")
    2397                      .dwattr $C$DW$307, DW_AT_data_member_location[DW_OP_plus_uconst 0x8]
    2398                      .dwattr $C$DW$307, DW_AT_accessibility(DW_ACCESS_public)
    2399              $C$DW$308       .dwtag  DW_TAG_member
    2400                      .dwattr $C$DW$308, DW_AT_type(*$C$DW$T$20)
    2401                      .dwattr $C$DW$308, DW_AT_name("I2STXLT1")
    2402                      .dwattr $C$DW$308, DW_AT_TI_symbol_name("_I2STXLT1")
    2403                      .dwattr $C$DW$308, DW_AT_data_member_location[DW_OP_plus_uconst 0x9]
    2404                      .dwattr $C$DW$308, DW_AT_accessibility(DW_ACCESS_public)
    2405              $C$DW$309       .dwtag  DW_TAG_member
    2406                      .dwattr $C$DW$309, DW_AT_type(*$C$DW$T$52)
    2407                      .dwattr $C$DW$309, DW_AT_name("RSVD2")
    2408                      .dwattr $C$DW$309, DW_AT_TI_symbol_name("_RSVD2")
    2409                      .dwattr $C$DW$309, DW_AT_data_member_location[DW_OP_plus_uconst 0xa]
    2410                      .dwattr $C$DW$309, DW_AT_accessibility(DW_ACCESS_public)
    2411              $C$DW$310       .dwtag  DW_TAG_member
    2412                      .dwattr $C$DW$310, DW_AT_type(*$C$DW$T$20)
    2413                      .dwattr $C$DW$310, DW_AT_name("I2STXRT0")
    2414                      .dwattr $C$DW$310, DW_AT_TI_symbol_name("_I2STXRT0")
    2415                      .dwattr $C$DW$310, DW_AT_data_member_location[DW_OP_plus_uconst 0xc]
    2416                      .dwattr $C$DW$310, DW_AT_accessibility(DW_ACCESS_public)
    2417              $C$DW$311       .dwtag  DW_TAG_member
    2418                      .dwattr $C$DW$311, DW_AT_type(*$C$DW$T$20)
    2419                      .dwattr $C$DW$311, DW_AT_name("I2STXRT1")
    2420                      .dwattr $C$DW$311, DW_AT_TI_symbol_name("_I2STXRT1")
    2421                      .dwattr $C$DW$311, DW_AT_data_member_location[DW_OP_plus_uconst 0xd]
    2422                      .dwattr $C$DW$311, DW_AT_accessibility(DW_ACCESS_public)
    2423              $C$DW$312       .dwtag  DW_TAG_member
    2424                      .dwattr $C$DW$312, DW_AT_type(*$C$DW$T$52)
    2425                      .dwattr $C$DW$312, DW_AT_name("RSVD3")
    2426                      .dwattr $C$DW$312, DW_AT_TI_symbol_name("_RSVD3")
    2427                      .dwattr $C$DW$312, DW_AT_data_member_location[DW_OP_plus_uconst 0xe]
    2428                      .dwattr $C$DW$312, DW_AT_accessibility(DW_ACCESS_public)
    2429              $C$DW$313       .dwtag  DW_TAG_member
    2430                      .dwattr $C$DW$313, DW_AT_type(*$C$DW$T$20)
    2431                      .dwattr $C$DW$313, DW_AT_name("I2SINTFL")
    2432                      .dwattr $C$DW$313, DW_AT_TI_symbol_name("_I2SINTFL")
    2433                      .dwattr $C$DW$313, DW_AT_data_member_location[DW_OP_plus_uconst 0x10]
    2434                      .dwattr $C$DW$313, DW_AT_accessibility(DW_ACCESS_public)
    2435              $C$DW$314       .dwtag  DW_TAG_member
    2436                      .dwattr $C$DW$314, DW_AT_type(*$C$DW$T$51)
    2437                      .dwattr $C$DW$314, DW_AT_name("RSVD4")
    2438                      .dwattr $C$DW$314, DW_AT_TI_symbol_name("_RSVD4")
    2439                      .dwattr $C$DW$314, DW_AT_data_member_location[DW_OP_plus_uconst 0x11]
    2440                      .dwattr $C$DW$314, DW_AT_accessibility(DW_ACCESS_public)
    2441              $C$DW$315       .dwtag  DW_TAG_member
    2442                      .dwattr $C$DW$315, DW_AT_type(*$C$DW$T$20)
    2443                      .dwattr $C$DW$315, DW_AT_name("I2SINTMASK")
    2444                      .dwattr $C$DW$315, DW_AT_TI_symbol_name("_I2SINTMASK")
    2445                      .dwattr $C$DW$315, DW_AT_data_member_location[DW_OP_plus_uconst 0x14]
    2446                      .dwattr $C$DW$315, DW_AT_accessibility(DW_ACCESS_public)
    2447              $C$DW$316       .dwtag  DW_TAG_member
TMS320C55x Assembler PC v4.4.1 Sat Sep 29 23:09:33 2018

Tools Copyright (c) 1996-2012 Texas Instruments Incorporated
csl_i2s_DmaExample.asm                                               PAGE   62

    2448                      .dwattr $C$DW$316, DW_AT_type(*$C$DW$T$53)
    2449                      .dwattr $C$DW$316, DW_AT_name("RSVD5")
    2450                      .dwattr $C$DW$316, DW_AT_TI_symbol_name("_RSVD5")
    2451                      .dwattr $C$DW$316, DW_AT_data_member_location[DW_OP_plus_uconst 0x15]
    2452                      .dwattr $C$DW$316, DW_AT_accessibility(DW_ACCESS_public)
    2453              $C$DW$317       .dwtag  DW_TAG_member
    2454                      .dwattr $C$DW$317, DW_AT_type(*$C$DW$T$20)
    2455                      .dwattr $C$DW$317, DW_AT_name("I2SRXLT0")
    2456                      .dwattr $C$DW$317, DW_AT_TI_symbol_name("_I2SRXLT0")
    2457                      .dwattr $C$DW$317, DW_AT_data_member_location[DW_OP_plus_uconst 0x28]
    2458                      .dwattr $C$DW$317, DW_AT_accessibility(DW_ACCESS_public)
    2459              $C$DW$318       .dwtag  DW_TAG_member
    2460                      .dwattr $C$DW$318, DW_AT_type(*$C$DW$T$20)
    2461                      .dwattr $C$DW$318, DW_AT_name("I2SRXLT1")
    2462                      .dwattr $C$DW$318, DW_AT_TI_symbol_name("_I2SRXLT1")
    2463                      .dwattr $C$DW$318, DW_AT_data_member_location[DW_OP_plus_uconst 0x29]
    2464                      .dwattr $C$DW$318, DW_AT_accessibility(DW_ACCESS_public)
    2465              $C$DW$319       .dwtag  DW_TAG_member
    2466                      .dwattr $C$DW$319, DW_AT_type(*$C$DW$T$52)
    2467                      .dwattr $C$DW$319, DW_AT_name("RSVD6")
    2468                      .dwattr $C$DW$319, DW_AT_TI_symbol_name("_RSVD6")
    2469                      .dwattr $C$DW$319, DW_AT_data_member_location[DW_OP_plus_uconst 0x2a]
    2470                      .dwattr $C$DW$319, DW_AT_accessibility(DW_ACCESS_public)
    2471              $C$DW$320       .dwtag  DW_TAG_member
    2472                      .dwattr $C$DW$320, DW_AT_type(*$C$DW$T$20)
    2473                      .dwattr $C$DW$320, DW_AT_name("I2SRXRT0")
    2474                      .dwattr $C$DW$320, DW_AT_TI_symbol_name("_I2SRXRT0")
    2475                      .dwattr $C$DW$320, DW_AT_data_member_location[DW_OP_plus_uconst 0x2c]
    2476                      .dwattr $C$DW$320, DW_AT_accessibility(DW_ACCESS_public)
    2477              $C$DW$321       .dwtag  DW_TAG_member
    2478                      .dwattr $C$DW$321, DW_AT_type(*$C$DW$T$20)
    2479                      .dwattr $C$DW$321, DW_AT_name("I2SRXRT1")
    2480                      .dwattr $C$DW$321, DW_AT_TI_symbol_name("_I2SRXRT1")
    2481                      .dwattr $C$DW$321, DW_AT_data_member_location[DW_OP_plus_uconst 0x2d]
    2482                      .dwattr $C$DW$321, DW_AT_accessibility(DW_ACCESS_public)
    2483                      .dwendtag $C$DW$T$54
    2484              
    2485              $C$DW$T$61      .dwtag  DW_TAG_typedef, DW_AT_name("CSL_I2sRegs")
    2486                      .dwattr $C$DW$T$61, DW_AT_type(*$C$DW$T$54)
    2487                      .dwattr $C$DW$T$61, DW_AT_language(DW_LANG_C)
    2488              $C$DW$322       .dwtag  DW_TAG_TI_far_type
    2489                      .dwattr $C$DW$322, DW_AT_type(*$C$DW$T$61)
    2490              $C$DW$323       .dwtag  DW_TAG_TI_ioport_type
    2491                      .dwattr $C$DW$323, DW_AT_type(*$C$DW$322)
    2492              $C$DW$T$62      .dwtag  DW_TAG_volatile_type
    2493                      .dwattr $C$DW$T$62, DW_AT_type(*$C$DW$323)
    2494              $C$DW$T$63      .dwtag  DW_TAG_pointer_type
    2495                      .dwattr $C$DW$T$63, DW_AT_type(*$C$DW$T$62)
    2496                      .dwattr $C$DW$T$63, DW_AT_address_class(0x10)
    2497              
    2498              $C$DW$T$72      .dwtag  DW_TAG_structure_type
    2499                      .dwattr $C$DW$T$72, DW_AT_byte_size(0x0a)
    2500              $C$DW$324       .dwtag  DW_TAG_member
    2501                      .dwattr $C$DW$324, DW_AT_type(*$C$DW$T$56)
    2502                      .dwattr $C$DW$324, DW_AT_name("i2sNum")
TMS320C55x Assembler PC v4.4.1 Sat Sep 29 23:09:33 2018

Tools Copyright (c) 1996-2012 Texas Instruments Incorporated
csl_i2s_DmaExample.asm                                               PAGE   63

    2503                      .dwattr $C$DW$324, DW_AT_TI_symbol_name("_i2sNum")
    2504                      .dwattr $C$DW$324, DW_AT_data_member_location[DW_OP_plus_uconst 0x0]
    2505                      .dwattr $C$DW$324, DW_AT_accessibility(DW_ACCESS_public)
    2506              $C$DW$325       .dwtag  DW_TAG_member
    2507                      .dwattr $C$DW$325, DW_AT_type(*$C$DW$T$58)
    2508                      .dwattr $C$DW$325, DW_AT_name("opMode")
    2509                      .dwattr $C$DW$325, DW_AT_TI_symbol_name("_opMode")
    2510                      .dwattr $C$DW$325, DW_AT_data_member_location[DW_OP_plus_uconst 0x1]
    2511                      .dwattr $C$DW$325, DW_AT_accessibility(DW_ACCESS_public)
    2512              $C$DW$326       .dwtag  DW_TAG_member
    2513                      .dwattr $C$DW$326, DW_AT_type(*$C$DW$T$60)
    2514                      .dwattr $C$DW$326, DW_AT_name("chType")
    2515                      .dwattr $C$DW$326, DW_AT_TI_symbol_name("_chType")
    2516                      .dwattr $C$DW$326, DW_AT_data_member_location[DW_OP_plus_uconst 0x2]
    2517                      .dwattr $C$DW$326, DW_AT_accessibility(DW_ACCESS_public)
    2518              $C$DW$327       .dwtag  DW_TAG_member
    2519                      .dwattr $C$DW$327, DW_AT_type(*$C$DW$T$63)
    2520                      .dwattr $C$DW$327, DW_AT_name("hwRegs")
    2521                      .dwattr $C$DW$327, DW_AT_TI_symbol_name("_hwRegs")
    2522                      .dwattr $C$DW$327, DW_AT_data_member_location[DW_OP_plus_uconst 0x3]
    2523                      .dwattr $C$DW$327, DW_AT_accessibility(DW_ACCESS_public)
    2524              $C$DW$328       .dwtag  DW_TAG_member
    2525                      .dwattr $C$DW$328, DW_AT_type(*$C$DW$T$19)
    2526                      .dwattr $C$DW$328, DW_AT_name("configured")
    2527                      .dwattr $C$DW$328, DW_AT_TI_symbol_name("_configured")
    2528                      .dwattr $C$DW$328, DW_AT_data_member_location[DW_OP_plus_uconst 0x4]
    2529                      .dwattr $C$DW$328, DW_AT_accessibility(DW_ACCESS_public)
    2530              $C$DW$329       .dwtag  DW_TAG_member
    2531                      .dwattr $C$DW$329, DW_AT_type(*$C$DW$T$65)
    2532                      .dwattr $C$DW$329, DW_AT_name("datapack")
    2533                      .dwattr $C$DW$329, DW_AT_TI_symbol_name("_datapack")
    2534                      .dwattr $C$DW$329, DW_AT_data_member_location[DW_OP_plus_uconst 0x5]
    2535                      .dwattr $C$DW$329, DW_AT_accessibility(DW_ACCESS_public)
    2536              $C$DW$330       .dwtag  DW_TAG_member
    2537                      .dwattr $C$DW$330, DW_AT_type(*$C$DW$T$67)
    2538                      .dwattr $C$DW$330, DW_AT_name("fsDiv")
    2539                      .dwattr $C$DW$330, DW_AT_TI_symbol_name("_fsDiv")
    2540                      .dwattr $C$DW$330, DW_AT_data_member_location[DW_OP_plus_uconst 0x6]
    2541                      .dwattr $C$DW$330, DW_AT_accessibility(DW_ACCESS_public)
    2542              $C$DW$331       .dwtag  DW_TAG_member
    2543                      .dwattr $C$DW$331, DW_AT_type(*$C$DW$T$69)
    2544                      .dwattr $C$DW$331, DW_AT_name("wordLen")
    2545                      .dwattr $C$DW$331, DW_AT_TI_symbol_name("_wordLen")
    2546                      .dwattr $C$DW$331, DW_AT_data_member_location[DW_OP_plus_uconst 0x7]
    2547                      .dwattr $C$DW$331, DW_AT_accessibility(DW_ACCESS_public)
    2548              $C$DW$332       .dwtag  DW_TAG_member
    2549                      .dwattr $C$DW$332, DW_AT_type(*$C$DW$T$71)
    2550                      .dwattr $C$DW$332, DW_AT_name("loopBackMode")
    2551                      .dwattr $C$DW$332, DW_AT_TI_symbol_name("_loopBackMode")
    2552                      .dwattr $C$DW$332, DW_AT_data_member_location[DW_OP_plus_uconst 0x8]
    2553                      .dwattr $C$DW$332, DW_AT_accessibility(DW_ACCESS_public)
    2554              $C$DW$333       .dwtag  DW_TAG_member
    2555                      .dwattr $C$DW$333, DW_AT_type(*$C$DW$T$31)
    2556                      .dwattr $C$DW$333, DW_AT_name("firstRead")
    2557                      .dwattr $C$DW$333, DW_AT_TI_symbol_name("_firstRead")
TMS320C55x Assembler PC v4.4.1 Sat Sep 29 23:09:33 2018

Tools Copyright (c) 1996-2012 Texas Instruments Incorporated
csl_i2s_DmaExample.asm                                               PAGE   64

    2558                      .dwattr $C$DW$333, DW_AT_data_member_location[DW_OP_plus_uconst 0x9]
    2559                      .dwattr $C$DW$333, DW_AT_accessibility(DW_ACCESS_public)
    2560                      .dwendtag $C$DW$T$72
    2561              
    2562              $C$DW$T$109     .dwtag  DW_TAG_typedef, DW_AT_name("CSL_I2sObj")
    2563                      .dwattr $C$DW$T$109, DW_AT_type(*$C$DW$T$72)
    2564                      .dwattr $C$DW$T$109, DW_AT_language(DW_LANG_C)
    2565              $C$DW$T$110     .dwtag  DW_TAG_pointer_type
    2566                      .dwattr $C$DW$T$110, DW_AT_type(*$C$DW$T$109)
    2567                      .dwattr $C$DW$T$110, DW_AT_address_class(0x17)
    2568              $C$DW$T$111     .dwtag  DW_TAG_typedef, DW_AT_name("CSL_I2sHandle")
    2569                      .dwattr $C$DW$T$111, DW_AT_type(*$C$DW$T$110)
    2570                      .dwattr $C$DW$T$111, DW_AT_language(DW_LANG_C)
    2571              
    2572              $C$DW$T$93      .dwtag  DW_TAG_structure_type
    2573                      .dwattr $C$DW$T$93, DW_AT_byte_size(0x0e)
    2574              $C$DW$334       .dwtag  DW_TAG_member
    2575                      .dwattr $C$DW$334, DW_AT_type(*$C$DW$T$74)
    2576                      .dwattr $C$DW$334, DW_AT_name("dataType")
    2577                      .dwattr $C$DW$334, DW_AT_TI_symbol_name("_dataType")
    2578                      .dwattr $C$DW$334, DW_AT_data_member_location[DW_OP_plus_uconst 0x0]
    2579                      .dwattr $C$DW$334, DW_AT_accessibility(DW_ACCESS_public)
    2580              $C$DW$335       .dwtag  DW_TAG_member
    2581                      .dwattr $C$DW$335, DW_AT_type(*$C$DW$T$71)
    2582                      .dwattr $C$DW$335, DW_AT_name("loopBackMode")
    2583                      .dwattr $C$DW$335, DW_AT_TI_symbol_name("_loopBackMode")
    2584                      .dwattr $C$DW$335, DW_AT_data_member_location[DW_OP_plus_uconst 0x1]
    2585                      .dwattr $C$DW$335, DW_AT_accessibility(DW_ACCESS_public)
    2586              $C$DW$336       .dwtag  DW_TAG_member
    2587                      .dwattr $C$DW$336, DW_AT_type(*$C$DW$T$76)
    2588                      .dwattr $C$DW$336, DW_AT_name("fsPol")
    2589                      .dwattr $C$DW$336, DW_AT_TI_symbol_name("_fsPol")
    2590                      .dwattr $C$DW$336, DW_AT_data_member_location[DW_OP_plus_uconst 0x2]
    2591                      .dwattr $C$DW$336, DW_AT_accessibility(DW_ACCESS_public)
    2592              $C$DW$337       .dwtag  DW_TAG_member
    2593                      .dwattr $C$DW$337, DW_AT_type(*$C$DW$T$78)
    2594                      .dwattr $C$DW$337, DW_AT_name("clkPol")
    2595                      .dwattr $C$DW$337, DW_AT_TI_symbol_name("_clkPol")
    2596                      .dwattr $C$DW$337, DW_AT_data_member_location[DW_OP_plus_uconst 0x3]
    2597                      .dwattr $C$DW$337, DW_AT_accessibility(DW_ACCESS_public)
    2598              $C$DW$338       .dwtag  DW_TAG_member
    2599                      .dwattr $C$DW$338, DW_AT_type(*$C$DW$T$80)
    2600                      .dwattr $C$DW$338, DW_AT_name("datadelay")
    2601                      .dwattr $C$DW$338, DW_AT_TI_symbol_name("_datadelay")
    2602                      .dwattr $C$DW$338, DW_AT_data_member_location[DW_OP_plus_uconst 0x4]
    2603                      .dwattr $C$DW$338, DW_AT_accessibility(DW_ACCESS_public)
    2604              $C$DW$339       .dwtag  DW_TAG_member
    2605                      .dwattr $C$DW$339, DW_AT_type(*$C$DW$T$65)
    2606                      .dwattr $C$DW$339, DW_AT_name("datapack")
    2607                      .dwattr $C$DW$339, DW_AT_TI_symbol_name("_datapack")
    2608                      .dwattr $C$DW$339, DW_AT_data_member_location[DW_OP_plus_uconst 0x5]
    2609                      .dwattr $C$DW$339, DW_AT_accessibility(DW_ACCESS_public)
    2610              $C$DW$340       .dwtag  DW_TAG_member
    2611                      .dwattr $C$DW$340, DW_AT_type(*$C$DW$T$82)
    2612                      .dwattr $C$DW$340, DW_AT_name("signext")
TMS320C55x Assembler PC v4.4.1 Sat Sep 29 23:09:33 2018

Tools Copyright (c) 1996-2012 Texas Instruments Incorporated
csl_i2s_DmaExample.asm                                               PAGE   65

    2613                      .dwattr $C$DW$340, DW_AT_TI_symbol_name("_signext")
    2614                      .dwattr $C$DW$340, DW_AT_data_member_location[DW_OP_plus_uconst 0x6]
    2615                      .dwattr $C$DW$340, DW_AT_accessibility(DW_ACCESS_public)
    2616              $C$DW$341       .dwtag  DW_TAG_member
    2617                      .dwattr $C$DW$341, DW_AT_type(*$C$DW$T$69)
    2618                      .dwattr $C$DW$341, DW_AT_name("wordLen")
    2619                      .dwattr $C$DW$341, DW_AT_TI_symbol_name("_wordLen")
    2620                      .dwattr $C$DW$341, DW_AT_data_member_location[DW_OP_plus_uconst 0x7]
    2621                      .dwattr $C$DW$341, DW_AT_accessibility(DW_ACCESS_public)
    2622              $C$DW$342       .dwtag  DW_TAG_member
    2623                      .dwattr $C$DW$342, DW_AT_type(*$C$DW$T$84)
    2624                      .dwattr $C$DW$342, DW_AT_name("i2sMode")
    2625                      .dwattr $C$DW$342, DW_AT_TI_symbol_name("_i2sMode")
    2626                      .dwattr $C$DW$342, DW_AT_data_member_location[DW_OP_plus_uconst 0x8]
    2627                      .dwattr $C$DW$342, DW_AT_accessibility(DW_ACCESS_public)
    2628              $C$DW$343       .dwtag  DW_TAG_member
    2629                      .dwattr $C$DW$343, DW_AT_type(*$C$DW$T$86)
    2630                      .dwattr $C$DW$343, DW_AT_name("dataFormat")
    2631                      .dwattr $C$DW$343, DW_AT_TI_symbol_name("_dataFormat")
    2632                      .dwattr $C$DW$343, DW_AT_data_member_location[DW_OP_plus_uconst 0x9]
    2633                      .dwattr $C$DW$343, DW_AT_accessibility(DW_ACCESS_public)
    2634              $C$DW$344       .dwtag  DW_TAG_member
    2635                      .dwattr $C$DW$344, DW_AT_type(*$C$DW$T$67)
    2636                      .dwattr $C$DW$344, DW_AT_name("fsDiv")
    2637                      .dwattr $C$DW$344, DW_AT_TI_symbol_name("_fsDiv")
    2638                      .dwattr $C$DW$344, DW_AT_data_member_location[DW_OP_plus_uconst 0xa]
    2639                      .dwattr $C$DW$344, DW_AT_accessibility(DW_ACCESS_public)
    2640              $C$DW$345       .dwtag  DW_TAG_member
    2641                      .dwattr $C$DW$345, DW_AT_type(*$C$DW$T$88)
    2642                      .dwattr $C$DW$345, DW_AT_name("clkDiv")
    2643                      .dwattr $C$DW$345, DW_AT_TI_symbol_name("_clkDiv")
    2644                      .dwattr $C$DW$345, DW_AT_data_member_location[DW_OP_plus_uconst 0xb]
    2645                      .dwattr $C$DW$345, DW_AT_accessibility(DW_ACCESS_public)
    2646              $C$DW$346       .dwtag  DW_TAG_member
    2647                      .dwattr $C$DW$346, DW_AT_type(*$C$DW$T$90)
    2648                      .dwattr $C$DW$346, DW_AT_name("FError")
    2649                      .dwattr $C$DW$346, DW_AT_TI_symbol_name("_FError")
    2650                      .dwattr $C$DW$346, DW_AT_data_member_location[DW_OP_plus_uconst 0xc]
    2651                      .dwattr $C$DW$346, DW_AT_accessibility(DW_ACCESS_public)
    2652              $C$DW$347       .dwtag  DW_TAG_member
    2653                      .dwattr $C$DW$347, DW_AT_type(*$C$DW$T$92)
    2654                      .dwattr $C$DW$347, DW_AT_name("OuError")
    2655                      .dwattr $C$DW$347, DW_AT_TI_symbol_name("_OuError")
    2656                      .dwattr $C$DW$347, DW_AT_data_member_location[DW_OP_plus_uconst 0xd]
    2657                      .dwattr $C$DW$347, DW_AT_accessibility(DW_ACCESS_public)
    2658                      .dwendtag $C$DW$T$93
    2659              
    2660              $C$DW$T$114     .dwtag  DW_TAG_typedef, DW_AT_name("I2S_Config")
    2661                      .dwattr $C$DW$T$114, DW_AT_type(*$C$DW$T$93)
    2662                      .dwattr $C$DW$T$114, DW_AT_language(DW_LANG_C)
    2663              $C$DW$T$115     .dwtag  DW_TAG_pointer_type
    2664                      .dwattr $C$DW$T$115, DW_AT_type(*$C$DW$T$114)
    2665                      .dwattr $C$DW$T$115, DW_AT_address_class(0x17)
    2666              
    2667              $C$DW$T$96      .dwtag  DW_TAG_structure_type
TMS320C55x Assembler PC v4.4.1 Sat Sep 29 23:09:33 2018

Tools Copyright (c) 1996-2012 Texas Instruments Incorporated
csl_i2s_DmaExample.asm                                               PAGE   66

    2668                      .dwattr $C$DW$T$96, DW_AT_byte_size(0x48)
    2669              $C$DW$348       .dwtag  DW_TAG_member
    2670                      .dwattr $C$DW$348, DW_AT_type(*$C$DW$T$20)
    2671                      .dwattr $C$DW$348, DW_AT_name("EBSR")
    2672                      .dwattr $C$DW$348, DW_AT_TI_symbol_name("_EBSR")
    2673                      .dwattr $C$DW$348, DW_AT_data_member_location[DW_OP_plus_uconst 0x0]
    2674                      .dwattr $C$DW$348, DW_AT_accessibility(DW_ACCESS_public)
    2675              $C$DW$349       .dwtag  DW_TAG_member
    2676                      .dwattr $C$DW$349, DW_AT_type(*$C$DW$T$20)
    2677                      .dwattr $C$DW$349, DW_AT_name("RSVD0")
    2678                      .dwattr $C$DW$349, DW_AT_TI_symbol_name("_RSVD0")
    2679                      .dwattr $C$DW$349, DW_AT_data_member_location[DW_OP_plus_uconst 0x1]
    2680                      .dwattr $C$DW$349, DW_AT_accessibility(DW_ACCESS_public)
    2681              $C$DW$350       .dwtag  DW_TAG_member
    2682                      .dwattr $C$DW$350, DW_AT_type(*$C$DW$T$20)
    2683                      .dwattr $C$DW$350, DW_AT_name("PCGCR1")
    2684                      .dwattr $C$DW$350, DW_AT_TI_symbol_name("_PCGCR1")
    2685                      .dwattr $C$DW$350, DW_AT_data_member_location[DW_OP_plus_uconst 0x2]
    2686                      .dwattr $C$DW$350, DW_AT_accessibility(DW_ACCESS_public)
    2687              $C$DW$351       .dwtag  DW_TAG_member
    2688                      .dwattr $C$DW$351, DW_AT_type(*$C$DW$T$20)
    2689                      .dwattr $C$DW$351, DW_AT_name("PCGCR2")
    2690                      .dwattr $C$DW$351, DW_AT_TI_symbol_name("_PCGCR2")
    2691                      .dwattr $C$DW$351, DW_AT_data_member_location[DW_OP_plus_uconst 0x3]
    2692                      .dwattr $C$DW$351, DW_AT_accessibility(DW_ACCESS_public)
    2693              $C$DW$352       .dwtag  DW_TAG_member
    2694                      .dwattr $C$DW$352, DW_AT_type(*$C$DW$T$20)
    2695                      .dwattr $C$DW$352, DW_AT_name("PSRCR")
    2696                      .dwattr $C$DW$352, DW_AT_TI_symbol_name("_PSRCR")
    2697                      .dwattr $C$DW$352, DW_AT_data_member_location[DW_OP_plus_uconst 0x4]
    2698                      .dwattr $C$DW$352, DW_AT_accessibility(DW_ACCESS_public)
    2699              $C$DW$353       .dwtag  DW_TAG_member
    2700                      .dwattr $C$DW$353, DW_AT_type(*$C$DW$T$20)
    2701                      .dwattr $C$DW$353, DW_AT_name("PRCR")
    2702                      .dwattr $C$DW$353, DW_AT_TI_symbol_name("_PRCR")
    2703                      .dwattr $C$DW$353, DW_AT_data_member_location[DW_OP_plus_uconst 0x5]
    2704                      .dwattr $C$DW$353, DW_AT_accessibility(DW_ACCESS_public)
    2705              $C$DW$354       .dwtag  DW_TAG_member
    2706                      .dwattr $C$DW$354, DW_AT_type(*$C$DW$T$94)
    2707                      .dwattr $C$DW$354, DW_AT_name("RSVD1")
    2708                      .dwattr $C$DW$354, DW_AT_TI_symbol_name("_RSVD1")
    2709                      .dwattr $C$DW$354, DW_AT_data_member_location[DW_OP_plus_uconst 0x6]
    2710                      .dwattr $C$DW$354, DW_AT_accessibility(DW_ACCESS_public)
    2711              $C$DW$355       .dwtag  DW_TAG_member
    2712                      .dwattr $C$DW$355, DW_AT_type(*$C$DW$T$20)
    2713                      .dwattr $C$DW$355, DW_AT_name("TIAFR")
    2714                      .dwattr $C$DW$355, DW_AT_TI_symbol_name("_TIAFR")
    2715                      .dwattr $C$DW$355, DW_AT_data_member_location[DW_OP_plus_uconst 0x14]
    2716                      .dwattr $C$DW$355, DW_AT_accessibility(DW_ACCESS_public)
    2717              $C$DW$356       .dwtag  DW_TAG_member
    2718                      .dwattr $C$DW$356, DW_AT_type(*$C$DW$T$20)
    2719                      .dwattr $C$DW$356, DW_AT_name("RSVD2")
    2720                      .dwattr $C$DW$356, DW_AT_TI_symbol_name("_RSVD2")
    2721                      .dwattr $C$DW$356, DW_AT_data_member_location[DW_OP_plus_uconst 0x15]
    2722                      .dwattr $C$DW$356, DW_AT_accessibility(DW_ACCESS_public)
TMS320C55x Assembler PC v4.4.1 Sat Sep 29 23:09:33 2018

Tools Copyright (c) 1996-2012 Texas Instruments Incorporated
csl_i2s_DmaExample.asm                                               PAGE   67

    2723              $C$DW$357       .dwtag  DW_TAG_member
    2724                      .dwattr $C$DW$357, DW_AT_type(*$C$DW$T$20)
    2725                      .dwattr $C$DW$357, DW_AT_name("ODSCR")
    2726                      .dwattr $C$DW$357, DW_AT_TI_symbol_name("_ODSCR")
    2727                      .dwattr $C$DW$357, DW_AT_data_member_location[DW_OP_plus_uconst 0x16]
    2728                      .dwattr $C$DW$357, DW_AT_accessibility(DW_ACCESS_public)
    2729              $C$DW$358       .dwtag  DW_TAG_member
    2730                      .dwattr $C$DW$358, DW_AT_type(*$C$DW$T$20)
    2731                      .dwattr $C$DW$358, DW_AT_name("PDINHIBR1")
    2732                      .dwattr $C$DW$358, DW_AT_TI_symbol_name("_PDINHIBR1")
    2733                      .dwattr $C$DW$358, DW_AT_data_member_location[DW_OP_plus_uconst 0x17]
    2734                      .dwattr $C$DW$358, DW_AT_accessibility(DW_ACCESS_public)
    2735              $C$DW$359       .dwtag  DW_TAG_member
    2736                      .dwattr $C$DW$359, DW_AT_type(*$C$DW$T$20)
    2737                      .dwattr $C$DW$359, DW_AT_name("PDINHIBR2")
    2738                      .dwattr $C$DW$359, DW_AT_TI_symbol_name("_PDINHIBR2")
    2739                      .dwattr $C$DW$359, DW_AT_data_member_location[DW_OP_plus_uconst 0x18]
    2740                      .dwattr $C$DW$359, DW_AT_accessibility(DW_ACCESS_public)
    2741              $C$DW$360       .dwtag  DW_TAG_member
    2742                      .dwattr $C$DW$360, DW_AT_type(*$C$DW$T$20)
    2743                      .dwattr $C$DW$360, DW_AT_name("PDINHIBR3")
    2744                      .dwattr $C$DW$360, DW_AT_TI_symbol_name("_PDINHIBR3")
    2745                      .dwattr $C$DW$360, DW_AT_data_member_location[DW_OP_plus_uconst 0x19]
    2746                      .dwattr $C$DW$360, DW_AT_accessibility(DW_ACCESS_public)
    2747              $C$DW$361       .dwtag  DW_TAG_member
    2748                      .dwattr $C$DW$361, DW_AT_type(*$C$DW$T$20)
    2749                      .dwattr $C$DW$361, DW_AT_name("DMA0CESR1")
    2750                      .dwattr $C$DW$361, DW_AT_TI_symbol_name("_DMA0CESR1")
    2751                      .dwattr $C$DW$361, DW_AT_data_member_location[DW_OP_plus_uconst 0x1a]
    2752                      .dwattr $C$DW$361, DW_AT_accessibility(DW_ACCESS_public)
    2753              $C$DW$362       .dwtag  DW_TAG_member
    2754                      .dwattr $C$DW$362, DW_AT_type(*$C$DW$T$20)
    2755                      .dwattr $C$DW$362, DW_AT_name("DMA0CESR2")
    2756                      .dwattr $C$DW$362, DW_AT_TI_symbol_name("_DMA0CESR2")
    2757                      .dwattr $C$DW$362, DW_AT_data_member_location[DW_OP_plus_uconst 0x1b]
    2758                      .dwattr $C$DW$362, DW_AT_accessibility(DW_ACCESS_public)
    2759              $C$DW$363       .dwtag  DW_TAG_member
    2760                      .dwattr $C$DW$363, DW_AT_type(*$C$DW$T$20)
    2761                      .dwattr $C$DW$363, DW_AT_name("DMA1CESR1")
    2762                      .dwattr $C$DW$363, DW_AT_TI_symbol_name("_DMA1CESR1")
    2763                      .dwattr $C$DW$363, DW_AT_data_member_location[DW_OP_plus_uconst 0x1c]
    2764                      .dwattr $C$DW$363, DW_AT_accessibility(DW_ACCESS_public)
    2765              $C$DW$364       .dwtag  DW_TAG_member
    2766                      .dwattr $C$DW$364, DW_AT_type(*$C$DW$T$20)
    2767                      .dwattr $C$DW$364, DW_AT_name("DMA1CESR2")
    2768                      .dwattr $C$DW$364, DW_AT_TI_symbol_name("_DMA1CESR2")
    2769                      .dwattr $C$DW$364, DW_AT_data_member_location[DW_OP_plus_uconst 0x1d]
    2770                      .dwattr $C$DW$364, DW_AT_accessibility(DW_ACCESS_public)
    2771              $C$DW$365       .dwtag  DW_TAG_member
    2772                      .dwattr $C$DW$365, DW_AT_type(*$C$DW$T$20)
    2773                      .dwattr $C$DW$365, DW_AT_name("SDRAMCCR")
    2774                      .dwattr $C$DW$365, DW_AT_TI_symbol_name("_SDRAMCCR")
    2775                      .dwattr $C$DW$365, DW_AT_data_member_location[DW_OP_plus_uconst 0x1e]
    2776                      .dwattr $C$DW$365, DW_AT_accessibility(DW_ACCESS_public)
    2777              $C$DW$366       .dwtag  DW_TAG_member
TMS320C55x Assembler PC v4.4.1 Sat Sep 29 23:09:33 2018

Tools Copyright (c) 1996-2012 Texas Instruments Incorporated
csl_i2s_DmaExample.asm                                               PAGE   68

    2778                      .dwattr $C$DW$366, DW_AT_type(*$C$DW$T$20)
    2779                      .dwattr $C$DW$366, DW_AT_name("CCR2")
    2780                      .dwattr $C$DW$366, DW_AT_TI_symbol_name("_CCR2")
    2781                      .dwattr $C$DW$366, DW_AT_data_member_location[DW_OP_plus_uconst 0x1f]
    2782                      .dwattr $C$DW$366, DW_AT_accessibility(DW_ACCESS_public)
    2783              $C$DW$367       .dwtag  DW_TAG_member
    2784                      .dwattr $C$DW$367, DW_AT_type(*$C$DW$T$20)
    2785                      .dwattr $C$DW$367, DW_AT_name("CGCR1")
    2786                      .dwattr $C$DW$367, DW_AT_TI_symbol_name("_CGCR1")
    2787                      .dwattr $C$DW$367, DW_AT_data_member_location[DW_OP_plus_uconst 0x20]
    2788                      .dwattr $C$DW$367, DW_AT_accessibility(DW_ACCESS_public)
    2789              $C$DW$368       .dwtag  DW_TAG_member
    2790                      .dwattr $C$DW$368, DW_AT_type(*$C$DW$T$20)
    2791                      .dwattr $C$DW$368, DW_AT_name("CGICR")
    2792                      .dwattr $C$DW$368, DW_AT_TI_symbol_name("_CGICR")
    2793                      .dwattr $C$DW$368, DW_AT_data_member_location[DW_OP_plus_uconst 0x21]
    2794                      .dwattr $C$DW$368, DW_AT_accessibility(DW_ACCESS_public)
    2795              $C$DW$369       .dwtag  DW_TAG_member
    2796                      .dwattr $C$DW$369, DW_AT_type(*$C$DW$T$20)
    2797                      .dwattr $C$DW$369, DW_AT_name("CGCR2")
    2798                      .dwattr $C$DW$369, DW_AT_TI_symbol_name("_CGCR2")
    2799                      .dwattr $C$DW$369, DW_AT_data_member_location[DW_OP_plus_uconst 0x22]
    2800                      .dwattr $C$DW$369, DW_AT_accessibility(DW_ACCESS_public)
    2801              $C$DW$370       .dwtag  DW_TAG_member
    2802                      .dwattr $C$DW$370, DW_AT_type(*$C$DW$T$20)
    2803                      .dwattr $C$DW$370, DW_AT_name("CGOCR")
    2804                      .dwattr $C$DW$370, DW_AT_TI_symbol_name("_CGOCR")
    2805                      .dwattr $C$DW$370, DW_AT_data_member_location[DW_OP_plus_uconst 0x23]
    2806                      .dwattr $C$DW$370, DW_AT_accessibility(DW_ACCESS_public)
    2807              $C$DW$371       .dwtag  DW_TAG_member
    2808                      .dwattr $C$DW$371, DW_AT_type(*$C$DW$T$20)
    2809                      .dwattr $C$DW$371, DW_AT_name("CCSSR")
    2810                      .dwattr $C$DW$371, DW_AT_TI_symbol_name("_CCSSR")
    2811                      .dwattr $C$DW$371, DW_AT_data_member_location[DW_OP_plus_uconst 0x24]
    2812                      .dwattr $C$DW$371, DW_AT_accessibility(DW_ACCESS_public)
    2813              $C$DW$372       .dwtag  DW_TAG_member
    2814                      .dwattr $C$DW$372, DW_AT_type(*$C$DW$T$20)
    2815                      .dwattr $C$DW$372, DW_AT_name("RSVD3")
    2816                      .dwattr $C$DW$372, DW_AT_TI_symbol_name("_RSVD3")
    2817                      .dwattr $C$DW$372, DW_AT_data_member_location[DW_OP_plus_uconst 0x25]
    2818                      .dwattr $C$DW$372, DW_AT_accessibility(DW_ACCESS_public)
    2819              $C$DW$373       .dwtag  DW_TAG_member
    2820                      .dwattr $C$DW$373, DW_AT_type(*$C$DW$T$20)
    2821                      .dwattr $C$DW$373, DW_AT_name("ECDR")
    2822                      .dwattr $C$DW$373, DW_AT_TI_symbol_name("_ECDR")
    2823                      .dwattr $C$DW$373, DW_AT_data_member_location[DW_OP_plus_uconst 0x26]
    2824                      .dwattr $C$DW$373, DW_AT_accessibility(DW_ACCESS_public)
    2825              $C$DW$374       .dwtag  DW_TAG_member
    2826                      .dwattr $C$DW$374, DW_AT_type(*$C$DW$T$20)
    2827                      .dwattr $C$DW$374, DW_AT_name("RSVD4")
    2828                      .dwattr $C$DW$374, DW_AT_TI_symbol_name("_RSVD4")
    2829                      .dwattr $C$DW$374, DW_AT_data_member_location[DW_OP_plus_uconst 0x27]
    2830                      .dwattr $C$DW$374, DW_AT_accessibility(DW_ACCESS_public)
    2831              $C$DW$375       .dwtag  DW_TAG_member
    2832                      .dwattr $C$DW$375, DW_AT_type(*$C$DW$T$20)
TMS320C55x Assembler PC v4.4.1 Sat Sep 29 23:09:33 2018

Tools Copyright (c) 1996-2012 Texas Instruments Incorporated
csl_i2s_DmaExample.asm                                               PAGE   69

    2833                      .dwattr $C$DW$375, DW_AT_name("RAMSLPMDCNTLR1")
    2834                      .dwattr $C$DW$375, DW_AT_TI_symbol_name("_RAMSLPMDCNTLR1")
    2835                      .dwattr $C$DW$375, DW_AT_data_member_location[DW_OP_plus_uconst 0x28]
    2836                      .dwattr $C$DW$375, DW_AT_accessibility(DW_ACCESS_public)
    2837              $C$DW$376       .dwtag  DW_TAG_member
    2838                      .dwattr $C$DW$376, DW_AT_type(*$C$DW$T$20)
    2839                      .dwattr $C$DW$376, DW_AT_name("RSVD5")
    2840                      .dwattr $C$DW$376, DW_AT_TI_symbol_name("_RSVD5")
    2841                      .dwattr $C$DW$376, DW_AT_data_member_location[DW_OP_plus_uconst 0x29]
    2842                      .dwattr $C$DW$376, DW_AT_accessibility(DW_ACCESS_public)
    2843              $C$DW$377       .dwtag  DW_TAG_member
    2844                      .dwattr $C$DW$377, DW_AT_type(*$C$DW$T$20)
    2845                      .dwattr $C$DW$377, DW_AT_name("RAMSLPMDCNTLR2")
    2846                      .dwattr $C$DW$377, DW_AT_TI_symbol_name("_RAMSLPMDCNTLR2")
    2847                      .dwattr $C$DW$377, DW_AT_data_member_location[DW_OP_plus_uconst 0x2a]
    2848                      .dwattr $C$DW$377, DW_AT_accessibility(DW_ACCESS_public)
    2849              $C$DW$378       .dwtag  DW_TAG_member
    2850                      .dwattr $C$DW$378, DW_AT_type(*$C$DW$T$20)
    2851                      .dwattr $C$DW$378, DW_AT_name("RAMSLPMDCNTLR3")
    2852                      .dwattr $C$DW$378, DW_AT_TI_symbol_name("_RAMSLPMDCNTLR3")
    2853                      .dwattr $C$DW$378, DW_AT_data_member_location[DW_OP_plus_uconst 0x2b]
    2854                      .dwattr $C$DW$378, DW_AT_accessibility(DW_ACCESS_public)
    2855              $C$DW$379       .dwtag  DW_TAG_member
    2856                      .dwattr $C$DW$379, DW_AT_type(*$C$DW$T$20)
    2857                      .dwattr $C$DW$379, DW_AT_name("RAMSLPMDCNTLR4")
    2858                      .dwattr $C$DW$379, DW_AT_TI_symbol_name("_RAMSLPMDCNTLR4")
    2859                      .dwattr $C$DW$379, DW_AT_data_member_location[DW_OP_plus_uconst 0x2c]
