TMS320C55x Assembler PC v4.4.1 Sat Sep 29 23:08:57 2018

Tools Copyright (c) 1996-2012 Texas Instruments Incorporated
csl_nand_dma_example.asm                                             PAGE    1

    5928              ; Temporary Registers Used: None
       1              ;*******************************************************************************
       2              ;* TMS320C55x C/C++ Codegen                                          PC v4.4.1 *
       3              ;* Date/Time created: Sat Sep 29 23:08:56 2018                                 *
       4              ;*******************************************************************************
       5                      .compiler_opts --hll_source=on --mem_model:code=flat --mem_model:data=large --object_format=coff --si
       6                      .mmregs
       7                      .cpl_on
       8                      .arms_on
       9                      .c54cm_off
      10                      .asg AR6, FP
      11                      .asg XAR6, XFP
      12                      .asg DPH, MDP
      13                      .model call=c55_std
      14                      .model mem=large
      15                      .noremark 5002  ; code respects overwrite rules
      16              ;*******************************************************************************
      17              ;* GLOBAL FILE PARAMETERS                                                      *
      18              ;*                                                                             *
      19              ;*   Architecture       : TMS320C55x                                           *
      20              ;*   Optimizing for     : Speed                                                *
      21              ;*   Memory             : Large Model (23-Bit Data Pointers)                   *
      22              ;*   Calls              : Normal Library ASM calls                             *
      23              ;*   Debug Info         : Standard TI Debug Information                        *
      24              ;*******************************************************************************
      25              
      26              $C$DW$CU        .dwtag  DW_TAG_compile_unit
      27                      .dwattr $C$DW$CU, DW_AT_name("../c5535_bsl_revc/ezdsp5535_v1/c55xx_csl/ccs_v4.0_examples/nand/CSL_NAN
      28                      .dwattr $C$DW$CU, DW_AT_producer("TMS320C55x C/C++ Codegen PC v4.4.1 Copyright (c) 1996-2012 Texas In
      29                      .dwattr $C$DW$CU, DW_AT_TI_version(0x01)
      30                      .dwattr $C$DW$CU, DW_AT_comp_dir("F:\eZdsp_DBG\tmp1\c55x-sim2\foo\Debug")
      31              ;******************************************************************************
      32              ;* CINIT RECORDS                                                              *
      33              ;******************************************************************************
      34 000000               .sect   ".cinit"
      35                      .align  1
      36 000000 033C          .field          $C$IR_1,16
      37 000001 0008-         .field          _cslNandIdLookup+0,24
         000002 2400 
      38 000002 2400          .field          0,8
      39 000003 0000+         .field  $C$FSL1,32              ; _cslNandIdLookup[0]._name @ 0
         000004 0000 
      40 000005 0000          .field  110,32                  ; _cslNandIdLookup[0]._id @ 32
         000006 006E 
      41 000007 0000          .field  256,32                  ; _cslNandIdLookup[0]._bytesPerPage @ 64
         000008 0100 
      42 000009 0000          .field  1,32                    ; _cslNandIdLookup[0]._chipSize @ 96
         00000a 0001 
      43 00000b 0000          .field  4096,32                 ; _cslNandIdLookup[0]._eraseSize @ 128
         00000c 1000 
      44 00000d 0000          .field  0,16                    ; _cslNandIdLookup[0]._nand8Bit @ 160
      45 00000e               .space  16
      46 00000f 0000          .field  0,32                    ; _cslNandIdLookup[0]._nandOptions @ 192
         000010 0000 
      47 000011 0000+         .field  $C$FSL2,32              ; _cslNandIdLookup[1]._name @ 224
TMS320C55x Assembler PC v4.4.1 Sat Sep 29 23:08:57 2018

Tools Copyright (c) 1996-2012 Texas Instruments Incorporated
csl_nand_dma_example.asm                                             PAGE    2

         000012 000A 
      48 000013 0000          .field  100,32                  ; _cslNandIdLookup[1]._id @ 256
         000014 0064 
      49 000015 0000          .field  256,32                  ; _cslNandIdLookup[1]._bytesPerPage @ 288
         000016 0100 
      50 000017 0000          .field  2,32                    ; _cslNandIdLookup[1]._chipSize @ 320
         000018 0002 
      51 000019 0000          .field  4096,32                 ; _cslNandIdLookup[1]._eraseSize @ 352
         00001a 1000 
      52 00001b 0000          .field  0,16                    ; _cslNandIdLookup[1]._nand8Bit @ 384
      53 00001c               .space  16
      54 00001d 0000          .field  0,32                    ; _cslNandIdLookup[1]._nandOptions @ 416
         00001e 0000 
      55 00001f 0000+         .field  $C$FSL3,32              ; _cslNandIdLookup[2]._name @ 448
         000020 0014 
      56 000021 0000          .field  107,32                  ; _cslNandIdLookup[2]._id @ 480
         000022 006B 
      57 000023 0000          .field  512,32                  ; _cslNandIdLookup[2]._bytesPerPage @ 512
         000024 0200 
      58 000025 0000          .field  4,32                    ; _cslNandIdLookup[2]._chipSize @ 544
         000026 0004 
      59 000027 0000          .field  8192,32                 ; _cslNandIdLookup[2]._eraseSize @ 576
         000028 2000 
      60 000029 0000          .field  0,16                    ; _cslNandIdLookup[2]._nand8Bit @ 608
      61 00002a               .space  16
      62 00002b 0000          .field  0,32                    ; _cslNandIdLookup[2]._nandOptions @ 640
         00002c 0000 
      63 00002d 0000+         .field  $C$FSL1,32              ; _cslNandIdLookup[3]._name @ 672
         00002e 0000 
      64 00002f 0000          .field  232,32                  ; _cslNandIdLookup[3]._id @ 704
         000030 00E8 
      65 000031 0000          .field  256,32                  ; _cslNandIdLookup[3]._bytesPerPage @ 736
         000032 0100 
      66 000033 0000          .field  1,32                    ; _cslNandIdLookup[3]._chipSize @ 768
         000034 0001 
      67 000035 0000          .field  4096,32                 ; _cslNandIdLookup[3]._eraseSize @ 800
         000036 1000 
      68 000037 0000          .field  0,16                    ; _cslNandIdLookup[3]._nand8Bit @ 832
      69 000038               .space  16
      70 000039 0000          .field  0,32                    ; _cslNandIdLookup[3]._nandOptions @ 864
         00003a 0000 
      71 00003b 0000+         .field  $C$FSL1,32              ; _cslNandIdLookup[4]._name @ 896
         00003c 0000 
      72 00003d 0000          .field  236,32                  ; _cslNandIdLookup[4]._id @ 928
         00003e 00EC 
      73 00003f 0000          .field  256,32                  ; _cslNandIdLookup[4]._bytesPerPage @ 960
         000040 0100 
      74 000041 0000          .field  1,32                    ; _cslNandIdLookup[4]._chipSize @ 992
         000042 0001 
      75 000043 0000          .field  4096,32                 ; _cslNandIdLookup[4]._eraseSize @ 1024
         000044 1000 
      76 000045 0000          .field  0,16                    ; _cslNandIdLookup[4]._nand8Bit @ 1056
      77 000046               .space  16
      78 000047 0000          .field  0,32                    ; _cslNandIdLookup[4]._nandOptions @ 1088
         000048 0000 
TMS320C55x Assembler PC v4.4.1 Sat Sep 29 23:08:57 2018

Tools Copyright (c) 1996-2012 Texas Instruments Incorporated
csl_nand_dma_example.asm                                             PAGE    3

      79 000049 0000+         .field  $C$FSL2,32              ; _cslNandIdLookup[5]._name @ 1120
         00004a 000A 
      80 00004b 0000          .field  234,32                  ; _cslNandIdLookup[5]._id @ 1152
         00004c 00EA 
      81 00004d 0000          .field  256,32                  ; _cslNandIdLookup[5]._bytesPerPage @ 1184
         00004e 0100 
      82 00004f 0000          .field  2,32                    ; _cslNandIdLookup[5]._chipSize @ 1216
         000050 0002 
      83 000051 0000          .field  4096,32                 ; _cslNandIdLookup[5]._eraseSize @ 1248
         000052 1000 
      84 000053 0000          .field  0,16                    ; _cslNandIdLookup[5]._nand8Bit @ 1280
      85 000054               .space  16
      86 000055 0000          .field  0,32                    ; _cslNandIdLookup[5]._nandOptions @ 1312
         000056 0000 
      87 000057 0000+         .field  $C$FSL3,32              ; _cslNandIdLookup[6]._name @ 1344
         000058 0014 
      88 000059 0000          .field  213,32                  ; _cslNandIdLookup[6]._id @ 1376
         00005a 00D5 
      89 00005b 0000          .field  512,32                  ; _cslNandIdLookup[6]._bytesPerPage @ 1408
         00005c 0200 
      90 00005d 0000          .field  4,32                    ; _cslNandIdLookup[6]._chipSize @ 1440
         00005e 0004 
      91 00005f 0000          .field  8192,32                 ; _cslNandIdLookup[6]._eraseSize @ 1472
         000060 2000 
      92 000061 0000          .field  0,16                    ; _cslNandIdLookup[6]._nand8Bit @ 1504
      93 000062               .space  16
      94 000063 0000          .field  0,32                    ; _cslNandIdLookup[6]._nandOptions @ 1536
         000064 0000 
      95 000065 0000+         .field  $C$FSL3,32              ; _cslNandIdLookup[7]._name @ 1568
         000066 0014 
      96 000067 0000          .field  227,32                  ; _cslNandIdLookup[7]._id @ 1600
         000068 00E3 
      97 000069 0000          .field  512,32                  ; _cslNandIdLookup[7]._bytesPerPage @ 1632
         00006a 0200 
      98 00006b 0000          .field  4,32                    ; _cslNandIdLookup[7]._chipSize @ 1664
         00006c 0004 
      99 00006d 0000          .field  8192,32                 ; _cslNandIdLookup[7]._eraseSize @ 1696
         00006e 2000 
     100 00006f 0000          .field  0,16                    ; _cslNandIdLookup[7]._nand8Bit @ 1728
     101 000070               .space  16
     102 000071 0000          .field  0,32                    ; _cslNandIdLookup[7]._nandOptions @ 1760
         000072 0000 
     103 000073 0000+         .field  $C$FSL3,32              ; _cslNandIdLookup[8]._name @ 1792
         000074 0014 
     104 000075 0000          .field  229,32                  ; _cslNandIdLookup[8]._id @ 1824
         000076 00E5 
     105 000077 0000          .field  512,32                  ; _cslNandIdLookup[8]._bytesPerPage @ 1856
         000078 0200 
     106 000079 0000          .field  4,32                    ; _cslNandIdLookup[8]._chipSize @ 1888
         00007a 0004 
     107 00007b 0000          .field  8192,32                 ; _cslNandIdLookup[8]._eraseSize @ 1920
         00007c 2000 
     108 00007d 0000          .field  0,16                    ; _cslNandIdLookup[8]._nand8Bit @ 1952
     109 00007e               .space  16
     110 00007f 0000          .field  0,32                    ; _cslNandIdLookup[8]._nandOptions @ 1984
TMS320C55x Assembler PC v4.4.1 Sat Sep 29 23:08:57 2018

Tools Copyright (c) 1996-2012 Texas Instruments Incorporated
csl_nand_dma_example.asm                                             PAGE    4

         000080 0000 
     111 000081 0000+         .field  $C$FSL4,32              ; _cslNandIdLookup[9]._name @ 2016
         000082 001E 
     112 000083 0000          .field  214,32                  ; _cslNandIdLookup[9]._id @ 2048
         000084 00D6 
     113 000085 0000          .field  512,32                  ; _cslNandIdLookup[9]._bytesPerPage @ 2080
         000086 0200 
     114 000087 0000          .field  8,32                    ; _cslNandIdLookup[9]._chipSize @ 2112
         000088 0008 
     115 000089 0000          .field  8192,32                 ; _cslNandIdLookup[9]._eraseSize @ 2144
         00008a 2000 
     116 00008b 0000          .field  0,16                    ; _cslNandIdLookup[9]._nand8Bit @ 2176
     117 00008c               .space  16
     118 00008d 0000          .field  0,32                    ; _cslNandIdLookup[9]._nandOptions @ 2208
         00008e 0000 
     119 00008f 0000+         .field  $C$FSL4,32              ; _cslNandIdLookup[10]._name @ 2240
         000090 001E 
     120 000091 0000          .field  57,32                   ; _cslNandIdLookup[10]._id @ 2272
         000092 0039 
     121 000093 0000          .field  512,32                  ; _cslNandIdLookup[10]._bytesPerPage @ 2304
         000094 0200 
     122 000095 0000          .field  8,32                    ; _cslNandIdLookup[10]._chipSize @ 2336
         000096 0008 
     123 000097 0000          .field  8192,32                 ; _cslNandIdLookup[10]._eraseSize @ 2368
         000098 2000 
     124 000099 0000          .field  0,16                    ; _cslNandIdLookup[10]._nand8Bit @ 2400
     125 00009a               .space  16
     126 00009b 0000          .field  0,32                    ; _cslNandIdLookup[10]._nandOptions @ 2432
         00009c 0000 
     127 00009d 0000+         .field  $C$FSL4,32              ; _cslNandIdLookup[11]._name @ 2464
         00009e 001E 
     128 00009f 0000          .field  230,32                  ; _cslNandIdLookup[11]._id @ 2496
         0000a0 00E6 
     129 0000a1 0000          .field  512,32                  ; _cslNandIdLookup[11]._bytesPerPage @ 2528
         0000a2 0200 
     130 0000a3 0000          .field  8,32                    ; _cslNandIdLookup[11]._chipSize @ 2560
         0000a4 0008 
     131 0000a5 0000          .field  8192,32                 ; _cslNandIdLookup[11]._eraseSize @ 2592
         0000a6 2000 
     132 0000a7 0000          .field  0,16                    ; _cslNandIdLookup[11]._nand8Bit @ 2624
     133 0000a8               .space  16
     134 0000a9 0000          .field  0,32                    ; _cslNandIdLookup[11]._nandOptions @ 2656
         0000aa 0000 
     135 0000ab 0000+         .field  $C$FSL5,32              ; _cslNandIdLookup[12]._name @ 2688
         0000ac 0028 
     136 0000ad 0000          .field  73,32                   ; _cslNandIdLookup[12]._id @ 2720
         0000ae 0049 
     137 0000af 0000          .field  512,32                  ; _cslNandIdLookup[12]._bytesPerPage @ 2752
         0000b0 0200 
     138 0000b1 0000          .field  8,32                    ; _cslNandIdLookup[12]._chipSize @ 2784
         0000b2 0008 
     139 0000b3 0000          .field  8192,32                 ; _cslNandIdLookup[12]._eraseSize @ 2816
         0000b4 2000 
     140 0000b5 0001          .field  1,16                    ; _cslNandIdLookup[12]._nand8Bit @ 2848
     141 0000b6               .space  16
TMS320C55x Assembler PC v4.4.1 Sat Sep 29 23:08:57 2018

Tools Copyright (c) 1996-2012 Texas Instruments Incorporated
csl_nand_dma_example.asm                                             PAGE    5

     142 0000b7 0000          .field  0,32                    ; _cslNandIdLookup[12]._nandOptions @ 2880
         0000b8 0000 
     143 0000b9 0000+         .field  $C$FSL5,32              ; _cslNandIdLookup[13]._name @ 2912
         0000ba 0028 
     144 0000bb 0000          .field  89,32                   ; _cslNandIdLookup[13]._id @ 2944
         0000bc 0059 
     145 0000bd 0000          .field  512,32                  ; _cslNandIdLookup[13]._bytesPerPage @ 2976
         0000be 0200 
     146 0000bf 0000          .field  8,32                    ; _cslNandIdLookup[13]._chipSize @ 3008
         0000c0 0008 
     147 0000c1 0000          .field  8192,32                 ; _cslNandIdLookup[13]._eraseSize @ 3040
         0000c2 2000 
     148 0000c3 0001          .field  1,16                    ; _cslNandIdLookup[13]._nand8Bit @ 3072
     149 0000c4               .space  16
     150 0000c5 0000          .field  0,32                    ; _cslNandIdLookup[13]._nandOptions @ 3104
         0000c6 0000 
     151 0000c7 0000+         .field  $C$FSL6,32              ; _cslNandIdLookup[14]._name @ 3136
         0000c8 0034 
     152 0000c9 0000          .field  51,32                   ; _cslNandIdLookup[14]._id @ 3168
         0000ca 0033 
     153 0000cb 0000          .field  512,32                  ; _cslNandIdLookup[14]._bytesPerPage @ 3200
         0000cc 0200 
     154 0000cd 0000          .field  16,32                   ; _cslNandIdLookup[14]._chipSize @ 3232
         0000ce 0010 
     155 0000cf 0000          .field  16384,32                        ; _cslNandIdLookup[14]._eraseSize @ 3264
         0000d0 4000 
     156 0000d1 0000          .field  0,16                    ; _cslNandIdLookup[14]._nand8Bit @ 3296
     157 0000d2               .space  16
     158 0000d3 0000          .field  0,32                    ; _cslNandIdLookup[14]._nandOptions @ 3328
         0000d4 0000 
     159 0000d5 0000+         .field  $C$FSL6,32              ; _cslNandIdLookup[15]._name @ 3360
         0000d6 0034 
     160 0000d7 0000          .field  115,32                  ; _cslNandIdLookup[15]._id @ 3392
         0000d8 0073 
     161 0000d9 0000          .field  512,32                  ; _cslNandIdLookup[15]._bytesPerPage @ 3424
         0000da 0200 
     162 0000db 0000          .field  16,32                   ; _cslNandIdLookup[15]._chipSize @ 3456
         0000dc 0010 
     163 0000dd 0000          .field  16384,32                        ; _cslNandIdLookup[15]._eraseSize @ 3488
         0000de 4000 
     164 0000df 0000          .field  0,16                    ; _cslNandIdLookup[15]._nand8Bit @ 3520
     165 0000e0               .space  16
     166 0000e1 0000          .field  0,32                    ; _cslNandIdLookup[15]._nandOptions @ 3552
         0000e2 0000 
     167 0000e3 0000+         .field  $C$FSL7,32              ; _cslNandIdLookup[16]._name @ 3584
         0000e4 0040 
     168 0000e5 0000          .field  67,32                   ; _cslNandIdLookup[16]._id @ 3616
         0000e6 0043 
     169 0000e7 0000          .field  512,32                  ; _cslNandIdLookup[16]._bytesPerPage @ 3648
         0000e8 0200 
     170 0000e9 0000          .field  16,32                   ; _cslNandIdLookup[16]._chipSize @ 3680
         0000ea 0010 
     171 0000eb 0000          .field  16384,32                        ; _cslNandIdLookup[16]._eraseSize @ 3712
         0000ec 4000 
     172 0000ed 0001          .field  1,16                    ; _cslNandIdLookup[16]._nand8Bit @ 3744
TMS320C55x Assembler PC v4.4.1 Sat Sep 29 23:08:57 2018

Tools Copyright (c) 1996-2012 Texas Instruments Incorporated
csl_nand_dma_example.asm                                             PAGE    6

     173 0000ee               .space  16
     174 0000ef 0000          .field  0,32                    ; _cslNandIdLookup[16]._nandOptions @ 3776
         0000f0 0000 
     175 0000f1 0000+         .field  $C$FSL7,32              ; _cslNandIdLookup[17]._name @ 3808
         0000f2 0040 
     176 0000f3 0000          .field  83,32                   ; _cslNandIdLookup[17]._id @ 3840
         0000f4 0053 
     177 0000f5 0000          .field  512,32                  ; _cslNandIdLookup[17]._bytesPerPage @ 3872
         0000f6 0200 
     178 0000f7 0000          .field  16,32                   ; _cslNandIdLookup[17]._chipSize @ 3904
         0000f8 0010 
     179 0000f9 0000          .field  16384,32                        ; _cslNandIdLookup[17]._eraseSize @ 3936
         0000fa 4000 
     180 0000fb 0001          .field  1,16                    ; _cslNandIdLookup[17]._nand8Bit @ 3968
     181 0000fc               .space  16
     182 0000fd 0000          .field  0,32                    ; _cslNandIdLookup[17]._nandOptions @ 4000
         0000fe 0000 
     183 0000ff 0000+         .field  $C$FSL8,32              ; _cslNandIdLookup[18]._name @ 4032
         000100 004C 
     184 000101 0000          .field  53,32                   ; _cslNandIdLookup[18]._id @ 4064
         000102 0035 
     185 000103 0000          .field  512,32                  ; _cslNandIdLookup[18]._bytesPerPage @ 4096
         000104 0200 
     186 000105 0000          .field  32,32                   ; _cslNandIdLookup[18]._chipSize @ 4128
         000106 0020 
     187 000107 0000          .field  16384,32                        ; _cslNandIdLookup[18]._eraseSize @ 4160
         000108 4000 
     188 000109 0000          .field  0,16                    ; _cslNandIdLookup[18]._nand8Bit @ 4192
     189 00010a               .space  16
     190 00010b 0000          .field  0,32                    ; _cslNandIdLookup[18]._nandOptions @ 4224
         00010c 0000 
     191 00010d 0000+         .field  $C$FSL8,32              ; _cslNandIdLookup[19]._name @ 4256
         00010e 004C 
     192 00010f 0000          .field  117,32                  ; _cslNandIdLookup[19]._id @ 4288
         000110 0075 
     193 000111 0000          .field  512,32                  ; _cslNandIdLookup[19]._bytesPerPage @ 4320
         000112 0200 
     194 000113 0000          .field  32,32                   ; _cslNandIdLookup[19]._chipSize @ 4352
         000114 0020 
     195 000115 0000          .field  16384,32                        ; _cslNandIdLookup[19]._eraseSize @ 4384
         000116 4000 
     196 000117 0000          .field  0,16                    ; _cslNandIdLookup[19]._nand8Bit @ 4416
     197 000118               .space  16
     198 000119 0000          .field  0,32                    ; _cslNandIdLookup[19]._nandOptions @ 4448
         00011a 0000 
     199 00011b 0000+         .field  $C$FSL9,32              ; _cslNandIdLookup[20]._name @ 4480
         00011c 0058 
     200 00011d 0000          .field  69,32                   ; _cslNandIdLookup[20]._id @ 4512
         00011e 0045 
     201 00011f 0000          .field  512,32                  ; _cslNandIdLookup[20]._bytesPerPage @ 4544
         000120 0200 
     202 000121 0000          .field  32,32                   ; _cslNandIdLookup[20]._chipSize @ 4576
         000122 0020 
     203 000123 0000          .field  16384,32                        ; _cslNandIdLookup[20]._eraseSize @ 4608
         000124 4000 
TMS320C55x Assembler PC v4.4.1 Sat Sep 29 23:08:57 2018

Tools Copyright (c) 1996-2012 Texas Instruments Incorporated
csl_nand_dma_example.asm                                             PAGE    7

     204 000125 0001          .field  1,16                    ; _cslNandIdLookup[20]._nand8Bit @ 4640
     205 000126               .space  16
     206 000127 0000          .field  0,32                    ; _cslNandIdLookup[20]._nandOptions @ 4672
         000128 0000 
     207 000129 0000+         .field  $C$FSL9,32              ; _cslNandIdLookup[21]._name @ 4704
         00012a 0058 
     208 00012b 0000          .field  85,32                   ; _cslNandIdLookup[21]._id @ 4736
         00012c 0055 
     209 00012d 0000          .field  512,32                  ; _cslNandIdLookup[21]._bytesPerPage @ 4768
         00012e 0200 
     210 00012f 0000          .field  32,32                   ; _cslNandIdLookup[21]._chipSize @ 4800
         000130 0020 
     211 000131 0000          .field  16384,32                        ; _cslNandIdLookup[21]._eraseSize @ 4832
         000132 4000 
     212 000133 0001          .field  1,16                    ; _cslNandIdLookup[21]._nand8Bit @ 4864
     213 000134               .space  16
     214 000135 0000          .field  0,32                    ; _cslNandIdLookup[21]._nandOptions @ 4896
         000136 0000 
     215 000137 0000+         .field  $C$FSL10,32             ; _cslNandIdLookup[22]._name @ 4928
         000138 0064 
     216 000139 0000          .field  54,32                   ; _cslNandIdLookup[22]._id @ 4960
         00013a 0036 
     217 00013b 0000          .field  512,32                  ; _cslNandIdLookup[22]._bytesPerPage @ 4992
         00013c 0200 
     218 00013d 0000          .field  64,32                   ; _cslNandIdLookup[22]._chipSize @ 5024
         00013e 0040 
     219 00013f 0000          .field  16384,32                        ; _cslNandIdLookup[22]._eraseSize @ 5056
         000140 4000 
     220 000141 0000          .field  0,16                    ; _cslNandIdLookup[22]._nand8Bit @ 5088
     221 000142               .space  16
     222 000143 0000          .field  0,32                    ; _cslNandIdLookup[22]._nandOptions @ 5120
         000144 0000 
     223 000145 0000+         .field  $C$FSL11,32             ; _cslNandIdLookup[23]._name @ 5152
         000146 0070 
     224 000147 0000          .field  37,32                   ; _cslNandIdLookup[23]._id @ 5184
         000148 0025 
     225 000149 0000          .field  2048,32                 ; _cslNandIdLookup[23]._bytesPerPage @ 5216
         00014a 0800 
     226 00014b 0000          .field  64,32                   ; _cslNandIdLookup[23]._chipSize @ 5248
         00014c 0040 
     227 00014d 0002          .field  131072,32                       ; _cslNandIdLookup[23]._eraseSize @ 5280
         00014e 0000 
     228 00014f 0001          .field  1,16                    ; _cslNandIdLookup[23]._nand8Bit @ 5312
     229 000150               .space  16
     230 000151 0000          .field  15,32                   ; _cslNandIdLookup[23]._nandOptions @ 5344
         000152 000F 
     231 000153 0000+         .field  $C$FSL10,32             ; _cslNandIdLookup[24]._name @ 5376
         000154 0064 
     232 000155 0000          .field  118,32                  ; _cslNandIdLookup[24]._id @ 5408
         000156 0076 
     233 000157 0000          .field  512,32                  ; _cslNandIdLookup[24]._bytesPerPage @ 5440
         000158 0200 
     234 000159 0000          .field  64,32                   ; _cslNandIdLookup[24]._chipSize @ 5472
         00015a 0040 
     235 00015b 0000          .field  16384,32                        ; _cslNandIdLookup[24]._eraseSize @ 5504
TMS320C55x Assembler PC v4.4.1 Sat Sep 29 23:08:57 2018

Tools Copyright (c) 1996-2012 Texas Instruments Incorporated
csl_nand_dma_example.asm                                             PAGE    8

         00015c 4000 
     236 00015d 0000          .field  0,16                    ; _cslNandIdLookup[24]._nand8Bit @ 5536
     237 00015e               .space  16
     238 00015f 0000          .field  0,32                    ; _cslNandIdLookup[24]._nandOptions @ 5568
         000160 0000 
     239 000161 0000+         .field  $C$FSL11,32             ; _cslNandIdLookup[25]._name @ 5600
         000162 0070 
     240 000163 0000          .field  70,32                   ; _cslNandIdLookup[25]._id @ 5632
         000164 0046 
     241 000165 0000          .field  512,32                  ; _cslNandIdLookup[25]._bytesPerPage @ 5664
         000166 0200 
     242 000167 0000          .field  64,32                   ; _cslNandIdLookup[25]._chipSize @ 5696
         000168 0040 
     243 000169 0000          .field  16384,32                        ; _cslNandIdLookup[25]._eraseSize @ 5728
         00016a 4000 
     244 00016b 0001          .field  1,16                    ; _cslNandIdLookup[25]._nand8Bit @ 5760
     245 00016c               .space  16
     246 00016d 0000          .field  0,32                    ; _cslNandIdLookup[25]._nandOptions @ 5792
         00016e 0000 
     247 00016f 0000+         .field  $C$FSL11,32             ; _cslNandIdLookup[26]._name @ 5824
         000170 0070 
     248 000171 0000          .field  86,32                   ; _cslNandIdLookup[26]._id @ 5856
         000172 0056 
     249 000173 0000          .field  512,32                  ; _cslNandIdLookup[26]._bytesPerPage @ 5888
         000174 0200 
     250 000175 0000          .field  64,32                   ; _cslNandIdLookup[26]._chipSize @ 5920
         000176 0040 
     251 000177 0000          .field  16384,32                        ; _cslNandIdLookup[26]._eraseSize @ 5952
         000178 4000 
     252 000179 0001          .field  1,16                    ; _cslNandIdLookup[26]._nand8Bit @ 5984
     253 00017a               .space  16
     254 00017b 0000          .field  0,32                    ; _cslNandIdLookup[26]._nandOptions @ 6016
         00017c 0000 
     255 00017d 0000+         .field  $C$FSL12,32             ; _cslNandIdLookup[27]._name @ 6048
         00017e 007C 
     256 00017f 0000          .field  120,32                  ; _cslNandIdLookup[27]._id @ 6080
         000180 0078 
     257 000181 0000          .field  512,32                  ; _cslNandIdLookup[27]._bytesPerPage @ 6112
         000182 0200 
     258 000183 0000          .field  128,32                  ; _cslNandIdLookup[27]._chipSize @ 6144
         000184 0080 
     259 000185 0000          .field  16384,32                        ; _cslNandIdLookup[27]._eraseSize @ 6176
         000186 4000 
     260 000187 0000          .field  0,16                    ; _cslNandIdLookup[27]._nand8Bit @ 6208
     261 000188               .space  16
     262 000189 0000          .field  0,32                    ; _cslNandIdLookup[27]._nandOptions @ 6240
         00018a 0000 
     263 00018b 0000+         .field  $C$FSL12,32             ; _cslNandIdLookup[28]._name @ 6272
         00018c 007C 
     264 00018d 0000          .field  57,32                   ; _cslNandIdLookup[28]._id @ 6304
         00018e 0039 
     265 00018f 0000          .field  512,32                  ; _cslNandIdLookup[28]._bytesPerPage @ 6336
         000190 0200 
     266 000191 0000          .field  128,32                  ; _cslNandIdLookup[28]._chipSize @ 6368
         000192 0080 
TMS320C55x Assembler PC v4.4.1 Sat Sep 29 23:08:57 2018

Tools Copyright (c) 1996-2012 Texas Instruments Incorporated
csl_nand_dma_example.asm                                             PAGE    9

     267 000193 0000          .field  16384,32                        ; _cslNandIdLookup[28]._eraseSize @ 6400
         000194 4000 
     268 000195 0000          .field  0,16                    ; _cslNandIdLookup[28]._nand8Bit @ 6432
     269 000196               .space  16
     270 000197 0000          .field  0,32                    ; _cslNandIdLookup[28]._nandOptions @ 6464
         000198 0000 
     271 000199 0000+         .field  $C$FSL12,32             ; _cslNandIdLookup[29]._name @ 6496
         00019a 007C 
     272 00019b 0000          .field  121,32                  ; _cslNandIdLookup[29]._id @ 6528
         00019c 0079 
     273 00019d 0000          .field  512,32                  ; _cslNandIdLookup[29]._bytesPerPage @ 6560
         00019e 0200 
     274 00019f 0000          .field  128,32                  ; _cslNandIdLookup[29]._chipSize @ 6592
         0001a0 0080 
     275 0001a1 0000          .field  16384,32                        ; _cslNandIdLookup[29]._eraseSize @ 6624
         0001a2 4000 
     276 0001a3 0000          .field  0,16                    ; _cslNandIdLookup[29]._nand8Bit @ 6656
     277 0001a4               .space  16
     278 0001a5 0000          .field  0,32                    ; _cslNandIdLookup[29]._nandOptions @ 6688
         0001a6 0000 
     279 0001a7 0000+         .field  $C$FSL13,32             ; _cslNandIdLookup[30]._name @ 6720
         0001a8 0088 
     280 0001a9 0000          .field  114,32                  ; _cslNandIdLookup[30]._id @ 6752
         0001aa 0072 
     281 0001ab 0000          .field  512,32                  ; _cslNandIdLookup[30]._bytesPerPage @ 6784
         0001ac 0200 
     282 0001ad 0000          .field  128,32                  ; _cslNandIdLookup[30]._chipSize @ 6816
         0001ae 0080 
     283 0001af 0000          .field  16384,32                        ; _cslNandIdLookup[30]._eraseSize @ 6848
         0001b0 4000 
     284 0001b1 0001          .field  1,16                    ; _cslNandIdLookup[30]._nand8Bit @ 6880
     285 0001b2               .space  16
     286 0001b3 0000          .field  0,32                    ; _cslNandIdLookup[30]._nandOptions @ 6912
         0001b4 0000 
     287 0001b5 0000+         .field  $C$FSL13,32             ; _cslNandIdLookup[31]._name @ 6944
         0001b6 0088 
     288 0001b7 0000          .field  73,32                   ; _cslNandIdLookup[31]._id @ 6976
         0001b8 0049 
     289 0001b9 0000          .field  512,32                  ; _cslNandIdLookup[31]._bytesPerPage @ 7008
         0001ba 0200 
     290 0001bb 0000          .field  128,32                  ; _cslNandIdLookup[31]._chipSize @ 7040
         0001bc 0080 
     291 0001bd 0000          .field  16384,32                        ; _cslNandIdLookup[31]._eraseSize @ 7072
         0001be 4000 
     292 0001bf 0001          .field  1,16                    ; _cslNandIdLookup[31]._nand8Bit @ 7104
     293 0001c0               .space  16
     294 0001c1 0000          .field  0,32                    ; _cslNandIdLookup[31]._nandOptions @ 7136
         0001c2 0000 
     295 0001c3 0000+         .field  $C$FSL13,32             ; _cslNandIdLookup[32]._name @ 7168
         0001c4 0088 
     296 0001c5 0000          .field  116,32                  ; _cslNandIdLookup[32]._id @ 7200
         0001c6 0074 
     297 0001c7 0000          .field  512,32                  ; _cslNandIdLookup[32]._bytesPerPage @ 7232
         0001c8 0200 
     298 0001c9 0000          .field  128,32                  ; _cslNandIdLookup[32]._chipSize @ 7264
TMS320C55x Assembler PC v4.4.1 Sat Sep 29 23:08:57 2018

Tools Copyright (c) 1996-2012 Texas Instruments Incorporated
csl_nand_dma_example.asm                                             PAGE   10

         0001ca 0080 
     299 0001cb 0000          .field  16384,32                        ; _cslNandIdLookup[32]._eraseSize @ 7296
         0001cc 4000 
     300 0001cd 0001          .field  1,16                    ; _cslNandIdLookup[32]._nand8Bit @ 7328
     301 0001ce               .space  16
     302 0001cf 0000          .field  0,32                    ; _cslNandIdLookup[32]._nandOptions @ 7360
         0001d0 0000 
     303 0001d1 0000+         .field  $C$FSL13,32             ; _cslNandIdLookup[33]._name @ 7392
         0001d2 0088 
     304 0001d3 0000          .field  89,32                   ; _cslNandIdLookup[33]._id @ 7424
         0001d4 0059 
     305 0001d5 0000          .field  512,32                  ; _cslNandIdLookup[33]._bytesPerPage @ 7456
         0001d6 0200 
     306 0001d7 0000          .field  128,32                  ; _cslNandIdLookup[33]._chipSize @ 7488
         0001d8 0080 
     307 0001d9 0000          .field  16384,32                        ; _cslNandIdLookup[33]._eraseSize @ 7520
         0001da 4000 
     308 0001db 0001          .field  1,16                    ; _cslNandIdLookup[33]._nand8Bit @ 7552
     309 0001dc               .space  16
     310 0001dd 0000          .field  0,32                    ; _cslNandIdLookup[33]._nandOptions @ 7584
         0001de 0000 
     311 0001df 0000+         .field  $C$FSL14,32             ; _cslNandIdLookup[34]._name @ 7616
         0001e0 0096 
     312 0001e1 0000          .field  113,32                  ; _cslNandIdLookup[34]._id @ 7648
         0001e2 0071 
     313 0001e3 0000          .field  512,32                  ; _cslNandIdLookup[34]._bytesPerPage @ 7680
         0001e4 0200 
     314 0001e5 0000          .field  256,32                  ; _cslNandIdLookup[34]._chipSize @ 7712
         0001e6 0100 
     315 0001e7 0000          .field  16384,32                        ; _cslNandIdLookup[34]._eraseSize @ 7744
         0001e8 4000 
     316 0001e9 0000          .field  0,16                    ; _cslNandIdLookup[34]._nand8Bit @ 7776
     317 0001ea               .space  16
     318 0001eb 0000          .field  0,32                    ; _cslNandIdLookup[34]._nandOptions @ 7808
         0001ec 0000 
     319 0001ed 0000+         .field  $C$FSL10,32             ; _cslNandIdLookup[35]._name @ 7840
         0001ee 0064 
     320 0001ef 0000          .field  162,32                  ; _cslNandIdLookup[35]._id @ 7872
         0001f0 00A2 
     321 0001f1 0000          .field  0,32                    ; _cslNandIdLookup[35]._bytesPerPage @ 7904
         0001f2 0000 
     322 0001f3 0000          .field  64,32                   ; _cslNandIdLookup[35]._chipSize @ 7936
         0001f4 0040 
     323 0001f5 0000          .field  0,32                    ; _cslNandIdLookup[35]._eraseSize @ 7968
         0001f6 0000 
     324 0001f7 0000          .field  0,16                    ; _cslNandIdLookup[35]._nand8Bit @ 8000
     325 0001f8               .space  16
     326 0001f9 0000          .field  0,32                    ; _cslNandIdLookup[35]._nandOptions @ 8032
         0001fa 0000 
     327 0001fb 0000+         .field  $C$FSL10,32             ; _cslNandIdLookup[36]._name @ 8064
         0001fc 0064 
     328 0001fd 0000          .field  242,32                  ; _cslNandIdLookup[36]._id @ 8096
         0001fe 00F2 
     329 0001ff 0000          .field  0,32                    ; _cslNandIdLookup[36]._bytesPerPage @ 8128
         000200 0000 
TMS320C55x Assembler PC v4.4.1 Sat Sep 29 23:08:57 2018

Tools Copyright (c) 1996-2012 Texas Instruments Incorporated
csl_nand_dma_example.asm                                             PAGE   11

     330 000201 0000          .field  64,32                   ; _cslNandIdLookup[36]._chipSize @ 8160
         000202 0040 
     331 000203 0000          .field  0,32                    ; _cslNandIdLookup[36]._eraseSize @ 8192
         000204 0000 
     332 000205 0000          .field  0,16                    ; _cslNandIdLookup[36]._nand8Bit @ 8224
     333 000206               .space  16
     334 000207 0000          .field  0,32                    ; _cslNandIdLookup[36]._nandOptions @ 8256
         000208 0000 
     335 000209 0000+         .field  $C$FSL11,32             ; _cslNandIdLookup[37]._name @ 8288
         00020a 0070 
     336 00020b 0000          .field  178,32                  ; _cslNandIdLookup[37]._id @ 8320
         00020c 00B2 
     337 00020d 0000          .field  0,32                    ; _cslNandIdLookup[37]._bytesPerPage @ 8352
         00020e 0000 
     338 00020f 0000          .field  64,32                   ; _cslNandIdLookup[37]._chipSize @ 8384
         000210 0040 
     339 000211 0000          .field  0,32                    ; _cslNandIdLookup[37]._eraseSize @ 8416
         000212 0000 
     340 000213 0001          .field  1,16                    ; _cslNandIdLookup[37]._nand8Bit @ 8448
     341 000214               .space  16
     342 000215 0000          .field  0,32                    ; _cslNandIdLookup[37]._nandOptions @ 8480
         000216 0000 
     343 000217 0000+         .field  $C$FSL11,32             ; _cslNandIdLookup[38]._name @ 8512
         000218 0070 
     344 000219 0000          .field  194,32                  ; _cslNandIdLookup[38]._id @ 8544
         00021a 00C2 
     345 00021b 0000          .field  0,32                    ; _cslNandIdLookup[38]._bytesPerPage @ 8576
         00021c 0000 
     346 00021d 0000          .field  64,32                   ; _cslNandIdLookup[38]._chipSize @ 8608
         00021e 0040 
     347 00021f 0000          .field  0,32                    ; _cslNandIdLookup[38]._eraseSize @ 8640
         000220 0000 
     348 000221 0001          .field  1,16                    ; _cslNandIdLookup[38]._nand8Bit @ 8672
     349 000222               .space  16
     350 000223 0000          .field  0,32                    ; _cslNandIdLookup[38]._nandOptions @ 8704
         000224 0000 
     351 000225 0000+         .field  $C$FSL12,32             ; _cslNandIdLookup[39]._name @ 8736
         000226 007C 
     352 000227 0000          .field  161,32                  ; _cslNandIdLookup[39]._id @ 8768
         000228 00A1 
     353 000229 0000          .field  0,32                    ; _cslNandIdLookup[39]._bytesPerPage @ 8800
         00022a 0000 
     354 00022b 0000          .field  128,32                  ; _cslNandIdLookup[39]._chipSize @ 8832
         00022c 0080 
     355 00022d 0000          .field  0,32                    ; _cslNandIdLookup[39]._eraseSize @ 8864
         00022e 0000 
     356 00022f 0000          .field  0,16                    ; _cslNandIdLookup[39]._nand8Bit @ 8896
     357 000230               .space  16
     358 000231 0000          .field  15,32                   ; _cslNandIdLookup[39]._nandOptions @ 8928
         000232 000F 
     359 000233 0000+         .field  $C$FSL12,32             ; _cslNandIdLookup[40]._name @ 8960
         000234 007C 
     360 000235 0000          .field  241,32                  ; _cslNandIdLookup[40]._id @ 8992
         000236 00F1 
     361 000237 0000          .field  0,32                    ; _cslNandIdLookup[40]._bytesPerPage @ 9024
TMS320C55x Assembler PC v4.4.1 Sat Sep 29 23:08:57 2018

Tools Copyright (c) 1996-2012 Texas Instruments Incorporated
csl_nand_dma_example.asm                                             PAGE   12

         000238 0000 
     362 000239 0000          .field  128,32                  ; _cslNandIdLookup[40]._chipSize @ 9056
         00023a 0080 
     363 00023b 0000          .field  0,32                    ; _cslNandIdLookup[40]._eraseSize @ 9088
         00023c 0000 
     364 00023d 0000          .field  0,16                    ; _cslNandIdLookup[40]._nand8Bit @ 9120
     365 00023e               .space  16
     366 00023f 0000          .field  15,32                   ; _cslNandIdLookup[40]._nandOptions @ 9152
         000240 000F 
     367 000241 0000+         .field  $C$FSL13,32             ; _cslNandIdLookup[41]._name @ 9184
         000242 0088 
     368 000243 0000          .field  177,32                  ; _cslNandIdLookup[41]._id @ 9216
         000244 00B1 
     369 000245 0000          .field  0,32                    ; _cslNandIdLookup[41]._bytesPerPage @ 9248
         000246 0000 
     370 000247 0000          .field  128,32                  ; _cslNandIdLookup[41]._chipSize @ 9280
         000248 0080 
     371 000249 0000          .field  0,32                    ; _cslNandIdLookup[41]._eraseSize @ 9312
         00024a 0000 
     372 00024b 0001          .field  1,16                    ; _cslNandIdLookup[41]._nand8Bit @ 9344
     373 00024c               .space  16
     374 00024d 0000          .field  15,32                   ; _cslNandIdLookup[41]._nandOptions @ 9376
         00024e 000F 
     375 00024f 0000+         .field  $C$FSL13,32             ; _cslNandIdLookup[42]._name @ 9408
         000250 0088 
     376 000251 0000          .field  193,32                  ; _cslNandIdLookup[42]._id @ 9440
         000252 00C1 
     377 000253 0000          .field  0,32                    ; _cslNandIdLookup[42]._bytesPerPage @ 9472
         000254 0000 
     378 000255 0000          .field  128,32                  ; _cslNandIdLookup[42]._chipSize @ 9504
         000256 0080 
     379 000257 0000          .field  0,32                    ; _cslNandIdLookup[42]._eraseSize @ 9536
         000258 0000 
     380 000259 0001          .field  1,16                    ; _cslNandIdLookup[42]._nand8Bit @ 9568
     381 00025a               .space  16
     382 00025b 0000          .field  15,32                   ; _cslNandIdLookup[42]._nandOptions @ 9600
         00025c 000F 
     383 00025d 0000+         .field  $C$FSL14,32             ; _cslNandIdLookup[43]._name @ 9632
         00025e 0096 
     384 00025f 0000          .field  170,32                  ; _cslNandIdLookup[43]._id @ 9664
         000260 00AA 
     385 000261 0000          .field  0,32                    ; _cslNandIdLookup[43]._bytesPerPage @ 9696
         000262 0000 
     386 000263 0000          .field  256,32                  ; _cslNandIdLookup[43]._chipSize @ 9728
         000264 0100 
     387 000265 0000          .field  0,32                    ; _cslNandIdLookup[43]._eraseSize @ 9760
         000266 0000 
     388 000267 0000          .field  0,16                    ; _cslNandIdLookup[43]._nand8Bit @ 9792
     389 000268               .space  16
     390 000269 0000          .field  15,32                   ; _cslNandIdLookup[43]._nandOptions @ 9824
         00026a 000F 
     391 00026b 0000+         .field  $C$FSL14,32             ; _cslNandIdLookup[44]._name @ 9856
         00026c 0096 
     392 00026d 0000          .field  218,32                  ; _cslNandIdLookup[44]._id @ 9888
         00026e 00DA 
TMS320C55x Assembler PC v4.4.1 Sat Sep 29 23:08:57 2018

Tools Copyright (c) 1996-2012 Texas Instruments Incorporated
csl_nand_dma_example.asm                                             PAGE   13

     393 00026f 0000          .field  0,32                    ; _cslNandIdLookup[44]._bytesPerPage @ 9920
         000270 0000 
     394 000271 0000          .field  256,32                  ; _cslNandIdLookup[44]._chipSize @ 9952
         000272 0100 
     395 000273 0000          .field  0,32                    ; _cslNandIdLookup[44]._eraseSize @ 9984
         000274 0000 
     396 000275 0000          .field  0,16                    ; _cslNandIdLookup[44]._nand8Bit @ 10016
     397 000276               .space  16
     398 000277 0000          .field  15,32                   ; _cslNandIdLookup[44]._nandOptions @ 10048
         000278 000F 
     399 000279 0000+         .field  $C$FSL15,32             ; _cslNandIdLookup[45]._name @ 10080
         00027a 00A2 
     400 00027b 0000          .field  186,32                  ; _cslNandIdLookup[45]._id @ 10112
         00027c 00BA 
     401 00027d 0000          .field  0,32                    ; _cslNandIdLookup[45]._bytesPerPage @ 10144
         00027e 0000 
     402 00027f 0000          .field  256,32                  ; _cslNandIdLookup[45]._chipSize @ 10176
         000280 0100 
     403 000281 0000          .field  0,32                    ; _cslNandIdLookup[45]._eraseSize @ 10208
         000282 0000 
     404 000283 0001          .field  1,16                    ; _cslNandIdLookup[45]._nand8Bit @ 10240
     405 000284               .space  16
     406 000285 0000          .field  15,32                   ; _cslNandIdLookup[45]._nandOptions @ 10272
         000286 000F 
     407 000287 0000+         .field  $C$FSL15,32             ; _cslNandIdLookup[46]._name @ 10304
         000288 00A2 
     408 000289 0000          .field  202,32                  ; _cslNandIdLookup[46]._id @ 10336
         00028a 00CA 
     409 00028b 0000          .field  0,32                    ; _cslNandIdLookup[46]._bytesPerPage @ 10368
         00028c 0000 
     410 00028d 0000          .field  256,32                  ; _cslNandIdLookup[46]._chipSize @ 10400
         00028e 0100 
     411 00028f 0000          .field  0,32                    ; _cslNandIdLookup[46]._eraseSize @ 10432
         000290 0000 
     412 000291 0001          .field  1,16                    ; _cslNandIdLookup[46]._nand8Bit @ 10464
     413 000292               .space  16
     414 000293 0000          .field  15,32                   ; _cslNandIdLookup[46]._nandOptions @ 10496
         000294 000F 
     415 000295 0000+         .field  $C$FSL16,32             ; _cslNandIdLookup[47]._name @ 10528
         000296 00B0 
     416 000297 0000          .field  172,32                  ; _cslNandIdLookup[47]._id @ 10560
         000298 00AC 
     417 000299 0000          .field  0,32                    ; _cslNandIdLookup[47]._bytesPerPage @ 10592
         00029a 0000 
     418 00029b 0000          .field  512,32                  ; _cslNandIdLookup[47]._chipSize @ 10624
         00029c 0200 
     419 00029d 0000          .field  0,32                    ; _cslNandIdLookup[47]._eraseSize @ 10656
         00029e 0000 
     420 00029f 0000          .field  0,16                    ; _cslNandIdLookup[47]._nand8Bit @ 10688
     421 0002a0               .space  16
     422 0002a1 0000          .field  15,32                   ; _cslNandIdLookup[47]._nandOptions @ 10720
         0002a2 000F 
     423 0002a3 0000+         .field  $C$FSL16,32             ; _cslNandIdLookup[48]._name @ 10752
         0002a4 00B0 
     424 0002a5 0000          .field  220,32                  ; _cslNandIdLookup[48]._id @ 10784
TMS320C55x Assembler PC v4.4.1 Sat Sep 29 23:08:57 2018

Tools Copyright (c) 1996-2012 Texas Instruments Incorporated
csl_nand_dma_example.asm                                             PAGE   14

         0002a6 00DC 
     425 0002a7 0000          .field  0,32                    ; _cslNandIdLookup[48]._bytesPerPage @ 10816
         0002a8 0000 
     426 0002a9 0000          .field  512,32                  ; _cslNandIdLookup[48]._chipSize @ 10848
         0002aa 0200 
     427 0002ab 0000          .field  0,32                    ; _cslNandIdLookup[48]._eraseSize @ 10880
         0002ac 0000 
     428 0002ad 0000          .field  0,16                    ; _cslNandIdLookup[48]._nand8Bit @ 10912
     429 0002ae               .space  16
     430 0002af 0000          .field  15,32                   ; _cslNandIdLookup[48]._nandOptions @ 10944
         0002b0 000F 
     431 0002b1 0000+         .field  $C$FSL17,32             ; _cslNandIdLookup[49]._name @ 10976
         0002b2 00BC 
     432 0002b3 0000          .field  188,32                  ; _cslNandIdLookup[49]._id @ 11008
         0002b4 00BC 
     433 0002b5 0000          .field  0,32                    ; _cslNandIdLookup[49]._bytesPerPage @ 11040
         0002b6 0000 
     434 0002b7 0000          .field  512,32                  ; _cslNandIdLookup[49]._chipSize @ 11072
         0002b8 0200 
     435 0002b9 0000          .field  0,32                    ; _cslNandIdLookup[49]._eraseSize @ 11104
         0002ba 0000 
     436 0002bb 0001          .field  1,16                    ; _cslNandIdLookup[49]._nand8Bit @ 11136
     437 0002bc               .space  16
     438 0002bd 0000          .field  15,32                   ; _cslNandIdLookup[49]._nandOptions @ 11168
         0002be 000F 
     439 0002bf 0000+         .field  $C$FSL17,32             ; _cslNandIdLookup[50]._name @ 11200
         0002c0 00BC 
     440 0002c1 0000          .field  204,32                  ; _cslNandIdLookup[50]._id @ 11232
         0002c2 00CC 
     441 0002c3 0000          .field  0,32                    ; _cslNandIdLookup[50]._bytesPerPage @ 11264
         0002c4 0000 
     442 0002c5 0000          .field  512,32                  ; _cslNandIdLookup[50]._chipSize @ 11296
         0002c6 0200 
     443 0002c7 0000          .field  0,32                    ; _cslNandIdLookup[50]._eraseSize @ 11328
         0002c8 0000 
     444 0002c9 0001          .field  1,16                    ; _cslNandIdLookup[50]._nand8Bit @ 11360
     445 0002ca               .space  16
     446 0002cb 0000          .field  15,32                   ; _cslNandIdLookup[50]._nandOptions @ 11392
         0002cc 000F 
     447 0002cd 0000+         .field  $C$FSL18,32             ; _cslNandIdLookup[51]._name @ 11424
         0002ce 00CA 
     448 0002cf 0000          .field  163,32                  ; _cslNandIdLookup[51]._id @ 11456
         0002d0 00A3 
     449 0002d1 0000          .field  0,32                    ; _cslNandIdLookup[51]._bytesPerPage @ 11488
         0002d2 0000 
     450 0002d3 0000          .field  1024,32                 ; _cslNandIdLookup[51]._chipSize @ 11520
         0002d4 0400 
     451 0002d5 0000          .field  0,32                    ; _cslNandIdLookup[51]._eraseSize @ 11552
         0002d6 0000 
     452 0002d7 0000          .field  0,16                    ; _cslNandIdLookup[51]._nand8Bit @ 11584
     453 0002d8               .space  16
     454 0002d9 0000          .field  15,32                   ; _cslNandIdLookup[51]._nandOptions @ 11616
         0002da 000F 
     455 0002db 0000+         .field  $C$FSL18,32             ; _cslNandIdLookup[52]._name @ 11648
         0002dc 00CA 
TMS320C55x Assembler PC v4.4.1 Sat Sep 29 23:08:57 2018

Tools Copyright (c) 1996-2012 Texas Instruments Incorporated
csl_nand_dma_example.asm                                             PAGE   15

     456 0002dd 0000          .field  211,32                  ; _cslNandIdLookup[52]._id @ 11680
         0002de 00D3 
     457 0002df 0000          .field  0,32                    ; _cslNandIdLookup[52]._bytesPerPage @ 11712
         0002e0 0000 
     458 0002e1 0000          .field  1024,32                 ; _cslNandIdLookup[52]._chipSize @ 11744
         0002e2 0400 
     459 0002e3 0000          .field  0,32                    ; _cslNandIdLookup[52]._eraseSize @ 11776
         0002e4 0000 
     460 0002e5 0000          .field  0,16                    ; _cslNandIdLookup[52]._nand8Bit @ 11808
     461 0002e6               .space  16
     462 0002e7 0000          .field  31,32                   ; _cslNandIdLookup[52]._nandOptions @ 11840
         0002e8 001F 
     463 0002e9 0000+         .field  $C$FSL19,32             ; _cslNandIdLookup[53]._name @ 11872
         0002ea 00D4 
     464 0002eb 0000          .field  179,32                  ; _cslNandIdLookup[53]._id @ 11904
         0002ec 00B3 
     465 0002ed 0000          .field  0,32                    ; _cslNandIdLookup[53]._bytesPerPage @ 11936
         0002ee 0000 
     466 0002ef 0000          .field  1024,32                 ; _cslNandIdLookup[53]._chipSize @ 11968
         0002f0 0400 
     467 0002f1 0000          .field  0,32                    ; _cslNandIdLookup[53]._eraseSize @ 12000
         0002f2 0000 
     468 0002f3 0001          .field  1,16                    ; _cslNandIdLookup[53]._nand8Bit @ 12032
     469 0002f4               .space  16
     470 0002f5 0000          .field  15,32                   ; _cslNandIdLookup[53]._nandOptions @ 12064
         0002f6 000F 
     471 0002f7 0000+         .field  $C$FSL19,32             ; _cslNandIdLookup[54]._name @ 12096
         0002f8 00D4 
     472 0002f9 0000          .field  195,32                  ; _cslNandIdLookup[54]._id @ 12128
         0002fa 00C3 
     473 0002fb 0000          .field  0,32                    ; _cslNandIdLookup[54]._bytesPerPage @ 12160
         0002fc 0000 
     474 0002fd 0000          .field  1024,32                 ; _cslNandIdLookup[54]._chipSize @ 12192
         0002fe 0400 
     475 0002ff 0000          .field  0,32                    ; _cslNandIdLookup[54]._eraseSize @ 12224
         000300 0000 
     476 000301 0001          .field  1,16                    ; _cslNandIdLookup[54]._nand8Bit @ 12256
     477 000302               .space  16
     478 000303 0000          .field  15,32                   ; _cslNandIdLookup[54]._nandOptions @ 12288
         000304 000F 
     479 000305 0000+         .field  $C$FSL20,32             ; _cslNandIdLookup[55]._name @ 12320
         000306 00E0 
     480 000307 0000          .field  165,32                  ; _cslNandIdLookup[55]._id @ 12352
         000308 00A5 
     481 000309 0000          .field  0,32                    ; _cslNandIdLookup[55]._bytesPerPage @ 12384
         00030a 0000 
     482 00030b 0000          .field  2048,32                 ; _cslNandIdLookup[55]._chipSize @ 12416
         00030c 0800 
     483 00030d 0000          .field  0,32                    ; _cslNandIdLookup[55]._eraseSize @ 12448
         00030e 0000 
     484 00030f 0000          .field  0,16                    ; _cslNandIdLookup[55]._nand8Bit @ 12480
     485 000310               .space  16
     486 000311 0000          .field  15,32                   ; _cslNandIdLookup[55]._nandOptions @ 12512
         000312 000F 
     487 000313 0000+         .field  $C$FSL20,32             ; _cslNandIdLookup[56]._name @ 12544
TMS320C55x Assembler PC v4.4.1 Sat Sep 29 23:08:57 2018

Tools Copyright (c) 1996-2012 Texas Instruments Incorporated
csl_nand_dma_example.asm                                             PAGE   16

         000314 00E0 
     488 000315 0000          .field  213,32                  ; _cslNandIdLookup[56]._id @ 12576
         000316 00D5 
     489 000317 0000          .field  0,32                    ; _cslNandIdLookup[56]._bytesPerPage @ 12608
         000318 0000 
     490 000319 0000          .field  2048,32                 ; _cslNandIdLookup[56]._chipSize @ 12640
         00031a 0800 
     491 00031b 0000          .field  0,32                    ; _cslNandIdLookup[56]._eraseSize @ 12672
         00031c 0000 
     492 00031d 0000          .field  0,16                    ; _cslNandIdLookup[56]._nand8Bit @ 12704
     493 00031e               .space  16
     494 00031f 0000          .field  15,32                   ; _cslNandIdLookup[56]._nandOptions @ 12736
         000320 000F 
     495 000321 0000+         .field  $C$FSL21,32             ; _cslNandIdLookup[57]._name @ 12768
         000322 00EA 
     496 000323 0000          .field  181,32                  ; _cslNandIdLookup[57]._id @ 12800
         000324 00B5 
     497 000325 0000          .field  0,32                    ; _cslNandIdLookup[57]._bytesPerPage @ 12832
         000326 0000 
     498 000327 0000          .field  2048,32                 ; _cslNandIdLookup[57]._chipSize @ 12864
         000328 0800 
     499 000329 0000          .field  0,32                    ; _cslNandIdLookup[57]._eraseSize @ 12896
         00032a 0000 
     500 00032b 0001          .field  1,16                    ; _cslNandIdLookup[57]._nand8Bit @ 12928
     501 00032c               .space  16
     502 00032d 0000          .field  15,32                   ; _cslNandIdLookup[57]._nandOptions @ 12960
         00032e 000F 
     503 00032f 0000+         .field  $C$FSL21,32             ; _cslNandIdLookup[58]._name @ 12992
         000330 00EA 
     504 000331 0000          .field  197,32                  ; _cslNandIdLookup[58]._id @ 13024
         000332 00C5 
     505 000333 0000          .field  0,32                    ; _cslNandIdLookup[58]._bytesPerPage @ 13056
         000334 0000 
     506 000335 0000          .field  2048,32                 ; _cslNandIdLookup[58]._chipSize @ 13088
         000336 0800 
     507 000337 0000          .field  0,32                    ; _cslNandIdLookup[58]._eraseSize @ 13120
         000338 0000 
     508 000339 0001          .field  1,16                    ; _cslNandIdLookup[58]._nand8Bit @ 13152
     509 00033a               .space  16
     510 00033b 0000          .field  15,32                   ; _cslNandIdLookup[58]._nandOptions @ 13184
         00033c 000F 
     511 00033d 0000          .field  0,32                    ; _cslNandIdLookup[59]._name @ 13216
         00033e 0000 
     512              $C$IR_1:        .set    828
     513              
     514 00033f               .sect   ".cinit"
     515                      .align  1
     516 00033f 0001          .field          1,16
     517 000340 000B-         .field          _gNandType+0,24
         000341 6C00 
     518 000341 6C00          .field          0,8
     519 000342 0000          .field  0,16                    ; _gNandType @ 0
     520              
     521 000343               .sect   ".cinit"
     522                      .align  1
TMS320C55x Assembler PC v4.4.1 Sat Sep 29 23:08:57 2018

Tools Copyright (c) 1996-2012 Texas Instruments Incorporated
csl_nand_dma_example.asm                                             PAGE   17

     523 000343 0001          .field          1,16
     524 000344 000B-         .field          _gDevIndex+0,24
         000345 6D00 
     525 000345 6D00          .field          0,8
     526 000346 0000          .field  0,16                    ; _gDevIndex @ 0
     527              
     528 000347               .sect   ".cinit"
     529                      .align  1
     530 000347 0001          .field          1,16
     531 000348 000B-         .field          _gNandPageSize+0,24
         000349 6E00 
     532 000349 6E00          .field          0,8
     533 00034a 0000          .field  0,16                    ; _gNandPageSize @ 0
     534              
     535 00034b               .sect   ".cinit"
     536                      .align  1
     537 00034b 0001          .field          1,16
     538 00034c 000B-         .field          _gRowAddrCycles+0,24
         00034d 6F00 
     539 00034d 6F00          .field          0,8
     540 00034e 0000          .field  0,16                    ; _gRowAddrCycles @ 0
     541              
     542 00034f               .sect   ".cinit"
     543                      .align  1
     544 00034f 0001          .field          1,16
     545 000350 000B-         .field          _gColAddrCycles+0,24
         000351 7000 
     546 000351 7000          .field          0,8
     547 000352 0000          .field  0,16                    ; _gColAddrCycles @ 0
     548              
     549 000353               .sect   ".cinit"
     550                      .align  1
     551 000353 0002          .field          2,16
     552 000354 000B-         .field          _gTotalPages+0,24
         000355 7200 
     553 000355 7200          .field          0,8
     554 000356 0000          .field  0,32                    ; _gTotalPages @ 0
         000357 0000 
     555              
     556 000358               .sect   ".cinit"
     557                      .align  1
     558 000358 0002          .field          2,16
     559 000359 000B-         .field          _gRowAddress+0,24
         00035a 7400 
     560 00035a 7400          .field          0,8
     561 00035b 0000          .field  64,32                   ; _gRowAddress @ 0
         00035c 0040 
     562              
     563 00035d               .sect   ".cinit"
     564                      .align  1
     565 00035d 0001          .field          1,16
     566 00035e 000B-         .field          _PaSs_StAtE+0,24
         00035f 7100 
     567 00035f 7100          .field          0,8
     568 000360 0001          .field  1,16                    ; _PaSs_StAtE @ 0
TMS320C55x Assembler PC v4.4.1 Sat Sep 29 23:08:57 2018

Tools Copyright (c) 1996-2012 Texas Instruments Incorporated
csl_nand_dma_example.asm                                             PAGE   18

     569              
     570 000361               .sect   ".cinit"
     571                      .align  1
     572 000361 0001          .field          1,16
     573 000362 000B-         .field          _PaSs+0,24
         000363 7600 
     574 000363 7600          .field          0,8
     575 000364 0000          .field  0,16                    ; _PaSs @ 0
     576              
     577              
     578              $C$DW$1 .dwtag  DW_TAG_subprogram, DW_AT_name("NAND_init")
     579                      .dwattr $C$DW$1, DW_AT_TI_symbol_name("_NAND_init")
     580                      .dwattr $C$DW$1, DW_AT_type(*$C$DW$T$107)
     581                      .dwattr $C$DW$1, DW_AT_declaration
     582                      .dwattr $C$DW$1, DW_AT_external
     583              $C$DW$2 .dwtag  DW_TAG_formal_parameter
     584                      .dwattr $C$DW$2, DW_AT_type(*$C$DW$T$122)
     585              $C$DW$3 .dwtag  DW_TAG_formal_parameter
     586                      .dwattr $C$DW$3, DW_AT_type(*$C$DW$T$19)
     587                      .dwendtag $C$DW$1
     588              
     589              
     590              $C$DW$4 .dwtag  DW_TAG_subprogram, DW_AT_name("NAND_setup")
     591                      .dwattr $C$DW$4, DW_AT_TI_symbol_name("_NAND_setup")
     592                      .dwattr $C$DW$4, DW_AT_type(*$C$DW$T$107)
     593                      .dwattr $C$DW$4, DW_AT_declaration
     594                      .dwattr $C$DW$4, DW_AT_external
     595              $C$DW$5 .dwtag  DW_TAG_formal_parameter
     596                      .dwattr $C$DW$5, DW_AT_type(*$C$DW$T$123)
     597              $C$DW$6 .dwtag  DW_TAG_formal_parameter
     598                      .dwattr $C$DW$6, DW_AT_type(*$C$DW$T$120)
     599                      .dwendtag $C$DW$4
     600              
     601              
     602              $C$DW$7 .dwtag  DW_TAG_subprogram, DW_AT_name("NAND_getBankInfo")
     603                      .dwattr $C$DW$7, DW_AT_TI_symbol_name("_NAND_getBankInfo")
     604                      .dwattr $C$DW$7, DW_AT_type(*$C$DW$T$107)
     605                      .dwattr $C$DW$7, DW_AT_declaration
     606                      .dwattr $C$DW$7, DW_AT_external
     607              $C$DW$8 .dwtag  DW_TAG_formal_parameter
     608                      .dwattr $C$DW$8, DW_AT_type(*$C$DW$T$123)
     609              $C$DW$9 .dwtag  DW_TAG_formal_parameter
     610                      .dwattr $C$DW$9, DW_AT_type(*$C$DW$T$118)
     611              $C$DW$10        .dwtag  DW_TAG_formal_parameter
     612                      .dwattr $C$DW$10, DW_AT_type(*$C$DW$T$19)
     613                      .dwendtag $C$DW$7
     614              
     615              
     616              $C$DW$11        .dwtag  DW_TAG_subprogram, DW_AT_name("NAND_isStatusWriteProtected")
     617                      .dwattr $C$DW$11, DW_AT_TI_symbol_name("_NAND_isStatusWriteProtected")
     618                      .dwattr $C$DW$11, DW_AT_type(*$C$DW$T$107)
     619                      .dwattr $C$DW$11, DW_AT_declaration
     620                      .dwattr $C$DW$11, DW_AT_external
     621              $C$DW$12        .dwtag  DW_TAG_formal_parameter
     622                      .dwattr $C$DW$12, DW_AT_type(*$C$DW$T$123)
TMS320C55x Assembler PC v4.4.1 Sat Sep 29 23:08:57 2018

Tools Copyright (c) 1996-2012 Texas Instruments Incorporated
csl_nand_dma_example.asm                                             PAGE   19

     623              $C$DW$13        .dwtag  DW_TAG_formal_parameter
     624                      .dwattr $C$DW$13, DW_AT_type(*$C$DW$T$134)
     625                      .dwendtag $C$DW$11
     626              
     627              
     628              $C$DW$14        .dwtag  DW_TAG_subprogram, DW_AT_name("NAND_sendCommand")
     629                      .dwattr $C$DW$14, DW_AT_TI_symbol_name("_NAND_sendCommand")
     630                      .dwattr $C$DW$14, DW_AT_type(*$C$DW$T$107)
     631                      .dwattr $C$DW$14, DW_AT_declaration
     632                      .dwattr $C$DW$14, DW_AT_external
     633              $C$DW$15        .dwtag  DW_TAG_formal_parameter
     634                      .dwattr $C$DW$15, DW_AT_type(*$C$DW$T$123)
     635              $C$DW$16        .dwtag  DW_TAG_formal_parameter
     636                      .dwattr $C$DW$16, DW_AT_type(*$C$DW$T$138)
     637                      .dwendtag $C$DW$14
     638              
     639              
     640              $C$DW$17        .dwtag  DW_TAG_subprogram, DW_AT_name("NAND_checkCommandStatus")
     641                      .dwattr $C$DW$17, DW_AT_TI_symbol_name("_NAND_checkCommandStatus")
     642                      .dwattr $C$DW$17, DW_AT_type(*$C$DW$T$107)
     643                      .dwattr $C$DW$17, DW_AT_declaration
     644                      .dwattr $C$DW$17, DW_AT_external
     645              $C$DW$18        .dwtag  DW_TAG_formal_parameter
     646                      .dwattr $C$DW$18, DW_AT_type(*$C$DW$T$123)
     647                      .dwendtag $C$DW$17
     648              
     649              
     650              $C$DW$19        .dwtag  DW_TAG_subprogram, DW_AT_name("NAND_setAddress")
     651                      .dwattr $C$DW$19, DW_AT_TI_symbol_name("_NAND_setAddress")
     652                      .dwattr $C$DW$19, DW_AT_type(*$C$DW$T$107)
     653                      .dwattr $C$DW$19, DW_AT_declaration
     654                      .dwattr $C$DW$19, DW_AT_external
     655              $C$DW$20        .dwtag  DW_TAG_formal_parameter
     656                      .dwattr $C$DW$20, DW_AT_type(*$C$DW$T$123)
     657              $C$DW$21        .dwtag  DW_TAG_formal_parameter
     658                      .dwattr $C$DW$21, DW_AT_type(*$C$DW$T$19)
     659                      .dwendtag $C$DW$19
     660              
     661              
     662              $C$DW$22        .dwtag  DW_TAG_subprogram, DW_AT_name("NAND_enableHwECC")
     663                      .dwattr $C$DW$22, DW_AT_TI_symbol_name("_NAND_enableHwECC")
     664                      .dwattr $C$DW$22, DW_AT_type(*$C$DW$T$107)
     665                      .dwattr $C$DW$22, DW_AT_declaration
     666                      .dwattr $C$DW$22, DW_AT_external
     667              $C$DW$23        .dwtag  DW_TAG_formal_parameter
     668                      .dwattr $C$DW$23, DW_AT_type(*$C$DW$T$123)
     669              $C$DW$24        .dwtag  DW_TAG_formal_parameter
     670                      .dwattr $C$DW$24, DW_AT_type(*$C$DW$T$85)
     671                      .dwendtag $C$DW$22
     672              
     673              
     674              $C$DW$25        .dwtag  DW_TAG_subprogram, DW_AT_name("NAND_disableHwECC")
     675                      .dwattr $C$DW$25, DW_AT_TI_symbol_name("_NAND_disableHwECC")
     676                      .dwattr $C$DW$25, DW_AT_type(*$C$DW$T$107)
     677                      .dwattr $C$DW$25, DW_AT_declaration
TMS320C55x Assembler PC v4.4.1 Sat Sep 29 23:08:57 2018

Tools Copyright (c) 1996-2012 Texas Instruments Incorporated
csl_nand_dma_example.asm                                             PAGE   20

     678                      .dwattr $C$DW$25, DW_AT_external
     679              $C$DW$26        .dwtag  DW_TAG_formal_parameter
     680                      .dwattr $C$DW$26, DW_AT_type(*$C$DW$T$123)
     681              $C$DW$27        .dwtag  DW_TAG_formal_parameter
     682                      .dwattr $C$DW$27, DW_AT_type(*$C$DW$T$85)
     683                      .dwendtag $C$DW$25
     684              
     685              
     686              $C$DW$28        .dwtag  DW_TAG_subprogram, DW_AT_name("NAND_readECC")
     687                      .dwattr $C$DW$28, DW_AT_TI_symbol_name("_NAND_readECC")
     688                      .dwattr $C$DW$28, DW_AT_type(*$C$DW$T$107)
     689                      .dwattr $C$DW$28, DW_AT_declaration
     690                      .dwattr $C$DW$28, DW_AT_external
     691              $C$DW$29        .dwtag  DW_TAG_formal_parameter
     692                      .dwattr $C$DW$29, DW_AT_type(*$C$DW$T$123)
     693              $C$DW$30        .dwtag  DW_TAG_formal_parameter
     694                      .dwattr $C$DW$30, DW_AT_type(*$C$DW$T$134)
     695              $C$DW$31        .dwtag  DW_TAG_formal_parameter
     696                      .dwattr $C$DW$31, DW_AT_type(*$C$DW$T$85)
     697                      .dwendtag $C$DW$28
     698              
     699              
     700              $C$DW$32        .dwtag  DW_TAG_subprogram, DW_AT_name("DMA_init")
     701                      .dwattr $C$DW$32, DW_AT_TI_symbol_name("_DMA_init")
     702                      .dwattr $C$DW$32, DW_AT_type(*$C$DW$T$107)
     703                      .dwattr $C$DW$32, DW_AT_declaration
     704                      .dwattr $C$DW$32, DW_AT_external
     705              
     706              $C$DW$33        .dwtag  DW_TAG_subprogram, DW_AT_name("DMA_open")
     707                      .dwattr $C$DW$33, DW_AT_TI_symbol_name("_DMA_open")
     708                      .dwattr $C$DW$33, DW_AT_type(*$C$DW$T$105)
     709                      .dwattr $C$DW$33, DW_AT_declaration
     710                      .dwattr $C$DW$33, DW_AT_external
     711              $C$DW$34        .dwtag  DW_TAG_formal_parameter
     712                      .dwattr $C$DW$34, DW_AT_type(*$C$DW$T$38)
     713              $C$DW$35        .dwtag  DW_TAG_formal_parameter
     714                      .dwattr $C$DW$35, DW_AT_type(*$C$DW$T$104)
     715              $C$DW$36        .dwtag  DW_TAG_formal_parameter
     716                      .dwattr $C$DW$36, DW_AT_type(*$C$DW$T$108)
     717                      .dwendtag $C$DW$33
     718              
     719              
     720              $C$DW$37        .dwtag  DW_TAG_subprogram, DW_AT_name("DMA_config")
     721                      .dwattr $C$DW$37, DW_AT_TI_symbol_name("_DMA_config")
     722                      .dwattr $C$DW$37, DW_AT_type(*$C$DW$T$107)
     723                      .dwattr $C$DW$37, DW_AT_declaration
     724                      .dwattr $C$DW$37, DW_AT_external
     725              $C$DW$38        .dwtag  DW_TAG_formal_parameter
     726                      .dwattr $C$DW$38, DW_AT_type(*$C$DW$T$105)
     727              $C$DW$39        .dwtag  DW_TAG_formal_parameter
     728                      .dwattr $C$DW$39, DW_AT_type(*$C$DW$T$114)
     729                      .dwendtag $C$DW$37
     730              
     731              
     732              $C$DW$40        .dwtag  DW_TAG_subprogram, DW_AT_name("DMA_start")
TMS320C55x Assembler PC v4.4.1 Sat Sep 29 23:08:57 2018

Tools Copyright (c) 1996-2012 Texas Instruments Incorporated
csl_nand_dma_example.asm                                             PAGE   21

     733                      .dwattr $C$DW$40, DW_AT_TI_symbol_name("_DMA_start")
     734                      .dwattr $C$DW$40, DW_AT_type(*$C$DW$T$107)
     735                      .dwattr $C$DW$40, DW_AT_declaration
     736                      .dwattr $C$DW$40, DW_AT_external
     737              $C$DW$41        .dwtag  DW_TAG_formal_parameter
     738                      .dwattr $C$DW$41, DW_AT_type(*$C$DW$T$105)
     739                      .dwendtag $C$DW$40
     740              
     741              
     742              $C$DW$42        .dwtag  DW_TAG_subprogram, DW_AT_name("printf")
     743                      .dwattr $C$DW$42, DW_AT_TI_symbol_name("_printf")
     744                      .dwattr $C$DW$42, DW_AT_type(*$C$DW$T$10)
     745                      .dwattr $C$DW$42, DW_AT_declaration
     746                      .dwattr $C$DW$42, DW_AT_external
     747              $C$DW$43        .dwtag  DW_TAG_formal_parameter
     748                      .dwattr $C$DW$43, DW_AT_type(*$C$DW$T$167)
     749              $C$DW$44        .dwtag  DW_TAG_unspecified_parameters
     750                      .dwendtag $C$DW$42
     751              
     752                      .global _gnandDmaReadBuf
     753 000000               .bss    _gnandDmaReadBuf,1024,0,4
     754              $C$DW$45        .dwtag  DW_TAG_variable, DW_AT_name("gnandDmaReadBuf")
     755                      .dwattr $C$DW$45, DW_AT_TI_symbol_name("_gnandDmaReadBuf")
     756                      .dwattr $C$DW$45, DW_AT_location[DW_OP_addr _gnandDmaReadBuf]
     757                      .dwattr $C$DW$45, DW_AT_type(*$C$DW$T$157)
     758                      .dwattr $C$DW$45, DW_AT_external
     759                      .global _gnandDmaWriteBuf
     760 000400               .bss    _gnandDmaWriteBuf,1024,0,4
     761              $C$DW$46        .dwtag  DW_TAG_variable, DW_AT_name("gnandDmaWriteBuf")
     762                      .dwattr $C$DW$46, DW_AT_TI_symbol_name("_gnandDmaWriteBuf")
     763                      .dwattr $C$DW$46, DW_AT_location[DW_OP_addr _gnandDmaWriteBuf]
     764                      .dwattr $C$DW$46, DW_AT_type(*$C$DW$T$157)
     765                      .dwattr $C$DW$46, DW_AT_external
     766                      .global _dmaWrHandle
     767 000800               .bss    _dmaWrHandle,2,0,2
     768              $C$DW$47        .dwtag  DW_TAG_variable, DW_AT_name("dmaWrHandle")
     769                      .dwattr $C$DW$47, DW_AT_TI_symbol_name("_dmaWrHandle")
     770                      .dwattr $C$DW$47, DW_AT_location[DW_OP_addr _dmaWrHandle]
     771                      .dwattr $C$DW$47, DW_AT_type(*$C$DW$T$105)
     772                      .dwattr $C$DW$47, DW_AT_external
     773                      .global _dmaRdHandle
     774 000802               .bss    _dmaRdHandle,2,0,2
     775              $C$DW$48        .dwtag  DW_TAG_variable, DW_AT_name("dmaRdHandle")
     776                      .dwattr $C$DW$48, DW_AT_TI_symbol_name("_dmaRdHandle")
     777                      .dwattr $C$DW$48, DW_AT_location[DW_OP_addr _dmaRdHandle]
     778                      .dwattr $C$DW$48, DW_AT_type(*$C$DW$T$105)
     779                      .dwattr $C$DW$48, DW_AT_external
     780                      .global _dmaConfig
     781 000804               .bss    _dmaConfig,14,0,2
     782              $C$DW$49        .dwtag  DW_TAG_variable, DW_AT_name("dmaConfig")
     783                      .dwattr $C$DW$49, DW_AT_TI_symbol_name("_dmaConfig")
     784                      .dwattr $C$DW$49, DW_AT_location[DW_OP_addr _dmaConfig]
     785                      .dwattr $C$DW$49, DW_AT_type(*$C$DW$T$113)
     786                      .dwattr $C$DW$49, DW_AT_external
     787                      .global _dmaWrChanObj
TMS320C55x Assembler PC v4.4.1 Sat Sep 29 23:08:57 2018

Tools Copyright (c) 1996-2012 Texas Instruments Incorporated
csl_nand_dma_example.asm                                             PAGE   22

     788 000812               .bss    _dmaWrChanObj,9,0,0
     789              $C$DW$50        .dwtag  DW_TAG_variable, DW_AT_name("dmaWrChanObj")
     790                      .dwattr $C$DW$50, DW_AT_TI_symbol_name("_dmaWrChanObj")
     791                      .dwattr $C$DW$50, DW_AT_location[DW_OP_addr _dmaWrChanObj]
     792                      .dwattr $C$DW$50, DW_AT_type(*$C$DW$T$103)
     793                      .dwattr $C$DW$50, DW_AT_external
     794                      .global _dmaRdChanObj
     795 00081b               .bss    _dmaRdChanObj,9,0,0
     796              $C$DW$51        .dwtag  DW_TAG_variable, DW_AT_name("dmaRdChanObj")
     797                      .dwattr $C$DW$51, DW_AT_TI_symbol_name("_dmaRdChanObj")
     798                      .dwattr $C$DW$51, DW_AT_location[DW_OP_addr _dmaRdChanObj]
     799                      .dwattr $C$DW$51, DW_AT_type(*$C$DW$T$103)
     800                      .dwattr $C$DW$51, DW_AT_external
     801                      .global _cslNandIdLookup
     802 000824               .bss    _cslNandIdLookup,840,0,2
     803              $C$DW$52        .dwtag  DW_TAG_variable, DW_AT_name("cslNandIdLookup")
     804                      .dwattr $C$DW$52, DW_AT_TI_symbol_name("_cslNandIdLookup")
     805                      .dwattr $C$DW$52, DW_AT_location[DW_OP_addr _cslNandIdLookup]
     806                      .dwattr $C$DW$52, DW_AT_type(*$C$DW$T$116)
     807                      .dwattr $C$DW$52, DW_AT_external
     808                      .global _gNandType
     809 000b6c               .bss    _gNandType,1,0,0
     810              $C$DW$53        .dwtag  DW_TAG_variable, DW_AT_name("gNandType")
     811                      .dwattr $C$DW$53, DW_AT_TI_symbol_name("_gNandType")
     812                      .dwattr $C$DW$53, DW_AT_location[DW_OP_addr _gNandType]
     813                      .dwattr $C$DW$53, DW_AT_type(*$C$DW$T$41)
     814                      .dwattr $C$DW$53, DW_AT_external
     815                      .global _gDevIndex
     816 000b6d               .bss    _gDevIndex,1,0,0
     817              $C$DW$54        .dwtag  DW_TAG_variable, DW_AT_name("gDevIndex")
     818                      .dwattr $C$DW$54, DW_AT_TI_symbol_name("_gDevIndex")
     819                      .dwattr $C$DW$54, DW_AT_location[DW_OP_addr _gDevIndex]
     820                      .dwattr $C$DW$54, DW_AT_type(*$C$DW$T$19)
     821                      .dwattr $C$DW$54, DW_AT_external
     822                      .global _gNandPageSize
     823 000b6e               .bss    _gNandPageSize,1,0,0
     824              $C$DW$55        .dwtag  DW_TAG_variable, DW_AT_name("gNandPageSize")
     825                      .dwattr $C$DW$55, DW_AT_TI_symbol_name("_gNandPageSize")
     826                      .dwattr $C$DW$55, DW_AT_location[DW_OP_addr _gNandPageSize]
     827                      .dwattr $C$DW$55, DW_AT_type(*$C$DW$T$19)
     828                      .dwattr $C$DW$55, DW_AT_external
     829                      .global _gRowAddrCycles
     830 000b6f               .bss    _gRowAddrCycles,1,0,0
     831              $C$DW$56        .dwtag  DW_TAG_variable, DW_AT_name("gRowAddrCycles")
     832                      .dwattr $C$DW$56, DW_AT_TI_symbol_name("_gRowAddrCycles")
     833                      .dwattr $C$DW$56, DW_AT_location[DW_OP_addr _gRowAddrCycles]
     834                      .dwattr $C$DW$56, DW_AT_type(*$C$DW$T$19)
     835                      .dwattr $C$DW$56, DW_AT_external
     836                      .global _gColAddrCycles
     837 000b70               .bss    _gColAddrCycles,1,0,0
     838              $C$DW$57        .dwtag  DW_TAG_variable, DW_AT_name("gColAddrCycles")
     839                      .dwattr $C$DW$57, DW_AT_TI_symbol_name("_gColAddrCycles")
     840                      .dwattr $C$DW$57, DW_AT_location[DW_OP_addr _gColAddrCycles]
     841                      .dwattr $C$DW$57, DW_AT_type(*$C$DW$T$19)
     842                      .dwattr $C$DW$57, DW_AT_external
TMS320C55x Assembler PC v4.4.1 Sat Sep 29 23:08:57 2018

Tools Copyright (c) 1996-2012 Texas Instruments Incorporated
csl_nand_dma_example.asm                                             PAGE   23

     843                      .global _gTotalPages
     844 000b72               .bss    _gTotalPages,2,0,2
     845              $C$DW$58        .dwtag  DW_TAG_variable, DW_AT_name("gTotalPages")
     846                      .dwattr $C$DW$58, DW_AT_TI_symbol_name("_gTotalPages")
     847                      .dwattr $C$DW$58, DW_AT_location[DW_OP_addr _gTotalPages]
     848                      .dwattr $C$DW$58, DW_AT_type(*$C$DW$T$59)
     849                      .dwattr $C$DW$58, DW_AT_external
     850                      .global _gRowAddress
     851 000b74               .bss    _gRowAddress,2,0,2
     852              $C$DW$59        .dwtag  DW_TAG_variable, DW_AT_name("gRowAddress")
     853                      .dwattr $C$DW$59, DW_AT_TI_symbol_name("_gRowAddress")
     854                      .dwattr $C$DW$59, DW_AT_location[DW_OP_addr _gRowAddress]
     855                      .dwattr $C$DW$59, DW_AT_type(*$C$DW$T$59)
     856                      .dwattr $C$DW$59, DW_AT_external
     857                      .global _PaSs_StAtE
     858 000b71               .bss    _PaSs_StAtE,1,0,0
     859              $C$DW$60        .dwtag  DW_TAG_variable, DW_AT_name("PaSs_StAtE")
     860                      .dwattr $C$DW$60, DW_AT_TI_symbol_name("_PaSs_StAtE")
     861                      .dwattr $C$DW$60, DW_AT_location[DW_OP_addr _PaSs_StAtE]
     862                      .dwattr $C$DW$60, DW_AT_type(*$C$DW$T$155)
     863                      .dwattr $C$DW$60, DW_AT_external
     864                      .global _PaSs
     865 000b76               .bss    _PaSs,1,0,0
     866              $C$DW$61        .dwtag  DW_TAG_variable, DW_AT_name("PaSs")
     867                      .dwattr $C$DW$61, DW_AT_TI_symbol_name("_PaSs")
     868                      .dwattr $C$DW$61, DW_AT_location[DW_OP_addr _PaSs]
     869                      .dwattr $C$DW$61, DW_AT_type(*$C$DW$T$155)
     870                      .dwattr $C$DW$61, DW_AT_external
     871              ;       F:\t\cc5p5\ccsv5\tools\compiler\c5500_4.4.1\bin\acp55.exe -@f:\\AppData\\Local\\Temp\\1088012 
     872 000000               .sect   ".text"
     873                      .align 4
     874              
     875              $C$DW$62        .dwtag  DW_TAG_subprogram, DW_AT_name("DMA_getStatus")
     876                      .dwattr $C$DW$62, DW_AT_low_pc(_DMA_getStatus)
     877                      .dwattr $C$DW$62, DW_AT_high_pc(0x00)
     878                      .dwattr $C$DW$62, DW_AT_TI_symbol_name("_DMA_getStatus")
     879                      .dwattr $C$DW$62, DW_AT_type(*$C$DW$T$99)
     880                      .dwattr $C$DW$62, DW_AT_TI_begin_file("F:/eZdsp_DBG/tmp1/c55x-sim2/foo/c5535_bsl_revc/ezdsp5535_v1/c5
     881                      .dwattr $C$DW$62, DW_AT_TI_begin_line(0x3f0)
     882                      .dwattr $C$DW$62, DW_AT_TI_begin_column(0x05)
     883                      .dwattr $C$DW$62, DW_AT_TI_max_frame_size(0x06)
     884                      .dwpsn  file "F:/eZdsp_DBG/tmp1/c55x-sim2/foo/c5535_bsl_revc/ezdsp5535_v1/c55xx_csl/inc/csl_dma.h",li
     885              
     886                      .dwfde $C$DW$CIE, _DMA_getStatus
     887              $C$DW$63        .dwtag  DW_TAG_formal_parameter, DW_AT_name("hDMA")
     888                      .dwattr $C$DW$63, DW_AT_TI_symbol_name("_hDMA")
     889                      .dwattr $C$DW$63, DW_AT_type(*$C$DW$T$105)
     890                      .dwattr $C$DW$63, DW_AT_location[DW_OP_reg17]
     891              ;*******************************************************************************
     892              ;* FUNCTION NAME: DMA_getStatus                                                *
     893              ;*                                                                             *
     894              ;*   Function Uses Regs : AC0,AC0,T0,AR0,XAR0,AR1,AR2,AR3,XAR3,SP,CARRY,TC1,   *
     895              ;*                        M40,SATA,SATD,RDM,FRCT,SMUL                          *
     896              ;*   Stack Frame        : Compact (No Frame Pointer, w/ debug)                 *
     897              ;*   Total Frame Size   : 6 words                                              *
TMS320C55x Assembler PC v4.4.1 Sat Sep 29 23:08:57 2018

Tools Copyright (c) 1996-2012 Texas Instruments Incorporated
csl_nand_dma_example.asm                                             PAGE   24

     898              ;*                        (2 return address/alignment)                         *
     899              ;*                        (4 local values)                                     *
     900              ;*   Min System Stack   : 1 word                                               *
     901              ;*******************************************************************************
     902 000000       _DMA_getStatus:
     903                      .dwcfi  cfa_offset, 1
     904                      .dwcfi  save_reg_to_mem, 91, -1
     905 000000 4EFB          AADD #-5, SP
     906                      .dwcfi  cfa_offset, 6
     907              $C$DW$64        .dwtag  DW_TAG_variable, DW_AT_name("hDMA")
     908                      .dwattr $C$DW$64, DW_AT_TI_symbol_name("_hDMA")
     909                      .dwattr $C$DW$64, DW_AT_type(*$C$DW$T$105)
     910                      .dwattr $C$DW$64, DW_AT_location[DW_OP_bregx 0x24 0]
     911              $C$DW$65        .dwtag  DW_TAG_variable, DW_AT_name("status")
     912                      .dwattr $C$DW$65, DW_AT_TI_symbol_name("_status")
     913                      .dwattr $C$DW$65, DW_AT_type(*$C$DW$T$99)
     914                      .dwattr $C$DW$65, DW_AT_location[DW_OP_bregx 0x24 2]
     915              $C$DW$66        .dwtag  DW_TAG_variable, DW_AT_name("chanNum")
     916                      .dwattr $C$DW$66, DW_AT_TI_symbol_name("_chanNum")
     917                      .dwattr $C$DW$66, DW_AT_type(*$C$DW$T$19)
     918                      .dwattr $C$DW$66, DW_AT_location[DW_OP_bregx 0x24 3]
     919 000002 EB00          MOV XAR0, dbl(*SP(#0))
         000004 85   
     920                      .dwpsn  file "F:/eZdsp_DBG/tmp1/c55x-sim2/foo/c5535_bsl_revc/ezdsp5535_v1/c55xx_csl/inc/csl_dma.h",li
     921 000005 ED00          MOV dbl(*SP(#0)), XAR3
         000007 BF   
     922 000008 90B0          MOV XAR3, AC0
     923 00000a 6D00          BCC $C$L7,AC0 == #0 ; |1018| 
         00000c 0094 
     924                                                      ; branchcc occurs ; |1018| 
     925                      .dwpsn  file "F:/eZdsp_DBG/tmp1/c55x-sim2/foo/c5535_bsl_revc/ezdsp5535_v1/c55xx_csl/inc/csl_dma.h",li
     926 00000e A973          MOV *AR3(short(#1)), AR1 ; |1020| 
     927 000010 C906          MOV AR1, *SP(#3) ; |1020| 
     928                      .dwpsn  file "F:/eZdsp_DBG/tmp1/c55x-sim2/foo/c5535_bsl_revc/ezdsp5535_v1/c55xx_csl/inc/csl_dma.h",li
     929 000012 3C4A          MOV #4, AR2
     930 000014 1294          CMPU AR1 < AR2, TC1 ; |1022| 
         000016 A4   
     931 000017 0464          BCC $C$L6,TC1 ; |1022| 
         000019 69   
     932                                                      ; branchcc occurs ; |1022| 
     933 00001a       $C$L1:    
     934 00001a       $C$DW$L$_DMA_getStatus$3$B:
     935                      .dwpsn  file "F:/eZdsp_DBG/tmp1/c55x-sim2/foo/c5535_bsl_revc/ezdsp5535_v1/c55xx_csl/inc/csl_dma.h",li
     936 00001a F706          SUB #4, *SP(#3) ; |1024| 
         00001c FFFC 
     937                      .dwpsn  file "F:/eZdsp_DBG/tmp1/c55x-sim2/foo/c5535_bsl_revc/ezdsp5535_v1/c55xx_csl/inc/csl_dma.h",li
     938 00001e A906          MOV *SP(#3), AR1 ; |1022| 
     939 000020 1298          CMPU AR1 >= AR2, TC1 ; |1022| 
         000022 A4   
     940 000023 0464          BCC $C$L1,TC1 ; |1022| 
         000025 F4   
     941                                                      ; branchcc occurs ; |1022| 
     942 000026       $C$DW$L$_DMA_getStatus$3$E:
     943                      .dwpsn  file "F:/eZdsp_DBG/tmp1/c55x-sim2/foo/c5535_bsl_revc/ezdsp5535_v1/c55xx_csl/inc/csl_dma.h",li
     944 000026 0600          B $C$L6   ; |1027| 
TMS320C55x Assembler PC v4.4.1 Sat Sep 29 23:08:57 2018

Tools Copyright (c) 1996-2012 Texas Instruments Incorporated
csl_nand_dma_example.asm                                             PAGE   25

         000028 5A   
     945                                                      ; branch occurs ; |1027| 
     946 000029       $C$L2:    
     947                      .dwpsn  file "F:/eZdsp_DBG/tmp1/c55x-sim2/foo/c5535_bsl_revc/ezdsp5535_v1/c55xx_csl/inc/csl_dma.h",li
     948 000029 ED00          MOV dbl(*SP(#0)), XAR3
         00002b BF   
     949 00002c AB61          MOV *AR3, AR3 ; |1030| 
     950 00002e A97B          MOV port(*AR3(short(#5))), AR1 ; |1030| 
         000030 99   
     951 000031 7D80          AND #0x8000, AR1, AC0 ; |1030| 
         000033 0009 
     952 000035 1005          SFTS AC0, #-15, AC0 ; |1030| 
         000037 31   
     953 000038 C004          MOV AC0, *SP(#2) ; |1030| 
     954                      .dwpsn  file "F:/eZdsp_DBG/tmp1/c55x-sim2/foo/c5535_bsl_revc/ezdsp5535_v1/c55xx_csl/inc/csl_dma.h",li
     955 00003a 0600          B $C$L8   ; |1031| 
         00003c 68   
     956                                                      ; branch occurs ; |1031| 
     957 00003d       $C$L3:    
     958                      .dwpsn  file "F:/eZdsp_DBG/tmp1/c55x-sim2/foo/c5535_bsl_revc/ezdsp5535_v1/c55xx_csl/inc/csl_dma.h",li
     959 00003d ED00          MOV dbl(*SP(#0)), XAR3
         00003f BF   
     960 000040 7600          MOV #37, T0 ; |1033| 
         000042 2548 
     961 000044 AB61          MOV *AR3, AR3 ; |1033| 
     962 000046 A96B          MOV port(*AR3(T0)), AR1 ; |1033| 
         000048 99   
     963 000049 7D80          AND #0x8000, AR1, AC0 ; |1033| 
         00004b 0009 
     964 00004d 1005          SFTS AC0, #-15, AC0 ; |1033| 
         00004f 31   
     965 000050 C004          MOV AC0, *SP(#2) ; |1033| 
     966                      .dwpsn  file "F:/eZdsp_DBG/tmp1/c55x-sim2/foo/c5535_bsl_revc/ezdsp5535_v1/c55xx_csl/inc/csl_dma.h",li
     967 000052 0600          B $C$L8   ; |1034| 
         000054 50   
     968                                                      ; branch occurs ; |1034| 
     969 000055       $C$L4:    
     970                      .dwpsn  file "F:/eZdsp_DBG/tmp1/c55x-sim2/foo/c5535_bsl_revc/ezdsp5535_v1/c55xx_csl/inc/csl_dma.h",li
     971 000055 ED00          MOV dbl(*SP(#0)), XAR3
         000057 BF   
     972 000058 7600          MOV #69, T0 ; |1036| 
         00005a 4548 
     973 00005c AB61          MOV *AR3, AR3 ; |1036| 
     974 00005e A96B          MOV port(*AR3(T0)), AR1 ; |1036| 
         000060 99   
     975 000061 7D80          AND #0x8000, AR1, AC0 ; |1036| 
         000063 0009 
     976 000065 1005          SFTS AC0, #-15, AC0 ; |1036| 
         000067 31   
     977 000068 C004          MOV AC0, *SP(#2) ; |1036| 
     978                      .dwpsn  file "F:/eZdsp_DBG/tmp1/c55x-sim2/foo/c5535_bsl_revc/ezdsp5535_v1/c55xx_csl/inc/csl_dma.h",li
     979 00006a 4A39          B $C$L8   ; |1037| 
     980                                                      ; branch occurs ; |1037| 
     981 00006c       $C$L5:    
     982                      .dwpsn  file "F:/eZdsp_DBG/tmp1/c55x-sim2/foo/c5535_bsl_revc/ezdsp5535_v1/c55xx_csl/inc/csl_dma.h",li
TMS320C55x Assembler PC v4.4.1 Sat Sep 29 23:08:57 2018

Tools Copyright (c) 1996-2012 Texas Instruments Incorporated
csl_nand_dma_example.asm                                             PAGE   26

     983 00006c ED00          MOV dbl(*SP(#0)), XAR3
         00006e BF   
     984 00006f 7600          MOV #101, T0 ; |1039| 
         000071 6548 
     985 000073 AB61          MOV *AR3, AR3 ; |1039| 
     986 000075 A96B          MOV port(*AR3(T0)), AR1 ; |1039| 
         000077 99   
     987 000078 7D80          AND #0x8000, AR1, AC0 ; |1039| 
         00007a 0009 
     988 00007c 1005          SFTS AC0, #-15, AC0 ; |1039| 
         00007e 31   
     989 00007f C004          MOV AC0, *SP(#2) ; |1039| 
     990                      .dwpsn  file "F:/eZdsp_DBG/tmp1/c55x-sim2/foo/c5535_bsl_revc/ezdsp5535_v1/c55xx_csl/inc/csl_dma.h",li
     991 000081 4A22          B $C$L8   ; |1040| 
     992                                                      ; branch occurs ; |1040| 
     993 000083       $C$L6:    
     994                      .dwpsn  file "F:/eZdsp_DBG/tmp1/c55x-sim2/foo/c5535_bsl_revc/ezdsp5535_v1/c55xx_csl/inc/csl_dma.h",li
     995 000083 A906          MOV *SP(#3), AR1 ; |1027| 
     996 000085 0409          BCC $C$L2,AR1 == #0 ; |1027| 
         000087 A1   
     997                                                      ; branchcc occurs ; |1027| 
     998 000088 3C1A          MOV #1, AR2
     999 00008a 1290          CMP AR1 == AR2, TC1 ; |1027| 
         00008c A0   
    1000 00008d 0464          BCC $C$L3,TC1 ; |1027| 
         00008f AD   
    1001                                                      ; branchcc occurs ; |1027| 
    1002 000090 3C2A          MOV #2, AR2
    1003 000092 1290          CMP AR1 == AR2, TC1 ; |1027| 
         000094 A0   
    1004 000095 0464          BCC $C$L4,TC1 ; |1027| 
         000097 BD   
    1005                                                      ; branchcc occurs ; |1027| 
    1006 000098 3C3A          MOV #3, AR2
    1007 00009a 1290          CMP AR1 == AR2, TC1 ; |1027| 
         00009c A0   
    1008 00009d 0464          BCC $C$L5,TC1 ; |1027| 
         00009f CC   
    1009                                                      ; branchcc occurs ; |1027| 
    1010 0000a0 4A03          B $C$L8   ; |1027| 
    1011                                                      ; branch occurs ; |1027| 
    1012 0000a2       $C$L7:    
    1013                      .dwpsn  file "F:/eZdsp_DBG/tmp1/c55x-sim2/foo/c5535_bsl_revc/ezdsp5535_v1/c55xx_csl/inc/csl_dma.h",li
    1014 0000a2 E604          MOV #-5, *SP(#2) ; |1045| 
         0000a4 FB   
    1015 0000a5       $C$L8:    
    1016                      .dwpsn  file "F:/eZdsp_DBG/tmp1/c55x-sim2/foo/c5535_bsl_revc/ezdsp5535_v1/c55xx_csl/inc/csl_dma.h",li
    1017 0000a5 A404          MOV *SP(#2), T0 ; |1048| 
    1018                      .dwpsn  file "F:/eZdsp_DBG/tmp1/c55x-sim2/foo/c5535_bsl_revc/ezdsp5535_v1/c55xx_csl/inc/csl_dma.h",li
    1019 0000a7 4E05          AADD #5, SP
    1020                      .dwcfi  cfa_offset, 1
    1021              $C$DW$67        .dwtag  DW_TAG_TI_branch
    1022                      .dwattr $C$DW$67, DW_AT_low_pc(0x00)
    1023                      .dwattr $C$DW$67, DW_AT_TI_return
    1024 0000a9 4804          RET
TMS320C55x Assembler PC v4.4.1 Sat Sep 29 23:08:57 2018

Tools Copyright (c) 1996-2012 Texas Instruments Incorporated
csl_nand_dma_example.asm                                             PAGE   27

    1025                                                      ; return occurs
    1026              
    1027              $C$DW$68        .dwtag  DW_TAG_TI_loop
    1028                      .dwattr $C$DW$68, DW_AT_name("F:\eZdsp_DBG\tmp1\c55x-sim2\foo\Debug\csl_nand_dma_example.asm:$C$L1:1:
    1029                      .dwattr $C$DW$68, DW_AT_TI_begin_file("F:/eZdsp_DBG/tmp1/c55x-sim2/foo/c5535_bsl_revc/ezdsp5535_v1/c5
    1030                      .dwattr $C$DW$68, DW_AT_TI_begin_line(0x3fe)
    1031                      .dwattr $C$DW$68, DW_AT_TI_end_line(0x401)
    1032              $C$DW$69        .dwtag  DW_TAG_TI_loop_range
    1033                      .dwattr $C$DW$69, DW_AT_low_pc($C$DW$L$_DMA_getStatus$3$B)
    1034                      .dwattr $C$DW$69, DW_AT_high_pc($C$DW$L$_DMA_getStatus$3$E)
    1035                      .dwendtag $C$DW$68
    1036              
    1037                      .dwattr $C$DW$62, DW_AT_TI_end_file("F:/eZdsp_DBG/tmp1/c55x-sim2/foo/c5535_bsl_revc/ezdsp5535_v1/c55x
    1038                      .dwattr $C$DW$62, DW_AT_TI_end_line(0x419)
    1039                      .dwattr $C$DW$62, DW_AT_TI_end_column(0x01)
    1040                      .dwendentry
    1041                      .dwendtag $C$DW$62
    1042              
    1043 0000ab               .sect   ".text"
    1044                      .align 4
    1045                      .global _main
    1046              
    1047              $C$DW$70        .dwtag  DW_TAG_subprogram, DW_AT_name("main")
    1048                      .dwattr $C$DW$70, DW_AT_low_pc(_main)
    1049                      .dwattr $C$DW$70, DW_AT_high_pc(0x00)
    1050                      .dwattr $C$DW$70, DW_AT_TI_symbol_name("_main")
    1051                      .dwattr $C$DW$70, DW_AT_external
    1052                      .dwattr $C$DW$70, DW_AT_TI_begin_file("../c5535_bsl_revc/ezdsp5535_v1/c55xx_csl/ccs_v4.0_examples/nan
    1053                      .dwattr $C$DW$70, DW_AT_TI_begin_line(0x137)
    1054                      .dwattr $C$DW$70, DW_AT_TI_begin_column(0x06)
    1055                      .dwattr $C$DW$70, DW_AT_TI_max_frame_size(0x04)
    1056                      .dwpsn  file "../c5535_bsl_revc/ezdsp5535_v1/c55xx_csl/ccs_v4.0_examples/nand/CSL_NAND_DmaExample/csl
    1057              
    1058                      .dwfde $C$DW$CIE, _main
    1059              ;*******************************************************************************
    1060              ;* FUNCTION NAME: main                                                         *
    1061              ;*                                                                             *
    1062              ;*   Function Uses Regs : T0,AR1,AR3,XAR3,SP,M40,SATA,SATD,RDM,FRCT,SMUL       *
    1063              ;*   Stack Frame        : Compact (No Frame Pointer, w/ debug)                 *
    1064              ;*   Total Frame Size   : 4 words                                              *
    1065              ;*                        (1 return address/alignment)                         *
    1066              ;*                        (2 function parameters)                              *
    1067              ;*                        (1 local values)                                     *
    1068              ;*   Min System Stack   : 1 word                                               *
    1069              ;*******************************************************************************
    1070 0000ac       _main:
    1071                      .dwcfi  cfa_offset, 1
    1072                      .dwcfi  save_reg_to_mem, 91, -1
    1073 0000ac 4EFD          AADD #-3, SP
    1074                      .dwcfi  cfa_offset, 4
    1075              $C$DW$71        .dwtag  DW_TAG_variable, DW_AT_name("result")
    1076                      .dwattr $C$DW$71, DW_AT_TI_symbol_name("_result")
    1077                      .dwattr $C$DW$71, DW_AT_type(*$C$DW$T$107)
    1078                      .dwattr $C$DW$71, DW_AT_location[DW_OP_bregx 0x24 2]
    1079                      .dwpsn  file "../c5535_bsl_revc/ezdsp5535_v1/c55xx_csl/ccs_v4.0_examples/nand/CSL_NAND_DmaExample/csl
TMS320C55x Assembler PC v4.4.1 Sat Sep 29 23:08:57 2018

Tools Copyright (c) 1996-2012 Texas Instruments Incorporated
csl_nand_dma_example.asm                                             PAGE   28

    1080              $C$DW$72        .dwtag  DW_TAG_TI_branch
    1081                      .dwattr $C$DW$72, DW_AT_low_pc(0x00)
    1082                      .dwattr $C$DW$72, DW_AT_name("_CSL_nandDmaTest")
    1083                      .dwattr $C$DW$72, DW_AT_TI_call
    1084 0000ae 0800          CALL #_CSL_nandDmaTest ; |316| 
         0000b0 37   
    1085                                                      ; call occurs [#_CSL_nandDmaTest] ; |316| 
    1086 0000b1 C404          MOV T0, *SP(#2) ; |316| 
    1087                      .dwpsn  file "../c5535_bsl_revc/ezdsp5535_v1/c55xx_csl/ccs_v4.0_examples/nand/CSL_NAND_DmaExample/csl
    1088 0000b3 2249          MOV T0, AR1
    1089 0000b5 0409          BCC $C$L9,AR1 == #0 ; |318| 
         0000b7 15   
    1090                                                      ; branchcc occurs ; |318| 
    1091                      .dwpsn  file "../c5535_bsl_revc/ezdsp5535_v1/c55xx_csl/ccs_v4.0_examples/nand/CSL_NAND_DmaExample/csl
    1092 0000b8 EC31          AMOV #$C$FSL22, XAR3 ; |320| 
         0000ba BE00 
         0000bc 00F6+
    1093 0000be EB00          MOV XAR3, dbl(*SP(#0))
         0000c0 B5   
    1094              $C$DW$73        .dwtag  DW_TAG_TI_branch
    1095                      .dwattr $C$DW$73, DW_AT_low_pc(0x00)
    1096                      .dwattr $C$DW$73, DW_AT_name("_printf")
    1097                      .dwattr $C$DW$73, DW_AT_TI_call
    1098 0000c1 6C00          CALL #_printf ; |320| 
         0000c3 0000!
    1099                                                      ; call occurs [#_printf] ; |320| 
    1100                      .dwpsn  file "../c5535_bsl_revc/ezdsp5535_v1/c55xx_csl/ccs_v4.0_examples/nand/CSL_NAND_DmaExample/csl
    1101 0000c5 E631          MOV #0, *(#_PaSs_StAtE) ; |323| 
         0000c7 0000 
         0000c9 0B71-
    1102                      .dwpsn  file "../c5535_bsl_revc/ezdsp5535_v1/c55xx_csl/ccs_v4.0_examples/nand/CSL_NAND_DmaExample/csl
    1103 0000cb 4A0D          B $C$L10  ; |325| 
    1104                                                      ; branch occurs ; |325| 
    1105 0000cd       $C$L9:    
    1106                      .dwpsn  file "../c5535_bsl_revc/ezdsp5535_v1/c55xx_csl/ccs_v4.0_examples/nand/CSL_NAND_DmaExample/csl
    1107 0000cd EC31          AMOV #$C$FSL23, XAR3 ; |328| 
         0000cf BE00 
         0000d1 0114+
    1108 0000d3 EB00          MOV XAR3, dbl(*SP(#0))
         0000d5 B5   
    1109              $C$DW$74        .dwtag  DW_TAG_TI_branch
    1110                      .dwattr $C$DW$74, DW_AT_low_pc(0x00)
    1111                      .dwattr $C$DW$74, DW_AT_name("_printf")
    1112                      .dwattr $C$DW$74, DW_AT_TI_call
    1113 0000d6 6C00          CALL #_printf ; |328| 
         0000d8 0000!
    1114                                                      ; call occurs [#_printf] ; |328| 
    1115 0000da       $C$L10:    
    1116                      .dwpsn  file "../c5535_bsl_revc/ezdsp5535_v1/c55xx_csl/ccs_v4.0_examples/nand/CSL_NAND_DmaExample/csl
    1117 0000da A931          MOV *(#_PaSs_StAtE), AR1 ; |332| 
         0000dc 000B 
         0000de 71-  
    1118 0000df C931          MOV AR1, *(#_PaSs) ; |332| 
         0000e1 000B 
         0000e3 76-  
TMS320C55x Assembler PC v4.4.1 Sat Sep 29 23:08:57 2018

Tools Copyright (c) 1996-2012 Texas Instruments Incorporated
csl_nand_dma_example.asm                                             PAGE   29

    1119                      .dwpsn  file "../c5535_bsl_revc/ezdsp5535_v1/c55xx_csl/ccs_v4.0_examples/nand/CSL_NAND_DmaExample/csl
    1120 0000e4 4E03          AADD #3, SP
    1121                      .dwcfi  cfa_offset, 1
    1122              $C$DW$75        .dwtag  DW_TAG_TI_branch
    1123                      .dwattr $C$DW$75, DW_AT_low_pc(0x00)
    1124                      .dwattr $C$DW$75, DW_AT_TI_return
    1125 0000e6 4804          RET
    1126                                                      ; return occurs
    1127                      .dwattr $C$DW$70, DW_AT_TI_end_file("../c5535_bsl_revc/ezdsp5535_v1/c55xx_csl/ccs_v4.0_examples/nand/
    1128                      .dwattr $C$DW$70, DW_AT_TI_end_line(0x151)
    1129                      .dwattr $C$DW$70, DW_AT_TI_end_column(0x01)
    1130                      .dwendentry
    1131                      .dwendtag $C$DW$70
    1132              
    1133 0000e8               .sect   ".text"
    1134                      .align 4
    1135                      .global _CSL_nandDmaTest
    1136              
    1137              $C$DW$76        .dwtag  DW_TAG_subprogram, DW_AT_name("CSL_nandDmaTest")
    1138                      .dwattr $C$DW$76, DW_AT_low_pc(_CSL_nandDmaTest)
    1139                      .dwattr $C$DW$76, DW_AT_high_pc(0x00)
    1140                      .dwattr $C$DW$76, DW_AT_TI_symbol_name("_CSL_nandDmaTest")
    1141                      .dwattr $C$DW$76, DW_AT_external
    1142                      .dwattr $C$DW$76, DW_AT_type(*$C$DW$T$107)
    1143                      .dwattr $C$DW$76, DW_AT_TI_begin_file("../c5535_bsl_revc/ezdsp5535_v1/c55xx_csl/ccs_v4.0_examples/nan
    1144                      .dwattr $C$DW$76, DW_AT_TI_begin_line(0x15a)
    1145                      .dwattr $C$DW$76, DW_AT_TI_begin_column(0x0d)
    1146                      .dwattr $C$DW$76, DW_AT_TI_max_frame_size(0x46)
    1147                      .dwpsn  file "../c5535_bsl_revc/ezdsp5535_v1/c55xx_csl/ccs_v4.0_examples/nand/CSL_NAND_DmaExample/csl
    1148              
    1149                      .dwfde $C$DW$CIE, _CSL_nandDmaTest
    1150              ;*******************************************************************************
    1151              ;* FUNCTION NAME: CSL_nandDmaTest                                              *
    1152              ;*                                                                             *
    1153              ;*   Function Uses Regs : AC0,AC0,T0,AR0,XAR0,AR1,XAR1,AR2,AR3,XAR3,SP,CARRY,  *
    1154              ;*                        TC1,M40,SATA,SATD,RDM,FRCT,SMUL                      *
    1155              ;*   Stack Frame        : Compact (No Frame Pointer, w/ debug)                 *
    1156              ;*   Total Frame Size   : 70 words                                             *
    1157              ;*                        (2 return address/alignment)                         *
    1158              ;*                        (2 function parameters)                              *
    1159              ;*                        (66 local values)                                    *
    1160              ;*   Min System Stack   : 1 word                                               *
    1161              ;*******************************************************************************
    1162 0000e8       _CSL_nandDmaTest:
    1163                      .dwcfi  cfa_offset, 1
    1164                      .dwcfi  save_reg_to_mem, 91, -1
    1165 0000e8 4EBB          AADD #-69, SP
    1166                      .dwcfi  cfa_offset, 70
    1167              $C$DW$77        .dwtag  DW_TAG_variable, DW_AT_name("asyncWaitConfig")
    1168                      .dwattr $C$DW$77, DW_AT_TI_symbol_name("_asyncWaitConfig")
    1169                      .dwattr $C$DW$77, DW_AT_type(*$C$DW$T$86)
    1170                      .dwattr $C$DW$77, DW_AT_location[DW_OP_bregx 0x24 2]
    1171              $C$DW$78        .dwtag  DW_TAG_variable, DW_AT_name("chipSel")
    1172                      .dwattr $C$DW$78, DW_AT_TI_symbol_name("_chipSel")
    1173                      .dwattr $C$DW$78, DW_AT_type(*$C$DW$T$85)
TMS320C55x Assembler PC v4.4.1 Sat Sep 29 23:08:57 2018

Tools Copyright (c) 1996-2012 Texas Instruments Incorporated
csl_nand_dma_example.asm                                             PAGE   30

    1174                      .dwattr $C$DW$78, DW_AT_location[DW_OP_bregx 0x24 5]
    1175              $C$DW$79        .dwtag  DW_TAG_variable, DW_AT_name("asyncConfig")
    1176                      .dwattr $C$DW$79, DW_AT_TI_symbol_name("_asyncConfig")
    1177                      .dwattr $C$DW$79, DW_AT_type(*$C$DW$T$88)
    1178                      .dwattr $C$DW$79, DW_AT_location[DW_OP_bregx 0x24 6]
    1179              $C$DW$80        .dwtag  DW_TAG_variable, DW_AT_name("nandCfg")
    1180                      .dwattr $C$DW$80, DW_AT_TI_symbol_name("_nandCfg")
    1181                      .dwattr $C$DW$80, DW_AT_type(*$C$DW$T$119)
    1182                      .dwattr $C$DW$80, DW_AT_location[DW_OP_bregx 0x24 16]
    1183              $C$DW$81        .dwtag  DW_TAG_variable, DW_AT_name("hNand")
    1184                      .dwattr $C$DW$81, DW_AT_TI_symbol_name("_hNand")
    1185                      .dwattr $C$DW$81, DW_AT_type(*$C$DW$T$123)
    1186                      .dwattr $C$DW$81, DW_AT_location[DW_OP_bregx 0x24 28]
    1187              $C$DW$82        .dwtag  DW_TAG_variable, DW_AT_name("nandPort")
    1188                      .dwattr $C$DW$82, DW_AT_TI_symbol_name("_nandPort")
    1189                      .dwattr $C$DW$82, DW_AT_type(*$C$DW$T$72)
    1190                      .dwattr $C$DW$82, DW_AT_location[DW_OP_bregx 0x24 30]
    1191              $C$DW$83        .dwtag  DW_TAG_variable, DW_AT_name("nandObj")
    1192                      .dwattr $C$DW$83, DW_AT_TI_symbol_name("_nandObj")
    1193                      .dwattr $C$DW$83, DW_AT_type(*$C$DW$T$121)
    1194                      .dwattr $C$DW$83, DW_AT_location[DW_OP_bregx 0x24 32]
    1195              $C$DW$84        .dwtag  DW_TAG_variable, DW_AT_name("status")
    1196                      .dwattr $C$DW$84, DW_AT_TI_symbol_name("_status")
    1197                      .dwattr $C$DW$84, DW_AT_type(*$C$DW$T$107)
    1198                      .dwattr $C$DW$84, DW_AT_location[DW_OP_bregx 0x24 52]
    1199              $C$DW$85        .dwtag  DW_TAG_variable, DW_AT_name("result")
    1200                      .dwattr $C$DW$85, DW_AT_TI_symbol_name("_result")
    1201                      .dwattr $C$DW$85, DW_AT_type(*$C$DW$T$107)
    1202                      .dwattr $C$DW$85, DW_AT_location[DW_OP_bregx 0x24 53]
    1203              $C$DW$86        .dwtag  DW_TAG_variable, DW_AT_name("instId")
    1204                      .dwattr $C$DW$86, DW_AT_TI_symbol_name("_instId")
    1205                      .dwattr $C$DW$86, DW_AT_type(*$C$DW$T$19)
    1206                      .dwattr $C$DW$86, DW_AT_location[DW_OP_bregx 0x24 54]
    1207              $C$DW$87        .dwtag  DW_TAG_variable, DW_AT_name("bankNum")
    1208                      .dwattr $C$DW$87, DW_AT_TI_symbol_name("_bankNum")
    1209                      .dwattr $C$DW$87, DW_AT_type(*$C$DW$T$19)
    1210                      .dwattr $C$DW$87, DW_AT_location[DW_OP_bregx 0x24 55]
    1211              $C$DW$88        .dwtag  DW_TAG_variable, DW_AT_name("looper")
    1212                      .dwattr $C$DW$88, DW_AT_TI_symbol_name("_looper")
    1213                      .dwattr $C$DW$88, DW_AT_type(*$C$DW$T$19)
    1214                      .dwattr $C$DW$88, DW_AT_location[DW_OP_bregx 0x24 56]
    1215              $C$DW$89        .dwtag  DW_TAG_variable, DW_AT_name("WpStatus")
    1216                      .dwattr $C$DW$89, DW_AT_TI_symbol_name("_WpStatus")
    1217                      .dwattr $C$DW$89, DW_AT_type(*$C$DW$T$19)
    1218                      .dwattr $C$DW$89, DW_AT_location[DW_OP_bregx 0x24 57]
    1219              $C$DW$90        .dwtag  DW_TAG_variable, DW_AT_name("addrCycles")
    1220                      .dwattr $C$DW$90, DW_AT_TI_symbol_name("_addrCycles")
    1221                      .dwattr $C$DW$90, DW_AT_type(*$C$DW$T$19)
    1222                      .dwattr $C$DW$90, DW_AT_location[DW_OP_bregx 0x24 58]
    1223              $C$DW$91        .dwtag  DW_TAG_variable, DW_AT_name("flashAddress")
    1224                      .dwattr $C$DW$91, DW_AT_TI_symbol_name("_flashAddress")
    1225                      .dwattr $C$DW$91, DW_AT_type(*$C$DW$T$19)
    1226                      .dwattr $C$DW$91, DW_AT_location[DW_OP_bregx 0x24 59]
    1227              $C$DW$92        .dwtag  DW_TAG_variable, DW_AT_name("eccBuf")
    1228                      .dwattr $C$DW$92, DW_AT_TI_symbol_name("_eccBuf")
TMS320C55x Assembler PC v4.4.1 Sat Sep 29 23:08:57 2018

Tools Copyright (c) 1996-2012 Texas Instruments Incorporated
csl_nand_dma_example.asm                                             PAGE   31

    1229                      .dwattr $C$DW$92, DW_AT_type(*$C$DW$T$159)
    1230                      .dwattr $C$DW$92, DW_AT_location[DW_OP_bregx 0x24 60]
    1231                      .dwpsn  file "../c5535_bsl_revc/ezdsp5535_v1/c55xx_csl/ccs_v4.0_examples/nand/CSL_NAND_DmaExample/csl
    1232 0000ea E60A          MOV #2, *SP(#5) ; |367| 
         0000ec 02   
    1233                      .dwpsn  file "../c5535_bsl_revc/ezdsp5535_v1/c55xx_csl/ccs_v4.0_examples/nand/CSL_NAND_DmaExample/csl
    1234 0000ed E66E          MOV #2, *SP(#55) ; |368| 
         0000ef 02   
    1235                      .dwpsn  file "../c5535_bsl_revc/ezdsp5535_v1/c55xx_csl/ccs_v4.0_examples/nand/CSL_NAND_DmaExample/csl
    1236 0000f0 E63C          MOV #2, *SP(#30) ; |369| 
         0000f2 02   
    1237                      .dwpsn  file "../c5535_bsl_revc/ezdsp5535_v1/c55xx_csl/ccs_v4.0_examples/nand/CSL_NAND_DmaExample/csl
    1238 0000f3 E66A          MOV #1, *SP(#53) ; |376| 
         0000f5 01   
    1239                      .dwpsn  file "../c5535_bsl_revc/ezdsp5535_v1/c55xx_csl/ccs_v4.0_examples/nand/CSL_NAND_DmaExample/csl
    1240 0000f6 E66C          MOV #0, *SP(#54) ; |377| 
         0000f8 00   
    1241                      .dwpsn  file "../c5535_bsl_revc/ezdsp5535_v1/c55xx_csl/ccs_v4.0_examples/nand/CSL_NAND_DmaExample/csl
    1242 0000f9 EC40          AMAR *SP(#32), XAR3
         0000fb BE   
    1243 0000fc EB38          MOV XAR3, dbl(*SP(#28))
         0000fe B5   
    1244                      .dwpsn  file "../c5535_bsl_revc/ezdsp5535_v1/c55xx_csl/ccs_v4.0_examples/nand/CSL_NAND_DmaExample/csl
    1245 0000ff EC31          AMOV #$C$FSL24, XAR3 ; |380| 
         000101 BE00 
         000103 0132+
    1246 000105 EB00          MOV XAR3, dbl(*SP(#0))
         000107 B5   
    1247              $C$DW$93        .dwtag  DW_TAG_TI_branch
    1248                      .dwattr $C$DW$93, DW_AT_low_pc(0x00)
    1249                      .dwattr $C$DW$93, DW_AT_name("_printf")
    1250                      .dwattr $C$DW$93, DW_AT_TI_call
    1251 000108 6C00          CALL #_printf ; |380| 
         00010a 0000!
    1252                                                      ; call occurs [#_printf] ; |380| 
    1253                      .dwpsn  file "../c5535_bsl_revc/ezdsp5535_v1/c55xx_csl/ccs_v4.0_examples/nand/CSL_NAND_DmaExample/csl
    1254 00010c E670          MOV #0, *SP(#56) ; |382| 
         00010e 00   
    1255                      .dwpsn  file "../c5535_bsl_revc/ezdsp5535_v1/c55xx_csl/ccs_v4.0_examples/nand/CSL_NAND_DmaExample/csl
    1256 00010f 7604          MOV #1024, AR2 ; |382| 
         000111 00A8 
    1257 000113 A970          MOV *SP(#56), AR1 ; |382| 
    1258 000115 1298          CMPU AR1 >= AR2, TC1 ; |382| 
         000117 A4   
    1259 000118 0464          BCC $C$L12,TC1 ; |382| 
         00011a 21   
    1260                                                      ; branchcc occurs ; |382| 
    1261 00011b       $C$L11:    
    1262 00011b       $C$DW$L$_CSL_nandDmaTest$2$B:
    1263                      .dwpsn  file "../c5535_bsl_revc/ezdsp5535_v1/c55xx_csl/ccs_v4.0_examples/nand/CSL_NAND_DmaExample/csl
    1264 00011b A470          MOV *SP(#56), T0 ; |384| 
    1265 00011d EC31          AMOV #_gnandDmaWriteBuf, XAR3 ; |384| 
         00011f BE00 
         000121 0400-
    1266 000123 C96B          MOV AR1, *AR3(T0) ; |384| 
TMS320C55x Assembler PC v4.4.1 Sat Sep 29 23:08:57 2018

Tools Copyright (c) 1996-2012 Texas Instruments Incorporated
csl_nand_dma_example.asm                                             PAGE   32

    1267                      .dwpsn  file "../c5535_bsl_revc/ezdsp5535_v1/c55xx_csl/ccs_v4.0_examples/nand/CSL_NAND_DmaExample/csl
    1268 000125 A470          MOV *SP(#56), T0 ; |385| 
    1269 000127 EC31          AMOV #_gnandDmaReadBuf, XAR3 ; |385| 
         000129 BE00 
         00012b 0000-
    1270 00012d E66B          MOV #0, *AR3(T0) ; |385| 
         00012f 00   
    1271                      .dwpsn  file "../c5535_bsl_revc/ezdsp5535_v1/c55xx_csl/ccs_v4.0_examples/nand/CSL_NAND_DmaExample/csl
    1272 000130 F770          ADD #1, *SP(#56) ; |382| 
         000132 0001 
    1273                      .dwpsn  file "../c5535_bsl_revc/ezdsp5535_v1/c55xx_csl/ccs_v4.0_examples/nand/CSL_NAND_DmaExample/csl
    1274 000134 A970          MOV *SP(#56), AR1 ; |382| 
    1275 000136 1294          CMPU AR1 < AR2, TC1 ; |382| 
         000138 A4   
    1276 000139 0464          BCC $C$L11,TC1 ; |382| 
         00013b DF   
    1277                                                      ; branchcc occurs ; |382| 
    1278 00013c       $C$DW$L$_CSL_nandDmaTest$2$E:
    1279 00013c       $C$L12:    
    1280                      .dwpsn  file "../c5535_bsl_revc/ezdsp5535_v1/c55xx_csl/ccs_v4.0_examples/nand/CSL_NAND_DmaExample/csl
    1281              $C$DW$94        .dwtag  DW_TAG_TI_branch
    1282                      .dwattr $C$DW$94, DW_AT_low_pc(0x00)
    1283                      .dwattr $C$DW$94, DW_AT_name("_DMA_init")
    1284                      .dwattr $C$DW$94, DW_AT_TI_call
    1285 00013c 6C00          CALL #_DMA_init ; |413| 
         00013e 0000!
    1286                                                      ; call occurs [#_DMA_init] ; |413| 
    1287 000140 C468          MOV T0, *SP(#52) ; |413| 
    1288                      .dwpsn  file "../c5535_bsl_revc/ezdsp5535_v1/c55xx_csl/ccs_v4.0_examples/nand/CSL_NAND_DmaExample/csl
    1289 000142 2249          MOV T0, AR1
    1290 000144 0409          BCC $C$L13,AR1 == #0 ; |414| 
         000146 12   
    1291                                                      ; branchcc occurs ; |414| 
    1292                      .dwpsn  file "../c5535_bsl_revc/ezdsp5535_v1/c55xx_csl/ccs_v4.0_examples/nand/CSL_NAND_DmaExample/csl
    1293 000147 EC31          AMOV #$C$FSL25, XAR3 ; |416| 
         000149 BE00 
         00014b 0148+
    1294 00014d EB00          MOV XAR3, dbl(*SP(#0))
         00014f B5   
    1295              $C$DW$95        .dwtag  DW_TAG_TI_branch
    1296                      .dwattr $C$DW$95, DW_AT_low_pc(0x00)
    1297                      .dwattr $C$DW$95, DW_AT_name("_printf")
    1298                      .dwattr $C$DW$95, DW_AT_TI_call
    1299 000150 6C00          CALL #_printf ; |416| 
         000152 0000!
    1300                                                      ; call occurs [#_printf] ; |416| 
    1301                      .dwpsn  file "../c5535_bsl_revc/ezdsp5535_v1/c55xx_csl/ccs_v4.0_examples/nand/CSL_NAND_DmaExample/csl
    1302 000154 A468          MOV *SP(#52), T0 ; |417| 
    1303 000156 0607          B $C$L72  ; |417| 
         000158 BF   
    1304                                                      ; branch occurs ; |417| 
    1305 000159       $C$L13:    
    1306                      .dwpsn  file "../c5535_bsl_revc/ezdsp5535_v1/c55xx_csl/ccs_v4.0_examples/nand/CSL_NAND_DmaExample/csl
    1307 000159 EC40          AMAR *SP(#32), XAR0
         00015b 8E   
TMS320C55x Assembler PC v4.4.1 Sat Sep 29 23:08:57 2018

Tools Copyright (c) 1996-2012 Texas Instruments Incorporated
csl_nand_dma_example.asm                                             PAGE   33

    1308 00015c A46C          MOV *SP(#54), T0 ; |421| 
    1309              $C$DW$96        .dwtag  DW_TAG_TI_branch
    1310                      .dwattr $C$DW$96, DW_AT_low_pc(0x00)
    1311                      .dwattr $C$DW$96, DW_AT_name("_NAND_init")
    1312                      .dwattr $C$DW$96, DW_AT_TI_call
    1313 00015e 6C00          CALL #_NAND_init ; |421| 
         000160 0000!
    1314                                                      ; call occurs [#_NAND_init] ; |421| 
    1315 000162 C468          MOV T0, *SP(#52) ; |421| 
    1316                      .dwpsn  file "../c5535_bsl_revc/ezdsp5535_v1/c55xx_csl/ccs_v4.0_examples/nand/CSL_NAND_DmaExample/csl
    1317 000164 2249          MOV T0, AR1
    1318 000166 0409          BCC $C$L14,AR1 == #0 ; |422| 
         000168 12   
    1319                                                      ; branchcc occurs ; |422| 
    1320                      .dwpsn  file "../c5535_bsl_revc/ezdsp5535_v1/c55xx_csl/ccs_v4.0_examples/nand/CSL_NAND_DmaExample/csl
    1321 000169 EC31          AMOV #$C$FSL26, XAR3 ; |424| 
         00016b BE00 
         00016d 015A+
    1322 00016f EB00          MOV XAR3, dbl(*SP(#0))
         000171 B5   
    1323              $C$DW$97        .dwtag  DW_TAG_TI_branch
    1324                      .dwattr $C$DW$97, DW_AT_low_pc(0x00)
    1325                      .dwattr $C$DW$97, DW_AT_name("_printf")
    1326                      .dwattr $C$DW$97, DW_AT_TI_call
    1327 000172 6C00          CALL #_printf ; |424| 
         000174 0000!
    1328                                                      ; call occurs [#_printf] ; |424| 
    1329                      .dwpsn  file "../c5535_bsl_revc/ezdsp5535_v1/c55xx_csl/ccs_v4.0_examples/nand/CSL_NAND_DmaExample/csl
    1330 000176 A46A          MOV *SP(#53), T0 ; |425| 
    1331 000178 0607          B $C$L72  ; |425| 
         00017a 9D   
    1332                                                      ; branch occurs ; |425| 
    1333 00017b       $C$L14:    
    1334                      .dwpsn  file "../c5535_bsl_revc/ezdsp5535_v1/c55xx_csl/ccs_v4.0_examples/nand/CSL_NAND_DmaExample/csl
    1335 00017b E604          MOV #0, *SP(#2) ; |429| 
         00017d 00   
    1336                      .dwpsn  file "../c5535_bsl_revc/ezdsp5535_v1/c55xx_csl/ccs_v4.0_examples/nand/CSL_NAND_DmaExample/csl
    1337 00017e A93C          MOV *SP(#30), AR1 ; |430| 
    1338 000180 C906          MOV AR1, *SP(#3) ; |430| 
    1339                      .dwpsn  file "../c5535_bsl_revc/ezdsp5535_v1/c55xx_csl/ccs_v4.0_examples/nand/CSL_NAND_DmaExample/csl
    1340 000182 FB08          MOV #128, *SP(#4) ; |431| 
         000184 0080 
    1341                      .dwpsn  file "../c5535_bsl_revc/ezdsp5535_v1/c55xx_csl/ccs_v4.0_examples/nand/CSL_NAND_DmaExample/csl
    1342 000186 E60C          MOV #0, *SP(#6) ; |434| 
         000188 00   
    1343                      .dwpsn  file "../c5535_bsl_revc/ezdsp5535_v1/c55xx_csl/ccs_v4.0_examples/nand/CSL_NAND_DmaExample/csl
    1344 000189 E60E          MOV #0, *SP(#7) ; |435| 
         00018b 00   
    1345                      .dwpsn  file "../c5535_bsl_revc/ezdsp5535_v1/c55xx_csl/ccs_v4.0_examples/nand/CSL_NAND_DmaExample/csl
    1346 00018c E610          MOV #15, *SP(#8) ; |436| 
         00018e 0F   
    1347                      .dwpsn  file "../c5535_bsl_revc/ezdsp5535_v1/c55xx_csl/ccs_v4.0_examples/nand/CSL_NAND_DmaExample/csl
    1348 00018f E612          MOV #31, *SP(#9) ; |437| 
         000191 1F   
    1349                      .dwpsn  file "../c5535_bsl_revc/ezdsp5535_v1/c55xx_csl/ccs_v4.0_examples/nand/CSL_NAND_DmaExample/csl
TMS320C55x Assembler PC v4.4.1 Sat Sep 29 23:08:57 2018

Tools Copyright (c) 1996-2012 Texas Instruments Incorporated
csl_nand_dma_example.asm                                             PAGE   34

    1350 000192 E614          MOV #7, *SP(#10) ; |438| 
         000194 07   
    1351                      .dwpsn  file "../c5535_bsl_revc/ezdsp5535_v1/c55xx_csl/ccs_v4.0_examples/nand/CSL_NAND_DmaExample/csl
    1352 000195 E616          MOV #15, *SP(#11) ; |439| 
         000197 0F   
    1353                      .dwpsn  file "../c5535_bsl_revc/ezdsp5535_v1/c55xx_csl/ccs_v4.0_examples/nand/CSL_NAND_DmaExample/csl
    1354 000198 E618          MOV #63, *SP(#12) ; |440| 
         00019a 3F   
    1355                      .dwpsn  file "../c5535_bsl_revc/ezdsp5535_v1/c55xx_csl/ccs_v4.0_examples/nand/CSL_NAND_DmaExample/csl
    1356 00019b E61A          MOV #7, *SP(#13) ; |441| 
         00019d 07   
    1357                      .dwpsn  file "../c5535_bsl_revc/ezdsp5535_v1/c55xx_csl/ccs_v4.0_examples/nand/CSL_NAND_DmaExample/csl
    1358 00019e E61C          MOV #3, *SP(#14) ; |442| 
         0001a0 03   
    1359                      .dwpsn  file "../c5535_bsl_revc/ezdsp5535_v1/c55xx_csl/ccs_v4.0_examples/nand/CSL_NAND_DmaExample/csl
    1360 0001a1 E61E          MOV #0, *SP(#15) ; |443| 
         0001a3 00   
    1361                      .dwpsn  file "../c5535_bsl_revc/ezdsp5535_v1/c55xx_csl/ccs_v4.0_examples/nand/CSL_NAND_DmaExample/csl
    1362 0001a4 A90A          MOV *SP(#5), AR1 ; |446| 
    1363 0001a6 C92C          MOV AR1, *SP(#22) ; |446| 
    1364                      .dwpsn  file "../c5535_bsl_revc/ezdsp5535_v1/c55xx_csl/ccs_v4.0_examples/nand/CSL_NAND_DmaExample/csl
    1365 0001a8 E620          MOV #0, *SP(#16) ; |447| 
         0001aa 00   
    1366                      .dwpsn  file "../c5535_bsl_revc/ezdsp5535_v1/c55xx_csl/ccs_v4.0_examples/nand/CSL_NAND_DmaExample/csl
    1367 0001ab E622          MOV #1, *SP(#17) ; |448| 
         0001ad 01   
    1368                      .dwpsn  file "../c5535_bsl_revc/ezdsp5535_v1/c55xx_csl/ccs_v4.0_examples/nand/CSL_NAND_DmaExample/csl
    1369 0001ae E626          MOV #2, *SP(#19) ; |449| 
         0001b0 02   
    1370                      .dwpsn  file "../c5535_bsl_revc/ezdsp5535_v1/c55xx_csl/ccs_v4.0_examples/nand/CSL_NAND_DmaExample/csl
    1371 0001b1 E628          MOV #0, *SP(#20) ; |450| 
         0001b3 00   
    1372                      .dwpsn  file "../c5535_bsl_revc/ezdsp5535_v1/c55xx_csl/ccs_v4.0_examples/nand/CSL_NAND_DmaExample/csl
    1373 0001b4 E62A          MOV #2, *SP(#21) ; |451| 
         0001b6 02   
    1374                      .dwpsn  file "../c5535_bsl_revc/ezdsp5535_v1/c55xx_csl/ccs_v4.0_examples/nand/CSL_NAND_DmaExample/csl
    1375 0001b7 EC04          AMAR *SP(#2), XAR3
         0001b9 BE   
    1376 0001ba EB30          MOV XAR3, dbl(*SP(#24))
         0001bc B5   
    1377                      .dwpsn  file "../c5535_bsl_revc/ezdsp5535_v1/c55xx_csl/ccs_v4.0_examples/nand/CSL_NAND_DmaExample/csl
    1378 0001bd EC0C          AMAR *SP(#6), XAR3
         0001bf BE   
    1379 0001c0 EB34          MOV XAR3, dbl(*SP(#26))
         0001c2 B5   
    1380                      .dwpsn  file "../c5535_bsl_revc/ezdsp5535_v1/c55xx_csl/ccs_v4.0_examples/nand/CSL_NAND_DmaExample/csl
    1381 0001c3 EC20          AMAR *SP(#16), XAR1
         0001c5 9E   
    1382 0001c6 ED38          MOV dbl(*SP(#28)), XAR0
         0001c8 8F   
    1383              $C$DW$98        .dwtag  DW_TAG_TI_branch
    1384                      .dwattr $C$DW$98, DW_AT_low_pc(0x00)
    1385                      .dwattr $C$DW$98, DW_AT_name("_NAND_setup")
    1386                      .dwattr $C$DW$98, DW_AT_TI_call
    1387 0001c9 6C00          CALL #_NAND_setup ; |456| 
TMS320C55x Assembler PC v4.4.1 Sat Sep 29 23:08:57 2018

Tools Copyright (c) 1996-2012 Texas Instruments Incorporated
csl_nand_dma_example.asm                                             PAGE   35

         0001cb 0000!
    1388                                                      ; call occurs [#_NAND_setup] ; |456| 
    1389 0001cd C468          MOV T0, *SP(#52) ; |456| 
    1390                      .dwpsn  file "../c5535_bsl_revc/ezdsp5535_v1/c55xx_csl/ccs_v4.0_examples/nand/CSL_NAND_DmaExample/csl
    1391 0001cf 2249          MOV T0, AR1
    1392 0001d1 0409          BCC $C$L15,AR1 == #0 ; |457| 
         0001d3 12   
    1393                                                      ; branchcc occurs ; |457| 
    1394                      .dwpsn  file "../c5535_bsl_revc/ezdsp5535_v1/c55xx_csl/ccs_v4.0_examples/nand/CSL_NAND_DmaExample/csl
    1395 0001d4 EC31          AMOV #$C$FSL27, XAR3 ; |459| 
         0001d6 BE00 
         0001d8 016E+
    1396 0001da EB00          MOV XAR3, dbl(*SP(#0))
         0001dc B5   
    1397              $C$DW$99        .dwtag  DW_TAG_TI_branch
    1398                      .dwattr $C$DW$99, DW_AT_low_pc(0x00)
    1399                      .dwattr $C$DW$99, DW_AT_name("_printf")
    1400                      .dwattr $C$DW$99, DW_AT_TI_call
    1401 0001dd 6C00          CALL #_printf ; |459| 
         0001df 0000!
    1402                                                      ; call occurs [#_printf] ; |459| 
    1403                      .dwpsn  file "../c5535_bsl_revc/ezdsp5535_v1/c55xx_csl/ccs_v4.0_examples/nand/CSL_NAND_DmaExample/csl
    1404 0001e1 A46A          MOV *SP(#53), T0 ; |460| 
    1405 0001e3 0607          B $C$L72  ; |460| 
         0001e5 32   
    1406                                                      ; branch occurs ; |460| 
    1407 0001e6       $C$L15:    
    1408                      .dwpsn  file "../c5535_bsl_revc/ezdsp5535_v1/c55xx_csl/ccs_v4.0_examples/nand/CSL_NAND_DmaExample/csl
    1409 0001e6 ED38          MOV dbl(*SP(#28)), XAR1
         0001e8 9F   
    1410 0001e9 ED38          MOV dbl(*SP(#28)), XAR0
         0001eb 8F   
    1411              
    1412                      AADD #6, AR1 ; |464| 
    1413 0001ec 8A6E  ||      MOV *SP(#55), T0 ; |464| 
         0001ee 941C 
         0001f0 06   
    1414              
    1415              $C$DW$100       .dwtag  DW_TAG_TI_branch
    1416                      .dwattr $C$DW$100, DW_AT_low_pc(0x00)
    1417                      .dwattr $C$DW$100, DW_AT_name("_NAND_getBankInfo")
    1418                      .dwattr $C$DW$100, DW_AT_TI_call
    1419 0001f1 6C00          CALL #_NAND_getBankInfo ; |464| 
         0001f3 0000!
    1420                                                      ; call occurs [#_NAND_getBankInfo] ; |464| 
    1421 0001f5 C468          MOV T0, *SP(#52) ; |464| 
    1422                      .dwpsn  file "../c5535_bsl_revc/ezdsp5535_v1/c55xx_csl/ccs_v4.0_examples/nand/CSL_NAND_DmaExample/csl
    1423 0001f7 2249          MOV T0, AR1
    1424 0001f9 0409          BCC $C$L16,AR1 == #0 ; |465| 
         0001fb 12   
    1425                                                      ; branchcc occurs ; |465| 
    1426                      .dwpsn  file "../c5535_bsl_revc/ezdsp5535_v1/c55xx_csl/ccs_v4.0_examples/nand/CSL_NAND_DmaExample/csl
    1427 0001fc EC31          AMOV #$C$FSL28, XAR3 ; |467| 
         0001fe BE00 
         000200 0184+
TMS320C55x Assembler PC v4.4.1 Sat Sep 29 23:08:57 2018

Tools Copyright (c) 1996-2012 Texas Instruments Incorporated
csl_nand_dma_example.asm                                             PAGE   36

    1428 000202 EB00          MOV XAR3, dbl(*SP(#0))
         000204 B5   
    1429              $C$DW$101       .dwtag  DW_TAG_TI_branch
    1430                      .dwattr $C$DW$101, DW_AT_low_pc(0x00)
    1431                      .dwattr $C$DW$101, DW_AT_name("_printf")
    1432                      .dwattr $C$DW$101, DW_AT_TI_call
    1433 000205 6C00          CALL #_printf ; |467| 
         000207 0000!
    1434                                                      ; call occurs [#_printf] ; |467| 
    1435                      .dwpsn  file "../c5535_bsl_revc/ezdsp5535_v1/c55xx_csl/ccs_v4.0_examples/nand/CSL_NAND_DmaExample/csl
    1436 000209 A46A          MOV *SP(#53), T0 ; |468| 
    1437 00020b 0607          B $C$L72  ; |468| 
         00020d 0A   
    1438                                                      ; branch occurs ; |468| 
    1439 00020e       $C$L16:    
    1440                      .dwpsn  file "../c5535_bsl_revc/ezdsp5535_v1/c55xx_csl/ccs_v4.0_examples/nand/CSL_NAND_DmaExample/csl
    1441 00020e ED38          MOV dbl(*SP(#28)), XAR0
         000210 8F   
    1442              $C$DW$102       .dwtag  DW_TAG_TI_branch
    1443                      .dwattr $C$DW$102, DW_AT_low_pc(0x00)
    1444                      .dwattr $C$DW$102, DW_AT_name("_CSL_checkNandType")
    1445                      .dwattr $C$DW$102, DW_AT_TI_call
    1446 000211 0807          CALL #_CSL_checkNandType ; |472| 
         000213 68   
    1447                                                      ; call occurs [#_CSL_checkNandType] ; |472| 
    1448 000214 C468          MOV T0, *SP(#52) ; |472| 
    1449                      .dwpsn  file "../c5535_bsl_revc/ezdsp5535_v1/c55xx_csl/ccs_v4.0_examples/nand/CSL_NAND_DmaExample/csl
    1450 000216 2249          MOV T0, AR1
    1451 000218 0409          BCC $C$L17,AR1 == #0 ; |473| 
         00021a 12   
    1452                                                      ; branchcc occurs ; |473| 
    1453                      .dwpsn  file "../c5535_bsl_revc/ezdsp5535_v1/c55xx_csl/ccs_v4.0_examples/nand/CSL_NAND_DmaExample/csl
    1454 00021b EC31          AMOV #$C$FSL29, XAR3 ; |475| 
         00021d BE00 
         00021f 01A2+
    1455 000221 EB00          MOV XAR3, dbl(*SP(#0))
         000223 B5   
    1456              $C$DW$103       .dwtag  DW_TAG_TI_branch
    1457                      .dwattr $C$DW$103, DW_AT_low_pc(0x00)
    1458                      .dwattr $C$DW$103, DW_AT_name("_printf")
    1459                      .dwattr $C$DW$103, DW_AT_TI_call
    1460 000224 6C00          CALL #_printf ; |475| 
         000226 0000!
    1461                                                      ; call occurs [#_printf] ; |475| 
    1462                      .dwpsn  file "../c5535_bsl_revc/ezdsp5535_v1/c55xx_csl/ccs_v4.0_examples/nand/CSL_NAND_DmaExample/csl
    1463 000228 A46A          MOV *SP(#53), T0 ; |476| 
    1464 00022a 0606          B $C$L72  ; |476| 
         00022c EB   
    1465                                                      ; branch occurs ; |476| 
    1466 00022d       $C$L17:    
    1467                      .dwpsn  file "../c5535_bsl_revc/ezdsp5535_v1/c55xx_csl/ccs_v4.0_examples/nand/CSL_NAND_DmaExample/csl
    1468 00022d F031          CMP *(#_gNandType) == #1, TC1 ; |479| 
         00022f 0001 
         000231 000B 
         000233 6C-  
TMS320C55x Assembler PC v4.4.1 Sat Sep 29 23:08:57 2018

Tools Copyright (c) 1996-2012 Texas Instruments Incorporated
csl_nand_dma_example.asm                                             PAGE   37

    1469 000234 67F4          BCC $C$L18,!TC1 ; |479| 
    1470                                                      ; branchcc occurs ; |479| 
    1471                      .dwpsn  file "../c5535_bsl_revc/ezdsp5535_v1/c55xx_csl/ccs_v4.0_examples/nand/CSL_NAND_DmaExample/csl
    1472 000236 EC31          AMOV #$C$FSL30, XAR3 ; |481| 
         000238 BE00 
         00023a 01B6+
    1473 00023c EB00          MOV XAR3, dbl(*SP(#0))
         00023e B5   
    1474              $C$DW$104       .dwtag  DW_TAG_TI_branch
    1475                      .dwattr $C$DW$104, DW_AT_low_pc(0x00)
    1476                      .dwattr $C$DW$104, DW_AT_name("_printf")
    1477                      .dwattr $C$DW$104, DW_AT_TI_call
    1478 00023f 6C00          CALL #_printf ; |481| 
         000241 0000!
    1479                                                      ; call occurs [#_printf] ; |481| 
    1480                      .dwpsn  file "../c5535_bsl_revc/ezdsp5535_v1/c55xx_csl/ccs_v4.0_examples/nand/CSL_NAND_DmaExample/csl
    1481 000243 4A0D          B $C$L19  ; |482| 
    1482                                                      ; branch occurs ; |482| 
    1483 000245       $C$L18:    
    1484                      .dwpsn  file "../c5535_bsl_revc/ezdsp5535_v1/c55xx_csl/ccs_v4.0_examples/nand/CSL_NAND_DmaExample/csl
    1485 000245 EC31          AMOV #$C$FSL31, XAR3 ; |485| 
         000247 BE00 
         000249 01E2+
    1486 00024b EB00          MOV XAR3, dbl(*SP(#0))
         00024d B5   
    1487              $C$DW$105       .dwtag  DW_TAG_TI_branch
    1488                      .dwattr $C$DW$105, DW_AT_low_pc(0x00)
    1489                      .dwattr $C$DW$105, DW_AT_name("_printf")
    1490                      .dwattr $C$DW$105, DW_AT_TI_call
    1491 00024e 6C00          CALL #_printf ; |485| 
         000250 0000!
    1492                                                      ; call occurs [#_printf] ; |485| 
    1493 000252       $C$L19:    
    1494                      .dwpsn  file "../c5535_bsl_revc/ezdsp5535_v1/c55xx_csl/ccs_v4.0_examples/nand/CSL_NAND_DmaExample/csl
    1495 000252 A931          MOV *(#_gNandType), AR1 ; |488| 
         000254 000B 
         000256 6C-  
    1496 000257 6519          BCC $C$L20,AR1 != #0 ; |488| 
    1497                                                      ; branchcc occurs ; |488| 
    1498 000259 F031          CMP *(#_gNandPageSize) == #512, TC1 ; |488| 
         00025b 0200 
         00025d 000B 
         00025f 6E-  
    1499 000260 0464          BCC $C$L24,TC1 ; |488| 
         000262 46   
    1500                                                      ; branchcc occurs ; |488| 
    1501 000263       $C$L20:    
    1502                      .dwpsn  file "../c5535_bsl_revc/ezdsp5535_v1/c55xx_csl/ccs_v4.0_examples/nand/CSL_NAND_DmaExample/csl
    1503 000263 F031          CMP *(#_gNandType) == #1, TC1 ; |493| 
         000265 0001 
         000267 000B 
         000269 6C-  
    1504 00026a 0474          BCC $C$L22,!TC1 ; |493| 
         00026c 16   
    1505                                                      ; branchcc occurs ; |493| 
TMS320C55x Assembler PC v4.4.1 Sat Sep 29 23:08:57 2018

Tools Copyright (c) 1996-2012 Texas Instruments Incorporated
csl_nand_dma_example.asm                                             PAGE   38

    1506                      .dwpsn  file "../c5535_bsl_revc/ezdsp5535_v1/c55xx_csl/ccs_v4.0_examples/nand/CSL_NAND_DmaExample/csl
    1507 00026d E62A          MOV #1, *SP(#21) ; |495| 
         00026f 01   
    1508                      .dwpsn  file "../c5535_bsl_revc/ezdsp5535_v1/c55xx_csl/ccs_v4.0_examples/nand/CSL_NAND_DmaExample/csl
    1509 000270 F031          CMP *(#_gNandPageSize) == #1024, TC1 ; |497| 
         000272 0400 
         000274 000B 
         000276 6E-  
    1510 000277 62F4          BCC $C$L21,!TC1 ; |497| 
    1511                                                      ; branchcc occurs ; |497| 
    1512                      .dwpsn  file "../c5535_bsl_revc/ezdsp5535_v1/c55xx_csl/ccs_v4.0_examples/nand/CSL_NAND_DmaExample/csl
    1513 000279 E622          MOV #2, *SP(#17) ; |499| 
         00027b 02   
    1514                      .dwpsn  file "../c5535_bsl_revc/ezdsp5535_v1/c55xx_csl/ccs_v4.0_examples/nand/CSL_NAND_DmaExample/csl
    1515 00027c 4A08          B $C$L23  ; |500| 
    1516                                                      ; branch occurs ; |500| 
    1517 00027e       $C$L21:    
    1518                      .dwpsn  file "../c5535_bsl_revc/ezdsp5535_v1/c55xx_csl/ccs_v4.0_examples/nand/CSL_NAND_DmaExample/csl
    1519 00027e E622          MOV #3, *SP(#17) ; |503| 
         000280 03   
    1520                      .dwpsn  file "../c5535_bsl_revc/ezdsp5535_v1/c55xx_csl/ccs_v4.0_examples/nand/CSL_NAND_DmaExample/csl
    1521 000281 4A03          B $C$L23  ; |505| 
    1522                                                      ; branch occurs ; |505| 
    1523 000283       $C$L22:    
    1524                      .dwpsn  file "../c5535_bsl_revc/ezdsp5535_v1/c55xx_csl/ccs_v4.0_examples/nand/CSL_NAND_DmaExample/csl
    1525 000283 E622          MOV #0, *SP(#17) ; |508| 
         000285 00   
    1526 000286       $C$L23:    
    1527                      .dwpsn  file "../c5535_bsl_revc/ezdsp5535_v1/c55xx_csl/ccs_v4.0_examples/nand/CSL_NAND_DmaExample/csl
    1528 000286 ED38          MOV dbl(*SP(#28)), XAR0
         000288 8F   
    1529 000289 EC20          AMAR *SP(#16), XAR1
         00028b 9E   
    1530              $C$DW$106       .dwtag  DW_TAG_TI_branch
    1531                      .dwattr $C$DW$106, DW_AT_low_pc(0x00)
    1532                      .dwattr $C$DW$106, DW_AT_name("_NAND_setup")
    1533                      .dwattr $C$DW$106, DW_AT_TI_call
    1534 00028c 6C00          CALL #_NAND_setup ; |512| 
         00028e 0000!
    1535                                                      ; call occurs [#_NAND_setup] ; |512| 
    1536 000290 C468          MOV T0, *SP(#52) ; |512| 
    1537                      .dwpsn  file "../c5535_bsl_revc/ezdsp5535_v1/c55xx_csl/ccs_v4.0_examples/nand/CSL_NAND_DmaExample/csl
    1538 000292 2249          MOV T0, AR1
    1539 000294 0409          BCC $C$L24,AR1 == #0 ; |513| 
         000296 12   
    1540                                                      ; branchcc occurs ; |513| 
    1541                      .dwpsn  file "../c5535_bsl_revc/ezdsp5535_v1/c55xx_csl/ccs_v4.0_examples/nand/CSL_NAND_DmaExample/csl
    1542 000297 EC31          AMOV #$C$FSL27, XAR3 ; |515| 
         000299 BE00 
         00029b 016E+
    1543 00029d EB00          MOV XAR3, dbl(*SP(#0))
         00029f B5   
    1544              $C$DW$107       .dwtag  DW_TAG_TI_branch
    1545                      .dwattr $C$DW$107, DW_AT_low_pc(0x00)
    1546                      .dwattr $C$DW$107, DW_AT_name("_printf")
TMS320C55x Assembler PC v4.4.1 Sat Sep 29 23:08:57 2018

Tools Copyright (c) 1996-2012 Texas Instruments Incorporated
csl_nand_dma_example.asm                                             PAGE   39

    1547                      .dwattr $C$DW$107, DW_AT_TI_call
    1548 0002a0 6C00          CALL #_printf ; |515| 
         0002a2 0000!
    1549                                                      ; call occurs [#_printf] ; |515| 
    1550                      .dwpsn  file "../c5535_bsl_revc/ezdsp5535_v1/c55xx_csl/ccs_v4.0_examples/nand/CSL_NAND_DmaExample/csl
    1551 0002a4 A46A          MOV *SP(#53), T0 ; |516| 
    1552 0002a6 0606          B $C$L72  ; |516| 
         0002a8 6F   
    1553                                                      ; branch occurs ; |516| 
    1554 0002a9       $C$L24:    
    1555                      .dwpsn  file "../c5535_bsl_revc/ezdsp5535_v1/c55xx_csl/ccs_v4.0_examples/nand/CSL_NAND_DmaExample/csl
    1556 0002a9 ED38          MOV dbl(*SP(#28)), XAR0
         0002ab 8F   
    1557 0002ac 7600          MOV #255, T0 ; |521| 
         0002ae FF48 
    1558              $C$DW$108       .dwtag  DW_TAG_TI_branch
    1559                      .dwattr $C$DW$108, DW_AT_low_pc(0x00)
    1560                      .dwattr $C$DW$108, DW_AT_name("_NAND_sendCommand")
    1561                      .dwattr $C$DW$108, DW_AT_TI_call
    1562 0002b0 6C00          CALL #_NAND_sendCommand ; |521| 
         0002b2 0000!
    1563                                                      ; call occurs [#_NAND_sendCommand] ; |521| 
    1564 0002b4 C468          MOV T0, *SP(#52) ; |521| 
    1565                      .dwpsn  file "../c5535_bsl_revc/ezdsp5535_v1/c55xx_csl/ccs_v4.0_examples/nand/CSL_NAND_DmaExample/csl
    1566 0002b6 2249          MOV T0, AR1
    1567 0002b8 0409          BCC $C$L25,AR1 == #0 ; |522| 
         0002ba 12   
    1568                                                      ; branchcc occurs ; |522| 
    1569                      .dwpsn  file "../c5535_bsl_revc/ezdsp5535_v1/c55xx_csl/ccs_v4.0_examples/nand/CSL_NAND_DmaExample/csl
    1570 0002bb EC31          AMOV #$C$FSL32, XAR3 ; |524| 
         0002bd BE00 
         0002bf 0210+
    1571 0002c1 EB00          MOV XAR3, dbl(*SP(#0))
         0002c3 B5   
    1572              $C$DW$109       .dwtag  DW_TAG_TI_branch
    1573                      .dwattr $C$DW$109, DW_AT_low_pc(0x00)
    1574                      .dwattr $C$DW$109, DW_AT_name("_printf")
    1575                      .dwattr $C$DW$109, DW_AT_TI_call
    1576 0002c4 6C00          CALL #_printf ; |524| 
         0002c6 0000!
    1577                                                      ; call occurs [#_printf] ; |524| 
    1578                      .dwpsn  file "../c5535_bsl_revc/ezdsp5535_v1/c55xx_csl/ccs_v4.0_examples/nand/CSL_NAND_DmaExample/csl
    1579 0002c8 A46A          MOV *SP(#53), T0 ; |525| 
    1580 0002ca 0606          B $C$L72  ; |525| 
         0002cc 4B   
    1581                                                      ; branch occurs ; |525| 
    1582 0002cd       $C$L25:    
    1583                      .dwpsn  file "../c5535_bsl_revc/ezdsp5535_v1/c55xx_csl/ccs_v4.0_examples/nand/CSL_NAND_DmaExample/csl
    1584 0002cd ED38          MOV dbl(*SP(#28)), XAR0
         0002cf 8F   
    1585              $C$DW$110       .dwtag  DW_TAG_TI_branch
    1586                      .dwattr $C$DW$110, DW_AT_low_pc(0x00)
    1587                      .dwattr $C$DW$110, DW_AT_name("_NAND_checkCommandStatus")
    1588                      .dwattr $C$DW$110, DW_AT_TI_call
    1589 0002d0 6C00          CALL #_NAND_checkCommandStatus ; |529| 
TMS320C55x Assembler PC v4.4.1 Sat Sep 29 23:08:57 2018

Tools Copyright (c) 1996-2012 Texas Instruments Incorporated
csl_nand_dma_example.asm                                             PAGE   40

         0002d2 0000!
    1590                                                      ; call occurs [#_NAND_checkCommandStatus] ; |529| 
    1591 0002d4 C468          MOV T0, *SP(#52) ; |529| 
    1592                      .dwpsn  file "../c5535_bsl_revc/ezdsp5535_v1/c55xx_csl/ccs_v4.0_examples/nand/CSL_NAND_DmaExample/csl
    1593 0002d6 2249          MOV T0, AR1
    1594 0002d8 0409          BCC $C$L26,AR1 == #0 ; |530| 
         0002da 12   
    1595                                                      ; branchcc occurs ; |530| 
    1596                      .dwpsn  file "../c5535_bsl_revc/ezdsp5535_v1/c55xx_csl/ccs_v4.0_examples/nand/CSL_NAND_DmaExample/csl
    1597 0002db EC31          AMOV #$C$FSL33, XAR3 ; |532| 
         0002dd BE00 
         0002df 022C+
    1598 0002e1 EB00          MOV XAR3, dbl(*SP(#0))
         0002e3 B5   
    1599              $C$DW$111       .dwtag  DW_TAG_TI_branch
    1600                      .dwattr $C$DW$111, DW_AT_low_pc(0x00)
    1601                      .dwattr $C$DW$111, DW_AT_name("_printf")
    1602                      .dwattr $C$DW$111, DW_AT_TI_call
    1603 0002e4 6C00          CALL #_printf ; |532| 
         0002e6 0000!
    1604                                                      ; call occurs [#_printf] ; |532| 
    1605                      .dwpsn  file "../c5535_bsl_revc/ezdsp5535_v1/c55xx_csl/ccs_v4.0_examples/nand/CSL_NAND_DmaExample/csl
    1606 0002e8 A46A          MOV *SP(#53), T0 ; |533| 
    1607 0002ea 0606          B $C$L72  ; |533| 
         0002ec 2B   
    1608                                                      ; branch occurs ; |533| 
    1609 0002ed       $C$L26:    
    1610                      .dwpsn  file "../c5535_bsl_revc/ezdsp5535_v1/c55xx_csl/ccs_v4.0_examples/nand/CSL_NAND_DmaExample/csl
    1611 0002ed ED38          MOV dbl(*SP(#28)), XAR0
         0002ef 8F   
    1612 0002f0 EC72          AMAR *SP(#57), XAR1
         0002f2 9E   
    1613              $C$DW$112       .dwtag  DW_TAG_TI_branch
    1614                      .dwattr $C$DW$112, DW_AT_low_pc(0x00)
    1615                      .dwattr $C$DW$112, DW_AT_name("_NAND_isStatusWriteProtected")
    1616                      .dwattr $C$DW$112, DW_AT_TI_call
    1617 0002f3 6C00          CALL #_NAND_isStatusWriteProtected ; |537| 
         0002f5 0000!
    1618                                                      ; call occurs [#_NAND_isStatusWriteProtected] ; |537| 
    1619 0002f7 C468          MOV T0, *SP(#52) ; |537| 
    1620                      .dwpsn  file "../c5535_bsl_revc/ezdsp5535_v1/c55xx_csl/ccs_v4.0_examples/nand/CSL_NAND_DmaExample/csl
    1621 0002f9 F072          CMP *SP(#57) == #1, TC1 ; |538| 
         0002fb 0001 
    1622 0002fd 0474          BCC $C$L27,!TC1 ; |538| 
         0002ff 12   
    1623                                                      ; branchcc occurs ; |538| 
    1624                      .dwpsn  file "../c5535_bsl_revc/ezdsp5535_v1/c55xx_csl/ccs_v4.0_examples/nand/CSL_NAND_DmaExample/csl
    1625 000300 EC31          AMOV #$C$FSL34, XAR3 ; |540| 
         000302 BE00 
         000304 0250+
    1626 000306 EB00          MOV XAR3, dbl(*SP(#0))
         000308 B5   
    1627              $C$DW$113       .dwtag  DW_TAG_TI_branch
    1628                      .dwattr $C$DW$113, DW_AT_low_pc(0x00)
    1629                      .dwattr $C$DW$113, DW_AT_name("_printf")
TMS320C55x Assembler PC v4.4.1 Sat Sep 29 23:08:57 2018

Tools Copyright (c) 1996-2012 Texas Instruments Incorporated
csl_nand_dma_example.asm                                             PAGE   41

    1630                      .dwattr $C$DW$113, DW_AT_TI_call
    1631 000309 6C00          CALL #_printf ; |540| 
         00030b 0000!
    1632                                                      ; call occurs [#_printf] ; |540| 
    1633                      .dwpsn  file "../c5535_bsl_revc/ezdsp5535_v1/c55xx_csl/ccs_v4.0_examples/nand/CSL_NAND_DmaExample/csl
    1634 00030d A46A          MOV *SP(#53), T0 ; |541| 
    1635 00030f 0606          B $C$L72  ; |541| 
         000311 06   
    1636                                                      ; branch occurs ; |541| 
    1637 000312       $C$L27:    
    1638                      .dwpsn  file "../c5535_bsl_revc/ezdsp5535_v1/c55xx_csl/ccs_v4.0_examples/nand/CSL_NAND_DmaExample/csl
    1639 000312 E631          MOV #0, *(#_dmaConfig) ; |546| 
         000314 0000 
         000316 0804-
    1640                      .dwpsn  file "../c5535_bsl_revc/ezdsp5535_v1/c55xx_csl/ccs_v4.0_examples/nand/CSL_NAND_DmaExample/csl
    1641 000318 E631          MOV #0, *(#(_dmaConfig+1)) ; |548| 
         00031a 0000 
         00031c 0805-
    1642                      .dwpsn  file "../c5535_bsl_revc/ezdsp5535_v1/c55xx_csl/ccs_v4.0_examples/nand/CSL_NAND_DmaExample/csl
    1643 00031e E631          MOV #2, *(#(_dmaConfig+2)) ; |549| 
         000320 0200 
         000322 0806-
    1644                      .dwpsn  file "../c5535_bsl_revc/ezdsp5535_v1/c55xx_csl/ccs_v4.0_examples/nand/CSL_NAND_DmaExample/csl
    1645 000324 E631          MOV #0, *(#(_dmaConfig+3)) ; |550| 
         000326 0000 
         000328 0807-
    1646                      .dwpsn  file "../c5535_bsl_revc/ezdsp5535_v1/c55xx_csl/ccs_v4.0_examples/nand/CSL_NAND_DmaExample/csl
    1647 00032a E631          MOV #0, *(#(_dmaConfig+4)) ; |551| 
         00032c 0000 
         00032e 0808-
    1648                      .dwpsn  file "../c5535_bsl_revc/ezdsp5535_v1/c55xx_csl/ccs_v4.0_examples/nand/CSL_NAND_DmaExample/csl
    1649 000330 E631          MOV #0, *(#(_dmaConfig+5)) ; |552| 
         000332 0000 
         000334 0809-
    1650                      .dwpsn  file "../c5535_bsl_revc/ezdsp5535_v1/c55xx_csl/ccs_v4.0_examples/nand/CSL_NAND_DmaExample/csl
    1651 000336 E631          MOV #1, *(#(_dmaConfig+6)) ; |553| 
         000338 0100 
         00033a 080A-
    1652                      .dwpsn  file "../c5535_bsl_revc/ezdsp5535_v1/c55xx_csl/ccs_v4.0_examples/nand/CSL_NAND_DmaExample/csl
    1653 00033c E631          MOV #0, *(#(_dmaConfig+7)) ; |554| 
         00033e 0000 
         000340 080B-
    1654                      .dwpsn  file "../c5535_bsl_revc/ezdsp5535_v1/c55xx_csl/ccs_v4.0_examples/nand/CSL_NAND_DmaExample/csl
    1655 000342 A931          MOV *(#_gNandPageSize), AR1 ; |555| 
         000344 000B 
         000346 6E-  
    1656 000347 C931          MOV AR1, *(#(_dmaConfig+8)) ; |555| 
         000349 0008 
         00034b 0C-  
    1657                      .dwpsn  file "../c5535_bsl_revc/ezdsp5535_v1/c55xx_csl/ccs_v4.0_examples/nand/CSL_NAND_DmaExample/csl
    1658 00034c 7A00          MOV #(_gnandDmaWriteBuf >> 16) << #16, AC0 ; |556| 
         00034e 000A%
    1659 000350 7E00          OR #(_gnandDmaWriteBuf & 0xffff), AC0, AC0 ; |556| 
         000352 0000%
    1660 000354 EB31          MOV AC0, dbl(*(#(_dmaConfig+10))) ; |556| 
TMS320C55x Assembler PC v4.4.1 Sat Sep 29 23:08:57 2018

Tools Copyright (c) 1996-2012 Texas Instruments Incorporated
csl_nand_dma_example.asm                                             PAGE   42

         000356 0800 
         000358 080E-
    1661                      .dwpsn  file "../c5535_bsl_revc/ezdsp5535_v1/c55xx_csl/ccs_v4.0_examples/nand/CSL_NAND_DmaExample/csl
    1662 00035a 7A04          MOV #1024 << #16, AC0 ; |559| 
         00035c 000A 
    1663 00035e EB31          MOV AC0, dbl(*(#(_dmaConfig+12))) ; |559| 
         000360 0800 
         000362 0810-
    1664                      .dwpsn  file "../c5535_bsl_revc/ezdsp5535_v1/c55xx_csl/ccs_v4.0_examples/nand/CSL_NAND_DmaExample/csl
    1665 000364 EC31          AMOV #_dmaWrChanObj, XAR0 ; |564| 
         000366 8E00 
         000368 0812-
    1666              $C$DW$114       .dwtag  DW_TAG_TI_branch
    1667                      .dwattr $C$DW$114, DW_AT_low_pc(0x00)
    1668                      .dwattr $C$DW$114, DW_AT_name("_CSL_configDmaForNand")
    1669                      .dwattr $C$DW$114, DW_AT_TI_call
    1670              
    1671 00036a 0805          CALL #_CSL_configDmaForNand ; |564| 
         00036c AD   
    1672 00036d 3DC4  ||      MOV #12, T0
    1673              
    1674                                                      ; call occurs [#_CSL_configDmaForNand] ; |564| 
    1675 00036f EB31          MOV XAR0, dbl(*(#_dmaWrHandle))
         000371 8500 
         000373 0800-
    1676                      .dwpsn  file "../c5535_bsl_revc/ezdsp5535_v1/c55xx_csl/ccs_v4.0_examples/nand/CSL_NAND_DmaExample/csl
    1677 000375 ED31          MOV dbl(*(#_dmaWrHandle)), XAR3
         000377 BF00 
         000379 0800-
    1678 00037b 90B0          MOV XAR3, AC0
    1679 00037d 0410          BCC $C$L28,AC0 != #0 ; |565| 
         00037f 12   
    1680                                                      ; branchcc occurs ; |565| 
    1681                      .dwpsn  file "../c5535_bsl_revc/ezdsp5535_v1/c55xx_csl/ccs_v4.0_examples/nand/CSL_NAND_DmaExample/csl
    1682 000380 EC31          AMOV #$C$FSL35, XAR3 ; |567| 
         000382 BE00 
         000384 026C+
    1683 000386 EB00          MOV XAR3, dbl(*SP(#0))
         000388 B5   
    1684              $C$DW$115       .dwtag  DW_TAG_TI_branch
    1685                      .dwattr $C$DW$115, DW_AT_low_pc(0x00)
    1686                      .dwattr $C$DW$115, DW_AT_name("_printf")
    1687                      .dwattr $C$DW$115, DW_AT_TI_call
    1688 000389 6C00          CALL #_printf ; |567| 
         00038b 0000!
    1689                                                      ; call occurs [#_printf] ; |567| 
    1690                      .dwpsn  file "../c5535_bsl_revc/ezdsp5535_v1/c55xx_csl/ccs_v4.0_examples/nand/CSL_NAND_DmaExample/csl
    1691 00038d 3C14          MOV #1, T0
    1692 00038f 0605          B $C$L72  ; |568| 
         000391 86   
    1693                                                      ; branch occurs ; |568| 
    1694 000392       $C$L28:    
    1695                      .dwpsn  file "../c5535_bsl_revc/ezdsp5535_v1/c55xx_csl/ccs_v4.0_examples/nand/CSL_NAND_DmaExample/csl
    1696 000392 E631          MOV #0, *(#_dmaConfig) ; |573| 
         000394 0000 
TMS320C55x Assembler PC v4.4.1 Sat Sep 29 23:08:57 2018

Tools Copyright (c) 1996-2012 Texas Instruments Incorporated
csl_nand_dma_example.asm                                             PAGE   43

         000396 0804-
    1697                      .dwpsn  file "../c5535_bsl_revc/ezdsp5535_v1/c55xx_csl/ccs_v4.0_examples/nand/CSL_NAND_DmaExample/csl
    1698 000398 E631          MOV #0, *(#(_dmaConfig+1)) ; |575| 
         00039a 0000 
         00039c 0805-
    1699                      .dwpsn  file "../c5535_bsl_revc/ezdsp5535_v1/c55xx_csl/ccs_v4.0_examples/nand/CSL_NAND_DmaExample/csl
    1700 00039e E631          MOV #2, *(#(_dmaConfig+2)) ; |576| 
         0003a0 0200 
         0003a2 0806-
    1701                      .dwpsn  file "../c5535_bsl_revc/ezdsp5535_v1/c55xx_csl/ccs_v4.0_examples/nand/CSL_NAND_DmaExample/csl
    1702 0003a4 E631          MOV #0, *(#(_dmaConfig+3)) ; |577| 
         0003a6 0000 
         0003a8 0807-
    1703                      .dwpsn  file "../c5535_bsl_revc/ezdsp5535_v1/c55xx_csl/ccs_v4.0_examples/nand/CSL_NAND_DmaExample/csl
    1704 0003aa E631          MOV #0, *(#(_dmaConfig+4)) ; |578| 
         0003ac 0000 
         0003ae 0808-
    1705                      .dwpsn  file "../c5535_bsl_revc/ezdsp5535_v1/c55xx_csl/ccs_v4.0_examples/nand/CSL_NAND_DmaExample/csl
    1706 0003b0 E631          MOV #0, *(#(_dmaConfig+5)) ; |579| 
         0003b2 0000 
         0003b4 0809-
    1707                      .dwpsn  file "../c5535_bsl_revc/ezdsp5535_v1/c55xx_csl/ccs_v4.0_examples/nand/CSL_NAND_DmaExample/csl
    1708 0003b6 E631          MOV #0, *(#(_dmaConfig+6)) ; |580| 
         0003b8 0000 
         0003ba 080A-
    1709                      .dwpsn  file "../c5535_bsl_revc/ezdsp5535_v1/c55xx_csl/ccs_v4.0_examples/nand/CSL_NAND_DmaExample/csl
    1710 0003bc E631          MOV #0, *(#(_dmaConfig+7)) ; |581| 
         0003be 0000 
         0003c0 080B-
    1711                      .dwpsn  file "../c5535_bsl_revc/ezdsp5535_v1/c55xx_csl/ccs_v4.0_examples/nand/CSL_NAND_DmaExample/csl
    1712 0003c2 A931          MOV *(#_gNandPageSize), AR1 ; |582| 
         0003c4 000B 
         0003c6 6E-  
    1713 0003c7 C931          MOV AR1, *(#(_dmaConfig+8)) ; |582| 
         0003c9 0008 
         0003cb 0C-  
    1714                      .dwpsn  file "../c5535_bsl_revc/ezdsp5535_v1/c55xx_csl/ccs_v4.0_examples/nand/CSL_NAND_DmaExample/csl
    1715 0003cc 7A04          MOV #1024 << #16, AC0 ; |585| 
         0003ce 000A 
    1716 0003d0 EB31          MOV AC0, dbl(*(#(_dmaConfig+10))) ; |585| 
         0003d2 0800 
         0003d4 080E-
    1717                      .dwpsn  file "../c5535_bsl_revc/ezdsp5535_v1/c55xx_csl/ccs_v4.0_examples/nand/CSL_NAND_DmaExample/csl
    1718 0003d6 7A00          MOV #(_gnandDmaReadBuf >> 16) << #16, AC0 ; |590| 
         0003d8 000A%
    1719 0003da 7E00          OR #(_gnandDmaReadBuf & 0xffff), AC0, AC0 ; |590| 
         0003dc 0000%
    1720 0003de EB31          MOV AC0, dbl(*(#(_dmaConfig+12))) ; |590| 
         0003e0 0800 
         0003e2 0810-
    1721                      .dwpsn  file "../c5535_bsl_revc/ezdsp5535_v1/c55xx_csl/ccs_v4.0_examples/nand/CSL_NAND_DmaExample/csl
    1722 0003e4 EC31          AMOV #_dmaRdChanObj, XAR0 ; |592| 
         0003e6 8E00 
         0003e8 081B-
    1723              $C$DW$116       .dwtag  DW_TAG_TI_branch
TMS320C55x Assembler PC v4.4.1 Sat Sep 29 23:08:57 2018

Tools Copyright (c) 1996-2012 Texas Instruments Incorporated
csl_nand_dma_example.asm                                             PAGE   44

    1724                      .dwattr $C$DW$116, DW_AT_low_pc(0x00)
    1725                      .dwattr $C$DW$116, DW_AT_name("_CSL_configDmaForNand")
    1726                      .dwattr $C$DW$116, DW_AT_TI_call
    1727              
    1728 0003ea 0805          CALL #_CSL_configDmaForNand ; |592| 
         0003ec 2D   
    1729 0003ed 3DD4  ||      MOV #13, T0
    1730              
    1731                                                      ; call occurs [#_CSL_configDmaForNand] ; |592| 
    1732 0003ef EB31          MOV XAR0, dbl(*(#_dmaRdHandle))
         0003f1 8500 
         0003f3 0802-
    1733                      .dwpsn  file "../c5535_bsl_revc/ezdsp5535_v1/c55xx_csl/ccs_v4.0_examples/nand/CSL_NAND_DmaExample/csl
    1734 0003f5 ED31          MOV dbl(*(#_dmaRdHandle)), XAR3
         0003f7 BF00 
         0003f9 0802-
    1735 0003fb 90B0          MOV XAR3, AC0
    1736 0003fd 0410          BCC $C$L29,AC0 != #0 ; |593| 
         0003ff 12   
    1737                                                      ; branchcc occurs ; |593| 
    1738                      .dwpsn  file "../c5535_bsl_revc/ezdsp5535_v1/c55xx_csl/ccs_v4.0_examples/nand/CSL_NAND_DmaExample/csl
    1739 000400 EC31          AMOV #$C$FSL36, XAR3 ; |595| 
         000402 BE00 
         000404 0290+
    1740 000406 EB00          MOV XAR3, dbl(*SP(#0))
         000408 B5   
    1741              $C$DW$117       .dwtag  DW_TAG_TI_branch
    1742                      .dwattr $C$DW$117, DW_AT_low_pc(0x00)
    1743                      .dwattr $C$DW$117, DW_AT_name("_printf")
    1744                      .dwattr $C$DW$117, DW_AT_TI_call
    1745 000409 6C00          CALL #_printf ; |595| 
         00040b 0000!
    1746                                                      ; call occurs [#_printf] ; |595| 
    1747                      .dwpsn  file "../c5535_bsl_revc/ezdsp5535_v1/c55xx_csl/ccs_v4.0_examples/nand/CSL_NAND_DmaExample/csl
    1748 00040d 3C14          MOV #1, T0
    1749 00040f 0605          B $C$L72  ; |596| 
         000411 06   
    1750                                                      ; branch occurs ; |596| 
    1751 000412       $C$L29:    
    1752                      .dwpsn  file "../c5535_bsl_revc/ezdsp5535_v1/c55xx_csl/ccs_v4.0_examples/nand/CSL_NAND_DmaExample/csl
    1753 000412 ED38          MOV dbl(*SP(#28)), XAR0
         000414 8F   
    1754 000415 7600          MOV #96, T0 ; |600| 
         000417 6048 
    1755              $C$DW$118       .dwtag  DW_TAG_TI_branch
    1756                      .dwattr $C$DW$118, DW_AT_low_pc(0x00)
    1757                      .dwattr $C$DW$118, DW_AT_name("_NAND_sendCommand")
    1758                      .dwattr $C$DW$118, DW_AT_TI_call
    1759 000419 6C00          CALL #_NAND_sendCommand ; |600| 
         00041b 0000!
    1760                                                      ; call occurs [#_NAND_sendCommand] ; |600| 
    1761 00041d C468          MOV T0, *SP(#52) ; |600| 
    1762                      .dwpsn  file "../c5535_bsl_revc/ezdsp5535_v1/c55xx_csl/ccs_v4.0_examples/nand/CSL_NAND_DmaExample/csl
    1763 00041f 2249          MOV T0, AR1
    1764 000421 0409          BCC $C$L30,AR1 == #0 ; |601| 
TMS320C55x Assembler PC v4.4.1 Sat Sep 29 23:08:57 2018

Tools Copyright (c) 1996-2012 Texas Instruments Incorporated
csl_nand_dma_example.asm                                             PAGE   45

         000423 12   
    1765                                                      ; branchcc occurs ; |601| 
    1766                      .dwpsn  file "../c5535_bsl_revc/ezdsp5535_v1/c55xx_csl/ccs_v4.0_examples/nand/CSL_NAND_DmaExample/csl
    1767 000424 EC31          AMOV #$C$FSL32, XAR3 ; |603| 
         000426 BE00 
         000428 0210+
    1768 00042a EB00          MOV XAR3, dbl(*SP(#0))
         00042c B5   
    1769              $C$DW$119       .dwtag  DW_TAG_TI_branch
    1770                      .dwattr $C$DW$119, DW_AT_low_pc(0x00)
    1771                      .dwattr $C$DW$119, DW_AT_name("_printf")
    1772                      .dwattr $C$DW$119, DW_AT_TI_call
    1773 00042d 6C00          CALL #_printf ; |603| 
         00042f 0000!
    1774                                                      ; call occurs [#_printf] ; |603| 
    1775                      .dwpsn  file "../c5535_bsl_revc/ezdsp5535_v1/c55xx_csl/ccs_v4.0_examples/nand/CSL_NAND_DmaExample/csl
    1776 000431 A46A          MOV *SP(#53), T0 ; |604| 
    1777 000433 0604          B $C$L72  ; |604| 
         000435 E2   
    1778                                                      ; branch occurs ; |604| 
    1779 000436       $C$L30:    
    1780                      .dwpsn  file "../c5535_bsl_revc/ezdsp5535_v1/c55xx_csl/ccs_v4.0_examples/nand/CSL_NAND_DmaExample/csl
    1781 000436 ED38          MOV dbl(*SP(#28)), XAR0
         000438 8F   
    1782              $C$DW$120       .dwtag  DW_TAG_TI_branch
    1783                      .dwattr $C$DW$120, DW_AT_low_pc(0x00)
    1784                      .dwattr $C$DW$120, DW_AT_name("_NAND_checkCommandStatus")
    1785                      .dwattr $C$DW$120, DW_AT_TI_call
    1786 000439 6C00          CALL #_NAND_checkCommandStatus ; |608| 
         00043b 0000!
    1787                                                      ; call occurs [#_NAND_checkCommandStatus] ; |608| 
    1788 00043d C468          MOV T0, *SP(#52) ; |608| 
    1789                      .dwpsn  file "../c5535_bsl_revc/ezdsp5535_v1/c55xx_csl/ccs_v4.0_examples/nand/CSL_NAND_DmaExample/csl
    1790 00043f 2249          MOV T0, AR1
    1791 000441 0409          BCC $C$L31,AR1 == #0 ; |609| 
         000443 12   
    1792                                                      ; branchcc occurs ; |609| 
    1793                      .dwpsn  file "../c5535_bsl_revc/ezdsp5535_v1/c55xx_csl/ccs_v4.0_examples/nand/CSL_NAND_DmaExample/csl
    1794 000444 EC31          AMOV #$C$FSL33, XAR3 ; |611| 
         000446 BE00 
         000448 022C+
    1795 00044a EB00          MOV XAR3, dbl(*SP(#0))
         00044c B5   
    1796              $C$DW$121       .dwtag  DW_TAG_TI_branch
    1797                      .dwattr $C$DW$121, DW_AT_low_pc(0x00)
    1798                      .dwattr $C$DW$121, DW_AT_name("_printf")
    1799                      .dwattr $C$DW$121, DW_AT_TI_call
    1800 00044d 6C00          CALL #_printf ; |611| 
         00044f 0000!
    1801                                                      ; call occurs [#_printf] ; |611| 
    1802                      .dwpsn  file "../c5535_bsl_revc/ezdsp5535_v1/c55xx_csl/ccs_v4.0_examples/nand/CSL_NAND_DmaExample/csl
    1803 000451 A46A          MOV *SP(#53), T0 ; |612| 
    1804 000453 0604          B $C$L72  ; |612| 
         000455 C2   
    1805                                                      ; branch occurs ; |612| 
TMS320C55x Assembler PC v4.4.1 Sat Sep 29 23:08:57 2018

Tools Copyright (c) 1996-2012 Texas Instruments Incorporated
csl_nand_dma_example.asm                                             PAGE   46

    1806 000456       $C$L31:    
    1807                      .dwpsn  file "../c5535_bsl_revc/ezdsp5535_v1/c55xx_csl/ccs_v4.0_examples/nand/CSL_NAND_DmaExample/csl
    1808 000456 E676          MOV #64, *SP(#59) ; |616| 
         000458 40   
    1809                      .dwpsn  file "../c5535_bsl_revc/ezdsp5535_v1/c55xx_csl/ccs_v4.0_examples/nand/CSL_NAND_DmaExample/csl
    1810 000459 E674          MOV #0, *SP(#58) ; |617| 
         00045b 00   
    1811                      .dwpsn  file "../c5535_bsl_revc/ezdsp5535_v1/c55xx_csl/ccs_v4.0_examples/nand/CSL_NAND_DmaExample/csl
    1812 00045c A931          MOV *(#_gRowAddrCycles), AR1 ; |617| 
         00045e 000B 
         000460 6F-  
    1813 000461 AA74          MOV *SP(#58), AR2 ; |617| 
    1814 000463 12A8          CMPU AR2 >= AR1, TC1 ; |617| 
         000465 94   
    1815 000466 0464          BCC $C$L34,TC1 ; |617| 
         000468 38   
    1816                                                      ; branchcc occurs ; |617| 
    1817 000469       $C$L32:    
    1818 000469       $C$DW$L$_CSL_nandDmaTest$40$B:
    1819                      .dwpsn  file "../c5535_bsl_revc/ezdsp5535_v1/c55xx_csl/ccs_v4.0_examples/nand/CSL_NAND_DmaExample/csl
    1820 000469 ED38          MOV dbl(*SP(#28)), XAR0
         00046b 8F   
    1821 00046c A476          MOV *SP(#59), T0 ; |619| 
    1822              $C$DW$122       .dwtag  DW_TAG_TI_branch
    1823                      .dwattr $C$DW$122, DW_AT_low_pc(0x00)
    1824                      .dwattr $C$DW$122, DW_AT_name("_NAND_setAddress")
    1825                      .dwattr $C$DW$122, DW_AT_TI_call
    1826 00046e 6C00          CALL #_NAND_setAddress ; |619| 
         000470 0000!
    1827                                                      ; call occurs [#_NAND_setAddress] ; |619| 
    1828 000472 C468          MOV T0, *SP(#52) ; |619| 
    1829                      .dwpsn  file "../c5535_bsl_revc/ezdsp5535_v1/c55xx_csl/ccs_v4.0_examples/nand/CSL_NAND_DmaExample/csl
    1830 000474 2249          MOV T0, AR1
    1831 000476 0409          BCC $C$L33,AR1 == #0 ; |620| 
         000478 12   
    1832                                                      ; branchcc occurs ; |620| 
    1833 000479       $C$DW$L$_CSL_nandDmaTest$40$E:
    1834                      .dwpsn  file "../c5535_bsl_revc/ezdsp5535_v1/c55xx_csl/ccs_v4.0_examples/nand/CSL_NAND_DmaExample/csl
    1835 000479 EC31          AMOV #$C$FSL37, XAR3 ; |622| 
         00047b BE00 
         00047d 02B4+
    1836 00047f EB00          MOV XAR3, dbl(*SP(#0))
         000481 B5   
    1837              $C$DW$123       .dwtag  DW_TAG_TI_branch
    1838                      .dwattr $C$DW$123, DW_AT_low_pc(0x00)
    1839                      .dwattr $C$DW$123, DW_AT_name("_printf")
    1840                      .dwattr $C$DW$123, DW_AT_TI_call
    1841 000482 6C00          CALL #_printf ; |622| 
         000484 0000!
    1842                                                      ; call occurs [#_printf] ; |622| 
    1843                      .dwpsn  file "../c5535_bsl_revc/ezdsp5535_v1/c55xx_csl/ccs_v4.0_examples/nand/CSL_NAND_DmaExample/csl
    1844 000486 A46A          MOV *SP(#53), T0 ; |623| 
    1845 000488 0604          B $C$L72  ; |623| 
         00048a 8D   
    1846                                                      ; branch occurs ; |623| 
TMS320C55x Assembler PC v4.4.1 Sat Sep 29 23:08:57 2018

Tools Copyright (c) 1996-2012 Texas Instruments Incorporated
csl_nand_dma_example.asm                                             PAGE   47

    1847 00048b       $C$L33:    
    1848 00048b       $C$DW$L$_CSL_nandDmaTest$42$B:
    1849                      .dwpsn  file "../c5535_bsl_revc/ezdsp5535_v1/c55xx_csl/ccs_v4.0_examples/nand/CSL_NAND_DmaExample/csl
    1850 00048b DF76          MOV uns(high_byte(*SP(#59))), AR1 ; |625| 
         00048d 91   
    1851 00048e C976          MOV AR1, *SP(#59) ; |625| 
    1852                      .dwpsn  file "../c5535_bsl_revc/ezdsp5535_v1/c55xx_csl/ccs_v4.0_examples/nand/CSL_NAND_DmaExample/csl
    1853 000490 F774          ADD #1, *SP(#58) ; |617| 
         000492 0001 
    1854                      .dwpsn  file "../c5535_bsl_revc/ezdsp5535_v1/c55xx_csl/ccs_v4.0_examples/nand/CSL_NAND_DmaExample/csl
    1855 000494 A931          MOV *(#_gRowAddrCycles), AR1 ; |617| 
         000496 000B 
         000498 6F-  
    1856 000499 AA74          MOV *SP(#58), AR2 ; |617| 
    1857 00049b 12A4          CMPU AR2 < AR1, TC1 ; |617| 
         00049d 94   
    1858 00049e 0464          BCC $C$L32,TC1 ; |617| 
         0004a0 C8   
    1859                                                      ; branchcc occurs ; |617| 
    1860 0004a1       $C$DW$L$_CSL_nandDmaTest$42$E:
    1861 0004a1       $C$L34:    
    1862                      .dwpsn  file "../c5535_bsl_revc/ezdsp5535_v1/c55xx_csl/ccs_v4.0_examples/nand/CSL_NAND_DmaExample/csl
    1863 0004a1 ED38          MOV dbl(*SP(#28)), XAR0
         0004a3 8F   
    1864 0004a4 7600          MOV #208, T0 ; |629| 
         0004a6 D048 
    1865              $C$DW$124       .dwtag  DW_TAG_TI_branch
    1866                      .dwattr $C$DW$124, DW_AT_low_pc(0x00)
    1867                      .dwattr $C$DW$124, DW_AT_name("_NAND_sendCommand")
    1868                      .dwattr $C$DW$124, DW_AT_TI_call
    1869 0004a8 6C00          CALL #_NAND_sendCommand ; |629| 
         0004aa 0000!
    1870                                                      ; call occurs [#_NAND_sendCommand] ; |629| 
    1871 0004ac C468          MOV T0, *SP(#52) ; |629| 
    1872                      .dwpsn  file "../c5535_bsl_revc/ezdsp5535_v1/c55xx_csl/ccs_v4.0_examples/nand/CSL_NAND_DmaExample/csl
    1873 0004ae 2249          MOV T0, AR1
    1874 0004b0 0409          BCC $C$L35,AR1 == #0 ; |630| 
         0004b2 12   
    1875                                                      ; branchcc occurs ; |630| 
    1876                      .dwpsn  file "../c5535_bsl_revc/ezdsp5535_v1/c55xx_csl/ccs_v4.0_examples/nand/CSL_NAND_DmaExample/csl
    1877 0004b3 EC31          AMOV #$C$FSL32, XAR3 ; |632| 
         0004b5 BE00 
         0004b7 0210+
    1878 0004b9 EB00          MOV XAR3, dbl(*SP(#0))
         0004bb B5   
    1879              $C$DW$125       .dwtag  DW_TAG_TI_branch
    1880                      .dwattr $C$DW$125, DW_AT_low_pc(0x00)
    1881                      .dwattr $C$DW$125, DW_AT_name("_printf")
    1882                      .dwattr $C$DW$125, DW_AT_TI_call
    1883 0004bc 6C00          CALL #_printf ; |632| 
         0004be 0000!
    1884                                                      ; call occurs [#_printf] ; |632| 
    1885                      .dwpsn  file "../c5535_bsl_revc/ezdsp5535_v1/c55xx_csl/ccs_v4.0_examples/nand/CSL_NAND_DmaExample/csl
    1886 0004c0 A46A          MOV *SP(#53), T0 ; |633| 
    1887 0004c2 0604          B $C$L72  ; |633| 
TMS320C55x Assembler PC v4.4.1 Sat Sep 29 23:08:57 2018

Tools Copyright (c) 1996-2012 Texas Instruments Incorporated
csl_nand_dma_example.asm                                             PAGE   48

         0004c4 53   
    1888                                                      ; branch occurs ; |633| 
    1889 0004c5       $C$L35:    
    1890                      .dwpsn  file "../c5535_bsl_revc/ezdsp5535_v1/c55xx_csl/ccs_v4.0_examples/nand/CSL_NAND_DmaExample/csl
    1891 0004c5 ED38          MOV dbl(*SP(#28)), XAR0
         0004c7 8F   
    1892              $C$DW$126       .dwtag  DW_TAG_TI_branch
    1893                      .dwattr $C$DW$126, DW_AT_low_pc(0x00)
    1894                      .dwattr $C$DW$126, DW_AT_name("_NAND_checkCommandStatus")
    1895                      .dwattr $C$DW$126, DW_AT_TI_call
    1896 0004c8 6C00          CALL #_NAND_checkCommandStatus ; |637| 
         0004ca 0000!
    1897                                                      ; call occurs [#_NAND_checkCommandStatus] ; |637| 
    1898 0004cc C468          MOV T0, *SP(#52) ; |637| 
    1899                      .dwpsn  file "../c5535_bsl_revc/ezdsp5535_v1/c55xx_csl/ccs_v4.0_examples/nand/CSL_NAND_DmaExample/csl
    1900 0004ce 2249          MOV T0, AR1
    1901 0004d0 0409          BCC $C$L36,AR1 == #0 ; |638| 
         0004d2 12   
    1902                                                      ; branchcc occurs ; |638| 
    1903                      .dwpsn  file "../c5535_bsl_revc/ezdsp5535_v1/c55xx_csl/ccs_v4.0_examples/nand/CSL_NAND_DmaExample/csl
    1904 0004d3 EC31          AMOV #$C$FSL33, XAR3 ; |640| 
         0004d5 BE00 
         0004d7 022C+
    1905 0004d9 EB00          MOV XAR3, dbl(*SP(#0))
         0004db B5   
    1906              $C$DW$127       .dwtag  DW_TAG_TI_branch
    1907                      .dwattr $C$DW$127, DW_AT_low_pc(0x00)
    1908                      .dwattr $C$DW$127, DW_AT_name("_printf")
    1909                      .dwattr $C$DW$127, DW_AT_TI_call
    1910 0004dc 6C00          CALL #_printf ; |640| 
         0004de 0000!
    1911                                                      ; call occurs [#_printf] ; |640| 
    1912                      .dwpsn  file "../c5535_bsl_revc/ezdsp5535_v1/c55xx_csl/ccs_v4.0_examples/nand/CSL_NAND_DmaExample/csl
    1913 0004e0 A46A          MOV *SP(#53), T0 ; |641| 
    1914 0004e2 0604          B $C$L72  ; |641| 
         0004e4 33   
    1915                                                      ; branch occurs ; |641| 
    1916 0004e5       $C$L36:    
    1917                      .dwpsn  file "../c5535_bsl_revc/ezdsp5535_v1/c55xx_csl/ccs_v4.0_examples/nand/CSL_NAND_DmaExample/csl
    1918 0004e5 ED38          MOV dbl(*SP(#28)), XAR0
         0004e7 8F   
    1919 0004e8 7600          MOV #128, T0 ; |645| 
         0004ea 8048 
    1920              $C$DW$128       .dwtag  DW_TAG_TI_branch
    1921                      .dwattr $C$DW$128, DW_AT_low_pc(0x00)
    1922                      .dwattr $C$DW$128, DW_AT_name("_NAND_sendCommand")
    1923                      .dwattr $C$DW$128, DW_AT_TI_call
    1924 0004ec 6C00          CALL #_NAND_sendCommand ; |645| 
         0004ee 0000!
    1925                                                      ; call occurs [#_NAND_sendCommand] ; |645| 
    1926 0004f0 C468          MOV T0, *SP(#52) ; |645| 
    1927                      .dwpsn  file "../c5535_bsl_revc/ezdsp5535_v1/c55xx_csl/ccs_v4.0_examples/nand/CSL_NAND_DmaExample/csl
    1928 0004f2 2249          MOV T0, AR1
    1929 0004f4 0409          BCC $C$L37,AR1 == #0 ; |646| 
         0004f6 12   
TMS320C55x Assembler PC v4.4.1 Sat Sep 29 23:08:57 2018

Tools Copyright (c) 1996-2012 Texas Instruments Incorporated
csl_nand_dma_example.asm                                             PAGE   49

    1930                                                      ; branchcc occurs ; |646| 
    1931                      .dwpsn  file "../c5535_bsl_revc/ezdsp5535_v1/c55xx_csl/ccs_v4.0_examples/nand/CSL_NAND_DmaExample/csl
    1932 0004f7 EC31          AMOV #$C$FSL32, XAR3 ; |648| 
         0004f9 BE00 
         0004fb 0210+
    1933 0004fd EB00          MOV XAR3, dbl(*SP(#0))
         0004ff B5   
    1934              $C$DW$129       .dwtag  DW_TAG_TI_branch
    1935                      .dwattr $C$DW$129, DW_AT_low_pc(0x00)
    1936                      .dwattr $C$DW$129, DW_AT_name("_printf")
    1937                      .dwattr $C$DW$129, DW_AT_TI_call
    1938 000500 6C00          CALL #_printf ; |648| 
         000502 0000!
    1939                                                      ; call occurs [#_printf] ; |648| 
    1940                      .dwpsn  file "../c5535_bsl_revc/ezdsp5535_v1/c55xx_csl/ccs_v4.0_examples/nand/CSL_NAND_DmaExample/csl
    1941 000504 A46A          MOV *SP(#53), T0 ; |649| 
    1942 000506 0604          B $C$L72  ; |649| 
         000508 0F   
    1943                                                      ; branch occurs ; |649| 
    1944 000509       $C$L37:    
    1945                      .dwpsn  file "../c5535_bsl_revc/ezdsp5535_v1/c55xx_csl/ccs_v4.0_examples/nand/CSL_NAND_DmaExample/csl
    1946 000509 ED38          MOV dbl(*SP(#28)), XAR0
         00050b 8F   
    1947              $C$DW$130       .dwtag  DW_TAG_TI_branch
    1948                      .dwattr $C$DW$130, DW_AT_low_pc(0x00)
    1949                      .dwattr $C$DW$130, DW_AT_name("_NAND_checkCommandStatus")
    1950                      .dwattr $C$DW$130, DW_AT_TI_call
    1951 00050c 6C00          CALL #_NAND_checkCommandStatus ; |653| 
         00050e 0000!
    1952                                                      ; call occurs [#_NAND_checkCommandStatus] ; |653| 
    1953 000510 C468          MOV T0, *SP(#52) ; |653| 
    1954                      .dwpsn  file "../c5535_bsl_revc/ezdsp5535_v1/c55xx_csl/ccs_v4.0_examples/nand/CSL_NAND_DmaExample/csl
    1955 000512 2249          MOV T0, AR1
    1956 000514 0409          BCC $C$L38,AR1 == #0 ; |654| 
         000516 12   
    1957                                                      ; branchcc occurs ; |654| 
    1958                      .dwpsn  file "../c5535_bsl_revc/ezdsp5535_v1/c55xx_csl/ccs_v4.0_examples/nand/CSL_NAND_DmaExample/csl
    1959 000517 EC31          AMOV #$C$FSL33, XAR3 ; |656| 
         000519 BE00 
         00051b 022C+
    1960 00051d EB00          MOV XAR3, dbl(*SP(#0))
         00051f B5   
    1961              $C$DW$131       .dwtag  DW_TAG_TI_branch
    1962                      .dwattr $C$DW$131, DW_AT_low_pc(0x00)
    1963                      .dwattr $C$DW$131, DW_AT_name("_printf")
    1964                      .dwattr $C$DW$131, DW_AT_TI_call
    1965 000520 6C00          CALL #_printf ; |656| 
         000522 0000!
    1966                                                      ; call occurs [#_printf] ; |656| 
    1967                      .dwpsn  file "../c5535_bsl_revc/ezdsp5535_v1/c55xx_csl/ccs_v4.0_examples/nand/CSL_NAND_DmaExample/csl
    1968 000524 A46A          MOV *SP(#53), T0 ; |657| 
    1969 000526 0603          B $C$L72  ; |657| 
         000528 EF   
    1970                                                      ; branch occurs ; |657| 
    1971 000529       $C$L38:    
TMS320C55x Assembler PC v4.4.1 Sat Sep 29 23:08:57 2018

Tools Copyright (c) 1996-2012 Texas Instruments Incorporated
csl_nand_dma_example.asm                                             PAGE   50

    1972                      .dwpsn  file "../c5535_bsl_revc/ezdsp5535_v1/c55xx_csl/ccs_v4.0_examples/nand/CSL_NAND_DmaExample/csl
    1973 000529 E676          MOV #0, *SP(#59) ; |661| 
         00052b 00   
    1974                      .dwpsn  file "../c5535_bsl_revc/ezdsp5535_v1/c55xx_csl/ccs_v4.0_examples/nand/CSL_NAND_DmaExample/csl
    1975 00052c E674          MOV #0, *SP(#58) ; |662| 
         00052e 00   
    1976                      .dwpsn  file "../c5535_bsl_revc/ezdsp5535_v1/c55xx_csl/ccs_v4.0_examples/nand/CSL_NAND_DmaExample/csl
    1977 00052f A931          MOV *(#_gColAddrCycles), AR1 ; |662| 
         000531 000B 
         000533 70-  
    1978 000534 AA74          MOV *SP(#58), AR2 ; |662| 
    1979 000536 12A8          CMPU AR2 >= AR1, TC1 ; |662| 
         000538 94   
    1980 000539 0464          BCC $C$L41,TC1 ; |662| 
         00053b 38   
    1981                                                      ; branchcc occurs ; |662| 
    1982 00053c       $C$L39:    
    1983 00053c       $C$DW$L$_CSL_nandDmaTest$52$B:
    1984                      .dwpsn  file "../c5535_bsl_revc/ezdsp5535_v1/c55xx_csl/ccs_v4.0_examples/nand/CSL_NAND_DmaExample/csl
    1985 00053c ED38          MOV dbl(*SP(#28)), XAR0
         00053e 8F   
    1986 00053f A476          MOV *SP(#59), T0 ; |664| 
    1987              $C$DW$132       .dwtag  DW_TAG_TI_branch
    1988                      .dwattr $C$DW$132, DW_AT_low_pc(0x00)
    1989                      .dwattr $C$DW$132, DW_AT_name("_NAND_setAddress")
    1990                      .dwattr $C$DW$132, DW_AT_TI_call
    1991 000541 6C00          CALL #_NAND_setAddress ; |664| 
         000543 0000!
    1992                                                      ; call occurs [#_NAND_setAddress] ; |664| 
    1993 000545 C468          MOV T0, *SP(#52) ; |664| 
    1994                      .dwpsn  file "../c5535_bsl_revc/ezdsp5535_v1/c55xx_csl/ccs_v4.0_examples/nand/CSL_NAND_DmaExample/csl
    1995 000547 2249          MOV T0, AR1
    1996 000549 0409          BCC $C$L40,AR1 == #0 ; |665| 
         00054b 12   
    1997                                                      ; branchcc occurs ; |665| 
    1998 00054c       $C$DW$L$_CSL_nandDmaTest$52$E:
    1999                      .dwpsn  file "../c5535_bsl_revc/ezdsp5535_v1/c55xx_csl/ccs_v4.0_examples/nand/CSL_NAND_DmaExample/csl
    2000 00054c EC31          AMOV #$C$FSL37, XAR3 ; |667| 
         00054e BE00 
         000550 02B4+
    2001 000552 EB00          MOV XAR3, dbl(*SP(#0))
         000554 B5   
    2002              $C$DW$133       .dwtag  DW_TAG_TI_branch
    2003                      .dwattr $C$DW$133, DW_AT_low_pc(0x00)
    2004                      .dwattr $C$DW$133, DW_AT_name("_printf")
    2005                      .dwattr $C$DW$133, DW_AT_TI_call
    2006 000555 6C00          CALL #_printf ; |667| 
         000557 0000!
    2007                                                      ; call occurs [#_printf] ; |667| 
    2008                      .dwpsn  file "../c5535_bsl_revc/ezdsp5535_v1/c55xx_csl/ccs_v4.0_examples/nand/CSL_NAND_DmaExample/csl
    2009 000559 A46A          MOV *SP(#53), T0 ; |668| 
    2010 00055b 0603          B $C$L72  ; |668| 
         00055d BA   
    2011                                                      ; branch occurs ; |668| 
    2012 00055e       $C$L40:    
TMS320C55x Assembler PC v4.4.1 Sat Sep 29 23:08:57 2018

Tools Copyright (c) 1996-2012 Texas Instruments Incorporated
csl_nand_dma_example.asm                                             PAGE   51

    2013 00055e       $C$DW$L$_CSL_nandDmaTest$54$B:
    2014                      .dwpsn  file "../c5535_bsl_revc/ezdsp5535_v1/c55xx_csl/ccs_v4.0_examples/nand/CSL_NAND_DmaExample/csl
    2015 00055e DF76          MOV uns(high_byte(*SP(#59))), AR1 ; |670| 
         000560 91   
    2016 000561 C976          MOV AR1, *SP(#59) ; |670| 
    2017                      .dwpsn  file "../c5535_bsl_revc/ezdsp5535_v1/c55xx_csl/ccs_v4.0_examples/nand/CSL_NAND_DmaExample/csl
    2018 000563 F774          ADD #1, *SP(#58) ; |662| 
         000565 0001 
    2019                      .dwpsn  file "../c5535_bsl_revc/ezdsp5535_v1/c55xx_csl/ccs_v4.0_examples/nand/CSL_NAND_DmaExample/csl
    2020 000567 A931          MOV *(#_gColAddrCycles), AR1 ; |662| 
         000569 000B 
         00056b 70-  
    2021 00056c AA74          MOV *SP(#58), AR2 ; |662| 
    2022 00056e 12A4          CMPU AR2 < AR1, TC1 ; |662| 
         000570 94   
    2023 000571 0464          BCC $C$L39,TC1 ; |662| 
         000573 C8   
    2024                                                      ; branchcc occurs ; |662| 
    2025 000574       $C$DW$L$_CSL_nandDmaTest$54$E:
    2026 000574       $C$L41:    
    2027                      .dwpsn  file "../c5535_bsl_revc/ezdsp5535_v1/c55xx_csl/ccs_v4.0_examples/nand/CSL_NAND_DmaExample/csl
    2028 000574 A931          MOV *(#(_gRowAddress+1)), AR1 ; |674| 
         000576 000B 
         000578 75-  
    2029 000579 C976          MOV AR1, *SP(#59) ; |674| 
    2030                      .dwpsn  file "../c5535_bsl_revc/ezdsp5535_v1/c55xx_csl/ccs_v4.0_examples/nand/CSL_NAND_DmaExample/csl
    2031 00057b E674          MOV #0, *SP(#58) ; |675| 
         00057d 00   
    2032                      .dwpsn  file "../c5535_bsl_revc/ezdsp5535_v1/c55xx_csl/ccs_v4.0_examples/nand/CSL_NAND_DmaExample/csl
    2033 00057e A931          MOV *(#_gRowAddrCycles), AR1 ; |675| 
         000580 000B 
         000582 6F-  
    2034 000583 AA74          MOV *SP(#58), AR2 ; |675| 
    2035 000585 12A8          CMPU AR2 >= AR1, TC1 ; |675| 
         000587 94   
    2036 000588 0464          BCC $C$L44,TC1 ; |675| 
         00058a 38   
    2037                                                      ; branchcc occurs ; |675| 
    2038 00058b       $C$L42:    
    2039 00058b       $C$DW$L$_CSL_nandDmaTest$56$B:
    2040                      .dwpsn  file "../c5535_bsl_revc/ezdsp5535_v1/c55xx_csl/ccs_v4.0_examples/nand/CSL_NAND_DmaExample/csl
    2041 00058b ED38          MOV dbl(*SP(#28)), XAR0
         00058d 8F   
    2042 00058e A476          MOV *SP(#59), T0 ; |677| 
    2043              $C$DW$134       .dwtag  DW_TAG_TI_branch
    2044                      .dwattr $C$DW$134, DW_AT_low_pc(0x00)
    2045                      .dwattr $C$DW$134, DW_AT_name("_NAND_setAddress")
    2046                      .dwattr $C$DW$134, DW_AT_TI_call
    2047 000590 6C00          CALL #_NAND_setAddress ; |677| 
         000592 0000!
    2048                                                      ; call occurs [#_NAND_setAddress] ; |677| 
    2049 000594 C468          MOV T0, *SP(#52) ; |677| 
    2050                      .dwpsn  file "../c5535_bsl_revc/ezdsp5535_v1/c55xx_csl/ccs_v4.0_examples/nand/CSL_NAND_DmaExample/csl
    2051 000596 2249          MOV T0, AR1
    2052 000598 0409          BCC $C$L43,AR1 == #0 ; |678| 
TMS320C55x Assembler PC v4.4.1 Sat Sep 29 23:08:57 2018

Tools Copyright (c) 1996-2012 Texas Instruments Incorporated
csl_nand_dma_example.asm                                             PAGE   52

         00059a 12   
    2053                                                      ; branchcc occurs ; |678| 
    2054 00059b       $C$DW$L$_CSL_nandDmaTest$56$E:
    2055                      .dwpsn  file "../c5535_bsl_revc/ezdsp5535_v1/c55xx_csl/ccs_v4.0_examples/nand/CSL_NAND_DmaExample/csl
    2056 00059b EC31          AMOV #$C$FSL37, XAR3 ; |680| 
         00059d BE00 
         00059f 02B4+
    2057 0005a1 EB00          MOV XAR3, dbl(*SP(#0))
         0005a3 B5   
    2058              $C$DW$135       .dwtag  DW_TAG_TI_branch
    2059                      .dwattr $C$DW$135, DW_AT_low_pc(0x00)
    2060                      .dwattr $C$DW$135, DW_AT_name("_printf")
    2061                      .dwattr $C$DW$135, DW_AT_TI_call
    2062 0005a4 6C00          CALL #_printf ; |680| 
         0005a6 0000!
    2063                                                      ; call occurs [#_printf] ; |680| 
    2064                      .dwpsn  file "../c5535_bsl_revc/ezdsp5535_v1/c55xx_csl/ccs_v4.0_examples/nand/CSL_NAND_DmaExample/csl
    2065 0005a8 A46A          MOV *SP(#53), T0 ; |681| 
    2066 0005aa 0603          B $C$L72  ; |681| 
         0005ac 6B   
    2067                                                      ; branch occurs ; |681| 
    2068 0005ad       $C$L43:    
    2069 0005ad       $C$DW$L$_CSL_nandDmaTest$58$B:
    2070                      .dwpsn  file "../c5535_bsl_revc/ezdsp5535_v1/c55xx_csl/ccs_v4.0_examples/nand/CSL_NAND_DmaExample/csl
    2071 0005ad DF76          MOV uns(high_byte(*SP(#59))), AR1 ; |683| 
         0005af 91   
    2072 0005b0 C976          MOV AR1, *SP(#59) ; |683| 
    2073                      .dwpsn  file "../c5535_bsl_revc/ezdsp5535_v1/c55xx_csl/ccs_v4.0_examples/nand/CSL_NAND_DmaExample/csl
    2074 0005b2 F774          ADD #1, *SP(#58) ; |675| 
         0005b4 0001 
    2075                      .dwpsn  file "../c5535_bsl_revc/ezdsp5535_v1/c55xx_csl/ccs_v4.0_examples/nand/CSL_NAND_DmaExample/csl
    2076 0005b6 A931          MOV *(#_gRowAddrCycles), AR1 ; |675| 
         0005b8 000B 
         0005ba 6F-  
    2077 0005bb AA74          MOV *SP(#58), AR2 ; |675| 
    2078 0005bd 12A4          CMPU AR2 < AR1, TC1 ; |675| 
         0005bf 94   
    2079 0005c0 0464          BCC $C$L42,TC1 ; |675| 
         0005c2 C8   
    2080                                                      ; branchcc occurs ; |675| 
    2081 0005c3       $C$DW$L$_CSL_nandDmaTest$58$E:
    2082 0005c3       $C$L44:    
    2083                      .dwpsn  file "../c5535_bsl_revc/ezdsp5535_v1/c55xx_csl/ccs_v4.0_examples/nand/CSL_NAND_DmaExample/csl
    2084 0005c3 ED38          MOV dbl(*SP(#28)), XAR0
         0005c5 8F   
    2085 0005c6 A40A          MOV *SP(#5), T0 ; |687| 
    2086              $C$DW$136       .dwtag  DW_TAG_TI_branch
    2087                      .dwattr $C$DW$136, DW_AT_low_pc(0x00)
    2088                      .dwattr $C$DW$136, DW_AT_name("_NAND_enableHwECC")
    2089                      .dwattr $C$DW$136, DW_AT_TI_call
    2090 0005c8 6C00          CALL #_NAND_enableHwECC ; |687| 
         0005ca 0000!
    2091                                                      ; call occurs [#_NAND_enableHwECC] ; |687| 
    2092 0005cc C468          MOV T0, *SP(#52) ; |687| 
    2093                      .dwpsn  file "../c5535_bsl_revc/ezdsp5535_v1/c55xx_csl/ccs_v4.0_examples/nand/CSL_NAND_DmaExample/csl
TMS320C55x Assembler PC v4.4.1 Sat Sep 29 23:08:57 2018

Tools Copyright (c) 1996-2012 Texas Instruments Incorporated
csl_nand_dma_example.asm                                             PAGE   53

    2094 0005ce 2249          MOV T0, AR1
    2095 0005d0 0409          BCC $C$L45,AR1 == #0 ; |688| 
         0005d2 12   
    2096                                                      ; branchcc occurs ; |688| 
    2097                      .dwpsn  file "../c5535_bsl_revc/ezdsp5535_v1/c55xx_csl/ccs_v4.0_examples/nand/CSL_NAND_DmaExample/csl
    2098 0005d3 EC31          AMOV #$C$FSL38, XAR3 ; |690| 
         0005d5 BE00 
         0005d7 02D0+
    2099 0005d9 EB00          MOV XAR3, dbl(*SP(#0))
         0005db B5   
    2100              $C$DW$137       .dwtag  DW_TAG_TI_branch
    2101                      .dwattr $C$DW$137, DW_AT_low_pc(0x00)
    2102                      .dwattr $C$DW$137, DW_AT_name("_printf")
    2103                      .dwattr $C$DW$137, DW_AT_TI_call
    2104 0005dc 6C00          CALL #_printf ; |690| 
         0005de 0000!
    2105                                                      ; call occurs [#_printf] ; |690| 
    2106                      .dwpsn  file "../c5535_bsl_revc/ezdsp5535_v1/c55xx_csl/ccs_v4.0_examples/nand/CSL_NAND_DmaExample/csl
    2107 0005e0 A46A          MOV *SP(#53), T0 ; |691| 
    2108 0005e2 0603          B $C$L72  ; |691| 
         0005e4 33   
    2109                                                      ; branch occurs ; |691| 
    2110 0005e5       $C$L45:    
    2111                      .dwpsn  file "../c5535_bsl_revc/ezdsp5535_v1/c55xx_csl/ccs_v4.0_examples/nand/CSL_NAND_DmaExample/csl
    2112 0005e5 F451          AND #0xfffc, *port(#7219) ; |695| 
         0005e7 FFFC 
         0005e9 1C33 
    2113                      .dwpsn  file "../c5535_bsl_revc/ezdsp5535_v1/c55xx_csl/ccs_v4.0_examples/nand/CSL_NAND_DmaExample/csl
    2114 0005eb ED31          MOV dbl(*(#_dmaWrHandle)), XAR0
         0005ed 8F00 
         0005ef 0800-
    2115              $C$DW$138       .dwtag  DW_TAG_TI_branch
    2116                      .dwattr $C$DW$138, DW_AT_low_pc(0x00)
    2117                      .dwattr $C$DW$138, DW_AT_name("_DMA_start")
    2118                      .dwattr $C$DW$138, DW_AT_TI_call
    2119 0005f1 6C00          CALL #_DMA_start ; |698| 
         0005f3 0000!
    2120                                                      ; call occurs [#_DMA_start] ; |698| 
    2121 0005f5 C468          MOV T0, *SP(#52) ; |698| 
    2122                      .dwpsn  file "../c5535_bsl_revc/ezdsp5535_v1/c55xx_csl/ccs_v4.0_examples/nand/CSL_NAND_DmaExample/csl
    2123 0005f7 2249          MOV T0, AR1
    2124 0005f9 0409          BCC $C$L46,AR1 == #0 ; |699| 
         0005fb 12   
    2125                                                      ; branchcc occurs ; |699| 
    2126                      .dwpsn  file "../c5535_bsl_revc/ezdsp5535_v1/c55xx_csl/ccs_v4.0_examples/nand/CSL_NAND_DmaExample/csl
    2127 0005fc EC31          AMOV #$C$FSL39, XAR3 ; |701| 
         0005fe BE00 
         000600 02EA+
    2128 000602 EB00          MOV XAR3, dbl(*SP(#0))
         000604 B5   
    2129              $C$DW$139       .dwtag  DW_TAG_TI_branch
    2130                      .dwattr $C$DW$139, DW_AT_low_pc(0x00)
    2131                      .dwattr $C$DW$139, DW_AT_name("_printf")
    2132                      .dwattr $C$DW$139, DW_AT_TI_call
    2133 000605 6C00          CALL #_printf ; |701| 
TMS320C55x Assembler PC v4.4.1 Sat Sep 29 23:08:57 2018

Tools Copyright (c) 1996-2012 Texas Instruments Incorporated
csl_nand_dma_example.asm                                             PAGE   54

         000607 0000!
    2134                                                      ; call occurs [#_printf] ; |701| 
    2135                      .dwpsn  file "../c5535_bsl_revc/ezdsp5535_v1/c55xx_csl/ccs_v4.0_examples/nand/CSL_NAND_DmaExample/csl
    2136 000609 A46A          MOV *SP(#53), T0 ; |702| 
    2137 00060b 0603          B $C$L72  ; |702| 
         00060d 0A   
    2138                                                      ; branch occurs ; |702| 
    2139 00060e       $C$L46:    
    2140                      .dwpsn  file "../c5535_bsl_revc/ezdsp5535_v1/c55xx_csl/ccs_v4.0_examples/nand/CSL_NAND_DmaExample/csl
    2141 00060e ED31          MOV dbl(*(#_dmaWrHandle)), XAR0
         000610 8F00 
         000612 0800-
    2142              $C$DW$140       .dwtag  DW_TAG_TI_branch
    2143                      .dwattr $C$DW$140, DW_AT_low_pc(0x00)
    2144                      .dwattr $C$DW$140, DW_AT_name("_DMA_getStatus")
    2145                      .dwattr $C$DW$140, DW_AT_TI_call
    2146 000614 08F9          CALL #_DMA_getStatus ; |706| 
         000616 E9   
    2147                                                      ; call occurs [#_DMA_getStatus] ; |706| 
    2148 000617 6604          BCC $C$L48,T0 == #0 ; |706| 
    2149                                                      ; branchcc occurs ; |706| 
    2150 000619       $C$L47:    
    2151 000619       $C$DW$L$_CSL_nandDmaTest$64$B:
    2152 000619 ED31          MOV dbl(*(#_dmaWrHandle)), XAR0
         00061b 8F00 
         00061d 0800-
    2153              $C$DW$141       .dwtag  DW_TAG_TI_branch
    2154                      .dwattr $C$DW$141, DW_AT_low_pc(0x00)
    2155                      .dwattr $C$DW$141, DW_AT_name("_DMA_getStatus")
    2156                      .dwattr $C$DW$141, DW_AT_TI_call
    2157 00061f 08F9          CALL #_DMA_getStatus ; |706| 
         000621 DE   
    2158                                                      ; call occurs [#_DMA_getStatus] ; |706| 
    2159 000622 0414          BCC $C$L47,T0 != #0 ; |706| 
         000624 F4   
    2160                                                      ; branchcc occurs ; |706| 
    2161 000625       $C$DW$L$_CSL_nandDmaTest$64$E:
    2162 000625       $C$L48:    
    2163                      .dwpsn  file "../c5535_bsl_revc/ezdsp5535_v1/c55xx_csl/ccs_v4.0_examples/nand/CSL_NAND_DmaExample/csl
    2164 000625 A951          MOV *port(#7219), AR1 ; |709| 
         000627 1C33 
    2165 000629 7DFF          AND #0xfffc, AR1, AC0 ; |709| 
         00062b FC09 
    2166 00062d EC02          BSET @#1, AC0 ; |709| 
         00062f 00   
    2167 000630 C051          MOV AC0, *port(#7219) ; |709| 
         000632 1C33 
    2168                      .dwpsn  file "../c5535_bsl_revc/ezdsp5535_v1/c55xx_csl/ccs_v4.0_examples/nand/CSL_NAND_DmaExample/csl
    2169 000634 EC31          AMOV #$C$FSL40, XAR3 ; |711| 
         000636 BE00 
         000638 0304+
    2170 00063a EB00          MOV XAR3, dbl(*SP(#0))
         00063c B5   
    2171              $C$DW$142       .dwtag  DW_TAG_TI_branch
    2172                      .dwattr $C$DW$142, DW_AT_low_pc(0x00)
TMS320C55x Assembler PC v4.4.1 Sat Sep 29 23:08:57 2018

Tools Copyright (c) 1996-2012 Texas Instruments Incorporated
csl_nand_dma_example.asm                                             PAGE   55

    2173                      .dwattr $C$DW$142, DW_AT_name("_printf")
    2174                      .dwattr $C$DW$142, DW_AT_TI_call
    2175 00063d 6C00          CALL #_printf ; |711| 
         00063f 0000!
    2176                                                      ; call occurs [#_printf] ; |711| 
    2177                      .dwpsn  file "../c5535_bsl_revc/ezdsp5535_v1/c55xx_csl/ccs_v4.0_examples/nand/CSL_NAND_DmaExample/csl
    2178 000641 A40A          MOV *SP(#5), T0 ; |714| 
    2179 000643 ED38          MOV dbl(*SP(#28)), XAR0
         000645 8F   
    2180 000646 EC78          AMAR *SP(#60), XAR1
         000648 9E   
    2181              $C$DW$143       .dwtag  DW_TAG_TI_branch
    2182                      .dwattr $C$DW$143, DW_AT_low_pc(0x00)
    2183                      .dwattr $C$DW$143, DW_AT_name("_NAND_readECC")
    2184                      .dwattr $C$DW$143, DW_AT_TI_call
    2185 000649 6C00          CALL #_NAND_readECC ; |714| 
         00064b 0000!
    2186                                                      ; call occurs [#_NAND_readECC] ; |714| 
    2187 00064d C468          MOV T0, *SP(#52) ; |714| 
    2188                      .dwpsn  file "../c5535_bsl_revc/ezdsp5535_v1/c55xx_csl/ccs_v4.0_examples/nand/CSL_NAND_DmaExample/csl
    2189 00064f 2249          MOV T0, AR1
    2190 000651 0409          BCC $C$L49,AR1 == #0 ; |715| 
         000653 12   
    2191                                                      ; branchcc occurs ; |715| 
    2192                      .dwpsn  file "../c5535_bsl_revc/ezdsp5535_v1/c55xx_csl/ccs_v4.0_examples/nand/CSL_NAND_DmaExample/csl
    2193 000654 EC31          AMOV #$C$FSL41, XAR3 ; |717| 
         000656 BE00 
         000658 0326+
    2194 00065a EB00          MOV XAR3, dbl(*SP(#0))
         00065c B5   
    2195              $C$DW$144       .dwtag  DW_TAG_TI_branch
    2196                      .dwattr $C$DW$144, DW_AT_low_pc(0x00)
    2197                      .dwattr $C$DW$144, DW_AT_name("_printf")
    2198                      .dwattr $C$DW$144, DW_AT_TI_call
    2199 00065d 6C00          CALL #_printf ; |717| 
         00065f 0000!
    2200                                                      ; call occurs [#_printf] ; |717| 
    2201                      .dwpsn  file "../c5535_bsl_revc/ezdsp5535_v1/c55xx_csl/ccs_v4.0_examples/nand/CSL_NAND_DmaExample/csl
    2202 000661 A46A          MOV *SP(#53), T0 ; |718| 
    2203 000663 0602          B $C$L72  ; |718| 
         000665 B2   
    2204                                                      ; branch occurs ; |718| 
    2205 000666       $C$L49:    
    2206                      .dwpsn  file "../c5535_bsl_revc/ezdsp5535_v1/c55xx_csl/ccs_v4.0_examples/nand/CSL_NAND_DmaExample/csl
    2207 000666 ED38          MOV dbl(*SP(#28)), XAR0
         000668 8F   
    2208 000669 A40A          MOV *SP(#5), T0 ; |722| 
    2209              $C$DW$145       .dwtag  DW_TAG_TI_branch
    2210                      .dwattr $C$DW$145, DW_AT_low_pc(0x00)
    2211                      .dwattr $C$DW$145, DW_AT_name("_NAND_disableHwECC")
    2212                      .dwattr $C$DW$145, DW_AT_TI_call
    2213 00066b 6C00          CALL #_NAND_disableHwECC ; |722| 
         00066d 0000!
    2214                                                      ; call occurs [#_NAND_disableHwECC] ; |722| 
    2215 00066f C468          MOV T0, *SP(#52) ; |722| 
TMS320C55x Assembler PC v4.4.1 Sat Sep 29 23:08:57 2018

Tools Copyright (c) 1996-2012 Texas Instruments Incorporated
csl_nand_dma_example.asm                                             PAGE   56

    2216                      .dwpsn  file "../c5535_bsl_revc/ezdsp5535_v1/c55xx_csl/ccs_v4.0_examples/nand/CSL_NAND_DmaExample/csl
    2217 000671 2249          MOV T0, AR1
    2218 000673 0409          BCC $C$L50,AR1 == #0 ; |723| 
         000675 12   
    2219                                                      ; branchcc occurs ; |723| 
    2220                      .dwpsn  file "../c5535_bsl_revc/ezdsp5535_v1/c55xx_csl/ccs_v4.0_examples/nand/CSL_NAND_DmaExample/csl
    2221 000676 EC31          AMOV #$C$FSL42, XAR3 ; |725| 
         000678 BE00 
         00067a 033E+
    2222 00067c EB00          MOV XAR3, dbl(*SP(#0))
         00067e B5   
    2223              $C$DW$146       .dwtag  DW_TAG_TI_branch
    2224                      .dwattr $C$DW$146, DW_AT_low_pc(0x00)
    2225                      .dwattr $C$DW$146, DW_AT_name("_printf")
    2226                      .dwattr $C$DW$146, DW_AT_TI_call
    2227 00067f 6C00          CALL #_printf ; |725| 
         000681 0000!
    2228                                                      ; call occurs [#_printf] ; |725| 
    2229                      .dwpsn  file "../c5535_bsl_revc/ezdsp5535_v1/c55xx_csl/ccs_v4.0_examples/nand/CSL_NAND_DmaExample/csl
    2230 000683 A46A          MOV *SP(#53), T0 ; |726| 
    2231 000685 0602          B $C$L72  ; |726| 
         000687 90   
    2232                                                      ; branch occurs ; |726| 
    2233 000688       $C$L50:    
    2234                      .dwpsn  file "../c5535_bsl_revc/ezdsp5535_v1/c55xx_csl/ccs_v4.0_examples/nand/CSL_NAND_DmaExample/csl
    2235 000688 ED38          MOV dbl(*SP(#28)), XAR0
         00068a 8F   
    2236 00068b 7600          MOV #16, T0 ; |730| 
         00068d 1048 
    2237              $C$DW$147       .dwtag  DW_TAG_TI_branch
    2238                      .dwattr $C$DW$147, DW_AT_low_pc(0x00)
    2239                      .dwattr $C$DW$147, DW_AT_name("_NAND_sendCommand")
    2240                      .dwattr $C$DW$147, DW_AT_TI_call
    2241 00068f 6C00          CALL #_NAND_sendCommand ; |730| 
         000691 0000!
    2242                                                      ; call occurs [#_NAND_sendCommand] ; |730| 
    2243 000693 C468          MOV T0, *SP(#52) ; |730| 
    2244                      .dwpsn  file "../c5535_bsl_revc/ezdsp5535_v1/c55xx_csl/ccs_v4.0_examples/nand/CSL_NAND_DmaExample/csl
    2245 000695 2249          MOV T0, AR1
    2246 000697 0409          BCC $C$L51,AR1 == #0 ; |731| 
         000699 12   
    2247                                                      ; branchcc occurs ; |731| 
    2248                      .dwpsn  file "../c5535_bsl_revc/ezdsp5535_v1/c55xx_csl/ccs_v4.0_examples/nand/CSL_NAND_DmaExample/csl
    2249 00069a EC31          AMOV #$C$FSL32, XAR3 ; |733| 
         00069c BE00 
         00069e 0210+
    2250 0006a0 EB00          MOV XAR3, dbl(*SP(#0))
         0006a2 B5   
    2251              $C$DW$148       .dwtag  DW_TAG_TI_branch
    2252                      .dwattr $C$DW$148, DW_AT_low_pc(0x00)
    2253                      .dwattr $C$DW$148, DW_AT_name("_printf")
    2254                      .dwattr $C$DW$148, DW_AT_TI_call
    2255 0006a3 6C00          CALL #_printf ; |733| 
         0006a5 0000!
    2256                                                      ; call occurs [#_printf] ; |733| 
TMS320C55x Assembler PC v4.4.1 Sat Sep 29 23:08:57 2018

Tools Copyright (c) 1996-2012 Texas Instruments Incorporated
csl_nand_dma_example.asm                                             PAGE   57

    2257                      .dwpsn  file "../c5535_bsl_revc/ezdsp5535_v1/c55xx_csl/ccs_v4.0_examples/nand/CSL_NAND_DmaExample/csl
    2258 0006a7 A46A          MOV *SP(#53), T0 ; |734| 
    2259 0006a9 0602          B $C$L72  ; |734| 
         0006ab 6C   
    2260                                                      ; branch occurs ; |734| 
    2261 0006ac       $C$L51:    
    2262                      .dwpsn  file "../c5535_bsl_revc/ezdsp5535_v1/c55xx_csl/ccs_v4.0_examples/nand/CSL_NAND_DmaExample/csl
    2263 0006ac ED38          MOV dbl(*SP(#28)), XAR0
         0006ae 8F   
    2264              $C$DW$149       .dwtag  DW_TAG_TI_branch
    2265                      .dwattr $C$DW$149, DW_AT_low_pc(0x00)
    2266                      .dwattr $C$DW$149, DW_AT_name("_NAND_checkCommandStatus")
    2267                      .dwattr $C$DW$149, DW_AT_TI_call
    2268 0006af 6C00          CALL #_NAND_checkCommandStatus ; |738| 
         0006b1 0000!
    2269                                                      ; call occurs [#_NAND_checkCommandStatus] ; |738| 
    2270 0006b3 C468          MOV T0, *SP(#52) ; |738| 
    2271                      .dwpsn  file "../c5535_bsl_revc/ezdsp5535_v1/c55xx_csl/ccs_v4.0_examples/nand/CSL_NAND_DmaExample/csl
    2272 0006b5 2249          MOV T0, AR1
    2273 0006b7 0409          BCC $C$L52,AR1 == #0 ; |739| 
         0006b9 12   
    2274                                                      ; branchcc occurs ; |739| 
    2275                      .dwpsn  file "../c5535_bsl_revc/ezdsp5535_v1/c55xx_csl/ccs_v4.0_examples/nand/CSL_NAND_DmaExample/csl
    2276 0006ba EC31          AMOV #$C$FSL33, XAR3 ; |741| 
         0006bc BE00 
         0006be 022C+
    2277 0006c0 EB00          MOV XAR3, dbl(*SP(#0))
         0006c2 B5   
    2278              $C$DW$150       .dwtag  DW_TAG_TI_branch
    2279                      .dwattr $C$DW$150, DW_AT_low_pc(0x00)
    2280                      .dwattr $C$DW$150, DW_AT_name("_printf")
    2281                      .dwattr $C$DW$150, DW_AT_TI_call
    2282 0006c3 6C00          CALL #_printf ; |741| 
         0006c5 0000!
    2283                                                      ; call occurs [#_printf] ; |741| 
    2284                      .dwpsn  file "../c5535_bsl_revc/ezdsp5535_v1/c55xx_csl/ccs_v4.0_examples/nand/CSL_NAND_DmaExample/csl
    2285 0006c7 A46A          MOV *SP(#53), T0 ; |742| 
    2286 0006c9 0602          B $C$L72  ; |742| 
         0006cb 4C   
    2287                                                      ; branch occurs ; |742| 
    2288 0006cc       $C$L52:    
    2289                      .dwpsn  file "../c5535_bsl_revc/ezdsp5535_v1/c55xx_csl/ccs_v4.0_examples/nand/CSL_NAND_DmaExample/csl
    2290 0006cc ED38          MOV dbl(*SP(#28)), XAR0
         0006ce 8F   
    2291              $C$DW$151       .dwtag  DW_TAG_TI_branch
    2292                      .dwattr $C$DW$151, DW_AT_low_pc(0x00)
    2293                      .dwattr $C$DW$151, DW_AT_name("_NAND_sendCommand")
    2294                      .dwattr $C$DW$151, DW_AT_TI_call
    2295              
    2296 0006cf 6C00          CALL #_NAND_sendCommand ; |746| 
         0006d1 0000!
    2297 0006d3 3D04  ||      MOV #0, T0
    2298              
    2299                                                      ; call occurs [#_NAND_sendCommand] ; |746| 
    2300 0006d5 C468          MOV T0, *SP(#52) ; |746| 
TMS320C55x Assembler PC v4.4.1 Sat Sep 29 23:08:57 2018

Tools Copyright (c) 1996-2012 Texas Instruments Incorporated
csl_nand_dma_example.asm                                             PAGE   58

    2301                      .dwpsn  file "../c5535_bsl_revc/ezdsp5535_v1/c55xx_csl/ccs_v4.0_examples/nand/CSL_NAND_DmaExample/csl
    2302 0006d7 2249          MOV T0, AR1
    2303 0006d9 0409          BCC $C$L53,AR1 == #0 ; |747| 
         0006db 12   
    2304                                                      ; branchcc occurs ; |747| 
    2305                      .dwpsn  file "../c5535_bsl_revc/ezdsp5535_v1/c55xx_csl/ccs_v4.0_examples/nand/CSL_NAND_DmaExample/csl
    2306 0006dc EC31          AMOV #$C$FSL32, XAR3 ; |749| 
         0006de BE00 
         0006e0 0210+
    2307 0006e2 EB00          MOV XAR3, dbl(*SP(#0))
         0006e4 B5   
    2308              $C$DW$152       .dwtag  DW_TAG_TI_branch
    2309                      .dwattr $C$DW$152, DW_AT_low_pc(0x00)
    2310                      .dwattr $C$DW$152, DW_AT_name("_printf")
    2311                      .dwattr $C$DW$152, DW_AT_TI_call
    2312 0006e5 6C00          CALL #_printf ; |749| 
         0006e7 0000!
    2313                                                      ; call occurs [#_printf] ; |749| 
    2314                      .dwpsn  file "../c5535_bsl_revc/ezdsp5535_v1/c55xx_csl/ccs_v4.0_examples/nand/CSL_NAND_DmaExample/csl
    2315 0006e9 A46A          MOV *SP(#53), T0 ; |750| 
    2316 0006eb 0602          B $C$L72  ; |750| 
         0006ed 2A   
    2317                                                      ; branch occurs ; |750| 
    2318 0006ee       $C$L53:    
    2319                      .dwpsn  file "../c5535_bsl_revc/ezdsp5535_v1/c55xx_csl/ccs_v4.0_examples/nand/CSL_NAND_DmaExample/csl
    2320 0006ee ED38          MOV dbl(*SP(#28)), XAR0
         0006f0 8F   
    2321              $C$DW$153       .dwtag  DW_TAG_TI_branch
    2322                      .dwattr $C$DW$153, DW_AT_low_pc(0x00)
    2323                      .dwattr $C$DW$153, DW_AT_name("_NAND_checkCommandStatus")
    2324                      .dwattr $C$DW$153, DW_AT_TI_call
    2325 0006f1 6C00          CALL #_NAND_checkCommandStatus ; |754| 
         0006f3 0000!
    2326                                                      ; call occurs [#_NAND_checkCommandStatus] ; |754| 
    2327 0006f5 C468          MOV T0, *SP(#52) ; |754| 
    2328                      .dwpsn  file "../c5535_bsl_revc/ezdsp5535_v1/c55xx_csl/ccs_v4.0_examples/nand/CSL_NAND_DmaExample/csl
    2329 0006f7 2249          MOV T0, AR1
    2330 0006f9 0409          BCC $C$L54,AR1 == #0 ; |755| 
         0006fb 12   
    2331                                                      ; branchcc occurs ; |755| 
    2332                      .dwpsn  file "../c5535_bsl_revc/ezdsp5535_v1/c55xx_csl/ccs_v4.0_examples/nand/CSL_NAND_DmaExample/csl
    2333 0006fc EC31          AMOV #$C$FSL33, XAR3 ; |757| 
         0006fe BE00 
         000700 022C+
    2334 000702 EB00          MOV XAR3, dbl(*SP(#0))
         000704 B5   
    2335              $C$DW$154       .dwtag  DW_TAG_TI_branch
    2336                      .dwattr $C$DW$154, DW_AT_low_pc(0x00)
    2337                      .dwattr $C$DW$154, DW_AT_name("_printf")
    2338                      .dwattr $C$DW$154, DW_AT_TI_call
    2339 000705 6C00          CALL #_printf ; |757| 
         000707 0000!
    2340                                                      ; call occurs [#_printf] ; |757| 
    2341                      .dwpsn  file "../c5535_bsl_revc/ezdsp5535_v1/c55xx_csl/ccs_v4.0_examples/nand/CSL_NAND_DmaExample/csl
    2342 000709 A46A          MOV *SP(#53), T0 ; |758| 
TMS320C55x Assembler PC v4.4.1 Sat Sep 29 23:08:57 2018

Tools Copyright (c) 1996-2012 Texas Instruments Incorporated
csl_nand_dma_example.asm                                             PAGE   59

    2343 00070b 0602          B $C$L72  ; |758| 
         00070d 0A   
    2344                                                      ; branch occurs ; |758| 
    2345 00070e       $C$L54:    
    2346                      .dwpsn  file "../c5535_bsl_revc/ezdsp5535_v1/c55xx_csl/ccs_v4.0_examples/nand/CSL_NAND_DmaExample/csl
    2347 00070e E676          MOV #0, *SP(#59) ; |762| 
         000710 00   
    2348                      .dwpsn  file "../c5535_bsl_revc/ezdsp5535_v1/c55xx_csl/ccs_v4.0_examples/nand/CSL_NAND_DmaExample/csl
    2349 000711 E674          MOV #0, *SP(#58) ; |763| 
         000713 00   
    2350                      .dwpsn  file "../c5535_bsl_revc/ezdsp5535_v1/c55xx_csl/ccs_v4.0_examples/nand/CSL_NAND_DmaExample/csl
    2351 000714 A931          MOV *(#_gColAddrCycles), AR1 ; |763| 
         000716 000B 
         000718 70-  
    2352 000719 AA74          MOV *SP(#58), AR2 ; |763| 
    2353 00071b 12A8          CMPU AR2 >= AR1, TC1 ; |763| 
         00071d 94   
    2354 00071e 0464          BCC $C$L57,TC1 ; |763| 
         000720 38   
    2355                                                      ; branchcc occurs ; |763| 
    2356 000721       $C$L55:    
    2357 000721       $C$DW$L$_CSL_nandDmaTest$78$B:
    2358                      .dwpsn  file "../c5535_bsl_revc/ezdsp5535_v1/c55xx_csl/ccs_v4.0_examples/nand/CSL_NAND_DmaExample/csl
    2359 000721 ED38          MOV dbl(*SP(#28)), XAR0
         000723 8F   
    2360 000724 A476          MOV *SP(#59), T0 ; |765| 
    2361              $C$DW$155       .dwtag  DW_TAG_TI_branch
    2362                      .dwattr $C$DW$155, DW_AT_low_pc(0x00)
    2363                      .dwattr $C$DW$155, DW_AT_name("_NAND_setAddress")
    2364                      .dwattr $C$DW$155, DW_AT_TI_call
    2365 000726 6C00          CALL #_NAND_setAddress ; |765| 
         000728 0000!
    2366                                                      ; call occurs [#_NAND_setAddress] ; |765| 
    2367 00072a C468          MOV T0, *SP(#52) ; |765| 
    2368                      .dwpsn  file "../c5535_bsl_revc/ezdsp5535_v1/c55xx_csl/ccs_v4.0_examples/nand/CSL_NAND_DmaExample/csl
    2369 00072c 2249          MOV T0, AR1
    2370 00072e 0409          BCC $C$L56,AR1 == #0 ; |766| 
         000730 12   
    2371                                                      ; branchcc occurs ; |766| 
    2372 000731       $C$DW$L$_CSL_nandDmaTest$78$E:
    2373                      .dwpsn  file "../c5535_bsl_revc/ezdsp5535_v1/c55xx_csl/ccs_v4.0_examples/nand/CSL_NAND_DmaExample/csl
    2374 000731 EC31          AMOV #$C$FSL37, XAR3 ; |768| 
         000733 BE00 
         000735 02B4+
    2375 000737 EB00          MOV XAR3, dbl(*SP(#0))
         000739 B5   
    2376              $C$DW$156       .dwtag  DW_TAG_TI_branch
    2377                      .dwattr $C$DW$156, DW_AT_low_pc(0x00)
    2378                      .dwattr $C$DW$156, DW_AT_name("_printf")
    2379                      .dwattr $C$DW$156, DW_AT_TI_call
    2380 00073a 6C00          CALL #_printf ; |768| 
         00073c 0000!
    2381                                                      ; call occurs [#_printf] ; |768| 
    2382                      .dwpsn  file "../c5535_bsl_revc/ezdsp5535_v1/c55xx_csl/ccs_v4.0_examples/nand/CSL_NAND_DmaExample/csl
    2383 00073e A46A          MOV *SP(#53), T0 ; |769| 
TMS320C55x Assembler PC v4.4.1 Sat Sep 29 23:08:57 2018

Tools Copyright (c) 1996-2012 Texas Instruments Incorporated
csl_nand_dma_example.asm                                             PAGE   60

    2384 000740 0601          B $C$L72  ; |769| 
         000742 D5   
    2385                                                      ; branch occurs ; |769| 
    2386 000743       $C$L56:    
    2387 000743       $C$DW$L$_CSL_nandDmaTest$80$B:
    2388                      .dwpsn  file "../c5535_bsl_revc/ezdsp5535_v1/c55xx_csl/ccs_v4.0_examples/nand/CSL_NAND_DmaExample/csl
    2389 000743 DF76          MOV uns(high_byte(*SP(#59))), AR1 ; |771| 
         000745 91   
    2390 000746 C976          MOV AR1, *SP(#59) ; |771| 
    2391                      .dwpsn  file "../c5535_bsl_revc/ezdsp5535_v1/c55xx_csl/ccs_v4.0_examples/nand/CSL_NAND_DmaExample/csl
    2392 000748 F774          ADD #1, *SP(#58) ; |763| 
         00074a 0001 
    2393                      .dwpsn  file "../c5535_bsl_revc/ezdsp5535_v1/c55xx_csl/ccs_v4.0_examples/nand/CSL_NAND_DmaExample/csl
    2394 00074c A931          MOV *(#_gColAddrCycles), AR1 ; |763| 
         00074e 000B 
         000750 70-  
    2395 000751 AA74          MOV *SP(#58), AR2 ; |763| 
    2396 000753 12A4          CMPU AR2 < AR1, TC1 ; |763| 
         000755 94   
    2397 000756 0464          BCC $C$L55,TC1 ; |763| 
         000758 C8   
    2398                                                      ; branchcc occurs ; |763| 
    2399 000759       $C$DW$L$_CSL_nandDmaTest$80$E:
    2400 000759       $C$L57:    
    2401                      .dwpsn  file "../c5535_bsl_revc/ezdsp5535_v1/c55xx_csl/ccs_v4.0_examples/nand/CSL_NAND_DmaExample/csl
    2402 000759 A931          MOV *(#(_gRowAddress+1)), AR1 ; |775| 
         00075b 000B 
         00075d 75-  
    2403 00075e C976          MOV AR1, *SP(#59) ; |775| 
    2404                      .dwpsn  file "../c5535_bsl_revc/ezdsp5535_v1/c55xx_csl/ccs_v4.0_examples/nand/CSL_NAND_DmaExample/csl
    2405 000760 E674          MOV #0, *SP(#58) ; |776| 
         000762 00   
    2406                      .dwpsn  file "../c5535_bsl_revc/ezdsp5535_v1/c55xx_csl/ccs_v4.0_examples/nand/CSL_NAND_DmaExample/csl
    2407 000763 A931          MOV *(#_gRowAddrCycles), AR1 ; |776| 
         000765 000B 
         000767 6F-  
    2408 000768 AA74          MOV *SP(#58), AR2 ; |776| 
    2409 00076a 12A8          CMPU AR2 >= AR1, TC1 ; |776| 
         00076c 94   
    2410 00076d 0464          BCC $C$L60,TC1 ; |776| 
         00076f 38   
    2411                                                      ; branchcc occurs ; |776| 
    2412 000770       $C$L58:    
    2413 000770       $C$DW$L$_CSL_nandDmaTest$82$B:
    2414                      .dwpsn  file "../c5535_bsl_revc/ezdsp5535_v1/c55xx_csl/ccs_v4.0_examples/nand/CSL_NAND_DmaExample/csl
    2415 000770 ED38          MOV dbl(*SP(#28)), XAR0
         000772 8F   
    2416 000773 A476          MOV *SP(#59), T0 ; |778| 
    2417              $C$DW$157       .dwtag  DW_TAG_TI_branch
    2418                      .dwattr $C$DW$157, DW_AT_low_pc(0x00)
    2419                      .dwattr $C$DW$157, DW_AT_name("_NAND_setAddress")
    2420                      .dwattr $C$DW$157, DW_AT_TI_call
    2421 000775 6C00          CALL #_NAND_setAddress ; |778| 
         000777 0000!
    2422                                                      ; call occurs [#_NAND_setAddress] ; |778| 
TMS320C55x Assembler PC v4.4.1 Sat Sep 29 23:08:57 2018

Tools Copyright (c) 1996-2012 Texas Instruments Incorporated
csl_nand_dma_example.asm                                             PAGE   61

    2423 000779 C468          MOV T0, *SP(#52) ; |778| 
    2424                      .dwpsn  file "../c5535_bsl_revc/ezdsp5535_v1/c55xx_csl/ccs_v4.0_examples/nand/CSL_NAND_DmaExample/csl
    2425 00077b 2249          MOV T0, AR1
    2426 00077d 0409          BCC $C$L59,AR1 == #0 ; |779| 
         00077f 12   
    2427                                                      ; branchcc occurs ; |779| 
    2428 000780       $C$DW$L$_CSL_nandDmaTest$82$E:
    2429                      .dwpsn  file "../c5535_bsl_revc/ezdsp5535_v1/c55xx_csl/ccs_v4.0_examples/nand/CSL_NAND_DmaExample/csl
    2430 000780 EC31          AMOV #$C$FSL37, XAR3 ; |781| 
         000782 BE00 
         000784 02B4+
    2431 000786 EB00          MOV XAR3, dbl(*SP(#0))
         000788 B5   
    2432              $C$DW$158       .dwtag  DW_TAG_TI_branch
    2433                      .dwattr $C$DW$158, DW_AT_low_pc(0x00)
    2434                      .dwattr $C$DW$158, DW_AT_name("_printf")
    2435                      .dwattr $C$DW$158, DW_AT_TI_call
    2436 000789 6C00          CALL #_printf ; |781| 
         00078b 0000!
    2437                                                      ; call occurs [#_printf] ; |781| 
    2438                      .dwpsn  file "../c5535_bsl_revc/ezdsp5535_v1/c55xx_csl/ccs_v4.0_examples/nand/CSL_NAND_DmaExample/csl
    2439 00078d A46A          MOV *SP(#53), T0 ; |782| 
    2440 00078f 0601          B $C$L72  ; |782| 
         000791 86   
    2441                                                      ; branch occurs ; |782| 
    2442 000792       $C$L59:    
    2443 000792       $C$DW$L$_CSL_nandDmaTest$84$B:
    2444                      .dwpsn  file "../c5535_bsl_revc/ezdsp5535_v1/c55xx_csl/ccs_v4.0_examples/nand/CSL_NAND_DmaExample/csl
    2445 000792 DF76          MOV uns(high_byte(*SP(#59))), AR1 ; |784| 
         000794 91   
    2446 000795 C976          MOV AR1, *SP(#59) ; |784| 
    2447                      .dwpsn  file "../c5535_bsl_revc/ezdsp5535_v1/c55xx_csl/ccs_v4.0_examples/nand/CSL_NAND_DmaExample/csl
    2448 000797 F774          ADD #1, *SP(#58) ; |776| 
         000799 0001 
    2449                      .dwpsn  file "../c5535_bsl_revc/ezdsp5535_v1/c55xx_csl/ccs_v4.0_examples/nand/CSL_NAND_DmaExample/csl
    2450 00079b A931          MOV *(#_gRowAddrCycles), AR1 ; |776| 
         00079d 000B 
         00079f 6F-  
    2451 0007a0 AA74          MOV *SP(#58), AR2 ; |776| 
    2452 0007a2 12A4          CMPU AR2 < AR1, TC1 ; |776| 
         0007a4 94   
    2453 0007a5 0464          BCC $C$L58,TC1 ; |776| 
         0007a7 C8   
    2454                                                      ; branchcc occurs ; |776| 
    2455 0007a8       $C$DW$L$_CSL_nandDmaTest$84$E:
    2456 0007a8       $C$L60:    
    2457                      .dwpsn  file "../c5535_bsl_revc/ezdsp5535_v1/c55xx_csl/ccs_v4.0_examples/nand/CSL_NAND_DmaExample/csl
    2458 0007a8 F031          CMP *(#_gNandType) == #1, TC1 ; |788| 
         0007aa 0001 
         0007ac 000B 
         0007ae 6C-  
    2459 0007af 0474          BCC $C$L61,!TC1 ; |788| 
         0007b1 24   
    2460                                                      ; branchcc occurs ; |788| 
    2461                      .dwpsn  file "../c5535_bsl_revc/ezdsp5535_v1/c55xx_csl/ccs_v4.0_examples/nand/CSL_NAND_DmaExample/csl
TMS320C55x Assembler PC v4.4.1 Sat Sep 29 23:08:57 2018

Tools Copyright (c) 1996-2012 Texas Instruments Incorporated
csl_nand_dma_example.asm                                             PAGE   62

    2462 0007b2 ED38          MOV dbl(*SP(#28)), XAR0
         0007b4 8F   
    2463 0007b5 7600          MOV #48, T0 ; |791| 
         0007b7 3048 
    2464              $C$DW$159       .dwtag  DW_TAG_TI_branch
    2465                      .dwattr $C$DW$159, DW_AT_low_pc(0x00)
    2466                      .dwattr $C$DW$159, DW_AT_name("_NAND_sendCommand")
    2467                      .dwattr $C$DW$159, DW_AT_TI_call
    2468 0007b9 6C00          CALL #_NAND_sendCommand ; |791| 
         0007bb 0000!
    2469                                                      ; call occurs [#_NAND_sendCommand] ; |791| 
    2470 0007bd C468          MOV T0, *SP(#52) ; |791| 
    2471                      .dwpsn  file "../c5535_bsl_revc/ezdsp5535_v1/c55xx_csl/ccs_v4.0_examples/nand/CSL_NAND_DmaExample/csl
    2472 0007bf 2249          MOV T0, AR1
    2473 0007c1 0409          BCC $C$L61,AR1 == #0 ; |792| 
         0007c3 12   
    2474                                                      ; branchcc occurs ; |792| 
    2475                      .dwpsn  file "../c5535_bsl_revc/ezdsp5535_v1/c55xx_csl/ccs_v4.0_examples/nand/CSL_NAND_DmaExample/csl
    2476 0007c4 EC31          AMOV #$C$FSL32, XAR3 ; |794| 
         0007c6 BE00 
         0007c8 0210+
    2477 0007ca EB00          MOV XAR3, dbl(*SP(#0))
         0007cc B5   
    2478              $C$DW$160       .dwtag  DW_TAG_TI_branch
    2479                      .dwattr $C$DW$160, DW_AT_low_pc(0x00)
    2480                      .dwattr $C$DW$160, DW_AT_name("_printf")
    2481                      .dwattr $C$DW$160, DW_AT_TI_call
    2482 0007cd 6C00          CALL #_printf ; |794| 
         0007cf 0000!
    2483                                                      ; call occurs [#_printf] ; |794| 
    2484                      .dwpsn  file "../c5535_bsl_revc/ezdsp5535_v1/c55xx_csl/ccs_v4.0_examples/nand/CSL_NAND_DmaExample/csl
    2485 0007d1 A46A          MOV *SP(#53), T0 ; |795| 
    2486 0007d3 0601          B $C$L72  ; |795| 
         0007d5 42   
    2487                                                      ; branch occurs ; |795| 
    2488 0007d6       $C$L61:    
    2489                      .dwpsn  file "../c5535_bsl_revc/ezdsp5535_v1/c55xx_csl/ccs_v4.0_examples/nand/CSL_NAND_DmaExample/csl
    2490 0007d6 ED38          MOV dbl(*SP(#28)), XAR0
         0007d8 8F   
    2491              $C$DW$161       .dwtag  DW_TAG_TI_branch
    2492                      .dwattr $C$DW$161, DW_AT_low_pc(0x00)
    2493                      .dwattr $C$DW$161, DW_AT_name("_NAND_checkCommandStatus")
    2494                      .dwattr $C$DW$161, DW_AT_TI_call
    2495 0007d9 6C00          CALL #_NAND_checkCommandStatus ; |800| 
         0007db 0000!
    2496                                                      ; call occurs [#_NAND_checkCommandStatus] ; |800| 
    2497 0007dd C468          MOV T0, *SP(#52) ; |800| 
    2498                      .dwpsn  file "../c5535_bsl_revc/ezdsp5535_v1/c55xx_csl/ccs_v4.0_examples/nand/CSL_NAND_DmaExample/csl
    2499 0007df 2249          MOV T0, AR1
    2500 0007e1 0409          BCC $C$L62,AR1 == #0 ; |801| 
         0007e3 12   
    2501                                                      ; branchcc occurs ; |801| 
    2502                      .dwpsn  file "../c5535_bsl_revc/ezdsp5535_v1/c55xx_csl/ccs_v4.0_examples/nand/CSL_NAND_DmaExample/csl
    2503 0007e4 EC31          AMOV #$C$FSL33, XAR3 ; |803| 
         0007e6 BE00 
TMS320C55x Assembler PC v4.4.1 Sat Sep 29 23:08:57 2018

Tools Copyright (c) 1996-2012 Texas Instruments Incorporated
csl_nand_dma_example.asm                                             PAGE   63

         0007e8 022C+
    2504 0007ea EB00          MOV XAR3, dbl(*SP(#0))
         0007ec B5   
    2505              $C$DW$162       .dwtag  DW_TAG_TI_branch
    2506                      .dwattr $C$DW$162, DW_AT_low_pc(0x00)
    2507                      .dwattr $C$DW$162, DW_AT_name("_printf")
    2508                      .dwattr $C$DW$162, DW_AT_TI_call
    2509 0007ed 6C00          CALL #_printf ; |803| 
         0007ef 0000!
    2510                                                      ; call occurs [#_printf] ; |803| 
    2511                      .dwpsn  file "../c5535_bsl_revc/ezdsp5535_v1/c55xx_csl/ccs_v4.0_examples/nand/CSL_NAND_DmaExample/csl
    2512 0007f1 A46A          MOV *SP(#53), T0 ; |804| 
    2513 0007f3 0601          B $C$L72  ; |804| 
         0007f5 22   
    2514                                                      ; branch occurs ; |804| 
    2515 0007f6       $C$L62:    
    2516                      .dwpsn  file "../c5535_bsl_revc/ezdsp5535_v1/c55xx_csl/ccs_v4.0_examples/nand/CSL_NAND_DmaExample/csl
    2517 0007f6 ED38          MOV dbl(*SP(#28)), XAR0
         0007f8 8F   
    2518 0007f9 A40A          MOV *SP(#5), T0 ; |808| 
    2519              $C$DW$163       .dwtag  DW_TAG_TI_branch
    2520                      .dwattr $C$DW$163, DW_AT_low_pc(0x00)
    2521                      .dwattr $C$DW$163, DW_AT_name("_NAND_enableHwECC")
    2522                      .dwattr $C$DW$163, DW_AT_TI_call
    2523 0007fb 6C00          CALL #_NAND_enableHwECC ; |808| 
         0007fd 0000!
    2524                                                      ; call occurs [#_NAND_enableHwECC] ; |808| 
    2525 0007ff C468          MOV T0, *SP(#52) ; |808| 
    2526                      .dwpsn  file "../c5535_bsl_revc/ezdsp5535_v1/c55xx_csl/ccs_v4.0_examples/nand/CSL_NAND_DmaExample/csl
    2527 000801 2249          MOV T0, AR1
    2528 000803 0409          BCC $C$L63,AR1 == #0 ; |809| 
         000805 12   
    2529                                                      ; branchcc occurs ; |809| 
    2530                      .dwpsn  file "../c5535_bsl_revc/ezdsp5535_v1/c55xx_csl/ccs_v4.0_examples/nand/CSL_NAND_DmaExample/csl
    2531 000806 EC31          AMOV #$C$FSL38, XAR3 ; |811| 
         000808 BE00 
         00080a 02D0+
    2532 00080c EB00          MOV XAR3, dbl(*SP(#0))
         00080e B5   
    2533              $C$DW$164       .dwtag  DW_TAG_TI_branch
    2534                      .dwattr $C$DW$164, DW_AT_low_pc(0x00)
    2535                      .dwattr $C$DW$164, DW_AT_name("_printf")
    2536                      .dwattr $C$DW$164, DW_AT_TI_call
    2537 00080f 6C00          CALL #_printf ; |811| 
         000811 0000!
    2538                                                      ; call occurs [#_printf] ; |811| 
    2539                      .dwpsn  file "../c5535_bsl_revc/ezdsp5535_v1/c55xx_csl/ccs_v4.0_examples/nand/CSL_NAND_DmaExample/csl
    2540 000813 A46A          MOV *SP(#53), T0 ; |812| 
    2541 000815 0601          B $C$L72  ; |812| 
         000817 00   
    2542                                                      ; branch occurs ; |812| 
    2543 000818       $C$L63:    
    2544                      .dwpsn  file "../c5535_bsl_revc/ezdsp5535_v1/c55xx_csl/ccs_v4.0_examples/nand/CSL_NAND_DmaExample/csl
    2545 000818 F451          AND #0xfffc, *port(#7219) ; |816| 
         00081a FFFC 
TMS320C55x Assembler PC v4.4.1 Sat Sep 29 23:08:57 2018

Tools Copyright (c) 1996-2012 Texas Instruments Incorporated
csl_nand_dma_example.asm                                             PAGE   64

         00081c 1C33 
    2546                      .dwpsn  file "../c5535_bsl_revc/ezdsp5535_v1/c55xx_csl/ccs_v4.0_examples/nand/CSL_NAND_DmaExample/csl
    2547 00081e ED31          MOV dbl(*(#_dmaRdHandle)), XAR0
         000820 8F00 
         000822 0802-
    2548              $C$DW$165       .dwtag  DW_TAG_TI_branch
    2549                      .dwattr $C$DW$165, DW_AT_low_pc(0x00)
    2550                      .dwattr $C$DW$165, DW_AT_name("_DMA_start")
    2551                      .dwattr $C$DW$165, DW_AT_TI_call
    2552 000824 6C00          CALL #_DMA_start ; |819| 
         000826 0000!
    2553                                                      ; call occurs [#_DMA_start] ; |819| 
    2554 000828 C468          MOV T0, *SP(#52) ; |819| 
    2555                      .dwpsn  file "../c5535_bsl_revc/ezdsp5535_v1/c55xx_csl/ccs_v4.0_examples/nand/CSL_NAND_DmaExample/csl
    2556 00082a 2249          MOV T0, AR1
    2557 00082c 0409          BCC $C$L64,AR1 == #0 ; |820| 
         00082e 12   
    2558                                                      ; branchcc occurs ; |820| 
    2559                      .dwpsn  file "../c5535_bsl_revc/ezdsp5535_v1/c55xx_csl/ccs_v4.0_examples/nand/CSL_NAND_DmaExample/csl
    2560 00082f EC31          AMOV #$C$FSL43, XAR3 ; |822| 
         000831 BE00 
         000833 035A+
    2561 000835 EB00          MOV XAR3, dbl(*SP(#0))
         000837 B5   
    2562              $C$DW$166       .dwtag  DW_TAG_TI_branch
    2563                      .dwattr $C$DW$166, DW_AT_low_pc(0x00)
    2564                      .dwattr $C$DW$166, DW_AT_name("_printf")
    2565                      .dwattr $C$DW$166, DW_AT_TI_call
    2566 000838 6C00          CALL #_printf ; |822| 
         00083a 0000!
    2567                                                      ; call occurs [#_printf] ; |822| 
    2568                      .dwpsn  file "../c5535_bsl_revc/ezdsp5535_v1/c55xx_csl/ccs_v4.0_examples/nand/CSL_NAND_DmaExample/csl
    2569 00083c A46A          MOV *SP(#53), T0 ; |823| 
    2570 00083e 0600          B $C$L72  ; |823| 
         000840 D7   
    2571                                                      ; branch occurs ; |823| 
    2572 000841       $C$L64:    
    2573                      .dwpsn  file "../c5535_bsl_revc/ezdsp5535_v1/c55xx_csl/ccs_v4.0_examples/nand/CSL_NAND_DmaExample/csl
    2574 000841 ED31          MOV dbl(*(#_dmaRdHandle)), XAR0
         000843 8F00 
         000845 0802-
    2575              $C$DW$167       .dwtag  DW_TAG_TI_branch
    2576                      .dwattr $C$DW$167, DW_AT_low_pc(0x00)
    2577                      .dwattr $C$DW$167, DW_AT_name("_DMA_getStatus")
    2578                      .dwattr $C$DW$167, DW_AT_TI_call
    2579 000847 08F7          CALL #_DMA_getStatus ; |827| 
         000849 B6   
    2580                                                      ; call occurs [#_DMA_getStatus] ; |827| 
    2581 00084a 6604          BCC $C$L66,T0 == #0 ; |827| 
    2582                                                      ; branchcc occurs ; |827| 
    2583 00084c       $C$L65:    
    2584 00084c       $C$DW$L$_CSL_nandDmaTest$95$B:
    2585 00084c ED31          MOV dbl(*(#_dmaRdHandle)), XAR0
         00084e 8F00 
         000850 0802-
TMS320C55x Assembler PC v4.4.1 Sat Sep 29 23:08:57 2018

Tools Copyright (c) 1996-2012 Texas Instruments Incorporated
csl_nand_dma_example.asm                                             PAGE   65

    2586              $C$DW$168       .dwtag  DW_TAG_TI_branch
    2587                      .dwattr $C$DW$168, DW_AT_low_pc(0x00)
    2588                      .dwattr $C$DW$168, DW_AT_name("_DMA_getStatus")
    2589                      .dwattr $C$DW$168, DW_AT_TI_call
    2590 000852 08F7          CALL #_DMA_getStatus ; |827| 
         000854 AB   
    2591                                                      ; call occurs [#_DMA_getStatus] ; |827| 
    2592 000855 0414          BCC $C$L65,T0 != #0 ; |827| 
         000857 F4   
    2593                                                      ; branchcc occurs ; |827| 
    2594 000858       $C$DW$L$_CSL_nandDmaTest$95$E:
    2595 000858       $C$L66:    
    2596                      .dwpsn  file "../c5535_bsl_revc/ezdsp5535_v1/c55xx_csl/ccs_v4.0_examples/nand/CSL_NAND_DmaExample/csl
    2597 000858 EC31          AMOV #$C$FSL44, XAR3 ; |829| 
         00085a BE00 
         00085c 0372+
    2598 00085e EB00          MOV XAR3, dbl(*SP(#0))
         000860 B5   
    2599              $C$DW$169       .dwtag  DW_TAG_TI_branch
    2600                      .dwattr $C$DW$169, DW_AT_low_pc(0x00)
    2601                      .dwattr $C$DW$169, DW_AT_name("_printf")
    2602                      .dwattr $C$DW$169, DW_AT_TI_call
    2603 000861 6C00          CALL #_printf ; |829| 
         000863 0000!
    2604                                                      ; call occurs [#_printf] ; |829| 
    2605                      .dwpsn  file "../c5535_bsl_revc/ezdsp5535_v1/c55xx_csl/ccs_v4.0_examples/nand/CSL_NAND_DmaExample/csl
    2606 000865 A951          MOV *port(#7219), AR1 ; |832| 
         000867 1C33 
    2607 000869 7DFF          AND #0xfffc, AR1, AC0 ; |832| 
         00086b FC09 
    2608 00086d EC02          BSET @#1, AC0 ; |832| 
         00086f 00   
    2609 000870 C051          MOV AC0, *port(#7219) ; |832| 
         000872 1C33 
    2610                      .dwpsn  file "../c5535_bsl_revc/ezdsp5535_v1/c55xx_csl/ccs_v4.0_examples/nand/CSL_NAND_DmaExample/csl
    2611 000874 A40A          MOV *SP(#5), T0 ; |835| 
    2612 000876 ED38          MOV dbl(*SP(#28)), XAR0
         000878 8F   
    2613 000879 EC78          AMAR *SP(#60), XAR1
         00087b 9E   
    2614              $C$DW$170       .dwtag  DW_TAG_TI_branch
    2615                      .dwattr $C$DW$170, DW_AT_low_pc(0x00)
    2616                      .dwattr $C$DW$170, DW_AT_name("_NAND_readECC")
    2617                      .dwattr $C$DW$170, DW_AT_TI_call
    2618 00087c 6C00          CALL #_NAND_readECC ; |835| 
         00087e 0000!
    2619                                                      ; call occurs [#_NAND_readECC] ; |835| 
    2620 000880 C468          MOV T0, *SP(#52) ; |835| 
    2621                      .dwpsn  file "../c5535_bsl_revc/ezdsp5535_v1/c55xx_csl/ccs_v4.0_examples/nand/CSL_NAND_DmaExample/csl
    2622 000882 2249          MOV T0, AR1
    2623 000884 0409          BCC $C$L67,AR1 == #0 ; |836| 
         000886 12   
    2624                                                      ; branchcc occurs ; |836| 
    2625                      .dwpsn  file "../c5535_bsl_revc/ezdsp5535_v1/c55xx_csl/ccs_v4.0_examples/nand/CSL_NAND_DmaExample/csl
    2626 000887 EC31          AMOV #$C$FSL41, XAR3 ; |838| 
TMS320C55x Assembler PC v4.4.1 Sat Sep 29 23:08:57 2018

Tools Copyright (c) 1996-2012 Texas Instruments Incorporated
csl_nand_dma_example.asm                                             PAGE   66

         000889 BE00 
         00088b 0326+
    2627 00088d EB00          MOV XAR3, dbl(*SP(#0))
         00088f B5   
    2628              $C$DW$171       .dwtag  DW_TAG_TI_branch
    2629                      .dwattr $C$DW$171, DW_AT_low_pc(0x00)
    2630                      .dwattr $C$DW$171, DW_AT_name("_printf")
    2631                      .dwattr $C$DW$171, DW_AT_TI_call
    2632 000890 6C00          CALL #_printf ; |838| 
         000892 0000!
    2633                                                      ; call occurs [#_printf] ; |838| 
    2634                      .dwpsn  file "../c5535_bsl_revc/ezdsp5535_v1/c55xx_csl/ccs_v4.0_examples/nand/CSL_NAND_DmaExample/csl
    2635 000894 A46A          MOV *SP(#53), T0 ; |839| 
    2636 000896 0600          B $C$L72  ; |839| 
         000898 7F   
    2637                                                      ; branch occurs ; |839| 
    2638 000899       $C$L67:    
    2639                      .dwpsn  file "../c5535_bsl_revc/ezdsp5535_v1/c55xx_csl/ccs_v4.0_examples/nand/CSL_NAND_DmaExample/csl
    2640 000899 ED38          MOV dbl(*SP(#28)), XAR0
         00089b 8F   
    2641 00089c A40A          MOV *SP(#5), T0 ; |843| 
    2642              $C$DW$172       .dwtag  DW_TAG_TI_branch
    2643                      .dwattr $C$DW$172, DW_AT_low_pc(0x00)
    2644                      .dwattr $C$DW$172, DW_AT_name("_NAND_disableHwECC")
    2645                      .dwattr $C$DW$172, DW_AT_TI_call
    2646 00089e 6C00          CALL #_NAND_disableHwECC ; |843| 
         0008a0 0000!
    2647                                                      ; call occurs [#_NAND_disableHwECC] ; |843| 
    2648 0008a2 C468          MOV T0, *SP(#52) ; |843| 
    2649                      .dwpsn  file "../c5535_bsl_revc/ezdsp5535_v1/c55xx_csl/ccs_v4.0_examples/nand/CSL_NAND_DmaExample/csl
    2650 0008a4 2249          MOV T0, AR1
    2651 0008a6 0409          BCC $C$L68,AR1 == #0 ; |844| 
         0008a8 12   
    2652                                                      ; branchcc occurs ; |844| 
    2653                      .dwpsn  file "../c5535_bsl_revc/ezdsp5535_v1/c55xx_csl/ccs_v4.0_examples/nand/CSL_NAND_DmaExample/csl
    2654 0008a9 EC31          AMOV #$C$FSL42, XAR3 ; |846| 
         0008ab BE00 
         0008ad 033E+
    2655 0008af EB00          MOV XAR3, dbl(*SP(#0))
         0008b1 B5   
    2656              $C$DW$173       .dwtag  DW_TAG_TI_branch
    2657                      .dwattr $C$DW$173, DW_AT_low_pc(0x00)
    2658                      .dwattr $C$DW$173, DW_AT_name("_printf")
    2659                      .dwattr $C$DW$173, DW_AT_TI_call
    2660 0008b2 6C00          CALL #_printf ; |846| 
         0008b4 0000!
    2661                                                      ; call occurs [#_printf] ; |846| 
    2662                      .dwpsn  file "../c5535_bsl_revc/ezdsp5535_v1/c55xx_csl/ccs_v4.0_examples/nand/CSL_NAND_DmaExample/csl
    2663 0008b6 A46A          MOV *SP(#53), T0 ; |847| 
    2664 0008b8 0600          B $C$L72  ; |847| 
         0008ba 5D   
    2665                                                      ; branch occurs ; |847| 
    2666 0008bb       $C$L68:    
    2667                      .dwpsn  file "../c5535_bsl_revc/ezdsp5535_v1/c55xx_csl/ccs_v4.0_examples/nand/CSL_NAND_DmaExample/csl
    2668 0008bb E670          MOV #0, *SP(#56) ; |873| 
TMS320C55x Assembler PC v4.4.1 Sat Sep 29 23:08:57 2018

Tools Copyright (c) 1996-2012 Texas Instruments Incorporated
csl_nand_dma_example.asm                                             PAGE   67

         0008bd 00   
    2669                      .dwpsn  file "../c5535_bsl_revc/ezdsp5535_v1/c55xx_csl/ccs_v4.0_examples/nand/CSL_NAND_DmaExample/csl
    2670 0008be A931          MOV *(#_gNandPageSize), AR1 ; |873| 
         0008c0 000B 
         0008c2 6E-  
    2671              
    2672 0008c3 AA70          MOV *SP(#56), AR2 ; |873| 
    2673 0008c5 5191  ||      SFTL AR1, #-1 ; |873| 
    2674              
    2675 0008c7 12A8          CMPU AR2 >= AR1, TC1 ; |873| 
         0008c9 94   
    2676 0008ca 0464          BCC $C$L71,TC1 ; |873| 
         0008cc 3C   
    2677                                                      ; branchcc occurs ; |873| 
    2678 0008cd       $C$L69:    
    2679 0008cd       $C$DW$L$_CSL_nandDmaTest$101$B:
    2680                      .dwpsn  file "../c5535_bsl_revc/ezdsp5535_v1/c55xx_csl/ccs_v4.0_examples/nand/CSL_NAND_DmaExample/csl
    2681 0008cd A470          MOV *SP(#56), T0 ; |875| 
    2682 0008cf EC31          AMOV #_gnandDmaReadBuf, XAR3 ; |875| 
         0008d1 BE00 
         0008d3 0000-
    2683 0008d5 A96B          MOV *AR3(T0), AR1 ; |875| 
    2684 0008d7 EC31          AMOV #_gnandDmaWriteBuf, XAR3 ; |875| 
         0008d9 BE00 
         0008db 0400-
    2685 0008dd AA6B          MOV *AR3(T0), AR2 ; |875| 
    2686 0008df 12A0          CMPU AR2 == AR1, TC1 ; |875| 
         0008e1 94   
    2687 0008e2 0464          BCC $C$L70,TC1 ; |875| 
         0008e4 11   
    2688                                                      ; branchcc occurs ; |875| 
    2689 0008e5       $C$DW$L$_CSL_nandDmaTest$101$E:
    2690                      .dwpsn  file "../c5535_bsl_revc/ezdsp5535_v1/c55xx_csl/ccs_v4.0_examples/nand/CSL_NAND_DmaExample/csl
    2691 0008e5 EC31          AMOV #$C$FSL45, XAR3 ; |877| 
         0008e7 BE00 
         0008e9 0394+
    2692 0008eb EB00          MOV XAR3, dbl(*SP(#0))
         0008ed B5   
    2693              $C$DW$174       .dwtag  DW_TAG_TI_branch
    2694                      .dwattr $C$DW$174, DW_AT_low_pc(0x00)
    2695                      .dwattr $C$DW$174, DW_AT_name("_printf")
    2696                      .dwattr $C$DW$174, DW_AT_TI_call
    2697 0008ee 6C00          CALL #_printf ; |877| 
         0008f0 0000!
    2698                                                      ; call occurs [#_printf] ; |877| 
    2699                      .dwpsn  file "../c5535_bsl_revc/ezdsp5535_v1/c55xx_csl/ccs_v4.0_examples/nand/CSL_NAND_DmaExample/csl
    2700 0008f2 A46A          MOV *SP(#53), T0 ; |878| 
    2701 0008f4 4A22          B $C$L72  ; |878| 
    2702                                                      ; branch occurs ; |878| 
    2703 0008f6       $C$L70:    
    2704 0008f6       $C$DW$L$_CSL_nandDmaTest$103$B:
    2705                      .dwpsn  file "../c5535_bsl_revc/ezdsp5535_v1/c55xx_csl/ccs_v4.0_examples/nand/CSL_NAND_DmaExample/csl
    2706 0008f6 F770          ADD #1, *SP(#56) ; |873| 
         0008f8 0001 
    2707                      .dwpsn  file "../c5535_bsl_revc/ezdsp5535_v1/c55xx_csl/ccs_v4.0_examples/nand/CSL_NAND_DmaExample/csl
TMS320C55x Assembler PC v4.4.1 Sat Sep 29 23:08:57 2018

Tools Copyright (c) 1996-2012 Texas Instruments Incorporated
csl_nand_dma_example.asm                                             PAGE   68

    2708 0008fa A931          MOV *(#_gNandPageSize), AR1 ; |873| 
         0008fc 000B 
         0008fe 6E-  
    2709              
    2710 000901 5191          SFTL AR1, #-1 ; |873| 
    2711 0008ff AA70  ||      MOV *SP(#56), AR2 ; |873| 
    2712              
    2713 000903 12A4          CMPU AR2 < AR1, TC1 ; |873| 
         000905 94   
    2714 000906 0464          BCC $C$L69,TC1 ; |873| 
         000908 C4   
    2715                                                      ; branchcc occurs ; |873| 
    2716 000909       $C$DW$L$_CSL_nandDmaTest$103$E:
    2717 000909       $C$L71:    
    2718                      .dwpsn  file "../c5535_bsl_revc/ezdsp5535_v1/c55xx_csl/ccs_v4.0_examples/nand/CSL_NAND_DmaExample/csl
    2719 000909 EC31          AMOV #$C$FSL46, XAR3 ; |882| 
         00090b BE00 
         00090d 03BE+
    2720 00090f EB00          MOV XAR3, dbl(*SP(#0))
         000911 B5   
    2721              $C$DW$175       .dwtag  DW_TAG_TI_branch
    2722                      .dwattr $C$DW$175, DW_AT_low_pc(0x00)
    2723                      .dwattr $C$DW$175, DW_AT_name("_printf")
    2724                      .dwattr $C$DW$175, DW_AT_TI_call
    2725 000912 6C00          CALL #_printf ; |882| 
         000914 0000!
    2726                                                      ; call occurs [#_printf] ; |882| 
    2727                      .dwpsn  file "../c5535_bsl_revc/ezdsp5535_v1/c55xx_csl/ccs_v4.0_examples/nand/CSL_NAND_DmaExample/csl
    2728 000916 3C04          MOV #0, T0
    2729 000918       $C$L72:    
    2730                      .dwpsn  file "../c5535_bsl_revc/ezdsp5535_v1/c55xx_csl/ccs_v4.0_examples/nand/CSL_NAND_DmaExample/csl
    2731 000918 4E45          AADD #69, SP
    2732                      .dwcfi  cfa_offset, 1
    2733              $C$DW$176       .dwtag  DW_TAG_TI_branch
    2734                      .dwattr $C$DW$176, DW_AT_low_pc(0x00)
    2735                      .dwattr $C$DW$176, DW_AT_TI_return
    2736 00091a 4804          RET
    2737                                                      ; return occurs
    2738              
    2739              $C$DW$177       .dwtag  DW_TAG_TI_loop
    2740                      .dwattr $C$DW$177, DW_AT_name("F:\eZdsp_DBG\tmp1\c55x-sim2\foo\Debug\csl_nand_dma_example.asm:$C$L69:
    2741                      .dwattr $C$DW$177, DW_AT_TI_begin_file("../c5535_bsl_revc/ezdsp5535_v1/c55xx_csl/ccs_v4.0_examples/na
    2742                      .dwattr $C$DW$177, DW_AT_TI_begin_line(0x369)
    2743                      .dwattr $C$DW$177, DW_AT_TI_end_line(0x370)
    2744              $C$DW$178       .dwtag  DW_TAG_TI_loop_range
    2745                      .dwattr $C$DW$178, DW_AT_low_pc($C$DW$L$_CSL_nandDmaTest$101$B)
    2746                      .dwattr $C$DW$178, DW_AT_high_pc($C$DW$L$_CSL_nandDmaTest$101$E)
    2747              $C$DW$179       .dwtag  DW_TAG_TI_loop_range
    2748                      .dwattr $C$DW$179, DW_AT_low_pc($C$DW$L$_CSL_nandDmaTest$103$B)
    2749                      .dwattr $C$DW$179, DW_AT_high_pc($C$DW$L$_CSL_nandDmaTest$103$E)
    2750                      .dwendtag $C$DW$177
    2751              
    2752              
    2753              $C$DW$180       .dwtag  DW_TAG_TI_loop
    2754                      .dwattr $C$DW$180, DW_AT_name("F:\eZdsp_DBG\tmp1\c55x-sim2\foo\Debug\csl_nand_dma_example.asm:$C$L65:
TMS320C55x Assembler PC v4.4.1 Sat Sep 29 23:08:57 2018

Tools Copyright (c) 1996-2012 Texas Instruments Incorporated
csl_nand_dma_example.asm                                             PAGE   69

    2755                      .dwattr $C$DW$180, DW_AT_TI_begin_file("../c5535_bsl_revc/ezdsp5535_v1/c55xx_csl/ccs_v4.0_examples/na
    2756                      .dwattr $C$DW$180, DW_AT_TI_begin_line(0x33b)
    2757                      .dwattr $C$DW$180, DW_AT_TI_end_line(0x33b)
    2758              $C$DW$181       .dwtag  DW_TAG_TI_loop_range
    2759                      .dwattr $C$DW$181, DW_AT_low_pc($C$DW$L$_CSL_nandDmaTest$95$B)
    2760                      .dwattr $C$DW$181, DW_AT_high_pc($C$DW$L$_CSL_nandDmaTest$95$E)
    2761                      .dwendtag $C$DW$180
    2762              
    2763              
    2764              $C$DW$182       .dwtag  DW_TAG_TI_loop
    2765                      .dwattr $C$DW$182, DW_AT_name("F:\eZdsp_DBG\tmp1\c55x-sim2\foo\Debug\csl_nand_dma_example.asm:$C$L58:
    2766                      .dwattr $C$DW$182, DW_AT_TI_begin_file("../c5535_bsl_revc/ezdsp5535_v1/c55xx_csl/ccs_v4.0_examples/na
    2767                      .dwattr $C$DW$182, DW_AT_TI_begin_line(0x308)
    2768                      .dwattr $C$DW$182, DW_AT_TI_end_line(0x311)
    2769              $C$DW$183       .dwtag  DW_TAG_TI_loop_range
    2770                      .dwattr $C$DW$183, DW_AT_low_pc($C$DW$L$_CSL_nandDmaTest$82$B)
    2771                      .dwattr $C$DW$183, DW_AT_high_pc($C$DW$L$_CSL_nandDmaTest$82$E)
    2772              $C$DW$184       .dwtag  DW_TAG_TI_loop_range
    2773                      .dwattr $C$DW$184, DW_AT_low_pc($C$DW$L$_CSL_nandDmaTest$84$B)
    2774                      .dwattr $C$DW$184, DW_AT_high_pc($C$DW$L$_CSL_nandDmaTest$84$E)
    2775                      .dwendtag $C$DW$182
    2776              
    2777              
