TMS320C55x Assembler PC v4.4.1 Sat Sep 29 23:08:57 2018

Tools Copyright (c) 1996-2012 Texas Instruments Incorporated
csl_nand_dma_example.asm                                             PAGE    1

    5928              ; Temporary Registers Used: None
       1              ;*******************************************************************************
       2              ;* TMS320C55x C/C++ Codegen                                          PC v4.4.1 *
       3              ;* Date/Time created: Sat Sep 29 23:08:56 2018                                 *
       4              ;*******************************************************************************
       5                      .compiler_opts --hll_source=on --mem_model:code=flat --mem_model:data=large --object_format=coff --si
       6                      .mmregs
       7                      .cpl_on
       8                      .arms_on
       9                      .c54cm_off
      10                      .asg AR6, FP
      11                      .asg XAR6, XFP
      12                      .asg DPH, MDP
      13                      .model call=c55_std
      14                      .model mem=large
      15                      .noremark 5002  ; code respects overwrite rules
      16              ;*******************************************************************************
      17              ;* GLOBAL FILE PARAMETERS                                                      *
      18              ;*                                                                             *
      19              ;*   Architecture       : TMS320C55x                                           *
      20              ;*   Optimizing for     : Speed                                                *
      21              ;*   Memory             : Large Model (23-Bit Data Pointers)                   *
      22              ;*   Calls              : Normal Library ASM calls                             *
      23              ;*   Debug Info         : Standard TI Debug Information                        *
      24              ;*******************************************************************************
      25              
      26              $C$DW$CU        .dwtag  DW_TAG_compile_unit
      27                      .dwattr $C$DW$CU, DW_AT_name("../c5535_bsl_revc/ezdsp5535_v1/c55xx_csl/ccs_v4.0_examples/nand/CSL_NAN
      28                      .dwattr $C$DW$CU, DW_AT_producer("TMS320C55x C/C++ Codegen PC v4.4.1 Copyright (c) 1996-2012 Texas In
      29                      .dwattr $C$DW$CU, DW_AT_TI_version(0x01)
      30                      .dwattr $C$DW$CU, DW_AT_comp_dir("F:\eZdsp_DBG\tmp1\c55x-sim2\foo\Debug")
      31              ;******************************************************************************
      32              ;* CINIT RECORDS                                                              *
      33              ;******************************************************************************
      34 000000               .sect   ".cinit"
      35                      .align  1
      36 000000 033C          .field          $C$IR_1,16
      37 000001 0008-         .field          _cslNandIdLookup+0,24
         000002 2400 
      38 000002 2400          .field          0,8
      39 000003 0000+         .field  $C$FSL1,32              ; _cslNandIdLookup[0]._name @ 0
         000004 0000 
      40 000005 0000          .field  110,32                  ; _cslNandIdLookup[0]._id @ 32
         000006 006E 
      41 000007 0000          .field  256,32                  ; _cslNandIdLookup[0]._bytesPerPage @ 64
         000008 0100 
      42 000009 0000          .field  1,32                    ; _cslNandIdLookup[0]._chipSize @ 96
         00000a 0001 
      43 00000b 0000          .field  4096,32                 ; _cslNandIdLookup[0]._eraseSize @ 128
         00000c 1000 
      44 00000d 0000          .field  0,16                    ; _cslNandIdLookup[0]._nand8Bit @ 160
      45 00000e               .space  16
      46 00000f 0000          .field  0,32                    ; _cslNandIdLookup[0]._nandOptions @ 192
         000010 0000 
      47 000011 0000+         .field  $C$FSL2,32              ; _cslNandIdLookup[1]._name @ 224
TMS320C55x Assembler PC v4.4.1 Sat Sep 29 23:08:57 2018

Tools Copyright (c) 1996-2012 Texas Instruments Incorporated
csl_nand_dma_example.asm                                             PAGE    2

         000012 000A 
      48 000013 0000          .field  100,32                  ; _cslNandIdLookup[1]._id @ 256
         000014 0064 
      49 000015 0000          .field  256,32                  ; _cslNandIdLookup[1]._bytesPerPage @ 288
         000016 0100 
      50 000017 0000          .field  2,32                    ; _cslNandIdLookup[1]._chipSize @ 320
         000018 0002 
      51 000019 0000          .field  4096,32                 ; _cslNandIdLookup[1]._eraseSize @ 352
         00001a 1000 
      52 00001b 0000          .field  0,16                    ; _cslNandIdLookup[1]._nand8Bit @ 384
      53 00001c               .space  16
      54 00001d 0000          .field  0,32                    ; _cslNandIdLookup[1]._nandOptions @ 416
         00001e 0000 
      55 00001f 0000+         .field  $C$FSL3,32              ; _cslNandIdLookup[2]._name @ 448
         000020 0014 
      56 000021 0000          .field  107,32                  ; _cslNandIdLookup[2]._id @ 480
         000022 006B 
      57 000023 0000          .field  512,32                  ; _cslNandIdLookup[2]._bytesPerPage @ 512
         000024 0200 
      58 000025 0000          .field  4,32                    ; _cslNandIdLookup[2]._chipSize @ 544
         000026 0004 
      59 000027 0000          .field  8192,32                 ; _cslNandIdLookup[2]._eraseSize @ 576
         000028 2000 
      60 000029 0000          .field  0,16                    ; _cslNandIdLookup[2]._nand8Bit @ 608
      61 00002a               .space  16
      62 00002b 0000          .field  0,32                    ; _cslNandIdLookup[2]._nandOptions @ 640
         00002c 0000 
      63 00002d 0000+         .field  $C$FSL1,32              ; _cslNandIdLookup[3]._name @ 672
         00002e 0000 
      64 00002f 0000          .field  232,32                  ; _cslNandIdLookup[3]._id @ 704
         000030 00E8 
      65 000031 0000          .field  256,32                  ; _cslNandIdLookup[3]._bytesPerPage @ 736
         000032 0100 
      66 000033 0000          .field  1,32                    ; _cslNandIdLookup[3]._chipSize @ 768
         000034 0001 
      67 000035 0000          .field  4096,32                 ; _cslNandIdLookup[3]._eraseSize @ 800
         000036 1000 
      68 000037 0000          .field  0,16                    ; _cslNandIdLookup[3]._nand8Bit @ 832
      69 000038               .space  16
      70 000039 0000          .field  0,32                    ; _cslNandIdLookup[3]._nandOptions @ 864
         00003a 0000 
      71 00003b 0000+         .field  $C$FSL1,32              ; _cslNandIdLookup[4]._name @ 896
         00003c 0000 
      72 00003d 0000          .field  236,32                  ; _cslNandIdLookup[4]._id @ 928
         00003e 00EC 
      73 00003f 0000          .field  256,32                  ; _cslNandIdLookup[4]._bytesPerPage @ 960
         000040 0100 
      74 000041 0000          .field  1,32                    ; _cslNandIdLookup[4]._chipSize @ 992
         000042 0001 
      75 000043 0000          .field  4096,32                 ; _cslNandIdLookup[4]._eraseSize @ 1024
         000044 1000 
      76 000045 0000          .field  0,16                    ; _cslNandIdLookup[4]._nand8Bit @ 1056
      77 000046               .space  16
      78 000047 0000          .field  0,32                    ; _cslNandIdLookup[4]._nandOptions @ 1088
         000048 0000 
TMS320C55x Assembler PC v4.4.1 Sat Sep 29 23:08:57 2018

Tools Copyright (c) 1996-2012 Texas Instruments Incorporated
csl_nand_dma_example.asm                                             PAGE    3

      79 000049 0000+         .field  $C$FSL2,32              ; _cslNandIdLookup[5]._name @ 1120
         00004a 000A 
      80 00004b 0000          .field  234,32                  ; _cslNandIdLookup[5]._id @ 1152
         00004c 00EA 
      81 00004d 0000          .field  256,32                  ; _cslNandIdLookup[5]._bytesPerPage @ 1184
         00004e 0100 
      82 00004f 0000          .field  2,32                    ; _cslNandIdLookup[5]._chipSize @ 1216
         000050 0002 
      83 000051 0000          .field  4096,32                 ; _cslNandIdLookup[5]._eraseSize @ 1248
         000052 1000 
      84 000053 0000          .field  0,16                    ; _cslNandIdLookup[5]._nand8Bit @ 1280
      85 000054               .space  16
      86 000055 0000          .field  0,32                    ; _cslNandIdLookup[5]._nandOptions @ 1312
         000056 0000 
      87 000057 0000+         .field  $C$FSL3,32              ; _cslNandIdLookup[6]._name @ 1344
         000058 0014 
      88 000059 0000          .field  213,32                  ; _cslNandIdLookup[6]._id @ 1376
         00005a 00D5 
      89 00005b 0000          .field  512,32                  ; _cslNandIdLookup[6]._bytesPerPage @ 1408
         00005c 0200 
      90 00005d 0000          .field  4,32                    ; _cslNandIdLookup[6]._chipSize @ 1440
         00005e 0004 
      91 00005f 0000          .field  8192,32                 ; _cslNandIdLookup[6]._eraseSize @ 1472
         000060 2000 
      92 000061 0000          .field  0,16                    ; _cslNandIdLookup[6]._nand8Bit @ 1504
      93 000062               .space  16
      94 000063 0000          .field  0,32                    ; _cslNandIdLookup[6]._nandOptions @ 1536
         000064 0000 
      95 000065 0000+         .field  $C$FSL3,32              ; _cslNandIdLookup[7]._name @ 1568
         000066 0014 
      96 000067 0000          .field  227,32                  ; _cslNandIdLookup[7]._id @ 1600
         000068 00E3 
      97 000069 0000          .field  512,32                  ; _cslNandIdLookup[7]._bytesPerPage @ 1632
         00006a 0200 
      98 00006b 0000          .field  4,32                    ; _cslNandIdLookup[7]._chipSize @ 1664
         00006c 0004 
      99 00006d 0000          .field  8192,32                 ; _cslNandIdLookup[7]._eraseSize @ 1696
         00006e 2000 
     100 00006f 0000          .field  0,16                    ; _cslNandIdLookup[7]._nand8Bit @ 1728
     101 000070               .space  16
     102 000071 0000          .field  0,32                    ; _cslNandIdLookup[7]._nandOptions @ 1760
         000072 0000 
     103 000073 0000+         .field  $C$FSL3,32              ; _cslNandIdLookup[8]._name @ 1792
         000074 0014 
     104 000075 0000          .field  229,32                  ; _cslNandIdLookup[8]._id @ 1824
         000076 00E5 
     105 000077 0000          .field  512,32                  ; _cslNandIdLookup[8]._bytesPerPage @ 1856
         000078 0200 
     106 000079 0000          .field  4,32                    ; _cslNandIdLookup[8]._chipSize @ 1888
         00007a 0004 
     107 00007b 0000          .field  8192,32                 ; _cslNandIdLookup[8]._eraseSize @ 1920
         00007c 2000 
     108 00007d 0000          .field  0,16                    ; _cslNandIdLookup[8]._nand8Bit @ 1952
     109 00007e               .space  16
     110 00007f 0000          .field  0,32                    ; _cslNandIdLookup[8]._nandOptions @ 1984
TMS320C55x Assembler PC v4.4.1 Sat Sep 29 23:08:57 2018

Tools Copyright (c) 1996-2012 Texas Instruments Incorporated
csl_nand_dma_example.asm                                             PAGE    4

         000080 0000 
     111 000081 0000+         .field  $C$FSL4,32              ; _cslNandIdLookup[9]._name @ 2016
         000082 001E 
     112 000083 0000          .field  214,32                  ; _cslNandIdLookup[9]._id @ 2048
         000084 00D6 
     113 000085 0000          .field  512,32                  ; _cslNandIdLookup[9]._bytesPerPage @ 2080
         000086 0200 
     114 000087 0000          .field  8,32                    ; _cslNandIdLookup[9]._chipSize @ 2112
         000088 0008 
     115 000089 0000          .field  8192,32                 ; _cslNandIdLookup[9]._eraseSize @ 2144
         00008a 2000 
     116 00008b 0000          .field  0,16                    ; _cslNandIdLookup[9]._nand8Bit @ 2176
     117 00008c               .space  16
     118 00008d 0000          .field  0,32                    ; _cslNandIdLookup[9]._nandOptions @ 2208
         00008e 0000 
     119 00008f 0000+         .field  $C$FSL4,32              ; _cslNandIdLookup[10]._name @ 2240
         000090 001E 
     120 000091 0000          .field  57,32                   ; _cslNandIdLookup[10]._id @ 2272
         000092 0039 
     121 000093 0000          .field  512,32                  ; _cslNandIdLookup[10]._bytesPerPage @ 2304
         000094 0200 
     122 000095 0000          .field  8,32                    ; _cslNandIdLookup[10]._chipSize @ 2336
         000096 0008 
     123 000097 0000          .field  8192,32                 ; _cslNandIdLookup[10]._eraseSize @ 2368
         000098 2000 
     124 000099 0000          .field  0,16                    ; _cslNandIdLookup[10]._nand8Bit @ 2400
     125 00009a               .space  16
     126 00009b 0000          .field  0,32                    ; _cslNandIdLookup[10]._nandOptions @ 2432
         00009c 0000 
     127 00009d 0000+         .field  $C$FSL4,32              ; _cslNandIdLookup[11]._name @ 2464
         00009e 001E 
     128 00009f 0000          .field  230,32                  ; _cslNandIdLookup[11]._id @ 2496
         0000a0 00E6 
     129 0000a1 0000          .field  512,32                  ; _cslNandIdLookup[11]._bytesPerPage @ 2528
         0000a2 0200 
     130 0000a3 0000          .field  8,32                    ; _cslNandIdLookup[11]._chipSize @ 2560
         0000a4 0008 
     131 0000a5 0000          .field  8192,32                 ; _cslNandIdLookup[11]._eraseSize @ 2592
         0000a6 2000 
     132 0000a7 0000          .field  0,16                    ; _cslNandIdLookup[11]._nand8Bit @ 2624
     133 0000a8               .space  16
     134 0000a9 0000          .field  0,32                    ; _cslNandIdLookup[11]._nandOptions @ 2656
         0000aa 0000 
     135 0000ab 0000+         .field  $C$FSL5,32              ; _cslNandIdLookup[12]._name @ 2688
         0000ac 0028 
     136 0000ad 0000          .field  73,32                   ; _cslNandIdLookup[12]._id @ 2720
         0000ae 0049 
     137 0000af 0000          .field  512,32                  ; _cslNandIdLookup[12]._bytesPerPage @ 2752
         0000b0 0200 
     138 0000b1 0000          .field  8,32                    ; _cslNandIdLookup[12]._chipSize @ 2784
         0000b2 0008 
     139 0000b3 0000          .field  8192,32                 ; _cslNandIdLookup[12]._eraseSize @ 2816
         0000b4 2000 
     140 0000b5 0001          .field  1,16                    ; _cslNandIdLookup[12]._nand8Bit @ 2848
     141 0000b6               .space  16
TMS320C55x Assembler PC v4.4.1 Sat Sep 29 23:08:57 2018

Tools Copyright (c) 1996-2012 Texas Instruments Incorporated
csl_nand_dma_example.asm                                             PAGE    5

     142 0000b7 0000          .field  0,32                    ; _cslNandIdLookup[12]._nandOptions @ 2880
         0000b8 0000 
     143 0000b9 0000+         .field  $C$FSL5,32              ; _cslNandIdLookup[13]._name @ 2912
         0000ba 0028 
     144 0000bb 0000          .field  89,32                   ; _cslNandIdLookup[13]._id @ 2944
         0000bc 0059 
     145 0000bd 0000          .field  512,32                  ; _cslNandIdLookup[13]._bytesPerPage @ 2976
         0000be 0200 
     146 0000bf 0000          .field  8,32                    ; _cslNandIdLookup[13]._chipSize @ 3008
         0000c0 0008 
     147 0000c1 0000          .field  8192,32                 ; _cslNandIdLookup[13]._eraseSize @ 3040
         0000c2 2000 
     148 0000c3 0001          .field  1,16                    ; _cslNandIdLookup[13]._nand8Bit @ 3072
     149 0000c4               .space  16
     150 0000c5 0000          .field  0,32                    ; _cslNandIdLookup[13]._nandOptions @ 3104
         0000c6 0000 
     151 0000c7 0000+         .field  $C$FSL6,32              ; _cslNandIdLookup[14]._name @ 3136
         0000c8 0034 
     152 0000c9 0000          .field  51,32                   ; _cslNandIdLookup[14]._id @ 3168
         0000ca 0033 
     153 0000cb 0000          .field  512,32                  ; _cslNandIdLookup[14]._bytesPerPage @ 3200
         0000cc 0200 
     154 0000cd 0000          .field  16,32                   ; _cslNandIdLookup[14]._chipSize @ 3232
         0000ce 0010 
     155 0000cf 0000          .field  16384,32                        ; _cslNandIdLookup[14]._eraseSize @ 3264
         0000d0 4000 
     156 0000d1 0000          .field  0,16                    ; _cslNandIdLookup[14]._nand8Bit @ 3296
     157 0000d2               .space  16
     158 0000d3 0000          .field  0,32                    ; _cslNandIdLookup[14]._nandOptions @ 3328
         0000d4 0000 
     159 0000d5 0000+         .field  $C$FSL6,32              ; _cslNandIdLookup[15]._name @ 3360
         0000d6 0034 
     160 0000d7 0000          .field  115,32                  ; _cslNandIdLookup[15]._id @ 3392
         0000d8 0073 
     161 0000d9 0000          .field  512,32                  ; _cslNandIdLookup[15]._bytesPerPage @ 3424
         0000da 0200 
     162 0000db 0000          .field  16,32                   ; _cslNandIdLookup[15]._chipSize @ 3456
         0000dc 0010 
     163 0000dd 0000          .field  16384,32                        ; _cslNandIdLookup[15]._eraseSize @ 3488
         0000de 4000 
     164 0000df 0000          .field  0,16                    ; _cslNandIdLookup[15]._nand8Bit @ 3520
     165 0000e0               .space  16
     166 0000e1 0000          .field  0,32                    ; _cslNandIdLookup[15]._nandOptions @ 3552
         0000e2 0000 
     167 0000e3 0000+         .field  $C$FSL7,32              ; _cslNandIdLookup[16]._name @ 3584
         0000e4 0040 
     168 0000e5 0000          .field  67,32                   ; _cslNandIdLookup[16]._id @ 3616
         0000e6 0043 
     169 0000e7 0000          .field  512,32                  ; _cslNandIdLookup[16]._bytesPerPage @ 3648
         0000e8 0200 
     170 0000e9 0000          .field  16,32                   ; _cslNandIdLookup[16]._chipSize @ 3680
         0000ea 0010 
     171 0000eb 0000          .field  16384,32                        ; _cslNandIdLookup[16]._eraseSize @ 3712
         0000ec 4000 
     172 0000ed 0001          .field  1,16                    ; _cslNandIdLookup[16]._nand8Bit @ 3744
TMS320C55x Assembler PC v4.4.1 Sat Sep 29 23:08:57 2018

Tools Copyright (c) 1996-2012 Texas Instruments Incorporated
csl_nand_dma_example.asm                                             PAGE    6

     173 0000ee               .space  16
     174 0000ef 0000          .field  0,32                    ; _cslNandIdLookup[16]._nandOptions @ 3776
         0000f0 0000 
     175 0000f1 0000+         .field  $C$FSL7,32              ; _cslNandIdLookup[17]._name @ 3808
         0000f2 0040 
     176 0000f3 0000          .field  83,32                   ; _cslNandIdLookup[17]._id @ 3840
         0000f4 0053 
     177 0000f5 0000          .field  512,32                  ; _cslNandIdLookup[17]._bytesPerPage @ 3872
         0000f6 0200 
     178 0000f7 0000          .field  16,32                   ; _cslNandIdLookup[17]._chipSize @ 3904
         0000f8 0010 
     179 0000f9 0000          .field  16384,32                        ; _cslNandIdLookup[17]._eraseSize @ 3936
         0000fa 4000 
     180 0000fb 0001          .field  1,16                    ; _cslNandIdLookup[17]._nand8Bit @ 3968
     181 0000fc               .space  16
     182 0000fd 0000          .field  0,32                    ; _cslNandIdLookup[17]._nandOptions @ 4000
         0000fe 0000 
     183 0000ff 0000+         .field  $C$FSL8,32              ; _cslNandIdLookup[18]._name @ 4032
         000100 004C 
     184 000101 0000          .field  53,32                   ; _cslNandIdLookup[18]._id @ 4064
         000102 0035 
     185 000103 0000          .field  512,32                  ; _cslNandIdLookup[18]._bytesPerPage @ 4096
         000104 0200 
     186 000105 0000          .field  32,32                   ; _cslNandIdLookup[18]._chipSize @ 4128
         000106 0020 
     187 000107 0000          .field  16384,32                        ; _cslNandIdLookup[18]._eraseSize @ 4160
         000108 4000 
     188 000109 0000          .field  0,16                    ; _cslNandIdLookup[18]._nand8Bit @ 4192
     189 00010a               .space  16
     190 00010b 0000          .field  0,32                    ; _cslNandIdLookup[18]._nandOptions @ 4224
         00010c 0000 
     191 00010d 0000+         .field  $C$FSL8,32              ; _cslNandIdLookup[19]._name @ 4256
         00010e 004C 
     192 00010f 0000          .field  117,32                  ; _cslNandIdLookup[19]._id @ 4288
         000110 0075 
     193 000111 0000          .field  512,32                  ; _cslNandIdLookup[19]._bytesPerPage @ 4320
         000112 0200 
     194 000113 0000          .field  32,32                   ; _cslNandIdLookup[19]._chipSize @ 4352
         000114 0020 
     195 000115 0000          .field  16384,32                        ; _cslNandIdLookup[19]._eraseSize @ 4384
         000116 4000 
     196 000117 0000          .field  0,16                    ; _cslNandIdLookup[19]._nand8Bit @ 4416
     197 000118               .space  16
     198 000119 0000          .field  0,32                    ; _cslNandIdLookup[19]._nandOptions @ 4448
         00011a 0000 
     199 00011b 0000+         .field  $C$FSL9,32              ; _cslNandIdLookup[20]._name @ 4480
         00011c 0058 
     200 00011d 0000          .field  69,32                   ; _cslNandIdLookup[20]._id @ 4512
         00011e 0045 
     201 00011f 0000          .field  512,32                  ; _cslNandIdLookup[20]._bytesPerPage @ 4544
         000120 0200 
     202 000121 0000          .field  32,32                   ; _cslNandIdLookup[20]._chipSize @ 4576
         000122 0020 
     203 000123 0000          .field  16384,32                        ; _cslNandIdLookup[20]._eraseSize @ 4608
         000124 4000 
TMS320C55x Assembler PC v4.4.1 Sat Sep 29 23:08:57 2018

Tools Copyright (c) 1996-2012 Texas Instruments Incorporated
csl_nand_dma_example.asm                                             PAGE    7

     204 000125 0001          .field  1,16                    ; _cslNandIdLookup[20]._nand8Bit @ 4640
     205 000126               .space  16
     206 000127 0000          .field  0,32                    ; _cslNandIdLookup[20]._nandOptions @ 4672
         000128 0000 
     207 000129 0000+         .field  $C$FSL9,32              ; _cslNandIdLookup[21]._name @ 4704
         00012a 0058 
     208 00012b 0000          .field  85,32                   ; _cslNandIdLookup[21]._id @ 4736
         00012c 0055 
     209 00012d 0000          .field  512,32                  ; _cslNandIdLookup[21]._bytesPerPage @ 4768
         00012e 0200 
     210 00012f 0000          .field  32,32                   ; _cslNandIdLookup[21]._chipSize @ 4800
         000130 0020 
     211 000131 0000          .field  16384,32                        ; _cslNandIdLookup[21]._eraseSize @ 4832
         000132 4000 
     212 000133 0001          .field  1,16                    ; _cslNandIdLookup[21]._nand8Bit @ 4864
     213 000134               .space  16
     214 000135 0000          .field  0,32                    ; _cslNandIdLookup[21]._nandOptions @ 4896
         000136 0000 
     215 000137 0000+         .field  $C$FSL10,32             ; _cslNandIdLookup[22]._name @ 4928
         000138 0064 
     216 000139 0000          .field  54,32                   ; _cslNandIdLookup[22]._id @ 4960
         00013a 0036 
     217 00013b 0000          .field  512,32                  ; _cslNandIdLookup[22]._bytesPerPage @ 4992
         00013c 0200 
     218 00013d 0000          .field  64,32                   ; _cslNandIdLookup[22]._chipSize @ 5024
         00013e 0040 
     219 00013f 0000          .field  16384,32                        ; _cslNandIdLookup[22]._eraseSize @ 5056
         000140 4000 
     220 000141 0000          .field  0,16                    ; _cslNandIdLookup[22]._nand8Bit @ 5088
     221 000142               .space  16
     222 000143 0000          .field  0,32                    ; _cslNandIdLookup[22]._nandOptions @ 5120
         000144 0000 
     223 000145 0000+         .field  $C$FSL11,32             ; _cslNandIdLookup[23]._name @ 5152
         000146 0070 
     224 000147 0000          .field  37,32                   ; _cslNandIdLookup[23]._id @ 5184
         000148 0025 
     225 000149 0000          .field  2048,32                 ; _cslNandIdLookup[23]._bytesPerPage @ 5216
         00014a 0800 
     226 00014b 0000          .field  64,32                   ; _cslNandIdLookup[23]._chipSize @ 5248
         00014c 0040 
     227 00014d 0002          .field  131072,32                       ; _cslNandIdLookup[23]._eraseSize @ 5280
         00014e 0000 
     228 00014f 0001          .field  1,16                    ; _cslNandIdLookup[23]._nand8Bit @ 5312
     229 000150               .space  16
     230 000151 0000          .field  15,32                   ; _cslNandIdLookup[23]._nandOptions @ 5344
         000152 000F 
     231 000153 0000+         .field  $C$FSL10,32             ; _cslNandIdLookup[24]._name @ 5376
         000154 0064 
     232 000155 0000          .field  118,32                  ; _cslNandIdLookup[24]._id @ 5408
         000156 0076 
     233 000157 0000          .field  512,32                  ; _cslNandIdLookup[24]._bytesPerPage @ 5440
         000158 0200 
     234 000159 0000          .field  64,32                   ; _cslNandIdLookup[24]._chipSize @ 5472
         00015a 0040 
     235 00015b 0000          .field  16384,32                        ; _cslNandIdLookup[24]._eraseSize @ 5504
TMS320C55x Assembler PC v4.4.1 Sat Sep 29 23:08:57 2018

Tools Copyright (c) 1996-2012 Texas Instruments Incorporated
csl_nand_dma_example.asm                                             PAGE    8

         00015c 4000 
     236 00015d 0000          .field  0,16                    ; _cslNandIdLookup[24]._nand8Bit @ 5536
     237 00015e               .space  16
     238 00015f 0000          .field  0,32                    ; _cslNandIdLookup[24]._nandOptions @ 5568
         000160 0000 
     239 000161 0000+         .field  $C$FSL11,32             ; _cslNandIdLookup[25]._name @ 5600
         000162 0070 
     240 000163 0000          .field  70,32                   ; _cslNandIdLookup[25]._id @ 5632
         000164 0046 
     241 000165 0000          .field  512,32                  ; _cslNandIdLookup[25]._bytesPerPage @ 5664
         000166 0200 
     242 000167 0000          .field  64,32                   ; _cslNandIdLookup[25]._chipSize @ 5696
         000168 0040 
     243 000169 0000          .field  16384,32                        ; _cslNandIdLookup[25]._eraseSize @ 5728
         00016a 4000 
     244 00016b 0001          .field  1,16                    ; _cslNandIdLookup[25]._nand8Bit @ 5760
     245 00016c               .space  16
     246 00016d 0000          .field  0,32                    ; _cslNandIdLookup[25]._nandOptions @ 5792
         00016e 0000 
     247 00016f 0000+         .field  $C$FSL11,32             ; _cslNandIdLookup[26]._name @ 5824
         000170 0070 
     248 000171 0000          .field  86,32                   ; _cslNandIdLookup[26]._id @ 5856
         000172 0056 
     249 000173 0000          .field  512,32                  ; _cslNandIdLookup[26]._bytesPerPage @ 5888
         000174 0200 
     250 000175 0000          .field  64,32                   ; _cslNandIdLookup[26]._chipSize @ 5920
         000176 0040 
     251 000177 0000          .field  16384,32                        ; _cslNandIdLookup[26]._eraseSize @ 5952
         000178 4000 
     252 000179 0001          .field  1,16                    ; _cslNandIdLookup[26]._nand8Bit @ 5984
     253 00017a               .space  16
     254 00017b 0000          .field  0,32                    ; _cslNandIdLookup[26]._nandOptions @ 6016
         00017c 0000 
     255 00017d 0000+         .field  $C$FSL12,32             ; _cslNandIdLookup[27]._name @ 6048
         00017e 007C 
     256 00017f 0000          .field  120,32                  ; _cslNandIdLookup[27]._id @ 6080
         000180 0078 
     257 000181 0000          .field  512,32                  ; _cslNandIdLookup[27]._bytesPerPage @ 6112
         000182 0200 
     258 000183 0000          .field  128,32                  ; _cslNandIdLookup[27]._chipSize @ 6144
         000184 0080 
     259 000185 0000          .field  16384,32                        ; _cslNandIdLookup[27]._eraseSize @ 6176
         000186 4000 
     260 000187 0000          .field  0,16                    ; _cslNandIdLookup[27]._nand8Bit @ 6208
     261 000188               .space  16
     262 000189 0000          .field  0,32                    ; _cslNandIdLookup[27]._nandOptions @ 6240
         00018a 0000 
     263 00018b 0000+         .field  $C$FSL12,32             ; _cslNandIdLookup[28]._name @ 6272
         00018c 007C 
     264 00018d 0000          .field  57,32                   ; _cslNandIdLookup[28]._id @ 6304
         00018e 0039 
     265 00018f 0000          .field  512,32                  ; _cslNandIdLookup[28]._bytesPerPage @ 6336
         000190 0200 
     266 000191 0000          .field  128,32                  ; _cslNandIdLookup[28]._chipSize @ 6368
         000192 0080 
TMS320C55x Assembler PC v4.4.1 Sat Sep 29 23:08:57 2018

Tools Copyright (c) 1996-2012 Texas Instruments Incorporated
csl_nand_dma_example.asm                                             PAGE    9

     267 000193 0000          .field  16384,32                        ; _cslNandIdLookup[28]._eraseSize @ 6400
         000194 4000 
     268 000195 0000          .field  0,16                    ; _cslNandIdLookup[28]._nand8Bit @ 6432
     269 000196               .space  16
     270 000197 0000          .field  0,32                    ; _cslNandIdLookup[28]._nandOptions @ 6464
         000198 0000 
     271 000199 0000+         .field  $C$FSL12,32             ; _cslNandIdLookup[29]._name @ 6496
         00019a 007C 
     272 00019b 0000          .field  121,32                  ; _cslNandIdLookup[29]._id @ 6528
         00019c 0079 
     273 00019d 0000          .field  512,32                  ; _cslNandIdLookup[29]._bytesPerPage @ 6560
         00019e 0200 
     274 00019f 0000          .field  128,32                  ; _cslNandIdLookup[29]._chipSize @ 6592
         0001a0 0080 
     275 0001a1 0000          .field  16384,32                        ; _cslNandIdLookup[29]._eraseSize @ 6624
         0001a2 4000 
     276 0001a3 0000          .field  0,16                    ; _cslNandIdLookup[29]._nand8Bit @ 6656
     277 0001a4               .space  16
     278 0001a5 0000          .field  0,32                    ; _cslNandIdLookup[29]._nandOptions @ 6688
         0001a6 0000 
     279 0001a7 0000+         .field  $C$FSL13,32             ; _cslNandIdLookup[30]._name @ 6720
         0001a8 0088 
     280 0001a9 0000          .field  114,32                  ; _cslNandIdLookup[30]._id @ 6752
         0001aa 0072 
     281 0001ab 0000          .field  512,32                  ; _cslNandIdLookup[30]._bytesPerPage @ 6784
         0001ac 0200 
     282 0001ad 0000          .field  128,32                  ; _cslNandIdLookup[30]._chipSize @ 6816
         0001ae 0080 
     283 0001af 0000          .field  16384,32                        ; _cslNandIdLookup[30]._eraseSize @ 6848
         0001b0 4000 
     284 0001b1 0001          .field  1,16                    ; _cslNandIdLookup[30]._nand8Bit @ 6880
     285 0001b2               .space  16
     286 0001b3 0000          .field  0,32                    ; _cslNandIdLookup[30]._nandOptions @ 6912
         0001b4 0000 
     287 0001b5 0000+         .field  $C$FSL13,32             ; _cslNandIdLookup[31]._name @ 6944
         0001b6 0088 
     288 0001b7 0000          .field  73,32                   ; _cslNandIdLookup[31]._id @ 6976
         0001b8 0049 
     289 0001b9 0000          .field  512,32                  ; _cslNandIdLookup[31]._bytesPerPage @ 7008
         0001ba 0200 
     290 0001bb 0000          .field  128,32                  ; _cslNandIdLookup[31]._chipSize @ 7040
         0001bc 0080 
     291 0001bd 0000          .field  16384,32                        ; _cslNandIdLookup[31]._eraseSize @ 7072
         0001be 4000 
     292 0001bf 0001          .field  1,16                    ; _cslNandIdLookup[31]._nand8Bit @ 7104
     293 0001c0               .space  16
     294 0001c1 0000          .field  0,32                    ; _cslNandIdLookup[31]._nandOptions @ 7136
         0001c2 0000 
     295 0001c3 0000+         .field  $C$FSL13,32             ; _cslNandIdLookup[32]._name @ 7168
         0001c4 0088 
     296 0001c5 0000          .field  116,32                  ; _cslNandIdLookup[32]._id @ 7200
         0001c6 0074 
     297 0001c7 0000          .field  512,32                  ; _cslNandIdLookup[32]._bytesPerPage @ 7232
         0001c8 0200 
     298 0001c9 0000          .field  128,32                  ; _cslNandIdLookup[32]._chipSize @ 7264
TMS320C55x Assembler PC v4.4.1 Sat Sep 29 23:08:57 2018

Tools Copyright (c) 1996-2012 Texas Instruments Incorporated
csl_nand_dma_example.asm                                             PAGE   10

         0001ca 0080 
     299 0001cb 0000          .field  16384,32                        ; _cslNandIdLookup[32]._eraseSize @ 7296
         0001cc 4000 
     300 0001cd 0001          .field  1,16                    ; _cslNandIdLookup[32]._nand8Bit @ 7328
     301 0001ce               .space  16
     302 0001cf 0000          .field  0,32                    ; _cslNandIdLookup[32]._nandOptions @ 7360
         0001d0 0000 
     303 0001d1 0000+         .field  $C$FSL13,32             ; _cslNandIdLookup[33]._name @ 7392
         0001d2 0088 
     304 0001d3 0000          .field  89,32                   ; _cslNandIdLookup[33]._id @ 7424
         0001d4 0059 
     305 0001d5 0000          .field  512,32                  ; _cslNandIdLookup[33]._bytesPerPage @ 7456
         0001d6 0200 
     306 0001d7 0000          .field  128,32                  ; _cslNandIdLookup[33]._chipSize @ 7488
         0001d8 0080 
     307 0001d9 0000          .field  16384,32                        ; _cslNandIdLookup[33]._eraseSize @ 7520
         0001da 4000 
     308 0001db 0001          .field  1,16                    ; _cslNandIdLookup[33]._nand8Bit @ 7552
     309 0001dc               .space  16
     310 0001dd 0000          .field  0,32                    ; _cslNandIdLookup[33]._nandOptions @ 7584
         0001de 0000 
     311 0001df 0000+         .field  $C$FSL14,32             ; _cslNandIdLookup[34]._name @ 7616
         0001e0 0096 
     312 0001e1 0000          .field  113,32                  ; _cslNandIdLookup[34]._id @ 7648
         0001e2 0071 
     313 0001e3 0000          .field  512,32                  ; _cslNandIdLookup[34]._bytesPerPage @ 7680
         0001e4 0200 
     314 0001e5 0000          .field  256,32                  ; _cslNandIdLookup[34]._chipSize @ 7712
         0001e6 0100 
     315 0001e7 0000          .field  16384,32                        ; _cslNandIdLookup[34]._eraseSize @ 7744
         0001e8 4000 
     316 0001e9 0000          .field  0,16                    ; _cslNandIdLookup[34]._nand8Bit @ 7776
     317 0001ea               .space  16
     318 0001eb 0000          .field  0,32                    ; _cslNandIdLookup[34]._nandOptions @ 7808
         0001ec 0000 
     319 0001ed 0000+         .field  $C$FSL10,32             ; _cslNandIdLookup[35]._name @ 7840
         0001ee 0064 
     320 0001ef 0000          .field  162,32                  ; _cslNandIdLookup[35]._id @ 7872
         0001f0 00A2 
     321 0001f1 0000          .field  0,32                    ; _cslNandIdLookup[35]._bytesPerPage @ 7904
         0001f2 0000 
     322 0001f3 0000          .field  64,32                   ; _cslNandIdLookup[35]._chipSize @ 7936
         0001f4 0040 
     323 0001f5 0000          .field  0,32                    ; _cslNandIdLookup[35]._eraseSize @ 7968
         0001f6 0000 
     324 0001f7 0000          .field  0,16                    ; _cslNandIdLookup[35]._nand8Bit @ 8000
     325 0001f8               .space  16
     326 0001f9 0000          .field  0,32                    ; _cslNandIdLookup[35]._nandOptions @ 8032
         0001fa 0000 
     327 0001fb 0000+         .field  $C$FSL10,32             ; _cslNandIdLookup[36]._name @ 8064
         0001fc 0064 
     328 0001fd 0000          .field  242,32                  ; _cslNandIdLookup[36]._id @ 8096
         0001fe 00F2 
     329 0001ff 0000          .field  0,32                    ; _cslNandIdLookup[36]._bytesPerPage @ 8128
         000200 0000 
TMS320C55x Assembler PC v4.4.1 Sat Sep 29 23:08:57 2018

Tools Copyright (c) 1996-2012 Texas Instruments Incorporated
csl_nand_dma_example.asm                                             PAGE   11

     330 000201 0000          .field  64,32                   ; _cslNandIdLookup[36]._chipSize @ 8160
         000202 0040 
     331 000203 0000          .field  0,32                    ; _cslNandIdLookup[36]._eraseSize @ 8192
         000204 0000 
     332 000205 0000          .field  0,16                    ; _cslNandIdLookup[36]._nand8Bit @ 8224
     333 000206               .space  16
     334 000207 0000          .field  0,32                    ; _cslNandIdLookup[36]._nandOptions @ 8256
         000208 0000 
     335 000209 0000+         .field  $C$FSL11,32             ; _cslNandIdLookup[37]._name @ 8288
         00020a 0070 
     336 00020b 0000          .field  178,32                  ; _cslNandIdLookup[37]._id @ 8320
         00020c 00B2 
     337 00020d 0000          .field  0,32                    ; _cslNandIdLookup[37]._bytesPerPage @ 8352
         00020e 0000 
     338 00020f 0000          .field  64,32                   ; _cslNandIdLookup[37]._chipSize @ 8384
         000210 0040 
     339 000211 0000          .field  0,32                    ; _cslNandIdLookup[37]._eraseSize @ 8416
         000212 0000 
     340 000213 0001          .field  1,16                    ; _cslNandIdLookup[37]._nand8Bit @ 8448
     341 000214               .space  16
     342 000215 0000          .field  0,32                    ; _cslNandIdLookup[37]._nandOptions @ 8480
         000216 0000 
     343 000217 0000+         .field  $C$FSL11,32             ; _cslNandIdLookup[38]._name @ 8512
         000218 0070 
     344 000219 0000          .field  194,32                  ; _cslNandIdLookup[38]._id @ 8544
         00021a 00C2 
     345 00021b 0000          .field  0,32                    ; _cslNandIdLookup[38]._bytesPerPage @ 8576
         00021c 0000 
     346 00021d 0000          .field  64,32                   ; _cslNandIdLookup[38]._chipSize @ 8608
         00021e 0040 
     347 00021f 0000          .field  0,32                    ; _cslNandIdLookup[38]._eraseSize @ 8640
         000220 0000 
     348 000221 0001          .field  1,16                    ; _cslNandIdLookup[38]._nand8Bit @ 8672
     349 000222               .space  16
     350 000223 0000          .field  0,32                    ; _cslNandIdLookup[38]._nandOptions @ 8704
         000224 0000 
     351 000225 0000+         .field  $C$FSL12,32             ; _cslNandIdLookup[39]._name @ 8736
         000226 007C 
     352 000227 0000          .field  161,32                  ; _cslNandIdLookup[39]._id @ 8768
         000228 00A1 
     353 000229 0000          .field  0,32                    ; _cslNandIdLookup[39]._bytesPerPage @ 8800
         00022a 0000 
     354 00022b 0000          .field  128,32                  ; _cslNandIdLookup[39]._chipSize @ 8832
         00022c 0080 
     355 00022d 0000          .field  0,32                    ; _cslNandIdLookup[39]._eraseSize @ 8864
         00022e 0000 
     356 00022f 0000          .field  0,16                    ; _cslNandIdLookup[39]._nand8Bit @ 8896
     357 000230               .space  16
     358 000231 0000          .field  15,32                   ; _cslNandIdLookup[39]._nandOptions @ 8928
         000232 000F 
     359 000233 0000+         .field  $C$FSL12,32             ; _cslNandIdLookup[40]._name @ 8960
         000234 007C 
     360 000235 0000          .field  241,32                  ; _cslNandIdLookup[40]._id @ 8992
         000236 00F1 
     361 000237 0000          .field  0,32                    ; _cslNandIdLookup[40]._bytesPerPage @ 9024
TMS320C55x Assembler PC v4.4.1 Sat Sep 29 23:08:57 2018

Tools Copyright (c) 1996-2012 Texas Instruments Incorporated
csl_nand_dma_example.asm                                             PAGE   12

         000238 0000 
     362 000239 0000          .field  128,32                  ; _cslNandIdLookup[40]._chipSize @ 9056
         00023a 0080 
     363 00023b 0000          .field  0,32                    ; _cslNandIdLookup[40]._eraseSize @ 9088
         00023c 0000 
     364 00023d 0000          .field  0,16                    ; _cslNandIdLookup[40]._nand8Bit @ 9120
     365 00023e               .space  16
     366 00023f 0000          .field  15,32                   ; _cslNandIdLookup[40]._nandOptions @ 9152
         000240 000F 
     367 000241 0000+         .field  $C$FSL13,32             ; _cslNandIdLookup[41]._name @ 9184
         000242 0088 
     368 000243 0000          .field  177,32                  ; _cslNandIdLookup[41]._id @ 9216
         000244 00B1 
     369 000245 0000          .field  0,32                    ; _cslNandIdLookup[41]._bytesPerPage @ 9248
         000246 0000 
     370 000247 0000          .field  128,32                  ; _cslNandIdLookup[41]._chipSize @ 9280
         000248 0080 
     371 000249 0000          .field  0,32                    ; _cslNandIdLookup[41]._eraseSize @ 9312
         00024a 0000 
     372 00024b 0001          .field  1,16                    ; _cslNandIdLookup[41]._nand8Bit @ 9344
     373 00024c               .space  16
     374 00024d 0000          .field  15,32                   ; _cslNandIdLookup[41]._nandOptions @ 9376
         00024e 000F 
     375 00024f 0000+         .field  $C$FSL13,32             ; _cslNandIdLookup[42]._name @ 9408
         000250 0088 
     376 000251 0000          .field  193,32                  ; _cslNandIdLookup[42]._id @ 9440
         000252 00C1 
     377 000253 0000          .field  0,32                    ; _cslNandIdLookup[42]._bytesPerPage @ 9472
         000254 0000 
     378 000255 0000          .field  128,32                  ; _cslNandIdLookup[42]._chipSize @ 9504
         000256 0080 
     379 000257 0000          .field  0,32                    ; _cslNandIdLookup[42]._eraseSize @ 9536
         000258 0000 
     380 000259 0001          .field  1,16                    ; _cslNandIdLookup[42]._nand8Bit @ 9568
     381 00025a               .space  16
     382 00025b 0000          .field  15,32                   ; _cslNandIdLookup[42]._nandOptions @ 9600
         00025c 000F 
     383 00025d 0000+         .field  $C$FSL14,32             ; _cslNandIdLookup[43]._name @ 9632
         00025e 0096 
     384 00025f 0000          .field  170,32                  ; _cslNandIdLookup[43]._id @ 9664
         000260 00AA 
     385 000261 0000          .field  0,32                    ; _cslNandIdLookup[43]._bytesPerPage @ 9696
         000262 0000 
     386 000263 0000          .field  256,32                  ; _cslNandIdLookup[43]._chipSize @ 9728
         000264 0100 
     387 000265 0000          .field  0,32                    ; _cslNandIdLookup[43]._eraseSize @ 9760
         000266 0000 
     388 000267 0000          .field  0,16                    ; _cslNandIdLookup[43]._nand8Bit @ 9792
     389 000268               .space  16
     390 000269 0000          .field  15,32                   ; _cslNandIdLookup[43]._nandOptions @ 9824
         00026a 000F 
     391 00026b 0000+         .field  $C$FSL14,32             ; _cslNandIdLookup[44]._name @ 9856
         00026c 0096 
     392 00026d 0000          .field  218,32                  ; _cslNandIdLookup[44]._id @ 9888
         00026e 00DA 
TMS320C55x Assembler PC v4.4.1 Sat Sep 29 23:08:57 2018

Tools Copyright (c) 1996-2012 Texas Instruments Incorporated
csl_nand_dma_example.asm                                             PAGE   13

     393 00026f 0000          .field  0,32                    ; _cslNandIdLookup[44]._bytesPerPage @ 9920
         000270 0000 
     394 000271 0000          .field  256,32                  ; _cslNandIdLookup[44]._chipSize @ 9952
         000272 0100 
     395 000273 0000          .field  0,32                    ; _cslNandIdLookup[44]._eraseSize @ 9984
         000274 0000 
     396 000275 0000          .field  0,16                    ; _cslNandIdLookup[44]._nand8Bit @ 10016
     397 000276               .space  16
     398 000277 0000          .field  15,32                   ; _cslNandIdLookup[44]._nandOptions @ 10048
         000278 000F 
     399 000279 0000+         .field  $C$FSL15,32             ; _cslNandIdLookup[45]._name @ 10080
         00027a 00A2 
     400 00027b 0000          .field  186,32                  ; _cslNandIdLookup[45]._id @ 10112
         00027c 00BA 
     401 00027d 0000          .field  0,32                    ; _cslNandIdLookup[45]._bytesPerPage @ 10144
         00027e 0000 
     402 00027f 0000          .field  256,32                  ; _cslNandIdLookup[45]._chipSize @ 10176
         000280 0100 
     403 000281 0000          .field  0,32                    ; _cslNandIdLookup[45]._eraseSize @ 10208
         000282 0000 
     404 000283 0001          .field  1,16                    ; _cslNandIdLookup[45]._nand8Bit @ 10240
     405 000284               .space  16
     406 000285 0000          .field  15,32                   ; _cslNandIdLookup[45]._nandOptions @ 10272
         000286 000F 
     407 000287 0000+         .field  $C$FSL15,32             ; _cslNandIdLookup[46]._name @ 10304
         000288 00A2 
     408 000289 0000          .field  202,32                  ; _cslNandIdLookup[46]._id @ 10336
         00028a 00CA 
     409 00028b 0000          .field  0,32                    ; _cslNandIdLookup[46]._bytesPerPage @ 10368
         00028c 0000 
     410 00028d 0000          .field  256,32                  ; _cslNandIdLookup[46]._chipSize @ 10400
         00028e 0100 
     411 00028f 0000          .field  0,32                    ; _cslNandIdLookup[46]._eraseSize @ 10432
         000290 0000 
     412 000291 0001          .field  1,16                    ; _cslNandIdLookup[46]._nand8Bit @ 10464
     413 000292               .space  16
     414 000293 0000          .field  15,32                   ; _cslNandIdLookup[46]._nandOptions @ 10496
         000294 000F 
     415 000295 0000+         .field  $C$FSL16,32             ; _cslNandIdLookup[47]._name @ 10528
         000296 00B0 
     416 000297 0000          .field  172,32                  ; _cslNandIdLookup[47]._id @ 10560
         000298 00AC 
     417 000299 0000          .field  0,32                    ; _cslNandIdLookup[47]._bytesPerPage @ 10592
         00029a 0000 
     418 00029b 0000          .field  512,32                  ; _cslNandIdLookup[47]._chipSize @ 10624
         00029c 0200 
     419 00029d 0000          .field  0,32                    ; _cslNandIdLookup[47]._eraseSize @ 10656
         00029e 0000 
     420 00029f 0000          .field  0,16                    ; _cslNandIdLookup[47]._nand8Bit @ 10688
     421 0002a0               .space  16
     422 0002a1 0000          .field  15,32                   ; _cslNandIdLookup[47]._nandOptions @ 10720
         0002a2 000F 
     423 0002a3 0000+         .field  $C$FSL16,32             ; _cslNandIdLookup[48]._name @ 10752
         0002a4 00B0 
     424 0002a5 0000          .field  220,32                  ; _cslNandIdLookup[48]._id @ 10784
TMS320C55x Assembler PC v4.4.1 Sat Sep 29 23:08:57 2018

Tools Copyright (c) 1996-2012 Texas Instruments Incorporated
csl_nand_dma_example.asm                                             PAGE   14

         0002a6 00DC 
     425 0002a7 0000          .field  0,32                    ; _cslNandIdLookup[48]._bytesPerPage @ 10816
         0002a8 0000 
     426 0002a9 0000          .field  512,32                  ; _cslNandIdLookup[48]._chipSize @ 10848
         0002aa 0200 
     427 0002ab 0000          .field  0,32                    ; _cslNandIdLookup[48]._eraseSize @ 10880
         0002ac 0000 
     428 0002ad 0000          .field  0,16                    ; _cslNandIdLookup[48]._nand8Bit @ 10912
     429 0002ae               .space  16
     430 0002af 0000          .field  15,32                   ; _cslNandIdLookup[48]._nandOptions @ 10944
         0002b0 000F 
     431 0002b1 0000+         .field  $C$FSL17,32             ; _cslNandIdLookup[49]._name @ 10976
         0002b2 00BC 
     432 0002b3 0000          .field  188,32                  ; _cslNandIdLookup[49]._id @ 11008
         0002b4 00BC 
     433 0002b5 0000          .field  0,32                    ; _cslNandIdLookup[49]._bytesPerPage @ 11040
         0002b6 0000 
     434 0002b7 0000          .field  512,32                  ; _cslNandIdLookup[49]._chipSize @ 11072
         0002b8 0200 
     435 0002b9 0000          .field  0,32                    ; _cslNandIdLookup[49]._eraseSize @ 11104
         0002ba 0000 
     436 0002bb 0001          .field  1,16                    ; _cslNandIdLookup[49]._nand8Bit @ 11136
     437 0002bc               .space  16
     438 0002bd 0000          .field  15,32                   ; _cslNandIdLookup[49]._nandOptions @ 11168
         0002be 000F 
     439 0002bf 0000+         .field  $C$FSL17,32             ; _cslNandIdLookup[50]._name @ 11200
         0002c0 00BC 
     440 0002c1 0000          .field  204,32                  ; _cslNandIdLookup[50]._id @ 11232
         0002c2 00CC 
     441 0002c3 0000          .field  0,32                    ; _cslNandIdLookup[50]._bytesPerPage @ 11264
         0002c4 0000 
     442 0002c5 0000          .field  512,32                  ; _cslNandIdLookup[50]._chipSize @ 11296
         0002c6 0200 
     443 0002c7 0000          .field  0,32                    ; _cslNandIdLookup[50]._eraseSize @ 11328
         0002c8 0000 
     444 0002c9 0001          .field  1,16                    ; _cslNandIdLookup[50]._nand8Bit @ 11360
     445 0002ca               .space  16
     446 0002cb 0000          .field  15,32                   ; _cslNandIdLookup[50]._nandOptions @ 11392
         0002cc 000F 
     447 0002cd 0000+         .field  $C$FSL18,32             ; _cslNandIdLookup[51]._name @ 11424
         0002ce 00CA 
     448 0002cf 0000          .field  163,32                  ; _cslNandIdLookup[51]._id @ 11456
         0002d0 00A3 
     449 0002d1 0000          .field  0,32                    ; _cslNandIdLookup[51]._bytesPerPage @ 11488
         0002d2 0000 
     450 0002d3 0000          .field  1024,32                 ; _cslNandIdLookup[51]._chipSize @ 11520
         0002d4 0400 
     451 0002d5 0000          .field  0,32                    ; _cslNandIdLookup[51]._eraseSize @ 11552
         0002d6 0000 
     452 0002d7 0000          .field  0,16                    ; _cslNandIdLookup[51]._nand8Bit @ 11584
     453 0002d8               .space  16
     454 0002d9 0000          .field  15,32                   ; _cslNandIdLookup[51]._nandOptions @ 11616
         0002da 000F 
     455 0002db 0000+         .field  $C$FSL18,32             ; _cslNandIdLookup[52]._name @ 11648
         0002dc 00CA 
TMS320C55x Assembler PC v4.4.1 Sat Sep 29 23:08:57 2018

Tools Copyright (c) 1996-2012 Texas Instruments Incorporated
csl_nand_dma_example.asm                                             PAGE   15

     456 0002dd 0000          .field  211,32                  ; _cslNandIdLookup[52]._id @ 11680
         0002de 00D3 
     457 0002df 0000          .field  0,32                    ; _cslNandIdLookup[52]._bytesPerPage @ 11712
         0002e0 0000 
     458 0002e1 0000          .field  1024,32                 ; _cslNandIdLookup[52]._chipSize @ 11744
         0002e2 0400 
     459 0002e3 0000          .field  0,32                    ; _cslNandIdLookup[52]._eraseSize @ 11776
         0002e4 0000 
     460 0002e5 0000          .field  0,16                    ; _cslNandIdLookup[52]._nand8Bit @ 11808
     461 0002e6               .space  16
     462 0002e7 0000          .field  31,32                   ; _cslNandIdLookup[52]._nandOptions @ 11840
         0002e8 001F 
     463 0002e9 0000+         .field  $C$FSL19,32             ; _cslNandIdLookup[53]._name @ 11872
         0002ea 00D4 
     464 0002eb 0000          .field  179,32                  ; _cslNandIdLookup[53]._id @ 11904
         0002ec 00B3 
     465 0002ed 0000          .field  0,32                    ; _cslNandIdLookup[53]._bytesPerPage @ 11936
         0002ee 0000 
     466 0002ef 0000          .field  1024,32                 ; _cslNandIdLookup[53]._chipSize @ 11968
         0002f0 0400 
     467 0002f1 0000          .field  0,32                    ; _cslNandIdLookup[53]._eraseSize @ 12000
         0002f2 0000 
     468 0002f3 0001          .field  1,16                    ; _cslNandIdLookup[53]._nand8Bit @ 12032
     469 0002f4               .space  16
     470 0002f5 0000          .field  15,32                   ; _cslNandIdLookup[53]._nandOptions @ 12064
         0002f6 000F 
     471 0002f7 0000+         .field  $C$FSL19,32             ; _cslNandIdLookup[54]._name @ 12096
         0002f8 00D4 
     472 0002f9 0000          .field  195,32                  ; _cslNandIdLookup[54]._id @ 12128
         0002fa 00C3 
     473 0002fb 0000          .field  0,32                    ; _cslNandIdLookup[54]._bytesPerPage @ 12160
         0002fc 0000 
     474 0002fd 0000          .field  1024,32                 ; _cslNandIdLookup[54]._chipSize @ 12192
         0002fe 0400 
     475 0002ff 0000          .field  0,32                    ; _cslNandIdLookup[54]._eraseSize @ 12224
         000300 0000 
     476 000301 0001          .field  1,16                    ; _cslNandIdLookup[54]._nand8Bit @ 12256
     477 000302               .space  16
     478 000303 0000          .field  15,32                   ; _cslNandIdLookup[54]._nandOptions @ 12288
         000304 000F 
     479 000305 0000+         .field  $C$FSL20,32             ; _cslNandIdLookup[55]._name @ 12320
         000306 00E0 
     480 000307 0000          .field  165,32                  ; _cslNandIdLookup[55]._id @ 12352
         000308 00A5 
     481 000309 0000          .field  0,32                    ; _cslNandIdLookup[55]._bytesPerPage @ 12384
         00030a 0000 
     482 00030b 0000          .field  2048,32                 ; _cslNandIdLookup[55]._chipSize @ 12416
         00030c 0800 
     483 00030d 0000          .field  0,32                    ; _cslNandIdLookup[55]._eraseSize @ 12448
         00030e 0000 
     484 00030f 0000          .field  0,16                    ; _cslNandIdLookup[55]._nand8Bit @ 12480
     485 000310               .space  16
     486 000311 0000          .field  15,32                   ; _cslNandIdLookup[55]._nandOptions @ 12512
         000312 000F 
     487 000313 0000+         .field  $C$FSL20,32             ; _cslNandIdLookup[56]._name @ 12544
TMS320C55x Assembler PC v4.4.1 Sat Sep 29 23:08:57 2018

Tools Copyright (c) 1996-2012 Texas Instruments Incorporated
csl_nand_dma_example.asm                                             PAGE   16

         000314 00E0 
     488 000315 0000          .field  213,32                  ; _cslNandIdLookup[56]._id @ 12576
         000316 00D5 
     489 000317 0000          .field  0,32                    ; _cslNandIdLookup[56]._bytesPerPage @ 12608
         000318 0000 
     490 000319 0000          .field  2048,32                 ; _cslNandIdLookup[56]._chipSize @ 12640
         00031a 0800 
     491 00031b 0000          .field  0,32                    ; _cslNandIdLookup[56]._eraseSize @ 12672
         00031c 0000 
     492 00031d 0000          .field  0,16                    ; _cslNandIdLookup[56]._nand8Bit @ 12704
     493 00031e               .space  16
     494 00031f 0000          .field  15,32                   ; _cslNandIdLookup[56]._nandOptions @ 12736
         000320 000F 
     495 000321 0000+         .field  $C$FSL21,32             ; _cslNandIdLookup[57]._name @ 12768
         000322 00EA 
     496 000323 0000          .field  181,32                  ; _cslNandIdLookup[57]._id @ 12800
         000324 00B5 
     497 000325 0000          .field  0,32                    ; _cslNandIdLookup[57]._bytesPerPage @ 12832
         000326 0000 
     498 000327 0000          .field  2048,32                 ; _cslNandIdLookup[57]._chipSize @ 12864
         000328 0800 
     499 000329 0000          .field  0,32                    ; _cslNandIdLookup[57]._eraseSize @ 12896
         00032a 0000 
     500 00032b 0001          .field  1,16                    ; _cslNandIdLookup[57]._nand8Bit @ 12928
     501 00032c               .space  16
     502 00032d 0000          .field  15,32                   ; _cslNandIdLookup[57]._nandOptions @ 12960
         00032e 000F 
     503 00032f 0000+         .field  $C$FSL21,32             ; _cslNandIdLookup[58]._name @ 12992
         000330 00EA 
     504 000331 0000          .field  197,32                  ; _cslNandIdLookup[58]._id @ 13024
         000332 00C5 
     505 000333 0000          .field  0,32                    ; _cslNandIdLookup[58]._bytesPerPage @ 13056
         000334 0000 
     506 000335 0000          .field  2048,32                 ; _cslNandIdLookup[58]._chipSize @ 13088
         000336 0800 
     507 000337 0000          .field  0,32                    ; _cslNandIdLookup[58]._eraseSize @ 13120
         000338 0000 
     508 000339 0001          .field  1,16                    ; _cslNandIdLookup[58]._nand8Bit @ 13152
     509 00033a               .space  16
     510 00033b 0000          .field  15,32                   ; _cslNandIdLookup[58]._nandOptions @ 13184
         00033c 000F 
     511 00033d 0000          .field  0,32                    ; _cslNandIdLookup[59]._name @ 13216
         00033e 0000 
     512              $C$IR_1:        .set    828
     513              
     514 00033f               .sect   ".cinit"
     515                      .align  1
     516 00033f 0001          .field          1,16
     517 000340 000B-         .field          _gNandType+0,24
         000341 6C00 
     518 000341 6C00          .field          0,8
     519 000342 0000          .field  0,16                    ; _gNandType @ 0
     520              
     521 000343               .sect   ".cinit"
     522                      .align  1
TMS320C55x Assembler PC v4.4.1 Sat Sep 29 23:08:57 2018

Tools Copyright (c) 1996-2012 Texas Instruments Incorporated
csl_nand_dma_example.asm                                             PAGE   17

     523 000343 0001          .field          1,16
     524 000344 000B-         .field          _gDevIndex+0,24
         000345 6D00 
     525 000345 6D00          .field          0,8
     526 000346 0000          .field  0,16                    ; _gDevIndex @ 0
     527              
     528 000347               .sect   ".cinit"
     529                      .align  1
     530 000347 0001          .field          1,16
     531 000348 000B-         .field          _gNandPageSize+0,24
         000349 6E00 
     532 000349 6E00          .field          0,8
     533 00034a 0000          .field  0,16                    ; _gNandPageSize @ 0
     534              
     535 00034b               .sect   ".cinit"
     536                      .align  1
     537 00034b 0001          .field          1,16
     538 00034c 000B-         .field          _gRowAddrCycles+0,24
         00034d 6F00 
     539 00034d 6F00          .field          0,8
     540 00034e 0000          .field  0,16                    ; _gRowAddrCycles @ 0
     541              
     542 00034f               .sect   ".cinit"
     543                      .align  1
     544 00034f 0001          .field          1,16
     545 000350 000B-         .field          _gColAddrCycles+0,24
         000351 7000 
     546 000351 7000          .field          0,8
     547 000352 0000          .field  0,16                    ; _gColAddrCycles @ 0
     548              
     549 000353               .sect   ".cinit"
     550                      .align  1
     551 000353 0002          .field          2,16
     552 000354 000B-         .field          _gTotalPages+0,24
         000355 7200 
     553 000355 7200          .field          0,8
     554 000356 0000          .field  0,32                    ; _gTotalPages @ 0
         000357 0000 
     555              
     556 000358               .sect   ".cinit"
     557                      .align  1
     558 000358 0002          .field          2,16
     559 000359 000B-         .field          _gRowAddress+0,24
         00035a 7400 
     560 00035a 7400          .field          0,8
     561 00035b 0000          .field  64,32                   ; _gRowAddress @ 0
         00035c 0040 
     562              
     563 00035d               .sect   ".cinit"
     564                      .align  1
     565 00035d 0001          .field          1,16
     566 00035e 000B-         .field          _PaSs_StAtE+0,24
         00035f 7100 
     567 00035f 7100          .field          0,8
     568 000360 0001          .field  1,16                    ; _PaSs_StAtE @ 0
TMS320C55x Assembler PC v4.4.1 Sat Sep 29 23:08:57 2018

Tools Copyright (c) 1996-2012 Texas Instruments Incorporated
csl_nand_dma_example.asm                                             PAGE   18

     569              
     570 000361               .sect   ".cinit"
     571                      .align  1
     572 000361 0001          .field          1,16
     573 000362 000B-         .field          _PaSs+0,24
         000363 7600 
     574 000363 7600          .field          0,8
     575 000364 0000          .field  0,16                    ; _PaSs @ 0
     576              
     577              
     578              $C$DW$1 .dwtag  DW_TAG_subprogram, DW_AT_name("NAND_init")
     579                      .dwattr $C$DW$1, DW_AT_TI_symbol_name("_NAND_init")
     580                      .dwattr $C$DW$1, DW_AT_type(*$C$DW$T$107)
     581                      .dwattr $C$DW$1, DW_AT_declaration
     582                      .dwattr $C$DW$1, DW_AT_external
     583              $C$DW$2 .dwtag  DW_TAG_formal_parameter
     584                      .dwattr $C$DW$2, DW_AT_type(*$C$DW$T$122)
     585              $C$DW$3 .dwtag  DW_TAG_formal_parameter
     586                      .dwattr $C$DW$3, DW_AT_type(*$C$DW$T$19)
     587                      .dwendtag $C$DW$1
     588              
     589              
     590              $C$DW$4 .dwtag  DW_TAG_subprogram, DW_AT_name("NAND_setup")
     591                      .dwattr $C$DW$4, DW_AT_TI_symbol_name("_NAND_setup")
     592                      .dwattr $C$DW$4, DW_AT_type(*$C$DW$T$107)
     593                      .dwattr $C$DW$4, DW_AT_declaration
     594                      .dwattr $C$DW$4, DW_AT_external
     595              $C$DW$5 .dwtag  DW_TAG_formal_parameter
     596                      .dwattr $C$DW$5, DW_AT_type(*$C$DW$T$123)
     597              $C$DW$6 .dwtag  DW_TAG_formal_parameter
     598                      .dwattr $C$DW$6, DW_AT_type(*$C$DW$T$120)
     599                      .dwendtag $C$DW$4
     600              
     601              
     602              $C$DW$7 .dwtag  DW_TAG_subprogram, DW_AT_name("NAND_getBankInfo")
     603                      .dwattr $C$DW$7, DW_AT_TI_symbol_name("_NAND_getBankInfo")
     604                      .dwattr $C$DW$7, DW_AT_type(*$C$DW$T$107)
     605                      .dwattr $C$DW$7, DW_AT_declaration
     606                      .dwattr $C$DW$7, DW_AT_external
     607              $C$DW$8 .dwtag  DW_TAG_formal_parameter
     608                      .dwattr $C$DW$8, DW_AT_type(*$C$DW$T$123)
     609              $C$DW$9 .dwtag  DW_TAG_formal_parameter
     610                      .dwattr $C$DW$9, DW_AT_type(*$C$DW$T$118)
     611              $C$DW$10        .dwtag  DW_TAG_formal_parameter
     612                      .dwattr $C$DW$10, DW_AT_type(*$C$DW$T$19)
     613                      .dwendtag $C$DW$7
     614              
     615              
     616              $C$DW$11        .dwtag  DW_TAG_subprogram, DW_AT_name("NAND_isStatusWriteProtected")
     617                      .dwattr $C$DW$11, DW_AT_TI_symbol_name("_NAND_isStatusWriteProtected")
     618                      .dwattr $C$DW$11, DW_AT_type(*$C$DW$T$107)
     619                      .dwattr $C$DW$11, DW_AT_declaration
     620                      .dwattr $C$DW$11, DW_AT_external
     621              $C$DW$12        .dwtag  DW_TAG_formal_parameter
     622                      .dwattr $C$DW$12, DW_AT_type(*$C$DW$T$123)
TMS320C55x Assembler PC v4.4.1 Sat Sep 29 23:08:57 2018

Tools Copyright (c) 1996-2012 Texas Instruments Incorporated
csl_nand_dma_example.asm                                             PAGE   19

     623              $C$DW$13        .dwtag  DW_TAG_formal_parameter
     624                      .dwattr $C$DW$13, DW_AT_type(*$C$DW$T$134)
     625                      .dwendtag $C$DW$11
     626              
     627              
     628              $C$DW$14        .dwtag  DW_TAG_subprogram, DW_AT_name("NAND_sendCommand")
     629                      .dwattr $C$DW$14, DW_AT_TI_symbol_name("_NAND_sendCommand")
     630                      .dwattr $C$DW$14, DW_AT_type(*$C$DW$T$107)
     631                      .dwattr $C$DW$14, DW_AT_declaration
     632                      .dwattr $C$DW$14, DW_AT_external
     633              $C$DW$15        .dwtag  DW_TAG_formal_parameter
     634                      .dwattr $C$DW$15, DW_AT_type(*$C$DW$T$123)
     635              $C$DW$16        .dwtag  DW_TAG_formal_parameter
     636                      .dwattr $C$DW$16, DW_AT_type(*$C$DW$T$138)
     637                      .dwendtag $C$DW$14
     638              
     639              
     640              $C$DW$17        .dwtag  DW_TAG_subprogram, DW_AT_name("NAND_checkCommandStatus")
     641                      .dwattr $C$DW$17, DW_AT_TI_symbol_name("_NAND_checkCommandStatus")
     642                      .dwattr $C$DW$17, DW_AT_type(*$C$DW$T$107)
     643                      .dwattr $C$DW$17, DW_AT_declaration
     644                      .dwattr $C$DW$17, DW_AT_external
     645              $C$DW$18        .dwtag  DW_TAG_formal_parameter
     646                      .dwattr $C$DW$18, DW_AT_type(*$C$DW$T$123)
     647                      .dwendtag $C$DW$17
     648              
     649              
     650              $C$DW$19        .dwtag  DW_TAG_subprogram, DW_AT_name("NAND_setAddress")
     651                      .dwattr $C$DW$19, DW_AT_TI_symbol_name("_NAND_setAddress")
     652                      .dwattr $C$DW$19, DW_AT_type(*$C$DW$T$107)
     653                      .dwattr $C$DW$19, DW_AT_declaration
     654                      .dwattr $C$DW$19, DW_AT_external
     655              $C$DW$20        .dwtag  DW_TAG_formal_parameter
     656                      .dwattr $C$DW$20, DW_AT_type(*$C$DW$T$123)
     657              $C$DW$21        .dwtag  DW_TAG_formal_parameter
     658                      .dwattr $C$DW$21, DW_AT_type(*$C$DW$T$19)
     659                      .dwendtag $C$DW$19
     660              
     661              
     662              $C$DW$22        .dwtag  DW_TAG_subprogram, DW_AT_name("NAND_enableHwECC")
     663                      .dwattr $C$DW$22, DW_AT_TI_symbol_name("_NAND_enableHwECC")
     664                      .dwattr $C$DW$22, DW_AT_type(*$C$DW$T$107)
     665                      .dwattr $C$DW$22, DW_AT_declaration
     666                      .dwattr $C$DW$22, DW_AT_external
     667              $C$DW$23        .dwtag  DW_TAG_formal_parameter
     668                      .dwattr $C$DW$23, DW_AT_type(*$C$DW$T$123)
     669              $C$DW$24        .dwtag  DW_TAG_formal_parameter
     670                      .dwattr $C$DW$24, DW_AT_type(*$C$DW$T$85)
     671                      .dwendtag $C$DW$22
     672              
     673              
     674              $C$DW$25        .dwtag  DW_TAG_subprogram, DW_AT_name("NAND_disableHwECC")
     675                      .dwattr $C$DW$25, DW_AT_TI_symbol_name("_NAND_disableHwECC")
     676                      .dwattr $C$DW$25, DW_AT_type(*$C$DW$T$107)
     677                      .dwattr $C$DW$25, DW_AT_declaration
TMS320C55x Assembler PC v4.4.1 Sat Sep 29 23:08:57 2018

Tools Copyright (c) 1996-2012 Texas Instruments Incorporated
csl_nand_dma_example.asm                                             PAGE   20

     678                      .dwattr $C$DW$25, DW_AT_external
     679              $C$DW$26        .dwtag  DW_TAG_formal_parameter
     680                      .dwattr $C$DW$26, DW_AT_type(*$C$DW$T$123)
     681              $C$DW$27        .dwtag  DW_TAG_formal_parameter
     682                      .dwattr $C$DW$27, DW_AT_type(*$C$DW$T$85)
     683                      .dwendtag $C$DW$25
     684              
     685              
     686              $C$DW$28        .dwtag  DW_TAG_subprogram, DW_AT_name("NAND_readECC")
     687                      .dwattr $C$DW$28, DW_AT_TI_symbol_name("_NAND_readECC")
     688                      .dwattr $C$DW$28, DW_AT_type(*$C$DW$T$107)
     689                      .dwattr $C$DW$28, DW_AT_declaration
     690                      .dwattr $C$DW$28, DW_AT_external
     691              $C$DW$29        .dwtag  DW_TAG_formal_parameter
     692                      .dwattr $C$DW$29, DW_AT_type(*$C$DW$T$123)
     693              $C$DW$30        .dwtag  DW_TAG_formal_parameter
     694                      .dwattr $C$DW$30, DW_AT_type(*$C$DW$T$134)
     695              $C$DW$31        .dwtag  DW_TAG_formal_parameter
     696                      .dwattr $C$DW$31, DW_AT_type(*$C$DW$T$85)
     697                      .dwendtag $C$DW$28
     698              
     699              
     700              $C$DW$32        .dwtag  DW_TAG_subprogram, DW_AT_name("DMA_init")
     701                      .dwattr $C$DW$32, DW_AT_TI_symbol_name("_DMA_init")
     702                      .dwattr $C$DW$32, DW_AT_type(*$C$DW$T$107)
     703                      .dwattr $C$DW$32, DW_AT_declaration
     704                      .dwattr $C$DW$32, DW_AT_external
     705              
     706              $C$DW$33        .dwtag  DW_TAG_subprogram, DW_AT_name("DMA_open")
     707                      .dwattr $C$DW$33, DW_AT_TI_symbol_name("_DMA_open")
     708                      .dwattr $C$DW$33, DW_AT_type(*$C$DW$T$105)
     709                      .dwattr $C$DW$33, DW_AT_declaration
     710                      .dwattr $C$DW$33, DW_AT_external
     711              $C$DW$34        .dwtag  DW_TAG_formal_parameter
     712                      .dwattr $C$DW$34, DW_AT_type(*$C$DW$T$38)
     713              $C$DW$35        .dwtag  DW_TAG_formal_parameter
     714                      .dwattr $C$DW$35, DW_AT_type(*$C$DW$T$104)
     715              $C$DW$36        .dwtag  DW_TAG_formal_parameter
     716                      .dwattr $C$DW$36, DW_AT_type(*$C$DW$T$108)
     717                      .dwendtag $C$DW$33
     718              
     719              
     720              $C$DW$37        .dwtag  DW_TAG_subprogram, DW_AT_name("DMA_config")
     721                      .dwattr $C$DW$37, DW_AT_TI_symbol_name("_DMA_config")
     722                      .dwattr $C$DW$37, DW_AT_type(*$C$DW$T$107)
     723                      .dwattr $C$DW$37, DW_AT_declaration
     724                      .dwattr $C$DW$37, DW_AT_external
     725              $C$DW$38        .dwtag  DW_TAG_formal_parameter
     726                      .dwattr $C$DW$38, DW_AT_type(*$C$DW$T$105)
     727              $C$DW$39        .dwtag  DW_TAG_formal_parameter
     728                      .dwattr $C$DW$39, DW_AT_type(*$C$DW$T$114)
     729                      .dwendtag $C$DW$37
     730              
     731              
     732              $C$DW$40        .dwtag  DW_TAG_subprogram, DW_AT_name("DMA_start")
TMS320C55x Assembler PC v4.4.1 Sat Sep 29 23:08:57 2018

Tools Copyright (c) 1996-2012 Texas Instruments Incorporated
csl_nand_dma_example.asm                                             PAGE   21

     733                      .dwattr $C$DW$40, DW_AT_TI_symbol_name("_DMA_start")
     734                      .dwattr $C$DW$40, DW_AT_type(*$C$DW$T$107)
     735                      .dwattr $C$DW$40, DW_AT_declaration
     736                      .dwattr $C$DW$40, DW_AT_external
     737              $C$DW$41        .dwtag  DW_TAG_formal_parameter
     738                      .dwattr $C$DW$41, DW_AT_type(*$C$DW$T$105)
     739                      .dwendtag $C$DW$40
     740              
     741              
     742              $C$DW$42        .dwtag  DW_TAG_subprogram, DW_AT_name("printf")
     743                      .dwattr $C$DW$42, DW_AT_TI_symbol_name("_printf")
     744                      .dwattr $C$DW$42, DW_AT_type(*$C$DW$T$10)
     745                      .dwattr $C$DW$42, DW_AT_declaration
     746                      .dwattr $C$DW$42, DW_AT_external
     747              $C$DW$43        .dwtag  DW_TAG_formal_parameter
     748                      .dwattr $C$DW$43, DW_AT_type(*$C$DW$T$167)
     749              $C$DW$44        .dwtag  DW_TAG_unspecified_parameters
     750                      .dwendtag $C$DW$42
     751              
     752                      .global _gnandDmaReadBuf
     753 000000               .bss    _gnandDmaReadBuf,1024,0,4
     754              $C$DW$45        .dwtag  DW_TAG_variable, DW_AT_name("gnandDmaReadBuf")
     755                      .dwattr $C$DW$45, DW_AT_TI_symbol_name("_gnandDmaReadBuf")
     756                      .dwattr $C$DW$45, DW_AT_location[DW_OP_addr _gnandDmaReadBuf]
     757                      .dwattr $C$DW$45, DW_AT_type(*$C$DW$T$157)
     758                      .dwattr $C$DW$45, DW_AT_external
     759                      .global _gnandDmaWriteBuf
     760 000400               .bss    _gnandDmaWriteBuf,1024,0,4
     761              $C$DW$46        .dwtag  DW_TAG_variable, DW_AT_name("gnandDmaWriteBuf")
     762                      .dwattr $C$DW$46, DW_AT_TI_symbol_name("_gnandDmaWriteBuf")
     763                      .dwattr $C$DW$46, DW_AT_location[DW_OP_addr _gnandDmaWriteBuf]
     764                      .dwattr $C$DW$46, DW_AT_type(*$C$DW$T$157)
     765                      .dwattr $C$DW$46, DW_AT_external
     766                      .global _dmaWrHandle
     767 000800               .bss    _dmaWrHandle,2,0,2
     768              $C$DW$47        .dwtag  DW_TAG_variable, DW_AT_name("dmaWrHandle")
     769                      .dwattr $C$DW$47, DW_AT_TI_symbol_name("_dmaWrHandle")
     770                      .dwattr $C$DW$47, DW_AT_location[DW_OP_addr _dmaWrHandle]
     771                      .dwattr $C$DW$47, DW_AT_type(*$C$DW$T$105)
     772                      .dwattr $C$DW$47, DW_AT_external
     773                      .global _dmaRdHandle
     774 000802               .bss    _dmaRdHandle,2,0,2
     775              $C$DW$48        .dwtag  DW_TAG_variable, DW_AT_name("dmaRdHandle")
     776                      .dwattr $C$DW$48, DW_AT_TI_symbol_name("_dmaRdHandle")
     777                      .dwattr $C$DW$48, DW_AT_location[DW_OP_addr _dmaRdHandle]
     778                      .dwattr $C$DW$48, DW_AT_type(*$C$DW$T$105)
     779                      .dwattr $C$DW$48, DW_AT_external
     780                      .global _dmaConfig
     781 000804               .bss    _dmaConfig,14,0,2
     782              $C$DW$49        .dwtag  DW_TAG_variable, DW_AT_name("dmaConfig")
     783                      .dwattr $C$DW$49, DW_AT_TI_symbol_name("_dmaConfig")
     784                      .dwattr $C$DW$49, DW_AT_location[DW_OP_addr _dmaConfig]
     785                      .dwattr $C$DW$49, DW_AT_type(*$C$DW$T$113)
     786                      .dwattr $C$DW$49, DW_AT_external
     787                      .global _dmaWrChanObj
TMS320C55x Assembler PC v4.4.1 Sat Sep 29 23:08:57 2018

Tools Copyright (c) 1996-2012 Texas Instruments Incorporated
csl_nand_dma_example.asm                                             PAGE   22

     788 000812               .bss    _dmaWrChanObj,9,0,0
     789              $C$DW$50        .dwtag  DW_TAG_variable, DW_AT_name("dmaWrChanObj")
     790                      .dwattr $C$DW$50, DW_AT_TI_symbol_name("_dmaWrChanObj")
     791                      .dwattr $C$DW$50, DW_AT_location[DW_OP_addr _dmaWrChanObj]
     792                      .dwattr $C$DW$50, DW_AT_type(*$C$DW$T$103)
     793                      .dwattr $C$DW$50, DW_AT_external
     794                      .global _dmaRdChanObj
     795 00081b               .bss    _dmaRdChanObj,9,0,0
     796              $C$DW$51        .dwtag  DW_TAG_variable, DW_AT_name("dmaRdChanObj")
     797                      .dwattr $C$DW$51, DW_AT_TI_symbol_name("_dmaRdChanObj")
     798                      .dwattr $C$DW$51, DW_AT_location[DW_OP_addr _dmaRdChanObj]
     799                      .dwattr $C$DW$51, DW_AT_type(*$C$DW$T$103)
     800                      .dwattr $C$DW$51, DW_AT_external
     801                      .global _cslNandIdLookup
     802 000824               .bss    _cslNandIdLookup,840,0,2
     803              $C$DW$52        .dwtag  DW_TAG_variable, DW_AT_name("cslNandIdLookup")
     804                      .dwattr $C$DW$52, DW_AT_TI_symbol_name("_cslNandIdLookup")
     805                      .dwattr $C$DW$52, DW_AT_location[DW_OP_addr _cslNandIdLookup]
     806                      .dwattr $C$DW$52, DW_AT_type(*$C$DW$T$116)
     807                      .dwattr $C$DW$52, DW_AT_external
     808                      .global _gNandType
     809 000b6c               .bss    _gNandType,1,0,0
     810              $C$DW$53        .dwtag  DW_TAG_variable, DW_AT_name("gNandType")
     811                      .dwattr $C$DW$53, DW_AT_TI_symbol_name("_gNandType")
     812                      .dwattr $C$DW$53, DW_AT_location[DW_OP_addr _gNandType]
     813                      .dwattr $C$DW$53, DW_AT_type(*$C$DW$T$41)
     814                      .dwattr $C$DW$53, DW_AT_external
     815                      .global _gDevIndex
     816 000b6d               .bss    _gDevIndex,1,0,0
     817              $C$DW$54        .dwtag  DW_TAG_variable, DW_AT_name("gDevIndex")
     818                      .dwattr $C$DW$54, DW_AT_TI_symbol_name("_gDevIndex")
     819                      .dwattr $C$DW$54, DW_AT_location[DW_OP_addr _gDevIndex]
     820                      .dwattr $C$DW$54, DW_AT_type(*$C$DW$T$19)
     821                      .dwattr $C$DW$54, DW_AT_external
     822                      .global _gNandPageSize
     823 000b6e               .bss    _gNandPageSize,1,0,0
     824              $C$DW$55        .dwtag  DW_TAG_variable, DW_AT_name("gNandPageSize")
     825                      .dwattr $C$DW$55, DW_AT_TI_symbol_name("_gNandPageSize")
     826                      .dwattr $C$DW$55, DW_AT_location[DW_OP_addr _gNandPageSize]
     827                      .dwattr $C$DW$55, DW_AT_type(*$C$DW$T$19)
     828                      .dwattr $C$DW$55, DW_AT_external
     829                      .global _gRowAddrCycles
     830 000b6f               .bss    _gRowAddrCycles,1,0,0
     831              $C$DW$56        .dwtag  DW_TAG_variable, DW_AT_name("gRowAddrCycles")
     832                      .dwattr $C$DW$56, DW_AT_TI_symbol_name("_gRowAddrCycles")
     833                      .dwattr $C$DW$56, DW_AT_location[DW_OP_addr _gRowAddrCycles]
     834                      .dwattr $C$DW$56, DW_AT_type(*$C$DW$T$19)
     835                      .dwattr $C$DW$56, DW_AT_external
     836                      .global _gColAddrCycles
     837 000b70               .bss    _gColAddrCycles,1,0,0
     838              $C$DW$57        .dwtag  DW_TAG_variable, DW_AT_name("gColAddrCycles")
     839                      .dwattr $C$DW$57, DW_AT_TI_symbol_name("_gColAddrCycles")
     840                      .dwattr $C$DW$57, DW_AT_location[DW_OP_addr _gColAddrCycles]
     841                      .dwattr $C$DW$57, DW_AT_type(*$C$DW$T$19)
     842                      .dwattr $C$DW$57, DW_AT_external
TMS320C55x Assembler PC v4.4.1 Sat Sep 29 23:08:57 2018

Tools Copyright (c) 1996-2012 Texas Instruments Incorporated
csl_nand_dma_example.asm                                             PAGE   23

     843                      .global _gTotalPages
     844 000b72               .bss    _gTotalPages,2,0,2
     845              $C$DW$58        .dwtag  DW_TAG_variable, DW_AT_name("gTotalPages")
     846                      .dwattr $C$DW$58, DW_AT_TI_symbol_name("_gTotalPages")
     847                      .dwattr $C$DW$58, DW_AT_location[DW_OP_addr _gTotalPages]
     848                      .dwattr $C$DW$58, DW_AT_type(*$C$DW$T$59)
     849                      .dwattr $C$DW$58, DW_AT_external
     850                      .global _gRowAddress
     851 000b74               .bss    _gRowAddress,2,0,2
     852              $C$DW$59        .dwtag  DW_TAG_variable, DW_AT_name("gRowAddress")
     853                      .dwattr $C$DW$59, DW_AT_TI_symbol_name("_gRowAddress")
     854                      .dwattr $C$DW$59, DW_AT_location[DW_OP_addr _gRowAddress]
     855                      .dwattr $C$DW$59, DW_AT_type(*$C$DW$T$59)
     856                      .dwattr $C$DW$59, DW_AT_external
     857                      .global _PaSs_StAtE
     858 000b71               .bss    _PaSs_StAtE,1,0,0
     859              $C$DW$60        .dwtag  DW_TAG_variable, DW_AT_name("PaSs_StAtE")
     860                      .dwattr $C$DW$60, DW_AT_TI_symbol_name("_PaSs_StAtE")
     861                      .dwattr $C$DW$60, DW_AT_location[DW_OP_addr _PaSs_StAtE]
     862                      .dwattr $C$DW$60, DW_AT_type(*$C$DW$T$155)
     863                      .dwattr $C$DW$60, DW_AT_external
     864                      .global _PaSs
     865 000b76               .bss    _PaSs,1,0,0
     866              $C$DW$61        .dwtag  DW_TAG_variable, DW_AT_name("PaSs")
     867                      .dwattr $C$DW$61, DW_AT_TI_symbol_name("_PaSs")
     868                      .dwattr $C$DW$61, DW_AT_location[DW_OP_addr _PaSs]
     869                      .dwattr $C$DW$61, DW_AT_type(*$C$DW$T$155)
     870                      .dwattr $C$DW$61, DW_AT_external
     871              ;       F:\t\cc5p5\ccsv5\tools\compiler\c5500_4.4.1\bin\acp55.exe -@f:\\AppData\\Local\\Temp\\1088012 
     872 000000               .sect   ".text"
     873                      .align 4
     874              
     875              $C$DW$62        .dwtag  DW_TAG_subprogram, DW_AT_name("DMA_getStatus")
     876                      .dwattr $C$DW$62, DW_AT_low_pc(_DMA_getStatus)
     877                      .dwattr $C$DW$62, DW_AT_high_pc(0x00)
     878                      .dwattr $C$DW$62, DW_AT_TI_symbol_name("_DMA_getStatus")
     879                      .dwattr $C$DW$62, DW_AT_type(*$C$DW$T$99)
     880                      .dwattr $C$DW$62, DW_AT_TI_begin_file("F:/eZdsp_DBG/tmp1/c55x-sim2/foo/c5535_bsl_revc/ezdsp5535_v1/c5
     881                      .dwattr $C$DW$62, DW_AT_TI_begin_line(0x3f0)
     882                      .dwattr $C$DW$62, DW_AT_TI_begin_column(0x05)
     883                      .dwattr $C$DW$62, DW_AT_TI_max_frame_size(0x06)
     884                      .dwpsn  file "F:/eZdsp_DBG/tmp1/c55x-sim2/foo/c5535_bsl_revc/ezdsp5535_v1/c55xx_csl/inc/csl_dma.h",li
     885              
     886                      .dwfde $C$DW$CIE, _DMA_getStatus
     887              $C$DW$63        .dwtag  DW_TAG_formal_parameter, DW_AT_name("hDMA")
     888                      .dwattr $C$DW$63, DW_AT_TI_symbol_name("_hDMA")
     889                      .dwattr $C$DW$63, DW_AT_type(*$C$DW$T$105)
     890                      .dwattr $C$DW$63, DW_AT_location[DW_OP_reg17]
     891              ;*******************************************************************************
     892              ;* FUNCTION NAME: DMA_getStatus                                                *
     893              ;*                                                                             *
     894              ;*   Function Uses Regs : AC0,AC0,T0,AR0,XAR0,AR1,AR2,AR3,XAR3,SP,CARRY,TC1,   *
     895              ;*                        M40,SATA,SATD,RDM,FRCT,SMUL                          *
     896              ;*   Stack Frame        : Compact (No Frame Pointer, w/ debug)                 *
     897              ;*   Total Frame Size   : 6 words                                              *
TMS320C55x Assembler PC v4.4.1 Sat Sep 29 23:08:57 2018

Tools Copyright (c) 1996-2012 Texas Instruments Incorporated
csl_nand_dma_example.asm                                             PAGE   24

     898              ;*                        (2 return address/alignment)                         *
     899              ;*                        (4 local values)                                     *
     900              ;*   Min System Stack   : 1 word                                               *
     901              ;*******************************************************************************
     902 000000       _DMA_getStatus:
     903                      .dwcfi  cfa_offset, 1
     904                      .dwcfi  save_reg_to_mem, 91, -1
     905 000000 4EFB          AADD #-5, SP
     906                      .dwcfi  cfa_offset, 6
     907              $C$DW$64        .dwtag  DW_TAG_variable, DW_AT_name("hDMA")
     908                      .dwattr $C$DW$64, DW_AT_TI_symbol_name("_hDMA")
     909                      .dwattr $C$DW$64, DW_AT_type(*$C$DW$T$105)
     910                      .dwattr $C$DW$64, DW_AT_location[DW_OP_bregx 0x24 0]
     911              $C$DW$65        .dwtag  DW_TAG_variable, DW_AT_name("status")
     912                      .dwattr $C$DW$65, DW_AT_TI_symbol_name("_status")
     913                      .dwattr $C$DW$65, DW_AT_type(*$C$DW$T$99)
     914                      .dwattr $C$DW$65, DW_AT_location[DW_OP_bregx 0x24 2]
     915              $C$DW$66        .dwtag  DW_TAG_variable, DW_AT_name("chanNum")
     916                      .dwattr $C$DW$66, DW_AT_TI_symbol_name("_chanNum")
     917                      .dwattr $C$DW$66, DW_AT_type(*$C$DW$T$19)
     918                      .dwattr $C$DW$66, DW_AT_location[DW_OP_bregx 0x24 3]
     919 000002 EB00          MOV XAR0, dbl(*SP(#0))
         000004 85   
     920                      .dwpsn  file "F:/eZdsp_DBG/tmp1/c55x-sim2/foo/c5535_bsl_revc/ezdsp5535_v1/c55xx_csl/inc/csl_dma.h",li
     921 000005 ED00          MOV dbl(*SP(#0)), XAR3
         000007 BF   
     922 000008 90B0          MOV XAR3, AC0
     923 00000a 6D00          BCC $C$L7,AC0 == #0 ; |1018| 
         00000c 0094 
     924                                                      ; branchcc occurs ; |1018| 
     925                      .dwpsn  file "F:/eZdsp_DBG/tmp1/c55x-sim2/foo/c5535_bsl_revc/ezdsp5535_v1/c55xx_csl/inc/csl_dma.h",li
     926 00000e A973          MOV *AR3(short(#1)), AR1 ; |1020| 
     927 000010 C906          MOV AR1, *SP(#3) ; |1020| 
     928                      .dwpsn  file "F:/eZdsp_DBG/tmp1/c55x-sim2/foo/c5535_bsl_revc/ezdsp5535_v1/c55xx_csl/inc/csl_dma.h",li
     929 000012 3C4A          MOV #4, AR2
     930 000014 1294          CMPU AR1 < AR2, TC1 ; |1022| 
         000016 A4   
     931 000017 0464          BCC $C$L6,TC1 ; |1022| 
         000019 69   
     932                                                      ; branchcc occurs ; |1022| 
     933 00001a       $C$L1:    
     934 00001a       $C$DW$L$_DMA_getStatus$3$B:
     935                      .dwpsn  file "F:/eZdsp_DBG/tmp1/c55x-sim2/foo/c5535_bsl_revc/ezdsp5535_v1/c55xx_csl/inc/csl_dma.h",li
     936 00001a F706          SUB #4, *SP(#3) ; |1024| 
         00001c FFFC 
     937                      .dwpsn  file "F:/eZdsp_DBG/tmp1/c55x-sim2/foo/c5535_bsl_revc/ezdsp5535_v1/c55xx_csl/inc/csl_dma.h",li
     938 00001e A906          MOV *SP(#3), AR1 ; |1022| 
     939 000020 1298          CMPU AR1 >= AR2, TC1 ; |1022| 
         000022 A4   
     940 000023 0464          BCC $C$L1,TC1 ; |1022| 
         000025 F4   
     941                                                      ; branchcc occurs ; |1022| 
     942 000026       $C$DW$L$_DMA_getStatus$3$E:
     943                      .dwpsn  file "F:/eZdsp_DBG/tmp1/c55x-sim2/foo/c5535_bsl_revc/ezdsp5535_v1/c55xx_csl/inc/csl_dma.h",li
     944 000026 0600          B $C$L6   ; |1027| 
TMS320C55x Assembler PC v4.4.1 Sat Sep 29 23:08:57 2018

Tools Copyright (c) 1996-2012 Texas Instruments Incorporated
csl_nand_dma_example.asm                                             PAGE   25

         000028 5A   
     945                                                      ; branch occurs ; |1027| 
     946 000029       $C$L2:    
     947                      .dwpsn  file "F:/eZdsp_DBG/tmp1/c55x-sim2/foo/c5535_bsl_revc/ezdsp5535_v1/c55xx_csl/inc/csl_dma.h",li
     948 000029 ED00          MOV dbl(*SP(#0)), XAR3
         00002b BF   
     949 00002c AB61          MOV *AR3, AR3 ; |1030| 
     950 00002e A97B          MOV port(*AR3(short(#5))), AR1 ; |1030| 
         000030 99   
     951 000031 7D80          AND #0x8000, AR1, AC0 ; |1030| 
         000033 0009 
     952 000035 1005          SFTS AC0, #-15, AC0 ; |1030| 
         000037 31   
     953 000038 C004          MOV AC0, *SP(#2) ; |1030| 
     954                      .dwpsn  file "F:/eZdsp_DBG/tmp1/c55x-sim2/foo/c5535_bsl_revc/ezdsp5535_v1/c55xx_csl/inc/csl_dma.h",li
     955 00003a 0600          B $C$L8   ; |1031| 
         00003c 68   
     956                                                      ; branch occurs ; |1031| 
     957 00003d       $C$L3:    
     958                      .dwpsn  file "F:/eZdsp_DBG/tmp1/c55x-sim2/foo/c5535_bsl_revc/ezdsp5535_v1/c55xx_csl/inc/csl_dma.h",li
     959 00003d ED00          MOV dbl(*SP(#0)), XAR3
         00003f BF   
     960 000040 7600          MOV #37, T0 ; |1033| 
         000042 2548 
     961 000044 AB61          MOV *AR3, AR3 ; |1033| 
     962 000046 A96B          MOV port(*AR3(T0)), AR1 ; |1033| 
         000048 99   
     963 000049 7D80          AND #0x8000, AR1, AC0 ; |1033| 
         00004b 0009 
     964 00004d 1005          SFTS AC0, #-15, AC0 ; |1033| 
         00004f 31   
     965 000050 C004          MOV AC0, *SP(#2) ; |1033| 
     966                      .dwpsn  file "F:/eZdsp_DBG/tmp1/c55x-sim2/foo/c5535_bsl_revc/ezdsp5535_v1/c55xx_csl/inc/csl_dma.h",li
     967 000052 0600          B $C$L8   ; |1034| 
         000054 50   
     968                                                      ; branch occurs ; |1034| 
     969 000055       $C$L4:    
     970                      .dwpsn  file "F:/eZdsp_DBG/tmp1/c55x-sim2/foo/c5535_bsl_revc/ezdsp5535_v1/c55xx_csl/inc/csl_dma.h",li
     971 000055 ED00          MOV dbl(*SP(#0)), XAR3
         000057 BF   
     972 000058 7600          MOV #69, T0 ; |1036| 
         00005a 4548 
     973 00005c AB61          MOV *AR3, AR3 ; |1036| 
     974 00005e A96B          MOV port(*AR3(T0)), AR1 ; |1036| 
         000060 99   
     975 000061 7D80          AND #0x8000, AR1, AC0 ; |1036| 
         000063 0009 
     976 000065 1005          SFTS AC0, #-15, AC0 ; |1036| 
         000067 31   
     977 000068 C004          MOV AC0, *SP(#2) ; |1036| 
     978                      .dwpsn  file "F:/eZdsp_DBG/tmp1/c55x-sim2/foo/c5535_bsl_revc/ezdsp5535_v1/c55xx_csl/inc/csl_dma.h",li
     979 00006a 4A39          B $C$L8   ; |1037| 
     980                                                      ; branch occurs ; |1037| 
     981 00006c       $C$L5:    
     982                      .dwpsn  file "F:/eZdsp_DBG/tmp1/c55x-sim2/foo/c5535_bsl_revc/ezdsp5535_v1/c55xx_csl/inc/csl_dma.h",li
TMS320C55x Assembler PC v4.4.1 Sat Sep 29 23:08:57 2018

Tools Copyright (c) 1996-2012 Texas Instruments Incorporated
csl_nand_dma_example.asm                                             PAGE   26

     983 00006c ED00          MOV dbl(*SP(#0)), XAR3
         00006e BF   
     984 00006f 7600          MOV #101, T0 ; |1039| 
         000071 6548 
     985 000073 AB61          MOV *AR3, AR3 ; |1039| 
     986 000075 A96B          MOV port(*AR3(T0)), AR1 ; |1039| 
         000077 99   
     987 000078 7D80          AND #0x8000, AR1, AC0 ; |1039| 
         00007a 0009 
     988 00007c 1005          SFTS AC0, #-15, AC0 ; |1039| 
         00007e 31   
     989 00007f C004          MOV AC0, *SP(#2) ; |1039| 
     990                      .dwpsn  file "F:/eZdsp_DBG/tmp1/c55x-sim2/foo/c5535_bsl_revc/ezdsp5535_v1/c55xx_csl/inc/csl_dma.h",li
     991 000081 4A22          B $C$L8   ; |1040| 
     992                                                      ; branch occurs ; |1040| 
     993 000083       $C$L6:    
     994                      .dwpsn  file "F:/eZdsp_DBG/tmp1/c55x-sim2/foo/c5535_bsl_revc/ezdsp5535_v1/c55xx_csl/inc/csl_dma.h",li
     995 000083 A906          MOV *SP(#3), AR1 ; |1027| 
     996 000085 0409          BCC $C$L2,AR1 == #0 ; |1027| 
         000087 A1   
     997                                                      ; branchcc occurs ; |1027| 
     998 000088 3C1A          MOV #1, AR2
     999 00008a 1290          CMP AR1 == AR2, TC1 ; |1027| 
         00008c A0   
    1000 00008d 0464          BCC $C$L3,TC1 ; |1027| 
         00008f AD   
    1001                                                      ; branchcc occurs ; |1027| 
    1002 000090 3C2A          MOV #2, AR2
    1003 000092 1290          CMP AR1 == AR2, TC1 ; |1027| 
         000094 A0   
    1004 000095 0464          BCC $C$L4,TC1 ; |1027| 
         000097 BD   
    1005                                                      ; branchcc occurs ; |1027| 
    1006 000098 3C3A          MOV #3, AR2
    1007 00009a 1290          CMP AR1 == AR2, TC1 ; |1027| 
         00009c A0   
    1008 00009d 0464          BCC $C$L5,TC1 ; |1027| 
         00009f CC   
    1009                                                      ; branchcc occurs ; |1027| 
    1010 0000a0 4A03          B $C$L8   ; |1027| 
    1011                                                      ; branch occurs ; |1027| 
    1012 0000a2       $C$L7:    
    1013                      .dwpsn  file "F:/eZdsp_DBG/tmp1/c55x-sim2/foo/c5535_bsl_revc/ezdsp5535_v1/c55xx_csl/inc/csl_dma.h",li
    1014 0000a2 E604          MOV #-5, *SP(#2) ; |1045| 
         0000a4 FB   
    1015 0000a5       $C$L8:    
    1016                      .dwpsn  file "F:/eZdsp_DBG/tmp1/c55x-sim2/foo/c5535_bsl_revc/ezdsp5535_v1/c55xx_csl/inc/csl_dma.h",li
    1017 0000a5 A404          MOV *SP(#2), T0 ; |1048| 
    1018                      .dwpsn  file "F:/eZdsp_DBG/tmp1/c55x-sim2/foo/c5535_bsl_revc/ezdsp5535_v1/c55xx_csl/inc/csl_dma.h",li
    1019 0000a7 4E05          AADD #5, SP
    1020                      .dwcfi  cfa_offset, 1
    1021              $C$DW$67        .dwtag  DW_TAG_TI_branch
    1022                      .dwattr $C$DW$67, DW_AT_low_pc(0x00)
    1023                      .dwattr $C$DW$67, DW_AT_TI_return
    1024 0000a9 4804          RET
TMS320C55x Assembler PC v4.4.1 Sat Sep 29 23:08:57 2018

Tools Copyright (c) 1996-2012 Texas Instruments Incorporated
csl_nand_dma_example.asm                                             PAGE   27

    1025                                                      ; return occurs
    1026              
    1027              $C$DW$68        .dwtag  DW_TAG_TI_loop
    1028                      .dwattr $C$DW$68, DW_AT_name("F:\eZdsp_DBG\tmp1\c55x-sim2\foo\Debug\csl_nand_dma_example.asm:$C$L1:1:
    1029                      .dwattr $C$DW$68, DW_AT_TI_begin_file("F:/eZdsp_DBG/tmp1/c55x-sim2/foo/c5535_bsl_revc/ezdsp5535_v1/c5
    1030                      .dwattr $C$DW$68, DW_AT_TI_begin_line(0x3fe)
    1031                      .dwattr $C$DW$68, DW_AT_TI_end_line(0x401)
    1032              $C$DW$69        .dwtag  DW_TAG_TI_loop_range
    1033                      .dwattr $C$DW$69, DW_AT_low_pc($C$DW$L$_DMA_getStatus$3$B)
    1034                      .dwattr $C$DW$69, DW_AT_high_pc($C$DW$L$_DMA_getStatus$3$E)
    1035                      .dwendtag $C$DW$68
    1036              
    1037                      .dwattr $C$DW$62, DW_AT_TI_end_file("F:/eZdsp_DBG/tmp1/c55x-sim2/foo/c5535_bsl_revc/ezdsp5535_v1/c55x
    1038                      .dwattr $C$DW$62, DW_AT_TI_end_line(0x419)
    1039                      .dwattr $C$DW$62, DW_AT_TI_end_column(0x01)
    1040                      .dwendentry
    1041                      .dwendtag $C$DW$62
    1042              
    1043 0000ab               .sect   ".text"
    1044                      .align 4
    1045                      .global _main
    1046              
    1047              $C$DW$70        .dwtag  DW_TAG_subprogram, DW_AT_name("main")
    1048                      .dwattr $C$DW$70, DW_AT_low_pc(_main)
    1049                      .dwattr $C$DW$70, DW_AT_high_pc(0x00)
    1050                      .dwattr $C$DW$70, DW_AT_TI_symbol_name("_main")
    1051                      .dwattr $C$DW$70, DW_AT_external
    1052                      .dwattr $C$DW$70, DW_AT_TI_begin_file("../c5535_bsl_revc/ezdsp5535_v1/c55xx_csl/ccs_v4.0_examples/nan
    1053                      .dwattr $C$DW$70, DW_AT_TI_begin_line(0x137)
    1054                      .dwattr $C$DW$70, DW_AT_TI_begin_column(0x06)
    1055                      .dwattr $C$DW$70, DW_AT_TI_max_frame_size(0x04)
    1056                      .dwpsn  file "../c5535_bsl_revc/ezdsp5535_v1/c55xx_csl/ccs_v4.0_examples/nand/CSL_NAND_DmaExample/csl
    1057              
    1058                      .dwfde $C$DW$CIE, _main
    1059              ;*******************************************************************************
    1060              ;* FUNCTION NAME: main                                                         *
    1061              ;*                                                                             *
    1062              ;*   Function Uses Regs : T0,AR1,AR3,XAR3,SP,M40,SATA,SATD,RDM,FRCT,SMUL       *
    1063              ;*   Stack Frame        : Compact (No Frame Pointer, w/ debug)                 *
    1064              ;*   Total Frame Size   : 4 words                                              *
    1065              ;*                        (1 return address/alignment)                         *
    1066              ;*                        (2 function parameters)                              *
    1067              ;*                        (1 local values)                                     *
    1068              ;*   Min System Stack   : 1 word                                               *
    1069              ;*******************************************************************************
    1070 0000ac       _main:
    1071                      .dwcfi  cfa_offset, 1
    1072                      .dwcfi  save_reg_to_mem, 91, -1
    1073 0000ac 4EFD          AADD #-3, SP
    1074                      .dwcfi  cfa_offset, 4
    1075              $C$DW$71        .dwtag  DW_TAG_variable, DW_AT_name("result")
    1076                      .dwattr $C$DW$71, DW_AT_TI_symbol_name("_result")
    1077                      .dwattr $C$DW$71, DW_AT_type(*$C$DW$T$107)
    1078                      .dwattr $C$DW$71, DW_AT_location[DW_OP_bregx 0x24 2]
    1079                      .dwpsn  file "../c5535_bsl_revc/ezdsp5535_v1/c55xx_csl/ccs_v4.0_examples/nand/CSL_NAND_DmaExample/csl
TMS320C55x Assembler PC v4.4.1 Sat Sep 29 23:08:57 2018

Tools Copyright (c) 1996-2012 Texas Instruments Incorporated
csl_nand_dma_example.asm                                             PAGE   28

    1080              $C$DW$72        .dwtag  DW_TAG_TI_branch
    1081                      .dwattr $C$DW$72, DW_AT_low_pc(0x00)
    1082                      .dwattr $C$DW$72, DW_AT_name("_CSL_nandDmaTest")
    1083                      .dwattr $C$DW$72, DW_AT_TI_call
    1084 0000ae 0800          CALL #_CSL_nandDmaTest ; |316| 
         0000b0 37   
    1085                                                      ; call occurs [#_CSL_nandDmaTest] ; |316| 
    1086 0000b1 C404          MOV T0, *SP(#2) ; |316| 
    1087                      .dwpsn  file "../c5535_bsl_revc/ezdsp5535_v1/c55xx_csl/ccs_v4.0_examples/nand/CSL_NAND_DmaExample/csl
    1088 0000b3 2249          MOV T0, AR1
    1089 0000b5 0409          BCC $C$L9,AR1 == #0 ; |318| 
         0000b7 15   
    1090                                                      ; branchcc occurs ; |318| 
    1091                      .dwpsn  file "../c5535_bsl_revc/ezdsp5535_v1/c55xx_csl/ccs_v4.0_examples/nand/CSL_NAND_DmaExample/csl
    1092 0000b8 EC31          AMOV #$C$FSL22, XAR3 ; |320| 
         0000ba BE00 
         0000bc 00F6+
    1093 0000be EB00          MOV XAR3, dbl(*SP(#0))
         0000c0 B5   
    1094              $C$DW$73        .dwtag  DW_TAG_TI_branch
    1095                      .dwattr $C$DW$73, DW_AT_low_pc(0x00)
    1096                      .dwattr $C$DW$73, DW_AT_name("_printf")
    1097                      .dwattr $C$DW$73, DW_AT_TI_call
    1098 0000c1 6C00          CALL #_printf ; |320| 
         0000c3 0000!
    1099                                                      ; call occurs [#_printf] ; |320| 
    1100                      .dwpsn  file "../c5535_bsl_revc/ezdsp5535_v1/c55xx_csl/ccs_v4.0_examples/nand/CSL_NAND_DmaExample/csl
    1101 0000c5 E631          MOV #0, *(#_PaSs_StAtE) ; |323| 
         0000c7 0000 
         0000c9 0B71-
    1102                      .dwpsn  file "../c5535_bsl_revc/ezdsp5535_v1/c55xx_csl/ccs_v4.0_examples/nand/CSL_NAND_DmaExample/csl
    1103 0000cb 4A0D          B $C$L10  ; |325| 
    1104                                                      ; branch occurs ; |325| 
    1105 0000cd       $C$L9:    
    1106                      .dwpsn  file "../c5535_bsl_revc/ezdsp5535_v1/c55xx_csl/ccs_v4.0_examples/nand/CSL_NAND_DmaExample/csl
    1107 0000cd EC31          AMOV #$C$FSL23, XAR3 ; |328| 
         0000cf BE00 
         0000d1 0114+
    1108 0000d3 EB00          MOV XAR3, dbl(*SP(#0))
         0000d5 B5   
    1109              $C$DW$74        .dwtag  DW_TAG_TI_branch
    1110                      .dwattr $C$DW$74, DW_AT_low_pc(0x00)
    1111                      .dwattr $C$DW$74, DW_AT_name("_printf")
    1112                      .dwattr $C$DW$74, DW_AT_TI_call
    1113 0000d6 6C00          CALL #_printf ; |328| 
         0000d8 0000!
    1114                                                      ; call occurs [#_printf] ; |328| 
    1115 0000da       $C$L10:    
    1116                      .dwpsn  file "../c5535_bsl_revc/ezdsp5535_v1/c55xx_csl/ccs_v4.0_examples/nand/CSL_NAND_DmaExample/csl
    1117 0000da A931          MOV *(#_PaSs_StAtE), AR1 ; |332| 
         0000dc 000B 
         0000de 71-  
    1118 0000df C931          MOV AR1, *(#_PaSs) ; |332| 
         0000e1 000B 
         0000e3 76-  
TMS320C55x Assembler PC v4.4.1 Sat Sep 29 23:08:57 2018

Tools Copyright (c) 1996-2012 Texas Instruments Incorporated
csl_nand_dma_example.asm                                             PAGE   29

    1119                      .dwpsn  file "../c5535_bsl_revc/ezdsp5535_v1/c55xx_csl/ccs_v4.0_examples/nand/CSL_NAND_DmaExample/csl
    1120 0000e4 4E03          AADD #3, SP
    1121                      .dwcfi  cfa_offset, 1
    1122              $C$DW$75        .dwtag  DW_TAG_TI_branch
    1123                      .dwattr $C$DW$75, DW_AT_low_pc(0x00)
    1124                      .dwattr $C$DW$75, DW_AT_TI_return
    1125 0000e6 4804          RET
    1126                                                      ; return occurs
    1127                      .dwattr $C$DW$70, DW_AT_TI_end_file("../c5535_bsl_revc/ezdsp5535_v1/c55xx_csl/ccs_v4.0_examples/nand/
    1128                      .dwattr $C$DW$70, DW_AT_TI_end_line(0x151)
    1129                      .dwattr $C$DW$70, DW_AT_TI_end_column(0x01)
    1130                      .dwendentry
    1131                      .dwendtag $C$DW$70
    1132              
    1133 0000e8               .sect   ".text"
    1134                      .align 4
    1135                      .global _CSL_nandDmaTest
    1136              
    1137              $C$DW$76        .dwtag  DW_TAG_subprogram, DW_AT_name("CSL_nandDmaTest")
    1138                      .dwattr $C$DW$76, DW_AT_low_pc(_CSL_nandDmaTest)
    1139                      .dwattr $C$DW$76, DW_AT_high_pc(0x00)
    1140                      .dwattr $C$DW$76, DW_AT_TI_symbol_name("_CSL_nandDmaTest")
    1141                      .dwattr $C$DW$76, DW_AT_external
    1142                      .dwattr $C$DW$76, DW_AT_type(*$C$DW$T$107)
    1143                      .dwattr $C$DW$76, DW_AT_TI_begin_file("../c5535_bsl_revc/ezdsp5535_v1/c55xx_csl/ccs_v4.0_examples/nan
    1144                      .dwattr $C$DW$76, DW_AT_TI_begin_line(0x15a)
    1145                      .dwattr $C$DW$76, DW_AT_TI_begin_column(0x0d)
    1146                      .dwattr $C$DW$76, DW_AT_TI_max_frame_size(0x46)
    1147                      .dwpsn  file "../c5535_bsl_revc/ezdsp5535_v1/c55xx_csl/ccs_v4.0_examples/nand/CSL_NAND_DmaExample/csl
    1148              
    1149                      .dwfde $C$DW$CIE, _CSL_nandDmaTest
    1150              ;*******************************************************************************
    1151              ;* FUNCTION NAME: CSL_nandDmaTest                                              *
    1152              ;*                                                                             *
    1153              ;*   Function Uses Regs : AC0,AC0,T0,AR0,XAR0,AR1,XAR1,AR2,AR3,XAR3,SP,CARRY,  *
    1154              ;*                        TC1,M40,SATA,SATD,RDM,FRCT,SMUL                      *
    1155              ;*   Stack Frame        : Compact (No Frame Pointer, w/ debug)                 *
    1156              ;*   Total Frame Size   : 70 words                                             *
    1157              ;*                        (2 return address/alignment)                         *
    1158              ;*                        (2 function parameters)                              *
    1159              ;*                        (66 local values)                                    *
    1160              ;*   Min System Stack   : 1 word                                               *
    1161              ;*******************************************************************************
    1162 0000e8       _CSL_nandDmaTest:
    1163                      .dwcfi  cfa_offset, 1
    1164                      .dwcfi  save_reg_to_mem, 91, -1
    1165 0000e8 4EBB          AADD #-69, SP
    1166                      .dwcfi  cfa_offset, 70
    1167              $C$DW$77        .dwtag  DW_TAG_variable, DW_AT_name("asyncWaitConfig")
    1168                      .dwattr $C$DW$77, DW_AT_TI_symbol_name("_asyncWaitConfig")
    1169                      .dwattr $C$DW$77, DW_AT_type(*$C$DW$T$86)
    1170                      .dwattr $C$DW$77, DW_AT_location[DW_OP_bregx 0x24 2]
    1171              $C$DW$78        .dwtag  DW_TAG_variable, DW_AT_name("chipSel")
    1172                      .dwattr $C$DW$78, DW_AT_TI_symbol_name("_chipSel")
    1173                      .dwattr $C$DW$78, DW_AT_type(*$C$DW$T$85)
TMS320C55x Assembler PC v4.4.1 Sat Sep 29 23:08:57 2018

Tools Copyright (c) 1996-2012 Texas Instruments Incorporated
csl_nand_dma_example.asm                                             PAGE   30

    1174                      .dwattr $C$DW$78, DW_AT_location[DW_OP_bregx 0x24 5]
    1175              $C$DW$79        .dwtag  DW_TAG_variable, DW_AT_name("asyncConfig")
    1176                      .dwattr $C$DW$79, DW_AT_TI_symbol_name("_asyncConfig")
    1177                      .dwattr $C$DW$79, DW_AT_type(*$C$DW$T$88)
    1178                      .dwattr $C$DW$79, DW_AT_location[DW_OP_bregx 0x24 6]
    1179              $C$DW$80        .dwtag  DW_TAG_variable, DW_AT_name("nandCfg")
    1180                      .dwattr $C$DW$80, DW_AT_TI_symbol_name("_nandCfg")
    1181                      .dwattr $C$DW$80, DW_AT_type(*$C$DW$T$119)
    1182                      .dwattr $C$DW$80, DW_AT_location[DW_OP_bregx 0x24 16]
    1183              $C$DW$81        .dwtag  DW_TAG_variable, DW_AT_name("hNand")
    1184                      .dwattr $C$DW$81, DW_AT_TI_symbol_name("_hNand")
    1185                      .dwattr $C$DW$81, DW_AT_type(*$C$DW$T$123)
    1186                      .dwattr $C$DW$81, DW_AT_location[DW_OP_bregx 0x24 28]
    1187              $C$DW$82        .dwtag  DW_TAG_variable, DW_AT_name("nandPort")
    1188                      .dwattr $C$DW$82, DW_AT_TI_symbol_name("_nandPort")
    1189                      .dwattr $C$DW$82, DW_AT_type(*$C$DW$T$72)
    1190                      .dwattr $C$DW$82, DW_AT_location[DW_OP_bregx 0x24 30]
    1191              $C$DW$83        .dwtag  DW_TAG_variable, DW_AT_name("nandObj")
    1192                      .dwattr $C$DW$83, DW_AT_TI_symbol_name("_nandObj")
    1193                      .dwattr $C$DW$83, DW_AT_type(*$C$DW$T$121)
    1194                      .dwattr $C$DW$83, DW_AT_location[DW_OP_bregx 0x24 32]
    1195              $C$DW$84        .dwtag  DW_TAG_variable, DW_AT_name("status")
    1196                      .dwattr $C$DW$84, DW_AT_TI_symbol_name("_status")
    1197                      .dwattr $C$DW$84, DW_AT_type(*$C$DW$T$107)
    1198                      .dwattr $C$DW$84, DW_AT_location[DW_OP_bregx 0x24 52]
    1199              $C$DW$85        .dwtag  DW_TAG_variable, DW_AT_name("result")
    1200                      .dwattr $C$DW$85, DW_AT_TI_symbol_name("_result")
    1201                      .dwattr $C$DW$85, DW_AT_type(*$C$DW$T$107)
    1202                      .dwattr $C$DW$85, DW_AT_location[DW_OP_bregx 0x24 53]
    1203              $C$DW$86        .dwtag  DW_TAG_variable, DW_AT_name("instId")
    1204                      .dwattr $C$DW$86, DW_AT_TI_symbol_name("_instId")
    1205                      .dwattr $C$DW$86, DW_AT_type(*$C$DW$T$19)
    1206                      .dwattr $C$DW$86, DW_AT_location[DW_OP_bregx 0x24 54]
    1207              $C$DW$87        .dwtag  DW_TAG_variable, DW_AT_name("bankNum")
    1208                      .dwattr $C$DW$87, DW_AT_TI_symbol_name("_bankNum")
    1209                      .dwattr $C$DW$87, DW_AT_type(*$C$DW$T$19)
    1210                      .dwattr $C$DW$87, DW_AT_location[DW_OP_bregx 0x24 55]
    1211              $C$DW$88        .dwtag  DW_TAG_variable, DW_AT_name("looper")
    1212                      .dwattr $C$DW$88, DW_AT_TI_symbol_name("_looper")
    1213                      .dwattr $C$DW$88, DW_AT_type(*$C$DW$T$19)
    1214                      .dwattr $C$DW$88, DW_AT_location[DW_OP_bregx 0x24 56]
    1215              $C$DW$89        .dwtag  DW_TAG_variable, DW_AT_name("WpStatus")
    1216                      .dwattr $C$DW$89, DW_AT_TI_symbol_name("_WpStatus")
    1217                      .dwattr $C$DW$89, DW_AT_type(*$C$DW$T$19)
    1218                      .dwattr $C$DW$89, DW_AT_location[DW_OP_bregx 0x24 57]
    1219              $C$DW$90        .dwtag  DW_TAG_variable, DW_AT_name("addrCycles")
    1220                      .dwattr $C$DW$90, DW_AT_TI_symbol_name("_addrCycles")
    1221                      .dwattr $C$DW$90, DW_AT_type(*$C$DW$T$19)
    1222                      .dwattr $C$DW$90, DW_AT_location[DW_OP_bregx 0x24 58]
    1223              $C$DW$91        .dwtag  DW_TAG_variable, DW_AT_name("flashAddress")
    1224                      .dwattr $C$DW$91, DW_AT_TI_symbol_name("_flashAddress")
    1225                      .dwattr $C$DW$91, DW_AT_type(*$C$DW$T$19)
    1226                      .dwattr $C$DW$91, DW_AT_location[DW_OP_bregx 0x24 59]
    1227              $C$DW$92        .dwtag  DW_TAG_variable, DW_AT_name("eccBuf")
    1228                      .dwattr $C$DW$92, DW_AT_TI_symbol_name("_eccBuf")
TMS320C55x Assembler PC v4.4.1 Sat Sep 29 23:08:57 2018

Tools Copyright (c) 1996-2012 Texas Instruments Incorporated
csl_nand_dma_example.asm                                             PAGE   31

    1229                      .dwattr $C$DW$92, DW_AT_type(*$C$DW$T$159)
    1230                      .dwattr $C$DW$92, DW_AT_location[DW_OP_bregx 0x24 60]
    1231                      .dwpsn  file "../c5535_bsl_revc/ezdsp5535_v1/c55xx_csl/ccs_v4.0_examples/nand/CSL_NAND_DmaExample/csl
    1232 0000ea E60A          MOV #2, *SP(#5) ; |367| 
         0000ec 02   
    1233                      .dwpsn  file "../c5535_bsl_revc/ezdsp5535_v1/c55xx_csl/ccs_v4.0_examples/nand/CSL_NAND_DmaExample/csl
    1234 0000ed E66E          MOV #2, *SP(#55) ; |368| 
         0000ef 02   
    1235                      .dwpsn  file "../c5535_bsl_revc/ezdsp5535_v1/c55xx_csl/ccs_v4.0_examples/nand/CSL_NAND_DmaExample/csl
    1236 0000f0 E63C          MOV #2, *SP(#30) ; |369| 
         0000f2 02   
    1237                      .dwpsn  file "../c5535_bsl_revc/ezdsp5535_v1/c55xx_csl/ccs_v4.0_examples/nand/CSL_NAND_DmaExample/csl
    1238 0000f3 E66A          MOV #1, *SP(#53) ; |376| 
         0000f5 01   
    1239                      .dwpsn  file "../c5535_bsl_revc/ezdsp5535_v1/c55xx_csl/ccs_v4.0_examples/nand/CSL_NAND_DmaExample/csl
    1240 0000f6 E66C          MOV #0, *SP(#54) ; |377| 
         0000f8 00   
    1241                      .dwpsn  file "../c5535_bsl_revc/ezdsp5535_v1/c55xx_csl/ccs_v4.0_examples/nand/CSL_NAND_DmaExample/csl
    1242 0000f9 EC40          AMAR *SP(#32), XAR3
         0000fb BE   
    1243 0000fc EB38          MOV XAR3, dbl(*SP(#28))
         0000fe B5   
    1244                      .dwpsn  file "../c5535_bsl_revc/ezdsp5535_v1/c55xx_csl/ccs_v4.0_examples/nand/CSL_NAND_DmaExample/csl
    1245 0000ff EC31          AMOV #$C$FSL24, XAR3 ; |380| 
         000101 BE00 
         000103 0132+
    1246 000105 EB00          MOV XAR3, dbl(*SP(#0))
         000107 B5   
    1247              $C$DW$93        .dwtag  DW_TAG_TI_branch
    1248                      .dwattr $C$DW$93, DW_AT_low_pc(0x00)
    1249                      .dwattr $C$DW$93, DW_AT_name("_printf")
    1250                      .dwattr $C$DW$93, DW_AT_TI_call
    1251 000108 6C00          CALL #_printf ; |380| 
         00010a 0000!
    1252                                                      ; call occurs [#_printf] ; |380| 
    1253                      .dwpsn  file "../c5535_bsl_revc/ezdsp5535_v1/c55xx_csl/ccs_v4.0_examples/nand/CSL_NAND_DmaExample/csl
    1254 00010c E670          MOV #0, *SP(#56) ; |382| 
         00010e 00   
    1255                      .dwpsn  file "../c5535_bsl_revc/ezdsp5535_v1/c55xx_csl/ccs_v4.0_examples/nand/CSL_NAND_DmaExample/csl
    1256 00010f 7604          MOV #1024, AR2 ; |382| 
         000111 00A8 
    1257 000113 A970          MOV *SP(#56), AR1 ; |382| 
    1258 000115 1298          CMPU AR1 >= AR2, TC1 ; |382| 
         000117 A4   
    1259 000118 0464          BCC $C$L12,TC1 ; |382| 
         00011a 21   
    1260                                                      ; branchcc occurs ; |382| 
    1261 00011b       $C$L11:    
    1262 00011b       $C$DW$L$_CSL_nandDmaTest$2$B:
    1263                      .dwpsn  file "../c5535_bsl_revc/ezdsp5535_v1/c55xx_csl/ccs_v4.0_examples/nand/CSL_NAND_DmaExample/csl
    1264 00011b A470          MOV *SP(#56), T0 ; |384| 
    1265 00011d EC31          AMOV #_gnandDmaWriteBuf, XAR3 ; |384| 
         00011f BE00 
         000121 0400-
    1266 000123 C96B          MOV AR1, *AR3(T0) ; |384| 
TMS320C55x Assembler PC v4.4.1 Sat Sep 29 23:08:57 2018

Tools Copyright (c) 1996-2012 Texas Instruments Incorporated
csl_nand_dma_example.asm                                             PAGE   32

    1267                      .dwpsn  file "../c5535_bsl_revc/ezdsp5535_v1/c55xx_csl/ccs_v4.0_examples/nand/CSL_NAND_DmaExample/csl
    1268 000125 A470          MOV *SP(#56), T0 ; |385| 
    1269 000127 EC31          AMOV #_gnandDmaReadBuf, XAR3 ; |385| 
         000129 BE00 
         00012b 0000-
    1270 00012d E66B          MOV #0, *AR3(T0) ; |385| 
         00012f 00   
    1271                      .dwpsn  file "../c5535_bsl_revc/ezdsp5535_v1/c55xx_csl/ccs_v4.0_examples/nand/CSL_NAND_DmaExample/csl
    1272 000130 F770          ADD #1, *SP(#56) ; |382| 
         000132 0001 
    1273                      .dwpsn  file "../c5535_bsl_revc/ezdsp5535_v1/c55xx_csl/ccs_v4.0_examples/nand/CSL_NAND_DmaExample/csl
    1274 000134 A970          MOV *SP(#56), AR1 ; |382| 
    1275 000136 1294          CMPU AR1 < AR2, TC1 ; |382| 
         000138 A4   
    1276 000139 0464          BCC $C$L11,TC1 ; |382| 
         00013b DF   
    1277                                                      ; branchcc occurs ; |382| 
    1278 00013c       $C$DW$L$_CSL_nandDmaTest$2$E:
    1279 00013c       $C$L12:    
    1280                      .dwpsn  file "../c5535_bsl_revc/ezdsp5535_v1/c55xx_csl/ccs_v4.0_examples/nand/CSL_NAND_DmaExample/csl
    1281              $C$DW$94        .dwtag  DW_TAG_TI_branch
    1282                      .dwattr $C$DW$94, DW_AT_low_pc(0x00)
    1283                      .dwattr $C$DW$94, DW_AT_name("_DMA_init")
    1284                      .dwattr $C$DW$94, DW_AT_TI_call
    1285 00013c 6C00          CALL #_DMA_init ; |413| 
         00013e 0000!
    1286                                                      ; call occurs [#_DMA_init] ; |413| 
    1287 000140 C468          MOV T0, *SP(#52) ; |413| 
    1288                      .dwpsn  file "../c5535_bsl_revc/ezdsp5535_v1/c55xx_csl/ccs_v4.0_examples/nand/CSL_NAND_DmaExample/csl
    1289 000142 2249          MOV T0, AR1
    1290 000144 0409          BCC $C$L13,AR1 == #0 ; |414| 
         000146 12   
    1291                                                      ; branchcc occurs ; |414| 
    1292                      .dwpsn  file "../c5535_bsl_revc/ezdsp5535_v1/c55xx_csl/ccs_v4.0_examples/nand/CSL_NAND_DmaExample/csl
    1293 000147 EC31          AMOV #$C$FSL25, XAR3 ; |416| 
         000149 BE00 
         00014b 0148+
    1294 00014d EB00          MOV XAR3, dbl(*SP(#0))
         00014f B5   
    1295              $C$DW$95        .dwtag  DW_TAG_TI_branch
    1296                      .dwattr $C$DW$95, DW_AT_low_pc(0x00)
    1297                      .dwattr $C$DW$95, DW_AT_name("_printf")
    1298                      .dwattr $C$DW$95, DW_AT_TI_call
    1299 000150 6C00          CALL #_printf ; |416| 
         000152 0000!
    1300                                                      ; call occurs [#_printf] ; |416| 
    1301                      .dwpsn  file "../c5535_bsl_revc/ezdsp5535_v1/c55xx_csl/ccs_v4.0_examples/nand/CSL_NAND_DmaExample/csl
    1302 000154 A468          MOV *SP(#52), T0 ; |417| 
    1303 000156 0607          B $C$L72  ; |417| 
         000158 BF   
    1304                                                      ; branch occurs ; |417| 
    1305 000159       $C$L13:    
    1306                      .dwpsn  file "../c5535_bsl_revc/ezdsp5535_v1/c55xx_csl/ccs_v4.0_examples/nand/CSL_NAND_DmaExample/csl
    1307 000159 EC40          AMAR *SP(#32), XAR0
         00015b 8E   
TMS320C55x Assembler PC v4.4.1 Sat Sep 29 23:08:57 2018

Tools Copyright (c) 1996-2012 Texas Instruments Incorporated
csl_nand_dma_example.asm                                             PAGE   33

    1308 00015c A46C          MOV *SP(#54), T0 ; |421| 
    1309              $C$DW$96        .dwtag  DW_TAG_TI_branch
    1310                      .dwattr $C$DW$96, DW_AT_low_pc(0x00)
    1311                      .dwattr $C$DW$96, DW_AT_name("_NAND_init")
    1312                      .dwattr $C$DW$96, DW_AT_TI_call
    1313 00015e 6C00          CALL #_NAND_init ; |421| 
         000160 0000!
    1314                                                      ; call occurs [#_NAND_init] ; |421| 
    1315 000162 C468          MOV T0, *SP(#52) ; |421| 
    1316                      .dwpsn  file "../c5535_bsl_revc/ezdsp5535_v1/c55xx_csl/ccs_v4.0_examples/nand/CSL_NAND_DmaExample/csl
    1317 000164 2249          MOV T0, AR1
    1318 000166 0409          BCC $C$L14,AR1 == #0 ; |422| 
         000168 12   
    1319                                                      ; branchcc occurs ; |422| 
    1320                      .dwpsn  file "../c5535_bsl_revc/ezdsp5535_v1/c55xx_csl/ccs_v4.0_examples/nand/CSL_NAND_DmaExample/csl
    1321 000169 EC31          AMOV #$C$FSL26, XAR3 ; |424| 
         00016b BE00 
         00016d 015A+
    1322 00016f EB00          MOV XAR3, dbl(*SP(#0))
         000171 B5   
    1323              $C$DW$97        .dwtag  DW_TAG_TI_branch
    1324                      .dwattr $C$DW$97, DW_AT_low_pc(0x00)
    1325                      .dwattr $C$DW$97, DW_AT_name("_printf")
    1326                      .dwattr $C$DW$97, DW_AT_TI_call
    1327 000172 6C00          CALL #_printf ; |424| 
         000174 0000!
    1328                                                      ; call occurs [#_printf] ; |424| 
    1329                      .dwpsn  file "../c5535_bsl_revc/ezdsp5535_v1/c55xx_csl/ccs_v4.0_examples/nand/CSL_NAND_DmaExample/csl
    1330 000176 A46A          MOV *SP(#53), T0 ; |425| 
    1331 000178 0607          B $C$L72  ; |425| 
         00017a 9D   
    1332                                                      ; branch occurs ; |425| 
    1333 00017b       $C$L14:    
    1334                      .dwpsn  file "../c5535_bsl_revc/ezdsp5535_v1/c55xx_csl/ccs_v4.0_examples/nand/CSL_NAND_DmaExample/csl
    1335 00017b E604          MOV #0, *SP(#2) ; |429| 
         00017d 00   
    1336                      .dwpsn  file "../c5535_bsl_revc/ezdsp5535_v1/c55xx_csl/ccs_v4.0_examples/nand/CSL_NAND_DmaExample/csl
    1337 00017e A93C          MOV *SP(#30), AR1 ; |430| 
    1338 000180 C906          MOV AR1, *SP(#3) ; |430| 
    1339                      .dwpsn  file "../c5535_bsl_revc/ezdsp5535_v1/c55xx_csl/ccs_v4.0_examples/nand/CSL_NAND_DmaExample/csl
    1340 000182 FB08          MOV #128, *SP(#4) ; |431| 
         000184 0080 
    1341                      .dwpsn  file "../c5535_bsl_revc/ezdsp5535_v1/c55xx_csl/ccs_v4.0_examples/nand/CSL_NAND_DmaExample/csl
    1342 000186 E60C          MOV #0, *SP(#6) ; |434| 
         000188 00   
    1343                      .dwpsn  file "../c5535_bsl_revc/ezdsp5535_v1/c55xx_csl/ccs_v4.0_examples/nand/CSL_NAND_DmaExample/csl
    1344 000189 E60E          MOV #0, *SP(#7) ; |435| 
         00018b 00   
    1345                      .dwpsn  file "../c5535_bsl_revc/ezdsp5535_v1/c55xx_csl/ccs_v4.0_examples/nand/CSL_NAND_DmaExample/csl
    1346 00018c E610          MOV #15, *SP(#8) ; |436| 
         00018e 0F   
    1347                      .dwpsn  file "../c5535_bsl_revc/ezdsp5535_v1/c55xx_csl/ccs_v4.0_examples/nand/CSL_NAND_DmaExample/csl
    1348 00018f E612          MOV #31, *SP(#9) ; |437| 
         000191 1F   
    1349                      .dwpsn  file "../c5535_bsl_revc/ezdsp5535_v1/c55xx_csl/ccs_v4.0_examples/nand/CSL_NAND_DmaExample/csl
TMS320C55x Assembler PC v4.4.1 Sat Sep 29 23:08:57 2018

Tools Copyright (c) 1996-2012 Texas Instruments Incorporated
csl_nand_dma_example.asm                                             PAGE   34

    1350 000192 E614          MOV #7, *SP(#10) ; |438| 
         000194 07   
    1351                      .dwpsn  file "../c5535_bsl_revc/ezdsp5535_v1/c55xx_csl/ccs_v4.0_examples/nand/CSL_NAND_DmaExample/csl
    1352 000195 E616          MOV #15, *SP(#11) ; |439| 
         000197 0F   
    1353                      .dwpsn  file "../c5535_bsl_revc/ezdsp5535_v1/c55xx_csl/ccs_v4.0_examples/nand/CSL_NAND_DmaExample/csl
    1354 000198 E618          MOV #63, *SP(#12) ; |440| 
         00019a 3F   
    1355                      .dwpsn  file "../c5535_bsl_revc/ezdsp5535_v1/c55xx_csl/ccs_v4.0_examples/nand/CSL_NAND_DmaExample/csl
    1356 00019b E61A          MOV #7, *SP(#13) ; |441| 
         00019d 07   
    1357                      .dwpsn  file "../c5535_bsl_revc/ezdsp5535_v1/c55xx_csl/ccs_v4.0_examples/nand/CSL_NAND_DmaExample/csl
    1358 00019e E61C          MOV #3, *SP(#14) ; |442| 
         0001a0 03   
    1359                      .dwpsn  file "../c5535_bsl_revc/ezdsp5535_v1/c55xx_csl/ccs_v4.0_examples/nand/CSL_NAND_DmaExample/csl
    1360 0001a1 E61E          MOV #0, *SP(#15) ; |443| 
         0001a3 00   
    1361                      .dwpsn  file "../c5535_bsl_revc/ezdsp5535_v1/c55xx_csl/ccs_v4.0_examples/nand/CSL_NAND_DmaExample/csl
    1362 0001a4 A90A          MOV *SP(#5), AR1 ; |446| 
    1363 0001a6 C92C          MOV AR1, *SP(#22) ; |446| 
    1364                      .dwpsn  file "../c5535_bsl_revc/ezdsp5535_v1/c55xx_csl/ccs_v4.0_examples/nand/CSL_NAND_DmaExample/csl
    1365 0001a8 E620          MOV #0, *SP(#16) ; |447| 
         0001aa 00   
    1366                      .dwpsn  file "../c5535_bsl_revc/ezdsp5535_v1/c55xx_csl/ccs_v4.0_examples/nand/CSL_NAND_DmaExample/csl
    1367 0001ab E622          MOV #1, *SP(#17) ; |448| 
         0001ad 01   
    1368                      .dwpsn  file "../c5535_bsl_revc/ezdsp5535_v1/c55xx_csl/ccs_v4.0_examples/nand/CSL_NAND_DmaExample/csl
    1369 0001ae E626          MOV #2, *SP(#19) ; |449| 
         0001b0 02   
    1370                      .dwpsn  file "../c5535_bsl_revc/ezdsp5535_v1/c55xx_csl/ccs_v4.0_examples/nand/CSL_NAND_DmaExample/csl
    1371 0001b1 E628          MOV #0, *SP(#20) ; |450| 
         0001b3 00   
    1372                      .dwpsn  file "../c5535_bsl_revc/ezdsp5535_v1/c55xx_csl/ccs_v4.0_examples/nand/CSL_NAND_DmaExample/csl
    1373 0001b4 E62A          MOV #2, *SP(#21) ; |451| 
         0001b6 02   
    1374                      .dwpsn  file "../c5535_bsl_revc/ezdsp5535_v1/c55xx_csl/ccs_v4.0_examples/nand/CSL_NAND_DmaExample/csl
    1375 0001b7 EC04          AMAR *SP(#2), XAR3
         0001b9 BE   
    1376 0001ba EB30          MOV XAR3, dbl(*SP(#24))
         0001bc B5   
    1377                      .dwpsn  file "../c5535_bsl_revc/ezdsp5535_v1/c55xx_csl/ccs_v4.0_examples/nand/CSL_NAND_DmaExample/csl
    1378 0001bd EC0C          AMAR *SP(#6), XAR3
         0001bf BE   
    1379 0001c0 EB34          MOV XAR3, dbl(*SP(#26))
         0001c2 B5   
    1380                      .dwpsn  file "../c5535_bsl_revc/ezdsp5535_v1/c55xx_csl/ccs_v4.0_examples/nand/CSL_NAND_DmaExample/csl
    1381 0001c3 EC20          AMAR *SP(#16), XAR1
         0001c5 9E   
    1382 0001c6 ED38          MOV dbl(*SP(#28)), XAR0
         0001c8 8F   
    1383              $C$DW$98        .dwtag  DW_TAG_TI_branch
    1384                      .dwattr $C$DW$98, DW_AT_low_pc(0x00)
    1385                      .dwattr $C$DW$98, DW_AT_name("_NAND_setup")
    1386                      .dwattr $C$DW$98, DW_AT_TI_call
    1387 0001c9 6C00          CALL #_NAND_setup ; |456| 
TMS320C55x Assembler PC v4.4.1 Sat Sep 29 23:08:57 2018

Tools Copyright (c) 1996-2012 Texas Instruments Incorporated
csl_nand_dma_example.asm                                             PAGE   35

         0001cb 0000!
    1388                                                      ; call occurs [#_NAND_setup] ; |456| 
    1389 0001cd C468          MOV T0, *SP(#52) ; |456| 
    1390                      .dwpsn  file "../c5535_bsl_revc/ezdsp5535_v1/c55xx_csl/ccs_v4.0_examples/nand/CSL_NAND_DmaExample/csl
    1391 0001cf 2249          MOV T0, AR1
    1392 0001d1 0409          BCC $C$L15,AR1 == #0 ; |457| 
         0001d3 12   
    1393                                                      ; branchcc occurs ; |457| 
    1394                      .dwpsn  file "../c5535_bsl_revc/ezdsp5535_v1/c55xx_csl/ccs_v4.0_examples/nand/CSL_NAND_DmaExample/csl
    1395 0001d4 EC31          AMOV #$C$FSL27, XAR3 ; |459| 
         0001d6 BE00 
         0001d8 016E+
    1396 0001da EB00          MOV XAR3, dbl(*SP(#0))
         0001dc B5   
    1397              $C$DW$99        .dwtag  DW_TAG_TI_branch
    1398                      .dwattr $C$DW$99, DW_AT_low_pc(0x00)
    1399                      .dwattr $C$DW$99, DW_AT_name("_printf")
    1400                      .dwattr $C$DW$99, DW_AT_TI_call
    1401 0001dd 6C00          CALL #_printf ; |459| 
         0001df 0000!
    1402                                                      ; call occurs [#_printf] ; |459| 
    1403                      .dwpsn  file "../c5535_bsl_revc/ezdsp5535_v1/c55xx_csl/ccs_v4.0_examples/nand/CSL_NAND_DmaExample/csl
    1404 0001e1 A46A          MOV *SP(#53), T0 ; |460| 
    1405 0001e3 0607          B $C$L72  ; |460| 
         0001e5 32   
    1406                                                      ; branch occurs ; |460| 
    1407 0001e6       $C$L15:    
    1408                      .dwpsn  file "../c5535_bsl_revc/ezdsp5535_v1/c55xx_csl/ccs_v4.0_examples/nand/CSL_NAND_DmaExample/csl
    1409 0001e6 ED38          MOV dbl(*SP(#28)), XAR1
         0001e8 9F   
    1410 0001e9 ED38          MOV dbl(*SP(#28)), XAR0
         0001eb 8F   
    1411              
    1412                      AADD #6, AR1 ; |464| 
    1413 0001ec 8A6E  ||      MOV *SP(#55), T0 ; |464| 
         0001ee 941C 
         0001f0 06   
    1414              
    1415              $C$DW$100       .dwtag  DW_TAG_TI_branch
    1416                      .dwattr $C$DW$100, DW_AT_low_pc(0x00)
    1417                      .dwattr $C$DW$100, DW_AT_name("_NAND_getBankInfo")
    1418                      .dwattr $C$DW$100, DW_AT_TI_call
    1419 0001f1 6C00          CALL #_NAND_getBankInfo ; |464| 
         0001f3 0000!
    1420                                                      ; call occurs [#_NAND_getBankInfo] ; |464| 
    1421 0001f5 C468          MOV T0, *SP(#52) ; |464| 
    1422                      .dwpsn  file "../c5535_bsl_revc/ezdsp5535_v1/c55xx_csl/ccs_v4.0_examples/nand/CSL_NAND_DmaExample/csl
    1423 0001f7 2249          MOV T0, AR1
    1424 0001f9 0409          BCC $C$L16,AR1 == #0 ; |465| 
         0001fb 12   
    1425                                                      ; branchcc occurs ; |465| 
    1426                      .dwpsn  file "../c5535_bsl_revc/ezdsp5535_v1/c55xx_csl/ccs_v4.0_examples/nand/CSL_NAND_DmaExample/csl
    1427 0001fc EC31          AMOV #$C$FSL28, XAR3 ; |467| 
         0001fe BE00 
         000200 0184+
TMS320C55x Assembler PC v4.4.1 Sat Sep 29 23:08:57 2018

Tools Copyright (c) 1996-2012 Texas Instruments Incorporated
csl_nand_dma_example.asm                                             PAGE   36

    1428 000202 EB00          MOV XAR3, dbl(*SP(#0))
         000204 B5   
    1429              $C$DW$101       .dwtag  DW_TAG_TI_branch
    1430                      .dwattr $C$DW$101, DW_AT_low_pc(0x00)
    1431                      .dwattr $C$DW$101, DW_AT_name("_printf")
    1432                      .dwattr $C$DW$101, DW_AT_TI_call
    1433 000205 6C00          CALL #_printf ; |467| 
         000207 0000!
    1434                                                      ; call occurs [#_printf] ; |467| 
    1435                      .dwpsn  file "../c5535_bsl_revc/ezdsp5535_v1/c55xx_csl/ccs_v4.0_examples/nand/CSL_NAND_DmaExample/csl
    1436 000209 A46A          MOV *SP(#53), T0 ; |468| 
    1437 00020b 0607          B $C$L72  ; |468| 
         00020d 0A   
    1438                                                      ; branch occurs ; |468| 
    1439 00020e       $C$L16:    
    1440                      .dwpsn  file "../c5535_bsl_revc/ezdsp5535_v1/c55xx_csl/ccs_v4.0_examples/nand/CSL_NAND_DmaExample/csl
    1441 00020e ED38          MOV dbl(*SP(#28)), XAR0
         000210 8F   
    1442              $C$DW$102       .dwtag  DW_TAG_TI_branch
    1443                      .dwattr $C$DW$102, DW_AT_low_pc(0x00)
    1444                      .dwattr $C$DW$102, DW_AT_name("_CSL_checkNandType")
    1445                      .dwattr $C$DW$102, DW_AT_TI_call
    1446 000211 0807          CALL #_CSL_checkNandType ; |472| 
         000213 68   
    1447                                                      ; call occurs [#_CSL_checkNandType] ; |472| 
    1448 000214 C468          MOV T0, *SP(#52) ; |472| 
    1449                      .dwpsn  file "../c5535_bsl_revc/ezdsp5535_v1/c55xx_csl/ccs_v4.0_examples/nand/CSL_NAND_DmaExample/csl
    1450 000216 2249          MOV T0, AR1
    1451 000218 0409          BCC $C$L17,AR1 == #0 ; |473| 
         00021a 12   
    1452                                                      ; branchcc occurs ; |473| 
    1453                      .dwpsn  file "../c5535_bsl_revc/ezdsp5535_v1/c55xx_csl/ccs_v4.0_examples/nand/CSL_NAND_DmaExample/csl
    1454 00021b EC31          AMOV #$C$FSL29, XAR3 ; |475| 
         00021d BE00 
         00021f 01A2+
    1455 000221 EB00          MOV XAR3, dbl(*SP(#0))
         000223 B5   
    1456              $C$DW$103       .dwtag  DW_TAG_TI_branch
    1457                      .dwattr $C$DW$103, DW_AT_low_pc(0x00)
    1458                      .dwattr $C$DW$103, DW_AT_name("_printf")
    1459                      .dwattr $C$DW$103, DW_AT_TI_call
    1460 000224 6C00          CALL #_printf ; |475| 
         000226 0000!
    1461                                                      ; call occurs [#_printf] ; |475| 
    1462                      .dwpsn  file "../c5535_bsl_revc/ezdsp5535_v1/c55xx_csl/ccs_v4.0_examples/nand/CSL_NAND_DmaExample/csl
    1463 000228 A46A          MOV *SP(#53), T0 ; |476| 
    1464 00022a 0606          B $C$L72  ; |476| 
         00022c EB   
    1465                                                      ; branch occurs ; |476| 
    1466 00022d       $C$L17:    
    1467                      .dwpsn  file "../c5535_bsl_revc/ezdsp5535_v1/c55xx_csl/ccs_v4.0_examples/nand/CSL_NAND_DmaExample/csl
    1468 00022d F031          CMP *(#_gNandType) == #1, TC1 ; |479| 
         00022f 0001 
         000231 000B 
         000233 6C-  
TMS320C55x Assembler PC v4.4.1 Sat Sep 29 23:08:57 2018

Tools Copyright (c) 1996-2012 Texas Instruments Incorporated
csl_nand_dma_example.asm                                             PAGE   37

    1469 000234 67F4          BCC $C$L18,!TC1 ; |479| 
    1470                                                      ; branchcc occurs ; |479| 
    1471                      .dwpsn  file "../c5535_bsl_revc/ezdsp5535_v1/c55xx_csl/ccs_v4.0_examples/nand/CSL_NAND_DmaExample/csl
    1472 000236 EC31          AMOV #$C$FSL30, XAR3 ; |481| 
         000238 BE00 
         00023a 01B6+
    1473 00023c EB00          MOV XAR3, dbl(*SP(#0))
         00023e B5   
    1474              $C$DW$104       .dwtag  DW_TAG_TI_branch
    1475                      .dwattr $C$DW$104, DW_AT_low_pc(0x00)
    1476                      .dwattr $C$DW$104, DW_AT_name("_printf")
    1477                      .dwattr $C$DW$104, DW_AT_TI_call
    1478 00023f 6C00          CALL #_printf ; |481| 
         000241 0000!
    1479                                                      ; call occurs [#_printf] ; |481| 
    1480                      .dwpsn  file "../c5535_bsl_revc/ezdsp5535_v1/c55xx_csl/ccs_v4.0_examples/nand/CSL_NAND_DmaExample/csl
    1481 000243 4A0D          B $C$L19  ; |482| 
    1482                                                      ; branch occurs ; |482| 
    1483 000245       $C$L18:    
    1484                      .dwpsn  file "../c5535_bsl_revc/ezdsp5535_v1/c55xx_csl/ccs_v4.0_examples/nand/CSL_NAND_DmaExample/csl
    1485 000245 EC31          AMOV #$C$FSL31, XAR3 ; |485| 
         000247 BE00 
         000249 01E2+
    1486 00024b EB00          MOV XAR3, dbl(*SP(#0))
         00024d B5   
    1487              $C$DW$105       .dwtag  DW_TAG_TI_branch
    1488                      .dwattr $C$DW$105, DW_AT_low_pc(0x00)
    1489                      .dwattr $C$DW$105, DW_AT_name("_printf")
    1490                      .dwattr $C$DW$105, DW_AT_TI_call
    1491 00024e 6C00          CALL #_printf ; |485| 
         000250 0000!
    1492                                                      ; call occurs [#_printf] ; |485| 
    1493 000252       $C$L19:    
    1494                      .dwpsn  file "../c5535_bsl_revc/ezdsp5535_v1/c55xx_csl/ccs_v4.0_examples/nand/CSL_NAND_DmaExample/csl
    1495 000252 A931          MOV *(#_gNandType), AR1 ; |488| 
         000254 000B 
         000256 6C-  
    1496 000257 6519          BCC $C$L20,AR1 != #0 ; |488| 
    1497                                                      ; branchcc occurs ; |488| 
    1498 000259 F031          CMP *(#_gNandPageSize) == #512, TC1 ; |488| 
         00025b 0200 
         00025d 000B 
         00025f 6E-  
    1499 000260 0464          BCC $C$L24,TC1 ; |488| 
         000262 46   
    1500                                                      ; branchcc occurs ; |488| 
    1501 000263       $C$L20:    
    1502                      .dwpsn  file "../c5535_bsl_revc/ezdsp5535_v1/c55xx_csl/ccs_v4.0_examples/nand/CSL_NAND_DmaExample/csl
    1503 000263 F031          CMP *(#_gNandType) == #1, TC1 ; |493| 
         000265 0001 
         000267 000B 
         000269 6C-  
    1504 00026a 0474          BCC $C$L22,!TC1 ; |493| 
         00026c 16   
    1505                                                      ; branchcc occurs ; |493| 
TMS320C55x Assembler PC v4.4.1 Sat Sep 29 23:08:57 2018

Tools Copyright (c) 1996-2012 Texas Instruments Incorporated
csl_nand_dma_example.asm                                             PAGE   38

    1506                      .dwpsn  file "../c5535_bsl_revc/ezdsp5535_v1/c55xx_csl/ccs_v4.0_examples/nand/CSL_NAND_DmaExample/csl
    1507 00026d E62A          MOV #1, *SP(#21) ; |495| 
         00026f 01   
    1508                      .dwpsn  file "../c5535_bsl_revc/ezdsp5535_v1/c55xx_csl/ccs_v4.0_examples/nand/CSL_NAND_DmaExample/csl
    1509 000270 F031          CMP *(#_gNandPageSize) == #1024, TC1 ; |497| 
         000272 0400 
         000274 000B 
         000276 6E-  
    1510 000277 62F4          BCC $C$L21,!TC1 ; |497| 
    1511                                                      ; branchcc occurs ; |497| 
    1512                      .dwpsn  file "../c5535_bsl_revc/ezdsp5535_v1/c55xx_csl/ccs_v4.0_examples/nand/CSL_NAND_DmaExample/csl
    1513 000279 E622          MOV #2, *SP(#17) ; |499| 
         00027b 02   
    1514                      .dwpsn  file "../c5535_bsl_revc/ezdsp5535_v1/c55xx_csl/ccs_v4.0_examples/nand/CSL_NAND_DmaExample/csl
    1515 00027c 4A08          B $C$L23  ; |500| 
    1516                                                      ; branch occurs ; |500| 
    1517 00027e       $C$L21:    
    1518                      .dwpsn  file "../c5535_bsl_revc/ezdsp5535_v1/c55xx_csl/ccs_v4.0_examples/nand/CSL_NAND_DmaExample/csl
    1519 00027e E622          MOV #3, *SP(#17) ; |503| 
         000280 03   
    1520                      .dwpsn  file "../c5535_bsl_revc/ezdsp5535_v1/c55xx_csl/ccs_v4.0_examples/nand/CSL_NAND_DmaExample/csl
    1521 000281 4A03          B $C$L23  ; |505| 
    1522                                                      ; branch occurs ; |505| 
    1523 000283       $C$L22:    
    1524                      .dwpsn  file "../c5535_bsl_revc/ezdsp5535_v1/c55xx_csl/ccs_v4.0_examples/nand/CSL_NAND_DmaExample/csl
    1525 000283 E622          MOV #0, *SP(#17) ; |508| 
         000285 00   
    1526 000286       $C$L23:    
    1527                      .dwpsn  file "../c5535_bsl_revc/ezdsp5535_v1/c55xx_csl/ccs_v4.0_examples/nand/CSL_NAND_DmaExample/csl
    1528 000286 ED38          MOV dbl(*SP(#28)), XAR0
         000288 8F   
    1529 000289 EC20          AMAR *SP(#16), XAR1
         00028b 9E   
    1530              $C$DW$106       .dwtag  DW_TAG_TI_branch
    1531                      .dwattr $C$DW$106, DW_AT_low_pc(0x00)
    1532                      .dwattr $C$DW$106, DW_AT_name("_NAND_setup")
    1533                      .dwattr $C$DW$106, DW_AT_TI_call
    1534 00028c 6C00          CALL #_NAND_setup ; |512| 
         00028e 0000!
    1535                                                      ; call occurs [#_NAND_setup] ; |512| 
    1536 000290 C468          MOV T0, *SP(#52) ; |512| 
    1537                      .dwpsn  file "../c5535_bsl_revc/ezdsp5535_v1/c55xx_csl/ccs_v4.0_examples/nand/CSL_NAND_DmaExample/csl
    1538 000292 2249          MOV T0, AR1
    1539 000294 0409          BCC $C$L24,AR1 == #0 ; |513| 
         000296 12   
    1540                                                      ; branchcc occurs ; |513| 
    1541                      .dwpsn  file "../c5535_bsl_revc/ezdsp5535_v1/c55xx_csl/ccs_v4.0_examples/nand/CSL_NAND_DmaExample/csl
    1542 000297 EC31          AMOV #$C$FSL27, XAR3 ; |515| 
         000299 BE00 
         00029b 016E+
    1543 00029d EB00          MOV XAR3, dbl(*SP(#0))
         00029f B5   
    1544              $C$DW$107       .dwtag  DW_TAG_TI_branch
    1545                      .dwattr $C$DW$107, DW_AT_low_pc(0x00)
    1546                      .dwattr $C$DW$107, DW_AT_name("_printf")
TMS320C55x Assembler PC v4.4.1 Sat Sep 29 23:08:57 2018

Tools Copyright (c) 1996-2012 Texas Instruments Incorporated
csl_nand_dma_example.asm                                             PAGE   39

    1547                      .dwattr $C$DW$107, DW_AT_TI_call
    1548 0002a0 6C00          CALL #_printf ; |515| 
         0002a2 0000!
    1549                                                      ; call occurs [#_printf] ; |515| 
    1550                      .dwpsn  file "../c5535_bsl_revc/ezdsp5535_v1/c55xx_csl/ccs_v4.0_examples/nand/CSL_NAND_DmaExample/csl
    1551 0002a4 A46A          MOV *SP(#53), T0 ; |516| 
    1552 0002a6 0606          B $C$L72  ; |516| 
         0002a8 6F   
    1553                                                      ; branch occurs ; |516| 
    1554 0002a9       $C$L24:    
    1555                      .dwpsn  file "../c5535_bsl_revc/ezdsp5535_v1/c55xx_csl/ccs_v4.0_examples/nand/CSL_NAND_DmaExample/csl
    1556 0002a9 ED38          MOV dbl(*SP(#28)), XAR0
         0002ab 8F   
    1557 0002ac 7600          MOV #255, T0 ; |521| 
         0002ae FF48 
    1558              $C$DW$108       .dwtag  DW_TAG_TI_branch
    1559                      .dwattr $C$DW$108, DW_AT_low_pc(0x00)
    1560                      .dwattr $C$DW$108, DW_AT_name("_NAND_sendCommand")
    1561                      .dwattr $C$DW$108, DW_AT_TI_call
    1562 0002b0 6C00          CALL #_NAND_sendCommand ; |521| 
         0002b2 0000!
    1563                                                      ; call occurs [#_NAND_sendCommand] ; |521| 
    1564 0002b4 C468          MOV T0, *SP(#52) ; |521| 
    1565                      .dwpsn  file "../c5535_bsl_revc/ezdsp5535_v1/c55xx_csl/ccs_v4.0_examples/nand/CSL_NAND_DmaExample/csl
    1566 0002b6 2249          MOV T0, AR1
    1567 0002b8 0409          BCC $C$L25,AR1 == #0 ; |522| 
         0002ba 12   
    1568                                                      ; branchcc occurs ; |522| 
    1569                      .dwpsn  file "../c5535_bsl_revc/ezdsp5535_v1/c55xx_csl/ccs_v4.0_examples/nand/CSL_NAND_DmaExample/csl
    1570 0002bb EC31          AMOV #$C$FSL32, XAR3 ; |524| 
         0002bd BE00 
         0002bf 0210+
    1571 0002c1 EB00          MOV XAR3, dbl(*SP(#0))
         0002c3 B5   
    1572              $C$DW$109       .dwtag  DW_TAG_TI_branch
    1573                      .dwattr $C$DW$109, DW_AT_low_pc(0x00)
    1574                      .dwattr $C$DW$109, DW_AT_name("_printf")
    1575                      .dwattr $C$DW$109, DW_AT_TI_call
    1576 0002c4 6C00          CALL #_printf ; |524| 
         0002c6 0000!
    1577                                                      ; call occurs [#_printf] ; |524| 
    1578                      .dwpsn  file "../c5535_bsl_revc/ezdsp5535_v1/c55xx_csl/ccs_v4.0_examples/nand/CSL_NAND_DmaExample/csl
    1579 0002c8 A46A          MOV *SP(#53), T0 ; |525| 
    1580 0002ca 0606          B $C$L72  ; |525| 
         0002cc 4B   
    1581                                                      ; branch occurs ; |525| 
    1582 0002cd       $C$L25:    
    1583                      .dwpsn  file "../c5535_bsl_revc/ezdsp5535_v1/c55xx_csl/ccs_v4.0_examples/nand/CSL_NAND_DmaExample/csl
    1584 0002cd ED38          MOV dbl(*SP(#28)), XAR0
         0002cf 8F   
    1585              $C$DW$110       .dwtag  DW_TAG_TI_branch
    1586                      .dwattr $C$DW$110, DW_AT_low_pc(0x00)
    1587                      .dwattr $C$DW$110, DW_AT_name("_NAND_checkCommandStatus")
    1588                      .dwattr $C$DW$110, DW_AT_TI_call
    1589 0002d0 6C00          CALL #_NAND_checkCommandStatus ; |529| 
TMS320C55x Assembler PC v4.4.1 Sat Sep 29 23:08:57 2018

Tools Copyright (c) 1996-2012 Texas Instruments Incorporated
csl_nand_dma_example.asm                                             PAGE   40

         0002d2 0000!
    1590                                                      ; call occurs [#_NAND_checkCommandStatus] ; |529| 
    1591 0002d4 C468          MOV T0, *SP(#52) ; |529| 
    1592                      .dwpsn  file "../c5535_bsl_revc/ezdsp5535_v1/c55xx_csl/ccs_v4.0_examples/nand/CSL_NAND_DmaExample/csl
    1593 0002d6 2249          MOV T0, AR1
    1594 0002d8 0409          BCC $C$L26,AR1 == #0 ; |530| 
         0002da 12   
    1595                                                      ; branchcc occurs ; |530| 
    1596                      .dwpsn  file "../c5535_bsl_revc/ezdsp5535_v1/c55xx_csl/ccs_v4.0_examples/nand/CSL_NAND_DmaExample/csl
    1597 0002db EC31          AMOV #$C$FSL33, XAR3 ; |532| 
         0002dd BE00 
         0002df 022C+
    1598 0002e1 EB00          MOV XAR3, dbl(*SP(#0))
         0002e3 B5   
    1599              $C$DW$111       .dwtag  DW_TAG_TI_branch
    1600                      .dwattr $C$DW$111, DW_AT_low_pc(0x00)
    1601                      .dwattr $C$DW$111, DW_AT_name("_printf")
    1602                      .dwattr $C$DW$111, DW_AT_TI_call
    1603 0002e4 6C00          CALL #_printf ; |532| 
         0002e6 0000!
    1604                                                      ; call occurs [#_printf] ; |532| 
    1605                      .dwpsn  file "../c5535_bsl_revc/ezdsp5535_v1/c55xx_csl/ccs_v4.0_examples/nand/CSL_NAND_DmaExample/csl
    1606 0002e8 A46A          MOV *SP(#53), T0 ; |533| 
    1607 0002ea 0606          B $C$L72  ; |533| 
         0002ec 2B   
    1608                                                      ; branch occurs ; |533| 
    1609 0002ed       $C$L26:    
    1610                      .dwpsn  file "../c5535_bsl_revc/ezdsp5535_v1/c55xx_csl/ccs_v4.0_examples/nand/CSL_NAND_DmaExample/csl
    1611 0002ed ED38          MOV dbl(*SP(#28)), XAR0
         0002ef 8F   
    1612 0002f0 EC72          AMAR *SP(#57), XAR1
         0002f2 9E   
    1613              $C$DW$112       .dwtag  DW_TAG_TI_branch
    1614                      .dwattr $C$DW$112, DW_AT_low_pc(0x00)
    1615                      .dwattr $C$DW$112, DW_AT_name("_NAND_isStatusWriteProtected")
    1616                      .dwattr $C$DW$112, DW_AT_TI_call
    1617 0002f3 6C00          CALL #_NAND_isStatusWriteProtected ; |537| 
         0002f5 0000!
    1618                                                      ; call occurs [#_NAND_isStatusWriteProtected] ; |537| 
    1619 0002f7 C468          MOV T0, *SP(#52) ; |537| 
    1620                      .dwpsn  file "../c5535_bsl_revc/ezdsp5535_v1/c55xx_csl/ccs_v4.0_examples/nand/CSL_NAND_DmaExample/csl
    1621 0002f9 F072          CMP *SP(#57) == #1, TC1 ; |538| 
         0002fb 0001 
    1622 0002fd 0474          BCC $C$L27,!TC1 ; |538| 
         0002ff 12   
    1623                                                      ; branchcc occurs ; |538| 
    1624                      .dwpsn  file "../c5535_bsl_revc/ezdsp5535_v1/c55xx_csl/ccs_v4.0_examples/nand/CSL_NAND_DmaExample/csl
    1625 000300 EC31          AMOV #$C$FSL34, XAR3 ; |540| 
         000302 BE00 
         000304 0250+
    1626 000306 EB00          MOV XAR3, dbl(*SP(#0))
         000308 B5   
    1627              $C$DW$113       .dwtag  DW_TAG_TI_branch
    1628                      .dwattr $C$DW$113, DW_AT_low_pc(0x00)
    1629                      .dwattr $C$DW$113, DW_AT_name("_printf")
TMS320C55x Assembler PC v4.4.1 Sat Sep 29 23:08:57 2018

Tools Copyright (c) 1996-2012 Texas Instruments Incorporated
csl_nand_dma_example.asm                                             PAGE   41

    1630                      .dwattr $C$DW$113, DW_AT_TI_call
    1631 000309 6C00          CALL #_printf ; |540| 
         00030b 0000!
    1632                                                      ; call occurs [#_printf] ; |540| 
    1633                      .dwpsn  file "../c5535_bsl_revc/ezdsp5535_v1/c55xx_csl/ccs_v4.0_examples/nand/CSL_NAND_DmaExample/csl
    1634 00030d A46A          MOV *SP(#53), T0 ; |541| 
    1635 00030f 0606          B $C$L72  ; |541| 
         000311 06   
    1636                                                      ; branch occurs ; |541| 
    1637 000312       $C$L27:    
    1638                      .dwpsn  file "../c5535_bsl_revc/ezdsp5535_v1/c55xx_csl/ccs_v4.0_examples/nand/CSL_NAND_DmaExample/csl
    1639 000312 E631          MOV #0, *(#_dmaConfig) ; |546| 
         000314 0000 
         000316 0804-
    1640                      .dwpsn  file "../c5535_bsl_revc/ezdsp5535_v1/c55xx_csl/ccs_v4.0_examples/nand/CSL_NAND_DmaExample/csl
    1641 000318 E631          MOV #0, *(#(_dmaConfig+1)) ; |548| 
         00031a 0000 
         00031c 0805-
    1642                      .dwpsn  file "../c5535_bsl_revc/ezdsp5535_v1/c55xx_csl/ccs_v4.0_examples/nand/CSL_NAND_DmaExample/csl
    1643 00031e E631          MOV #2, *(#(_dmaConfig+2)) ; |549| 
         000320 0200 
         000322 0806-
    1644                      .dwpsn  file "../c5535_bsl_revc/ezdsp5535_v1/c55xx_csl/ccs_v4.0_examples/nand/CSL_NAND_DmaExample/csl
    1645 000324 E631          MOV #0, *(#(_dmaConfig+3)) ; |550| 
         000326 0000 
         000328 0807-
    1646                      .dwpsn  file "../c5535_bsl_revc/ezdsp5535_v1/c55xx_csl/ccs_v4.0_examples/nand/CSL_NAND_DmaExample/csl
    1647 00032a E631          MOV #0, *(#(_dmaConfig+4)) ; |551| 
         00032c 0000 
         00032e 0808-
    1648                      .dwpsn  file "../c5535_bsl_revc/ezdsp5535_v1/c55xx_csl/ccs_v4.0_examples/nand/CSL_NAND_DmaExample/csl
    1649 000330 E631          MOV #0, *(#(_dmaConfig+5)) ; |552| 
         000332 0000 
         000334 0809-
    1650                      .dwpsn  file "../c5535_bsl_revc/ezdsp5535_v1/c55xx_csl/ccs_v4.0_examples/nand/CSL_NAND_DmaExample/csl
    1651 000336 E631          MOV #1, *(#(_dmaConfig+6)) ; |553| 
         000338 0100 
         00033a 080A-
    1652                      .dwpsn  file "../c5535_bsl_revc/ezdsp5535_v1/c55xx_csl/ccs_v4.0_examples/nand/CSL_NAND_DmaExample/csl
    1653 00033c E631          MOV #0, *(#(_dmaConfig+7)) ; |554| 
         00033e 0000 
         000340 080B-
    1654                      .dwpsn  file "../c5535_bsl_revc/ezdsp5535_v1/c55xx_csl/ccs_v4.0_examples/nand/CSL_NAND_DmaExample/csl
    1655 000342 A931          MOV *(#_gNandPageSize), AR1 ; |555| 
         000344 000B 
         000346 6E-  
    1656 000347 C931          MOV AR1, *(#(_dmaConfig+8)) ; |555| 
         000349 0008 
         00034b 0C-  
    1657                      .dwpsn  file "../c5535_bsl_revc/ezdsp5535_v1/c55xx_csl/ccs_v4.0_examples/nand/CSL_NAND_DmaExample/csl
    1658 00034c 7A00          MOV #(_gnandDmaWriteBuf >> 16) << #16, AC0 ; |556| 
         00034e 000A%
    1659 000350 7E00          OR #(_gnandDmaWriteBuf & 0xffff), AC0, AC0 ; |556| 
         000352 0000%
    1660 000354 EB31          MOV AC0, dbl(*(#(_dmaConfig+10))) ; |556| 
TMS320C55x Assembler PC v4.4.1 Sat Sep 29 23:08:57 2018

Tools Copyright (c) 1996-2012 Texas Instruments Incorporated
csl_nand_dma_example.asm                                             PAGE   42

         000356 0800 
         000358 080E-
    1661                      .dwpsn  file "../c5535_bsl_revc/ezdsp5535_v1/c55xx_csl/ccs_v4.0_examples/nand/CSL_NAND_DmaExample/csl
    1662 00035a 7A04          MOV #1024 << #16, AC0 ; |559| 
         00035c 000A 
    1663 00035e EB31          MOV AC0, dbl(*(#(_dmaConfig+12))) ; |559| 
         000360 0800 
         000362 0810-
    1664                      .dwpsn  file "../c5535_bsl_revc/ezdsp5535_v1/c55xx_csl/ccs_v4.0_examples/nand/CSL_NAND_DmaExample/csl
    1665 000364 EC31          AMOV #_dmaWrChanObj, XAR0 ; |564| 
         000366 8E00 
         000368 0812-
    1666              $C$DW$114       .dwtag  DW_TAG_TI_branch
    1667                      .dwattr $C$DW$114, DW_AT_low_pc(0x00)
    1668                      .dwattr $C$DW$114, DW_AT_name("_CSL_configDmaForNand")
    1669                      .dwattr $C$DW$114, DW_AT_TI_call
    1670              
    1671 00036a 0805          CALL #_CSL_configDmaForNand ; |564| 
         00036c AD   
    1672 00036d 3DC4  ||      MOV #12, T0
    1673              
    1674                                                      ; call occurs [#_CSL_configDmaForNand] ; |564| 
    1675 00036f EB31          MOV XAR0, dbl(*(#_dmaWrHandle))
         000371 8500 
         000373 0800-
    1676                      .dwpsn  file "../c5535_bsl_revc/ezdsp5535_v1/c55xx_csl/ccs_v4.0_examples/nand/CSL_NAND_DmaExample/csl
    1677 000375 ED31          MOV dbl(*(#_dmaWrHandle)), XAR3
         000377 BF00 
         000379 0800-
    1678 00037b 90B0          MOV XAR3, AC0
    1679 00037d 0410          BCC $C$L28,AC0 != #0 ; |565| 
         00037f 12   
    1680                                                      ; branchcc occurs ; |565| 
    1681                      .dwpsn  file "../c5535_bsl_revc/ezdsp5535_v1/c55xx_csl/ccs_v4.0_examples/nand/CSL_NAND_DmaExample/csl
    1682 000380 EC31          AMOV #$C$FSL35, XAR3 ; |567| 
         000382 BE00 
         000384 026C+
    1683 000386 EB00          MOV XAR3, dbl(*SP(#0))
         000388 B5   
    1684              $C$DW$115       .dwtag  DW_TAG_TI_branch
    1685                      .dwattr $C$DW$115, DW_AT_low_pc(0x00)
    1686                      .dwattr $C$DW$115, DW_AT_name("_printf")
    1687                      .dwattr $C$DW$115, DW_AT_TI_call
    1688 000389 6C00          CALL #_printf ; |567| 
         00038b 0000!
    1689                                                      ; call occurs [#_printf] ; |567| 
    1690                      .dwpsn  file "../c5535_bsl_revc/ezdsp5535_v1/c55xx_csl/ccs_v4.0_examples/nand/CSL_NAND_DmaExample/csl
    1691 00038d 3C14          MOV #1, T0
    1692 00038f 0605          B $C$L72  ; |568| 
         000391 86   
    1693                                                      ; branch occurs ; |568| 
    1694 000392       $C$L28:    
    1695                      .dwpsn  file "../c5535_bsl_revc/ezdsp5535_v1/c55xx_csl/ccs_v4.0_examples/nand/CSL_NAND_DmaExample/csl
    1696 000392 E631          MOV #0, *(#_dmaConfig) ; |573| 
         000394 0000 
TMS320C55x Assembler PC v4.4.1 Sat Sep 29 23:08:57 2018

Tools Copyright (c) 1996-2012 Texas Instruments Incorporated
csl_nand_dma_example.asm                                             PAGE   43

         000396 0804-
    1697                      .dwpsn  file "../c5535_bsl_revc/ezdsp5535_v1/c55xx_csl/ccs_v4.0_examples/nand/CSL_NAND_DmaExample/csl
    1698 000398 E631          MOV #0, *(#(_dmaConfig+1)) ; |575| 
         00039a 0000 
         00039c 0805-
    1699                      .dwpsn  file "../c5535_bsl_revc/ezdsp5535_v1/c55xx_csl/ccs_v4.0_examples/nand/CSL_NAND_DmaExample/csl
    1700 00039e E631          MOV #2, *(#(_dmaConfig+2)) ; |576| 
         0003a0 0200 
         0003a2 0806-
    1701                      .dwpsn  file "../c5535_bsl_revc/ezdsp5535_v1/c55xx_csl/ccs_v4.0_examples/nand/CSL_NAND_DmaExample/csl
    1702 0003a4 E631          MOV #0, *(#(_dmaConfig+3)) ; |577| 
         0003a6 0000 
         0003a8 0807-
    1703                      .dwpsn  file "../c5535_bsl_revc/ezdsp5535_v1/c55xx_csl/ccs_v4.0_examples/nand/CSL_NAND_DmaExample/csl
    1704 0003aa E631          MOV #0, *(#(_dmaConfig+4)) ; |578| 
         0003ac 0000 
         0003ae 0808-
    1705                      .dwpsn  file "../c5535_bsl_revc/ezdsp5535_v1/c55xx_csl/ccs_v4.0_examples/nand/CSL_NAND_DmaExample/csl
    1706 0003b0 E631          MOV #0, *(#(_dmaConfig+5)) ; |579| 
         0003b2 0000 
         0003b4 0809-
    1707                      .dwpsn  file "../c5535_bsl_revc/ezdsp5535_v1/c55xx_csl/ccs_v4.0_examples/nand/CSL_NAND_DmaExample/csl
    1708 0003b6 E631          MOV #0, *(#(_dmaConfig+6)) ; |580| 
         0003b8 0000 
         0003ba 080A-
    1709                      .dwpsn  file "../c5535_bsl_revc/ezdsp5535_v1/c55xx_csl/ccs_v4.0_examples/nand/CSL_NAND_DmaExample/csl
    1710 0003bc E631          MOV #0, *(#(_dmaConfig+7)) ; |581| 
         0003be 0000 
         0003c0 080B-
    1711                      .dwpsn  file "../c5535_bsl_revc/ezdsp5535_v1/c55xx_csl/ccs_v4.0_examples/nand/CSL_NAND_DmaExample/csl
    1712 0003c2 A931          MOV *(#_gNandPageSize), AR1 ; |582| 
         0003c4 000B 
         0003c6 6E-  
    1713 0003c7 C931          MOV AR1, *(#(_dmaConfig+8)) ; |582| 
         0003c9 0008 
         0003cb 0C-  
    1714                      .dwpsn  file "../c5535_bsl_revc/ezdsp5535_v1/c55xx_csl/ccs_v4.0_examples/nand/CSL_NAND_DmaExample/csl
    1715 0003cc 7A04          MOV #1024 << #16, AC0 ; |585| 
         0003ce 000A 
    1716 0003d0 EB31          MOV AC0, dbl(*(#(_dmaConfig+10))) ; |585| 
         0003d2 0800 
         0003d4 080E-
    1717                      .dwpsn  file "../c5535_bsl_revc/ezdsp5535_v1/c55xx_csl/ccs_v4.0_examples/nand/CSL_NAND_DmaExample/csl
    1718 0003d6 7A00          MOV #(_gnandDmaReadBuf >> 16) << #16, AC0 ; |590| 
         0003d8 000A%
    1719 0003da 7E00          OR #(_gnandDmaReadBuf & 0xffff), AC0, AC0 ; |590| 
         0003dc 0000%
    1720 0003de EB31          MOV AC0, dbl(*(#(_dmaConfig+12))) ; |590| 
         0003e0 0800 
         0003e2 0810-
    1721                      .dwpsn  file "../c5535_bsl_revc/ezdsp5535_v1/c55xx_csl/ccs_v4.0_examples/nand/CSL_NAND_DmaExample/csl
    1722 0003e4 EC31          AMOV #_dmaRdChanObj, XAR0 ; |592| 
         0003e6 8E00 
         0003e8 081B-
    1723              $C$DW$116       .dwtag  DW_TAG_TI_branch
TMS320C55x Assembler PC v4.4.1 Sat Sep 29 23:08:57 2018

Tools Copyright (c) 1996-2012 Texas Instruments Incorporated
csl_nand_dma_example.asm                                             PAGE   44

    1724                      .dwattr $C$DW$116, DW_AT_low_pc(0x00)
    1725                      .dwattr $C$DW$116, DW_AT_name("_CSL_configDmaForNand")
    1726                      .dwattr $C$DW$116, DW_AT_TI_call
    1727              
    1728 0003ea 0805          CALL #_CSL_configDmaForNand ; |592| 
         0003ec 2D   
    1729 0003ed 3DD4  ||      MOV #13, T0
    1730              
    1731                                                      ; call occurs [#_CSL_configDmaForNand] ; |592| 
    1732 0003ef EB31          MOV XAR0, dbl(*(#_dmaRdHandle))
         0003f1 8500 
         0003f3 0802-
    1733                      .dwpsn  file "../c5535_bsl_revc/ezdsp5535_v1/c55xx_csl/ccs_v4.0_examples/nand/CSL_NAND_DmaExample/csl
    1734 0003f5 ED31          MOV dbl(*(#_dmaRdHandle)), XAR3
         0003f7 BF00 
         0003f9 0802-
    1735 0003fb 90B0          MOV XAR3, AC0
    1736 0003fd 0410          BCC $C$L29,AC0 != #0 ; |593| 
         0003ff 12   
    1737                                                      ; branchcc occurs ; |593| 
    1738                      .dwpsn  file "../c5535_bsl_revc/ezdsp5535_v1/c55xx_csl/ccs_v4.0_examples/nand/CSL_NAND_DmaExample/csl
    1739 000400 EC31          AMOV #$C$FSL36, XAR3 ; |595| 
         000402 BE00 
         000404 0290+
    1740 000406 EB00          MOV XAR3, dbl(*SP(#0))
         000408 B5   
    1741              $C$DW$117       .dwtag  DW_TAG_TI_branch
    1742                      .dwattr $C$DW$117, DW_AT_low_pc(0x00)
    1743                      .dwattr $C$DW$117, DW_AT_name("_printf")
    1744                      .dwattr $C$DW$117, DW_AT_TI_call
    1745 000409 6C00          CALL #_printf ; |595| 
         00040b 0000!
    1746                                                      ; call occurs [#_printf] ; |595| 
    1747                      .dwpsn  file "../c5535_bsl_revc/ezdsp5535_v1/c55xx_csl/ccs_v4.0_examples/nand/CSL_NAND_DmaExample/csl
    1748 00040d 3C14          MOV #1, T0
    1749 00040f 0605          B $C$L72  ; |596| 
         000411 06   
    1750                                                      ; branch occurs ; |596| 
    1751 000412       $C$L29:    
    1752                      .dwpsn  file "../c5535_bsl_revc/ezdsp5535_v1/c55xx_csl/ccs_v4.0_examples/nand/CSL_NAND_DmaExample/csl
    1753 000412 ED38          MOV dbl(*SP(#28)), XAR0
         000414 8F   
    1754 000415 7600          MOV #96, T0 ; |600| 
         000417 6048 
    1755              $C$DW$118       .dwtag  DW_TAG_TI_branch
    1756                      .dwattr $C$DW$118, DW_AT_low_pc(0x00)
    1757                      .dwattr $C$DW$118, DW_AT_name("_NAND_sendCommand")
    1758                      .dwattr $C$DW$118, DW_AT_TI_call
    1759 000419 6C00          CALL #_NAND_sendCommand ; |600| 
         00041b 0000!
    1760                                                      ; call occurs [#_NAND_sendCommand] ; |600| 
    1761 00041d C468          MOV T0, *SP(#52) ; |600| 
    1762                      .dwpsn  file "../c5535_bsl_revc/ezdsp5535_v1/c55xx_csl/ccs_v4.0_examples/nand/CSL_NAND_DmaExample/csl
    1763 00041f 2249          MOV T0, AR1
    1764 000421 0409          BCC $C$L30,AR1 == #0 ; |601| 
TMS320C55x Assembler PC v4.4.1 Sat Sep 29 23:08:57 2018

Tools Copyright (c) 1996-2012 Texas Instruments Incorporated
csl_nand_dma_example.asm                                             PAGE   45

         000423 12   
    1765                                                      ; branchcc occurs ; |601| 
    1766                      .dwpsn  file "../c5535_bsl_revc/ezdsp5535_v1/c55xx_csl/ccs_v4.0_examples/nand/CSL_NAND_DmaExample/csl
    1767 000424 EC31          AMOV #$C$FSL32, XAR3 ; |603| 
         000426 BE00 
         000428 0210+
    1768 00042a EB00          MOV XAR3, dbl(*SP(#0))
         00042c B5   
    1769              $C$DW$119       .dwtag  DW_TAG_TI_branch
    1770                      .dwattr $C$DW$119, DW_AT_low_pc(0x00)
    1771                      .dwattr $C$DW$119, DW_AT_name("_printf")
    1772                      .dwattr $C$DW$119, DW_AT_TI_call
    1773 00042d 6C00          CALL #_printf ; |603| 
         00042f 0000!
    1774                                                      ; call occurs [#_printf] ; |603| 
    1775                      .dwpsn  file "../c5535_bsl_revc/ezdsp5535_v1/c55xx_csl/ccs_v4.0_examples/nand/CSL_NAND_DmaExample/csl
    1776 000431 A46A          MOV *SP(#53), T0 ; |604| 
    1777 000433 0604          B $C$L72  ; |604| 
         000435 E2   
    1778                                                      ; branch occurs ; |604| 
    1779 000436       $C$L30:    
    1780                      .dwpsn  file "../c5535_bsl_revc/ezdsp5535_v1/c55xx_csl/ccs_v4.0_examples/nand/CSL_NAND_DmaExample/csl
    1781 000436 ED38          MOV dbl(*SP(#28)), XAR0
         000438 8F   
    1782              $C$DW$120       .dwtag  DW_TAG_TI_branch
    1783                      .dwattr $C$DW$120, DW_AT_low_pc(0x00)
    1784                      .dwattr $C$DW$120, DW_AT_name("_NAND_checkCommandStatus")
    1785                      .dwattr $C$DW$120, DW_AT_TI_call
    1786 000439 6C00          CALL #_NAND_checkCommandStatus ; |608| 
         00043b 0000!
    1787                                                      ; call occurs [#_NAND_checkCommandStatus] ; |608| 
    1788 00043d C468          MOV T0, *SP(#52) ; |608| 
    1789                      .dwpsn  file "../c5535_bsl_revc/ezdsp5535_v1/c55xx_csl/ccs_v4.0_examples/nand/CSL_NAND_DmaExample/csl
    1790 00043f 2249          MOV T0, AR1
    1791 000441 0409          BCC $C$L31,AR1 == #0 ; |609| 
         000443 12   
    1792                                                      ; branchcc occurs ; |609| 
    1793                      .dwpsn  file "../c5535_bsl_revc/ezdsp5535_v1/c55xx_csl/ccs_v4.0_examples/nand/CSL_NAND_DmaExample/csl
    1794 000444 EC31          AMOV #$C$FSL33, XAR3 ; |611| 
         000446 BE00 
         000448 022C+
    1795 00044a EB00          MOV XAR3, dbl(*SP(#0))
         00044c B5   
    1796              $C$DW$121       .dwtag  DW_TAG_TI_branch
    1797                      .dwattr $C$DW$121, DW_AT_low_pc(0x00)
    1798                      .dwattr $C$DW$121, DW_AT_name("_printf")
    1799                      .dwattr $C$DW$121, DW_AT_TI_call
    1800 00044d 6C00          CALL #_printf ; |611| 
         00044f 0000!
    1801                                                      ; call occurs [#_printf] ; |611| 
    1802                      .dwpsn  file "../c5535_bsl_revc/ezdsp5535_v1/c55xx_csl/ccs_v4.0_examples/nand/CSL_NAND_DmaExample/csl
    1803 000451 A46A          MOV *SP(#53), T0 ; |612| 
    1804 000453 0604          B $C$L72  ; |612| 
         000455 C2   
    1805                                                      ; branch occurs ; |612| 
TMS320C55x Assembler PC v4.4.1 Sat Sep 29 23:08:57 2018

Tools Copyright (c) 1996-2012 Texas Instruments Incorporated
csl_nand_dma_example.asm                                             PAGE   46

    1806 000456       $C$L31:    
    1807                      .dwpsn  file "../c5535_bsl_revc/ezdsp5535_v1/c55xx_csl/ccs_v4.0_examples/nand/CSL_NAND_DmaExample/csl
    1808 000456 E676          MOV #64, *SP(#59) ; |616| 
         000458 40   
    1809                      .dwpsn  file "../c5535_bsl_revc/ezdsp5535_v1/c55xx_csl/ccs_v4.0_examples/nand/CSL_NAND_DmaExample/csl
    1810 000459 E674          MOV #0, *SP(#58) ; |617| 
         00045b 00   
    1811                      .dwpsn  file "../c5535_bsl_revc/ezdsp5535_v1/c55xx_csl/ccs_v4.0_examples/nand/CSL_NAND_DmaExample/csl
    1812 00045c A931          MOV *(#_gRowAddrCycles), AR1 ; |617| 
         00045e 000B 
         000460 6F-  
    1813 000461 AA74          MOV *SP(#58), AR2 ; |617| 
    1814 000463 12A8          CMPU AR2 >= AR1, TC1 ; |617| 
         000465 94   
    1815 000466 0464          BCC $C$L34,TC1 ; |617| 
         000468 38   
    1816                                                      ; branchcc occurs ; |617| 
    1817 000469       $C$L32:    
    1818 000469       $C$DW$L$_CSL_nandDmaTest$40$B:
    1819                      .dwpsn  file "../c5535_bsl_revc/ezdsp5535_v1/c55xx_csl/ccs_v4.0_examples/nand/CSL_NAND_DmaExample/csl
    1820 000469 ED38          MOV dbl(*SP(#28)), XAR0
         00046b 8F   
    1821 00046c A476          MOV *SP(#59), T0 ; |619| 
    1822              $C$DW$122       .dwtag  DW_TAG_TI_branch
    1823                      .dwattr $C$DW$122, DW_AT_low_pc(0x00)
    1824                      .dwattr $C$DW$122, DW_AT_name("_NAND_setAddress")
    1825                      .dwattr $C$DW$122, DW_AT_TI_call
    1826 00046e 6C00          CALL #_NAND_setAddress ; |619| 
         000470 0000!
    1827                                                      ; call occurs [#_NAND_setAddress] ; |619| 
    1828 000472 C468          MOV T0, *SP(#52) ; |619| 
    1829                      .dwpsn  file "../c5535_bsl_revc/ezdsp5535_v1/c55xx_csl/ccs_v4.0_examples/nand/CSL_NAND_DmaExample/csl
    1830 000474 2249          MOV T0, AR1
    1831 000476 0409          BCC $C$L33,AR1 == #0 ; |620| 
         000478 12   
    1832                                                      ; branchcc occurs ; |620| 
    1833 000479       $C$DW$L$_CSL_nandDmaTest$40$E:
    1834                      .dwpsn  file "../c5535_bsl_revc/ezdsp5535_v1/c55xx_csl/ccs_v4.0_examples/nand/CSL_NAND_DmaExample/csl
    1835 000479 EC31          AMOV #$C$FSL37, XAR3 ; |622| 
         00047b BE00 
         00047d 02B4+
    1836 00047f EB00          MOV XAR3, dbl(*SP(#0))
         000481 B5   
    1837              $C$DW$123       .dwtag  DW_TAG_TI_branch
    1838                      .dwattr $C$DW$123, DW_AT_low_pc(0x00)
    1839                      .dwattr $C$DW$123, DW_AT_name("_printf")
    1840                      .dwattr $C$DW$123, DW_AT_TI_call
    1841 000482 6C00          CALL #_printf ; |622| 
         000484 0000!
    1842                                                      ; call occurs [#_printf] ; |622| 
    1843                      .dwpsn  file "../c5535_bsl_revc/ezdsp5535_v1/c55xx_csl/ccs_v4.0_examples/nand/CSL_NAND_DmaExample/csl
    1844 000486 A46A          MOV *SP(#53), T0 ; |623| 
    1845 000488 0604          B $C$L72  ; |623| 
         00048a 8D   
    1846                                                      ; branch occurs ; |623| 
TMS320C55x Assembler PC v4.4.1 Sat Sep 29 23:08:57 2018

Tools Copyright (c) 1996-2012 Texas Instruments Incorporated
csl_nand_dma_example.asm                                             PAGE   47

    1847 00048b       $C$L33:    
    1848 00048b       $C$DW$L$_CSL_nandDmaTest$42$B:
    1849                      .dwpsn  file "../c5535_bsl_revc/ezdsp5535_v1/c55xx_csl/ccs_v4.0_examples/nand/CSL_NAND_DmaExample/csl
    1850 00048b DF76          MOV uns(high_byte(*SP(#59))), AR1 ; |625| 
         00048d 91   
    1851 00048e C976          MOV AR1, *SP(#59) ; |625| 
    1852                      .dwpsn  file "../c5535_bsl_revc/ezdsp5535_v1/c55xx_csl/ccs_v4.0_examples/nand/CSL_NAND_DmaExample/csl
    1853 000490 F774          ADD #1, *SP(#58) ; |617| 
         000492 0001 
    1854                      .dwpsn  file "../c5535_bsl_revc/ezdsp5535_v1/c55xx_csl/ccs_v4.0_examples/nand/CSL_NAND_DmaExample/csl
    1855 000494 A931          MOV *(#_gRowAddrCycles), AR1 ; |617| 
         000496 000B 
         000498 6F-  
    1856 000499 AA74          MOV *SP(#58), AR2 ; |617| 
    1857 00049b 12A4          CMPU AR2 < AR1, TC1 ; |617| 
         00049d 94   
    1858 00049e 0464          BCC $C$L32,TC1 ; |617| 
         0004a0 C8   
    1859                                                      ; branchcc occurs ; |617| 
    1860 0004a1       $C$DW$L$_CSL_nandDmaTest$42$E:
    1861 0004a1       $C$L34:    
    1862                      .dwpsn  file "../c5535_bsl_revc/ezdsp5535_v1/c55xx_csl/ccs_v4.0_examples/nand/CSL_NAND_DmaExample/csl
    1863 0004a1 ED38          MOV dbl(*SP(#28)), XAR0
         0004a3 8F   
    1864 0004a4 7600          MOV #208, T0 ; |629| 
         0004a6 D048 
    1865              $C$DW$124       .dwtag  DW_TAG_TI_branch
    1866                      .dwattr $C$DW$124, DW_AT_low_pc(0x00)
    1867                      .dwattr $C$DW$124, DW_AT_name("_NAND_sendCommand")
    1868                      .dwattr $C$DW$124, DW_AT_TI_call
    1869 0004a8 6C00          CALL #_NAND_sendCommand ; |629| 
         0004aa 0000!
    1870                                                      ; call occurs [#_NAND_sendCommand] ; |629| 
    1871 0004ac C468          MOV T0, *SP(#52) ; |629| 
    1872                      .dwpsn  file "../c5535_bsl_revc/ezdsp5535_v1/c55xx_csl/ccs_v4.0_examples/nand/CSL_NAND_DmaExample/csl
    1873 0004ae 2249          MOV T0, AR1
    1874 0004b0 0409          BCC $C$L35,AR1 == #0 ; |630| 
         0004b2 12   
    1875                                                      ; branchcc occurs ; |630| 
    1876                      .dwpsn  file "../c5535_bsl_revc/ezdsp5535_v1/c55xx_csl/ccs_v4.0_examples/nand/CSL_NAND_DmaExample/csl
    1877 0004b3 EC31          AMOV #$C$FSL32, XAR3 ; |632| 
         0004b5 BE00 
         0004b7 0210+
    1878 0004b9 EB00          MOV XAR3, dbl(*SP(#0))
         0004bb B5   
    1879              $C$DW$125       .dwtag  DW_TAG_TI_branch
    1880                      .dwattr $C$DW$125, DW_AT_low_pc(0x00)
    1881                      .dwattr $C$DW$125, DW_AT_name("_printf")
    1882                      .dwattr $C$DW$125, DW_AT_TI_call
    1883 0004bc 6C00          CALL #_printf ; |632| 
         0004be 0000!
    1884                                                      ; call occurs [#_printf] ; |632| 
    1885                      .dwpsn  file "../c5535_bsl_revc/ezdsp5535_v1/c55xx_csl/ccs_v4.0_examples/nand/CSL_NAND_DmaExample/csl
    1886 0004c0 A46A          MOV *SP(#53), T0 ; |633| 
    1887 0004c2 0604          B $C$L72  ; |633| 
TMS320C55x Assembler PC v4.4.1 Sat Sep 29 23:08:57 2018

Tools Copyright (c) 1996-2012 Texas Instruments Incorporated
csl_nand_dma_example.asm                                             PAGE   48

         0004c4 53   
    1888                                                      ; branch occurs ; |633| 
    1889 0004c5       $C$L35:    
    1890                      .dwpsn  file "../c5535_bsl_revc/ezdsp5535_v1/c55xx_csl/ccs_v4.0_examples/nand/CSL_NAND_DmaExample/csl
    1891 0004c5 ED38          MOV dbl(*SP(#28)), XAR0
         0004c7 8F   
    1892              $C$DW$126       .dwtag  DW_TAG_TI_branch
    1893                      .dwattr $C$DW$126, DW_AT_low_pc(0x00)
    1894                      .dwattr $C$DW$126, DW_AT_name("_NAND_checkCommandStatus")
    1895                      .dwattr $C$DW$126, DW_AT_TI_call
    1896 0004c8 6C00          CALL #_NAND_checkCommandStatus ; |637| 
         0004ca 0000!
    1897                                                      ; call occurs [#_NAND_checkCommandStatus] ; |637| 
    1898 0004cc C468          MOV T0, *SP(#52) ; |637| 
    1899                      .dwpsn  file "../c5535_bsl_revc/ezdsp5535_v1/c55xx_csl/ccs_v4.0_examples/nand/CSL_NAND_DmaExample/csl
    1900 0004ce 2249          MOV T0, AR1
    1901 0004d0 0409          BCC $C$L36,AR1 == #0 ; |638| 
         0004d2 12   
    1902                                                      ; branchcc occurs ; |638| 
    1903                      .dwpsn  file "../c5535_bsl_revc/ezdsp5535_v1/c55xx_csl/ccs_v4.0_examples/nand/CSL_NAND_DmaExample/csl
    1904 0004d3 EC31          AMOV #$C$FSL33, XAR3 ; |640| 
         0004d5 BE00 
         0004d7 022C+
    1905 0004d9 EB00          MOV XAR3, dbl(*SP(#0))
         0004db B5   
    1906              $C$DW$127       .dwtag  DW_TAG_TI_branch
    1907                      .dwattr $C$DW$127, DW_AT_low_pc(0x00)
    1908                      .dwattr $C$DW$127, DW_AT_name("_printf")
    1909                      .dwattr $C$DW$127, DW_AT_TI_call
    1910 0004dc 6C00          CALL #_printf ; |640| 
         0004de 0000!
    1911                                                      ; call occurs [#_printf] ; |640| 
    1912                      .dwpsn  file "../c5535_bsl_revc/ezdsp5535_v1/c55xx_csl/ccs_v4.0_examples/nand/CSL_NAND_DmaExample/csl
    1913 0004e0 A46A          MOV *SP(#53), T0 ; |641| 
    1914 0004e2 0604          B $C$L72  ; |641| 
         0004e4 33   
    1915                                                      ; branch occurs ; |641| 
    1916 0004e5       $C$L36:    
    1917                      .dwpsn  file "../c5535_bsl_revc/ezdsp5535_v1/c55xx_csl/ccs_v4.0_examples/nand/CSL_NAND_DmaExample/csl
    1918 0004e5 ED38          MOV dbl(*SP(#28)), XAR0
         0004e7 8F   
    1919 0004e8 7600          MOV #128, T0 ; |645| 
         0004ea 8048 
    1920              $C$DW$128       .dwtag  DW_TAG_TI_branch
    1921                      .dwattr $C$DW$128, DW_AT_low_pc(0x00)
    1922                      .dwattr $C$DW$128, DW_AT_name("_NAND_sendCommand")
    1923                      .dwattr $C$DW$128, DW_AT_TI_call
    1924 0004ec 6C00          CALL #_NAND_sendCommand ; |645| 
         0004ee 0000!
    1925                                                      ; call occurs [#_NAND_sendCommand] ; |645| 
    1926 0004f0 C468          MOV T0, *SP(#52) ; |645| 
    1927                      .dwpsn  file "../c5535_bsl_revc/ezdsp5535_v1/c55xx_csl/ccs_v4.0_examples/nand/CSL_NAND_DmaExample/csl
    1928 0004f2 2249          MOV T0, AR1
    1929 0004f4 0409          BCC $C$L37,AR1 == #0 ; |646| 
         0004f6 12   
TMS320C55x Assembler PC v4.4.1 Sat Sep 29 23:08:57 2018

Tools Copyright (c) 1996-2012 Texas Instruments Incorporated
csl_nand_dma_example.asm                                             PAGE   49

    1930                                                      ; branchcc occurs ; |646| 
    1931                      .dwpsn  file "../c5535_bsl_revc/ezdsp5535_v1/c55xx_csl/ccs_v4.0_examples/nand/CSL_NAND_DmaExample/csl
    1932 0004f7 EC31          AMOV #$C$FSL32, XAR3 ; |648| 
         0004f9 BE00 
         0004fb 0210+
    1933 0004fd EB00          MOV XAR3, dbl(*SP(#0))
         0004ff B5   
    1934              $C$DW$129       .dwtag  DW_TAG_TI_branch
    1935                      .dwattr $C$DW$129, DW_AT_low_pc(0x00)
    1936                      .dwattr $C$DW$129, DW_AT_name("_printf")
    1937                      .dwattr $C$DW$129, DW_AT_TI_call
    1938 000500 6C00          CALL #_printf ; |648| 
         000502 0000!
    1939                                                      ; call occurs [#_printf] ; |648| 
    1940                      .dwpsn  file "../c5535_bsl_revc/ezdsp5535_v1/c55xx_csl/ccs_v4.0_examples/nand/CSL_NAND_DmaExample/csl
    1941 000504 A46A          MOV *SP(#53), T0 ; |649| 
    1942 000506 0604          B $C$L72  ; |649| 
         000508 0F   
    1943                                                      ; branch occurs ; |649| 
    1944 000509       $C$L37:    
    1945                      .dwpsn  file "../c5535_bsl_revc/ezdsp5535_v1/c55xx_csl/ccs_v4.0_examples/nand/CSL_NAND_DmaExample/csl
    1946 000509 ED38          MOV dbl(*SP(#28)), XAR0
         00050b 8F   
    1947              $C$DW$130       .dwtag  DW_TAG_TI_branch
    1948                      .dwattr $C$DW$130, DW_AT_low_pc(0x00)
    1949                      .dwattr $C$DW$130, DW_AT_name("_NAND_checkCommandStatus")
    1950                      .dwattr $C$DW$130, DW_AT_TI_call
    1951 00050c 6C00          CALL #_NAND_checkCommandStatus ; |653| 
         00050e 0000!
    1952                                                      ; call occurs [#_NAND_checkCommandStatus] ; |653| 
    1953 000510 C468          MOV T0, *SP(#52) ; |653| 
    1954                      .dwpsn  file "../c5535_bsl_revc/ezdsp5535_v1/c55xx_csl/ccs_v4.0_examples/nand/CSL_NAND_DmaExample/csl
    1955 000512 2249          MOV T0, AR1
    1956 000514 0409          BCC $C$L38,AR1 == #0 ; |654| 
         000516 12   
    1957                                                      ; branchcc occurs ; |654| 
    1958                      .dwpsn  file "../c5535_bsl_revc/ezdsp5535_v1/c55xx_csl/ccs_v4.0_examples/nand/CSL_NAND_DmaExample/csl
    1959 000517 EC31          AMOV #$C$FSL33, XAR3 ; |656| 
         000519 BE00 
         00051b 022C+
    1960 00051d EB00          MOV XAR3, dbl(*SP(#0))
         00051f B5   
    1961              $C$DW$131       .dwtag  DW_TAG_TI_branch
    1962                      .dwattr $C$DW$131, DW_AT_low_pc(0x00)
    1963                      .dwattr $C$DW$131, DW_AT_name("_printf")
    1964                      .dwattr $C$DW$131, DW_AT_TI_call
    1965 000520 6C00          CALL #_printf ; |656| 
         000522 0000!
    1966                                                      ; call occurs [#_printf] ; |656| 
    1967                      .dwpsn  file "../c5535_bsl_revc/ezdsp5535_v1/c55xx_csl/ccs_v4.0_examples/nand/CSL_NAND_DmaExample/csl
    1968 000524 A46A          MOV *SP(#53), T0 ; |657| 
    1969 000526 0603          B $C$L72  ; |657| 
         000528 EF   
    1970                                                      ; branch occurs ; |657| 
    1971 000529       $C$L38:    
TMS320C55x Assembler PC v4.4.1 Sat Sep 29 23:08:57 2018

Tools Copyright (c) 1996-2012 Texas Instruments Incorporated
csl_nand_dma_example.asm                                             PAGE   50

    1972                      .dwpsn  file "../c5535_bsl_revc/ezdsp5535_v1/c55xx_csl/ccs_v4.0_examples/nand/CSL_NAND_DmaExample/csl
    1973 000529 E676          MOV #0, *SP(#59) ; |661| 
         00052b 00   
    1974                      .dwpsn  file "../c5535_bsl_revc/ezdsp5535_v1/c55xx_csl/ccs_v4.0_examples/nand/CSL_NAND_DmaExample/csl
    1975 00052c E674          MOV #0, *SP(#58) ; |662| 
         00052e 00   
    1976                      .dwpsn  file "../c5535_bsl_revc/ezdsp5535_v1/c55xx_csl/ccs_v4.0_examples/nand/CSL_NAND_DmaExample/csl
    1977 00052f A931          MOV *(#_gColAddrCycles), AR1 ; |662| 
         000531 000B 
         000533 70-  
    1978 000534 AA74          MOV *SP(#58), AR2 ; |662| 
    1979 000536 12A8          CMPU AR2 >= AR1, TC1 ; |662| 
         000538 94   
    1980 000539 0464          BCC $C$L41,TC1 ; |662| 
         00053b 38   
    1981                                                      ; branchcc occurs ; |662| 
    1982 00053c       $C$L39:    
    1983 00053c       $C$DW$L$_CSL_nandDmaTest$52$B:
    1984                      .dwpsn  file "../c5535_bsl_revc/ezdsp5535_v1/c55xx_csl/ccs_v4.0_examples/nand/CSL_NAND_DmaExample/csl
    1985 00053c ED38          MOV dbl(*SP(#28)), XAR0
         00053e 8F   
    1986 00053f A476          MOV *SP(#59), T0 ; |664| 
    1987              $C$DW$132       .dwtag  DW_TAG_TI_branch
    1988                      .dwattr $C$DW$132, DW_AT_low_pc(0x00)
    1989                      .dwattr $C$DW$132, DW_AT_name("_NAND_setAddress")
    1990                      .dwattr $C$DW$132, DW_AT_TI_call
    1991 000541 6C00          CALL #_NAND_setAddress ; |664| 
         000543 0000!
    1992                                                      ; call occurs [#_NAND_setAddress] ; |664| 
    1993 000545 C468          MOV T0, *SP(#52) ; |664| 
    1994                      .dwpsn  file "../c5535_bsl_revc/ezdsp5535_v1/c55xx_csl/ccs_v4.0_examples/nand/CSL_NAND_DmaExample/csl
    1995 000547 2249          MOV T0, AR1
    1996 000549 0409          BCC $C$L40,AR1 == #0 ; |665| 
         00054b 12   
    1997                                                      ; branchcc occurs ; |665| 
    1998 00054c       $C$DW$L$_CSL_nandDmaTest$52$E:
    1999                      .dwpsn  file "../c5535_bsl_revc/ezdsp5535_v1/c55xx_csl/ccs_v4.0_examples/nand/CSL_NAND_DmaExample/csl
    2000 00054c EC31          AMOV #$C$FSL37, XAR3 ; |667| 
         00054e BE00 
         000550 02B4+
    2001 000552 EB00          MOV XAR3, dbl(*SP(#0))
         000554 B5   
    2002              $C$DW$133       .dwtag  DW_TAG_TI_branch
    2003                      .dwattr $C$DW$133, DW_AT_low_pc(0x00)
    2004                      .dwattr $C$DW$133, DW_AT_name("_printf")
    2005                      .dwattr $C$DW$133, DW_AT_TI_call
    2006 000555 6C00          CALL #_printf ; |667| 
         000557 0000!
    2007                                                      ; call occurs [#_printf] ; |667| 
    2008                      .dwpsn  file "../c5535_bsl_revc/ezdsp5535_v1/c55xx_csl/ccs_v4.0_examples/nand/CSL_NAND_DmaExample/csl
    2009 000559 A46A          MOV *SP(#53), T0 ; |668| 
    2010 00055b 0603          B $C$L72  ; |668| 
         00055d BA   
    2011                                                      ; branch occurs ; |668| 
    2012 00055e       $C$L40:    
TMS320C55x Assembler PC v4.4.1 Sat Sep 29 23:08:57 2018

Tools Copyright (c) 1996-2012 Texas Instruments Incorporated
csl_nand_dma_example.asm                                             PAGE   51

    2013 00055e       $C$DW$L$_CSL_nandDmaTest$54$B:
    2014                      .dwpsn  file "../c5535_bsl_revc/ezdsp5535_v1/c55xx_csl/ccs_v4.0_examples/nand/CSL_NAND_DmaExample/csl
    2015 00055e DF76          MOV uns(high_byte(*SP(#59))), AR1 ; |670| 
         000560 91   
    2016 000561 C976          MOV AR1, *SP(#59) ; |670| 
    2017                      .dwpsn  file "../c5535_bsl_revc/ezdsp5535_v1/c55xx_csl/ccs_v4.0_examples/nand/CSL_NAND_DmaExample/csl
    2018 000563 F774          ADD #1, *SP(#58) ; |662| 
         000565 0001 
    2019                      .dwpsn  file "../c5535_bsl_revc/ezdsp5535_v1/c55xx_csl/ccs_v4.0_examples/nand/CSL_NAND_DmaExample/csl
    2020 000567 A931          MOV *(#_gColAddrCycles), AR1 ; |662| 
         000569 000B 
         00056b 70-  
    2021 00056c AA74          MOV *SP(#58), AR2 ; |662| 
    2022 00056e 12A4          CMPU AR2 < AR1, TC1 ; |662| 
         000570 94   
    2023 000571 0464          BCC $C$L39,TC1 ; |662| 
         000573 C8   
    2024                                                      ; branchcc occurs ; |662| 
    2025 000574       $C$DW$L$_CSL_nandDmaTest$54$E:
    2026 000574       $C$L41:    
    2027                      .dwpsn  file "../c5535_bsl_revc/ezdsp5535_v1/c55xx_csl/ccs_v4.0_examples/nand/CSL_NAND_DmaExample/csl
    2028 000574 A931          MOV *(#(_gRowAddress+1)), AR1 ; |674| 
         000576 000B 
         000578 75-  
    2029 000579 C976          MOV AR1, *SP(#59) ; |674| 
    2030                      .dwpsn  file "../c5535_bsl_revc/ezdsp5535_v1/c55xx_csl/ccs_v4.0_examples/nand/CSL_NAND_DmaExample/csl
    2031 00057b E674          MOV #0, *SP(#58) ; |675| 
         00057d 00   
    2032                      .dwpsn  file "../c5535_bsl_revc/ezdsp5535_v1/c55xx_csl/ccs_v4.0_examples/nand/CSL_NAND_DmaExample/csl
    2033 00057e A931          MOV *(#_gRowAddrCycles), AR1 ; |675| 
         000580 000B 
         000582 6F-  
    2034 000583 AA74          MOV *SP(#58), AR2 ; |675| 
    2035 000585 12A8          CMPU AR2 >= AR1, TC1 ; |675| 
         000587 94   
    2036 000588 0464          BCC $C$L44,TC1 ; |675| 
         00058a 38   
    2037                                                      ; branchcc occurs ; |675| 
    2038 00058b       $C$L42:    
    2039 00058b       $C$DW$L$_CSL_nandDmaTest$56$B:
    2040                      .dwpsn  file "../c5535_bsl_revc/ezdsp5535_v1/c55xx_csl/ccs_v4.0_examples/nand/CSL_NAND_DmaExample/csl
    2041 00058b ED38          MOV dbl(*SP(#28)), XAR0
         00058d 8F   
    2042 00058e A476          MOV *SP(#59), T0 ; |677| 
    2043              $C$DW$134       .dwtag  DW_TAG_TI_branch
    2044                      .dwattr $C$DW$134, DW_AT_low_pc(0x00)
    2045                      .dwattr $C$DW$134, DW_AT_name("_NAND_setAddress")
    2046                      .dwattr $C$DW$134, DW_AT_TI_call
    2047 000590 6C00          CALL #_NAND_setAddress ; |677| 
         000592 0000!
    2048                                                      ; call occurs [#_NAND_setAddress] ; |677| 
    2049 000594 C468          MOV T0, *SP(#52) ; |677| 
    2050                      .dwpsn  file "../c5535_bsl_revc/ezdsp5535_v1/c55xx_csl/ccs_v4.0_examples/nand/CSL_NAND_DmaExample/csl
    2051 000596 2249          MOV T0, AR1
    2052 000598 0409          BCC $C$L43,AR1 == #0 ; |678| 
TMS320C55x Assembler PC v4.4.1 Sat Sep 29 23:08:57 2018

Tools Copyright (c) 1996-2012 Texas Instruments Incorporated
csl_nand_dma_example.asm                                             PAGE   52

         00059a 12   
    2053                                                      ; branchcc occurs ; |678| 
    2054 00059b       $C$DW$L$_CSL_nandDmaTest$56$E:
    2055                      .dwpsn  file "../c5535_bsl_revc/ezdsp5535_v1/c55xx_csl/ccs_v4.0_examples/nand/CSL_NAND_DmaExample/csl
    2056 00059b EC31          AMOV #$C$FSL37, XAR3 ; |680| 
         00059d BE00 
         00059f 02B4+
    2057 0005a1 EB00          MOV XAR3, dbl(*SP(#0))
         0005a3 B5   
    2058              $C$DW$135       .dwtag  DW_TAG_TI_branch
    2059                      .dwattr $C$DW$135, DW_AT_low_pc(0x00)
    2060                      .dwattr $C$DW$135, DW_AT_name("_printf")
    2061                      .dwattr $C$DW$135, DW_AT_TI_call
    2062 0005a4 6C00          CALL #_printf ; |680| 
         0005a6 0000!
    2063                                                      ; call occurs [#_printf] ; |680| 
    2064                      .dwpsn  file "../c5535_bsl_revc/ezdsp5535_v1/c55xx_csl/ccs_v4.0_examples/nand/CSL_NAND_DmaExample/csl
    2065 0005a8 A46A          MOV *SP(#53), T0 ; |681| 
    2066 0005aa 0603          B $C$L72  ; |681| 
         0005ac 6B   
    2067                                                      ; branch occurs ; |681| 
    2068 0005ad       $C$L43:    
    2069 0005ad       $C$DW$L$_CSL_nandDmaTest$58$B:
    2070                      .dwpsn  file "../c5535_bsl_revc/ezdsp5535_v1/c55xx_csl/ccs_v4.0_examples/nand/CSL_NAND_DmaExample/csl
    2071 0005ad DF76          MOV uns(high_byte(*SP(#59))), AR1 ; |683| 
         0005af 91   
    2072 0005b0 C976          MOV AR1, *SP(#59) ; |683| 
    2073                      .dwpsn  file "../c5535_bsl_revc/ezdsp5535_v1/c55xx_csl/ccs_v4.0_examples/nand/CSL_NAND_DmaExample/csl
    2074 0005b2 F774          ADD #1, *SP(#58) ; |675| 
         0005b4 0001 
    2075                      .dwpsn  file "../c5535_bsl_revc/ezdsp5535_v1/c55xx_csl/ccs_v4.0_examples/nand/CSL_NAND_DmaExample/csl
    2076 0005b6 A931          MOV *(#_gRowAddrCycles), AR1 ; |675| 
         0005b8 000B 
         0005ba 6F-  
    2077 0005bb AA74          MOV *SP(#58), AR2 ; |675| 
    2078 0005bd 12A4          CMPU AR2 < AR1, TC1 ; |675| 
         0005bf 94   
    2079 0005c0 0464          BCC $C$L42,TC1 ; |675| 
         0005c2 C8   
    2080                                                      ; branchcc occurs ; |675| 
    2081 0005c3       $C$DW$L$_CSL_nandDmaTest$58$E:
    2082 0005c3       $C$L44:    
    2083                      .dwpsn  file "../c5535_bsl_revc/ezdsp5535_v1/c55xx_csl/ccs_v4.0_examples/nand/CSL_NAND_DmaExample/csl
    2084 0005c3 ED38          MOV dbl(*SP(#28)), XAR0
         0005c5 8F   
    2085 0005c6 A40A          MOV *SP(#5), T0 ; |687| 
    2086              $C$DW$136       .dwtag  DW_TAG_TI_branch
    2087                      .dwattr $C$DW$136, DW_AT_low_pc(0x00)
    2088                      .dwattr $C$DW$136, DW_AT_name("_NAND_enableHwECC")
    2089                      .dwattr $C$DW$136, DW_AT_TI_call
    2090 0005c8 6C00          CALL #_NAND_enableHwECC ; |687| 
         0005ca 0000!
    2091                                                      ; call occurs [#_NAND_enableHwECC] ; |687| 
    2092 0005cc C468          MOV T0, *SP(#52) ; |687| 
    2093                      .dwpsn  file "../c5535_bsl_revc/ezdsp5535_v1/c55xx_csl/ccs_v4.0_examples/nand/CSL_NAND_DmaExample/csl
TMS320C55x Assembler PC v4.4.1 Sat Sep 29 23:08:57 2018

Tools Copyright (c) 1996-2012 Texas Instruments Incorporated
csl_nand_dma_example.asm                                             PAGE   53

    2094 0005ce 2249          MOV T0, AR1
    2095 0005d0 0409          BCC $C$L45,AR1 == #0 ; |688| 
         0005d2 12   
    2096                                                      ; branchcc occurs ; |688| 
    2097                      .dwpsn  file "../c5535_bsl_revc/ezdsp5535_v1/c55xx_csl/ccs_v4.0_examples/nand/CSL_NAND_DmaExample/csl
    2098 0005d3 EC31          AMOV #$C$FSL38, XAR3 ; |690| 
         0005d5 BE00 
         0005d7 02D0+
    2099 0005d9 EB00          MOV XAR3, dbl(*SP(#0))
         0005db B5   
    2100              $C$DW$137       .dwtag  DW_TAG_TI_branch
    2101                      .dwattr $C$DW$137, DW_AT_low_pc(0x00)
    2102                      .dwattr $C$DW$137, DW_AT_name("_printf")
    2103                      .dwattr $C$DW$137, DW_AT_TI_call
    2104 0005dc 6C00          CALL #_printf ; |690| 
         0005de 0000!
    2105                                                      ; call occurs [#_printf] ; |690| 
    2106                      .dwpsn  file "../c5535_bsl_revc/ezdsp5535_v1/c55xx_csl/ccs_v4.0_examples/nand/CSL_NAND_DmaExample/csl
    2107 0005e0 A46A          MOV *SP(#53), T0 ; |691| 
    2108 0005e2 0603          B $C$L72  ; |691| 
         0005e4 33   
    2109                                                      ; branch occurs ; |691| 
    2110 0005e5       $C$L45:    
    2111                      .dwpsn  file "../c5535_bsl_revc/ezdsp5535_v1/c55xx_csl/ccs_v4.0_examples/nand/CSL_NAND_DmaExample/csl
    2112 0005e5 F451          AND #0xfffc, *port(#7219) ; |695| 
         0005e7 FFFC 
         0005e9 1C33 
    2113                      .dwpsn  file "../c5535_bsl_revc/ezdsp5535_v1/c55xx_csl/ccs_v4.0_examples/nand/CSL_NAND_DmaExample/csl
    2114 0005eb ED31          MOV dbl(*(#_dmaWrHandle)), XAR0
         0005ed 8F00 
         0005ef 0800-
    2115              $C$DW$138       .dwtag  DW_TAG_TI_branch
    2116                      .dwattr $C$DW$138, DW_AT_low_pc(0x00)
    2117                      .dwattr $C$DW$138, DW_AT_name("_DMA_start")
    2118                      .dwattr $C$DW$138, DW_AT_TI_call
    2119 0005f1 6C00          CALL #_DMA_start ; |698| 
         0005f3 0000!
    2120                                                      ; call occurs [#_DMA_start] ; |698| 
    2121 0005f5 C468          MOV T0, *SP(#52) ; |698| 
    2122                      .dwpsn  file "../c5535_bsl_revc/ezdsp5535_v1/c55xx_csl/ccs_v4.0_examples/nand/CSL_NAND_DmaExample/csl
    2123 0005f7 2249          MOV T0, AR1
    2124 0005f9 0409          BCC $C$L46,AR1 == #0 ; |699| 
         0005fb 12   
    2125                                                      ; branchcc occurs ; |699| 
    2126                      .dwpsn  file "../c5535_bsl_revc/ezdsp5535_v1/c55xx_csl/ccs_v4.0_examples/nand/CSL_NAND_DmaExample/csl
    2127 0005fc EC31          AMOV #$C$FSL39, XAR3 ; |701| 
         0005fe BE00 
         000600 02EA+
    2128 000602 EB00          MOV XAR3, dbl(*SP(#0))
         000604 B5   
    2129              $C$DW$139       .dwtag  DW_TAG_TI_branch
    2130                      .dwattr $C$DW$139, DW_AT_low_pc(0x00)
    2131                      .dwattr $C$DW$139, DW_AT_name("_printf")
    2132                      .dwattr $C$DW$139, DW_AT_TI_call
    2133 000605 6C00          CALL #_printf ; |701| 
TMS320C55x Assembler PC v4.4.1 Sat Sep 29 23:08:57 2018

Tools Copyright (c) 1996-2012 Texas Instruments Incorporated
csl_nand_dma_example.asm                                             PAGE   54

         000607 0000!
    2134                                                      ; call occurs [#_printf] ; |701| 
    2135                      .dwpsn  file "../c5535_bsl_revc/ezdsp5535_v1/c55xx_csl/ccs_v4.0_examples/nand/CSL_NAND_DmaExample/csl
    2136 000609 A46A          MOV *SP(#53), T0 ; |702| 
    2137 00060b 0603          B $C$L72  ; |702| 
         00060d 0A   
    2138                                                      ; branch occurs ; |702| 
    2139 00060e       $C$L46:    
    2140                      .dwpsn  file "../c5535_bsl_revc/ezdsp5535_v1/c55xx_csl/ccs_v4.0_examples/nand/CSL_NAND_DmaExample/csl
    2141 00060e ED31          MOV dbl(*(#_dmaWrHandle)), XAR0
         000610 8F00 
         000612 0800-
    2142              $C$DW$140       .dwtag  DW_TAG_TI_branch
    2143                      .dwattr $C$DW$140, DW_AT_low_pc(0x00)
    2144                      .dwattr $C$DW$140, DW_AT_name("_DMA_getStatus")
    2145                      .dwattr $C$DW$140, DW_AT_TI_call
    2146 000614 08F9          CALL #_DMA_getStatus ; |706| 
         000616 E9   
    2147                                                      ; call occurs [#_DMA_getStatus] ; |706| 
    2148 000617 6604          BCC $C$L48,T0 == #0 ; |706| 
    2149                                                      ; branchcc occurs ; |706| 
    2150 000619       $C$L47:    
    2151 000619       $C$DW$L$_CSL_nandDmaTest$64$B:
    2152 000619 ED31          MOV dbl(*(#_dmaWrHandle)), XAR0
         00061b 8F00 
         00061d 0800-
    2153              $C$DW$141       .dwtag  DW_TAG_TI_branch
    2154                      .dwattr $C$DW$141, DW_AT_low_pc(0x00)
    2155                      .dwattr $C$DW$141, DW_AT_name("_DMA_getStatus")
    2156                      .dwattr $C$DW$141, DW_AT_TI_call
    2157 00061f 08F9          CALL #_DMA_getStatus ; |706| 
         000621 DE   
    2158                                                      ; call occurs [#_DMA_getStatus] ; |706| 
    2159 000622 0414          BCC $C$L47,T0 != #0 ; |706| 
         000624 F4   
    2160                                                      ; branchcc occurs ; |706| 
    2161 000625       $C$DW$L$_CSL_nandDmaTest$64$E:
    2162 000625       $C$L48:    
    2163                      .dwpsn  file "../c5535_bsl_revc/ezdsp5535_v1/c55xx_csl/ccs_v4.0_examples/nand/CSL_NAND_DmaExample/csl
    2164 000625 A951          MOV *port(#7219), AR1 ; |709| 
         000627 1C33 
    2165 000629 7DFF          AND #0xfffc, AR1, AC0 ; |709| 
         00062b FC09 
    2166 00062d EC02          BSET @#1, AC0 ; |709| 
         00062f 00   
    2167 000630 C051          MOV AC0, *port(#7219) ; |709| 
         000632 1C33 
    2168                      .dwpsn  file "../c5535_bsl_revc/ezdsp5535_v1/c55xx_csl/ccs_v4.0_examples/nand/CSL_NAND_DmaExample/csl
    2169 000634 EC31          AMOV #$C$FSL40, XAR3 ; |711| 
         000636 BE00 
         000638 0304+
    2170 00063a EB00          MOV XAR3, dbl(*SP(#0))
         00063c B5   
    2171              $C$DW$142       .dwtag  DW_TAG_TI_branch
    2172                      .dwattr $C$DW$142, DW_AT_low_pc(0x00)
TMS320C55x Assembler PC v4.4.1 Sat Sep 29 23:08:57 2018

Tools Copyright (c) 1996-2012 Texas Instruments Incorporated
csl_nand_dma_example.asm                                             PAGE   55

    2173                      .dwattr $C$DW$142, DW_AT_name("_printf")
    2174                      .dwattr $C$DW$142, DW_AT_TI_call
    2175 00063d 6C00          CALL #_printf ; |711| 
         00063f 0000!
    2176                                                      ; call occurs [#_printf] ; |711| 
    2177                      .dwpsn  file "../c5535_bsl_revc/ezdsp5535_v1/c55xx_csl/ccs_v4.0_examples/nand/CSL_NAND_DmaExample/csl
    2178 000641 A40A          MOV *SP(#5), T0 ; |714| 
    2179 000643 ED38          MOV dbl(*SP(#28)), XAR0
         000645 8F   
    2180 000646 EC78          AMAR *SP(#60), XAR1
         000648 9E   
    2181              $C$DW$143       .dwtag  DW_TAG_TI_branch
    2182                      .dwattr $C$DW$143, DW_AT_low_pc(0x00)
    2183                      .dwattr $C$DW$143, DW_AT_name("_NAND_readECC")
    2184                      .dwattr $C$DW$143, DW_AT_TI_call
    2185 000649 6C00          CALL #_NAND_readECC ; |714| 
         00064b 0000!
    2186                                                      ; call occurs [#_NAND_readECC] ; |714| 
    2187 00064d C468          MOV T0, *SP(#52) ; |714| 
    2188                      .dwpsn  file "../c5535_bsl_revc/ezdsp5535_v1/c55xx_csl/ccs_v4.0_examples/nand/CSL_NAND_DmaExample/csl
    2189 00064f 2249          MOV T0, AR1
    2190 000651 0409          BCC $C$L49,AR1 == #0 ; |715| 
         000653 12   
    2191                                                      ; branchcc occurs ; |715| 
    2192                      .dwpsn  file "../c5535_bsl_revc/ezdsp5535_v1/c55xx_csl/ccs_v4.0_examples/nand/CSL_NAND_DmaExample/csl
    2193 000654 EC31          AMOV #$C$FSL41, XAR3 ; |717| 
         000656 BE00 
         000658 0326+
    2194 00065a EB00          MOV XAR3, dbl(*SP(#0))
         00065c B5   
    2195              $C$DW$144       .dwtag  DW_TAG_TI_branch
    2196                      .dwattr $C$DW$144, DW_AT_low_pc(0x00)
    2197                      .dwattr $C$DW$144, DW_AT_name("_printf")
    2198                      .dwattr $C$DW$144, DW_AT_TI_call
    2199 00065d 6C00          CALL #_printf ; |717| 
         00065f 0000!
    2200                                                      ; call occurs [#_printf] ; |717| 
    2201                      .dwpsn  file "../c5535_bsl_revc/ezdsp5535_v1/c55xx_csl/ccs_v4.0_examples/nand/CSL_NAND_DmaExample/csl
    2202 000661 A46A          MOV *SP(#53), T0 ; |718| 
    2203 000663 0602          B $C$L72  ; |718| 
         000665 B2   
    2204                                                      ; branch occurs ; |718| 
    2205 000666       $C$L49:    
    2206                      .dwpsn  file "../c5535_bsl_revc/ezdsp5535_v1/c55xx_csl/ccs_v4.0_examples/nand/CSL_NAND_DmaExample/csl
    2207 000666 ED38          MOV dbl(*SP(#28)), XAR0
         000668 8F   
    2208 000669 A40A          MOV *SP(#5), T0 ; |722| 
    2209              $C$DW$145       .dwtag  DW_TAG_TI_branch
    2210                      .dwattr $C$DW$145, DW_AT_low_pc(0x00)
    2211                      .dwattr $C$DW$145, DW_AT_name("_NAND_disableHwECC")
    2212                      .dwattr $C$DW$145, DW_AT_TI_call
    2213 00066b 6C00          CALL #_NAND_disableHwECC ; |722| 
         00066d 0000!
    2214                                                      ; call occurs [#_NAND_disableHwECC] ; |722| 
    2215 00066f C468          MOV T0, *SP(#52) ; |722| 
TMS320C55x Assembler PC v4.4.1 Sat Sep 29 23:08:57 2018

Tools Copyright (c) 1996-2012 Texas Instruments Incorporated
csl_nand_dma_example.asm                                             PAGE   56

    2216                      .dwpsn  file "../c5535_bsl_revc/ezdsp5535_v1/c55xx_csl/ccs_v4.0_examples/nand/CSL_NAND_DmaExample/csl
    2217 000671 2249          MOV T0, AR1
    2218 000673 0409          BCC $C$L50,AR1 == #0 ; |723| 
         000675 12   
    2219                                                      ; branchcc occurs ; |723| 
    2220                      .dwpsn  file "../c5535_bsl_revc/ezdsp5535_v1/c55xx_csl/ccs_v4.0_examples/nand/CSL_NAND_DmaExample/csl
    2221 000676 EC31          AMOV #$C$FSL42, XAR3 ; |725| 
         000678 BE00 
         00067a 033E+
    2222 00067c EB00          MOV XAR3, dbl(*SP(#0))
         00067e B5   
    2223              $C$DW$146       .dwtag  DW_TAG_TI_branch
    2224                      .dwattr $C$DW$146, DW_AT_low_pc(0x00)
    2225                      .dwattr $C$DW$146, DW_AT_name("_printf")
    2226                      .dwattr $C$DW$146, DW_AT_TI_call
    2227 00067f 6C00          CALL #_printf ; |725| 
         000681 0000!
    2228                                                      ; call occurs [#_printf] ; |725| 
    2229                      .dwpsn  file "../c5535_bsl_revc/ezdsp5535_v1/c55xx_csl/ccs_v4.0_examples/nand/CSL_NAND_DmaExample/csl
    2230 000683 A46A          MOV *SP(#53), T0 ; |726| 
    2231 000685 0602          B $C$L72  ; |726| 
         000687 90   
    2232                                                      ; branch occurs ; |726| 
    2233 000688       $C$L50:    
    2234                      .dwpsn  file "../c5535_bsl_revc/ezdsp5535_v1/c55xx_csl/ccs_v4.0_examples/nand/CSL_NAND_DmaExample/csl
    2235 000688 ED38          MOV dbl(*SP(#28)), XAR0
         00068a 8F   
    2236 00068b 7600          MOV #16, T0 ; |730| 
         00068d 1048 
    2237              $C$DW$147       .dwtag  DW_TAG_TI_branch
    2238                      .dwattr $C$DW$147, DW_AT_low_pc(0x00)
    2239                      .dwattr $C$DW$147, DW_AT_name("_NAND_sendCommand")
    2240                      .dwattr $C$DW$147, DW_AT_TI_call
    2241 00068f 6C00          CALL #_NAND_sendCommand ; |730| 
         000691 0000!
    2242                                                      ; call occurs [#_NAND_sendCommand] ; |730| 
    2243 000693 C468          MOV T0, *SP(#52) ; |730| 
    2244                      .dwpsn  file "../c5535_bsl_revc/ezdsp5535_v1/c55xx_csl/ccs_v4.0_examples/nand/CSL_NAND_DmaExample/csl
    2245 000695 2249          MOV T0, AR1
    2246 000697 0409          BCC $C$L51,AR1 == #0 ; |731| 
         000699 12   
    2247                                                      ; branchcc occurs ; |731| 
    2248                      .dwpsn  file "../c5535_bsl_revc/ezdsp5535_v1/c55xx_csl/ccs_v4.0_examples/nand/CSL_NAND_DmaExample/csl
    2249 00069a EC31          AMOV #$C$FSL32, XAR3 ; |733| 
         00069c BE00 
         00069e 0210+
    2250 0006a0 EB00          MOV XAR3, dbl(*SP(#0))
         0006a2 B5   
    2251              $C$DW$148       .dwtag  DW_TAG_TI_branch
    2252                      .dwattr $C$DW$148, DW_AT_low_pc(0x00)
    2253                      .dwattr $C$DW$148, DW_AT_name("_printf")
    2254                      .dwattr $C$DW$148, DW_AT_TI_call
    2255 0006a3 6C00          CALL #_printf ; |733| 
         0006a5 0000!
    2256                                                      ; call occurs [#_printf] ; |733| 
TMS320C55x Assembler PC v4.4.1 Sat Sep 29 23:08:57 2018

Tools Copyright (c) 1996-2012 Texas Instruments Incorporated
csl_nand_dma_example.asm                                             PAGE   57

    2257                      .dwpsn  file "../c5535_bsl_revc/ezdsp5535_v1/c55xx_csl/ccs_v4.0_examples/nand/CSL_NAND_DmaExample/csl
    2258 0006a7 A46A          MOV *SP(#53), T0 ; |734| 
    2259 0006a9 0602          B $C$L72  ; |734| 
         0006ab 6C   
    2260                                                      ; branch occurs ; |734| 
    2261 0006ac       $C$L51:    
    2262                      .dwpsn  file "../c5535_bsl_revc/ezdsp5535_v1/c55xx_csl/ccs_v4.0_examples/nand/CSL_NAND_DmaExample/csl
    2263 0006ac ED38          MOV dbl(*SP(#28)), XAR0
         0006ae 8F   
    2264              $C$DW$149       .dwtag  DW_TAG_TI_branch
    2265                      .dwattr $C$DW$149, DW_AT_low_pc(0x00)
    2266                      .dwattr $C$DW$149, DW_AT_name("_NAND_checkCommandStatus")
    2267                      .dwattr $C$DW$149, DW_AT_TI_call
    2268 0006af 6C00          CALL #_NAND_checkCommandStatus ; |738| 
         0006b1 0000!
    2269                                                      ; call occurs [#_NAND_checkCommandStatus] ; |738| 
    2270 0006b3 C468          MOV T0, *SP(#52) ; |738| 
    2271                      .dwpsn  file "../c5535_bsl_revc/ezdsp5535_v1/c55xx_csl/ccs_v4.0_examples/nand/CSL_NAND_DmaExample/csl
    2272 0006b5 2249          MOV T0, AR1
    2273 0006b7 0409          BCC $C$L52,AR1 == #0 ; |739| 
         0006b9 12   
    2274                                                      ; branchcc occurs ; |739| 
    2275                      .dwpsn  file "../c5535_bsl_revc/ezdsp5535_v1/c55xx_csl/ccs_v4.0_examples/nand/CSL_NAND_DmaExample/csl
    2276 0006ba EC31          AMOV #$C$FSL33, XAR3 ; |741| 
         0006bc BE00 
         0006be 022C+
    2277 0006c0 EB00          MOV XAR3, dbl(*SP(#0))
         0006c2 B5   
    2278              $C$DW$150       .dwtag  DW_TAG_TI_branch
    2279                      .dwattr $C$DW$150, DW_AT_low_pc(0x00)
    2280                      .dwattr $C$DW$150, DW_AT_name("_printf")
    2281                      .dwattr $C$DW$150, DW_AT_TI_call
    2282 0006c3 6C00          CALL #_printf ; |741| 
         0006c5 0000!
    2283                                                      ; call occurs [#_printf] ; |741| 
    2284                      .dwpsn  file "../c5535_bsl_revc/ezdsp5535_v1/c55xx_csl/ccs_v4.0_examples/nand/CSL_NAND_DmaExample/csl
    2285 0006c7 A46A          MOV *SP(#53), T0 ; |742| 
    2286 0006c9 0602          B $C$L72  ; |742| 
         0006cb 4C   
    2287                                                      ; branch occurs ; |742| 
    2288 0006cc       $C$L52:    
    2289                      .dwpsn  file "../c5535_bsl_revc/ezdsp5535_v1/c55xx_csl/ccs_v4.0_examples/nand/CSL_NAND_DmaExample/csl
    2290 0006cc ED38          MOV dbl(*SP(#28)), XAR0
         0006ce 8F   
    2291              $C$DW$151       .dwtag  DW_TAG_TI_branch
    2292                      .dwattr $C$DW$151, DW_AT_low_pc(0x00)
    2293                      .dwattr $C$DW$151, DW_AT_name("_NAND_sendCommand")
    2294                      .dwattr $C$DW$151, DW_AT_TI_call
    2295              
    2296 0006cf 6C00          CALL #_NAND_sendCommand ; |746| 
         0006d1 0000!
    2297 0006d3 3D04  ||      MOV #0, T0
    2298              
    2299                                                      ; call occurs [#_NAND_sendCommand] ; |746| 
    2300 0006d5 C468          MOV T0, *SP(#52) ; |746| 
TMS320C55x Assembler PC v4.4.1 Sat Sep 29 23:08:57 2018

Tools Copyright (c) 1996-2012 Texas Instruments Incorporated
csl_nand_dma_example.asm                                             PAGE   58

    2301                      .dwpsn  file "../c5535_bsl_revc/ezdsp5535_v1/c55xx_csl/ccs_v4.0_examples/nand/CSL_NAND_DmaExample/csl
    2302 0006d7 2249          MOV T0, AR1
    2303 0006d9 0409          BCC $C$L53,AR1 == #0 ; |747| 
         0006db 12   
    2304                                                      ; branchcc occurs ; |747| 
    2305                      .dwpsn  file "../c5535_bsl_revc/ezdsp5535_v1/c55xx_csl/ccs_v4.0_examples/nand/CSL_NAND_DmaExample/csl
    2306 0006dc EC31          AMOV #$C$FSL32, XAR3 ; |749| 
         0006de BE00 
         0006e0 0210+
    2307 0006e2 EB00          MOV XAR3, dbl(*SP(#0))
         0006e4 B5   
    2308              $C$DW$152       .dwtag  DW_TAG_TI_branch
    2309                      .dwattr $C$DW$152, DW_AT_low_pc(0x00)
    2310                      .dwattr $C$DW$152, DW_AT_name("_printf")
    2311                      .dwattr $C$DW$152, DW_AT_TI_call
    2312 0006e5 6C00          CALL #_printf ; |749| 
         0006e7 0000!
    2313                                                      ; call occurs [#_printf] ; |749| 
    2314                      .dwpsn  file "../c5535_bsl_revc/ezdsp5535_v1/c55xx_csl/ccs_v4.0_examples/nand/CSL_NAND_DmaExample/csl
    2315 0006e9 A46A          MOV *SP(#53), T0 ; |750| 
    2316 0006eb 0602          B $C$L72  ; |750| 
         0006ed 2A   
    2317                                                      ; branch occurs ; |750| 
    2318 0006ee       $C$L53:    
    2319                      .dwpsn  file "../c5535_bsl_revc/ezdsp5535_v1/c55xx_csl/ccs_v4.0_examples/nand/CSL_NAND_DmaExample/csl
    2320 0006ee ED38          MOV dbl(*SP(#28)), XAR0
         0006f0 8F   
    2321              $C$DW$153       .dwtag  DW_TAG_TI_branch
    2322                      .dwattr $C$DW$153, DW_AT_low_pc(0x00)
    2323                      .dwattr $C$DW$153, DW_AT_name("_NAND_checkCommandStatus")
    2324                      .dwattr $C$DW$153, DW_AT_TI_call
    2325 0006f1 6C00          CALL #_NAND_checkCommandStatus ; |754| 
         0006f3 0000!
    2326                                                      ; call occurs [#_NAND_checkCommandStatus] ; |754| 
    2327 0006f5 C468          MOV T0, *SP(#52) ; |754| 
    2328                      .dwpsn  file "../c5535_bsl_revc/ezdsp5535_v1/c55xx_csl/ccs_v4.0_examples/nand/CSL_NAND_DmaExample/csl
    2329 0006f7 2249          MOV T0, AR1
    2330 0006f9 0409          BCC $C$L54,AR1 == #0 ; |755| 
         0006fb 12   
    2331                                                      ; branchcc occurs ; |755| 
    2332                      .dwpsn  file "../c5535_bsl_revc/ezdsp5535_v1/c55xx_csl/ccs_v4.0_examples/nand/CSL_NAND_DmaExample/csl
    2333 0006fc EC31          AMOV #$C$FSL33, XAR3 ; |757| 
         0006fe BE00 
         000700 022C+
    2334 000702 EB00          MOV XAR3, dbl(*SP(#0))
         000704 B5   
    2335              $C$DW$154       .dwtag  DW_TAG_TI_branch
    2336                      .dwattr $C$DW$154, DW_AT_low_pc(0x00)
    2337                      .dwattr $C$DW$154, DW_AT_name("_printf")
    2338                      .dwattr $C$DW$154, DW_AT_TI_call
    2339 000705 6C00          CALL #_printf ; |757| 
         000707 0000!
    2340                                                      ; call occurs [#_printf] ; |757| 
    2341                      .dwpsn  file "../c5535_bsl_revc/ezdsp5535_v1/c55xx_csl/ccs_v4.0_examples/nand/CSL_NAND_DmaExample/csl
    2342 000709 A46A          MOV *SP(#53), T0 ; |758| 
TMS320C55x Assembler PC v4.4.1 Sat Sep 29 23:08:57 2018

Tools Copyright (c) 1996-2012 Texas Instruments Incorporated
csl_nand_dma_example.asm                                             PAGE   59

    2343 00070b 0602          B $C$L72  ; |758| 
         00070d 0A   
    2344                                                      ; branch occurs ; |758| 
    2345 00070e       $C$L54:    
    2346                      .dwpsn  file "../c5535_bsl_revc/ezdsp5535_v1/c55xx_csl/ccs_v4.0_examples/nand/CSL_NAND_DmaExample/csl
    2347 00070e E676          MOV #0, *SP(#59) ; |762| 
         000710 00   
    2348                      .dwpsn  file "../c5535_bsl_revc/ezdsp5535_v1/c55xx_csl/ccs_v4.0_examples/nand/CSL_NAND_DmaExample/csl
    2349 000711 E674          MOV #0, *SP(#58) ; |763| 
         000713 00   
    2350                      .dwpsn  file "../c5535_bsl_revc/ezdsp5535_v1/c55xx_csl/ccs_v4.0_examples/nand/CSL_NAND_DmaExample/csl
    2351 000714 A931          MOV *(#_gColAddrCycles), AR1 ; |763| 
         000716 000B 
         000718 70-  
    2352 000719 AA74          MOV *SP(#58), AR2 ; |763| 
    2353 00071b 12A8          CMPU AR2 >= AR1, TC1 ; |763| 
         00071d 94   
    2354 00071e 0464          BCC $C$L57,TC1 ; |763| 
         000720 38   
    2355                                                      ; branchcc occurs ; |763| 
    2356 000721       $C$L55:    
    2357 000721       $C$DW$L$_CSL_nandDmaTest$78$B:
    2358                      .dwpsn  file "../c5535_bsl_revc/ezdsp5535_v1/c55xx_csl/ccs_v4.0_examples/nand/CSL_NAND_DmaExample/csl
    2359 000721 ED38          MOV dbl(*SP(#28)), XAR0
         000723 8F   
    2360 000724 A476          MOV *SP(#59), T0 ; |765| 
    2361              $C$DW$155       .dwtag  DW_TAG_TI_branch
    2362                      .dwattr $C$DW$155, DW_AT_low_pc(0x00)
    2363                      .dwattr $C$DW$155, DW_AT_name("_NAND_setAddress")
    2364                      .dwattr $C$DW$155, DW_AT_TI_call
    2365 000726 6C00          CALL #_NAND_setAddress ; |765| 
         000728 0000!
    2366                                                      ; call occurs [#_NAND_setAddress] ; |765| 
    2367 00072a C468          MOV T0, *SP(#52) ; |765| 
    2368                      .dwpsn  file "../c5535_bsl_revc/ezdsp5535_v1/c55xx_csl/ccs_v4.0_examples/nand/CSL_NAND_DmaExample/csl
    2369 00072c 2249          MOV T0, AR1
    2370 00072e 0409          BCC $C$L56,AR1 == #0 ; |766| 
         000730 12   
    2371                                                      ; branchcc occurs ; |766| 
    2372 000731       $C$DW$L$_CSL_nandDmaTest$78$E:
    2373                      .dwpsn  file "../c5535_bsl_revc/ezdsp5535_v1/c55xx_csl/ccs_v4.0_examples/nand/CSL_NAND_DmaExample/csl
    2374 000731 EC31          AMOV #$C$FSL37, XAR3 ; |768| 
         000733 BE00 
         000735 02B4+
    2375 000737 EB00          MOV XAR3, dbl(*SP(#0))
         000739 B5   
    2376              $C$DW$156       .dwtag  DW_TAG_TI_branch
    2377                      .dwattr $C$DW$156, DW_AT_low_pc(0x00)
    2378                      .dwattr $C$DW$156, DW_AT_name("_printf")
    2379                      .dwattr $C$DW$156, DW_AT_TI_call
    2380 00073a 6C00          CALL #_printf ; |768| 
         00073c 0000!
    2381                                                      ; call occurs [#_printf] ; |768| 
    2382                      .dwpsn  file "../c5535_bsl_revc/ezdsp5535_v1/c55xx_csl/ccs_v4.0_examples/nand/CSL_NAND_DmaExample/csl
    2383 00073e A46A          MOV *SP(#53), T0 ; |769| 
TMS320C55x Assembler PC v4.4.1 Sat Sep 29 23:08:57 2018

Tools Copyright (c) 1996-2012 Texas Instruments Incorporated
csl_nand_dma_example.asm                                             PAGE   60

    2384 000740 0601          B $C$L72  ; |769| 
         000742 D5   
    2385                                                      ; branch occurs ; |769| 
    2386 000743       $C$L56:    
    2387 000743       $C$DW$L$_CSL_nandDmaTest$80$B:
    2388                      .dwpsn  file "../c5535_bsl_revc/ezdsp5535_v1/c55xx_csl/ccs_v4.0_examples/nand/CSL_NAND_DmaExample/csl
    2389 000743 DF76          MOV uns(high_byte(*SP(#59))), AR1 ; |771| 
         000745 91   
    2390 000746 C976          MOV AR1, *SP(#59) ; |771| 
    2391                      .dwpsn  file "../c5535_bsl_revc/ezdsp5535_v1/c55xx_csl/ccs_v4.0_examples/nand/CSL_NAND_DmaExample/csl
    2392 000748 F774          ADD #1, *SP(#58) ; |763| 
         00074a 0001 
    2393                      .dwpsn  file "../c5535_bsl_revc/ezdsp5535_v1/c55xx_csl/ccs_v4.0_examples/nand/CSL_NAND_DmaExample/csl
    2394 00074c A931          MOV *(#_gColAddrCycles), AR1 ; |763| 
         00074e 000B 
         000750 70-  
    2395 000751 AA74          MOV *SP(#58), AR2 ; |763| 
    2396 000753 12A4          CMPU AR2 < AR1, TC1 ; |763| 
         000755 94   
    2397 000756 0464          BCC $C$L55,TC1 ; |763| 
         000758 C8   
    2398                                                      ; branchcc occurs ; |763| 
    2399 000759       $C$DW$L$_CSL_nandDmaTest$80$E:
    2400 000759       $C$L57:    
    2401                      .dwpsn  file "../c5535_bsl_revc/ezdsp5535_v1/c55xx_csl/ccs_v4.0_examples/nand/CSL_NAND_DmaExample/csl
    2402 000759 A931          MOV *(#(_gRowAddress+1)), AR1 ; |775| 
         00075b 000B 
         00075d 75-  
    2403 00075e C976          MOV AR1, *SP(#59) ; |775| 
    2404                      .dwpsn  file "../c5535_bsl_revc/ezdsp5535_v1/c55xx_csl/ccs_v4.0_examples/nand/CSL_NAND_DmaExample/csl
    2405 000760 E674          MOV #0, *SP(#58) ; |776| 
         000762 00   
    2406                      .dwpsn  file "../c5535_bsl_revc/ezdsp5535_v1/c55xx_csl/ccs_v4.0_examples/nand/CSL_NAND_DmaExample/csl
    2407 000763 A931          MOV *(#_gRowAddrCycles), AR1 ; |776| 
         000765 000B 
         000767 6F-  
    2408 000768 AA74          MOV *SP(#58), AR2 ; |776| 
    2409 00076a 12A8          CMPU AR2 >= AR1, TC1 ; |776| 
         00076c 94   
    2410 00076d 0464          BCC $C$L60,TC1 ; |776| 
         00076f 38   
    2411                                                      ; branchcc occurs ; |776| 
    2412 000770       $C$L58:    
    2413 000770       $C$DW$L$_CSL_nandDmaTest$82$B:
    2414                      .dwpsn  file "../c5535_bsl_revc/ezdsp5535_v1/c55xx_csl/ccs_v4.0_examples/nand/CSL_NAND_DmaExample/csl
    2415 000770 ED38          MOV dbl(*SP(#28)), XAR0
         000772 8F   
    2416 000773 A476          MOV *SP(#59), T0 ; |778| 
    2417              $C$DW$157       .dwtag  DW_TAG_TI_branch
    2418                      .dwattr $C$DW$157, DW_AT_low_pc(0x00)
    2419                      .dwattr $C$DW$157, DW_AT_name("_NAND_setAddress")
    2420                      .dwattr $C$DW$157, DW_AT_TI_call
    2421 000775 6C00          CALL #_NAND_setAddress ; |778| 
         000777 0000!
    2422                                                      ; call occurs [#_NAND_setAddress] ; |778| 
TMS320C55x Assembler PC v4.4.1 Sat Sep 29 23:08:57 2018

Tools Copyright (c) 1996-2012 Texas Instruments Incorporated
csl_nand_dma_example.asm                                             PAGE   61

    2423 000779 C468          MOV T0, *SP(#52) ; |778| 
    2424                      .dwpsn  file "../c5535_bsl_revc/ezdsp5535_v1/c55xx_csl/ccs_v4.0_examples/nand/CSL_NAND_DmaExample/csl
    2425 00077b 2249          MOV T0, AR1
    2426 00077d 0409          BCC $C$L59,AR1 == #0 ; |779| 
         00077f 12   
    2427                                                      ; branchcc occurs ; |779| 
    2428 000780       $C$DW$L$_CSL_nandDmaTest$82$E:
    2429                      .dwpsn  file "../c5535_bsl_revc/ezdsp5535_v1/c55xx_csl/ccs_v4.0_examples/nand/CSL_NAND_DmaExample/csl
    2430 000780 EC31          AMOV #$C$FSL37, XAR3 ; |781| 
         000782 BE00 
         000784 02B4+
    2431 000786 EB00          MOV XAR3, dbl(*SP(#0))
         000788 B5   
    2432              $C$DW$158       .dwtag  DW_TAG_TI_branch
    2433                      .dwattr $C$DW$158, DW_AT_low_pc(0x00)
    2434                      .dwattr $C$DW$158, DW_AT_name("_printf")
    2435                      .dwattr $C$DW$158, DW_AT_TI_call
    2436 000789 6C00          CALL #_printf ; |781| 
         00078b 0000!
    2437                                                      ; call occurs [#_printf] ; |781| 
    2438                      .dwpsn  file "../c5535_bsl_revc/ezdsp5535_v1/c55xx_csl/ccs_v4.0_examples/nand/CSL_NAND_DmaExample/csl
    2439 00078d A46A          MOV *SP(#53), T0 ; |782| 
    2440 00078f 0601          B $C$L72  ; |782| 
         000791 86   
    2441                                                      ; branch occurs ; |782| 
    2442 000792       $C$L59:    
    2443 000792       $C$DW$L$_CSL_nandDmaTest$84$B:
    2444                      .dwpsn  file "../c5535_bsl_revc/ezdsp5535_v1/c55xx_csl/ccs_v4.0_examples/nand/CSL_NAND_DmaExample/csl
    2445 000792 DF76          MOV uns(high_byte(*SP(#59))), AR1 ; |784| 
         000794 91   
    2446 000795 C976          MOV AR1, *SP(#59) ; |784| 
    2447                      .dwpsn  file "../c5535_bsl_revc/ezdsp5535_v1/c55xx_csl/ccs_v4.0_examples/nand/CSL_NAND_DmaExample/csl
    2448 000797 F774          ADD #1, *SP(#58) ; |776| 
         000799 0001 
    2449                      .dwpsn  file "../c5535_bsl_revc/ezdsp5535_v1/c55xx_csl/ccs_v4.0_examples/nand/CSL_NAND_DmaExample/csl
    2450 00079b A931          MOV *(#_gRowAddrCycles), AR1 ; |776| 
         00079d 000B 
         00079f 6F-  
    2451 0007a0 AA74          MOV *SP(#58), AR2 ; |776| 
    2452 0007a2 12A4          CMPU AR2 < AR1, TC1 ; |776| 
         0007a4 94   
    2453 0007a5 0464          BCC $C$L58,TC1 ; |776| 
         0007a7 C8   
    2454                                                      ; branchcc occurs ; |776| 
    2455 0007a8       $C$DW$L$_CSL_nandDmaTest$84$E:
    2456 0007a8       $C$L60:    
    2457                      .dwpsn  file "../c5535_bsl_revc/ezdsp5535_v1/c55xx_csl/ccs_v4.0_examples/nand/CSL_NAND_DmaExample/csl
    2458 0007a8 F031          CMP *(#_gNandType) == #1, TC1 ; |788| 
         0007aa 0001 
         0007ac 000B 
         0007ae 6C-  
    2459 0007af 0474          BCC $C$L61,!TC1 ; |788| 
         0007b1 24   
    2460                                                      ; branchcc occurs ; |788| 
    2461                      .dwpsn  file "../c5535_bsl_revc/ezdsp5535_v1/c55xx_csl/ccs_v4.0_examples/nand/CSL_NAND_DmaExample/csl
TMS320C55x Assembler PC v4.4.1 Sat Sep 29 23:08:57 2018

Tools Copyright (c) 1996-2012 Texas Instruments Incorporated
csl_nand_dma_example.asm                                             PAGE   62

    2462 0007b2 ED38          MOV dbl(*SP(#28)), XAR0
         0007b4 8F   
    2463 0007b5 7600          MOV #48, T0 ; |791| 
         0007b7 3048 
    2464              $C$DW$159       .dwtag  DW_TAG_TI_branch
    2465                      .dwattr $C$DW$159, DW_AT_low_pc(0x00)
    2466                      .dwattr $C$DW$159, DW_AT_name("_NAND_sendCommand")
    2467                      .dwattr $C$DW$159, DW_AT_TI_call
    2468 0007b9 6C00          CALL #_NAND_sendCommand ; |791| 
         0007bb 0000!
    2469                                                      ; call occurs [#_NAND_sendCommand] ; |791| 
    2470 0007bd C468          MOV T0, *SP(#52) ; |791| 
    2471                      .dwpsn  file "../c5535_bsl_revc/ezdsp5535_v1/c55xx_csl/ccs_v4.0_examples/nand/CSL_NAND_DmaExample/csl
    2472 0007bf 2249          MOV T0, AR1
    2473 0007c1 0409          BCC $C$L61,AR1 == #0 ; |792| 
         0007c3 12   
    2474                                                      ; branchcc occurs ; |792| 
    2475                      .dwpsn  file "../c5535_bsl_revc/ezdsp5535_v1/c55xx_csl/ccs_v4.0_examples/nand/CSL_NAND_DmaExample/csl
    2476 0007c4 EC31          AMOV #$C$FSL32, XAR3 ; |794| 
         0007c6 BE00 
         0007c8 0210+
    2477 0007ca EB00          MOV XAR3, dbl(*SP(#0))
         0007cc B5   
    2478              $C$DW$160       .dwtag  DW_TAG_TI_branch
    2479                      .dwattr $C$DW$160, DW_AT_low_pc(0x00)
    2480                      .dwattr $C$DW$160, DW_AT_name("_printf")
    2481                      .dwattr $C$DW$160, DW_AT_TI_call
    2482 0007cd 6C00          CALL #_printf ; |794| 
         0007cf 0000!
    2483                                                      ; call occurs [#_printf] ; |794| 
    2484                      .dwpsn  file "../c5535_bsl_revc/ezdsp5535_v1/c55xx_csl/ccs_v4.0_examples/nand/CSL_NAND_DmaExample/csl
    2485 0007d1 A46A          MOV *SP(#53), T0 ; |795| 
    2486 0007d3 0601          B $C$L72  ; |795| 
         0007d5 42   
    2487                                                      ; branch occurs ; |795| 
    2488 0007d6       $C$L61:    
    2489                      .dwpsn  file "../c5535_bsl_revc/ezdsp5535_v1/c55xx_csl/ccs_v4.0_examples/nand/CSL_NAND_DmaExample/csl
    2490 0007d6 ED38          MOV dbl(*SP(#28)), XAR0
         0007d8 8F   
    2491              $C$DW$161       .dwtag  DW_TAG_TI_branch
    2492                      .dwattr $C$DW$161, DW_AT_low_pc(0x00)
    2493                      .dwattr $C$DW$161, DW_AT_name("_NAND_checkCommandStatus")
    2494                      .dwattr $C$DW$161, DW_AT_TI_call
    2495 0007d9 6C00          CALL #_NAND_checkCommandStatus ; |800| 
         0007db 0000!
    2496                                                      ; call occurs [#_NAND_checkCommandStatus] ; |800| 
    2497 0007dd C468          MOV T0, *SP(#52) ; |800| 
    2498                      .dwpsn  file "../c5535_bsl_revc/ezdsp5535_v1/c55xx_csl/ccs_v4.0_examples/nand/CSL_NAND_DmaExample/csl
    2499 0007df 2249          MOV T0, AR1
    2500 0007e1 0409          BCC $C$L62,AR1 == #0 ; |801| 
         0007e3 12   
    2501                                                      ; branchcc occurs ; |801| 
    2502                      .dwpsn  file "../c5535_bsl_revc/ezdsp5535_v1/c55xx_csl/ccs_v4.0_examples/nand/CSL_NAND_DmaExample/csl
    2503 0007e4 EC31          AMOV #$C$FSL33, XAR3 ; |803| 
         0007e6 BE00 
TMS320C55x Assembler PC v4.4.1 Sat Sep 29 23:08:57 2018

Tools Copyright (c) 1996-2012 Texas Instruments Incorporated
csl_nand_dma_example.asm                                             PAGE   63

         0007e8 022C+
    2504 0007ea EB00          MOV XAR3, dbl(*SP(#0))
         0007ec B5   
    2505              $C$DW$162       .dwtag  DW_TAG_TI_branch
    2506                      .dwattr $C$DW$162, DW_AT_low_pc(0x00)
    2507                      .dwattr $C$DW$162, DW_AT_name("_printf")
    2508                      .dwattr $C$DW$162, DW_AT_TI_call
    2509 0007ed 6C00          CALL #_printf ; |803| 
         0007ef 0000!
    2510                                                      ; call occurs [#_printf] ; |803| 
    2511                      .dwpsn  file "../c5535_bsl_revc/ezdsp5535_v1/c55xx_csl/ccs_v4.0_examples/nand/CSL_NAND_DmaExample/csl
    2512 0007f1 A46A          MOV *SP(#53), T0 ; |804| 
    2513 0007f3 0601          B $C$L72  ; |804| 
         0007f5 22   
    2514                                                      ; branch occurs ; |804| 
    2515 0007f6       $C$L62:    
    2516                      .dwpsn  file "../c5535_bsl_revc/ezdsp5535_v1/c55xx_csl/ccs_v4.0_examples/nand/CSL_NAND_DmaExample/csl
    2517 0007f6 ED38          MOV dbl(*SP(#28)), XAR0
         0007f8 8F   
    2518 0007f9 A40A          MOV *SP(#5), T0 ; |808| 
    2519              $C$DW$163       .dwtag  DW_TAG_TI_branch
    2520                      .dwattr $C$DW$163, DW_AT_low_pc(0x00)
    2521                      .dwattr $C$DW$163, DW_AT_name("_NAND_enableHwECC")
    2522                      .dwattr $C$DW$163, DW_AT_TI_call
    2523 0007fb 6C00          CALL #_NAND_enableHwECC ; |808| 
         0007fd 0000!
    2524                                                      ; call occurs [#_NAND_enableHwECC] ; |808| 
    2525 0007ff C468          MOV T0, *SP(#52) ; |808| 
    2526                      .dwpsn  file "../c5535_bsl_revc/ezdsp5535_v1/c55xx_csl/ccs_v4.0_examples/nand/CSL_NAND_DmaExample/csl
    2527 000801 2249          MOV T0, AR1
    2528 000803 0409          BCC $C$L63,AR1 == #0 ; |809| 
         000805 12   
    2529                                                      ; branchcc occurs ; |809| 
    2530                      .dwpsn  file "../c5535_bsl_revc/ezdsp5535_v1/c55xx_csl/ccs_v4.0_examples/nand/CSL_NAND_DmaExample/csl
    2531 000806 EC31          AMOV #$C$FSL38, XAR3 ; |811| 
         000808 BE00 
         00080a 02D0+
    2532 00080c EB00          MOV XAR3, dbl(*SP(#0))
         00080e B5   
    2533              $C$DW$164       .dwtag  DW_TAG_TI_branch
    2534                      .dwattr $C$DW$164, DW_AT_low_pc(0x00)
    2535                      .dwattr $C$DW$164, DW_AT_name("_printf")
    2536                      .dwattr $C$DW$164, DW_AT_TI_call
    2537 00080f 6C00          CALL #_printf ; |811| 
         000811 0000!
    2538                                                      ; call occurs [#_printf] ; |811| 
    2539                      .dwpsn  file "../c5535_bsl_revc/ezdsp5535_v1/c55xx_csl/ccs_v4.0_examples/nand/CSL_NAND_DmaExample/csl
    2540 000813 A46A          MOV *SP(#53), T0 ; |812| 
    2541 000815 0601          B $C$L72  ; |812| 
         000817 00   
    2542                                                      ; branch occurs ; |812| 
    2543 000818       $C$L63:    
    2544                      .dwpsn  file "../c5535_bsl_revc/ezdsp5535_v1/c55xx_csl/ccs_v4.0_examples/nand/CSL_NAND_DmaExample/csl
    2545 000818 F451          AND #0xfffc, *port(#7219) ; |816| 
         00081a FFFC 
TMS320C55x Assembler PC v4.4.1 Sat Sep 29 23:08:57 2018

Tools Copyright (c) 1996-2012 Texas Instruments Incorporated
csl_nand_dma_example.asm                                             PAGE   64

         00081c 1C33 
    2546                      .dwpsn  file "../c5535_bsl_revc/ezdsp5535_v1/c55xx_csl/ccs_v4.0_examples/nand/CSL_NAND_DmaExample/csl
    2547 00081e ED31          MOV dbl(*(#_dmaRdHandle)), XAR0
         000820 8F00 
         000822 0802-
    2548              $C$DW$165       .dwtag  DW_TAG_TI_branch
    2549                      .dwattr $C$DW$165, DW_AT_low_pc(0x00)
    2550                      .dwattr $C$DW$165, DW_AT_name("_DMA_start")
    2551                      .dwattr $C$DW$165, DW_AT_TI_call
    2552 000824 6C00          CALL #_DMA_start ; |819| 
         000826 0000!
    2553                                                      ; call occurs [#_DMA_start] ; |819| 
    2554 000828 C468          MOV T0, *SP(#52) ; |819| 
    2555                      .dwpsn  file "../c5535_bsl_revc/ezdsp5535_v1/c55xx_csl/ccs_v4.0_examples/nand/CSL_NAND_DmaExample/csl
    2556 00082a 2249          MOV T0, AR1
    2557 00082c 0409          BCC $C$L64,AR1 == #0 ; |820| 
         00082e 12   
    2558                                                      ; branchcc occurs ; |820| 
    2559                      .dwpsn  file "../c5535_bsl_revc/ezdsp5535_v1/c55xx_csl/ccs_v4.0_examples/nand/CSL_NAND_DmaExample/csl
    2560 00082f EC31          AMOV #$C$FSL43, XAR3 ; |822| 
         000831 BE00 
         000833 035A+
    2561 000835 EB00          MOV XAR3, dbl(*SP(#0))
         000837 B5   
    2562              $C$DW$166       .dwtag  DW_TAG_TI_branch
    2563                      .dwattr $C$DW$166, DW_AT_low_pc(0x00)
    2564                      .dwattr $C$DW$166, DW_AT_name("_printf")
    2565                      .dwattr $C$DW$166, DW_AT_TI_call
    2566 000838 6C00          CALL #_printf ; |822| 
         00083a 0000!
    2567                                                      ; call occurs [#_printf] ; |822| 
    2568                      .dwpsn  file "../c5535_bsl_revc/ezdsp5535_v1/c55xx_csl/ccs_v4.0_examples/nand/CSL_NAND_DmaExample/csl
    2569 00083c A46A          MOV *SP(#53), T0 ; |823| 
    2570 00083e 0600          B $C$L72  ; |823| 
         000840 D7   
    2571                                                      ; branch occurs ; |823| 
    2572 000841       $C$L64:    
    2573                      .dwpsn  file "../c5535_bsl_revc/ezdsp5535_v1/c55xx_csl/ccs_v4.0_examples/nand/CSL_NAND_DmaExample/csl
    2574 000841 ED31          MOV dbl(*(#_dmaRdHandle)), XAR0
         000843 8F00 
         000845 0802-
    2575              $C$DW$167       .dwtag  DW_TAG_TI_branch
    2576                      .dwattr $C$DW$167, DW_AT_low_pc(0x00)
    2577                      .dwattr $C$DW$167, DW_AT_name("_DMA_getStatus")
    2578                      .dwattr $C$DW$167, DW_AT_TI_call
    2579 000847 08F7          CALL #_DMA_getStatus ; |827| 
         000849 B6   
    2580                                                      ; call occurs [#_DMA_getStatus] ; |827| 
    2581 00084a 6604          BCC $C$L66,T0 == #0 ; |827| 
    2582                                                      ; branchcc occurs ; |827| 
    2583 00084c       $C$L65:    
    2584 00084c       $C$DW$L$_CSL_nandDmaTest$95$B:
    2585 00084c ED31          MOV dbl(*(#_dmaRdHandle)), XAR0
         00084e 8F00 
         000850 0802-
TMS320C55x Assembler PC v4.4.1 Sat Sep 29 23:08:57 2018

Tools Copyright (c) 1996-2012 Texas Instruments Incorporated
csl_nand_dma_example.asm                                             PAGE   65

    2586              $C$DW$168       .dwtag  DW_TAG_TI_branch
    2587                      .dwattr $C$DW$168, DW_AT_low_pc(0x00)
    2588                      .dwattr $C$DW$168, DW_AT_name("_DMA_getStatus")
    2589                      .dwattr $C$DW$168, DW_AT_TI_call
    2590 000852 08F7          CALL #_DMA_getStatus ; |827| 
         000854 AB   
    2591                                                      ; call occurs [#_DMA_getStatus] ; |827| 
    2592 000855 0414          BCC $C$L65,T0 != #0 ; |827| 
         000857 F4   
    2593                                                      ; branchcc occurs ; |827| 
    2594 000858       $C$DW$L$_CSL_nandDmaTest$95$E:
    2595 000858       $C$L66:    
    2596                      .dwpsn  file "../c5535_bsl_revc/ezdsp5535_v1/c55xx_csl/ccs_v4.0_examples/nand/CSL_NAND_DmaExample/csl
    2597 000858 EC31          AMOV #$C$FSL44, XAR3 ; |829| 
         00085a BE00 
         00085c 0372+
    2598 00085e EB00          MOV XAR3, dbl(*SP(#0))
         000860 B5   
    2599              $C$DW$169       .dwtag  DW_TAG_TI_branch
    2600                      .dwattr $C$DW$169, DW_AT_low_pc(0x00)
    2601                      .dwattr $C$DW$169, DW_AT_name("_printf")
    2602                      .dwattr $C$DW$169, DW_AT_TI_call
    2603 000861 6C00          CALL #_printf ; |829| 
         000863 0000!
    2604                                                      ; call occurs [#_printf] ; |829| 
    2605                      .dwpsn  file "../c5535_bsl_revc/ezdsp5535_v1/c55xx_csl/ccs_v4.0_examples/nand/CSL_NAND_DmaExample/csl
    2606 000865 A951          MOV *port(#7219), AR1 ; |832| 
         000867 1C33 
    2607 000869 7DFF          AND #0xfffc, AR1, AC0 ; |832| 
         00086b FC09 
    2608 00086d EC02          BSET @#1, AC0 ; |832| 
         00086f 00   
    2609 000870 C051          MOV AC0, *port(#7219) ; |832| 
         000872 1C33 
    2610                      .dwpsn  file "../c5535_bsl_revc/ezdsp5535_v1/c55xx_csl/ccs_v4.0_examples/nand/CSL_NAND_DmaExample/csl
    2611 000874 A40A          MOV *SP(#5), T0 ; |835| 
    2612 000876 ED38          MOV dbl(*SP(#28)), XAR0
         000878 8F   
    2613 000879 EC78          AMAR *SP(#60), XAR1
         00087b 9E   
    2614              $C$DW$170       .dwtag  DW_TAG_TI_branch
    2615                      .dwattr $C$DW$170, DW_AT_low_pc(0x00)
    2616                      .dwattr $C$DW$170, DW_AT_name("_NAND_readECC")
    2617                      .dwattr $C$DW$170, DW_AT_TI_call
    2618 00087c 6C00          CALL #_NAND_readECC ; |835| 
         00087e 0000!
    2619                                                      ; call occurs [#_NAND_readECC] ; |835| 
    2620 000880 C468          MOV T0, *SP(#52) ; |835| 
    2621                      .dwpsn  file "../c5535_bsl_revc/ezdsp5535_v1/c55xx_csl/ccs_v4.0_examples/nand/CSL_NAND_DmaExample/csl
    2622 000882 2249          MOV T0, AR1
    2623 000884 0409          BCC $C$L67,AR1 == #0 ; |836| 
         000886 12   
    2624                                                      ; branchcc occurs ; |836| 
    2625                      .dwpsn  file "../c5535_bsl_revc/ezdsp5535_v1/c55xx_csl/ccs_v4.0_examples/nand/CSL_NAND_DmaExample/csl
    2626 000887 EC31          AMOV #$C$FSL41, XAR3 ; |838| 
TMS320C55x Assembler PC v4.4.1 Sat Sep 29 23:08:57 2018

Tools Copyright (c) 1996-2012 Texas Instruments Incorporated
csl_nand_dma_example.asm                                             PAGE   66

         000889 BE00 
         00088b 0326+
    2627 00088d EB00          MOV XAR3, dbl(*SP(#0))
         00088f B5   
    2628              $C$DW$171       .dwtag  DW_TAG_TI_branch
    2629                      .dwattr $C$DW$171, DW_AT_low_pc(0x00)
    2630                      .dwattr $C$DW$171, DW_AT_name("_printf")
    2631                      .dwattr $C$DW$171, DW_AT_TI_call
    2632 000890 6C00          CALL #_printf ; |838| 
         000892 0000!
    2633                                                      ; call occurs [#_printf] ; |838| 
    2634                      .dwpsn  file "../c5535_bsl_revc/ezdsp5535_v1/c55xx_csl/ccs_v4.0_examples/nand/CSL_NAND_DmaExample/csl
    2635 000894 A46A          MOV *SP(#53), T0 ; |839| 
    2636 000896 0600          B $C$L72  ; |839| 
         000898 7F   
    2637                                                      ; branch occurs ; |839| 
    2638 000899       $C$L67:    
    2639                      .dwpsn  file "../c5535_bsl_revc/ezdsp5535_v1/c55xx_csl/ccs_v4.0_examples/nand/CSL_NAND_DmaExample/csl
    2640 000899 ED38          MOV dbl(*SP(#28)), XAR0
         00089b 8F   
    2641 00089c A40A          MOV *SP(#5), T0 ; |843| 
    2642              $C$DW$172       .dwtag  DW_TAG_TI_branch
    2643                      .dwattr $C$DW$172, DW_AT_low_pc(0x00)
    2644                      .dwattr $C$DW$172, DW_AT_name("_NAND_disableHwECC")
    2645                      .dwattr $C$DW$172, DW_AT_TI_call
    2646 00089e 6C00          CALL #_NAND_disableHwECC ; |843| 
         0008a0 0000!
    2647                                                      ; call occurs [#_NAND_disableHwECC] ; |843| 
    2648 0008a2 C468          MOV T0, *SP(#52) ; |843| 
    2649                      .dwpsn  file "../c5535_bsl_revc/ezdsp5535_v1/c55xx_csl/ccs_v4.0_examples/nand/CSL_NAND_DmaExample/csl
    2650 0008a4 2249          MOV T0, AR1
    2651 0008a6 0409          BCC $C$L68,AR1 == #0 ; |844| 
         0008a8 12   
    2652                                                      ; branchcc occurs ; |844| 
    2653                      .dwpsn  file "../c5535_bsl_revc/ezdsp5535_v1/c55xx_csl/ccs_v4.0_examples/nand/CSL_NAND_DmaExample/csl
    2654 0008a9 EC31          AMOV #$C$FSL42, XAR3 ; |846| 
         0008ab BE00 
         0008ad 033E+
    2655 0008af EB00          MOV XAR3, dbl(*SP(#0))
         0008b1 B5   
    2656              $C$DW$173       .dwtag  DW_TAG_TI_branch
    2657                      .dwattr $C$DW$173, DW_AT_low_pc(0x00)
    2658                      .dwattr $C$DW$173, DW_AT_name("_printf")
    2659                      .dwattr $C$DW$173, DW_AT_TI_call
    2660 0008b2 6C00          CALL #_printf ; |846| 
         0008b4 0000!
    2661                                                      ; call occurs [#_printf] ; |846| 
    2662                      .dwpsn  file "../c5535_bsl_revc/ezdsp5535_v1/c55xx_csl/ccs_v4.0_examples/nand/CSL_NAND_DmaExample/csl
    2663 0008b6 A46A          MOV *SP(#53), T0 ; |847| 
    2664 0008b8 0600          B $C$L72  ; |847| 
         0008ba 5D   
    2665                                                      ; branch occurs ; |847| 
    2666 0008bb       $C$L68:    
    2667                      .dwpsn  file "../c5535_bsl_revc/ezdsp5535_v1/c55xx_csl/ccs_v4.0_examples/nand/CSL_NAND_DmaExample/csl
    2668 0008bb E670          MOV #0, *SP(#56) ; |873| 
TMS320C55x Assembler PC v4.4.1 Sat Sep 29 23:08:57 2018

Tools Copyright (c) 1996-2012 Texas Instruments Incorporated
csl_nand_dma_example.asm                                             PAGE   67

         0008bd 00   
    2669                      .dwpsn  file "../c5535_bsl_revc/ezdsp5535_v1/c55xx_csl/ccs_v4.0_examples/nand/CSL_NAND_DmaExample/csl
    2670 0008be A931          MOV *(#_gNandPageSize), AR1 ; |873| 
         0008c0 000B 
         0008c2 6E-  
    2671              
    2672 0008c3 AA70          MOV *SP(#56), AR2 ; |873| 
    2673 0008c5 5191  ||      SFTL AR1, #-1 ; |873| 
    2674              
    2675 0008c7 12A8          CMPU AR2 >= AR1, TC1 ; |873| 
         0008c9 94   
    2676 0008ca 0464          BCC $C$L71,TC1 ; |873| 
         0008cc 3C   
    2677                                                      ; branchcc occurs ; |873| 
    2678 0008cd       $C$L69:    
    2679 0008cd       $C$DW$L$_CSL_nandDmaTest$101$B:
    2680                      .dwpsn  file "../c5535_bsl_revc/ezdsp5535_v1/c55xx_csl/ccs_v4.0_examples/nand/CSL_NAND_DmaExample/csl
    2681 0008cd A470          MOV *SP(#56), T0 ; |875| 
    2682 0008cf EC31          AMOV #_gnandDmaReadBuf, XAR3 ; |875| 
         0008d1 BE00 
         0008d3 0000-
    2683 0008d5 A96B          MOV *AR3(T0), AR1 ; |875| 
    2684 0008d7 EC31          AMOV #_gnandDmaWriteBuf, XAR3 ; |875| 
         0008d9 BE00 
         0008db 0400-
    2685 0008dd AA6B          MOV *AR3(T0), AR2 ; |875| 
    2686 0008df 12A0          CMPU AR2 == AR1, TC1 ; |875| 
         0008e1 94   
    2687 0008e2 0464          BCC $C$L70,TC1 ; |875| 
         0008e4 11   
    2688                                                      ; branchcc occurs ; |875| 
    2689 0008e5       $C$DW$L$_CSL_nandDmaTest$101$E:
    2690                      .dwpsn  file "../c5535_bsl_revc/ezdsp5535_v1/c55xx_csl/ccs_v4.0_examples/nand/CSL_NAND_DmaExample/csl
    2691 0008e5 EC31          AMOV #$C$FSL45, XAR3 ; |877| 
         0008e7 BE00 
         0008e9 0394+
    2692 0008eb EB00          MOV XAR3, dbl(*SP(#0))
         0008ed B5   
    2693              $C$DW$174       .dwtag  DW_TAG_TI_branch
    2694                      .dwattr $C$DW$174, DW_AT_low_pc(0x00)
    2695                      .dwattr $C$DW$174, DW_AT_name("_printf")
    2696                      .dwattr $C$DW$174, DW_AT_TI_call
    2697 0008ee 6C00          CALL #_printf ; |877| 
         0008f0 0000!
    2698                                                      ; call occurs [#_printf] ; |877| 
    2699                      .dwpsn  file "../c5535_bsl_revc/ezdsp5535_v1/c55xx_csl/ccs_v4.0_examples/nand/CSL_NAND_DmaExample/csl
    2700 0008f2 A46A          MOV *SP(#53), T0 ; |878| 
    2701 0008f4 4A22          B $C$L72  ; |878| 
    2702                                                      ; branch occurs ; |878| 
    2703 0008f6       $C$L70:    
    2704 0008f6       $C$DW$L$_CSL_nandDmaTest$103$B:
    2705                      .dwpsn  file "../c5535_bsl_revc/ezdsp5535_v1/c55xx_csl/ccs_v4.0_examples/nand/CSL_NAND_DmaExample/csl
    2706 0008f6 F770          ADD #1, *SP(#56) ; |873| 
         0008f8 0001 
    2707                      .dwpsn  file "../c5535_bsl_revc/ezdsp5535_v1/c55xx_csl/ccs_v4.0_examples/nand/CSL_NAND_DmaExample/csl
TMS320C55x Assembler PC v4.4.1 Sat Sep 29 23:08:57 2018

Tools Copyright (c) 1996-2012 Texas Instruments Incorporated
csl_nand_dma_example.asm                                             PAGE   68

    2708 0008fa A931          MOV *(#_gNandPageSize), AR1 ; |873| 
         0008fc 000B 
         0008fe 6E-  
    2709              
    2710 000901 5191          SFTL AR1, #-1 ; |873| 
    2711 0008ff AA70  ||      MOV *SP(#56), AR2 ; |873| 
    2712              
    2713 000903 12A4          CMPU AR2 < AR1, TC1 ; |873| 
         000905 94   
    2714 000906 0464          BCC $C$L69,TC1 ; |873| 
         000908 C4   
    2715                                                      ; branchcc occurs ; |873| 
    2716 000909       $C$DW$L$_CSL_nandDmaTest$103$E:
    2717 000909       $C$L71:    
    2718                      .dwpsn  file "../c5535_bsl_revc/ezdsp5535_v1/c55xx_csl/ccs_v4.0_examples/nand/CSL_NAND_DmaExample/csl
    2719 000909 EC31          AMOV #$C$FSL46, XAR3 ; |882| 
         00090b BE00 
         00090d 03BE+
    2720 00090f EB00          MOV XAR3, dbl(*SP(#0))
         000911 B5   
    2721              $C$DW$175       .dwtag  DW_TAG_TI_branch
    2722                      .dwattr $C$DW$175, DW_AT_low_pc(0x00)
    2723                      .dwattr $C$DW$175, DW_AT_name("_printf")
    2724                      .dwattr $C$DW$175, DW_AT_TI_call
    2725 000912 6C00          CALL #_printf ; |882| 
         000914 0000!
    2726                                                      ; call occurs [#_printf] ; |882| 
    2727                      .dwpsn  file "../c5535_bsl_revc/ezdsp5535_v1/c55xx_csl/ccs_v4.0_examples/nand/CSL_NAND_DmaExample/csl
    2728 000916 3C04          MOV #0, T0
    2729 000918       $C$L72:    
    2730                      .dwpsn  file "../c5535_bsl_revc/ezdsp5535_v1/c55xx_csl/ccs_v4.0_examples/nand/CSL_NAND_DmaExample/csl
    2731 000918 4E45          AADD #69, SP
    2732                      .dwcfi  cfa_offset, 1
    2733              $C$DW$176       .dwtag  DW_TAG_TI_branch
    2734                      .dwattr $C$DW$176, DW_AT_low_pc(0x00)
    2735                      .dwattr $C$DW$176, DW_AT_TI_return
    2736 00091a 4804          RET
    2737                                                      ; return occurs
    2738              
    2739              $C$DW$177       .dwtag  DW_TAG_TI_loop
    2740                      .dwattr $C$DW$177, DW_AT_name("F:\eZdsp_DBG\tmp1\c55x-sim2\foo\Debug\csl_nand_dma_example.asm:$C$L69:
    2741                      .dwattr $C$DW$177, DW_AT_TI_begin_file("../c5535_bsl_revc/ezdsp5535_v1/c55xx_csl/ccs_v4.0_examples/na
    2742                      .dwattr $C$DW$177, DW_AT_TI_begin_line(0x369)
    2743                      .dwattr $C$DW$177, DW_AT_TI_end_line(0x370)
    2744              $C$DW$178       .dwtag  DW_TAG_TI_loop_range
    2745                      .dwattr $C$DW$178, DW_AT_low_pc($C$DW$L$_CSL_nandDmaTest$101$B)
    2746                      .dwattr $C$DW$178, DW_AT_high_pc($C$DW$L$_CSL_nandDmaTest$101$E)
    2747              $C$DW$179       .dwtag  DW_TAG_TI_loop_range
    2748                      .dwattr $C$DW$179, DW_AT_low_pc($C$DW$L$_CSL_nandDmaTest$103$B)
    2749                      .dwattr $C$DW$179, DW_AT_high_pc($C$DW$L$_CSL_nandDmaTest$103$E)
    2750                      .dwendtag $C$DW$177
    2751              
    2752              
    2753              $C$DW$180       .dwtag  DW_TAG_TI_loop
    2754                      .dwattr $C$DW$180, DW_AT_name("F:\eZdsp_DBG\tmp1\c55x-sim2\foo\Debug\csl_nand_dma_example.asm:$C$L65:
TMS320C55x Assembler PC v4.4.1 Sat Sep 29 23:08:57 2018

Tools Copyright (c) 1996-2012 Texas Instruments Incorporated
csl_nand_dma_example.asm                                             PAGE   69

    2755                      .dwattr $C$DW$180, DW_AT_TI_begin_file("../c5535_bsl_revc/ezdsp5535_v1/c55xx_csl/ccs_v4.0_examples/na
    2756                      .dwattr $C$DW$180, DW_AT_TI_begin_line(0x33b)
    2757                      .dwattr $C$DW$180, DW_AT_TI_end_line(0x33b)
    2758              $C$DW$181       .dwtag  DW_TAG_TI_loop_range
    2759                      .dwattr $C$DW$181, DW_AT_low_pc($C$DW$L$_CSL_nandDmaTest$95$B)
    2760                      .dwattr $C$DW$181, DW_AT_high_pc($C$DW$L$_CSL_nandDmaTest$95$E)
    2761                      .dwendtag $C$DW$180
    2762              
    2763              
    2764              $C$DW$182       .dwtag  DW_TAG_TI_loop
    2765                      .dwattr $C$DW$182, DW_AT_name("F:\eZdsp_DBG\tmp1\c55x-sim2\foo\Debug\csl_nand_dma_example.asm:$C$L58:
    2766                      .dwattr $C$DW$182, DW_AT_TI_begin_file("../c5535_bsl_revc/ezdsp5535_v1/c55xx_csl/ccs_v4.0_examples/na
    2767                      .dwattr $C$DW$182, DW_AT_TI_begin_line(0x308)
    2768                      .dwattr $C$DW$182, DW_AT_TI_end_line(0x311)
    2769              $C$DW$183       .dwtag  DW_TAG_TI_loop_range
    2770                      .dwattr $C$DW$183, DW_AT_low_pc($C$DW$L$_CSL_nandDmaTest$82$B)
    2771                      .dwattr $C$DW$183, DW_AT_high_pc($C$DW$L$_CSL_nandDmaTest$82$E)
    2772              $C$DW$184       .dwtag  DW_TAG_TI_loop_range
    2773                      .dwattr $C$DW$184, DW_AT_low_pc($C$DW$L$_CSL_nandDmaTest$84$B)
    2774                      .dwattr $C$DW$184, DW_AT_high_pc($C$DW$L$_CSL_nandDmaTest$84$E)
    2775                      .dwendtag $C$DW$182
    2776              
    2777              
    2778              $C$DW$185       .dwtag  DW_TAG_TI_loop
    2779                      .dwattr $C$DW$185, DW_AT_name("F:\eZdsp_DBG\tmp1\c55x-sim2\foo\Debug\csl_nand_dma_example.asm:$C$L55:
    2780                      .dwattr $C$DW$185, DW_AT_TI_begin_file("../c5535_bsl_revc/ezdsp5535_v1/c55xx_csl/ccs_v4.0_examples/na
    2781                      .dwattr $C$DW$185, DW_AT_TI_begin_line(0x2fb)
    2782                      .dwattr $C$DW$185, DW_AT_TI_end_line(0x304)
    2783              $C$DW$186       .dwtag  DW_TAG_TI_loop_range
    2784                      .dwattr $C$DW$186, DW_AT_low_pc($C$DW$L$_CSL_nandDmaTest$78$B)
    2785                      .dwattr $C$DW$186, DW_AT_high_pc($C$DW$L$_CSL_nandDmaTest$78$E)
    2786              $C$DW$187       .dwtag  DW_TAG_TI_loop_range
    2787                      .dwattr $C$DW$187, DW_AT_low_pc($C$DW$L$_CSL_nandDmaTest$80$B)
    2788                      .dwattr $C$DW$187, DW_AT_high_pc($C$DW$L$_CSL_nandDmaTest$80$E)
    2789                      .dwendtag $C$DW$185
    2790              
    2791              
    2792              $C$DW$188       .dwtag  DW_TAG_TI_loop
    2793                      .dwattr $C$DW$188, DW_AT_name("F:\eZdsp_DBG\tmp1\c55x-sim2\foo\Debug\csl_nand_dma_example.asm:$C$L47:
    2794                      .dwattr $C$DW$188, DW_AT_TI_begin_file("../c5535_bsl_revc/ezdsp5535_v1/c55xx_csl/ccs_v4.0_examples/na
    2795                      .dwattr $C$DW$188, DW_AT_TI_begin_line(0x2c2)
    2796                      .dwattr $C$DW$188, DW_AT_TI_end_line(0x2c2)
    2797              $C$DW$189       .dwtag  DW_TAG_TI_loop_range
    2798                      .dwattr $C$DW$189, DW_AT_low_pc($C$DW$L$_CSL_nandDmaTest$64$B)
    2799                      .dwattr $C$DW$189, DW_AT_high_pc($C$DW$L$_CSL_nandDmaTest$64$E)
    2800                      .dwendtag $C$DW$188
    2801              
    2802              
    2803              $C$DW$190       .dwtag  DW_TAG_TI_loop
    2804                      .dwattr $C$DW$190, DW_AT_name("F:\eZdsp_DBG\tmp1\c55x-sim2\foo\Debug\csl_nand_dma_example.asm:$C$L42:
    2805                      .dwattr $C$DW$190, DW_AT_TI_begin_file("../c5535_bsl_revc/ezdsp5535_v1/c55xx_csl/ccs_v4.0_examples/na
    2806                      .dwattr $C$DW$190, DW_AT_TI_begin_line(0x2a3)
    2807                      .dwattr $C$DW$190, DW_AT_TI_end_line(0x2ac)
    2808              $C$DW$191       .dwtag  DW_TAG_TI_loop_range
    2809                      .dwattr $C$DW$191, DW_AT_low_pc($C$DW$L$_CSL_nandDmaTest$56$B)
TMS320C55x Assembler PC v4.4.1 Sat Sep 29 23:08:57 2018

Tools Copyright (c) 1996-2012 Texas Instruments Incorporated
csl_nand_dma_example.asm                                             PAGE   70

    2810                      .dwattr $C$DW$191, DW_AT_high_pc($C$DW$L$_CSL_nandDmaTest$56$E)
    2811              $C$DW$192       .dwtag  DW_TAG_TI_loop_range
    2812                      .dwattr $C$DW$192, DW_AT_low_pc($C$DW$L$_CSL_nandDmaTest$58$B)
    2813                      .dwattr $C$DW$192, DW_AT_high_pc($C$DW$L$_CSL_nandDmaTest$58$E)
    2814                      .dwendtag $C$DW$190
    2815              
    2816              
    2817              $C$DW$193       .dwtag  DW_TAG_TI_loop
    2818                      .dwattr $C$DW$193, DW_AT_name("F:\eZdsp_DBG\tmp1\c55x-sim2\foo\Debug\csl_nand_dma_example.asm:$C$L39:
    2819                      .dwattr $C$DW$193, DW_AT_TI_begin_file("../c5535_bsl_revc/ezdsp5535_v1/c55xx_csl/ccs_v4.0_examples/na
    2820                      .dwattr $C$DW$193, DW_AT_TI_begin_line(0x296)
    2821                      .dwattr $C$DW$193, DW_AT_TI_end_line(0x29f)
    2822              $C$DW$194       .dwtag  DW_TAG_TI_loop_range
    2823                      .dwattr $C$DW$194, DW_AT_low_pc($C$DW$L$_CSL_nandDmaTest$52$B)
    2824                      .dwattr $C$DW$194, DW_AT_high_pc($C$DW$L$_CSL_nandDmaTest$52$E)
    2825              $C$DW$195       .dwtag  DW_TAG_TI_loop_range
    2826                      .dwattr $C$DW$195, DW_AT_low_pc($C$DW$L$_CSL_nandDmaTest$54$B)
    2827                      .dwattr $C$DW$195, DW_AT_high_pc($C$DW$L$_CSL_nandDmaTest$54$E)
    2828                      .dwendtag $C$DW$193
    2829              
    2830              
    2831              $C$DW$196       .dwtag  DW_TAG_TI_loop
    2832                      .dwattr $C$DW$196, DW_AT_name("F:\eZdsp_DBG\tmp1\c55x-sim2\foo\Debug\csl_nand_dma_example.asm:$C$L32:
    2833                      .dwattr $C$DW$196, DW_AT_TI_begin_file("../c5535_bsl_revc/ezdsp5535_v1/c55xx_csl/ccs_v4.0_examples/na
    2834                      .dwattr $C$DW$196, DW_AT_TI_begin_line(0x269)
    2835                      .dwattr $C$DW$196, DW_AT_TI_end_line(0x272)
    2836              $C$DW$197       .dwtag  DW_TAG_TI_loop_range
    2837                      .dwattr $C$DW$197, DW_AT_low_pc($C$DW$L$_CSL_nandDmaTest$40$B)
    2838                      .dwattr $C$DW$197, DW_AT_high_pc($C$DW$L$_CSL_nandDmaTest$40$E)
    2839              $C$DW$198       .dwtag  DW_TAG_TI_loop_range
    2840                      .dwattr $C$DW$198, DW_AT_low_pc($C$DW$L$_CSL_nandDmaTest$42$B)
    2841                      .dwattr $C$DW$198, DW_AT_high_pc($C$DW$L$_CSL_nandDmaTest$42$E)
    2842                      .dwendtag $C$DW$196
    2843              
    2844              
    2845              $C$DW$199       .dwtag  DW_TAG_TI_loop
    2846                      .dwattr $C$DW$199, DW_AT_name("F:\eZdsp_DBG\tmp1\c55x-sim2\foo\Debug\csl_nand_dma_example.asm:$C$L11:
    2847                      .dwattr $C$DW$199, DW_AT_TI_begin_file("../c5535_bsl_revc/ezdsp5535_v1/c55xx_csl/ccs_v4.0_examples/na
    2848                      .dwattr $C$DW$199, DW_AT_TI_begin_line(0x17e)
    2849                      .dwattr $C$DW$199, DW_AT_TI_end_line(0x182)
    2850              $C$DW$200       .dwtag  DW_TAG_TI_loop_range
    2851                      .dwattr $C$DW$200, DW_AT_low_pc($C$DW$L$_CSL_nandDmaTest$2$B)
    2852                      .dwattr $C$DW$200, DW_AT_high_pc($C$DW$L$_CSL_nandDmaTest$2$E)
    2853                      .dwendtag $C$DW$199
    2854              
    2855                      .dwattr $C$DW$76, DW_AT_TI_end_file("../c5535_bsl_revc/ezdsp5535_v1/c55xx_csl/ccs_v4.0_examples/nand/
    2856                      .dwattr $C$DW$76, DW_AT_TI_end_line(0x375)
    2857                      .dwattr $C$DW$76, DW_AT_TI_end_column(0x01)
    2858                      .dwendentry
    2859                      .dwendtag $C$DW$76
    2860              
    2861 00091c               .sect   ".text"
    2862                      .align 4
    2863                      .global _CSL_configDmaForNand
    2864              
TMS320C55x Assembler PC v4.4.1 Sat Sep 29 23:08:57 2018

Tools Copyright (c) 1996-2012 Texas Instruments Incorporated
csl_nand_dma_example.asm                                             PAGE   71

    2865              $C$DW$201       .dwtag  DW_TAG_subprogram, DW_AT_name("CSL_configDmaForNand")
    2866                      .dwattr $C$DW$201, DW_AT_low_pc(_CSL_configDmaForNand)
    2867                      .dwattr $C$DW$201, DW_AT_high_pc(0x00)
    2868                      .dwattr $C$DW$201, DW_AT_TI_symbol_name("_CSL_configDmaForNand")
    2869                      .dwattr $C$DW$201, DW_AT_external
    2870                      .dwattr $C$DW$201, DW_AT_type(*$C$DW$T$105)
    2871                      .dwattr $C$DW$201, DW_AT_TI_begin_file("../c5535_bsl_revc/ezdsp5535_v1/c55xx_csl/ccs_v4.0_examples/na
    2872                      .dwattr $C$DW$201, DW_AT_TI_begin_line(0x37e)
    2873                      .dwattr $C$DW$201, DW_AT_TI_begin_column(0x10)
    2874                      .dwattr $C$DW$201, DW_AT_TI_max_frame_size(0x0a)
    2875                      .dwpsn  file "../c5535_bsl_revc/ezdsp5535_v1/c55xx_csl/ccs_v4.0_examples/nand/CSL_NAND_DmaExample/csl
    2876              
    2877                      .dwfde $C$DW$CIE, _CSL_configDmaForNand
    2878              $C$DW$202       .dwtag  DW_TAG_formal_parameter, DW_AT_name("dmaChanObj")
    2879                      .dwattr $C$DW$202, DW_AT_TI_symbol_name("_dmaChanObj")
    2880                      .dwattr $C$DW$202, DW_AT_type(*$C$DW$T$104)
    2881                      .dwattr $C$DW$202, DW_AT_location[DW_OP_reg17]
    2882              $C$DW$203       .dwtag  DW_TAG_formal_parameter, DW_AT_name("chanNum")
    2883                      .dwattr $C$DW$203, DW_AT_TI_symbol_name("_chanNum")
    2884                      .dwattr $C$DW$203, DW_AT_type(*$C$DW$T$38)
    2885                      .dwattr $C$DW$203, DW_AT_location[DW_OP_reg12]
    2886              ;*******************************************************************************
    2887              ;* FUNCTION NAME: CSL_configDmaForNand                                         *
    2888              ;*                                                                             *
    2889              ;*   Function Uses Regs : AC0,AC0,T0,AR0,XAR0,AR1,XAR1,AR3,XAR3,SP,M40,SATA,   *
    2890              ;*                        SATD,RDM,FRCT,SMUL                                   *
    2891              ;*   Stack Frame        : Compact (No Frame Pointer, w/ debug)                 *
    2892              ;*   Total Frame Size   : 10 words                                             *
    2893              ;*                        (1 return address/alignment)                         *
    2894              ;*                        (2 function parameters)                              *
    2895              ;*                        (7 local values)                                     *
    2896              ;*   Min System Stack   : 1 word                                               *
    2897              ;*******************************************************************************
    2898 00091c       _CSL_configDmaForNand:
    2899                      .dwcfi  cfa_offset, 1
    2900                      .dwcfi  save_reg_to_mem, 91, -1
    2901 00091c 4EF7          AADD #-9, SP
    2902                      .dwcfi  cfa_offset, 10
    2903              $C$DW$204       .dwtag  DW_TAG_variable, DW_AT_name("dmaChanObj")
    2904                      .dwattr $C$DW$204, DW_AT_TI_symbol_name("_dmaChanObj")
    2905                      .dwattr $C$DW$204, DW_AT_type(*$C$DW$T$104)
    2906                      .dwattr $C$DW$204, DW_AT_location[DW_OP_bregx 0x24 2]
    2907              $C$DW$205       .dwtag  DW_TAG_variable, DW_AT_name("chanNum")
    2908                      .dwattr $C$DW$205, DW_AT_TI_symbol_name("_chanNum")
    2909                      .dwattr $C$DW$205, DW_AT_type(*$C$DW$T$38)
    2910                      .dwattr $C$DW$205, DW_AT_location[DW_OP_bregx 0x24 4]
    2911              $C$DW$206       .dwtag  DW_TAG_variable, DW_AT_name("dmaHandle")
    2912                      .dwattr $C$DW$206, DW_AT_TI_symbol_name("_dmaHandle")
    2913                      .dwattr $C$DW$206, DW_AT_type(*$C$DW$T$105)
    2914                      .dwattr $C$DW$206, DW_AT_location[DW_OP_bregx 0x24 6]
    2915              $C$DW$207       .dwtag  DW_TAG_variable, DW_AT_name("status")
    2916                      .dwattr $C$DW$207, DW_AT_TI_symbol_name("_status")
    2917                      .dwattr $C$DW$207, DW_AT_type(*$C$DW$T$107)
    2918                      .dwattr $C$DW$207, DW_AT_location[DW_OP_bregx 0x24 8]
    2919 00091e C408          MOV T0, *SP(#4) ; |896| 
TMS320C55x Assembler PC v4.4.1 Sat Sep 29 23:08:57 2018

Tools Copyright (c) 1996-2012 Texas Instruments Incorporated
csl_nand_dma_example.asm                                             PAGE   72

    2920 000920 EB04          MOV XAR0, dbl(*SP(#2))
         000922 85   
    2921                      .dwpsn  file "../c5535_bsl_revc/ezdsp5535_v1/c55xx_csl/ccs_v4.0_examples/nand/CSL_NAND_DmaExample/csl
    2922 000923 3C00          MOV #0, AC0 ; |900| 
    2923 000925 EB0C          MOV AC0, dbl(*SP(#6))
         000927 08   
    2924                      .dwpsn  file "../c5535_bsl_revc/ezdsp5535_v1/c55xx_csl/ccs_v4.0_examples/nand/CSL_NAND_DmaExample/csl
    2925 000928 EC10          AMAR *SP(#8), XAR1
         00092a 9E   
    2926 00092b A408          MOV *SP(#4), T0 ; |903| 
    2927 00092d ED04          MOV dbl(*SP(#2)), XAR0
         00092f 8F   
    2928              $C$DW$208       .dwtag  DW_TAG_TI_branch
    2929                      .dwattr $C$DW$208, DW_AT_low_pc(0x00)
    2930                      .dwattr $C$DW$208, DW_AT_name("_DMA_open")
    2931                      .dwattr $C$DW$208, DW_AT_TI_call
    2932 000930 6C00          CALL #_DMA_open ; |903| 
         000932 0000!
    2933                                                      ; call occurs [#_DMA_open] ; |903| 
    2934 000934 EB0C          MOV XAR0, dbl(*SP(#6))
         000936 85   
    2935                      .dwpsn  file "../c5535_bsl_revc/ezdsp5535_v1/c55xx_csl/ccs_v4.0_examples/nand/CSL_NAND_DmaExample/csl
    2936 000937 ED0C          MOV dbl(*SP(#6)), XAR3
         000939 BF   
    2937 00093a 90B0          MOV XAR3, AC0
    2938 00093c 0410          BCC $C$L73,AC0 != #0 ; |904| 
         00093e 12   
    2939                                                      ; branchcc occurs ; |904| 
    2940                      .dwpsn  file "../c5535_bsl_revc/ezdsp5535_v1/c55xx_csl/ccs_v4.0_examples/nand/CSL_NAND_DmaExample/csl
    2941 00093f EC31          AMOV #$C$FSL47, XAR3 ; |906| 
         000941 BE00 
         000943 03E0+
    2942 000945 EB00          MOV XAR3, dbl(*SP(#0))
         000947 B5   
    2943              $C$DW$209       .dwtag  DW_TAG_TI_branch
    2944                      .dwattr $C$DW$209, DW_AT_low_pc(0x00)
    2945                      .dwattr $C$DW$209, DW_AT_name("_printf")
    2946                      .dwattr $C$DW$209, DW_AT_TI_call
    2947 000948 6C00          CALL #_printf ; |906| 
         00094a 0000!
    2948                                                      ; call occurs [#_printf] ; |906| 
    2949                      .dwpsn  file "../c5535_bsl_revc/ezdsp5535_v1/c55xx_csl/ccs_v4.0_examples/nand/CSL_NAND_DmaExample/csl
    2950 00094c ED0C          MOV dbl(*SP(#6)), XAR0
         00094e 8F   
    2951 00094f 4A26          B $C$L75  ; |907| 
    2952                                                      ; branch occurs ; |907| 
    2953 000951       $C$L73:    
    2954                      .dwpsn  file "../c5535_bsl_revc/ezdsp5535_v1/c55xx_csl/ccs_v4.0_examples/nand/CSL_NAND_DmaExample/csl
    2955 000951 EC31          AMOV #_dmaConfig, XAR1 ; |911| 
         000953 9E00 
         000955 0804-
    2956              $C$DW$210       .dwtag  DW_TAG_TI_branch
    2957                      .dwattr $C$DW$210, DW_AT_low_pc(0x00)
    2958                      .dwattr $C$DW$210, DW_AT_name("_DMA_config")
    2959                      .dwattr $C$DW$210, DW_AT_TI_call
TMS320C55x Assembler PC v4.4.1 Sat Sep 29 23:08:57 2018

Tools Copyright (c) 1996-2012 Texas Instruments Incorporated
csl_nand_dma_example.asm                                             PAGE   73

    2960 000957 6C00          CALL #_DMA_config ; |911| 
         000959 0000!
    2961                                                      ; call occurs [#_DMA_config] ; |911| 
    2962 00095b C410          MOV T0, *SP(#8) ; |911| 
    2963                      .dwpsn  file "../c5535_bsl_revc/ezdsp5535_v1/c55xx_csl/ccs_v4.0_examples/nand/CSL_NAND_DmaExample/csl
    2964 00095d 2249          MOV T0, AR1
    2965 00095f 0409          BCC $C$L74,AR1 == #0 ; |912| 
         000961 12   
    2966                                                      ; branchcc occurs ; |912| 
    2967                      .dwpsn  file "../c5535_bsl_revc/ezdsp5535_v1/c55xx_csl/ccs_v4.0_examples/nand/CSL_NAND_DmaExample/csl
    2968 000962 EC31          AMOV #$C$FSL48, XAR3 ; |914| 
         000964 BE00 
         000966 03F2+
    2969 000968 EB00          MOV XAR3, dbl(*SP(#0))
         00096a B5   
    2970              $C$DW$211       .dwtag  DW_TAG_TI_branch
    2971                      .dwattr $C$DW$211, DW_AT_low_pc(0x00)
    2972                      .dwattr $C$DW$211, DW_AT_name("_printf")
    2973                      .dwattr $C$DW$211, DW_AT_TI_call
    2974 00096b 6C00          CALL #_printf ; |914| 
         00096d 0000!
    2975                                                      ; call occurs [#_printf] ; |914| 
    2976                      .dwpsn  file "../c5535_bsl_revc/ezdsp5535_v1/c55xx_csl/ccs_v4.0_examples/nand/CSL_NAND_DmaExample/csl
    2977 00096f 3C00          MOV #0, AC0 ; |915| 
    2978 000971 EB0C          MOV AC0, dbl(*SP(#6))
         000973 08   
    2979 000974       $C$L74:    
    2980                      .dwpsn  file "../c5535_bsl_revc/ezdsp5535_v1/c55xx_csl/ccs_v4.0_examples/nand/CSL_NAND_DmaExample/csl
    2981 000974 ED0C          MOV dbl(*SP(#6)), XAR0
         000976 8F   
    2982 000977       $C$L75:    
    2983                      .dwpsn  file "../c5535_bsl_revc/ezdsp5535_v1/c55xx_csl/ccs_v4.0_examples/nand/CSL_NAND_DmaExample/csl
    2984 000977 4E09          AADD #9, SP
    2985                      .dwcfi  cfa_offset, 1
    2986              $C$DW$212       .dwtag  DW_TAG_TI_branch
    2987                      .dwattr $C$DW$212, DW_AT_low_pc(0x00)
    2988                      .dwattr $C$DW$212, DW_AT_TI_return
    2989 000979 4804          RET
    2990                                                      ; return occurs
    2991                      .dwattr $C$DW$201, DW_AT_TI_end_file("../c5535_bsl_revc/ezdsp5535_v1/c55xx_csl/ccs_v4.0_examples/nand
    2992                      .dwattr $C$DW$201, DW_AT_TI_end_line(0x397)
    2993                      .dwattr $C$DW$201, DW_AT_TI_end_column(0x01)
    2994                      .dwendentry
    2995                      .dwendtag $C$DW$201
    2996              
    2997 00097b               .sect   ".text"
    2998                      .align 4
    2999                      .global _CSL_checkNandType
    3000              
    3001              $C$DW$213       .dwtag  DW_TAG_subprogram, DW_AT_name("CSL_checkNandType")
    3002                      .dwattr $C$DW$213, DW_AT_low_pc(_CSL_checkNandType)
    3003                      .dwattr $C$DW$213, DW_AT_high_pc(0x00)
    3004                      .dwattr $C$DW$213, DW_AT_TI_symbol_name("_CSL_checkNandType")
    3005                      .dwattr $C$DW$213, DW_AT_external
    3006                      .dwattr $C$DW$213, DW_AT_type(*$C$DW$T$107)
TMS320C55x Assembler PC v4.4.1 Sat Sep 29 23:08:57 2018

Tools Copyright (c) 1996-2012 Texas Instruments Incorporated
csl_nand_dma_example.asm                                             PAGE   74

    3007                      .dwattr $C$DW$213, DW_AT_TI_begin_file("../c5535_bsl_revc/ezdsp5535_v1/c55xx_csl/ccs_v4.0_examples/na
    3008                      .dwattr $C$DW$213, DW_AT_TI_begin_line(0x3a7)
    3009                      .dwattr $C$DW$213, DW_AT_TI_begin_column(0x0c)
    3010                      .dwattr $C$DW$213, DW_AT_TI_max_frame_size(0x0a)
    3011                      .dwpsn  file "../c5535_bsl_revc/ezdsp5535_v1/c55xx_csl/ccs_v4.0_examples/nand/CSL_NAND_DmaExample/csl
    3012              
    3013                      .dwfde $C$DW$CIE, _CSL_checkNandType
    3014              $C$DW$214       .dwtag  DW_TAG_formal_parameter, DW_AT_name("hNand")
    3015                      .dwattr $C$DW$214, DW_AT_TI_symbol_name("_hNand")
    3016                      .dwattr $C$DW$214, DW_AT_type(*$C$DW$T$123)
    3017                      .dwattr $C$DW$214, DW_AT_location[DW_OP_reg17]
    3018              ;*******************************************************************************
    3019              ;* FUNCTION NAME: CSL_checkNandType                                            *
    3020              ;*                                                                             *
    3021              ;*   Function Uses Regs : AC0,AC0,AC1,AC1,T0,T1,AR0,XAR0,AR1,AR3,XAR3,SP,CARRY,*
    3022              ;*                        TC1,M40,SATA,SATD,RDM,FRCT,SMUL                      *
    3023              ;*   Stack Frame        : Compact (No Frame Pointer, w/ debug)                 *
    3024              ;*   Total Frame Size   : 10 words                                             *
    3025              ;*                        (1 return address/alignment)                         *
    3026              ;*                        (2 function parameters)                              *
    3027              ;*                        (7 local values)                                     *
    3028              ;*   Min System Stack   : 1 word                                               *
    3029              ;*******************************************************************************
    3030 00097c       _CSL_checkNandType:
    3031                      .dwcfi  cfa_offset, 1
    3032                      .dwcfi  save_reg_to_mem, 91, -1
    3033 00097c 4EF7          AADD #-9, SP
    3034                      .dwcfi  cfa_offset, 10
    3035              $C$DW$215       .dwtag  DW_TAG_variable, DW_AT_name("hNand")
    3036                      .dwattr $C$DW$215, DW_AT_TI_symbol_name("_hNand")
    3037                      .dwattr $C$DW$215, DW_AT_type(*$C$DW$T$123)
    3038                      .dwattr $C$DW$215, DW_AT_location[DW_OP_bregx 0x24 2]
    3039              $C$DW$216       .dwtag  DW_TAG_variable, DW_AT_name("devId")
    3040                      .dwattr $C$DW$216, DW_AT_TI_symbol_name("_devId")
    3041                      .dwattr $C$DW$216, DW_AT_type(*$C$DW$T$59)
    3042                      .dwattr $C$DW$216, DW_AT_location[DW_OP_bregx 0x24 4]
    3043              $C$DW$217       .dwtag  DW_TAG_variable, DW_AT_name("totalPages")
    3044                      .dwattr $C$DW$217, DW_AT_TI_symbol_name("_totalPages")
    3045                      .dwattr $C$DW$217, DW_AT_type(*$C$DW$T$59)
    3046                      .dwattr $C$DW$217, DW_AT_location[DW_OP_bregx 0x24 6]
    3047              $C$DW$218       .dwtag  DW_TAG_variable, DW_AT_name("deviceCode")
    3048                      .dwattr $C$DW$218, DW_AT_TI_symbol_name("_deviceCode")
    3049                      .dwattr $C$DW$218, DW_AT_type(*$C$DW$T$19)
    3050                      .dwattr $C$DW$218, DW_AT_location[DW_OP_bregx 0x24 8]
    3051 00097e EB04          MOV XAR0, dbl(*SP(#2))
         000980 85   
    3052                      .dwpsn  file "../c5535_bsl_revc/ezdsp5535_v1/c55xx_csl/ccs_v4.0_examples/nand/CSL_NAND_DmaExample/csl
    3053              $C$DW$219       .dwtag  DW_TAG_TI_branch
    3054                      .dwattr $C$DW$219, DW_AT_low_pc(0x00)
    3055                      .dwattr $C$DW$219, DW_AT_name("_CSL_nandReadId")
    3056                      .dwattr $C$DW$219, DW_AT_TI_call
    3057 000981 0801          CALL #_CSL_nandReadId ; |942| 
         000983 4C   
    3058                                                      ; call occurs [#_CSL_nandReadId] ; |942| 
    3059 000984 EB08          MOV AC0, dbl(*SP(#4)) ; |942| 
TMS320C55x Assembler PC v4.4.1 Sat Sep 29 23:08:57 2018

Tools Copyright (c) 1996-2012 Texas Instruments Incorporated
csl_nand_dma_example.asm                                             PAGE   75

         000986 08   
    3060                      .dwpsn  file "../c5535_bsl_revc/ezdsp5535_v1/c55xx_csl/ccs_v4.0_examples/nand/CSL_NAND_DmaExample/csl
    3061 000987 ED08          MOV dbl(*SP(#4)), AC0 ; |944| 
         000989 08   
    3062 00098a 6600          BCC $C$L76,AC0 == #0 ; |944| 
    3063                                                      ; branchcc occurs ; |944| 
    3064                      .dwpsn  file "../c5535_bsl_revc/ezdsp5535_v1/c55xx_csl/ccs_v4.0_examples/nand/CSL_NAND_DmaExample/csl
    3065 00098c ED08          MOV dbl(*SP(#4)), AC0 ; |946| 
         00098e 08   
    3066 00098f 4409          MOV HI(AC0), AR1
    3067 000991 18FF          AND #0x00ff, AR1, AC0 ; |946| 
         000993 09   
    3068 000994 C010          MOV AC0, *SP(#8) ; |946| 
    3069                      .dwpsn  file "../c5535_bsl_revc/ezdsp5535_v1/c55xx_csl/ccs_v4.0_examples/nand/CSL_NAND_DmaExample/csl
    3070 000996 4A05          B $C$L77  ; |947| 
    3071                                                      ; branch occurs ; |947| 
    3072 000998       $C$L76:    
    3073                      .dwpsn  file "../c5535_bsl_revc/ezdsp5535_v1/c55xx_csl/ccs_v4.0_examples/nand/CSL_NAND_DmaExample/csl
    3074 000998 3E14          MOV #-1, T0
    3075 00099a 0601          B $C$L85  ; |950| 
         00099c 2F   
    3076                                                      ; branch occurs ; |950| 
    3077 00099d       $C$L77:    
    3078                      .dwpsn  file "../c5535_bsl_revc/ezdsp5535_v1/c55xx_csl/ccs_v4.0_examples/nand/CSL_NAND_DmaExample/csl
    3079 00099d E631          MOV #0, *(#_gDevIndex) ; |962| 
         00099f 0000 
         0009a1 0B6D-
    3080                      .dwpsn  file "../c5535_bsl_revc/ezdsp5535_v1/c55xx_csl/ccs_v4.0_examples/nand/CSL_NAND_DmaExample/csl
    3081 0009a3 F831          MPYMK *(#_gDevIndex), #14, AC0 ; |962| 
         0009a5 0E00 
         0009a7 000B 
         0009a9 6D-  
    3082 0009aa 2204          MOV AC0, T0 ; |962| 
    3083 0009ac EC31          AMOV #_cslNandIdLookup, XAR3 ; |962| 
         0009ae BE00 
         0009b0 0824-
    3084 0009b2 ED6B          MOV dbl(*AR3(T0)), XAR3
         0009b4 BF   
    3085 0009b5 90B0          MOV XAR3, AC0
    3086 0009b7 0400          BCC $C$L79,AC0 == #0 ; |962| 
         0009b9 39   
    3087                                                      ; branchcc occurs ; |962| 
    3088 0009ba       $C$L78:    
    3089 0009ba       $C$DW$L$_CSL_checkNandType$5$B:
    3090                      .dwpsn  file "../c5535_bsl_revc/ezdsp5535_v1/c55xx_csl/ccs_v4.0_examples/nand/CSL_NAND_DmaExample/csl
    3091 0009ba F831          MPYMK *(#_gDevIndex), #14, AC0 ; |964| 
         0009bc 0E00 
         0009be 000B 
         0009c0 6D-  
    3092 0009c1 2204          MOV AC0, T0 ; |964| 
    3093 0009c3 EC31          AMOV #(_cslNandIdLookup+2), XAR3 ; |964| 
         0009c5 BE00 
         0009c7 0826-
    3094 0009c9 DF10          MOV uns(*SP(#8)), AC1 ; |964| 
         0009cb 15   
TMS320C55x Assembler PC v4.4.1 Sat Sep 29 23:08:57 2018

Tools Copyright (c) 1996-2012 Texas Instruments Incorporated
csl_nand_dma_example.asm                                             PAGE   76

    3095 0009cc ED6B          MOV dbl(*AR3(T0)), AC0 ; |964| 
         0009ce 08   
    3096 0009cf 121C          CMPU AC1 != AC0, TC1 ; |964| 
         0009d1 04   
    3097 0009d2 0474          BCC $C$L79,!TC1 ; |964| 
         0009d4 1E   
    3098                                                      ; branchcc occurs ; |964| 
    3099 0009d5       $C$DW$L$_CSL_checkNandType$5$E:
    3100 0009d5       $C$DW$L$_CSL_checkNandType$6$B:
    3101                      .dwpsn  file "../c5535_bsl_revc/ezdsp5535_v1/c55xx_csl/ccs_v4.0_examples/nand/CSL_NAND_DmaExample/csl
    3102                      .dwpsn  file "../c5535_bsl_revc/ezdsp5535_v1/c55xx_csl/ccs_v4.0_examples/nand/CSL_NAND_DmaExample/csl
    3103 0009d5 F731          ADD #1, *(#_gDevIndex) ; |962| 
         0009d7 0001 
         0009d9 000B 
         0009db 6D-  
    3104                      .dwpsn  file "../c5535_bsl_revc/ezdsp5535_v1/c55xx_csl/ccs_v4.0_examples/nand/CSL_NAND_DmaExample/csl
    3105 0009dc F831          MPYMK *(#_gDevIndex), #14, AC0 ; |962| 
         0009de 0E00 
         0009e0 000B 
         0009e2 6D-  
    3106 0009e3 2204          MOV AC0, T0 ; |962| 
    3107 0009e5 EC31          AMOV #_cslNandIdLookup, XAR3 ; |962| 
         0009e7 BE00 
         0009e9 0824-
    3108 0009eb ED6B          MOV dbl(*AR3(T0)), XAR3
         0009ed BF   
    3109 0009ee 90B0          MOV XAR3, AC0
    3110 0009f0 0410          BCC $C$L78,AC0 != #0 ; |962| 
         0009f2 C7   
    3111                                                      ; branchcc occurs ; |962| 
    3112 0009f3       $C$DW$L$_CSL_checkNandType$6$E:
    3113 0009f3       $C$L79:    
    3114                      .dwpsn  file "../c5535_bsl_revc/ezdsp5535_v1/c55xx_csl/ccs_v4.0_examples/nand/CSL_NAND_DmaExample/csl
    3115 0009f3 F831          MPYMK *(#_gDevIndex), #14, AC0 ; |970| 
         0009f5 0E00 
         0009f7 000B 
         0009f9 6D-  
    3116 0009fa 2204          MOV AC0, T0 ; |970| 
    3117 0009fc EC31          AMOV #_cslNandIdLookup, XAR3 ; |970| 
         0009fe BE00 
         000a00 0824-
    3118 000a02 ED6B          MOV dbl(*AR3(T0)), XAR3
         000a04 BF   
    3119 000a05 90B0          MOV XAR3, AC0
    3120 000a07 0410          BCC $C$L80,AC0 != #0 ; |970| 
         000a09 12   
    3121                                                      ; branchcc occurs ; |970| 
    3122                      .dwpsn  file "../c5535_bsl_revc/ezdsp5535_v1/c55xx_csl/ccs_v4.0_examples/nand/CSL_NAND_DmaExample/csl
    3123 000a0a EC31          AMOV #$C$FSL49, XAR3 ; |972| 
         000a0c BE00 
         000a0e 0406+
    3124 000a10 EB00          MOV XAR3, dbl(*SP(#0))
         000a12 B5   
    3125              $C$DW$220       .dwtag  DW_TAG_TI_branch
    3126                      .dwattr $C$DW$220, DW_AT_low_pc(0x00)
TMS320C55x Assembler PC v4.4.1 Sat Sep 29 23:08:57 2018

Tools Copyright (c) 1996-2012 Texas Instruments Incorporated
csl_nand_dma_example.asm                                             PAGE   77

    3127                      .dwattr $C$DW$220, DW_AT_name("_printf")
    3128                      .dwattr $C$DW$220, DW_AT_TI_call
    3129 000a13 6C00          CALL #_printf ; |972| 
         000a15 0000!
    3130                                                      ; call occurs [#_printf] ; |972| 
    3131                      .dwpsn  file "../c5535_bsl_revc/ezdsp5535_v1/c55xx_csl/ccs_v4.0_examples/nand/CSL_NAND_DmaExample/csl
    3132 000a17 3E14          MOV #-1, T0
    3133 000a19 0600          B $C$L85  ; |973| 
         000a1b B0   
    3134                                                      ; branch occurs ; |973| 
    3135 000a1c       $C$L80:    
    3136                      .dwpsn  file "../c5535_bsl_revc/ezdsp5535_v1/c55xx_csl/ccs_v4.0_examples/nand/CSL_NAND_DmaExample/csl
    3137 000a1c F831          MPYMK *(#_gDevIndex), #14, AC0 ; |976| 
         000a1e 0E00 
         000a20 000B 
         000a22 6D-  
    3138 000a23 2204          MOV AC0, T0 ; |976| 
    3139 000a25 EC31          AMOV #(_cslNandIdLookup+4), XAR3 ; |976| 
         000a27 BE00 
         000a29 0828-
    3140 000a2b ED6B          MOV dbl(*AR3(T0)), AC0 ; |976| 
         000a2d 08   
    3141 000a2e 0410          BCC $C$L81,AC0 != #0 ; |976| 
         000a30 20   
    3142                                                      ; branchcc occurs ; |976| 
    3143                      .dwpsn  file "../c5535_bsl_revc/ezdsp5535_v1/c55xx_csl/ccs_v4.0_examples/nand/CSL_NAND_DmaExample/csl
    3144 000a31 E631          MOV #1, *(#_gNandType) ; |979| 
         000a33 0100 
         000a35 0B6C-
    3145                      .dwpsn  file "../c5535_bsl_revc/ezdsp5535_v1/c55xx_csl/ccs_v4.0_examples/nand/CSL_NAND_DmaExample/csl
    3146 000a37 ED08          MOV dbl(*SP(#4)), AC0 ; |980| 
         000a39 08   
    3147              
    3148 000a3a 3C10          MOV #1, AC0
    3149 000a3c 1903  ||      AND #0x0003, AC0, T1 ; |980| 
         000a3e 50   
    3150              
    3151 000a3f 5C05          SFTS AC0, T1, AC0 ; |980| 
    3152 000a41 1005          SFTS AC0, #10, AC0 ; |980| 
         000a43 0A   
    3153 000a44 C031          MOV AC0, *(#_gNandPageSize) ; |980| 
         000a46 000B 
         000a48 6E-  
    3154                      .dwpsn  file "../c5535_bsl_revc/ezdsp5535_v1/c55xx_csl/ccs_v4.0_examples/nand/CSL_NAND_DmaExample/csl
    3155 000a49 E631          MOV #2, *(#_gColAddrCycles) ; |981| 
         000a4b 0200 
         000a4d 0B70-
    3156                      .dwpsn  file "../c5535_bsl_revc/ezdsp5535_v1/c55xx_csl/ccs_v4.0_examples/nand/CSL_NAND_DmaExample/csl
    3157 000a4f 4A22          B $C$L82  ; |982| 
    3158                                                      ; branch occurs ; |982| 
    3159 000a51       $C$L81:    
    3160                      .dwpsn  file "../c5535_bsl_revc/ezdsp5535_v1/c55xx_csl/ccs_v4.0_examples/nand/CSL_NAND_DmaExample/csl
    3161 000a51 E631          MOV #0, *(#_gNandType) ; |986| 
         000a53 0000 
         000a55 0B6C-
TMS320C55x Assembler PC v4.4.1 Sat Sep 29 23:08:57 2018

Tools Copyright (c) 1996-2012 Texas Instruments Incorporated
csl_nand_dma_example.asm                                             PAGE   78

    3162                      .dwpsn  file "../c5535_bsl_revc/ezdsp5535_v1/c55xx_csl/ccs_v4.0_examples/nand/CSL_NAND_DmaExample/csl
    3163 000a57 F831          MPYMK *(#_gDevIndex), #14, AC0 ; |987| 
         000a59 0E00 
         000a5b 000B 
         000a5d 6D-  
    3164 000a5e 2204          MOV AC0, T0 ; |987| 
    3165 000a60 EC31          AMOV #(_cslNandIdLookup+5), XAR3 ; |987| 
         000a62 BE00 
         000a64 0829-
    3166 000a66 A96B          MOV *AR3(T0), AR1 ; |987| 
    3167 000a68 C931          MOV AR1, *(#_gNandPageSize) ; |987| 
         000a6a 000B 
         000a6c 6E-  
    3168                      .dwpsn  file "../c5535_bsl_revc/ezdsp5535_v1/c55xx_csl/ccs_v4.0_examples/nand/CSL_NAND_DmaExample/csl
    3169 000a6d E631          MOV #1, *(#_gColAddrCycles) ; |988| 
         000a6f 0100 
         000a71 0B70-
    3170 000a73       $C$L82:    
    3171                      .dwpsn  file "../c5535_bsl_revc/ezdsp5535_v1/c55xx_csl/ccs_v4.0_examples/nand/CSL_NAND_DmaExample/csl
    3172 000a73 F831          MPYMK *(#_gDevIndex), #14, AC0 ; |991| 
         000a75 0E00 
         000a77 000B 
         000a79 6D-  
    3173 000a7a 2204          MOV AC0, T0 ; |991| 
    3174 000a7c EC31          AMOV #(_cslNandIdLookup+6), XAR3 ; |991| 
         000a7e BE00 
         000a80 082A-
    3175 000a82 DF31          MOV uns(*(#_gNandPageSize)), AC1 ; |991| 
         000a84 1500 
         000a86 0B6E-
    3176 000a88 ED6B          MOV dbl(*AR3(T0)), AC0 ; |991| 
         000a8a 08   
    3177              $C$DW$221       .dwtag  DW_TAG_TI_branch
    3178                      .dwattr $C$DW$221, DW_AT_low_pc(0x00)
    3179                      .dwattr $C$DW$221, DW_AT_name("__divul")
    3180                      .dwattr $C$DW$221, DW_AT_TI_call
    3181              
    3182 000a8b 6C00          CALL #__divul ; |991| 
         000a8d 0000!
    3183 000a8f 1107  ||      SFTL AC0, #20, AC0 ; |991| 
         000a91 14   
    3184              
    3185                                                      ; call occurs [#__divul] ; |991| 
    3186 000a92 EB0C          MOV AC0, dbl(*SP(#6)) ; |991| 
         000a94 08   
    3187                      .dwpsn  file "../c5535_bsl_revc/ezdsp5535_v1/c55xx_csl/ccs_v4.0_examples/nand/CSL_NAND_DmaExample/csl
    3188 000a95 ED0C          MOV dbl(*SP(#6)), AC0 ; |992| 
         000a97 08   
    3189 000a98 EB31          MOV AC0, dbl(*(#_gTotalPages)) ; |992| 
         000a9a 0800 
         000a9c 0B72-
    3190                      .dwpsn  file "../c5535_bsl_revc/ezdsp5535_v1/c55xx_csl/ccs_v4.0_examples/nand/CSL_NAND_DmaExample/csl
    3191 000a9e E631          MOV #0, *(#_gRowAddrCycles) ; |994| 
         000aa0 0000 
         000aa2 0B6F-
TMS320C55x Assembler PC v4.4.1 Sat Sep 29 23:08:57 2018

Tools Copyright (c) 1996-2012 Texas Instruments Incorporated
csl_nand_dma_example.asm                                             PAGE   79

    3192                      .dwpsn  file "../c5535_bsl_revc/ezdsp5535_v1/c55xx_csl/ccs_v4.0_examples/nand/CSL_NAND_DmaExample/csl
    3193              
    3194 000aa4 ED0C          MOV dbl(*SP(#6)), AC1 ; |995| 
         000aa6 18   
    3195 000aa7 3D10  ||      MOV #1, AC0 ; |995| 
    3196              
    3197 000aa9 1208          CMPU AC1 <= AC0, TC1 ; |995| 
         000aab 14   
    3198 000aac 0464          BCC $C$L84,TC1 ; |995| 
         000aae 1B   
    3199                                                      ; branchcc occurs ; |995| 
    3200 000aaf       $C$L83:    
    3201 000aaf       $C$DW$L$_CSL_checkNandType$13$B:
    3202                      .dwpsn  file "../c5535_bsl_revc/ezdsp5535_v1/c55xx_csl/ccs_v4.0_examples/nand/CSL_NAND_DmaExample/csl
    3203 000aaf F731          ADD #1, *(#_gRowAddrCycles) ; |997| 
         000ab1 0001 
         000ab3 000B 
         000ab5 6F-  
    3204                      .dwpsn  file "../c5535_bsl_revc/ezdsp5535_v1/c55xx_csl/ccs_v4.0_examples/nand/CSL_NAND_DmaExample/csl
    3205 000ab6 ED0C          MOV dbl(*SP(#6)), AC0 ; |998| 
         000ab8 08   
    3206 000ab9 1007          SFTL AC0, #-8, AC0 ; |998| 
         000abb 38   
    3207 000abc EB0C          MOV AC0, dbl(*SP(#6)) ; |998| 
         000abe 08   
    3208                      .dwpsn  file "../c5535_bsl_revc/ezdsp5535_v1/c55xx_csl/ccs_v4.0_examples/nand/CSL_NAND_DmaExample/csl
    3209              
    3210 000ac2 3D10          MOV #1, AC0 ; |995| 
    3211 000abf ED0C  ||      MOV dbl(*SP(#6)), AC1 ; |995| 
         000ac1 18   
    3212              
    3213 000ac4 1204          CMPU AC1 > AC0, TC1 ; |995| 
         000ac6 14   
    3214 000ac7 0464          BCC $C$L83,TC1 ; |995| 
         000ac9 E5   
    3215                                                      ; branchcc occurs ; |995| 
    3216 000aca       $C$DW$L$_CSL_checkNandType$13$E:
    3217 000aca       $C$L84:    
    3218                      .dwpsn  file "../c5535_bsl_revc/ezdsp5535_v1/c55xx_csl/ccs_v4.0_examples/nand/CSL_NAND_DmaExample/csl
    3219 000aca 3C04          MOV #0, T0
    3220 000acc       $C$L85:    
    3221                      .dwpsn  file "../c5535_bsl_revc/ezdsp5535_v1/c55xx_csl/ccs_v4.0_examples/nand/CSL_NAND_DmaExample/csl
    3222 000acc 4E09          AADD #9, SP
    3223                      .dwcfi  cfa_offset, 1
    3224              $C$DW$222       .dwtag  DW_TAG_TI_branch
    3225                      .dwattr $C$DW$222, DW_AT_low_pc(0x00)
    3226                      .dwattr $C$DW$222, DW_AT_TI_return
    3227 000ace 4804          RET
    3228                                                      ; return occurs
    3229              
    3230              $C$DW$223       .dwtag  DW_TAG_TI_loop
    3231                      .dwattr $C$DW$223, DW_AT_name("F:\eZdsp_DBG\tmp1\c55x-sim2\foo\Debug\csl_nand_dma_example.asm:$C$L83:
    3232                      .dwattr $C$DW$223, DW_AT_TI_begin_file("../c5535_bsl_revc/ezdsp5535_v1/c55xx_csl/ccs_v4.0_examples/na
    3233                      .dwattr $C$DW$223, DW_AT_TI_begin_line(0x3e3)
    3234                      .dwattr $C$DW$223, DW_AT_TI_end_line(0x3e7)
TMS320C55x Assembler PC v4.4.1 Sat Sep 29 23:08:57 2018

Tools Copyright (c) 1996-2012 Texas Instruments Incorporated
csl_nand_dma_example.asm                                             PAGE   80

    3235              $C$DW$224       .dwtag  DW_TAG_TI_loop_range
    3236                      .dwattr $C$DW$224, DW_AT_low_pc($C$DW$L$_CSL_checkNandType$13$B)
    3237                      .dwattr $C$DW$224, DW_AT_high_pc($C$DW$L$_CSL_checkNandType$13$E)
    3238                      .dwendtag $C$DW$223
    3239              
    3240              
    3241              $C$DW$225       .dwtag  DW_TAG_TI_loop
    3242                      .dwattr $C$DW$225, DW_AT_name("F:\eZdsp_DBG\tmp1\c55x-sim2\foo\Debug\csl_nand_dma_example.asm:$C$L78:
    3243                      .dwattr $C$DW$225, DW_AT_TI_begin_file("../c5535_bsl_revc/ezdsp5535_v1/c55xx_csl/ccs_v4.0_examples/na
    3244                      .dwattr $C$DW$225, DW_AT_TI_begin_line(0x3c2)
    3245                      .dwattr $C$DW$225, DW_AT_TI_end_line(0x3c8)
    3246              $C$DW$226       .dwtag  DW_TAG_TI_loop_range
    3247                      .dwattr $C$DW$226, DW_AT_low_pc($C$DW$L$_CSL_checkNandType$5$B)
    3248                      .dwattr $C$DW$226, DW_AT_high_pc($C$DW$L$_CSL_checkNandType$5$E)
    3249              $C$DW$227       .dwtag  DW_TAG_TI_loop_range
    3250                      .dwattr $C$DW$227, DW_AT_low_pc($C$DW$L$_CSL_checkNandType$6$B)
    3251                      .dwattr $C$DW$227, DW_AT_high_pc($C$DW$L$_CSL_checkNandType$6$E)
    3252                      .dwendtag $C$DW$225
    3253              
    3254                      .dwattr $C$DW$213, DW_AT_TI_end_file("../c5535_bsl_revc/ezdsp5535_v1/c55xx_csl/ccs_v4.0_examples/nand
    3255                      .dwattr $C$DW$213, DW_AT_TI_end_line(0x3ea)
    3256                      .dwattr $C$DW$213, DW_AT_TI_end_column(0x01)
    3257                      .dwendentry
    3258                      .dwendtag $C$DW$213
    3259              
    3260 000ad0               .sect   ".text"
    3261                      .align 4
    3262                      .global _CSL_nandReadId
    3263              
    3264              $C$DW$228       .dwtag  DW_TAG_subprogram, DW_AT_name("CSL_nandReadId")
    3265                      .dwattr $C$DW$228, DW_AT_low_pc(_CSL_nandReadId)
    3266                      .dwattr $C$DW$228, DW_AT_high_pc(0x00)
    3267                      .dwattr $C$DW$228, DW_AT_TI_symbol_name("_CSL_nandReadId")
    3268                      .dwattr $C$DW$228, DW_AT_external
    3269                      .dwattr $C$DW$228, DW_AT_type(*$C$DW$T$59)
    3270                      .dwattr $C$DW$228, DW_AT_TI_begin_file("../c5535_bsl_revc/ezdsp5535_v1/c55xx_csl/ccs_v4.0_examples/na
    3271                      .dwattr $C$DW$228, DW_AT_TI_begin_line(0x3f3)
    3272                      .dwattr $C$DW$228, DW_AT_TI_begin_column(0x08)
    3273                      .dwattr $C$DW$228, DW_AT_TI_max_frame_size(0x0e)
    3274                      .dwpsn  file "../c5535_bsl_revc/ezdsp5535_v1/c55xx_csl/ccs_v4.0_examples/nand/CSL_NAND_DmaExample/csl
    3275              
    3276                      .dwfde $C$DW$CIE, _CSL_nandReadId
    3277              $C$DW$229       .dwtag  DW_TAG_formal_parameter, DW_AT_name("hNand")
    3278                      .dwattr $C$DW$229, DW_AT_TI_symbol_name("_hNand")
    3279                      .dwattr $C$DW$229, DW_AT_type(*$C$DW$T$123)
    3280                      .dwattr $C$DW$229, DW_AT_location[DW_OP_reg17]
    3281              ;*******************************************************************************
    3282              ;* FUNCTION NAME: CSL_nandReadId                                               *
    3283              ;*                                                                             *
    3284              ;*   Function Uses Regs : AC0,AC0,AC1,AC1,T0,AR0,XAR0,AR1,AR2,XAR2,AR3,XAR3,SP,*
    3285              ;*                        CARRY,TC1,M40,SATA,SATD,RDM,FRCT,SMUL                *
    3286              ;*   Stack Frame        : Compact (No Frame Pointer, w/ debug)                 *
    3287              ;*   Total Frame Size   : 14 words                                             *
    3288              ;*                        (1 return address/alignment)                         *
    3289              ;*                        (13 local values)                                    *
TMS320C55x Assembler PC v4.4.1 Sat Sep 29 23:08:57 2018

Tools Copyright (c) 1996-2012 Texas Instruments Incorporated
csl_nand_dma_example.asm                                             PAGE   81

    3290              ;*   Min System Stack   : 1 word                                               *
    3291              ;*******************************************************************************
    3292 000ad0       _CSL_nandReadId:
    3293                      .dwcfi  cfa_offset, 1
    3294                      .dwcfi  save_reg_to_mem, 91, -1
    3295 000ad0 4EF3          AADD #-13, SP
    3296                      .dwcfi  cfa_offset, 14
    3297              $C$DW$230       .dwtag  DW_TAG_variable, DW_AT_name("hNand")
    3298                      .dwattr $C$DW$230, DW_AT_TI_symbol_name("_hNand")
    3299                      .dwattr $C$DW$230, DW_AT_type(*$C$DW$T$123)
    3300                      .dwattr $C$DW$230, DW_AT_location[DW_OP_bregx 0x24 0]
    3301              $C$DW$231       .dwtag  DW_TAG_variable, DW_AT_name("devId")
    3302                      .dwattr $C$DW$231, DW_AT_TI_symbol_name("_devId")
    3303                      .dwattr $C$DW$231, DW_AT_type(*$C$DW$T$59)
    3304                      .dwattr $C$DW$231, DW_AT_location[DW_OP_bregx 0x24 2]
    3305              $C$DW$232       .dwtag  DW_TAG_variable, DW_AT_name("index")
    3306                      .dwattr $C$DW$232, DW_AT_TI_symbol_name("_index")
    3307                      .dwattr $C$DW$232, DW_AT_type(*$C$DW$T$66)
    3308                      .dwattr $C$DW$232, DW_AT_location[DW_OP_bregx 0x24 4]
    3309              $C$DW$233       .dwtag  DW_TAG_variable, DW_AT_name("readBuf")
    3310                      .dwattr $C$DW$233, DW_AT_TI_symbol_name("_readBuf")
    3311                      .dwattr $C$DW$233, DW_AT_type(*$C$DW$T$161)
    3312                      .dwattr $C$DW$233, DW_AT_location[DW_OP_bregx 0x24 6]
    3313              $C$DW$234       .dwtag  DW_TAG_variable, DW_AT_name("looper")
    3314                      .dwattr $C$DW$234, DW_AT_TI_symbol_name("_looper")
    3315                      .dwattr $C$DW$234, DW_AT_type(*$C$DW$T$19)
    3316                      .dwattr $C$DW$234, DW_AT_location[DW_OP_bregx 0x24 11]
    3317              $C$DW$235       .dwtag  DW_TAG_variable, DW_AT_name("status")
    3318                      .dwattr $C$DW$235, DW_AT_TI_symbol_name("_status")
    3319                      .dwattr $C$DW$235, DW_AT_type(*$C$DW$T$107)
    3320                      .dwattr $C$DW$235, DW_AT_location[DW_OP_bregx 0x24 12]
    3321 000ad2 EB00          MOV XAR0, dbl(*SP(#0))
         000ad4 85   
    3322                      .dwpsn  file "../c5535_bsl_revc/ezdsp5535_v1/c55xx_csl/ccs_v4.0_examples/nand/CSL_NAND_DmaExample/csl
    3323 000ad5 3C00          MOV #0, AC0 ; |1019| 
    3324 000ad7 EB04          MOV AC0, dbl(*SP(#2)) ; |1019| 
         000ad9 08   
    3325                      .dwpsn  file "../c5535_bsl_revc/ezdsp5535_v1/c55xx_csl/ccs_v4.0_examples/nand/CSL_NAND_DmaExample/csl
    3326 000ada E616          MOV #0, *SP(#11) ; |1020| 
         000adc 00   
    3327                      .dwpsn  file "../c5535_bsl_revc/ezdsp5535_v1/c55xx_csl/ccs_v4.0_examples/nand/CSL_NAND_DmaExample/csl
    3328 000add ED00          MOV dbl(*SP(#0)), XAR3
         000adf BF   
    3329              
    3330 000ae0 90B0          MOV XAR3, AC0
    3331 000ae2 3D01  ||      MOV #0, AC1 ; |1022| 
    3332              
    3333 000ae4 1210          CMPU AC1 == AC0, TC1 ; |1022| 
         000ae6 04   
    3334 000ae7 6D64          BCC $C$L92,TC1 ; |1022| 
         000ae9 00B2 
    3335                                                      ; branchcc occurs ; |1022| 
    3336                      .dwpsn  file "../c5535_bsl_revc/ezdsp5535_v1/c55xx_csl/ccs_v4.0_examples/nand/CSL_NAND_DmaExample/csl
    3337 000aeb ED00          MOV dbl(*SP(#0)), XAR0
         000aed 8F   
TMS320C55x Assembler PC v4.4.1 Sat Sep 29 23:08:57 2018

Tools Copyright (c) 1996-2012 Texas Instruments Incorporated
csl_nand_dma_example.asm                                             PAGE   82

    3338 000aee 7600          MOV #144, T0 ; |1025| 
         000af0 9048 
    3339              $C$DW$236       .dwtag  DW_TAG_TI_branch
    3340                      .dwattr $C$DW$236, DW_AT_low_pc(0x00)
    3341                      .dwattr $C$DW$236, DW_AT_name("_NAND_sendCommand")
    3342                      .dwattr $C$DW$236, DW_AT_TI_call
    3343 000af2 6C00          CALL #_NAND_sendCommand ; |1025| 
         000af4 0000!
    3344                                                      ; call occurs [#_NAND_sendCommand] ; |1025| 
    3345 000af6 C418          MOV T0, *SP(#12) ; |1025| 
    3346                      .dwpsn  file "../c5535_bsl_revc/ezdsp5535_v1/c55xx_csl/ccs_v4.0_examples/nand/CSL_NAND_DmaExample/csl
    3347 000af8 2249          MOV T0, AR1
    3348 000afa 6D19          BCC $C$L92,AR1 != #0 ; |1026| 
         000afc 009F 
    3349                                                      ; branchcc occurs ; |1026| 
    3350                      .dwpsn  file "../c5535_bsl_revc/ezdsp5535_v1/c55xx_csl/ccs_v4.0_examples/nand/CSL_NAND_DmaExample/csl
    3351 000afe ED00          MOV dbl(*SP(#0)), XAR0
         000b00 8F   
    3352              $C$DW$237       .dwtag  DW_TAG_TI_branch
    3353                      .dwattr $C$DW$237, DW_AT_low_pc(0x00)
    3354                      .dwattr $C$DW$237, DW_AT_name("_NAND_setAddress")
    3355                      .dwattr $C$DW$237, DW_AT_TI_call
    3356              
    3357 000b01 6C00          CALL #_NAND_setAddress ; |1029| 
         000b03 0000!
    3358 000b05 3D04  ||      MOV #0, T0
    3359              
    3360                                                      ; call occurs [#_NAND_setAddress] ; |1029| 
    3361 000b07 C418          MOV T0, *SP(#12) ; |1029| 
    3362                      .dwpsn  file "../c5535_bsl_revc/ezdsp5535_v1/c55xx_csl/ccs_v4.0_examples/nand/CSL_NAND_DmaExample/csl
    3363 000b09 2249          MOV T0, AR1
    3364 000b0b 6D19          BCC $C$L92,AR1 != #0 ; |1030| 
         000b0d 008E 
    3365                                                      ; branchcc occurs ; |1030| 
    3366                      .dwpsn  file "../c5535_bsl_revc/ezdsp5535_v1/c55xx_csl/ccs_v4.0_examples/nand/CSL_NAND_DmaExample/csl
    3367 000b0f 7610          MOV #4096, AC0 ; |1033| 
         000b11 0008 
    3368 000b13 EB08          MOV AC0, dbl(*SP(#4)) ; |1033| 
         000b15 08   
    3369 000b16 20            NOP
    3370 000b17 20            NOP
    3371 000b18 20            NOP
    3372                      .dwpsn  file "../c5535_bsl_revc/ezdsp5535_v1/c55xx_csl/ccs_v4.0_examples/nand/CSL_NAND_DmaExample/csl
    3373 000b19 ED08          MOV dbl(*SP(#4)), AC0 ; |1033| 
         000b1b 08   
    3374 000b1c 0400          BCC $C$L87,AC0 == #0 ; |1033| 
         000b1e 15   
    3375                                                      ; branchcc occurs ; |1033| 
    3376 000b1f       $C$L86:    
    3377 000b1f       $C$DW$L$_CSL_nandReadId$5$B:
    3378                      .dwpsn  file "../c5535_bsl_revc/ezdsp5535_v1/c55xx_csl/ccs_v4.0_examples/nand/CSL_NAND_DmaExample/csl
    3379 000b1f F716          ADD #1, *SP(#11) ; |1035| 
         000b21 0001 
    3380                      .dwpsn  file "../c5535_bsl_revc/ezdsp5535_v1/c55xx_csl/ccs_v4.0_examples/nand/CSL_NAND_DmaExample/csl
    3381 000b23 ED08          MOV dbl(*SP(#4)), AC0 ; |1033| 
TMS320C55x Assembler PC v4.4.1 Sat Sep 29 23:08:57 2018

Tools Copyright (c) 1996-2012 Texas Instruments Incorporated
csl_nand_dma_example.asm                                             PAGE   83

         000b25 08   
    3382 000b26 4210          SUB #1, AC0 ; |1033| 
    3383 000b28 EB08          MOV AC0, dbl(*SP(#4)) ; |1033| 
         000b2a 08   
    3384 000b2b 20            NOP
    3385 000b2c 20            NOP
    3386 000b2d 20            NOP
    3387                      .dwpsn  file "../c5535_bsl_revc/ezdsp5535_v1/c55xx_csl/ccs_v4.0_examples/nand/CSL_NAND_DmaExample/csl
    3388 000b2e ED08          MOV dbl(*SP(#4)), AC0 ; |1033| 
         000b30 08   
    3389 000b31 0410          BCC $C$L86,AC0 != #0 ; |1033| 
         000b33 EB   
    3390                                                      ; branchcc occurs ; |1033| 
    3391 000b34       $C$DW$L$_CSL_nandReadId$5$E:
    3392 000b34       $C$L87:    
    3393                      .dwpsn  file "../c5535_bsl_revc/ezdsp5535_v1/c55xx_csl/ccs_v4.0_examples/nand/CSL_NAND_DmaExample/csl
    3394 000b34 3C00          MOV #0, AC0 ; |1038| 
    3395 000b36 EB08          MOV AC0, dbl(*SP(#4)) ; |1038| 
         000b38 08   
    3396 000b39 20            NOP
    3397 000b3a 20            NOP
    3398 000b3b 20            NOP
    3399                      .dwpsn  file "../c5535_bsl_revc/ezdsp5535_v1/c55xx_csl/ccs_v4.0_examples/nand/CSL_NAND_DmaExample/csl
    3400              
    3401 000b3f 3D40          MOV #4, AC0 ; |1038| 
    3402 000b3c ED08  ||      MOV dbl(*SP(#4)), AC1 ; |1038| 
         000b3e 18   
    3403              
    3404 000b41 1218          CMPU AC1 >= AC0, TC1 ; |1038| 
         000b43 04   
    3405 000b44 0464          BCC $C$L91,TC1 ; |1038| 
         000b46 40   
    3406                                                      ; branchcc occurs ; |1038| 
    3407 000b47       $C$L88:    
    3408 000b47       $C$DW$L$_CSL_nandReadId$7$B:
    3409                      .dwpsn  file "../c5535_bsl_revc/ezdsp5535_v1/c55xx_csl/ccs_v4.0_examples/nand/CSL_NAND_DmaExample/csl
    3410 000b47 ED00          MOV dbl(*SP(#0)), XAR3
         000b49 BF   
    3411 000b4a A977          MOV *AR3(short(#3)), AR1 ; |1040| 
    3412 000b4c 0419          BCC $C$L89,AR1 != #0 ; |1040| 
         000b4e 12   
    3413                                                      ; branchcc occurs ; |1040| 
    3414 000b4f       $C$DW$L$_CSL_nandReadId$7$E:
    3415 000b4f       $C$DW$L$_CSL_nandReadId$8$B:
    3416 000b4f ED08          MOV dbl(*SP(#4)), AC0 ; |1040| 
         000b51 08   
    3417 000b52 2204          MOV AC0, T0 ; |1040| 
    3418 000b54 ED7D          MOV dbl(*AR3(short(#6))), AC0 ; |1040| 
         000b56 08   
    3419 000b57 900B          MOV AC0, XAR3
    3420 000b59 EC0C          AMAR *SP(#6), XAR2
         000b5b AE   
    3421 000b5c 8061          MOV *AR3, *AR2(T0) ; |1040| 
         000b5e 74   
    3422 000b5f 4A10          B $C$L90  ; |1040| 
TMS320C55x Assembler PC v4.4.1 Sat Sep 29 23:08:57 2018

Tools Copyright (c) 1996-2012 Texas Instruments Incorporated
csl_nand_dma_example.asm                                             PAGE   84

    3423                                                      ; branch occurs ; |1040| 
    3424 000b61       $C$DW$L$_CSL_nandReadId$8$E:
    3425 000b61       $C$L89:    
    3426 000b61       $C$DW$L$_CSL_nandReadId$9$B:
    3427 000b61 ED08          MOV dbl(*SP(#4)), AC0 ; |1040| 
         000b63 08   
    3428 000b64 2204          MOV AC0, T0 ; |1040| 
    3429 000b66 ED7D          MOV dbl(*AR3(short(#6))), AC0 ; |1040| 
         000b68 08   
    3430 000b69 900B          MOV AC0, XAR3
    3431 000b6b EC0C          AMAR *SP(#6), XAR2
         000b6d AE   
    3432 000b6e 8061          MOV *AR3, *AR2(T0) ; |1040| 
         000b70 74   
    3433 000b71       $C$DW$L$_CSL_nandReadId$9$E:
    3434 000b71       $C$L90:    
    3435 000b71       $C$DW$L$_CSL_nandReadId$10$B:
    3436                      .dwpsn  file "../c5535_bsl_revc/ezdsp5535_v1/c55xx_csl/ccs_v4.0_examples/nand/CSL_NAND_DmaExample/csl
    3437 000b71 ED08          MOV dbl(*SP(#4)), AC0 ; |1038| 
         000b73 08   
    3438 000b74 4010          ADD #1, AC0 ; |1038| 
    3439 000b76 EB08          MOV AC0, dbl(*SP(#4)) ; |1038| 
         000b78 08   
    3440 000b79 20            NOP
    3441 000b7a 20            NOP
    3442 000b7b 20            NOP
    3443                      .dwpsn  file "../c5535_bsl_revc/ezdsp5535_v1/c55xx_csl/ccs_v4.0_examples/nand/CSL_NAND_DmaExample/csl
    3444              
    3445 000b7c ED08          MOV dbl(*SP(#4)), AC1 ; |1038| 
         000b7e 18   
    3446 000b7f 3D40  ||      MOV #4, AC0 ; |1038| 
    3447              
    3448 000b81 1214          CMPU AC1 < AC0, TC1 ; |1038| 
         000b83 04   
    3449 000b84 0464          BCC $C$L88,TC1 ; |1038| 
         000b86 C0   
    3450                                                      ; branchcc occurs ; |1038| 
    3451 000b87       $C$DW$L$_CSL_nandReadId$10$E:
    3452 000b87       $C$L91:    
    3453                      .dwpsn  file "../c5535_bsl_revc/ezdsp5535_v1/c55xx_csl/ccs_v4.0_examples/nand/CSL_NAND_DmaExample/csl
    3454 000b87 A90E          MOV *SP(#7), AR1 ; |1043| 
    3455              
    3456 000b8c 5390          MOV AR1, HI(AC0) ; |1043| 
    3457 000b89 DF0C  ||      MOV uns(*SP(#6)), AC1 ; |1043| 
         000b8b 15   
    3458              
    3459 000b8e DF10          MOV uns(*SP(#8)), AC1 ; |1043| 
         000b90 15   
    3460 000b91 1111  ||      OR AC1 << #24, AC0 ; |1043| 
         000b93 18   
    3461              
    3462 000b94 1011          OR AC1 << #8, AC0 ; |1043| 
         000b96 08   
    3463 000b97 DA12          OR *SP(#9), AC0, AC0 ; |1043| 
         000b99 00   
TMS320C55x Assembler PC v4.4.1 Sat Sep 29 23:08:57 2018

Tools Copyright (c) 1996-2012 Texas Instruments Incorporated
csl_nand_dma_example.asm                                             PAGE   85

    3464 000b9a EB04          MOV AC0, dbl(*SP(#2)) ; |1043| 
         000b9c 08   
    3465 000b9d       $C$L92:    
    3466                      .dwpsn  file "../c5535_bsl_revc/ezdsp5535_v1/c55xx_csl/ccs_v4.0_examples/nand/CSL_NAND_DmaExample/csl
    3467 000b9d ED04          MOV dbl(*SP(#2)), AC0 ; |1051| 
         000b9f 08   
    3468                      .dwpsn  file "../c5535_bsl_revc/ezdsp5535_v1/c55xx_csl/ccs_v4.0_examples/nand/CSL_NAND_DmaExample/csl
    3469 000ba0 4E0D          AADD #13, SP
    3470                      .dwcfi  cfa_offset, 1
    3471              $C$DW$238       .dwtag  DW_TAG_TI_branch
    3472                      .dwattr $C$DW$238, DW_AT_low_pc(0x00)
    3473                      .dwattr $C$DW$238, DW_AT_TI_return
    3474 000ba2 4804          RET
    3475                                                      ; return occurs
    3476              
    3477              $C$DW$239       .dwtag  DW_TAG_TI_loop
    3478                      .dwattr $C$DW$239, DW_AT_name("F:\eZdsp_DBG\tmp1\c55x-sim2\foo\Debug\csl_nand_dma_example.asm:$C$L88:
    3479                      .dwattr $C$DW$239, DW_AT_TI_begin_file("../c5535_bsl_revc/ezdsp5535_v1/c55xx_csl/ccs_v4.0_examples/na
    3480                      .dwattr $C$DW$239, DW_AT_TI_begin_line(0x40e)
    3481                      .dwattr $C$DW$239, DW_AT_TI_end_line(0x411)
    3482              $C$DW$240       .dwtag  DW_TAG_TI_loop_range
    3483                      .dwattr $C$DW$240, DW_AT_low_pc($C$DW$L$_CSL_nandReadId$7$B)
    3484                      .dwattr $C$DW$240, DW_AT_high_pc($C$DW$L$_CSL_nandReadId$7$E)
    3485              $C$DW$241       .dwtag  DW_TAG_TI_loop_range
    3486                      .dwattr $C$DW$241, DW_AT_low_pc($C$DW$L$_CSL_nandReadId$8$B)
    3487                      .dwattr $C$DW$241, DW_AT_high_pc($C$DW$L$_CSL_nandReadId$8$E)
    3488              $C$DW$242       .dwtag  DW_TAG_TI_loop_range
    3489                      .dwattr $C$DW$242, DW_AT_low_pc($C$DW$L$_CSL_nandReadId$9$B)
    3490                      .dwattr $C$DW$242, DW_AT_high_pc($C$DW$L$_CSL_nandReadId$9$E)
    3491              $C$DW$243       .dwtag  DW_TAG_TI_loop_range
    3492                      .dwattr $C$DW$243, DW_AT_low_pc($C$DW$L$_CSL_nandReadId$10$B)
    3493                      .dwattr $C$DW$243, DW_AT_high_pc($C$DW$L$_CSL_nandReadId$10$E)
    3494                      .dwendtag $C$DW$239
    3495              
    3496              
    3497              $C$DW$244       .dwtag  DW_TAG_TI_loop
    3498                      .dwattr $C$DW$244, DW_AT_name("F:\eZdsp_DBG\tmp1\c55x-sim2\foo\Debug\csl_nand_dma_example.asm:$C$L86:
    3499                      .dwattr $C$DW$244, DW_AT_TI_begin_file("../c5535_bsl_revc/ezdsp5535_v1/c55xx_csl/ccs_v4.0_examples/na
    3500                      .dwattr $C$DW$244, DW_AT_TI_begin_line(0x409)
    3501                      .dwattr $C$DW$244, DW_AT_TI_end_line(0x40c)
    3502              $C$DW$245       .dwtag  DW_TAG_TI_loop_range
    3503                      .dwattr $C$DW$245, DW_AT_low_pc($C$DW$L$_CSL_nandReadId$5$B)
    3504                      .dwattr $C$DW$245, DW_AT_high_pc($C$DW$L$_CSL_nandReadId$5$E)
    3505                      .dwendtag $C$DW$244
    3506              
    3507                      .dwattr $C$DW$228, DW_AT_TI_end_file("../c5535_bsl_revc/ezdsp5535_v1/c55xx_csl/ccs_v4.0_examples/nand
    3508                      .dwattr $C$DW$228, DW_AT_TI_end_line(0x41c)
    3509                      .dwattr $C$DW$228, DW_AT_TI_end_column(0x01)
    3510                      .dwendentry
    3511                      .dwendtag $C$DW$228
    3512              
    3513              ;*******************************************************************************
    3514              ;* FAR STRINGS                                                                 *
    3515              ;*******************************************************************************
    3516 000000               .sect   ".const:.string"
TMS320C55x Assembler PC v4.4.1 Sat Sep 29 23:08:57 2018

Tools Copyright (c) 1996-2012 Texas Instruments Incorporated
csl_nand_dma_example.asm                                             PAGE   86

    3517                      .align  2
    3518 000000 0031  $C$FSL1:        .string "1MB 8-Bit",0
         000001 004D 
         000002 0042 
         000003 0020 
         000004 0038 
         000005 002D 
         000006 0042 
         000007 0069 
         000008 0074 
         000009 0000 
    3519                      .align  2
    3520 00000a 0032  $C$FSL2:        .string "2MB 8-Bit",0
         00000b 004D 
         00000c 0042 
         00000d 0020 
         00000e 0038 
         00000f 002D 
         000010 0042 
         000011 0069 
         000012 0074 
         000013 0000 
    3521                      .align  2
    3522 000014 0034  $C$FSL3:        .string "4MB 8-Bit",0
         000015 004D 
         000016 0042 
         000017 0020 
         000018 0038 
         000019 002D 
         00001a 0042 
         00001b 0069 
         00001c 0074 
         00001d 0000 
    3523                      .align  2
    3524 00001e 0038  $C$FSL4:        .string "8MB 8-Bit",0
         00001f 004D 
         000020 0042 
         000021 0020 
         000022 0038 
         000023 002D 
         000024 0042 
         000025 0069 
         000026 0074 
         000027 0000 
    3525                      .align  2
    3526 000028 0038  $C$FSL5:        .string "8MB 16-Bit",0
         000029 004D 
         00002a 0042 
         00002b 0020 
         00002c 0031 
         00002d 0036 
         00002e 002D 
         00002f 0042 
         000030 0069 
         000031 0074 
TMS320C55x Assembler PC v4.4.1 Sat Sep 29 23:08:57 2018

Tools Copyright (c) 1996-2012 Texas Instruments Incorporated
csl_nand_dma_example.asm                                             PAGE   87

         000032 0000 
    3527                      .align  2
    3528 000034 0031  $C$FSL6:        .string "16MB 8-Bit",0
         000035 0036 
         000036 004D 
         000037 0042 
         000038 0020 
         000039 0038 
         00003a 002D 
         00003b 0042 
         00003c 0069 
         00003d 0074 
         00003e 0000 
    3529                      .align  2
    3530 000040 0031  $C$FSL7:        .string "16MB 16-Bit",0
         000041 0036 
         000042 004D 
         000043 0042 
         000044 0020 
         000045 0031 
         000046 0036 
         000047 002D 
         000048 0042 
         000049 0069 
         00004a 0074 
         00004b 0000 
    3531                      .align  2
    3532 00004c 0033  $C$FSL8:        .string "32MB 8-Bit",0
         00004d 0032 
         00004e 004D 
         00004f 0042 
         000050 0020 
         000051 0038 
         000052 002D 
         000053 0042 
         000054 0069 
         000055 0074 
         000056 0000 
    3533                      .align  2
    3534 000058 0033  $C$FSL9:        .string "32MB 16-Bit",0
         000059 0032 
         00005a 004D 
         00005b 0042 
         00005c 0020 
         00005d 0031 
         00005e 0036 
         00005f 002D 
         000060 0042 
         000061 0069 
         000062 0074 
         000063 0000 
    3535                      .align  2
    3536 000064 0036  $C$FSL10:       .string "64MB 8-Bit",0
         000065 0034 
         000066 004D 
TMS320C55x Assembler PC v4.4.1 Sat Sep 29 23:08:57 2018

Tools Copyright (c) 1996-2012 Texas Instruments Incorporated
csl_nand_dma_example.asm                                             PAGE   88

         000067 0042 
         000068 0020 
         000069 0038 
         00006a 002D 
         00006b 0042 
         00006c 0069 
         00006d 0074 
         00006e 0000 
    3537                      .align  2
    3538 000070 0036  $C$FSL11:       .string "64MB 16-Bit",0
         000071 0034 
         000072 004D 
         000073 0042 
         000074 0020 
         000075 0031 
         000076 0036 
         000077 002D 
         000078 0042 
         000079 0069 
         00007a 0074 
         00007b 0000 
    3539                      .align  2
    3540 00007c 0031  $C$FSL12:       .string "128MB 8-Bit",0
         00007d 0032 
         00007e 0038 
         00007f 004D 
         000080 0042 
         000081 0020 
         000082 0038 
         000083 002D 
         000084 0042 
         000085 0069 
         000086 0074 
         000087 0000 
    3541                      .align  2
    3542 000088 0031  $C$FSL13:       .string "128MB 16-Bit",0
         000089 0032 
         00008a 0038 
         00008b 004D 
         00008c 0042 
         00008d 0020 
         00008e 0031 
         00008f 0036 
         000090 002D 
         000091 0042 
         000092 0069 
         000093 0074 
         000094 0000 
    3543                      .align  2
    3544 000096 0032  $C$FSL14:       .string "256MB 8-Bit",0
         000097 0035 
         000098 0036 
         000099 004D 
         00009a 0042 
         00009b 0020 
TMS320C55x Assembler PC v4.4.1 Sat Sep 29 23:08:57 2018

Tools Copyright (c) 1996-2012 Texas Instruments Incorporated
csl_nand_dma_example.asm                                             PAGE   89

         00009c 0038 
         00009d 002D 
         00009e 0042 
         00009f 0069 
         0000a0 0074 
         0000a1 0000 
    3545                      .align  2
    3546 0000a2 0032  $C$FSL15:       .string "256MB 16-Bit",0
         0000a3 0035 
         0000a4 0036 
         0000a5 004D 
         0000a6 0042 
         0000a7 0020 
         0000a8 0031 
         0000a9 0036 
         0000aa 002D 
         0000ab 0042 
         0000ac 0069 
         0000ad 0074 
         0000ae 0000 
    3547                      .align  2
    3548 0000b0 0035  $C$FSL16:       .string "512MB 8-Bit",0
         0000b1 0031 
         0000b2 0032 
         0000b3 004D 
         0000b4 0042 
         0000b5 0020 
         0000b6 0038 
         0000b7 002D 
         0000b8 0042 
         0000b9 0069 
         0000ba 0074 
         0000bb 0000 
    3549                      .align  2
    3550 0000bc 0035  $C$FSL17:       .string "512MB 16-Bit",0
         0000bd 0031 
         0000be 0032 
         0000bf 004D 
         0000c0 0042 
         0000c1 0020 
         0000c2 0031 
         0000c3 0036 
         0000c4 002D 
         0000c5 0042 
         0000c6 0069 
         0000c7 0074 
         0000c8 0000 
    3551                      .align  2
    3552 0000ca 0031  $C$FSL18:       .string "1GB 8-Bit",0
         0000cb 0047 
         0000cc 0042 
         0000cd 0020 
         0000ce 0038 
         0000cf 002D 
         0000d0 0042 
TMS320C55x Assembler PC v4.4.1 Sat Sep 29 23:08:57 2018

Tools Copyright (c) 1996-2012 Texas Instruments Incorporated
csl_nand_dma_example.asm                                             PAGE   90

         0000d1 0069 
         0000d2 0074 
         0000d3 0000 
    3553                      .align  2
    3554 0000d4 0031  $C$FSL19:       .string "1GB 16-Bit",0
         0000d5 0047 
         0000d6 0042 
         0000d7 0020 
         0000d8 0031 
         0000d9 0036 
         0000da 002D 
         0000db 0042 
         0000dc 0069 
         0000dd 0074 
         0000de 0000 
    3555                      .align  2
    3556 0000e0 0032  $C$FSL20:       .string "2GB 8-Bit",0
         0000e1 0047 
         0000e2 0042 
         0000e3 0020 
         0000e4 0038 
         0000e5 002D 
         0000e6 0042 
         0000e7 0069 
         0000e8 0074 
         0000e9 0000 
    3557                      .align  2
    3558 0000ea 0032  $C$FSL21:       .string "2GB 16-Bit",0
         0000eb 0047 
         0000ec 0042 
         0000ed 0020 
         0000ee 0031 
         0000ef 0036 
         0000f0 002D 
         0000f1 0042 
         0000f2 0069 
         0000f3 0074 
         0000f4 0000 
    3559                      .align  2
    3560 0000f6 000A  $C$FSL22:       .string 10,"NAND Dma Mode Test Failed!!",10,0
         0000f7 004E 
         0000f8 0041 
         0000f9 004E 
         0000fa 0044 
         0000fb 0020 
         0000fc 0044 
         0000fd 006D 
         0000fe 0061 
         0000ff 0020 
         000100 004D 
         000101 006F 
         000102 0064 
         000103 0065 
         000104 0020 
         000105 0054 
TMS320C55x Assembler PC v4.4.1 Sat Sep 29 23:08:57 2018

Tools Copyright (c) 1996-2012 Texas Instruments Incorporated
csl_nand_dma_example.asm                                             PAGE   91

         000106 0065 
         000107 0073 
         000108 0074 
         000109 0020 
         00010a 0046 
         00010b 0061 
         00010c 0069 
         00010d 006C 
         00010e 0065 
         00010f 0064 
         000110 0021 
         000111 0021 
         000112 000A 
         000113 0000 
    3561                      .align  2
    3562 000114 000A  $C$FSL23:       .string 10,"NAND Dma Mode Test Passed!!",10,0
         000115 004E 
         000116 0041 
         000117 004E 
         000118 0044 
         000119 0020 
         00011a 0044 
         00011b 006D 
         00011c 0061 
         00011d 0020 
         00011e 004D 
         00011f 006F 
         000120 0064 
         000121 0065 
         000122 0020 
         000123 0054 
         000124 0065 
         000125 0073 
         000126 0074 
         000127 0020 
         000128 0050 
         000129 0061 
         00012a 0073 
         00012b 0073 
         00012c 0065 
         00012d 0064 
         00012e 0021 
         00012f 0021 
         000130 000A 
         000131 0000 
    3563                      .align  2
    3564 000132 004E  $C$FSL24:       .string "NAND Dma Mode Test",10,10,0
         000133 0041 
         000134 004E 
         000135 0044 
         000136 0020 
         000137 0044 
         000138 006D 
         000139 0061 
         00013a 0020 
TMS320C55x Assembler PC v4.4.1 Sat Sep 29 23:08:57 2018

Tools Copyright (c) 1996-2012 Texas Instruments Incorporated
csl_nand_dma_example.asm                                             PAGE   92

         00013b 004D 
         00013c 006F 
         00013d 0064 
         00013e 0065 
         00013f 0020 
         000140 0054 
         000141 0065 
         000142 0073 
         000143 0074 
         000144 000A 
         000145 000A 
         000146 0000 
    3565                      .align  2
    3566 000148 0044  $C$FSL25:       .string "DMA_init Failed!",10,0
         000149 004D 
         00014a 0041 
         00014b 005F 
         00014c 0069 
         00014d 006E 
         00014e 0069 
         00014f 0074 
         000150 0020 
         000151 0046 
         000152 0061 
         000153 0069 
         000154 006C 
         000155 0065 
         000156 0064 
         000157 0021 
         000158 000A 
         000159 0000 
    3567                      .align  2
    3568 00015a 004E  $C$FSL26:       .string "NAND Init Failed!!",10,0
         00015b 0041 
         00015c 004E 
         00015d 0044 
         00015e 0020 
         00015f 0049 
         000160 006E 
         000161 0069 
         000162 0074 
         000163 0020 
         000164 0046 
         000165 0061 
         000166 0069 
         000167 006C 
         000168 0065 
         000169 0064 
         00016a 0021 
         00016b 0021 
         00016c 000A 
         00016d 0000 
    3569                      .align  2
    3570 00016e 004E  $C$FSL27:       .string "NAND Setup Failed!!",10,0
         00016f 0041 
TMS320C55x Assembler PC v4.4.1 Sat Sep 29 23:08:57 2018

Tools Copyright (c) 1996-2012 Texas Instruments Incorporated
csl_nand_dma_example.asm                                             PAGE   93

         000170 004E 
         000171 0044 
         000172 0020 
         000173 0053 
         000174 0065 
         000175 0074 
         000176 0075 
         000177 0070 
         000178 0020 
         000179 0046 
         00017a 0061 
         00017b 0069 
         00017c 006C 
         00017d 0065 
         00017e 0064 
         00017f 0021 
         000180 0021 
         000181 000A 
         000182 0000 
    3571                      .align  2
    3572 000184 004E  $C$FSL28:       .string "NAND Get Bank Info Failed!!",10,0
         000185 0041 
         000186 004E 
         000187 0044 
         000188 0020 
         000189 0047 
         00018a 0065 
         00018b 0074 
         00018c 0020 
         00018d 0042 
         00018e 0061 
         00018f 006E 
         000190 006B 
         000191 0020 
         000192 0049 
         000193 006E 
         000194 0066 
         000195 006F 
         000196 0020 
         000197 0046 
         000198 0061 
         000199 0069 
         00019a 006C 
         00019b 0065 
         00019c 0064 
         00019d 0021 
         00019e 0021 
         00019f 000A 
         0001a0 0000 
    3573                      .align  2
    3574 0001a2 0055  $C$FSL29:       .string "Unknown NAND Type",10,0
         0001a3 006E 
         0001a4 006B 
         0001a5 006E 
         0001a6 006F 
TMS320C55x Assembler PC v4.4.1 Sat Sep 29 23:08:57 2018

Tools Copyright (c) 1996-2012 Texas Instruments Incorporated
csl_nand_dma_example.asm                                             PAGE   94

         0001a7 0077 
         0001a8 006E 
         0001a9 0020 
         0001aa 004E 
         0001ab 0041 
         0001ac 004E 
         0001ad 0044 
         0001ae 0020 
         0001af 0054 
         0001b0 0079 
         0001b1 0070 
         0001b2 0065 
         0001b3 000A 
         0001b4 0000 
    3575                      .align  2
    3576 0001b6 004E  $C$FSL30:       .string "NAND Flash Under Test is Big Block Device",10,10,0
         0001b7 0041 
         0001b8 004E 
         0001b9 0044 
         0001ba 0020 
         0001bb 0046 
         0001bc 006C 
         0001bd 0061 
         0001be 0073 
         0001bf 0068 
         0001c0 0020 
         0001c1 0055 
         0001c2 006E 
         0001c3 0064 
         0001c4 0065 
         0001c5 0072 
         0001c6 0020 
         0001c7 0054 
         0001c8 0065 
         0001c9 0073 
         0001ca 0074 
         0001cb 0020 
         0001cc 0069 
         0001cd 0073 
         0001ce 0020 
         0001cf 0042 
         0001d0 0069 
         0001d1 0067 
         0001d2 0020 
         0001d3 0042 
         0001d4 006C 
         0001d5 006F 
         0001d6 0063 
         0001d7 006B 
         0001d8 0020 
         0001d9 0044 
         0001da 0065 
         0001db 0076 
         0001dc 0069 
         0001dd 0063 
TMS320C55x Assembler PC v4.4.1 Sat Sep 29 23:08:57 2018

Tools Copyright (c) 1996-2012 Texas Instruments Incorporated
csl_nand_dma_example.asm                                             PAGE   95

         0001de 0065 
         0001df 000A 
         0001e0 000A 
         0001e1 0000 
    3577                      .align  2
    3578 0001e2 004E  $C$FSL31:       .string "NAND Flash Under Test is Small Block Device",10,10,0
         0001e3 0041 
         0001e4 004E 
         0001e5 0044 
         0001e6 0020 
         0001e7 0046 
         0001e8 006C 
         0001e9 0061 
         0001ea 0073 
         0001eb 0068 
         0001ec 0020 
         0001ed 0055 
         0001ee 006E 
         0001ef 0064 
         0001f0 0065 
         0001f1 0072 
         0001f2 0020 
         0001f3 0054 
         0001f4 0065 
         0001f5 0073 
         0001f6 0074 
         0001f7 0020 
         0001f8 0069 
         0001f9 0073 
         0001fa 0020 
         0001fb 0053 
         0001fc 006D 
         0001fd 0061 
         0001fe 006C 
         0001ff 006C 
         000200 0020 
         000201 0042 
         000202 006C 
         000203 006F 
         000204 0063 
         000205 006B 
         000206 0020 
         000207 0044 
         000208 0065 
         000209 0076 
         00020a 0069 
         00020b 0063 
         00020c 0065 
         00020d 000A 
         00020e 000A 
         00020f 0000 
    3579                      .align  2
    3580 000210 004E  $C$FSL32:       .string "NAND Send command Failed!!",10,0
         000211 0041 
         000212 004E 
TMS320C55x Assembler PC v4.4.1 Sat Sep 29 23:08:57 2018

Tools Copyright (c) 1996-2012 Texas Instruments Incorporated
csl_nand_dma_example.asm                                             PAGE   96

         000213 0044 
         000214 0020 
         000215 0053 
         000216 0065 
         000217 006E 
         000218 0064 
         000219 0020 
         00021a 0063 
         00021b 006F 
         00021c 006D 
         00021d 006D 
         00021e 0061 
         00021f 006E 
         000220 0064 
         000221 0020 
         000222 0046 
         000223 0061 
         000224 0069 
         000225 006C 
         000226 0065 
         000227 0064 
         000228 0021 
         000229 0021 
         00022a 000A 
         00022b 0000 
    3581                      .align  2
    3582 00022c 004E  $C$FSL33:       .string "NAND Check command status Failed!!",10,0
         00022d 0041 
         00022e 004E 
         00022f 0044 
         000230 0020 
         000231 0043 
         000232 0068 
         000233 0065 
         000234 0063 
         000235 006B 
         000236 0020 
         000237 0063 
         000238 006F 
         000239 006D 
         00023a 006D 
         00023b 0061 
         00023c 006E 
         00023d 0064 
         00023e 0020 
         00023f 0073 
         000240 0074 
         000241 0061 
         000242 0074 
         000243 0075 
         000244 0073 
         000245 0020 
         000246 0046 
         000247 0061 
         000248 0069 
TMS320C55x Assembler PC v4.4.1 Sat Sep 29 23:08:57 2018

Tools Copyright (c) 1996-2012 Texas Instruments Incorporated
csl_nand_dma_example.asm                                             PAGE   97

         000249 006C 
         00024a 0065 
         00024b 0064 
         00024c 0021 
         00024d 0021 
         00024e 000A 
         00024f 0000 
    3583                      .align  2
    3584 000250 004E  $C$FSL34:       .string "NAND is write protected!!",10,0
         000251 0041 
         000252 004E 
         000253 0044 
         000254 0020 
         000255 0069 
         000256 0073 
         000257 0020 
         000258 0077 
         000259 0072 
         00025a 0069 
         00025b 0074 
         00025c 0065 
         00025d 0020 
         00025e 0070 
         00025f 0072 
         000260 006F 
         000261 0074 
         000262 0065 
         000263 0063 
         000264 0074 
         000265 0065 
         000266 0064 
         000267 0021 
         000268 0021 
         000269 000A 
         00026a 0000 
    3585                      .align  2
    3586 00026c 0044  $C$FSL35:       .string "DMA Config for Nand Write Failed!",10,"!",0
         00026d 004D 
         00026e 0041 
         00026f 0020 
         000270 0043 
         000271 006F 
         000272 006E 
         000273 0066 
         000274 0069 
         000275 0067 
         000276 0020 
         000277 0066 
         000278 006F 
         000279 0072 
         00027a 0020 
         00027b 004E 
         00027c 0061 
         00027d 006E 
         00027e 0064 
TMS320C55x Assembler PC v4.4.1 Sat Sep 29 23:08:57 2018

Tools Copyright (c) 1996-2012 Texas Instruments Incorporated
csl_nand_dma_example.asm                                             PAGE   98

         00027f 0020 
         000280 0057 
         000281 0072 
         000282 0069 
         000283 0074 
         000284 0065 
         000285 0020 
         000286 0046 
         000287 0061 
         000288 0069 
         000289 006C 
         00028a 0065 
         00028b 0064 
         00028c 0021 
         00028d 000A 
         00028e 0021 
         00028f 0000 
    3587                      .align  2
    3588 000290 0044  $C$FSL36:       .string "DMA Config for Nand Read Failed!",10,"!",0
         000291 004D 
         000292 0041 
         000293 0020 
         000294 0043 
         000295 006F 
         000296 006E 
         000297 0066 
         000298 0069 
         000299 0067 
         00029a 0020 
         00029b 0066 
         00029c 006F 
         00029d 0072 
         00029e 0020 
         00029f 004E 
         0002a0 0061 
         0002a1 006E 
         0002a2 0064 
         0002a3 0020 
         0002a4 0052 
         0002a5 0065 
         0002a6 0061 
         0002a7 0064 
         0002a8 0020 
         0002a9 0046 
         0002aa 0061 
         0002ab 0069 
         0002ac 006C 
         0002ad 0065 
         0002ae 0064 
         0002af 0021 
         0002b0 000A 
         0002b1 0021 
         0002b2 0000 
    3589                      .align  2
    3590 0002b4 004E  $C$FSL37:       .string "NAND Set Address Failed!!",10,0
TMS320C55x Assembler PC v4.4.1 Sat Sep 29 23:08:57 2018

Tools Copyright (c) 1996-2012 Texas Instruments Incorporated
csl_nand_dma_example.asm                                             PAGE   99

         0002b5 0041 
         0002b6 004E 
         0002b7 0044 
         0002b8 0020 
         0002b9 0053 
         0002ba 0065 
         0002bb 0074 
         0002bc 0020 
         0002bd 0041 
         0002be 0064 
         0002bf 0064 
         0002c0 0072 
         0002c1 0065 
         0002c2 0073 
         0002c3 0073 
         0002c4 0020 
         0002c5 0046 
         0002c6 0061 
         0002c7 0069 
         0002c8 006C 
         0002c9 0065 
         0002ca 0064 
         0002cb 0021 
         0002cc 0021 
         0002cd 000A 
         0002ce 0000 
    3591                      .align  2
    3592 0002d0 004E  $C$FSL38:       .string "NAND Enable Ecc Failed!!",10,0
         0002d1 0041 
         0002d2 004E 
         0002d3 0044 
         0002d4 0020 
         0002d5 0045 
         0002d6 006E 
         0002d7 0061 
         0002d8 0062 
         0002d9 006C 
         0002da 0065 
         0002db 0020 
         0002dc 0045 
         0002dd 0063 
         0002de 0063 
         0002df 0020 
         0002e0 0046 
         0002e1 0061 
         0002e2 0069 
         0002e3 006C 
         0002e4 0065 
         0002e5 0064 
         0002e6 0021 
         0002e7 0021 
         0002e8 000A 
         0002e9 0000 
    3593                      .align  2
    3594 0002ea 004E  $C$FSL39:       .string "NAND Dma Write Failed!!",10,0
TMS320C55x Assembler PC v4.4.1 Sat Sep 29 23:08:57 2018

Tools Copyright (c) 1996-2012 Texas Instruments Incorporated
csl_nand_dma_example.asm                                             PAGE  100

         0002eb 0041 
         0002ec 004E 
         0002ed 0044 
         0002ee 0020 
         0002ef 0044 
         0002f0 006D 
         0002f1 0061 
         0002f2 0020 
         0002f3 0057 
         0002f4 0072 
         0002f5 0069 
         0002f6 0074 
         0002f7 0065 
         0002f8 0020 
         0002f9 0046 
         0002fa 0061 
         0002fb 0069 
         0002fc 006C 
         0002fd 0065 
         0002fe 0064 
         0002ff 0021 
         000300 0021 
         000301 000A 
         000302 0000 
    3595                      .align  2
    3596 000304 0044  $C$FSL40:       .string "DMA Data Write to NAND Complete",10,0
         000305 004D 
         000306 0041 
         000307 0020 
         000308 0044 
         000309 0061 
         00030a 0074 
         00030b 0061 
         00030c 0020 
         00030d 0057 
         00030e 0072 
         00030f 0069 
         000310 0074 
         000311 0065 
         000312 0020 
         000313 0074 
         000314 006F 
         000315 0020 
         000316 004E 
         000317 0041 
         000318 004E 
         000319 0044 
         00031a 0020 
         00031b 0043 
         00031c 006F 
         00031d 006D 
         00031e 0070 
         00031f 006C 
         000320 0065 
         000321 0074 
TMS320C55x Assembler PC v4.4.1 Sat Sep 29 23:08:57 2018

Tools Copyright (c) 1996-2012 Texas Instruments Incorporated
csl_nand_dma_example.asm                                             PAGE  101

         000322 0065 
         000323 000A 
         000324 0000 
    3597                      .align  2
    3598 000326 004E  $C$FSL41:       .string "NAND Read Ecc Failed!!",10,0
         000327 0041 
         000328 004E 
         000329 0044 
         00032a 0020 
         00032b 0052 
         00032c 0065 
         00032d 0061 
         00032e 0064 
         00032f 0020 
         000330 0045 
         000331 0063 
         000332 0063 
         000333 0020 
         000334 0046 
         000335 0061 
         000336 0069 
         000337 006C 
         000338 0065 
         000339 0064 
         00033a 0021 
         00033b 0021 
         00033c 000A 
         00033d 0000 
    3599                      .align  2
    3600 00033e 004E  $C$FSL42:       .string "NAND Disable Ecc Failed!!",10,0
         00033f 0041 
         000340 004E 
         000341 0044 
         000342 0020 
         000343 0044 
         000344 0069 
         000345 0073 
         000346 0061 
         000347 0062 
         000348 006C 
         000349 0065 
         00034a 0020 
         00034b 0045 
         00034c 0063 
         00034d 0063 
         00034e 0020 
         00034f 0046 
         000350 0061 
         000351 0069 
         000352 006C 
         000353 0065 
         000354 0064 
         000355 0021 
         000356 0021 
         000357 000A 
TMS320C55x Assembler PC v4.4.1 Sat Sep 29 23:08:57 2018

Tools Copyright (c) 1996-2012 Texas Instruments Incorporated
csl_nand_dma_example.asm                                             PAGE  102

         000358 0000 
    3601                      .align  2
    3602 00035a 004E  $C$FSL43:       .string "NAND Dma Read Failed!!",10,0
         00035b 0041 
         00035c 004E 
         00035d 0044 
         00035e 0020 
         00035f 0044 
         000360 006D 
         000361 0061 
         000362 0020 
         000363 0052 
         000364 0065 
         000365 0061 
         000366 0064 
         000367 0020 
         000368 0046 
         000369 0061 
         00036a 0069 
         00036b 006C 
         00036c 0065 
         00036d 0064 
         00036e 0021 
         00036f 0021 
         000370 000A 
         000371 0000 
    3603                      .align  2
    3604 000372 0044  $C$FSL44:       .string "DMA Data Read from NAND Complete",10,0
         000373 004D 
         000374 0041 
         000375 0020 
         000376 0044 
         000377 0061 
         000378 0074 
         000379 0061 
         00037a 0020 
         00037b 0052 
         00037c 0065 
         00037d 0061 
         00037e 0064 
         00037f 0020 
         000380 0066 
         000381 0072 
         000382 006F 
         000383 006D 
         000384 0020 
         000385 004E 
         000386 0041 
         000387 004E 
         000388 0044 
         000389 0020 
         00038a 0043 
         00038b 006F 
         00038c 006D 
         00038d 0070 
TMS320C55x Assembler PC v4.4.1 Sat Sep 29 23:08:57 2018

Tools Copyright (c) 1996-2012 Texas Instruments Incorporated
csl_nand_dma_example.asm                                             PAGE  103

         00038e 006C 
         00038f 0065 
         000390 0074 
         000391 0065 
         000392 000A 
         000393 0000 
    3605                      .align  2
    3606 000394 000A  $C$FSL45:       .string 10,"NAND Read Write Buffers doesn't Match!",10,0
         000395 004E 
         000396 0041 
         000397 004E 
         000398 0044 
         000399 0020 
         00039a 0052 
         00039b 0065 
         00039c 0061 
         00039d 0064 
         00039e 0020 
         00039f 0057 
         0003a0 0072 
         0003a1 0069 
         0003a2 0074 
         0003a3 0065 
         0003a4 0020 
         0003a5 0042 
         0003a6 0075 
         0003a7 0066 
         0003a8 0066 
         0003a9 0065 
         0003aa 0072 
         0003ab 0073 
         0003ac 0020 
         0003ad 0064 
         0003ae 006F 
         0003af 0065 
         0003b0 0073 
         0003b1 006E 
         0003b2 0027 
         0003b3 0074 
         0003b4 0020 
         0003b5 004D 
         0003b6 0061 
         0003b7 0074 
         0003b8 0063 
         0003b9 0068 
         0003ba 0021 
         0003bb 000A 
         0003bc 0000 
    3607                      .align  2
    3608 0003be 000A  $C$FSL46:       .string 10,"NAND Read Write Buffers Match!",10,0
         0003bf 004E 
         0003c0 0041 
         0003c1 004E 
         0003c2 0044 
         0003c3 0020 
TMS320C55x Assembler PC v4.4.1 Sat Sep 29 23:08:57 2018

Tools Copyright (c) 1996-2012 Texas Instruments Incorporated
csl_nand_dma_example.asm                                             PAGE  104

         0003c4 0052 
         0003c5 0065 
         0003c6 0061 
         0003c7 0064 
         0003c8 0020 
         0003c9 0057 
         0003ca 0072 
         0003cb 0069 
         0003cc 0074 
         0003cd 0065 
         0003ce 0020 
         0003cf 0042 
         0003d0 0075 
         0003d1 0066 
         0003d2 0066 
         0003d3 0065 
         0003d4 0072 
         0003d5 0073 
         0003d6 0020 
         0003d7 004D 
         0003d8 0061 
         0003d9 0074 
         0003da 0063 
         0003db 0068 
         0003dc 0021 
         0003dd 000A 
         0003de 0000 
    3609                      .align  2
    3610 0003e0 0044  $C$FSL47:       .string "DMA_open Failed!",10,0
         0003e1 004D 
         0003e2 0041 
         0003e3 005F 
         0003e4 006F 
         0003e5 0070 
         0003e6 0065 
         0003e7 006E 
         0003e8 0020 
         0003e9 0046 
         0003ea 0061 
         0003eb 0069 
         0003ec 006C 
         0003ed 0065 
         0003ee 0064 
         0003ef 0021 
         0003f0 000A 
         0003f1 0000 
    3611                      .align  2
    3612 0003f2 0044  $C$FSL48:       .string "DMA_config Failed!",10,0
         0003f3 004D 
         0003f4 0041 
         0003f5 005F 
         0003f6 0063 
         0003f7 006F 
         0003f8 006E 
         0003f9 0066 
TMS320C55x Assembler PC v4.4.1 Sat Sep 29 23:08:57 2018

Tools Copyright (c) 1996-2012 Texas Instruments Incorporated
csl_nand_dma_example.asm                                             PAGE  105

         0003fa 0069 
         0003fb 0067 
         0003fc 0020 
         0003fd 0046 
         0003fe 0061 
         0003ff 0069 
         000400 006C 
         000401 0065 
         000402 0064 
         000403 0021 
         000404 000A 
         000405 0000 
    3613                      .align  2
    3614 000406 004E  $C$FSL49:       .string "Nand device Id not found in the Lookup Table!!",10,0
         000407 0061 
         000408 006E 
         000409 0064 
         00040a 0020 
         00040b 0064 
         00040c 0065 
         00040d 0076 
         00040e 0069 
         00040f 0063 
         000410 0065 
         000411 0020 
         000412 0049 
         000413 0064 
         000414 0020 
         000415 006E 
         000416 006F 
         000417 0074 
         000418 0020 
         000419 0066 
         00041a 006F 
         00041b 0075 
         00041c 006E 
         00041d 0064 
         00041e 0020 
         00041f 0069 
         000420 006E 
         000421 0020 
         000422 0074 
         000423 0068 
         000424 0065 
         000425 0020 
         000426 004C 
         000427 006F 
         000428 006F 
         000429 006B 
         00042a 0075 
         00042b 0070 
         00042c 0020 
         00042d 0054 
         00042e 0061 
         00042f 0062 
TMS320C55x Assembler PC v4.4.1 Sat Sep 29 23:08:57 2018

Tools Copyright (c) 1996-2012 Texas Instruments Incorporated
csl_nand_dma_example.asm                                             PAGE  106

         000430 006C 
         000431 0065 
         000432 0021 
         000433 0021 
         000434 000A 
         000435 0000 
    3615              ;******************************************************************************
    3616              ;* UNDEFINED EXTERNAL REFERENCES                                              *
    3617              ;******************************************************************************
    3618                      .global _NAND_init
    3619                      .global _NAND_setup
    3620                      .global _NAND_getBankInfo
    3621                      .global _NAND_isStatusWriteProtected
    3622                      .global _NAND_sendCommand
    3623                      .global _NAND_checkCommandStatus
    3624                      .global _NAND_setAddress
    3625                      .global _NAND_enableHwECC
    3626                      .global _NAND_disableHwECC
    3627                      .global _NAND_readECC
    3628                      .global _DMA_init
    3629                      .global _DMA_open
    3630                      .global _DMA_config
    3631                      .global _DMA_start
    3632                      .global _printf
    3633                      .global __divul
    3634              
    3635              ;*******************************************************************************
    3636              ;* TYPE INFORMATION                                                            *
    3637              ;*******************************************************************************
    3638              
    3639              $C$DW$T$37      .dwtag  DW_TAG_enumeration_type
    3640                      .dwattr $C$DW$T$37, DW_AT_byte_size(0x01)
    3641              $C$DW$246       .dwtag  DW_TAG_enumerator, DW_AT_name("CSL_DMA_CHAN0"), DW_AT_const_value(0x00)
    3642              $C$DW$247       .dwtag  DW_TAG_enumerator, DW_AT_name("CSL_DMA_CHAN1"), DW_AT_const_value(0x01)
    3643              $C$DW$248       .dwtag  DW_TAG_enumerator, DW_AT_name("CSL_DMA_CHAN2"), DW_AT_const_value(0x02)
    3644              $C$DW$249       .dwtag  DW_TAG_enumerator, DW_AT_name("CSL_DMA_CHAN3"), DW_AT_const_value(0x03)
    3645              $C$DW$250       .dwtag  DW_TAG_enumerator, DW_AT_name("CSL_DMA_CHAN4"), DW_AT_const_value(0x04)
    3646              $C$DW$251       .dwtag  DW_TAG_enumerator, DW_AT_name("CSL_DMA_CHAN5"), DW_AT_const_value(0x05)
    3647              $C$DW$252       .dwtag  DW_TAG_enumerator, DW_AT_name("CSL_DMA_CHAN6"), DW_AT_const_value(0x06)
    3648              $C$DW$253       .dwtag  DW_TAG_enumerator, DW_AT_name("CSL_DMA_CHAN7"), DW_AT_const_value(0x07)
    3649              $C$DW$254       .dwtag  DW_TAG_enumerator, DW_AT_name("CSL_DMA_CHAN8"), DW_AT_const_value(0x08)
    3650              $C$DW$255       .dwtag  DW_TAG_enumerator, DW_AT_name("CSL_DMA_CHAN9"), DW_AT_const_value(0x09)
    3651              $C$DW$256       .dwtag  DW_TAG_enumerator, DW_AT_name("CSL_DMA_CHAN10"), DW_AT_const_value(0x0a)
    3652              $C$DW$257       .dwtag  DW_TAG_enumerator, DW_AT_name("CSL_DMA_CHAN11"), DW_AT_const_value(0x0b)
    3653              $C$DW$258       .dwtag  DW_TAG_enumerator, DW_AT_name("CSL_DMA_CHAN12"), DW_AT_const_value(0x0c)
    3654              $C$DW$259       .dwtag  DW_TAG_enumerator, DW_AT_name("CSL_DMA_CHAN13"), DW_AT_const_value(0x0d)
    3655              $C$DW$260       .dwtag  DW_TAG_enumerator, DW_AT_name("CSL_DMA_CHAN14"), DW_AT_const_value(0x0e)
    3656              $C$DW$261       .dwtag  DW_TAG_enumerator, DW_AT_name("CSL_DMA_CHAN15"), DW_AT_const_value(0x0f)
    3657              $C$DW$262       .dwtag  DW_TAG_enumerator, DW_AT_name("CSL_DMA_CHAN_INV"), DW_AT_const_value(0x10)
    3658                      .dwendtag $C$DW$T$37
    3659              
    3660              $C$DW$T$38      .dwtag  DW_TAG_typedef, DW_AT_name("CSL_DMAChanNum")
    3661                      .dwattr $C$DW$T$38, DW_AT_type(*$C$DW$T$37)
    3662                      .dwattr $C$DW$T$38, DW_AT_language(DW_LANG_C)
    3663              
TMS320C55x Assembler PC v4.4.1 Sat Sep 29 23:08:57 2018

Tools Copyright (c) 1996-2012 Texas Instruments Incorporated
csl_nand_dma_example.asm                                             PAGE  107

    3664              $C$DW$T$39      .dwtag  DW_TAG_enumeration_type
    3665                      .dwattr $C$DW$T$39, DW_AT_byte_size(0x01)
    3666              $C$DW$263       .dwtag  DW_TAG_enumerator, DW_AT_name("CSL_DMA_ENGINE0"), DW_AT_const_value(0x00)
    3667              $C$DW$264       .dwtag  DW_TAG_enumerator, DW_AT_name("CSL_DMA_ENGINE1"), DW_AT_const_value(0x01)
    3668              $C$DW$265       .dwtag  DW_TAG_enumerator, DW_AT_name("CSL_DMA_ENGINE2"), DW_AT_const_value(0x02)
    3669              $C$DW$266       .dwtag  DW_TAG_enumerator, DW_AT_name("CSL_DMA_ENGINE3"), DW_AT_const_value(0x03)
    3670              $C$DW$267       .dwtag  DW_TAG_enumerator, DW_AT_name("CSL_DMA_ENGINEINV"), DW_AT_const_value(0x04)
    3671                      .dwendtag $C$DW$T$39
    3672              
    3673              $C$DW$T$40      .dwtag  DW_TAG_typedef, DW_AT_name("CSL_DMAEngineId")
    3674                      .dwattr $C$DW$T$40, DW_AT_type(*$C$DW$T$39)
    3675                      .dwattr $C$DW$T$40, DW_AT_language(DW_LANG_C)
    3676              
    3677              $C$DW$T$42      .dwtag  DW_TAG_enumeration_type
    3678                      .dwattr $C$DW$T$42, DW_AT_byte_size(0x01)
    3679              $C$DW$268       .dwtag  DW_TAG_enumerator, DW_AT_name("CSL_DMA_READ"), DW_AT_const_value(0x00)
    3680              $C$DW$269       .dwtag  DW_TAG_enumerator, DW_AT_name("CSL_DMA_WRITE"), DW_AT_const_value(0x01)
    3681                      .dwendtag $C$DW$T$42
    3682              
    3683              $C$DW$T$43      .dwtag  DW_TAG_typedef, DW_AT_name("CSL_DMAChanDir")
    3684                      .dwattr $C$DW$T$43, DW_AT_type(*$C$DW$T$42)
    3685                      .dwattr $C$DW$T$43, DW_AT_language(DW_LANG_C)
    3686              
    3687              $C$DW$T$44      .dwtag  DW_TAG_enumeration_type
    3688                      .dwattr $C$DW$T$44, DW_AT_byte_size(0x01)
    3689              $C$DW$270       .dwtag  DW_TAG_enumerator, DW_AT_name("CSL_DMA_SOFTWARE_TRIGGER"), DW_AT_const_value(0x00)
    3690              $C$DW$271       .dwtag  DW_TAG_enumerator, DW_AT_name("CSL_DMA_EVENT_TRIGGER"), DW_AT_const_value(0x01)
    3691                      .dwendtag $C$DW$T$44
    3692              
    3693              $C$DW$T$45      .dwtag  DW_TAG_typedef, DW_AT_name("CSL_DMATriggerType")
    3694                      .dwattr $C$DW$T$45, DW_AT_type(*$C$DW$T$44)
    3695                      .dwattr $C$DW$T$45, DW_AT_language(DW_LANG_C)
    3696              
    3697              $C$DW$T$46      .dwtag  DW_TAG_enumeration_type
    3698                      .dwattr $C$DW$T$46, DW_AT_byte_size(0x01)
    3699              $C$DW$272       .dwtag  DW_TAG_enumerator, DW_AT_name("CSL_DMA_TRANSFER_IO_MEMORY"), DW_AT_const_value(0x00)
    3700              $C$DW$273       .dwtag  DW_TAG_enumerator, DW_AT_name("CSL_DMA_TRANSFER_MEMORY"), DW_AT_const_value(0x01)
    3701                      .dwendtag $C$DW$T$46
    3702              
    3703              $C$DW$T$47      .dwtag  DW_TAG_typedef, DW_AT_name("CSL_DMATransferType")
    3704                      .dwattr $C$DW$T$47, DW_AT_type(*$C$DW$T$46)
    3705                      .dwattr $C$DW$T$47, DW_AT_language(DW_LANG_C)
    3706              
    3707              $C$DW$T$48      .dwtag  DW_TAG_enumeration_type
    3708                      .dwattr $C$DW$T$48, DW_AT_byte_size(0x01)
    3709              $C$DW$274       .dwtag  DW_TAG_enumerator, DW_AT_name("CSL_DMA_INTERRUPT_DISABLE"), DW_AT_const_value(0x00)
    3710              $C$DW$275       .dwtag  DW_TAG_enumerator, DW_AT_name("CSL_DMA_INTERRUPT_ENABLE"), DW_AT_const_value(0x01)
    3711                      .dwendtag $C$DW$T$48
    3712              
    3713              $C$DW$T$49      .dwtag  DW_TAG_typedef, DW_AT_name("CSL_DMAInterruptState")
    3714                      .dwattr $C$DW$T$49, DW_AT_type(*$C$DW$T$48)
    3715                      .dwattr $C$DW$T$49, DW_AT_language(DW_LANG_C)
    3716              
    3717              $C$DW$T$51      .dwtag  DW_TAG_enumeration_type
    3718                      .dwattr $C$DW$T$51, DW_AT_byte_size(0x01)
TMS320C55x Assembler PC v4.4.1 Sat Sep 29 23:08:57 2018

Tools Copyright (c) 1996-2012 Texas Instruments Incorporated
csl_nand_dma_example.asm                                             PAGE  108

    3719              $C$DW$276       .dwtag  DW_TAG_enumerator, DW_AT_name("CSL_DMA_PING_PONG_DISABLE"), DW_AT_const_value(0x00)
    3720              $C$DW$277       .dwtag  DW_TAG_enumerator, DW_AT_name("CSL_DMA_PING_PONG_ENABLE"), DW_AT_const_value(0x01)
    3721                      .dwendtag $C$DW$T$51
    3722              
    3723              $C$DW$T$52      .dwtag  DW_TAG_typedef, DW_AT_name("CSL_DMAPingPongMode")
    3724                      .dwattr $C$DW$T$52, DW_AT_type(*$C$DW$T$51)
    3725                      .dwattr $C$DW$T$52, DW_AT_language(DW_LANG_C)
    3726              
    3727              $C$DW$T$53      .dwtag  DW_TAG_enumeration_type
    3728                      .dwattr $C$DW$T$53, DW_AT_byte_size(0x01)
    3729              $C$DW$278       .dwtag  DW_TAG_enumerator, DW_AT_name("CSL_DMA_AUTORELOAD_DISABLE"), DW_AT_const_value(0x00)
    3730              $C$DW$279       .dwtag  DW_TAG_enumerator, DW_AT_name("CSL_DMA_AUTORELOAD_ENABLE"), DW_AT_const_value(0x01)
    3731                      .dwendtag $C$DW$T$53
    3732              
    3733              $C$DW$T$54      .dwtag  DW_TAG_typedef, DW_AT_name("CSL_DMAAutoReloadMode")
    3734                      .dwattr $C$DW$T$54, DW_AT_type(*$C$DW$T$53)
    3735                      .dwattr $C$DW$T$54, DW_AT_language(DW_LANG_C)
    3736              
    3737              $C$DW$T$55      .dwtag  DW_TAG_enumeration_type
    3738                      .dwattr $C$DW$T$55, DW_AT_byte_size(0x01)
    3739              $C$DW$280       .dwtag  DW_TAG_enumerator, DW_AT_name("CSL_DMA_TXBURST_1WORD"), DW_AT_const_value(0x00)
    3740              $C$DW$281       .dwtag  DW_TAG_enumerator, DW_AT_name("CSL_DMA_TXBURST_2WORD"), DW_AT_const_value(0x01)
    3741              $C$DW$282       .dwtag  DW_TAG_enumerator, DW_AT_name("CSL_DMA_TXBURST_4WORD"), DW_AT_const_value(0x02)
    3742              $C$DW$283       .dwtag  DW_TAG_enumerator, DW_AT_name("CSL_DMA_TXBURST_8WORD"), DW_AT_const_value(0x03)
    3743              $C$DW$284       .dwtag  DW_TAG_enumerator, DW_AT_name("CSL_DMA_TXBURST_16WORD"), DW_AT_const_value(0x04)
    3744                      .dwendtag $C$DW$T$55
    3745              
    3746              $C$DW$T$56      .dwtag  DW_TAG_typedef, DW_AT_name("CSL_DMATxBurstLen")
    3747                      .dwattr $C$DW$T$56, DW_AT_type(*$C$DW$T$55)
    3748                      .dwattr $C$DW$T$56, DW_AT_language(DW_LANG_C)
    3749              
    3750              $C$DW$T$57      .dwtag  DW_TAG_enumeration_type
    3751                      .dwattr $C$DW$T$57, DW_AT_byte_size(0x01)
    3752              $C$DW$285       .dwtag  DW_TAG_enumerator, DW_AT_name("CSL_DMA_EVT_NONE"), DW_AT_const_value(0x00)
    3753              $C$DW$286       .dwtag  DW_TAG_enumerator, DW_AT_name("CSL_DMA_EVT_I2S0_TX"), DW_AT_const_value(0x01)
    3754              $C$DW$287       .dwtag  DW_TAG_enumerator, DW_AT_name("CSL_DMA_EVT_I2S0_RX"), DW_AT_const_value(0x02)
    3755              $C$DW$288       .dwtag  DW_TAG_enumerator, DW_AT_name("CSL_DMA_EVT_I2S1_TX"), DW_AT_const_value(0x01)
    3756              $C$DW$289       .dwtag  DW_TAG_enumerator, DW_AT_name("CSL_DMA_EVT_I2S1_RX"), DW_AT_const_value(0x02)
    3757              $C$DW$290       .dwtag  DW_TAG_enumerator, DW_AT_name("CSL_DMA_EVT_I2S2_TX"), DW_AT_const_value(0x01)
    3758              $C$DW$291       .dwtag  DW_TAG_enumerator, DW_AT_name("CSL_DMA_EVT_I2S2_RX"), DW_AT_const_value(0x02)
    3759              $C$DW$292       .dwtag  DW_TAG_enumerator, DW_AT_name("CSL_DMA_EVT_I2S3_TX"), DW_AT_const_value(0x04)
    3760              $C$DW$293       .dwtag  DW_TAG_enumerator, DW_AT_name("CSL_DMA_EVT_I2S3_RX"), DW_AT_const_value(0x05)
    3761              $C$DW$294       .dwtag  DW_TAG_enumerator, DW_AT_name("CSL_DMA_EVT_MMC_SD0_TX"), DW_AT_const_value(0x05)
    3762              $C$DW$295       .dwtag  DW_TAG_enumerator, DW_AT_name("CSL_DMA_EVT_MMC_SD0_RX"), DW_AT_const_value(0x06)
    3763              $C$DW$296       .dwtag  DW_TAG_enumerator, DW_AT_name("CSL_DMA_EVT_MMC_SD1_TX"), DW_AT_const_value(0x07)
    3764              $C$DW$297       .dwtag  DW_TAG_enumerator, DW_AT_name("CSL_DMA_EVT_MMC_SD1_RX"), DW_AT_const_value(0x08)
    3765              $C$DW$298       .dwtag  DW_TAG_enumerator, DW_AT_name("CSL_DMA_EVT_TIMER0"), DW_AT_const_value(0x0c)
    3766              $C$DW$299       .dwtag  DW_TAG_enumerator, DW_AT_name("CSL_DMA_EVT_TIMER1"), DW_AT_const_value(0x0d)
    3767              $C$DW$300       .dwtag  DW_TAG_enumerator, DW_AT_name("CSL_DMA_EVT_TIMER2"), DW_AT_const_value(0x0e)
    3768              $C$DW$301       .dwtag  DW_TAG_enumerator, DW_AT_name("CSL_DMA_EVT_UART_TX"), DW_AT_const_value(0x05)
    3769              $C$DW$302       .dwtag  DW_TAG_enumerator, DW_AT_name("CSL_DMA_EVT_UART_RX"), DW_AT_const_value(0x06)
    3770              $C$DW$303       .dwtag  DW_TAG_enumerator, DW_AT_name("CSL_DMA_EVT_I2C_TX"), DW_AT_const_value(0x01)
    3771              $C$DW$304       .dwtag  DW_TAG_enumerator, DW_AT_name("CSL_DMA_EVT_I2C_RX"), DW_AT_const_value(0x02)
    3772              $C$DW$305       .dwtag  DW_TAG_enumerator, DW_AT_name("CSL_DMA_EVT_SAR_AD"), DW_AT_const_value(0x03)
    3773              $C$DW$306       .dwtag  DW_TAG_enumerator, DW_AT_name("CSL_DMA_EVT_INVALID"), DW_AT_const_value(0x04)
TMS320C55x Assembler PC v4.4.1 Sat Sep 29 23:08:57 2018

Tools Copyright (c) 1996-2012 Texas Instruments Incorporated
csl_nand_dma_example.asm                                             PAGE  109

    3774                      .dwendtag $C$DW$T$57
    3775              
    3776              $C$DW$T$58      .dwtag  DW_TAG_typedef, DW_AT_name("CSL_DMAEvtType")
    3777                      .dwattr $C$DW$T$58, DW_AT_type(*$C$DW$T$57)
    3778                      .dwattr $C$DW$T$58, DW_AT_language(DW_LANG_C)
    3779              
    3780              $C$DW$T$63      .dwtag  DW_TAG_enumeration_type
    3781                      .dwattr $C$DW$T$63, DW_AT_byte_size(0x01)
    3782              $C$DW$307       .dwtag  DW_TAG_enumerator, DW_AT_name("CSL_NAND_8_BIT"), DW_AT_const_value(0x00)
    3783              $C$DW$308       .dwtag  DW_TAG_enumerator, DW_AT_name("CSL_NAND_16_BIT"), DW_AT_const_value(0x01)
    3784                      .dwendtag $C$DW$T$63
    3785              
    3786              $C$DW$T$64      .dwtag  DW_TAG_typedef, DW_AT_name("CSL_NandWidth")
    3787                      .dwattr $C$DW$T$64, DW_AT_type(*$C$DW$T$63)
    3788                      .dwattr $C$DW$T$64, DW_AT_language(DW_LANG_C)
    3789              
    3790              $C$DW$T$69      .dwtag  DW_TAG_enumeration_type
    3791                      .dwattr $C$DW$T$69, DW_AT_byte_size(0x01)
    3792              $C$DW$309       .dwtag  DW_TAG_enumerator, DW_AT_name("CSL_NAND_WP_LOW"), DW_AT_const_value(0x00)
    3793              $C$DW$310       .dwtag  DW_TAG_enumerator, DW_AT_name("CSL_NAND_WP_HIGH"), DW_AT_const_value(0x01)
    3794                      .dwendtag $C$DW$T$69
    3795              
    3796              $C$DW$T$70      .dwtag  DW_TAG_typedef, DW_AT_name("CSL_NandWaitPol")
    3797                      .dwattr $C$DW$T$70, DW_AT_type(*$C$DW$T$69)
    3798                      .dwattr $C$DW$T$70, DW_AT_language(DW_LANG_C)
    3799              
    3800              $C$DW$T$71      .dwtag  DW_TAG_enumeration_type
    3801                      .dwattr $C$DW$T$71, DW_AT_byte_size(0x01)
    3802              $C$DW$311       .dwtag  DW_TAG_enumerator, DW_AT_name("CSL_NAND_RDY0"), DW_AT_const_value(0x00)
    3803              $C$DW$312       .dwtag  DW_TAG_enumerator, DW_AT_name("CSL_NAND_RDY1"), DW_AT_const_value(0x01)
    3804              $C$DW$313       .dwtag  DW_TAG_enumerator, DW_AT_name("CSL_ASYNC_RDY0"), DW_AT_const_value(0x02)
    3805              $C$DW$314       .dwtag  DW_TAG_enumerator, DW_AT_name("CSL_ASYNC_RDY1"), DW_AT_const_value(0x03)
    3806                      .dwendtag $C$DW$T$71
    3807              
    3808              $C$DW$T$72      .dwtag  DW_TAG_typedef, DW_AT_name("CSL_NandPort")
    3809                      .dwattr $C$DW$T$72, DW_AT_type(*$C$DW$T$71)
    3810                      .dwattr $C$DW$T$72, DW_AT_language(DW_LANG_C)
    3811              
    3812              $C$DW$T$74      .dwtag  DW_TAG_enumeration_type
    3813                      .dwattr $C$DW$T$74, DW_AT_byte_size(0x01)
    3814              $C$DW$315       .dwtag  DW_TAG_enumerator, DW_AT_name("CSL_NAND_PAGESZ_256"), DW_AT_const_value(0x00)
    3815              $C$DW$316       .dwtag  DW_TAG_enumerator, DW_AT_name("CSL_NAND_PAGESZ_512"), DW_AT_const_value(0x01)
    3816              $C$DW$317       .dwtag  DW_TAG_enumerator, DW_AT_name("CSL_NAND_PAGESZ_1024"), DW_AT_const_value(0x02)
    3817              $C$DW$318       .dwtag  DW_TAG_enumerator, DW_AT_name("CSL_NAND_PAGESZ_2048"), DW_AT_const_value(0x03)
    3818                      .dwendtag $C$DW$T$74
    3819              
    3820              $C$DW$T$75      .dwtag  DW_TAG_typedef, DW_AT_name("CSL_NandPageSize")
    3821                      .dwattr $C$DW$T$75, DW_AT_type(*$C$DW$T$74)
    3822                      .dwattr $C$DW$T$75, DW_AT_language(DW_LANG_C)
    3823              
    3824              $C$DW$T$76      .dwtag  DW_TAG_enumeration_type
    3825                      .dwattr $C$DW$T$76, DW_AT_byte_size(0x01)
    3826              $C$DW$319       .dwtag  DW_TAG_enumerator, DW_AT_name("CSL_NAND_BANK_0"), DW_AT_const_value(0x00)
    3827              $C$DW$320       .dwtag  DW_TAG_enumerator, DW_AT_name("CSL_NAND_BANK_1"), DW_AT_const_value(0x01)
    3828              $C$DW$321       .dwtag  DW_TAG_enumerator, DW_AT_name("CSL_NAND_BANK_2"), DW_AT_const_value(0x02)
TMS320C55x Assembler PC v4.4.1 Sat Sep 29 23:08:57 2018

Tools Copyright (c) 1996-2012 Texas Instruments Incorporated
csl_nand_dma_example.asm                                             PAGE  110

    3829              $C$DW$322       .dwtag  DW_TAG_enumerator, DW_AT_name("CSL_NAND_BANK_3"), DW_AT_const_value(0x03)
    3830              $C$DW$323       .dwtag  DW_TAG_enumerator, DW_AT_name("CSL_NAND_BANK_MAX"), DW_AT_const_value(0x04)
    3831                      .dwendtag $C$DW$T$76
    3832              
    3833              $C$DW$T$77      .dwtag  DW_TAG_typedef, DW_AT_name("CSL_NandBankNo")
    3834                      .dwattr $C$DW$T$77, DW_AT_type(*$C$DW$T$76)
    3835                      .dwattr $C$DW$T$77, DW_AT_language(DW_LANG_C)
    3836              
    3837              $C$DW$T$78      .dwtag  DW_TAG_enumeration_type
    3838                      .dwattr $C$DW$T$78, DW_AT_byte_size(0x01)
    3839              $C$DW$324       .dwtag  DW_TAG_enumerator, DW_AT_name("CSL_NAND_EMIF_16BIT"), DW_AT_const_value(0x00)
    3840              $C$DW$325       .dwtag  DW_TAG_enumerator, DW_AT_name("CSL_NAND_EMIF_8BIT_HIGH"), DW_AT_const_value(0x01)
    3841              $C$DW$326       .dwtag  DW_TAG_enumerator, DW_AT_name("CSL_NAND_EMIF_8BIT_LOW"), DW_AT_const_value(0x02)
    3842                      .dwendtag $C$DW$T$78
    3843              
    3844              $C$DW$T$79      .dwtag  DW_TAG_typedef, DW_AT_name("CSL_NandEmifAccess")
    3845                      .dwattr $C$DW$T$79, DW_AT_type(*$C$DW$T$78)
    3846                      .dwattr $C$DW$T$79, DW_AT_language(DW_LANG_C)
    3847              
    3848              $C$DW$T$80      .dwtag  DW_TAG_enumeration_type
    3849                      .dwattr $C$DW$T$80, DW_AT_byte_size(0x01)
    3850              $C$DW$327       .dwtag  DW_TAG_enumerator, DW_AT_name("CSL_NAND_OPMODE_POLLED"), DW_AT_const_value(0x00)
    3851              $C$DW$328       .dwtag  DW_TAG_enumerator, DW_AT_name("CSL_NAND_OPMODE_DMA"), DW_AT_const_value(0x01)
    3852              $C$DW$329       .dwtag  DW_TAG_enumerator, DW_AT_name("CSL_NAND_OPMODE_INTRRUPT"), DW_AT_const_value(0x02)
    3853                      .dwendtag $C$DW$T$80
    3854              
    3855              $C$DW$T$81      .dwtag  DW_TAG_typedef, DW_AT_name("CSL_NandOpMode")
    3856                      .dwattr $C$DW$T$81, DW_AT_type(*$C$DW$T$80)
    3857                      .dwattr $C$DW$T$81, DW_AT_language(DW_LANG_C)
    3858              
    3859              $C$DW$T$82      .dwtag  DW_TAG_enumeration_type
    3860                      .dwattr $C$DW$T$82, DW_AT_byte_size(0x01)
    3861              $C$DW$330       .dwtag  DW_TAG_enumerator, DW_AT_name("CSL_NAND_NONE"), DW_AT_const_value(0x00)
    3862              $C$DW$331       .dwtag  DW_TAG_enumerator, DW_AT_name("CSL_NAND_BIG_BLOCK"), DW_AT_const_value(0x01)
    3863              $C$DW$332       .dwtag  DW_TAG_enumerator, DW_AT_name("CSL_NAND_SMALL_BLOCK"), DW_AT_const_value(0x02)
    3864              $C$DW$333       .dwtag  DW_TAG_enumerator, DW_AT_name("CSL_NAND_INVALID"), DW_AT_const_value(0x03)
    3865                      .dwendtag $C$DW$T$82
    3866              
    3867              $C$DW$T$83      .dwtag  DW_TAG_typedef, DW_AT_name("CSL_NandType")
    3868                      .dwattr $C$DW$T$83, DW_AT_type(*$C$DW$T$82)
    3869                      .dwattr $C$DW$T$83, DW_AT_language(DW_LANG_C)
    3870              
    3871              $C$DW$T$84      .dwtag  DW_TAG_enumeration_type
    3872                      .dwattr $C$DW$T$84, DW_AT_byte_size(0x01)
    3873              $C$DW$334       .dwtag  DW_TAG_enumerator, DW_AT_name("CSL_NAND_CS2"), DW_AT_const_value(0x00)
    3874              $C$DW$335       .dwtag  DW_TAG_enumerator, DW_AT_name("CSL_NAND_CS3"), DW_AT_const_value(0x01)
    3875              $C$DW$336       .dwtag  DW_TAG_enumerator, DW_AT_name("CSL_NAND_CS4"), DW_AT_const_value(0x02)
    3876              $C$DW$337       .dwtag  DW_TAG_enumerator, DW_AT_name("CSL_NAND_CS5"), DW_AT_const_value(0x03)
    3877                      .dwendtag $C$DW$T$84
    3878              
    3879              $C$DW$T$85      .dwtag  DW_TAG_typedef, DW_AT_name("CSL_NandChipSelect")
    3880                      .dwattr $C$DW$T$85, DW_AT_type(*$C$DW$T$84)
    3881                      .dwattr $C$DW$T$85, DW_AT_language(DW_LANG_C)
    3882              
    3883              $C$DW$T$27      .dwtag  DW_TAG_structure_type
TMS320C55x Assembler PC v4.4.1 Sat Sep 29 23:08:57 2018

Tools Copyright (c) 1996-2012 Texas Instruments Incorporated
csl_nand_dma_example.asm                                             PAGE  111

    3884                      .dwattr $C$DW$T$27, DW_AT_byte_size(0xde)
    3885              $C$DW$338       .dwtag  DW_TAG_member
    3886                      .dwattr $C$DW$338, DW_AT_type(*$C$DW$T$20)
    3887                      .dwattr $C$DW$338, DW_AT_name("REV")
    3888                      .dwattr $C$DW$338, DW_AT_TI_symbol_name("_REV")
    3889                      .dwattr $C$DW$338, DW_AT_data_member_location[DW_OP_plus_uconst 0x0]
    3890                      .dwattr $C$DW$338, DW_AT_accessibility(DW_ACCESS_public)
    3891              $C$DW$339       .dwtag  DW_TAG_member
    3892                      .dwattr $C$DW$339, DW_AT_type(*$C$DW$T$20)
    3893                      .dwattr $C$DW$339, DW_AT_name("STATUS")
    3894                      .dwattr $C$DW$339, DW_AT_TI_symbol_name("_STATUS")
    3895                      .dwattr $C$DW$339, DW_AT_data_member_location[DW_OP_plus_uconst 0x1]
    3896                      .dwattr $C$DW$339, DW_AT_accessibility(DW_ACCESS_public)
    3897              $C$DW$340       .dwtag  DW_TAG_member
    3898                      .dwattr $C$DW$340, DW_AT_type(*$C$DW$T$21)
    3899                      .dwattr $C$DW$340, DW_AT_name("RSVD0")
    3900                      .dwattr $C$DW$340, DW_AT_TI_symbol_name("_RSVD0")
    3901                      .dwattr $C$DW$340, DW_AT_data_member_location[DW_OP_plus_uconst 0x2]
    3902                      .dwattr $C$DW$340, DW_AT_accessibility(DW_ACCESS_public)
    3903              $C$DW$341       .dwtag  DW_TAG_member
    3904                      .dwattr $C$DW$341, DW_AT_type(*$C$DW$T$20)
    3905                      .dwattr $C$DW$341, DW_AT_name("AWCCR1")
    3906                      .dwattr $C$DW$341, DW_AT_TI_symbol_name("_AWCCR1")
    3907                      .dwattr $C$DW$341, DW_AT_data_member_location[DW_OP_plus_uconst 0x4]
    3908                      .dwattr $C$DW$341, DW_AT_accessibility(DW_ACCESS_public)
    3909              $C$DW$342       .dwtag  DW_TAG_member
    3910                      .dwattr $C$DW$342, DW_AT_type(*$C$DW$T$20)
    3911                      .dwattr $C$DW$342, DW_AT_name("AWCCR2")
    3912                      .dwattr $C$DW$342, DW_AT_TI_symbol_name("_AWCCR2")
    3913                      .dwattr $C$DW$342, DW_AT_data_member_location[DW_OP_plus_uconst 0x5]
    3914                      .dwattr $C$DW$342, DW_AT_accessibility(DW_ACCESS_public)
    3915              $C$DW$343       .dwtag  DW_TAG_member
    3916                      .dwattr $C$DW$343, DW_AT_type(*$C$DW$T$21)
    3917                      .dwattr $C$DW$343, DW_AT_name("RSVD1")
    3918                      .dwattr $C$DW$343, DW_AT_TI_symbol_name("_RSVD1")
    3919                      .dwattr $C$DW$343, DW_AT_data_member_location[DW_OP_plus_uconst 0x6]
    3920                      .dwattr $C$DW$343, DW_AT_accessibility(DW_ACCESS_public)
    3921              $C$DW$344       .dwtag  DW_TAG_member
    3922                      .dwattr $C$DW$344, DW_AT_type(*$C$DW$T$20)
    3923                      .dwattr $C$DW$344, DW_AT_name("SDCR1")
    3924                      .dwattr $C$DW$344, DW_AT_TI_symbol_name("_SDCR1")
    3925                      .dwattr $C$DW$344, DW_AT_data_member_location[DW_OP_plus_uconst 0x8]
    3926                      .dwattr $C$DW$344, DW_AT_accessibility(DW_ACCESS_public)
    3927              $C$DW$345       .dwtag  DW_TAG_member
    3928                      .dwattr $C$DW$345, DW_AT_type(*$C$DW$T$20)
    3929                      .dwattr $C$DW$345, DW_AT_name("SDCR2")
    3930                      .dwattr $C$DW$345, DW_AT_TI_symbol_name("_SDCR2")
    3931                      .dwattr $C$DW$345, DW_AT_data_member_location[DW_OP_plus_uconst 0x9]
    3932                      .dwattr $C$DW$345, DW_AT_accessibility(DW_ACCESS_public)
    3933              $C$DW$346       .dwtag  DW_TAG_member
    3934                      .dwattr $C$DW$346, DW_AT_type(*$C$DW$T$21)
    3935                      .dwattr $C$DW$346, DW_AT_name("RSVD2")
    3936                      .dwattr $C$DW$346, DW_AT_TI_symbol_name("_RSVD2")
    3937                      .dwattr $C$DW$346, DW_AT_data_member_location[DW_OP_plus_uconst 0xa]
    3938                      .dwattr $C$DW$346, DW_AT_accessibility(DW_ACCESS_public)
TMS320C55x Assembler PC v4.4.1 Sat Sep 29 23:08:57 2018

Tools Copyright (c) 1996-2012 Texas Instruments Incorporated
csl_nand_dma_example.asm                                             PAGE  112

    3939              $C$DW$347       .dwtag  DW_TAG_member
    3940                      .dwattr $C$DW$347, DW_AT_type(*$C$DW$T$20)
    3941                      .dwattr $C$DW$347, DW_AT_name("SDRCR")
    3942                      .dwattr $C$DW$347, DW_AT_TI_symbol_name("_SDRCR")
    3943                      .dwattr $C$DW$347, DW_AT_data_member_location[DW_OP_plus_uconst 0xc]
    3944                      .dwattr $C$DW$347, DW_AT_accessibility(DW_ACCESS_public)
    3945              $C$DW$348       .dwtag  DW_TAG_member
    3946                      .dwattr $C$DW$348, DW_AT_type(*$C$DW$T$22)
    3947                      .dwattr $C$DW$348, DW_AT_name("RSVD3")
    3948                      .dwattr $C$DW$348, DW_AT_TI_symbol_name("_RSVD3")
    3949                      .dwattr $C$DW$348, DW_AT_data_member_location[DW_OP_plus_uconst 0xd]
    3950                      .dwattr $C$DW$348, DW_AT_accessibility(DW_ACCESS_public)
    3951              $C$DW$349       .dwtag  DW_TAG_member
    3952                      .dwattr $C$DW$349, DW_AT_type(*$C$DW$T$20)
    3953                      .dwattr $C$DW$349, DW_AT_name("ACS2CR1")
    3954                      .dwattr $C$DW$349, DW_AT_TI_symbol_name("_ACS2CR1")
    3955                      .dwattr $C$DW$349, DW_AT_data_member_location[DW_OP_plus_uconst 0x10]
    3956                      .dwattr $C$DW$349, DW_AT_accessibility(DW_ACCESS_public)
    3957              $C$DW$350       .dwtag  DW_TAG_member
    3958                      .dwattr $C$DW$350, DW_AT_type(*$C$DW$T$20)
    3959                      .dwattr $C$DW$350, DW_AT_name("ACS2CR2")
    3960                      .dwattr $C$DW$350, DW_AT_TI_symbol_name("_ACS2CR2")
    3961                      .dwattr $C$DW$350, DW_AT_data_member_location[DW_OP_plus_uconst 0x11]
    3962                      .dwattr $C$DW$350, DW_AT_accessibility(DW_ACCESS_public)
    3963              $C$DW$351       .dwtag  DW_TAG_member
    3964                      .dwattr $C$DW$351, DW_AT_type(*$C$DW$T$21)
    3965                      .dwattr $C$DW$351, DW_AT_name("RSVD4")
    3966                      .dwattr $C$DW$351, DW_AT_TI_symbol_name("_RSVD4")
    3967                      .dwattr $C$DW$351, DW_AT_data_member_location[DW_OP_plus_uconst 0x12]
    3968                      .dwattr $C$DW$351, DW_AT_accessibility(DW_ACCESS_public)
    3969              $C$DW$352       .dwtag  DW_TAG_member
    3970                      .dwattr $C$DW$352, DW_AT_type(*$C$DW$T$20)
    3971                      .dwattr $C$DW$352, DW_AT_name("ACS3CR1")
    3972                      .dwattr $C$DW$352, DW_AT_TI_symbol_name("_ACS3CR1")
    3973                      .dwattr $C$DW$352, DW_AT_data_member_location[DW_OP_plus_uconst 0x14]
    3974                      .dwattr $C$DW$352, DW_AT_accessibility(DW_ACCESS_public)
    3975              $C$DW$353       .dwtag  DW_TAG_member
    3976                      .dwattr $C$DW$353, DW_AT_type(*$C$DW$T$20)
    3977                      .dwattr $C$DW$353, DW_AT_name("ACS3CR2")
    3978                      .dwattr $C$DW$353, DW_AT_TI_symbol_name("_ACS3CR2")
    3979                      .dwattr $C$DW$353, DW_AT_data_member_location[DW_OP_plus_uconst 0x15]
    3980                      .dwattr $C$DW$353, DW_AT_accessibility(DW_ACCESS_public)
    3981              $C$DW$354       .dwtag  DW_TAG_member
    3982                      .dwattr $C$DW$354, DW_AT_type(*$C$DW$T$21)
    3983                      .dwattr $C$DW$354, DW_AT_name("RSVD5")
    3984                      .dwattr $C$DW$354, DW_AT_TI_symbol_name("_RSVD5")
    3985                      .dwattr $C$DW$354, DW_AT_data_member_location[DW_OP_plus_uconst 0x16]
    3986                      .dwattr $C$DW$354, DW_AT_accessibility(DW_ACCESS_public)
    3987              $C$DW$355       .dwtag  DW_TAG_member
    3988                      .dwattr $C$DW$355, DW_AT_type(*$C$DW$T$20)
    3989                      .dwattr $C$DW$355, DW_AT_name("ACS4CR1")
    3990                      .dwattr $C$DW$355, DW_AT_TI_symbol_name("_ACS4CR1")
    3991                      .dwattr $C$DW$355, DW_AT_data_member_location[DW_OP_plus_uconst 0x18]
    3992                      .dwattr $C$DW$355, DW_AT_accessibility(DW_ACCESS_public)
    3993              $C$DW$356       .dwtag  DW_TAG_member
TMS320C55x Assembler PC v4.4.1 Sat Sep 29 23:08:57 2018

Tools Copyright (c) 1996-2012 Texas Instruments Incorporated
csl_nand_dma_example.asm                                             PAGE  113

    3994                      .dwattr $C$DW$356, DW_AT_type(*$C$DW$T$20)
    3995                      .dwattr $C$DW$356, DW_AT_name("ACS4CR2")
    3996                      .dwattr $C$DW$356, DW_AT_TI_symbol_name("_ACS4CR2")
    3997                      .dwattr $C$DW$356, DW_AT_data_member_location[DW_OP_plus_uconst 0x19]
    3998                      .dwattr $C$DW$356, DW_AT_accessibility(DW_ACCESS_public)
    3999              $C$DW$357       .dwtag  DW_TAG_member
    4000                      .dwattr $C$DW$357, DW_AT_type(*$C$DW$T$21)
    4001                      .dwattr $C$DW$357, DW_AT_name("RSVD6")
    4002                      .dwattr $C$DW$357, DW_AT_TI_symbol_name("_RSVD6")
    4003                      .dwattr $C$DW$357, DW_AT_data_member_location[DW_OP_plus_uconst 0x1a]
    4004                      .dwattr $C$DW$357, DW_AT_accessibility(DW_ACCESS_public)
    4005              $C$DW$358       .dwtag  DW_TAG_member
    4006                      .dwattr $C$DW$358, DW_AT_type(*$C$DW$T$20)
    4007                      .dwattr $C$DW$358, DW_AT_name("ACS5CR1")
    4008                      .dwattr $C$DW$358, DW_AT_TI_symbol_name("_ACS5CR1")
    4009                      .dwattr $C$DW$358, DW_AT_data_member_location[DW_OP_plus_uconst 0x1c]
    4010                      .dwattr $C$DW$358, DW_AT_accessibility(DW_ACCESS_public)
    4011              $C$DW$359       .dwtag  DW_TAG_member
    4012                      .dwattr $C$DW$359, DW_AT_type(*$C$DW$T$20)
    4013                      .dwattr $C$DW$359, DW_AT_name("ACS5CR2")
    4014                      .dwattr $C$DW$359, DW_AT_TI_symbol_name("_ACS5CR2")
    4015                      .dwattr $C$DW$359, DW_AT_data_member_location[DW_OP_plus_uconst 0x1d]
    4016                      .dwattr $C$DW$359, DW_AT_accessibility(DW_ACCESS_public)
    4017              $C$DW$360       .dwtag  DW_TAG_member
    4018                      .dwattr $C$DW$360, DW_AT_type(*$C$DW$T$21)
    4019                      .dwattr $C$DW$360, DW_AT_name("RSVD7")
    4020                      .dwattr $C$DW$360, DW_AT_TI_symbol_name("_RSVD7")
    4021                      .dwattr $C$DW$360, DW_AT_data_member_location[DW_OP_plus_uconst 0x1e]
    4022                      .dwattr $C$DW$360, DW_AT_accessibility(DW_ACCESS_public)
    4023              $C$DW$361       .dwtag  DW_TAG_member
    4024                      .dwattr $C$DW$361, DW_AT_type(*$C$DW$T$20)
    4025                      .dwattr $C$DW$361, DW_AT_name("SDTIMR1")
    4026                      .dwattr $C$DW$361, DW_AT_TI_symbol_name("_SDTIMR1")
    4027                      .dwattr $C$DW$361, DW_AT_data_member_location[DW_OP_plus_uconst 0x20]
    4028                      .dwattr $C$DW$361, DW_AT_accessibility(DW_ACCESS_public)
    4029              $C$DW$362       .dwtag  DW_TAG_member
    4030                      .dwattr $C$DW$362, DW_AT_type(*$C$DW$T$23)
    4031                      .dwattr $C$DW$362, DW_AT_name("RSVD8")
    4032                      .dwattr $C$DW$362, DW_AT_TI_symbol_name("_RSVD8")
    4033                      .dwattr $C$DW$362, DW_AT_data_member_location[DW_OP_plus_uconst 0x21]
    4034                      .dwattr $C$DW$362, DW_AT_accessibility(DW_ACCESS_public)
    4035              $C$DW$363       .dwtag  DW_TAG_member
    4036                      .dwattr $C$DW$363, DW_AT_type(*$C$DW$T$20)
    4037                      .dwattr $C$DW$363, DW_AT_name("SDSRETR")
    4038                      .dwattr $C$DW$363, DW_AT_TI_symbol_name("_SDSRETR")
    4039                      .dwattr $C$DW$363, DW_AT_data_member_location[DW_OP_plus_uconst 0x3c]
    4040                      .dwattr $C$DW$363, DW_AT_accessibility(DW_ACCESS_public)
    4041              $C$DW$364       .dwtag  DW_TAG_member
    4042                      .dwattr $C$DW$364, DW_AT_type(*$C$DW$T$22)
    4043                      .dwattr $C$DW$364, DW_AT_name("RSVD9")
    4044                      .dwattr $C$DW$364, DW_AT_TI_symbol_name("_RSVD9")
    4045                      .dwattr $C$DW$364, DW_AT_data_member_location[DW_OP_plus_uconst 0x3d]
    4046                      .dwattr $C$DW$364, DW_AT_accessibility(DW_ACCESS_public)
    4047              $C$DW$365       .dwtag  DW_TAG_member
    4048                      .dwattr $C$DW$365, DW_AT_type(*$C$DW$T$20)
TMS320C55x Assembler PC v4.4.1 Sat Sep 29 23:08:57 2018

Tools Copyright (c) 1996-2012 Texas Instruments Incorporated
csl_nand_dma_example.asm                                             PAGE  114

    4049                      .dwattr $C$DW$365, DW_AT_name("EIRR")
    4050                      .dwattr $C$DW$365, DW_AT_TI_symbol_name("_EIRR")
    4051                      .dwattr $C$DW$365, DW_AT_data_member_location[DW_OP_plus_uconst 0x40]
    4052                      .dwattr $C$DW$365, DW_AT_accessibility(DW_ACCESS_public)
    4053              $C$DW$366       .dwtag  DW_TAG_member
    4054                      .dwattr $C$DW$366, DW_AT_type(*$C$DW$T$22)
    4055                      .dwattr $C$DW$366, DW_AT_name("RSVD10")
    4056                      .dwattr $C$DW$366, DW_AT_TI_symbol_name("_RSVD10")
    4057                      .dwattr $C$DW$366, DW_AT_data_member_location[DW_OP_plus_uconst 0x41]
    4058                      .dwattr $C$DW$366, DW_AT_accessibility(DW_ACCESS_public)
    4059              $C$DW$367       .dwtag  DW_TAG_member
    4060                      .dwattr $C$DW$367, DW_AT_type(*$C$DW$T$20)
    4061                      .dwattr $C$DW$367, DW_AT_name("EIMR")
    4062                      .dwattr $C$DW$367, DW_AT_TI_symbol_name("_EIMR")
    4063                      .dwattr $C$DW$367, DW_AT_data_member_location[DW_OP_plus_uconst 0x44]
    4064                      .dwattr $C$DW$367, DW_AT_accessibility(DW_ACCESS_public)
    4065              $C$DW$368       .dwtag  DW_TAG_member
    4066                      .dwattr $C$DW$368, DW_AT_type(*$C$DW$T$22)
    4067                      .dwattr $C$DW$368, DW_AT_name("RSVD11")
    4068                      .dwattr $C$DW$368, DW_AT_TI_symbol_name("_RSVD11")
    4069                      .dwattr $C$DW$368, DW_AT_data_member_location[DW_OP_plus_uconst 0x45]
    4070                      .dwattr $C$DW$368, DW_AT_accessibility(DW_ACCESS_public)
    4071              $C$DW$369       .dwtag  DW_TAG_member
    4072                      .dwattr $C$DW$369, DW_AT_type(*$C$DW$T$20)
    4073                      .dwattr $C$DW$369, DW_AT_name("EIMSR")
    4074                      .dwattr $C$DW$369, DW_AT_TI_symbol_name("_EIMSR")
    4075                      .dwattr $C$DW$369, DW_AT_data_member_location[DW_OP_plus_uconst 0x48]
    4076                      .dwattr $C$DW$369, DW_AT_accessibility(DW_ACCESS_public)
    4077              $C$DW$370       .dwtag  DW_TAG_member
    4078                      .dwattr $C$DW$370, DW_AT_type(*$C$DW$T$22)
    4079                      .dwattr $C$DW$370, DW_AT_name("RSVD12")
    4080                      .dwattr $C$DW$370, DW_AT_TI_symbol_name("_RSVD12")
    4081                      .dwattr $C$DW$370, DW_AT_data_member_location[DW_OP_plus_uconst 0x49]
    4082                      .dwattr $C$DW$370, DW_AT_accessibility(DW_ACCESS_public)
    4083              $C$DW$371       .dwtag  DW_TAG_member
    4084                      .dwattr $C$DW$371, DW_AT_type(*$C$DW$T$20)
    4085                      .dwattr $C$DW$371, DW_AT_name("EIMCR")
    4086                      .dwattr $C$DW$371, DW_AT_TI_symbol_name("_EIMCR")
    4087                      .dwattr $C$DW$371, DW_AT_data_member_location[DW_OP_plus_uconst 0x4c]
    4088                      .dwattr $C$DW$371, DW_AT_accessibility(DW_ACCESS_public)
    4089              $C$DW$372       .dwtag  DW_TAG_member
    4090                      .dwattr $C$DW$372, DW_AT_type(*$C$DW$T$24)
    4091                      .dwattr $C$DW$372, DW_AT_name("RSVD13")
    4092                      .dwattr $C$DW$372, DW_AT_TI_symbol_name("_RSVD13")
    4093                      .dwattr $C$DW$372, DW_AT_data_member_location[DW_OP_plus_uconst 0x4d]
    4094                      .dwattr $C$DW$372, DW_AT_accessibility(DW_ACCESS_public)
    4095              $C$DW$373       .dwtag  DW_TAG_member
    4096                      .dwattr $C$DW$373, DW_AT_type(*$C$DW$T$20)
    4097                      .dwattr $C$DW$373, DW_AT_name("NANDFCR")
    4098                      .dwattr $C$DW$373, DW_AT_TI_symbol_name("_NANDFCR")
    4099                      .dwattr $C$DW$373, DW_AT_data_member_location[DW_OP_plus_uconst 0x60]
    4100                      .dwattr $C$DW$373, DW_AT_accessibility(DW_ACCESS_public)
    4101              $C$DW$374       .dwtag  DW_TAG_member
    4102                      .dwattr $C$DW$374, DW_AT_type(*$C$DW$T$22)
    4103                      .dwattr $C$DW$374, DW_AT_name("RSVD14")
TMS320C55x Assembler PC v4.4.1 Sat Sep 29 23:08:57 2018

Tools Copyright (c) 1996-2012 Texas Instruments Incorporated
csl_nand_dma_example.asm                                             PAGE  115

    4104                      .dwattr $C$DW$374, DW_AT_TI_symbol_name("_RSVD14")
    4105                      .dwattr $C$DW$374, DW_AT_data_member_location[DW_OP_plus_uconst 0x61]
    4106                      .dwattr $C$DW$374, DW_AT_accessibility(DW_ACCESS_public)
    4107              $C$DW$375       .dwtag  DW_TAG_member
    4108                      .dwattr $C$DW$375, DW_AT_type(*$C$DW$T$20)
    4109                      .dwattr $C$DW$375, DW_AT_name("NANDFSR1")
    4110                      .dwattr $C$DW$375, DW_AT_TI_symbol_name("_NANDFSR1")
    4111                      .dwattr $C$DW$375, DW_AT_data_member_location[DW_OP_plus_uconst 0x64]
    4112                      .dwattr $C$DW$375, DW_AT_accessibility(DW_ACCESS_public)
    4113              $C$DW$376       .dwtag  DW_TAG_member
    4114                      .dwattr $C$DW$376, DW_AT_type(*$C$DW$T$20)
    4115                      .dwattr $C$DW$376, DW_AT_name("NANDFSR2")
    4116                      .dwattr $C$DW$376, DW_AT_TI_symbol_name("_NANDFSR2")
    4117                      .dwattr $C$DW$376, DW_AT_data_member_location[DW_OP_plus_uconst 0x65]
    4118                      .dwattr $C$DW$376, DW_AT_accessibility(DW_ACCESS_public)
    4119              $C$DW$377       .dwtag  DW_TAG_member
    4120                      .dwattr $C$DW$377, DW_AT_type(*$C$DW$T$21)
    4121                      .dwattr $C$DW$377, DW_AT_name("RSVD15")
    4122                      .dwattr $C$DW$377, DW_AT_TI_symbol_name("_RSVD15")
    4123                      .dwattr $C$DW$377, DW_AT_data_member_location[DW_OP_plus_uconst 0x66]
    4124                      .dwattr $C$DW$377, DW_AT_accessibility(DW_ACCESS_public)
    4125              $C$DW$378       .dwtag  DW_TAG_member
    4126                      .dwattr $C$DW$378, DW_AT_type(*$C$DW$T$20)
    4127                      .dwattr $C$DW$378, DW_AT_name("PAGEMODCTRL1")
    4128                      .dwattr $C$DW$378, DW_AT_TI_symbol_name("_PAGEMODCTRL1")
    4129                      .dwattr $C$DW$378, DW_AT_data_member_location[DW_OP_plus_uconst 0x68]
    4130                      .dwattr $C$DW$378, DW_AT_accessibility(DW_ACCESS_public)
    4131              $C$DW$379       .dwtag  DW_TAG_member
    4132                      .dwattr $C$DW$379, DW_AT_type(*$C$DW$T$20)
    4133                      .dwattr $C$DW$379, DW_AT_name("PAGEMODCTRL2")
    4134                      .dwattr $C$DW$379, DW_AT_TI_symbol_name("_PAGEMODCTRL2")
    4135                      .dwattr $C$DW$379, DW_AT_data_member_location[DW_OP_plus_uconst 0x69]
    4136                      .dwattr $C$DW$379, DW_AT_accessibility(DW_ACCESS_public)
    4137              $C$DW$380       .dwtag  DW_TAG_member
    4138                      .dwattr $C$DW$380, DW_AT_type(*$C$DW$T$25)
    4139                      .dwattr $C$DW$380, DW_AT_name("RSVD16")
    4140                      .dwattr $C$DW$380, DW_AT_TI_symbol_name("_RSVD16")
    4141                      .dwattr $C$DW$380, DW_AT_data_member_location[DW_OP_plus_uconst 0x6a]
    4142                      .dwattr $C$DW$380, DW_AT_accessibility(DW_ACCESS_public)
    4143              $C$DW$381       .dwtag  DW_TAG_member
    4144                      .dwattr $C$DW$381, DW_AT_type(*$C$DW$T$20)
    4145                      .dwattr $C$DW$381, DW_AT_name("NCS2ECC1")
    4146                      .dwattr $C$DW$381, DW_AT_TI_symbol_name("_NCS2ECC1")
    4147                      .dwattr $C$DW$381, DW_AT_data_member_location[DW_OP_plus_uconst 0x70]
    4148                      .dwattr $C$DW$381, DW_AT_accessibility(DW_ACCESS_public)
    4149              $C$DW$382       .dwtag  DW_TAG_member
    4150                      .dwattr $C$DW$382, DW_AT_type(*$C$DW$T$20)
    4151                      .dwattr $C$DW$382, DW_AT_name("NCS2ECC2")
    4152                      .dwattr $C$DW$382, DW_AT_TI_symbol_name("_NCS2ECC2")
    4153                      .dwattr $C$DW$382, DW_AT_data_member_location[DW_OP_plus_uconst 0x71]
    4154                      .dwattr $C$DW$382, DW_AT_accessibility(DW_ACCESS_public)
    4155              $C$DW$383       .dwtag  DW_TAG_member
    4156                      .dwattr $C$DW$383, DW_AT_type(*$C$DW$T$21)
    4157                      .dwattr $C$DW$383, DW_AT_name("RSVD17")
    4158                      .dwattr $C$DW$383, DW_AT_TI_symbol_name("_RSVD17")
TMS320C55x Assembler PC v4.4.1 Sat Sep 29 23:08:57 2018

Tools Copyright (c) 1996-2012 Texas Instruments Incorporated
csl_nand_dma_example.asm                                             PAGE  116

    4159                      .dwattr $C$DW$383, DW_AT_data_member_location[DW_OP_plus_uconst 0x72]
    4160                      .dwattr $C$DW$383, DW_AT_accessibility(DW_ACCESS_public)
    4161              $C$DW$384       .dwtag  DW_TAG_member
    4162                      .dwattr $C$DW$384, DW_AT_type(*$C$DW$T$20)
    4163                      .dwattr $C$DW$384, DW_AT_name("NCS3ECC1")
    4164                      .dwattr $C$DW$384, DW_AT_TI_symbol_name("_NCS3ECC1")
    4165                      .dwattr $C$DW$384, DW_AT_data_member_location[DW_OP_plus_uconst 0x74]
    4166                      .dwattr $C$DW$384, DW_AT_accessibility(DW_ACCESS_public)
    4167              $C$DW$385       .dwtag  DW_TAG_member
    4168                      .dwattr $C$DW$385, DW_AT_type(*$C$DW$T$20)
    4169                      .dwattr $C$DW$385, DW_AT_name("NCS3ECC2")
    4170                      .dwattr $C$DW$385, DW_AT_TI_symbol_name("_NCS3ECC2")
    4171                      .dwattr $C$DW$385, DW_AT_data_member_location[DW_OP_plus_uconst 0x75]
    4172                      .dwattr $C$DW$385, DW_AT_accessibility(DW_ACCESS_public)
    4173              $C$DW$386       .dwtag  DW_TAG_member
    4174                      .dwattr $C$DW$386, DW_AT_type(*$C$DW$T$21)
    4175                      .dwattr $C$DW$386, DW_AT_name("RSVD18")
    4176                      .dwattr $C$DW$386, DW_AT_TI_symbol_name("_RSVD18")
    4177                      .dwattr $C$DW$386, DW_AT_data_member_location[DW_OP_plus_uconst 0x76]
    4178                      .dwattr $C$DW$386, DW_AT_accessibility(DW_ACCESS_public)
    4179              $C$DW$387       .dwtag  DW_TAG_member
    4180                      .dwattr $C$DW$387, DW_AT_type(*$C$DW$T$20)
    4181                      .dwattr $C$DW$387, DW_AT_name("NCS4ECC1")
    4182                      .dwattr $C$DW$387, DW_AT_TI_symbol_name("_NCS4ECC1")
    4183                      .dwattr $C$DW$387, DW_AT_data_member_location[DW_OP_plus_uconst 0x78]
    4184                      .dwattr $C$DW$387, DW_AT_accessibility(DW_ACCESS_public)
    4185              $C$DW$388       .dwtag  DW_TAG_member
    4186                      .dwattr $C$DW$388, DW_AT_type(*$C$DW$T$20)
    4187                      .dwattr $C$DW$388, DW_AT_name("NCS4ECC2")
    4188                      .dwattr $C$DW$388, DW_AT_TI_symbol_name("_NCS4ECC2")
    4189                      .dwattr $C$DW$388, DW_AT_data_member_location[DW_OP_plus_uconst 0x79]
    4190                      .dwattr $C$DW$388, DW_AT_accessibility(DW_ACCESS_public)
    4191              $C$DW$389       .dwtag  DW_TAG_member
    4192                      .dwattr $C$DW$389, DW_AT_type(*$C$DW$T$21)
    4193                      .dwattr $C$DW$389, DW_AT_name("RSVD19")
    4194                      .dwattr $C$DW$389, DW_AT_TI_symbol_name("_RSVD19")
    4195                      .dwattr $C$DW$389, DW_AT_data_member_location[DW_OP_plus_uconst 0x7a]
    4196                      .dwattr $C$DW$389, DW_AT_accessibility(DW_ACCESS_public)
    4197              $C$DW$390       .dwtag  DW_TAG_member
    4198                      .dwattr $C$DW$390, DW_AT_type(*$C$DW$T$20)
    4199                      .dwattr $C$DW$390, DW_AT_name("NCS5ECC1")
    4200                      .dwattr $C$DW$390, DW_AT_TI_symbol_name("_NCS5ECC1")
    4201                      .dwattr $C$DW$390, DW_AT_data_member_location[DW_OP_plus_uconst 0x7c]
    4202                      .dwattr $C$DW$390, DW_AT_accessibility(DW_ACCESS_public)
    4203              $C$DW$391       .dwtag  DW_TAG_member
    4204                      .dwattr $C$DW$391, DW_AT_type(*$C$DW$T$20)
    4205                      .dwattr $C$DW$391, DW_AT_name("NCS5ECC2")
    4206                      .dwattr $C$DW$391, DW_AT_TI_symbol_name("_NCS5ECC2")
    4207                      .dwattr $C$DW$391, DW_AT_data_member_location[DW_OP_plus_uconst 0x7d]
    4208                      .dwattr $C$DW$391, DW_AT_accessibility(DW_ACCESS_public)
    4209              $C$DW$392       .dwtag  DW_TAG_member
    4210                      .dwattr $C$DW$392, DW_AT_type(*$C$DW$T$26)
    4211                      .dwattr $C$DW$392, DW_AT_name("RSVD20")
    4212                      .dwattr $C$DW$392, DW_AT_TI_symbol_name("_RSVD20")
    4213                      .dwattr $C$DW$392, DW_AT_data_member_location[DW_OP_plus_uconst 0x7e]
TMS320C55x Assembler PC v4.4.1 Sat Sep 29 23:08:57 2018

Tools Copyright (c) 1996-2012 Texas Instruments Incorporated
csl_nand_dma_example.asm                                             PAGE  117

    4214                      .dwattr $C$DW$392, DW_AT_accessibility(DW_ACCESS_public)
    4215              $C$DW$393       .dwtag  DW_TAG_member
    4216                      .dwattr $C$DW$393, DW_AT_type(*$C$DW$T$20)
    4217                      .dwattr $C$DW$393, DW_AT_name("NAND4BITECCLOAD")
    4218                      .dwattr $C$DW$393, DW_AT_TI_symbol_name("_NAND4BITECCLOAD")
    4219                      .dwattr $C$DW$393, DW_AT_data_member_location[DW_OP_plus_uconst 0xbc]
    4220                      .dwattr $C$DW$393, DW_AT_accessibility(DW_ACCESS_public)
    4221              $C$DW$394       .dwtag  DW_TAG_member
    4222                      .dwattr $C$DW$394, DW_AT_type(*$C$DW$T$22)
    4223                      .dwattr $C$DW$394, DW_AT_name("RSVD21")
    4224                      .dwattr $C$DW$394, DW_AT_TI_symbol_name("_RSVD21")
    4225                      .dwattr $C$DW$394, DW_AT_data_member_location[DW_OP_plus_uconst 0xbd]
    4226                      .dwattr $C$DW$394, DW_AT_accessibility(DW_ACCESS_public)
    4227              $C$DW$395       .dwtag  DW_TAG_member
    4228                      .dwattr $C$DW$395, DW_AT_type(*$C$DW$T$20)
    4229                      .dwattr $C$DW$395, DW_AT_name("NAND4BITECC1")
    4230                      .dwattr $C$DW$395, DW_AT_TI_symbol_name("_NAND4BITECC1")
    4231                      .dwattr $C$DW$395, DW_AT_data_member_location[DW_OP_plus_uconst 0xc0]
    4232                      .dwattr $C$DW$395, DW_AT_accessibility(DW_ACCESS_public)
    4233              $C$DW$396       .dwtag  DW_TAG_member
    4234                      .dwattr $C$DW$396, DW_AT_type(*$C$DW$T$20)
    4235                      .dwattr $C$DW$396, DW_AT_name("NAND4BITECC2")
    4236                      .dwattr $C$DW$396, DW_AT_TI_symbol_name("_NAND4BITECC2")
    4237                      .dwattr $C$DW$396, DW_AT_data_member_location[DW_OP_plus_uconst 0xc1]
    4238                      .dwattr $C$DW$396, DW_AT_accessibility(DW_ACCESS_public)
    4239              $C$DW$397       .dwtag  DW_TAG_member
    4240                      .dwattr $C$DW$397, DW_AT_type(*$C$DW$T$21)
    4241                      .dwattr $C$DW$397, DW_AT_name("RSVD22")
    4242                      .dwattr $C$DW$397, DW_AT_TI_symbol_name("_RSVD22")
    4243                      .dwattr $C$DW$397, DW_AT_data_member_location[DW_OP_plus_uconst 0xc2]
    4244                      .dwattr $C$DW$397, DW_AT_accessibility(DW_ACCESS_public)
    4245              $C$DW$398       .dwtag  DW_TAG_member
    4246                      .dwattr $C$DW$398, DW_AT_type(*$C$DW$T$20)
    4247                      .dwattr $C$DW$398, DW_AT_name("NAND4BITECC3")
    4248                      .dwattr $C$DW$398, DW_AT_TI_symbol_name("_NAND4BITECC3")
    4249                      .dwattr $C$DW$398, DW_AT_data_member_location[DW_OP_plus_uconst 0xc4]
    4250                      .dwattr $C$DW$398, DW_AT_accessibility(DW_ACCESS_public)
    4251              $C$DW$399       .dwtag  DW_TAG_member
    4252                      .dwattr $C$DW$399, DW_AT_type(*$C$DW$T$20)
    4253                      .dwattr $C$DW$399, DW_AT_name("NAND4BITECC4")
    4254                      .dwattr $C$DW$399, DW_AT_TI_symbol_name("_NAND4BITECC4")
    4255                      .dwattr $C$DW$399, DW_AT_data_member_location[DW_OP_plus_uconst 0xc5]
    4256                      .dwattr $C$DW$399, DW_AT_accessibility(DW_ACCESS_public)
    4257              $C$DW$400       .dwtag  DW_TAG_member
    4258                      .dwattr $C$DW$400, DW_AT_type(*$C$DW$T$21)
    4259                      .dwattr $C$DW$400, DW_AT_name("RSVD23")
    4260                      .dwattr $C$DW$400, DW_AT_TI_symbol_name("_RSVD23")
    4261                      .dwattr $C$DW$400, DW_AT_data_member_location[DW_OP_plus_uconst 0xc6]
    4262                      .dwattr $C$DW$400, DW_AT_accessibility(DW_ACCESS_public)
    4263              $C$DW$401       .dwtag  DW_TAG_member
    4264                      .dwattr $C$DW$401, DW_AT_type(*$C$DW$T$20)
    4265                      .dwattr $C$DW$401, DW_AT_name("NAND4BITECC5")
    4266                      .dwattr $C$DW$401, DW_AT_TI_symbol_name("_NAND4BITECC5")
    4267                      .dwattr $C$DW$401, DW_AT_data_member_location[DW_OP_plus_uconst 0xc8]
    4268                      .dwattr $C$DW$401, DW_AT_accessibility(DW_ACCESS_public)
TMS320C55x Assembler PC v4.4.1 Sat Sep 29 23:08:57 2018

Tools Copyright (c) 1996-2012 Texas Instruments Incorporated
csl_nand_dma_example.asm                                             PAGE  118

    4269              $C$DW$402       .dwtag  DW_TAG_member
    4270                      .dwattr $C$DW$402, DW_AT_type(*$C$DW$T$20)
    4271                      .dwattr $C$DW$402, DW_AT_name("NAND4BITECC6")
    4272                      .dwattr $C$DW$402, DW_AT_TI_symbol_name("_NAND4BITECC6")
    4273                      .dwattr $C$DW$402, DW_AT_data_member_location[DW_OP_plus_uconst 0xc9]
    4274                      .dwattr $C$DW$402, DW_AT_accessibility(DW_ACCESS_public)
    4275              $C$DW$403       .dwtag  DW_TAG_member
    4276                      .dwattr $C$DW$403, DW_AT_type(*$C$DW$T$21)
    4277                      .dwattr $C$DW$403, DW_AT_name("RSVD24")
    4278                      .dwattr $C$DW$403, DW_AT_TI_symbol_name("_RSVD24")
    4279                      .dwattr $C$DW$403, DW_AT_data_member_location[DW_OP_plus_uconst 0xca]
    4280                      .dwattr $C$DW$403, DW_AT_accessibility(DW_ACCESS_public)
    4281              $C$DW$404       .dwtag  DW_TAG_member
    4282                      .dwattr $C$DW$404, DW_AT_type(*$C$DW$T$20)
    4283                      .dwattr $C$DW$404, DW_AT_name("NAND4BITECC7")
    4284                      .dwattr $C$DW$404, DW_AT_TI_symbol_name("_NAND4BITECC7")
    4285                      .dwattr $C$DW$404, DW_AT_data_member_location[DW_OP_plus_uconst 0xcc]
    4286                      .dwattr $C$DW$404, DW_AT_accessibility(DW_ACCESS_public)
    4287              $C$DW$405       .dwtag  DW_TAG_member
    4288                      .dwattr $C$DW$405, DW_AT_type(*$C$DW$T$20)
    4289                      .dwattr $C$DW$405, DW_AT_name("NAND4BITECC8")
    4290                      .dwattr $C$DW$405, DW_AT_TI_symbol_name("_NAND4BITECC8")
    4291                      .dwattr $C$DW$405, DW_AT_data_member_location[DW_OP_plus_uconst 0xcd]
    4292                      .dwattr $C$DW$405, DW_AT_accessibility(DW_ACCESS_public)
    4293              $C$DW$406       .dwtag  DW_TAG_member
    4294                      .dwattr $C$DW$406, DW_AT_type(*$C$DW$T$21)
    4295                      .dwattr $C$DW$406, DW_AT_name("RSVD25")
    4296                      .dwattr $C$DW$406, DW_AT_TI_symbol_name("_RSVD25")
    4297                      .dwattr $C$DW$406, DW_AT_data_member_location[DW_OP_plus_uconst 0xce]
    4298                      .dwattr $C$DW$406, DW_AT_accessibility(DW_ACCESS_public)
    4299              $C$DW$407       .dwtag  DW_TAG_member
    4300                      .dwattr $C$DW$407, DW_AT_type(*$C$DW$T$20)
    4301                      .dwattr $C$DW$407, DW_AT_name("NANDERRADD1")
    4302                      .dwattr $C$DW$407, DW_AT_TI_symbol_name("_NANDERRADD1")
    4303                      .dwattr $C$DW$407, DW_AT_data_member_location[DW_OP_plus_uconst 0xd0]
    4304                      .dwattr $C$DW$407, DW_AT_accessibility(DW_ACCESS_public)
    4305              $C$DW$408       .dwtag  DW_TAG_member
    4306                      .dwattr $C$DW$408, DW_AT_type(*$C$DW$T$20)
    4307                      .dwattr $C$DW$408, DW_AT_name("NANDERRADD2")
    4308                      .dwattr $C$DW$408, DW_AT_TI_symbol_name("_NANDERRADD2")
    4309                      .dwattr $C$DW$408, DW_AT_data_member_location[DW_OP_plus_uconst 0xd1]
    4310                      .dwattr $C$DW$408, DW_AT_accessibility(DW_ACCESS_public)
    4311              $C$DW$409       .dwtag  DW_TAG_member
    4312                      .dwattr $C$DW$409, DW_AT_type(*$C$DW$T$21)
    4313                      .dwattr $C$DW$409, DW_AT_name("RSVD26")
    4314                      .dwattr $C$DW$409, DW_AT_TI_symbol_name("_RSVD26")
    4315                      .dwattr $C$DW$409, DW_AT_data_member_location[DW_OP_plus_uconst 0xd2]
    4316                      .dwattr $C$DW$409, DW_AT_accessibility(DW_ACCESS_public)
    4317              $C$DW$410       .dwtag  DW_TAG_member
    4318                      .dwattr $C$DW$410, DW_AT_type(*$C$DW$T$20)
    4319                      .dwattr $C$DW$410, DW_AT_name("NANDERRADD3")
    4320                      .dwattr $C$DW$410, DW_AT_TI_symbol_name("_NANDERRADD3")
    4321                      .dwattr $C$DW$410, DW_AT_data_member_location[DW_OP_plus_uconst 0xd4]
    4322                      .dwattr $C$DW$410, DW_AT_accessibility(DW_ACCESS_public)
    4323              $C$DW$411       .dwtag  DW_TAG_member
TMS320C55x Assembler PC v4.4.1 Sat Sep 29 23:08:57 2018

Tools Copyright (c) 1996-2012 Texas Instruments Incorporated
csl_nand_dma_example.asm                                             PAGE  119

    4324                      .dwattr $C$DW$411, DW_AT_type(*$C$DW$T$20)
    4325                      .dwattr $C$DW$411, DW_AT_name("NANDERRADD4")
    4326                      .dwattr $C$DW$411, DW_AT_TI_symbol_name("_NANDERRADD4")
    4327                      .dwattr $C$DW$411, DW_AT_data_member_location[DW_OP_plus_uconst 0xd5]
    4328                      .dwattr $C$DW$411, DW_AT_accessibility(DW_ACCESS_public)
    4329              $C$DW$412       .dwtag  DW_TAG_member
    4330                      .dwattr $C$DW$412, DW_AT_type(*$C$DW$T$21)
    4331                      .dwattr $C$DW$412, DW_AT_name("RSVD27")
    4332                      .dwattr $C$DW$412, DW_AT_TI_symbol_name("_RSVD27")
    4333                      .dwattr $C$DW$412, DW_AT_data_member_location[DW_OP_plus_uconst 0xd6]
    4334                      .dwattr $C$DW$412, DW_AT_accessibility(DW_ACCESS_public)
    4335              $C$DW$413       .dwtag  DW_TAG_member
    4336                      .dwattr $C$DW$413, DW_AT_type(*$C$DW$T$20)
    4337                      .dwattr $C$DW$413, DW_AT_name("NANDERRVAL1")
    4338                      .dwattr $C$DW$413, DW_AT_TI_symbol_name("_NANDERRVAL1")
    4339                      .dwattr $C$DW$413, DW_AT_data_member_location[DW_OP_plus_uconst 0xd8]
    4340                      .dwattr $C$DW$413, DW_AT_accessibility(DW_ACCESS_public)
    4341              $C$DW$414       .dwtag  DW_TAG_member
    4342                      .dwattr $C$DW$414, DW_AT_type(*$C$DW$T$20)
    4343                      .dwattr $C$DW$414, DW_AT_name("NANDERRVAL2")
    4344                      .dwattr $C$DW$414, DW_AT_TI_symbol_name("_NANDERRVAL2")
    4345                      .dwattr $C$DW$414, DW_AT_data_member_location[DW_OP_plus_uconst 0xd9]
    4346                      .dwattr $C$DW$414, DW_AT_accessibility(DW_ACCESS_public)
    4347              $C$DW$415       .dwtag  DW_TAG_member
    4348                      .dwattr $C$DW$415, DW_AT_type(*$C$DW$T$21)
    4349                      .dwattr $C$DW$415, DW_AT_name("RSVD28")
    4350                      .dwattr $C$DW$415, DW_AT_TI_symbol_name("_RSVD28")
    4351                      .dwattr $C$DW$415, DW_AT_data_member_location[DW_OP_plus_uconst 0xda]
    4352                      .dwattr $C$DW$415, DW_AT_accessibility(DW_ACCESS_public)
    4353              $C$DW$416       .dwtag  DW_TAG_member
    4354                      .dwattr $C$DW$416, DW_AT_type(*$C$DW$T$20)
    4355                      .dwattr $C$DW$416, DW_AT_name("NANDERRVAL3")
    4356                      .dwattr $C$DW$416, DW_AT_TI_symbol_name("_NANDERRVAL3")
    4357                      .dwattr $C$DW$416, DW_AT_data_member_location[DW_OP_plus_uconst 0xdc]
    4358                      .dwattr $C$DW$416, DW_AT_accessibility(DW_ACCESS_public)
    4359              $C$DW$417       .dwtag  DW_TAG_member
    4360                      .dwattr $C$DW$417, DW_AT_type(*$C$DW$T$20)
    4361                      .dwattr $C$DW$417, DW_AT_name("NANDERRVAL4")
    4362                      .dwattr $C$DW$417, DW_AT_TI_symbol_name("_NANDERRVAL4")
    4363                      .dwattr $C$DW$417, DW_AT_data_member_location[DW_OP_plus_uconst 0xdd]
    4364                      .dwattr $C$DW$417, DW_AT_accessibility(DW_ACCESS_public)
    4365                      .dwendtag $C$DW$T$27
    4366              
    4367              $C$DW$T$91      .dwtag  DW_TAG_typedef, DW_AT_name("CSL_EmifRegs")
    4368                      .dwattr $C$DW$T$91, DW_AT_type(*$C$DW$T$27)
    4369                      .dwattr $C$DW$T$91, DW_AT_language(DW_LANG_C)
    4370              $C$DW$418       .dwtag  DW_TAG_TI_far_type
    4371                      .dwattr $C$DW$418, DW_AT_type(*$C$DW$T$91)
    4372              $C$DW$419       .dwtag  DW_TAG_TI_ioport_type
    4373                      .dwattr $C$DW$419, DW_AT_type(*$C$DW$418)
    4374              $C$DW$T$92      .dwtag  DW_TAG_volatile_type
    4375                      .dwattr $C$DW$T$92, DW_AT_type(*$C$DW$419)
    4376              $C$DW$T$93      .dwtag  DW_TAG_pointer_type
    4377                      .dwattr $C$DW$T$93, DW_AT_type(*$C$DW$T$92)
    4378                      .dwattr $C$DW$T$93, DW_AT_address_class(0x10)
TMS320C55x Assembler PC v4.4.1 Sat Sep 29 23:08:57 2018

Tools Copyright (c) 1996-2012 Texas Instruments Incorporated
csl_nand_dma_example.asm                                             PAGE  120

    4379              $C$DW$T$94      .dwtag  DW_TAG_typedef, DW_AT_name("CSL_EmifRegsOvly")
    4380                      .dwattr $C$DW$T$94, DW_AT_type(*$C$DW$T$93)
    4381                      .dwattr $C$DW$T$94, DW_AT_language(DW_LANG_C)
    4382              
    4383              $C$DW$T$30      .dwtag  DW_TAG_structure_type
    4384                      .dwattr $C$DW$T$30, DW_AT_byte_size(0x48)
    4385              $C$DW$420       .dwtag  DW_TAG_member
    4386                      .dwattr $C$DW$420, DW_AT_type(*$C$DW$T$20)
    4387                      .dwattr $C$DW$420, DW_AT_name("EBSR")
    4388                      .dwattr $C$DW$420, DW_AT_TI_symbol_name("_EBSR")
    4389                      .dwattr $C$DW$420, DW_AT_data_member_location[DW_OP_plus_uconst 0x0]
    4390                      .dwattr $C$DW$420, DW_AT_accessibility(DW_ACCESS_public)
    4391              $C$DW$421       .dwtag  DW_TAG_member
    4392                      .dwattr $C$DW$421, DW_AT_type(*$C$DW$T$20)
    4393                      .dwattr $C$DW$421, DW_AT_name("RSVD0")
    4394                      .dwattr $C$DW$421, DW_AT_TI_symbol_name("_RSVD0")
    4395                      .dwattr $C$DW$421, DW_AT_data_member_location[DW_OP_plus_uconst 0x1]
    4396                      .dwattr $C$DW$421, DW_AT_accessibility(DW_ACCESS_public)
    4397              $C$DW$422       .dwtag  DW_TAG_member
    4398                      .dwattr $C$DW$422, DW_AT_type(*$C$DW$T$20)
    4399                      .dwattr $C$DW$422, DW_AT_name("PCGCR1")
    4400                      .dwattr $C$DW$422, DW_AT_TI_symbol_name("_PCGCR1")
    4401                      .dwattr $C$DW$422, DW_AT_data_member_location[DW_OP_plus_uconst 0x2]
    4402                      .dwattr $C$DW$422, DW_AT_accessibility(DW_ACCESS_public)
    4403              $C$DW$423       .dwtag  DW_TAG_member
    4404                      .dwattr $C$DW$423, DW_AT_type(*$C$DW$T$20)
    4405                      .dwattr $C$DW$423, DW_AT_name("PCGCR2")
    4406                      .dwattr $C$DW$423, DW_AT_TI_symbol_name("_PCGCR2")
    4407                      .dwattr $C$DW$423, DW_AT_data_member_location[DW_OP_plus_uconst 0x3]
    4408                      .dwattr $C$DW$423, DW_AT_accessibility(DW_ACCESS_public)
    4409              $C$DW$424       .dwtag  DW_TAG_member
    4410                      .dwattr $C$DW$424, DW_AT_type(*$C$DW$T$20)
    4411                      .dwattr $C$DW$424, DW_AT_name("PSRCR")
    4412                      .dwattr $C$DW$424, DW_AT_TI_symbol_name("_PSRCR")
    4413                      .dwattr $C$DW$424, DW_AT_data_member_location[DW_OP_plus_uconst 0x4]
    4414                      .dwattr $C$DW$424, DW_AT_accessibility(DW_ACCESS_public)
    4415              $C$DW$425       .dwtag  DW_TAG_member
    4416                      .dwattr $C$DW$425, DW_AT_type(*$C$DW$T$20)
    4417                      .dwattr $C$DW$425, DW_AT_name("PRCR")
    4418                      .dwattr $C$DW$425, DW_AT_TI_symbol_name("_PRCR")
    4419                      .dwattr $C$DW$425, DW_AT_data_member_location[DW_OP_plus_uconst 0x5]
    4420                      .dwattr $C$DW$425, DW_AT_accessibility(DW_ACCESS_public)
    4421              $C$DW$426       .dwtag  DW_TAG_member
    4422                      .dwattr $C$DW$426, DW_AT_type(*$C$DW$T$28)
    4423                      .dwattr $C$DW$426, DW_AT_name("RSVD1")
    4424                      .dwattr $C$DW$426, DW_AT_TI_symbol_name("_RSVD1")
    4425                      .dwattr $C$DW$426, DW_AT_data_member_location[DW_OP_plus_uconst 0x6]
    4426                      .dwattr $C$DW$426, DW_AT_accessibility(DW_ACCESS_public)
    4427              $C$DW$427       .dwtag  DW_TAG_member
    4428                      .dwattr $C$DW$427, DW_AT_type(*$C$DW$T$20)
    4429                      .dwattr $C$DW$427, DW_AT_name("TIAFR")
    4430                      .dwattr $C$DW$427, DW_AT_TI_symbol_name("_TIAFR")
    4431                      .dwattr $C$DW$427, DW_AT_data_member_location[DW_OP_plus_uconst 0x14]
    4432                      .dwattr $C$DW$427, DW_AT_accessibility(DW_ACCESS_public)
    4433              $C$DW$428       .dwtag  DW_TAG_member
TMS320C55x Assembler PC v4.4.1 Sat Sep 29 23:08:57 2018

Tools Copyright (c) 1996-2012 Texas Instruments Incorporated
csl_nand_dma_example.asm                                             PAGE  121

    4434                      .dwattr $C$DW$428, DW_AT_type(*$C$DW$T$20)
    4435                      .dwattr $C$DW$428, DW_AT_name("RSVD2")
    4436                      .dwattr $C$DW$428, DW_AT_TI_symbol_name("_RSVD2")
    4437                      .dwattr $C$DW$428, DW_AT_data_member_location[DW_OP_plus_uconst 0x15]
    4438                      .dwattr $C$DW$428, DW_AT_accessibility(DW_ACCESS_public)
    4439              $C$DW$429       .dwtag  DW_TAG_member
    4440                      .dwattr $C$DW$429, DW_AT_type(*$C$DW$T$20)
    4441                      .dwattr $C$DW$429, DW_AT_name("ODSCR")
    4442                      .dwattr $C$DW$429, DW_AT_TI_symbol_name("_ODSCR")
    4443                      .dwattr $C$DW$429, DW_AT_data_member_location[DW_OP_plus_uconst 0x16]
    4444                      .dwattr $C$DW$429, DW_AT_accessibility(DW_ACCESS_public)
    4445              $C$DW$430       .dwtag  DW_TAG_member
    4446                      .dwattr $C$DW$430, DW_AT_type(*$C$DW$T$20)
    4447                      .dwattr $C$DW$430, DW_AT_name("PDINHIBR1")
    4448                      .dwattr $C$DW$430, DW_AT_TI_symbol_name("_PDINHIBR1")
    4449                      .dwattr $C$DW$430, DW_AT_data_member_location[DW_OP_plus_uconst 0x17]
    4450                      .dwattr $C$DW$430, DW_AT_accessibility(DW_ACCESS_public)
    4451              $C$DW$431       .dwtag  DW_TAG_member
    4452                      .dwattr $C$DW$431, DW_AT_type(*$C$DW$T$20)
    4453                      .dwattr $C$DW$431, DW_AT_name("PDINHIBR2")
    4454                      .dwattr $C$DW$431, DW_AT_TI_symbol_name("_PDINHIBR2")
    4455                      .dwattr $C$DW$431, DW_AT_data_member_location[DW_OP_plus_uconst 0x18]
    4456                      .dwattr $C$DW$431, DW_AT_accessibility(DW_ACCESS_public)
    4457              $C$DW$432       .dwtag  DW_TAG_member
    4458                      .dwattr $C$DW$432, DW_AT_type(*$C$DW$T$20)
    4459                      .dwattr $C$DW$432, DW_AT_name("PDINHIBR3")
    4460                      .dwattr $C$DW$432, DW_AT_TI_symbol_name("_PDINHIBR3")
    4461                      .dwattr $C$DW$432, DW_AT_data_member_location[DW_OP_plus_uconst 0x19]
    4462                      .dwattr $C$DW$432, DW_AT_accessibility(DW_ACCESS_public)
    4463              $C$DW$433       .dwtag  DW_TAG_member
    4464                      .dwattr $C$DW$433, DW_AT_type(*$C$DW$T$20)
    4465                      .dwattr $C$DW$433, DW_AT_name("DMA0CESR1")
    4466                      .dwattr $C$DW$433, DW_AT_TI_symbol_name("_DMA0CESR1")
    4467                      .dwattr $C$DW$433, DW_AT_data_member_location[DW_OP_plus_uconst 0x1a]
    4468                      .dwattr $C$DW$433, DW_AT_accessibility(DW_ACCESS_public)
    4469              $C$DW$434       .dwtag  DW_TAG_member
    4470                      .dwattr $C$DW$434, DW_AT_type(*$C$DW$T$20)
    4471                      .dwattr $C$DW$434, DW_AT_name("DMA0CESR2")
    4472                      .dwattr $C$DW$434, DW_AT_TI_symbol_name("_DMA0CESR2")
    4473                      .dwattr $C$DW$434, DW_AT_data_member_location[DW_OP_plus_uconst 0x1b]
    4474                      .dwattr $C$DW$434, DW_AT_accessibility(DW_ACCESS_public)
    4475              $C$DW$435       .dwtag  DW_TAG_member
    4476                      .dwattr $C$DW$435, DW_AT_type(*$C$DW$T$20)
    4477                      .dwattr $C$DW$435, DW_AT_name("DMA1CESR1")
    4478                      .dwattr $C$DW$435, DW_AT_TI_symbol_name("_DMA1CESR1")
    4479                      .dwattr $C$DW$435, DW_AT_data_member_location[DW_OP_plus_uconst 0x1c]
    4480                      .dwattr $C$DW$435, DW_AT_accessibility(DW_ACCESS_public)
    4481              $C$DW$436       .dwtag  DW_TAG_member
    4482                      .dwattr $C$DW$436, DW_AT_type(*$C$DW$T$20)
    4483                      .dwattr $C$DW$436, DW_AT_name("DMA1CESR2")
    4484                      .dwattr $C$DW$436, DW_AT_TI_symbol_name("_DMA1CESR2")
    4485                      .dwattr $C$DW$436, DW_AT_data_member_location[DW_OP_plus_uconst 0x1d]
    4486                      .dwattr $C$DW$436, DW_AT_accessibility(DW_ACCESS_public)
    4487              $C$DW$437       .dwtag  DW_TAG_member
    4488                      .dwattr $C$DW$437, DW_AT_type(*$C$DW$T$20)
TMS320C55x Assembler PC v4.4.1 Sat Sep 29 23:08:57 2018

Tools Copyright (c) 1996-2012 Texas Instruments Incorporated
csl_nand_dma_example.asm                                             PAGE  122

    4489                      .dwattr $C$DW$437, DW_AT_name("SDRAMCCR")
    4490                      .dwattr $C$DW$437, DW_AT_TI_symbol_name("_SDRAMCCR")
    4491                      .dwattr $C$DW$437, DW_AT_data_member_location[DW_OP_plus_uconst 0x1e]
    4492                      .dwattr $C$DW$437, DW_AT_accessibility(DW_ACCESS_public)
    4493              $C$DW$438       .dwtag  DW_TAG_member
    4494                      .dwattr $C$DW$438, DW_AT_type(*$C$DW$T$20)
    4495                      .dwattr $C$DW$438, DW_AT_name("CCR2")
    4496                      .dwattr $C$DW$438, DW_AT_TI_symbol_name("_CCR2")
    4497                      .dwattr $C$DW$438, DW_AT_data_member_location[DW_OP_plus_uconst 0x1f]
    4498                      .dwattr $C$DW$438, DW_AT_accessibility(DW_ACCESS_public)
    4499              $C$DW$439       .dwtag  DW_TAG_member
    4500                      .dwattr $C$DW$439, DW_AT_type(*$C$DW$T$20)
    4501                      .dwattr $C$DW$439, DW_AT_name("CGCR1")
    4502                      .dwattr $C$DW$439, DW_AT_TI_symbol_name("_CGCR1")
    4503                      .dwattr $C$DW$439, DW_AT_data_member_location[DW_OP_plus_uconst 0x20]
    4504                      .dwattr $C$DW$439, DW_AT_accessibility(DW_ACCESS_public)
    4505              $C$DW$440       .dwtag  DW_TAG_member
    4506                      .dwattr $C$DW$440, DW_AT_type(*$C$DW$T$20)
    4507                      .dwattr $C$DW$440, DW_AT_name("CGICR")
    4508                      .dwattr $C$DW$440, DW_AT_TI_symbol_name("_CGICR")
    4509                      .dwattr $C$DW$440, DW_AT_data_member_location[DW_OP_plus_uconst 0x21]
    4510                      .dwattr $C$DW$440, DW_AT_accessibility(DW_ACCESS_public)
    4511              $C$DW$441       .dwtag  DW_TAG_member
    4512                      .dwattr $C$DW$441, DW_AT_type(*$C$DW$T$20)
    4513                      .dwattr $C$DW$441, DW_AT_name("CGCR2")
    4514                      .dwattr $C$DW$441, DW_AT_TI_symbol_name("_CGCR2")
    4515                      .dwattr $C$DW$441, DW_AT_data_member_location[DW_OP_plus_uconst 0x22]
    4516                      .dwattr $C$DW$441, DW_AT_accessibility(DW_ACCESS_public)
    4517              $C$DW$442       .dwtag  DW_TAG_member
    4518                      .dwattr $C$DW$442, DW_AT_type(*$C$DW$T$20)
    4519                      .dwattr $C$DW$442, DW_AT_name("CGOCR")
    4520                      .dwattr $C$DW$442, DW_AT_TI_symbol_name("_CGOCR")
    4521                      .dwattr $C$DW$442, DW_AT_data_member_location[DW_OP_plus_uconst 0x23]
    4522                      .dwattr $C$DW$442, DW_AT_accessibility(DW_ACCESS_public)
    4523              $C$DW$443       .dwtag  DW_TAG_member
    4524                      .dwattr $C$DW$443, DW_AT_type(*$C$DW$T$20)
    4525                      .dwattr $C$DW$443, DW_AT_name("CCSSR")
    4526                      .dwattr $C$DW$443, DW_AT_TI_symbol_name("_CCSSR")
    4527                      .dwattr $C$DW$443, DW_AT_data_member_location[DW_OP_plus_uconst 0x24]
    4528                      .dwattr $C$DW$443, DW_AT_accessibility(DW_ACCESS_public)
    4529              $C$DW$444       .dwtag  DW_TAG_member
    4530                      .dwattr $C$DW$444, DW_AT_type(*$C$DW$T$20)
    4531                      .dwattr $C$DW$444, DW_AT_name("RSVD3")
    4532                      .dwattr $C$DW$444, DW_AT_TI_symbol_name("_RSVD3")
    4533                      .dwattr $C$DW$444, DW_AT_data_member_location[DW_OP_plus_uconst 0x25]
    4534                      .dwattr $C$DW$444, DW_AT_accessibility(DW_ACCESS_public)
    4535              $C$DW$445       .dwtag  DW_TAG_member
    4536                      .dwattr $C$DW$445, DW_AT_type(*$C$DW$T$20)
    4537                      .dwattr $C$DW$445, DW_AT_name("ECDR")
    4538                      .dwattr $C$DW$445, DW_AT_TI_symbol_name("_ECDR")
    4539                      .dwattr $C$DW$445, DW_AT_data_member_location[DW_OP_plus_uconst 0x26]
    4540                      .dwattr $C$DW$445, DW_AT_accessibility(DW_ACCESS_public)
    4541              $C$DW$446       .dwtag  DW_TAG_member
    4542                      .dwattr $C$DW$446, DW_AT_type(*$C$DW$T$20)
    4543                      .dwattr $C$DW$446, DW_AT_name("RSVD4")
TMS320C55x Assembler PC v4.4.1 Sat Sep 29 23:08:57 2018

Tools Copyright (c) 1996-2012 Texas Instruments Incorporated
csl_nand_dma_example.asm                                             PAGE  123

    4544                      .dwattr $C$DW$446, DW_AT_TI_symbol_name("_RSVD4")
    4545                      .dwattr $C$DW$446, DW_AT_data_member_location[DW_OP_plus_uconst 0x27]
    4546                      .dwattr $C$DW$446, DW_AT_accessibility(DW_ACCESS_public)
    4547              $C$DW$447       .dwtag  DW_TAG_member
    4548                      .dwattr $C$DW$447, DW_AT_type(*$C$DW$T$20)
    4549                      .dwattr $C$DW$447, DW_AT_name("RAMSLPMDCNTLR1")
    4550                      .dwattr $C$DW$447, DW_AT_TI_symbol_name("_RAMSLPMDCNTLR1")
    4551                      .dwattr $C$DW$447, DW_AT_data_member_location[DW_OP_plus_uconst 0x28]
    4552                      .dwattr $C$DW$447, DW_AT_accessibility(DW_ACCESS_public)
    4553              $C$DW$448       .dwtag  DW_TAG_member
    4554                      .dwattr $C$DW$448, DW_AT_type(*$C$DW$T$20)
    4555                      .dwattr $C$DW$448, DW_AT_name("RSVD5")
    4556                      .dwattr $C$DW$448, DW_AT_TI_symbol_name("_RSVD5")
    4557                      .dwattr $C$DW$448, DW_AT_data_member_location[DW_OP_plus_uconst 0x29]
    4558                      .dwattr $C$DW$448, DW_AT_accessibility(DW_ACCESS_public)
    4559              $C$DW$449       .dwtag  DW_TAG_member
    4560                      .dwattr $C$DW$449, DW_AT_type(*$C$DW$T$20)
    4561                      .dwattr $C$DW$449, DW_AT_name("RAMSLPMDCNTLR2")
    4562                      .dwattr $C$DW$449, DW_AT_TI_symbol_name("_RAMSLPMDCNTLR2")
    4563                      .dwattr $C$DW$449, DW_AT_data_member_location[DW_OP_plus_uconst 0x2a]
    4564                      .dwattr $C$DW$449, DW_AT_accessibility(DW_ACCESS_public)
    4565              $C$DW$450       .dwtag  DW_TAG_member
    4566                      .dwattr $C$DW$450, DW_AT_type(*$C$DW$T$20)
    4567                      .dwattr $C$DW$450, DW_AT_name("RAMSLPMDCNTLR3")
    4568                      .dwattr $C$DW$450, DW_AT_TI_symbol_name("_RAMSLPMDCNTLR3")
    4569                      .dwattr $C$DW$450, DW_AT_data_member_location[DW_OP_plus_uconst 0x2b]
    4570                      .dwattr $C$DW$450, DW_AT_accessibility(DW_ACCESS_public)
    4571              $C$DW$451       .dwtag  DW_TAG_member
    4572                      .dwattr $C$DW$451, DW_AT_type(*$C$DW$T$20)
    4573                      .dwattr $C$DW$451, DW_AT_name("RAMSLPMDCNTLR4")
    4574                      .dwattr $C$DW$451, DW_AT_TI_symbol_name("_RAMSLPMDCNTLR4")
    4575                      .dwattr $C$DW$451, DW_AT_data_member_location[DW_OP_plus_uconst 0x2c]
    4576                      .dwattr $C$DW$451, DW_AT_accessibility(DW_ACCESS_public)
    4577              $C$DW$452       .dwtag  DW_TAG_member
    4578                      .dwattr $C$DW$452, DW_AT_type(*$C$DW$T$20)
    4579                      .dwattr $C$DW$452, DW_AT_name("RAMSLPMDCNTLR5")
    4580                      .dwattr $C$DW$452, DW_AT_TI_symbol_name("_RAMSLPMDCNTLR5")
    4581                      .dwattr $C$DW$452, DW_AT_data_member_location[DW_OP_plus_uconst 0x2d]
    4582                      .dwattr $C$DW$452, DW_AT_accessibility(DW_ACCESS_public)
    4583              $C$DW$453       .dwtag  DW_TAG_member
    4584                      .dwattr $C$DW$453, DW_AT_type(*$C$DW$T$21)
    4585                      .dwattr $C$DW$453, DW_AT_name("RSVD6")
    4586                      .dwattr $C$DW$453, DW_AT_TI_symbol_name("_RSVD6")
    4587                      .dwattr $C$DW$453, DW_AT_data_member_location[DW_OP_plus_uconst 0x2e]
    4588                      .dwattr $C$DW$453, DW_AT_accessibility(DW_ACCESS_public)
    4589              $C$DW$454       .dwtag  DW_TAG_member
    4590                      .dwattr $C$DW$454, DW_AT_type(*$C$DW$T$20)
    4591                      .dwattr $C$DW$454, DW_AT_name("DMAIFR")
    4592                      .dwattr $C$DW$454, DW_AT_TI_symbol_name("_DMAIFR")
    4593                      .dwattr $C$DW$454, DW_AT_data_member_location[DW_OP_plus_uconst 0x30]
    4594                      .dwattr $C$DW$454, DW_AT_accessibility(DW_ACCESS_public)
    4595              $C$DW$455       .dwtag  DW_TAG_member
    4596                      .dwattr $C$DW$455, DW_AT_type(*$C$DW$T$20)
    4597                      .dwattr $C$DW$455, DW_AT_name("DMAIER")
    4598                      .dwattr $C$DW$455, DW_AT_TI_symbol_name("_DMAIER")
TMS320C55x Assembler PC v4.4.1 Sat Sep 29 23:08:57 2018

Tools Copyright (c) 1996-2012 Texas Instruments Incorporated
csl_nand_dma_example.asm                                             PAGE  124

    4599                      .dwattr $C$DW$455, DW_AT_data_member_location[DW_OP_plus_uconst 0x31]
    4600                      .dwattr $C$DW$455, DW_AT_accessibility(DW_ACCESS_public)
    4601              $C$DW$456       .dwtag  DW_TAG_member
    4602                      .dwattr $C$DW$456, DW_AT_type(*$C$DW$T$20)
    4603                      .dwattr $C$DW$456, DW_AT_name("USBSCR")
    4604                      .dwattr $C$DW$456, DW_AT_TI_symbol_name("_USBSCR")
    4605                      .dwattr $C$DW$456, DW_AT_data_member_location[DW_OP_plus_uconst 0x32]
    4606                      .dwattr $C$DW$456, DW_AT_accessibility(DW_ACCESS_public)
    4607              $C$DW$457       .dwtag  DW_TAG_member
    4608                      .dwattr $C$DW$457, DW_AT_type(*$C$DW$T$20)
    4609                      .dwattr $C$DW$457, DW_AT_name("ESCR")
    4610                      .dwattr $C$DW$457, DW_AT_TI_symbol_name("_ESCR")
    4611                      .dwattr $C$DW$457, DW_AT_data_member_location[DW_OP_plus_uconst 0x33]
    4612                      .dwattr $C$DW$457, DW_AT_accessibility(DW_ACCESS_public)
    4613              $C$DW$458       .dwtag  DW_TAG_member
    4614                      .dwattr $C$DW$458, DW_AT_type(*$C$DW$T$21)
    4615                      .dwattr $C$DW$458, DW_AT_name("RSVD7")
    4616                      .dwattr $C$DW$458, DW_AT_TI_symbol_name("_RSVD7")
    4617                      .dwattr $C$DW$458, DW_AT_data_member_location[DW_OP_plus_uconst 0x34]
    4618                      .dwattr $C$DW$458, DW_AT_accessibility(DW_ACCESS_public)
    4619              $C$DW$459       .dwtag  DW_TAG_member
    4620                      .dwattr $C$DW$459, DW_AT_type(*$C$DW$T$20)
    4621                      .dwattr $C$DW$459, DW_AT_name("DMA2CESR1")
    4622                      .dwattr $C$DW$459, DW_AT_TI_symbol_name("_DMA2CESR1")
    4623                      .dwattr $C$DW$459, DW_AT_data_member_location[DW_OP_plus_uconst 0x36]
    4624                      .dwattr $C$DW$459, DW_AT_accessibility(DW_ACCESS_public)
    4625              $C$DW$460       .dwtag  DW_TAG_member
    4626                      .dwattr $C$DW$460, DW_AT_type(*$C$DW$T$20)
    4627                      .dwattr $C$DW$460, DW_AT_name("DMA2CESR2")
    4628                      .dwattr $C$DW$460, DW_AT_TI_symbol_name("_DMA2CESR2")
    4629                      .dwattr $C$DW$460, DW_AT_data_member_location[DW_OP_plus_uconst 0x37]
    4630                      .dwattr $C$DW$460, DW_AT_accessibility(DW_ACCESS_public)
    4631              $C$DW$461       .dwtag  DW_TAG_member
    4632                      .dwattr $C$DW$461, DW_AT_type(*$C$DW$T$20)
    4633                      .dwattr $C$DW$461, DW_AT_name("DMA3CESR1")
    4634                      .dwattr $C$DW$461, DW_AT_TI_symbol_name("_DMA3CESR1")
    4635                      .dwattr $C$DW$461, DW_AT_data_member_location[DW_OP_plus_uconst 0x38]
    4636                      .dwattr $C$DW$461, DW_AT_accessibility(DW_ACCESS_public)
    4637              $C$DW$462       .dwtag  DW_TAG_member
    4638                      .dwattr $C$DW$462, DW_AT_type(*$C$DW$T$20)
    4639                      .dwattr $C$DW$462, DW_AT_name("DMA3CESR2")
    4640                      .dwattr $C$DW$462, DW_AT_TI_symbol_name("_DMA3CESR2")
    4641                      .dwattr $C$DW$462, DW_AT_data_member_location[DW_OP_plus_uconst 0x39]
    4642                      .dwattr $C$DW$462, DW_AT_accessibility(DW_ACCESS_public)
    4643              $C$DW$463       .dwtag  DW_TAG_member
    4644                      .dwattr $C$DW$463, DW_AT_type(*$C$DW$T$20)
    4645                      .dwattr $C$DW$463, DW_AT_name("CLKSTOP")
    4646                      .dwattr $C$DW$463, DW_AT_TI_symbol_name("_CLKSTOP")
    4647                      .dwattr $C$DW$463, DW_AT_data_member_location[DW_OP_plus_uconst 0x3a]
    4648                      .dwattr $C$DW$463, DW_AT_accessibility(DW_ACCESS_public)
    4649              $C$DW$464       .dwtag  DW_TAG_member
    4650                      .dwattr $C$DW$464, DW_AT_type(*$C$DW$T$29)
    4651                      .dwattr $C$DW$464, DW_AT_name("RSVD8")
    4652                      .dwattr $C$DW$464, DW_AT_TI_symbol_name("_RSVD8")
    4653                      .dwattr $C$DW$464, DW_AT_data_member_location[DW_OP_plus_uconst 0x3b]
TMS320C55x Assembler PC v4.4.1 Sat Sep 29 23:08:57 2018

Tools Copyright (c) 1996-2012 Texas Instruments Incorporated
csl_nand_dma_example.asm                                             PAGE  125

    4654                      .dwattr $C$DW$464, DW_AT_accessibility(DW_ACCESS_public)
    4655              $C$DW$465       .dwtag  DW_TAG_member
    4656                      .dwattr $C$DW$465, DW_AT_type(*$C$DW$T$20)
    4657                      .dwattr $C$DW$465, DW_AT_name("DIEIDR0")
    4658                      .dwattr $C$DW$465, DW_AT_TI_symbol_name("_DIEIDR0")
    4659                      .dwattr $C$DW$465, DW_AT_data_member_location[DW_OP_plus_uconst 0x40]
    4660                      .dwattr $C$DW$465, DW_AT_accessibility(DW_ACCESS_public)
    4661              $C$DW$466       .dwtag  DW_TAG_member
    4662                      .dwattr $C$DW$466, DW_AT_type(*$C$DW$T$20)
    4663                      .dwattr $C$DW$466, DW_AT_name("DIEIDR1")
    4664                      .dwattr $C$DW$466, DW_AT_TI_symbol_name("_DIEIDR1")
    4665                      .dwattr $C$DW$466, DW_AT_data_member_location[DW_OP_plus_uconst 0x41]
    4666                      .dwattr $C$DW$466, DW_AT_accessibility(DW_ACCESS_public)
    4667              $C$DW$467       .dwtag  DW_TAG_member
    4668                      .dwattr $C$DW$467, DW_AT_type(*$C$DW$T$20)
    4669                      .dwattr $C$DW$467, DW_AT_name("DIEIDR2")
    4670                      .dwattr $C$DW$467, DW_AT_TI_symbol_name("_DIEIDR2")
    4671                      .dwattr $C$DW$467, DW_AT_data_member_location[DW_OP_plus_uconst 0x42]
    4672                      .dwattr $C$DW$467, DW_AT_accessibility(DW_ACCESS_public)
    4673              $C$DW$468       .dwtag  DW_TAG_member
    4674                      .dwattr $C$DW$468, DW_AT_type(*$C$DW$T$20)
    4675                      .dwattr $C$DW$468, DW_AT_name("DIEIDR3")
    4676                      .dwattr $C$DW$468, DW_AT_TI_symbol_name("_DIEIDR3")
    4677                      .dwattr $C$DW$468, DW_AT_data_member_location[DW_OP_plus_uconst 0x43]
    4678                      .dwattr $C$DW$468, DW_AT_accessibility(DW_ACCESS_public)
    4679              $C$DW$469       .dwtag  DW_TAG_member
    4680                      .dwattr $C$DW$469, DW_AT_type(*$C$DW$T$20)
    4681                      .dwattr $C$DW$469, DW_AT_name("DIEIDR4")
    4682                      .dwattr $C$DW$469, DW_AT_TI_symbol_name("_DIEIDR4")
    4683                      .dwattr $C$DW$469, DW_AT_data_member_location[DW_OP_plus_uconst 0x44]
    4684                      .dwattr $C$DW$469, DW_AT_accessibility(DW_ACCESS_public)
    4685              $C$DW$470       .dwtag  DW_TAG_member
    4686                      .dwattr $C$DW$470, DW_AT_type(*$C$DW$T$20)
    4687                      .dwattr $C$DW$470, DW_AT_name("DIEIDR5")
    4688                      .dwattr $C$DW$470, DW_AT_TI_symbol_name("_DIEIDR5")
    4689                      .dwattr $C$DW$470, DW_AT_data_member_location[DW_OP_plus_uconst 0x45]
    4690                      .dwattr $C$DW$470, DW_AT_accessibility(DW_ACCESS_public)
    4691              $C$DW$471       .dwtag  DW_TAG_member
    4692                      .dwattr $C$DW$471, DW_AT_type(*$C$DW$T$20)
    4693                      .dwattr $C$DW$471, DW_AT_name("DIEIDR6")
    4694                      .dwattr $C$DW$471, DW_AT_TI_symbol_name("_DIEIDR6")
    4695                      .dwattr $C$DW$471, DW_AT_data_member_location[DW_OP_plus_uconst 0x46]
    4696                      .dwattr $C$DW$471, DW_AT_accessibility(DW_ACCESS_public)
    4697              $C$DW$472       .dwtag  DW_TAG_member
    4698                      .dwattr $C$DW$472, DW_AT_type(*$C$DW$T$20)
    4699                      .dwattr $C$DW$472, DW_AT_name("DIEIDR7")
    4700                      .dwattr $C$DW$472, DW_AT_TI_symbol_name("_DIEIDR7")
    4701                      .dwattr $C$DW$472, DW_AT_data_member_location[DW_OP_plus_uconst 0x47]
    4702                      .dwattr $C$DW$472, DW_AT_accessibility(DW_ACCESS_public)
    4703                      .dwendtag $C$DW$T$30
    4704              
    4705              $C$DW$T$95      .dwtag  DW_TAG_typedef, DW_AT_name("CSL_SysRegs")
    4706                      .dwattr $C$DW$T$95, DW_AT_type(*$C$DW$T$30)
    4707                      .dwattr $C$DW$T$95, DW_AT_language(DW_LANG_C)
    4708              $C$DW$473       .dwtag  DW_TAG_TI_far_type
TMS320C55x Assembler PC v4.4.1 Sat Sep 29 23:08:57 2018

Tools Copyright (c) 1996-2012 Texas Instruments Incorporated
csl_nand_dma_example.asm                                             PAGE  126

    4709                      .dwattr $C$DW$473, DW_AT_type(*$C$DW$T$95)
    4710              $C$DW$474       .dwtag  DW_TAG_TI_ioport_type
    4711                      .dwattr $C$DW$474, DW_AT_type(*$C$DW$473)
    4712              $C$DW$T$96      .dwtag  DW_TAG_volatile_type
    4713                      .dwattr $C$DW$T$96, DW_AT_type(*$C$DW$474)
    4714              $C$DW$T$97      .dwtag  DW_TAG_pointer_type
    4715                      .dwattr $C$DW$T$97, DW_AT_type(*$C$DW$T$96)
    4716                      .dwattr $C$DW$T$97, DW_AT_address_class(0x10)
    4717              $C$DW$T$98      .dwtag  DW_TAG_typedef, DW_AT_name("CSL_SysRegsOvly")
    4718                      .dwattr $C$DW$T$98, DW_AT_type(*$C$DW$T$97)
    4719                      .dwattr $C$DW$T$98, DW_AT_language(DW_LANG_C)
    4720              
    4721              $C$DW$T$32      .dwtag  DW_TAG_structure_type
    4722                      .dwattr $C$DW$T$32, DW_AT_byte_size(0x66)
    4723              $C$DW$475       .dwtag  DW_TAG_member
    4724                      .dwattr $C$DW$475, DW_AT_type(*$C$DW$T$20)
    4725                      .dwattr $C$DW$475, DW_AT_name("DMACH0SSAL")
    4726                      .dwattr $C$DW$475, DW_AT_TI_symbol_name("_DMACH0SSAL")
    4727                      .dwattr $C$DW$475, DW_AT_data_member_location[DW_OP_plus_uconst 0x0]
    4728                      .dwattr $C$DW$475, DW_AT_accessibility(DW_ACCESS_public)
    4729              $C$DW$476       .dwtag  DW_TAG_member
    4730                      .dwattr $C$DW$476, DW_AT_type(*$C$DW$T$20)
    4731                      .dwattr $C$DW$476, DW_AT_name("DMACH0SSAU")
    4732                      .dwattr $C$DW$476, DW_AT_TI_symbol_name("_DMACH0SSAU")
    4733                      .dwattr $C$DW$476, DW_AT_data_member_location[DW_OP_plus_uconst 0x1]
    4734                      .dwattr $C$DW$476, DW_AT_accessibility(DW_ACCESS_public)
    4735              $C$DW$477       .dwtag  DW_TAG_member
    4736                      .dwattr $C$DW$477, DW_AT_type(*$C$DW$T$20)
    4737                      .dwattr $C$DW$477, DW_AT_name("DMACH0DSAL")
    4738                      .dwattr $C$DW$477, DW_AT_TI_symbol_name("_DMACH0DSAL")
    4739                      .dwattr $C$DW$477, DW_AT_data_member_location[DW_OP_plus_uconst 0x2]
    4740                      .dwattr $C$DW$477, DW_AT_accessibility(DW_ACCESS_public)
    4741              $C$DW$478       .dwtag  DW_TAG_member
    4742                      .dwattr $C$DW$478, DW_AT_type(*$C$DW$T$20)
    4743                      .dwattr $C$DW$478, DW_AT_name("DMACH0DSAU")
    4744                      .dwattr $C$DW$478, DW_AT_TI_symbol_name("_DMACH0DSAU")
    4745                      .dwattr $C$DW$478, DW_AT_data_member_location[DW_OP_plus_uconst 0x3]
    4746                      .dwattr $C$DW$478, DW_AT_accessibility(DW_ACCESS_public)
    4747              $C$DW$479       .dwtag  DW_TAG_member
    4748                      .dwattr $C$DW$479, DW_AT_type(*$C$DW$T$20)
    4749                      .dwattr $C$DW$479, DW_AT_name("DMACH0TCR1")
    4750                      .dwattr $C$DW$479, DW_AT_TI_symbol_name("_DMACH0TCR1")
    4751                      .dwattr $C$DW$479, DW_AT_data_member_location[DW_OP_plus_uconst 0x4]
    4752                      .dwattr $C$DW$479, DW_AT_accessibility(DW_ACCESS_public)
    4753              $C$DW$480       .dwtag  DW_TAG_member
    4754                      .dwattr $C$DW$480, DW_AT_type(*$C$DW$T$20)
    4755                      .dwattr $C$DW$480, DW_AT_name("DMACH0TCR2")
    4756                      .dwattr $C$DW$480, DW_AT_TI_symbol_name("_DMACH0TCR2")
    4757                      .dwattr $C$DW$480, DW_AT_data_member_location[DW_OP_plus_uconst 0x5]
    4758                      .dwattr $C$DW$480, DW_AT_accessibility(DW_ACCESS_public)
    4759              $C$DW$481       .dwtag  DW_TAG_member
    4760                      .dwattr $C$DW$481, DW_AT_type(*$C$DW$T$31)
    4761                      .dwattr $C$DW$481, DW_AT_name("RSVD0")
    4762                      .dwattr $C$DW$481, DW_AT_TI_symbol_name("_RSVD0")
    4763                      .dwattr $C$DW$481, DW_AT_data_member_location[DW_OP_plus_uconst 0x6]
TMS320C55x Assembler PC v4.4.1 Sat Sep 29 23:08:57 2018

Tools Copyright (c) 1996-2012 Texas Instruments Incorporated
csl_nand_dma_example.asm                                             PAGE  127

    4764                      .dwattr $C$DW$481, DW_AT_accessibility(DW_ACCESS_public)
    4765              $C$DW$482       .dwtag  DW_TAG_member
    4766                      .dwattr $C$DW$482, DW_AT_type(*$C$DW$T$20)
    4767                      .dwattr $C$DW$482, DW_AT_name("DMACH1SSAL")
    4768                      .dwattr $C$DW$482, DW_AT_TI_symbol_name("_DMACH1SSAL")
    4769                      .dwattr $C$DW$482, DW_AT_data_member_location[DW_OP_plus_uconst 0x20]
    4770                      .dwattr $C$DW$482, DW_AT_accessibility(DW_ACCESS_public)
    4771              $C$DW$483       .dwtag  DW_TAG_member
    4772                      .dwattr $C$DW$483, DW_AT_type(*$C$DW$T$20)
    4773                      .dwattr $C$DW$483, DW_AT_name("DMACH1SSAU")
    4774                      .dwattr $C$DW$483, DW_AT_TI_symbol_name("_DMACH1SSAU")
    4775                      .dwattr $C$DW$483, DW_AT_data_member_location[DW_OP_plus_uconst 0x21]
    4776                      .dwattr $C$DW$483, DW_AT_accessibility(DW_ACCESS_public)
    4777              $C$DW$484       .dwtag  DW_TAG_member
    4778                      .dwattr $C$DW$484, DW_AT_type(*$C$DW$T$20)
    4779                      .dwattr $C$DW$484, DW_AT_name("DMACH1DSAL")
    4780                      .dwattr $C$DW$484, DW_AT_TI_symbol_name("_DMACH1DSAL")
    4781                      .dwattr $C$DW$484, DW_AT_data_member_location[DW_OP_plus_uconst 0x22]
    4782                      .dwattr $C$DW$484, DW_AT_accessibility(DW_ACCESS_public)
    4783              $C$DW$485       .dwtag  DW_TAG_member
    4784                      .dwattr $C$DW$485, DW_AT_type(*$C$DW$T$20)
    4785                      .dwattr $C$DW$485, DW_AT_name("DMACH1DSAU")
    4786                      .dwattr $C$DW$485, DW_AT_TI_symbol_name("_DMACH1DSAU")
    4787                      .dwattr $C$DW$485, DW_AT_data_member_location[DW_OP_plus_uconst 0x23]
    4788                      .dwattr $C$DW$485, DW_AT_accessibility(DW_ACCESS_public)
    4789              $C$DW$486       .dwtag  DW_TAG_member
    4790                      .dwattr $C$DW$486, DW_AT_type(*$C$DW$T$20)
    4791                      .dwattr $C$DW$486, DW_AT_name("DMACH1TCR1")
    4792                      .dwattr $C$DW$486, DW_AT_TI_symbol_name("_DMACH1TCR1")
    4793                      .dwattr $C$DW$486, DW_AT_data_member_location[DW_OP_plus_uconst 0x24]
    4794                      .dwattr $C$DW$486, DW_AT_accessibility(DW_ACCESS_public)
    4795              $C$DW$487       .dwtag  DW_TAG_member
    4796                      .dwattr $C$DW$487, DW_AT_type(*$C$DW$T$20)
    4797                      .dwattr $C$DW$487, DW_AT_name("DMACH1TCR2")
    4798                      .dwattr $C$DW$487, DW_AT_TI_symbol_name("_DMACH1TCR2")
    4799                      .dwattr $C$DW$487, DW_AT_data_member_location[DW_OP_plus_uconst 0x25]
    4800                      .dwattr $C$DW$487, DW_AT_accessibility(DW_ACCESS_public)
    4801              $C$DW$488       .dwtag  DW_TAG_member
    4802                      .dwattr $C$DW$488, DW_AT_type(*$C$DW$T$31)
    4803                      .dwattr $C$DW$488, DW_AT_name("RSVD1")
    4804                      .dwattr $C$DW$488, DW_AT_TI_symbol_name("_RSVD1")
    4805                      .dwattr $C$DW$488, DW_AT_data_member_location[DW_OP_plus_uconst 0x26]
    4806                      .dwattr $C$DW$488, DW_AT_accessibility(DW_ACCESS_public)
    4807              $C$DW$489       .dwtag  DW_TAG_member
    4808                      .dwattr $C$DW$489, DW_AT_type(*$C$DW$T$20)
    4809                      .dwattr $C$DW$489, DW_AT_name("DMACH2SSAL")
    4810                      .dwattr $C$DW$489, DW_AT_TI_symbol_name("_DMACH2SSAL")
    4811                      .dwattr $C$DW$489, DW_AT_data_member_location[DW_OP_plus_uconst 0x40]
    4812                      .dwattr $C$DW$489, DW_AT_accessibility(DW_ACCESS_public)
    4813              $C$DW$490       .dwtag  DW_TAG_member
    4814                      .dwattr $C$DW$490, DW_AT_type(*$C$DW$T$20)
    4815                      .dwattr $C$DW$490, DW_AT_name("DMACH2SSAU")
    4816                      .dwattr $C$DW$490, DW_AT_TI_symbol_name("_DMACH2SSAU")
    4817                      .dwattr $C$DW$490, DW_AT_data_member_location[DW_OP_plus_uconst 0x41]
    4818                      .dwattr $C$DW$490, DW_AT_accessibility(DW_ACCESS_public)
TMS320C55x Assembler PC v4.4.1 Sat Sep 29 23:08:57 2018

Tools Copyright (c) 1996-2012 Texas Instruments Incorporated
csl_nand_dma_example.asm                                             PAGE  128

    4819              $C$DW$491       .dwtag  DW_TAG_member
    4820                      .dwattr $C$DW$491, DW_AT_type(*$C$DW$T$20)
    4821                      .dwattr $C$DW$491, DW_AT_name("DMACH2DSAL")
    4822                      .dwattr $C$DW$491, DW_AT_TI_symbol_name("_DMACH2DSAL")
    4823                      .dwattr $C$DW$491, DW_AT_data_member_location[DW_OP_plus_uconst 0x42]
    4824                      .dwattr $C$DW$491, DW_AT_accessibility(DW_ACCESS_public)
    4825              $C$DW$492       .dwtag  DW_TAG_member
    4826                      .dwattr $C$DW$492, DW_AT_type(*$C$DW$T$20)
    4827                      .dwattr $C$DW$492, DW_AT_name("DMACH2DSAU")
    4828                      .dwattr $C$DW$492, DW_AT_TI_symbol_name("_DMACH2DSAU")
    4829                      .dwattr $C$DW$492, DW_AT_data_member_location[DW_OP_plus_uconst 0x43]
    4830                      .dwattr $C$DW$492, DW_AT_accessibility(DW_ACCESS_public)
    4831              $C$DW$493       .dwtag  DW_TAG_member
    4832                      .dwattr $C$DW$493, DW_AT_type(*$C$DW$T$20)
    4833                      .dwattr $C$DW$493, DW_AT_name("DMACH2TCR1")
    4834                      .dwattr $C$DW$493, DW_AT_TI_symbol_name("_DMACH2TCR1")
    4835                      .dwattr $C$DW$493, DW_AT_data_member_location[DW_OP_plus_uconst 0x44]
    4836                      .dwattr $C$DW$493, DW_AT_accessibility(DW_ACCESS_public)
    4837              $C$DW$494       .dwtag  DW_TAG_member
    4838                      .dwattr $C$DW$494, DW_AT_type(*$C$DW$T$20)
    4839                      .dwattr $C$DW$494, DW_AT_name("DMACH2TCR2")
    4840                      .dwattr $C$DW$494, DW_AT_TI_symbol_name("_DMACH2TCR2")
    4841                      .dwattr $C$DW$494, DW_AT_data_member_location[DW_OP_plus_uconst 0x45]
    4842                      .dwattr $C$DW$494, DW_AT_accessibility(DW_ACCESS_public)
    4843              $C$DW$495       .dwtag  DW_TAG_member
    4844                      .dwattr $C$DW$495, DW_AT_type(*$C$DW$T$31)
    4845                      .dwattr $C$DW$495, DW_AT_name("RSVD2")
    4846                      .dwattr $C$DW$495, DW_AT_TI_symbol_name("_RSVD2")
    4847                      .dwattr $C$DW$495, DW_AT_data_member_location[DW_OP_plus_uconst 0x46]
    4848                      .dwattr $C$DW$495, DW_AT_accessibility(DW_ACCESS_public)
    4849              $C$DW$496       .dwtag  DW_TAG_member
    4850                      .dwattr $C$DW$496, DW_AT_type(*$C$DW$T$20)
    4851                      .dwattr $C$DW$496, DW_AT_name("DMACH3SSAL")
    4852                      .dwattr $C$DW$496, DW_AT_TI_symbol_name("_DMACH3SSAL")
    4853                      .dwattr $C$DW$496, DW_AT_data_member_location[DW_OP_plus_uconst 0x60]
    4854                      .dwattr $C$DW$496, DW_AT_accessibility(DW_ACCESS_public)
    4855              $C$DW$497       .dwtag  DW_TAG_member
    4856                      .dwattr $C$DW$497, DW_AT_type(*$C$DW$T$20)
    4857                      .dwattr $C$DW$497, DW_AT_name("DMACH3SSAU")
    4858                      .dwattr $C$DW$497, DW_AT_TI_symbol_name("_DMACH3SSAU")
    4859                      .dwattr $C$DW$497, DW_AT_data_member_location[DW_OP_plus_uconst 0x61]
    4860                      .dwattr $C$DW$497, DW_AT_accessibility(DW_ACCESS_public)
    4861              $C$DW$498       .dwtag  DW_TAG_member
    4862                      .dwattr $C$DW$498, DW_AT_type(*$C$DW$T$20)
    4863                      .dwattr $C$DW$498, DW_AT_name("DMACH3DSAL")
    4864                      .dwattr $C$DW$498, DW_AT_TI_symbol_name("_DMACH3DSAL")
    4865                      .dwattr $C$DW$498, DW_AT_data_member_location[DW_OP_plus_uconst 0x62]
    4866                      .dwattr $C$DW$498, DW_AT_accessibility(DW_ACCESS_public)
    4867              $C$DW$499       .dwtag  DW_TAG_member
    4868                      .dwattr $C$DW$499, DW_AT_type(*$C$DW$T$20)
    4869                      .dwattr $C$DW$499, DW_AT_name("DMACH3DSAU")
    4870                      .dwattr $C$DW$499, DW_AT_TI_symbol_name("_DMACH3DSAU")
    4871                      .dwattr $C$DW$499, DW_AT_data_member_location[DW_OP_plus_uconst 0x63]
    4872                      .dwattr $C$DW$499, DW_AT_accessibility(DW_ACCESS_public)
    4873              $C$DW$500       .dwtag  DW_TAG_member
TMS320C55x Assembler PC v4.4.1 Sat Sep 29 23:08:57 2018

Tools Copyright (c) 1996-2012 Texas Instruments Incorporated
csl_nand_dma_example.asm                                             PAGE  129

    4874                      .dwattr $C$DW$500, DW_AT_type(*$C$DW$T$20)
    4875                      .dwattr $C$DW$500, DW_AT_name("DMACH3TCR1")
    4876                      .dwattr $C$DW$500, DW_AT_TI_symbol_name("_DMACH3TCR1")
    4877                      .dwattr $C$DW$500, DW_AT_data_member_location[DW_OP_plus_uconst 0x64]
    4878                      .dwattr $C$DW$500, DW_AT_accessibility(DW_ACCESS_public)
    4879              $C$DW$501       .dwtag  DW_TAG_member
    4880                      .dwattr $C$DW$501, DW_AT_type(*$C$DW$T$20)
    4881                      .dwattr $C$DW$501, DW_AT_name("DMACH3TCR2")
    4882                      .dwattr $C$DW$501, DW_AT_TI_symbol_name("_DMACH3TCR2")
    4883                      .dwattr $C$DW$501, DW_AT_data_member_location[DW_OP_plus_uconst 0x65]
    4884                      .dwattr $C$DW$501, DW_AT_accessibility(DW_ACCESS_public)
    4885                      .dwendtag $C$DW$T$32
    4886              
    4887              $C$DW$T$33      .dwtag  DW_TAG_typedef, DW_AT_name("CSL_DmaRegs")
    4888                      .dwattr $C$DW$T$33, DW_AT_type(*$C$DW$T$32)
    4889                      .dwattr $C$DW$T$33, DW_AT_language(DW_LANG_C)
    4890              $C$DW$502       .dwtag  DW_TAG_TI_far_type
    4891                      .dwattr $C$DW$502, DW_AT_type(*$C$DW$T$33)
    4892              $C$DW$503       .dwtag  DW_TAG_TI_ioport_type
    4893                      .dwattr $C$DW$503, DW_AT_type(*$C$DW$502)
    4894              $C$DW$T$34      .dwtag  DW_TAG_volatile_type
    4895                      .dwattr $C$DW$T$34, DW_AT_type(*$C$DW$503)
    4896              $C$DW$T$35      .dwtag  DW_TAG_pointer_type
    4897                      .dwattr $C$DW$T$35, DW_AT_type(*$C$DW$T$34)
    4898                      .dwattr $C$DW$T$35, DW_AT_address_class(0x10)
    4899              $C$DW$T$36      .dwtag  DW_TAG_typedef, DW_AT_name("CSL_DmaRegsOvly")
    4900                      .dwattr $C$DW$T$36, DW_AT_type(*$C$DW$T$35)
    4901                      .dwattr $C$DW$T$36, DW_AT_language(DW_LANG_C)
    4902              
    4903              $C$DW$T$50      .dwtag  DW_TAG_structure_type
    4904                      .dwattr $C$DW$T$50, DW_AT_byte_size(0x09)
    4905              $C$DW$504       .dwtag  DW_TAG_member
    4906                      .dwattr $C$DW$504, DW_AT_type(*$C$DW$T$36)
    4907                      .dwattr $C$DW$504, DW_AT_name("dmaRegs")
    4908                      .dwattr $C$DW$504, DW_AT_TI_symbol_name("_dmaRegs")
    4909                      .dwattr $C$DW$504, DW_AT_data_member_location[DW_OP_plus_uconst 0x0]
    4910                      .dwattr $C$DW$504, DW_AT_accessibility(DW_ACCESS_public)
    4911              $C$DW$505       .dwtag  DW_TAG_member
    4912                      .dwattr $C$DW$505, DW_AT_type(*$C$DW$T$38)
    4913                      .dwattr $C$DW$505, DW_AT_name("chanNum")
    4914                      .dwattr $C$DW$505, DW_AT_TI_symbol_name("_chanNum")
    4915                      .dwattr $C$DW$505, DW_AT_data_member_location[DW_OP_plus_uconst 0x1]
    4916                      .dwattr $C$DW$505, DW_AT_accessibility(DW_ACCESS_public)
    4917              $C$DW$506       .dwtag  DW_TAG_member
    4918                      .dwattr $C$DW$506, DW_AT_type(*$C$DW$T$40)
    4919                      .dwattr $C$DW$506, DW_AT_name("dmaInstNum")
    4920                      .dwattr $C$DW$506, DW_AT_TI_symbol_name("_dmaInstNum")
    4921                      .dwattr $C$DW$506, DW_AT_data_member_location[DW_OP_plus_uconst 0x2]
    4922                      .dwattr $C$DW$506, DW_AT_accessibility(DW_ACCESS_public)
    4923              $C$DW$507       .dwtag  DW_TAG_member
    4924                      .dwattr $C$DW$507, DW_AT_type(*$C$DW$T$41)
    4925                      .dwattr $C$DW$507, DW_AT_name("isChanFree")
    4926                      .dwattr $C$DW$507, DW_AT_TI_symbol_name("_isChanFree")
    4927                      .dwattr $C$DW$507, DW_AT_data_member_location[DW_OP_plus_uconst 0x3]
    4928                      .dwattr $C$DW$507, DW_AT_accessibility(DW_ACCESS_public)
TMS320C55x Assembler PC v4.4.1 Sat Sep 29 23:08:57 2018

Tools Copyright (c) 1996-2012 Texas Instruments Incorporated
csl_nand_dma_example.asm                                             PAGE  130

    4929              $C$DW$508       .dwtag  DW_TAG_member
    4930                      .dwattr $C$DW$508, DW_AT_type(*$C$DW$T$43)
    4931                      .dwattr $C$DW$508, DW_AT_name("chanDir")
    4932                      .dwattr $C$DW$508, DW_AT_TI_symbol_name("_chanDir")
    4933                      .dwattr $C$DW$508, DW_AT_data_member_location[DW_OP_plus_uconst 0x4]
    4934                      .dwattr $C$DW$508, DW_AT_accessibility(DW_ACCESS_public)
    4935              $C$DW$509       .dwtag  DW_TAG_member
    4936                      .dwattr $C$DW$509, DW_AT_type(*$C$DW$T$45)
    4937                      .dwattr $C$DW$509, DW_AT_name("trigger")
    4938                      .dwattr $C$DW$509, DW_AT_TI_symbol_name("_trigger")
    4939                      .dwattr $C$DW$509, DW_AT_data_member_location[DW_OP_plus_uconst 0x5]
    4940                      .dwattr $C$DW$509, DW_AT_accessibility(DW_ACCESS_public)
    4941              $C$DW$510       .dwtag  DW_TAG_member
    4942                      .dwattr $C$DW$510, DW_AT_type(*$C$DW$T$47)
    4943                      .dwattr $C$DW$510, DW_AT_name("trfType")
    4944                      .dwattr $C$DW$510, DW_AT_TI_symbol_name("_trfType")
    4945                      .dwattr $C$DW$510, DW_AT_data_member_location[DW_OP_plus_uconst 0x6]
    4946                      .dwattr $C$DW$510, DW_AT_accessibility(DW_ACCESS_public)
    4947              $C$DW$511       .dwtag  DW_TAG_member
    4948                      .dwattr $C$DW$511, DW_AT_type(*$C$DW$T$49)
    4949                      .dwattr $C$DW$511, DW_AT_name("dmaInt")
    4950                      .dwattr $C$DW$511, DW_AT_TI_symbol_name("_dmaInt")
    4951                      .dwattr $C$DW$511, DW_AT_data_member_location[DW_OP_plus_uconst 0x7]
    4952                      .dwattr $C$DW$511, DW_AT_accessibility(DW_ACCESS_public)
    4953              $C$DW$512       .dwtag  DW_TAG_member
    4954                      .dwattr $C$DW$512, DW_AT_type(*$C$DW$T$41)
    4955                      .dwattr $C$DW$512, DW_AT_name("pingPongEnabled")
    4956                      .dwattr $C$DW$512, DW_AT_TI_symbol_name("_pingPongEnabled")
    4957                      .dwattr $C$DW$512, DW_AT_data_member_location[DW_OP_plus_uconst 0x8]
    4958                      .dwattr $C$DW$512, DW_AT_accessibility(DW_ACCESS_public)
    4959                      .dwendtag $C$DW$T$50
    4960              
    4961              $C$DW$T$103     .dwtag  DW_TAG_typedef, DW_AT_name("CSL_DMA_ChannelObj")
    4962                      .dwattr $C$DW$T$103, DW_AT_type(*$C$DW$T$50)
    4963                      .dwattr $C$DW$T$103, DW_AT_language(DW_LANG_C)
    4964              $C$DW$T$104     .dwtag  DW_TAG_pointer_type
    4965                      .dwattr $C$DW$T$104, DW_AT_type(*$C$DW$T$103)
    4966                      .dwattr $C$DW$T$104, DW_AT_address_class(0x17)
    4967              $C$DW$T$105     .dwtag  DW_TAG_typedef, DW_AT_name("CSL_DMA_Handle")
    4968                      .dwattr $C$DW$T$105, DW_AT_type(*$C$DW$T$104)
    4969                      .dwattr $C$DW$T$105, DW_AT_language(DW_LANG_C)
    4970              
    4971              $C$DW$T$60      .dwtag  DW_TAG_structure_type
    4972                      .dwattr $C$DW$T$60, DW_AT_byte_size(0x0e)
    4973              $C$DW$513       .dwtag  DW_TAG_member
    4974                      .dwattr $C$DW$513, DW_AT_type(*$C$DW$T$52)
    4975                      .dwattr $C$DW$513, DW_AT_name("pingPongMode")
    4976                      .dwattr $C$DW$513, DW_AT_TI_symbol_name("_pingPongMode")
    4977                      .dwattr $C$DW$513, DW_AT_data_member_location[DW_OP_plus_uconst 0x0]
    4978                      .dwattr $C$DW$513, DW_AT_accessibility(DW_ACCESS_public)
    4979              $C$DW$514       .dwtag  DW_TAG_member
    4980                      .dwattr $C$DW$514, DW_AT_type(*$C$DW$T$54)
    4981                      .dwattr $C$DW$514, DW_AT_name("autoMode")
    4982                      .dwattr $C$DW$514, DW_AT_TI_symbol_name("_autoMode")
    4983                      .dwattr $C$DW$514, DW_AT_data_member_location[DW_OP_plus_uconst 0x1]
TMS320C55x Assembler PC v4.4.1 Sat Sep 29 23:08:57 2018

Tools Copyright (c) 1996-2012 Texas Instruments Incorporated
csl_nand_dma_example.asm                                             PAGE  131

    4984                      .dwattr $C$DW$514, DW_AT_accessibility(DW_ACCESS_public)
    4985              $C$DW$515       .dwtag  DW_TAG_member
    4986                      .dwattr $C$DW$515, DW_AT_type(*$C$DW$T$56)
    4987                      .dwattr $C$DW$515, DW_AT_name("burstLen")
    4988                      .dwattr $C$DW$515, DW_AT_TI_symbol_name("_burstLen")
    4989                      .dwattr $C$DW$515, DW_AT_data_member_location[DW_OP_plus_uconst 0x2]
    4990                      .dwattr $C$DW$515, DW_AT_accessibility(DW_ACCESS_public)
    4991              $C$DW$516       .dwtag  DW_TAG_member
    4992                      .dwattr $C$DW$516, DW_AT_type(*$C$DW$T$45)
    4993                      .dwattr $C$DW$516, DW_AT_name("trigger")
    4994                      .dwattr $C$DW$516, DW_AT_TI_symbol_name("_trigger")
    4995                      .dwattr $C$DW$516, DW_AT_data_member_location[DW_OP_plus_uconst 0x3]
    4996                      .dwattr $C$DW$516, DW_AT_accessibility(DW_ACCESS_public)
    4997              $C$DW$517       .dwtag  DW_TAG_member
    4998                      .dwattr $C$DW$517, DW_AT_type(*$C$DW$T$58)
    4999                      .dwattr $C$DW$517, DW_AT_name("dmaEvt")
    5000                      .dwattr $C$DW$517, DW_AT_TI_symbol_name("_dmaEvt")
    5001                      .dwattr $C$DW$517, DW_AT_data_member_location[DW_OP_plus_uconst 0x4]
    5002                      .dwattr $C$DW$517, DW_AT_accessibility(DW_ACCESS_public)
    5003              $C$DW$518       .dwtag  DW_TAG_member
    5004                      .dwattr $C$DW$518, DW_AT_type(*$C$DW$T$49)
    5005                      .dwattr $C$DW$518, DW_AT_name("dmaInt")
    5006                      .dwattr $C$DW$518, DW_AT_TI_symbol_name("_dmaInt")
    5007                      .dwattr $C$DW$518, DW_AT_data_member_location[DW_OP_plus_uconst 0x5]
    5008                      .dwattr $C$DW$518, DW_AT_accessibility(DW_ACCESS_public)
    5009              $C$DW$519       .dwtag  DW_TAG_member
    5010                      .dwattr $C$DW$519, DW_AT_type(*$C$DW$T$43)
    5011                      .dwattr $C$DW$519, DW_AT_name("chanDir")
    5012                      .dwattr $C$DW$519, DW_AT_TI_symbol_name("_chanDir")
    5013                      .dwattr $C$DW$519, DW_AT_data_member_location[DW_OP_plus_uconst 0x6]
    5014                      .dwattr $C$DW$519, DW_AT_accessibility(DW_ACCESS_public)
    5015              $C$DW$520       .dwtag  DW_TAG_member
    5016                      .dwattr $C$DW$520, DW_AT_type(*$C$DW$T$47)
    5017                      .dwattr $C$DW$520, DW_AT_name("trfType")
    5018                      .dwattr $C$DW$520, DW_AT_TI_symbol_name("_trfType")
    5019                      .dwattr $C$DW$520, DW_AT_data_member_location[DW_OP_plus_uconst 0x7]
    5020                      .dwattr $C$DW$520, DW_AT_accessibility(DW_ACCESS_public)
    5021              $C$DW$521       .dwtag  DW_TAG_member
    5022                      .dwattr $C$DW$521, DW_AT_type(*$C$DW$T$19)
    5023                      .dwattr $C$DW$521, DW_AT_name("dataLen")
    5024                      .dwattr $C$DW$521, DW_AT_TI_symbol_name("_dataLen")
    5025                      .dwattr $C$DW$521, DW_AT_data_member_location[DW_OP_plus_uconst 0x8]
    5026                      .dwattr $C$DW$521, DW_AT_accessibility(DW_ACCESS_public)
    5027              $C$DW$522       .dwtag  DW_TAG_member
    5028                      .dwattr $C$DW$522, DW_AT_type(*$C$DW$T$59)
    5029                      .dwattr $C$DW$522, DW_AT_name("srcAddr")
    5030                      .dwattr $C$DW$522, DW_AT_TI_symbol_name("_srcAddr")
    5031                      .dwattr $C$DW$522, DW_AT_data_member_location[DW_OP_plus_uconst 0xa]
    5032                      .dwattr $C$DW$522, DW_AT_accessibility(DW_ACCESS_public)
    5033              $C$DW$523       .dwtag  DW_TAG_member
    5034                      .dwattr $C$DW$523, DW_AT_type(*$C$DW$T$59)
    5035                      .dwattr $C$DW$523, DW_AT_name("destAddr")
    5036                      .dwattr $C$DW$523, DW_AT_TI_symbol_name("_destAddr")
    5037                      .dwattr $C$DW$523, DW_AT_data_member_location[DW_OP_plus_uconst 0xc]
    5038                      .dwattr $C$DW$523, DW_AT_accessibility(DW_ACCESS_public)
TMS320C55x Assembler PC v4.4.1 Sat Sep 29 23:08:57 2018

Tools Copyright (c) 1996-2012 Texas Instruments Incorporated
csl_nand_dma_example.asm                                             PAGE  132

    5039                      .dwendtag $C$DW$T$60
    5040              
    5041              $C$DW$T$113     .dwtag  DW_TAG_typedef, DW_AT_name("CSL_DMA_Config")
    5042                      .dwattr $C$DW$T$113, DW_AT_type(*$C$DW$T$60)
    5043                      .dwattr $C$DW$T$113, DW_AT_language(DW_LANG_C)
    5044              $C$DW$T$114     .dwtag  DW_TAG_pointer_type
    5045                      .dwattr $C$DW$T$114, DW_AT_type(*$C$DW$T$113)
    5046                      .dwattr $C$DW$T$114, DW_AT_address_class(0x17)
    5047              
    5048              $C$DW$T$65      .dwtag  DW_TAG_structure_type
    5049                      .dwattr $C$DW$T$65, DW_AT_byte_size(0x0e)
    5050              $C$DW$524       .dwtag  DW_TAG_member
    5051                      .dwattr $C$DW$524, DW_AT_type(*$C$DW$T$62)
    5052                      .dwattr $C$DW$524, DW_AT_name("name")
    5053                      .dwattr $C$DW$524, DW_AT_TI_symbol_name("_name")
    5054                      .dwattr $C$DW$524, DW_AT_data_member_location[DW_OP_plus_uconst 0x0]
    5055                      .dwattr $C$DW$524, DW_AT_accessibility(DW_ACCESS_public)
    5056              $C$DW$525       .dwtag  DW_TAG_member
    5057                      .dwattr $C$DW$525, DW_AT_type(*$C$DW$T$59)
    5058                      .dwattr $C$DW$525, DW_AT_name("id")
    5059                      .dwattr $C$DW$525, DW_AT_TI_symbol_name("_id")
    5060                      .dwattr $C$DW$525, DW_AT_data_member_location[DW_OP_plus_uconst 0x2]
    5061                      .dwattr $C$DW$525, DW_AT_accessibility(DW_ACCESS_public)
    5062              $C$DW$526       .dwtag  DW_TAG_member
    5063                      .dwattr $C$DW$526, DW_AT_type(*$C$DW$T$59)
    5064                      .dwattr $C$DW$526, DW_AT_name("bytesPerPage")
    5065                      .dwattr $C$DW$526, DW_AT_TI_symbol_name("_bytesPerPage")
    5066                      .dwattr $C$DW$526, DW_AT_data_member_location[DW_OP_plus_uconst 0x4]
    5067                      .dwattr $C$DW$526, DW_AT_accessibility(DW_ACCESS_public)
    5068              $C$DW$527       .dwtag  DW_TAG_member
    5069                      .dwattr $C$DW$527, DW_AT_type(*$C$DW$T$59)
    5070                      .dwattr $C$DW$527, DW_AT_name("chipSize")
    5071                      .dwattr $C$DW$527, DW_AT_TI_symbol_name("_chipSize")
    5072                      .dwattr $C$DW$527, DW_AT_data_member_location[DW_OP_plus_uconst 0x6]
    5073                      .dwattr $C$DW$527, DW_AT_accessibility(DW_ACCESS_public)
    5074              $C$DW$528       .dwtag  DW_TAG_member
    5075                      .dwattr $C$DW$528, DW_AT_type(*$C$DW$T$59)
    5076                      .dwattr $C$DW$528, DW_AT_name("eraseSize")
    5077                      .dwattr $C$DW$528, DW_AT_TI_symbol_name("_eraseSize")
    5078                      .dwattr $C$DW$528, DW_AT_data_member_location[DW_OP_plus_uconst 0x8]
    5079                      .dwattr $C$DW$528, DW_AT_accessibility(DW_ACCESS_public)
    5080              $C$DW$529       .dwtag  DW_TAG_member
    5081                      .dwattr $C$DW$529, DW_AT_type(*$C$DW$T$64)
    5082                      .dwattr $C$DW$529, DW_AT_name("nand8Bit")
    5083                      .dwattr $C$DW$529, DW_AT_TI_symbol_name("_nand8Bit")
    5084                      .dwattr $C$DW$529, DW_AT_data_member_location[DW_OP_plus_uconst 0xa]
    5085                      .dwattr $C$DW$529, DW_AT_accessibility(DW_ACCESS_public)
    5086              $C$DW$530       .dwtag  DW_TAG_member
    5087                      .dwattr $C$DW$530, DW_AT_type(*$C$DW$T$59)
    5088                      .dwattr $C$DW$530, DW_AT_name("nandOptions")
    5089                      .dwattr $C$DW$530, DW_AT_TI_symbol_name("_nandOptions")
    5090                      .dwattr $C$DW$530, DW_AT_data_member_location[DW_OP_plus_uconst 0xc]
    5091                      .dwattr $C$DW$530, DW_AT_accessibility(DW_ACCESS_public)
    5092                      .dwendtag $C$DW$T$65
    5093              
TMS320C55x Assembler PC v4.4.1 Sat Sep 29 23:08:57 2018

Tools Copyright (c) 1996-2012 Texas Instruments Incorporated
csl_nand_dma_example.asm                                             PAGE  133

    5094              $C$DW$T$115     .dwtag  DW_TAG_typedef, DW_AT_name("CSL_NandFlashDev")
    5095                      .dwattr $C$DW$T$115, DW_AT_type(*$C$DW$T$65)
    5096                      .dwattr $C$DW$T$115, DW_AT_language(DW_LANG_C)
    5097              
    5098              $C$DW$T$116     .dwtag  DW_TAG_array_type
    5099                      .dwattr $C$DW$T$116, DW_AT_type(*$C$DW$T$115)
    5100                      .dwattr $C$DW$T$116, DW_AT_language(DW_LANG_C)
    5101                      .dwattr $C$DW$T$116, DW_AT_byte_size(0x348)
    5102              $C$DW$531       .dwtag  DW_TAG_subrange_type
    5103                      .dwattr $C$DW$531, DW_AT_upper_bound(0x3b)
    5104                      .dwendtag $C$DW$T$116
    5105              
    5106              
    5107              $C$DW$T$67      .dwtag  DW_TAG_structure_type
    5108                      .dwattr $C$DW$T$67, DW_AT_name("CSL_NandAsyncBank")
    5109                      .dwattr $C$DW$T$67, DW_AT_byte_size(0x08)
    5110              $C$DW$532       .dwtag  DW_TAG_member
    5111                      .dwattr $C$DW$532, DW_AT_type(*$C$DW$T$66)
    5112                      .dwattr $C$DW$532, DW_AT_name("CExDATA")
    5113                      .dwattr $C$DW$532, DW_AT_TI_symbol_name("_CExDATA")
    5114                      .dwattr $C$DW$532, DW_AT_data_member_location[DW_OP_plus_uconst 0x0]
    5115                      .dwattr $C$DW$532, DW_AT_accessibility(DW_ACCESS_public)
    5116              $C$DW$533       .dwtag  DW_TAG_member
    5117                      .dwattr $C$DW$533, DW_AT_type(*$C$DW$T$66)
    5118                      .dwattr $C$DW$533, DW_AT_name("CExALE")
    5119                      .dwattr $C$DW$533, DW_AT_TI_symbol_name("_CExALE")
    5120                      .dwattr $C$DW$533, DW_AT_data_member_location[DW_OP_plus_uconst 0x2]
    5121                      .dwattr $C$DW$533, DW_AT_accessibility(DW_ACCESS_public)
    5122              $C$DW$534       .dwtag  DW_TAG_member
    5123                      .dwattr $C$DW$534, DW_AT_type(*$C$DW$T$66)
    5124                      .dwattr $C$DW$534, DW_AT_name("CExCLE")
    5125                      .dwattr $C$DW$534, DW_AT_TI_symbol_name("_CExCLE")
    5126                      .dwattr $C$DW$534, DW_AT_data_member_location[DW_OP_plus_uconst 0x4]
    5127                      .dwattr $C$DW$534, DW_AT_accessibility(DW_ACCESS_public)
    5128              $C$DW$535       .dwtag  DW_TAG_member
    5129                      .dwattr $C$DW$535, DW_AT_type(*$C$DW$T$66)
    5130                      .dwattr $C$DW$535, DW_AT_name("CExNUM")
    5131                      .dwattr $C$DW$535, DW_AT_TI_symbol_name("_CExNUM")
    5132                      .dwattr $C$DW$535, DW_AT_data_member_location[DW_OP_plus_uconst 0x6]
    5133                      .dwattr $C$DW$535, DW_AT_accessibility(DW_ACCESS_public)
    5134                      .dwendtag $C$DW$T$67
    5135              
    5136              $C$DW$T$100     .dwtag  DW_TAG_typedef, DW_AT_name("CSL_NandAsyncBank")
    5137                      .dwattr $C$DW$T$100, DW_AT_type(*$C$DW$T$67)
    5138                      .dwattr $C$DW$T$100, DW_AT_language(DW_LANG_C)
    5139              $C$DW$T$118     .dwtag  DW_TAG_pointer_type
    5140                      .dwattr $C$DW$T$118, DW_AT_type(*$C$DW$T$100)
    5141                      .dwattr $C$DW$T$118, DW_AT_address_class(0x17)
    5142              
    5143              $C$DW$T$68      .dwtag  DW_TAG_structure_type
    5144                      .dwattr $C$DW$T$68, DW_AT_name("CSL_NandAsyncCfg")
    5145                      .dwattr $C$DW$T$68, DW_AT_byte_size(0x0a)
    5146              $C$DW$536       .dwtag  DW_TAG_member
    5147                      .dwattr $C$DW$536, DW_AT_type(*$C$DW$T$19)
    5148                      .dwattr $C$DW$536, DW_AT_name("selectStrobe")
TMS320C55x Assembler PC v4.4.1 Sat Sep 29 23:08:57 2018

Tools Copyright (c) 1996-2012 Texas Instruments Incorporated
csl_nand_dma_example.asm                                             PAGE  134

    5149                      .dwattr $C$DW$536, DW_AT_TI_symbol_name("_selectStrobe")
    5150                      .dwattr $C$DW$536, DW_AT_data_member_location[DW_OP_plus_uconst 0x0]
    5151                      .dwattr $C$DW$536, DW_AT_accessibility(DW_ACCESS_public)
    5152              $C$DW$537       .dwtag  DW_TAG_member
    5153                      .dwattr $C$DW$537, DW_AT_type(*$C$DW$T$19)
    5154                      .dwattr $C$DW$537, DW_AT_name("ewMode")
    5155                      .dwattr $C$DW$537, DW_AT_TI_symbol_name("_ewMode")
    5156                      .dwattr $C$DW$537, DW_AT_data_member_location[DW_OP_plus_uconst 0x1]
    5157                      .dwattr $C$DW$537, DW_AT_accessibility(DW_ACCESS_public)
    5158              $C$DW$538       .dwtag  DW_TAG_member
    5159                      .dwattr $C$DW$538, DW_AT_type(*$C$DW$T$19)
    5160                      .dwattr $C$DW$538, DW_AT_name("w_setup")
    5161                      .dwattr $C$DW$538, DW_AT_TI_symbol_name("_w_setup")
    5162                      .dwattr $C$DW$538, DW_AT_data_member_location[DW_OP_plus_uconst 0x2]
    5163                      .dwattr $C$DW$538, DW_AT_accessibility(DW_ACCESS_public)
    5164              $C$DW$539       .dwtag  DW_TAG_member
    5165                      .dwattr $C$DW$539, DW_AT_type(*$C$DW$T$19)
    5166                      .dwattr $C$DW$539, DW_AT_name("w_strobe")
    5167                      .dwattr $C$DW$539, DW_AT_TI_symbol_name("_w_strobe")
    5168                      .dwattr $C$DW$539, DW_AT_data_member_location[DW_OP_plus_uconst 0x3]
    5169                      .dwattr $C$DW$539, DW_AT_accessibility(DW_ACCESS_public)
    5170              $C$DW$540       .dwtag  DW_TAG_member
    5171                      .dwattr $C$DW$540, DW_AT_type(*$C$DW$T$19)
    5172                      .dwattr $C$DW$540, DW_AT_name("w_hold")
    5173                      .dwattr $C$DW$540, DW_AT_TI_symbol_name("_w_hold")
    5174                      .dwattr $C$DW$540, DW_AT_data_member_location[DW_OP_plus_uconst 0x4]
    5175                      .dwattr $C$DW$540, DW_AT_accessibility(DW_ACCESS_public)
    5176              $C$DW$541       .dwtag  DW_TAG_member
    5177                      .dwattr $C$DW$541, DW_AT_type(*$C$DW$T$19)
    5178                      .dwattr $C$DW$541, DW_AT_name("r_setup")
    5179                      .dwattr $C$DW$541, DW_AT_TI_symbol_name("_r_setup")
    5180                      .dwattr $C$DW$541, DW_AT_data_member_location[DW_OP_plus_uconst 0x5]
    5181                      .dwattr $C$DW$541, DW_AT_accessibility(DW_ACCESS_public)
    5182              $C$DW$542       .dwtag  DW_TAG_member
    5183                      .dwattr $C$DW$542, DW_AT_type(*$C$DW$T$19)
    5184                      .dwattr $C$DW$542, DW_AT_name("r_strobe")
    5185                      .dwattr $C$DW$542, DW_AT_TI_symbol_name("_r_strobe")
    5186                      .dwattr $C$DW$542, DW_AT_data_member_location[DW_OP_plus_uconst 0x6]
    5187                      .dwattr $C$DW$542, DW_AT_accessibility(DW_ACCESS_public)
    5188              $C$DW$543       .dwtag  DW_TAG_member
    5189                      .dwattr $C$DW$543, DW_AT_type(*$C$DW$T$19)
    5190                      .dwattr $C$DW$543, DW_AT_name("r_hold")
    5191                      .dwattr $C$DW$543, DW_AT_TI_symbol_name("_r_hold")
    5192                      .dwattr $C$DW$543, DW_AT_data_member_location[DW_OP_plus_uconst 0x7]
    5193                      .dwattr $C$DW$543, DW_AT_accessibility(DW_ACCESS_public)
    5194              $C$DW$544       .dwtag  DW_TAG_member
    5195                      .dwattr $C$DW$544, DW_AT_type(*$C$DW$T$19)
    5196                      .dwattr $C$DW$544, DW_AT_name("turnAround")
    5197                      .dwattr $C$DW$544, DW_AT_TI_symbol_name("_turnAround")
    5198                      .dwattr $C$DW$544, DW_AT_data_member_location[DW_OP_plus_uconst 0x8]
    5199                      .dwattr $C$DW$544, DW_AT_accessibility(DW_ACCESS_public)
    5200              $C$DW$545       .dwtag  DW_TAG_member
    5201                      .dwattr $C$DW$545, DW_AT_type(*$C$DW$T$19)
    5202                      .dwattr $C$DW$545, DW_AT_name("aSize")
    5203                      .dwattr $C$DW$545, DW_AT_TI_symbol_name("_aSize")
TMS320C55x Assembler PC v4.4.1 Sat Sep 29 23:08:57 2018

Tools Copyright (c) 1996-2012 Texas Instruments Incorporated
csl_nand_dma_example.asm                                             PAGE  135

    5204                      .dwattr $C$DW$545, DW_AT_data_member_location[DW_OP_plus_uconst 0x9]
    5205                      .dwattr $C$DW$545, DW_AT_accessibility(DW_ACCESS_public)
    5206                      .dwendtag $C$DW$T$68
    5207              
    5208              $C$DW$T$88      .dwtag  DW_TAG_typedef, DW_AT_name("CSL_NandAsyncCfg")
    5209                      .dwattr $C$DW$T$88, DW_AT_type(*$C$DW$T$68)
    5210                      .dwattr $C$DW$T$88, DW_AT_language(DW_LANG_C)
    5211              $C$DW$T$89      .dwtag  DW_TAG_pointer_type
    5212                      .dwattr $C$DW$T$89, DW_AT_type(*$C$DW$T$88)
    5213                      .dwattr $C$DW$T$89, DW_AT_address_class(0x17)
    5214              
    5215              $C$DW$T$73      .dwtag  DW_TAG_structure_type
    5216                      .dwattr $C$DW$T$73, DW_AT_name("CSL_NandAsyncWaitCfg")
    5217                      .dwattr $C$DW$T$73, DW_AT_byte_size(0x03)
    5218              $C$DW$546       .dwtag  DW_TAG_member
    5219                      .dwattr $C$DW$546, DW_AT_type(*$C$DW$T$70)
    5220                      .dwattr $C$DW$546, DW_AT_name("waitPol")
    5221                      .dwattr $C$DW$546, DW_AT_TI_symbol_name("_waitPol")
    5222                      .dwattr $C$DW$546, DW_AT_data_member_location[DW_OP_plus_uconst 0x0]
    5223                      .dwattr $C$DW$546, DW_AT_accessibility(DW_ACCESS_public)
    5224              $C$DW$547       .dwtag  DW_TAG_member
    5225                      .dwattr $C$DW$547, DW_AT_type(*$C$DW$T$72)
    5226                      .dwattr $C$DW$547, DW_AT_name("nandPort")
    5227                      .dwattr $C$DW$547, DW_AT_TI_symbol_name("_nandPort")
    5228                      .dwattr $C$DW$547, DW_AT_data_member_location[DW_OP_plus_uconst 0x1]
    5229                      .dwattr $C$DW$547, DW_AT_accessibility(DW_ACCESS_public)
    5230              $C$DW$548       .dwtag  DW_TAG_member
    5231                      .dwattr $C$DW$548, DW_AT_type(*$C$DW$T$19)
    5232                      .dwattr $C$DW$548, DW_AT_name("waitCycles")
    5233                      .dwattr $C$DW$548, DW_AT_TI_symbol_name("_waitCycles")
    5234                      .dwattr $C$DW$548, DW_AT_data_member_location[DW_OP_plus_uconst 0x2]
    5235                      .dwattr $C$DW$548, DW_AT_accessibility(DW_ACCESS_public)
    5236                      .dwendtag $C$DW$T$73
    5237              
    5238              $C$DW$T$86      .dwtag  DW_TAG_typedef, DW_AT_name("CSL_NandAsyncWaitCfg")
    5239                      .dwattr $C$DW$T$86, DW_AT_type(*$C$DW$T$73)
    5240                      .dwattr $C$DW$T$86, DW_AT_language(DW_LANG_C)
    5241              $C$DW$T$87      .dwtag  DW_TAG_pointer_type
    5242                      .dwattr $C$DW$T$87, DW_AT_type(*$C$DW$T$86)
    5243                      .dwattr $C$DW$T$87, DW_AT_address_class(0x17)
    5244              
    5245              $C$DW$T$90      .dwtag  DW_TAG_structure_type
    5246                      .dwattr $C$DW$T$90, DW_AT_name("CSL_NandConfig")
    5247                      .dwattr $C$DW$T$90, DW_AT_byte_size(0x0c)
    5248              $C$DW$549       .dwtag  DW_TAG_member
    5249                      .dwattr $C$DW$549, DW_AT_type(*$C$DW$T$64)
    5250                      .dwattr $C$DW$549, DW_AT_name("nandWidth")
    5251                      .dwattr $C$DW$549, DW_AT_TI_symbol_name("_nandWidth")
    5252                      .dwattr $C$DW$549, DW_AT_data_member_location[DW_OP_plus_uconst 0x0]
    5253                      .dwattr $C$DW$549, DW_AT_accessibility(DW_ACCESS_public)
    5254              $C$DW$550       .dwtag  DW_TAG_member
    5255                      .dwattr $C$DW$550, DW_AT_type(*$C$DW$T$75)
    5256                      .dwattr $C$DW$550, DW_AT_name("nandPageSize")
    5257                      .dwattr $C$DW$550, DW_AT_TI_symbol_name("_nandPageSize")
    5258                      .dwattr $C$DW$550, DW_AT_data_member_location[DW_OP_plus_uconst 0x1]
TMS320C55x Assembler PC v4.4.1 Sat Sep 29 23:08:57 2018

Tools Copyright (c) 1996-2012 Texas Instruments Incorporated
csl_nand_dma_example.asm                                             PAGE  136

    5259                      .dwattr $C$DW$550, DW_AT_accessibility(DW_ACCESS_public)
    5260              $C$DW$551       .dwtag  DW_TAG_member
    5261                      .dwattr $C$DW$551, DW_AT_type(*$C$DW$T$77)
    5262                      .dwattr $C$DW$551, DW_AT_name("nandBankNo")
    5263                      .dwattr $C$DW$551, DW_AT_TI_symbol_name("_nandBankNo")
    5264                      .dwattr $C$DW$551, DW_AT_data_member_location[DW_OP_plus_uconst 0x2]
    5265                      .dwattr $C$DW$551, DW_AT_accessibility(DW_ACCESS_public)
    5266              $C$DW$552       .dwtag  DW_TAG_member
    5267                      .dwattr $C$DW$552, DW_AT_type(*$C$DW$T$79)
    5268                      .dwattr $C$DW$552, DW_AT_name("emifAccess")
    5269                      .dwattr $C$DW$552, DW_AT_TI_symbol_name("_emifAccess")
    5270                      .dwattr $C$DW$552, DW_AT_data_member_location[DW_OP_plus_uconst 0x3]
    5271                      .dwattr $C$DW$552, DW_AT_accessibility(DW_ACCESS_public)
    5272              $C$DW$553       .dwtag  DW_TAG_member
    5273                      .dwattr $C$DW$553, DW_AT_type(*$C$DW$T$81)
    5274                      .dwattr $C$DW$553, DW_AT_name("nandOpMode")
    5275                      .dwattr $C$DW$553, DW_AT_TI_symbol_name("_nandOpMode")
    5276                      .dwattr $C$DW$553, DW_AT_data_member_location[DW_OP_plus_uconst 0x4]
    5277                      .dwattr $C$DW$553, DW_AT_accessibility(DW_ACCESS_public)
    5278              $C$DW$554       .dwtag  DW_TAG_member
    5279                      .dwattr $C$DW$554, DW_AT_type(*$C$DW$T$83)
    5280                      .dwattr $C$DW$554, DW_AT_name("nandType")
    5281                      .dwattr $C$DW$554, DW_AT_TI_symbol_name("_nandType")
    5282                      .dwattr $C$DW$554, DW_AT_data_member_location[DW_OP_plus_uconst 0x5]
    5283                      .dwattr $C$DW$554, DW_AT_accessibility(DW_ACCESS_public)
    5284              $C$DW$555       .dwtag  DW_TAG_member
    5285                      .dwattr $C$DW$555, DW_AT_type(*$C$DW$T$85)
    5286                      .dwattr $C$DW$555, DW_AT_name("chipSelect")
    5287                      .dwattr $C$DW$555, DW_AT_TI_symbol_name("_chipSelect")
    5288                      .dwattr $C$DW$555, DW_AT_data_member_location[DW_OP_plus_uconst 0x6]
    5289                      .dwattr $C$DW$555, DW_AT_accessibility(DW_ACCESS_public)
    5290              $C$DW$556       .dwtag  DW_TAG_member
    5291                      .dwattr $C$DW$556, DW_AT_type(*$C$DW$T$87)
    5292                      .dwattr $C$DW$556, DW_AT_name("asyncWaitCfg")
    5293                      .dwattr $C$DW$556, DW_AT_TI_symbol_name("_asyncWaitCfg")
    5294                      .dwattr $C$DW$556, DW_AT_data_member_location[DW_OP_plus_uconst 0x8]
    5295                      .dwattr $C$DW$556, DW_AT_accessibility(DW_ACCESS_public)
    5296              $C$DW$557       .dwtag  DW_TAG_member
    5297                      .dwattr $C$DW$557, DW_AT_type(*$C$DW$T$89)
    5298                      .dwattr $C$DW$557, DW_AT_name("asyncCfg")
    5299                      .dwattr $C$DW$557, DW_AT_TI_symbol_name("_asyncCfg")
    5300                      .dwattr $C$DW$557, DW_AT_data_member_location[DW_OP_plus_uconst 0xa]
    5301                      .dwattr $C$DW$557, DW_AT_accessibility(DW_ACCESS_public)
    5302                      .dwendtag $C$DW$T$90
    5303              
    5304              $C$DW$T$119     .dwtag  DW_TAG_typedef, DW_AT_name("CSL_NandConfig")
    5305                      .dwattr $C$DW$T$119, DW_AT_type(*$C$DW$T$90)
    5306                      .dwattr $C$DW$T$119, DW_AT_language(DW_LANG_C)
    5307              $C$DW$T$120     .dwtag  DW_TAG_pointer_type
    5308                      .dwattr $C$DW$T$120, DW_AT_type(*$C$DW$T$119)
    5309                      .dwattr $C$DW$T$120, DW_AT_address_class(0x17)
    5310              
    5311              $C$DW$T$102     .dwtag  DW_TAG_structure_type
    5312                      .dwattr $C$DW$T$102, DW_AT_name("CSL_NandObj")
    5313                      .dwattr $C$DW$T$102, DW_AT_byte_size(0x14)
TMS320C55x Assembler PC v4.4.1 Sat Sep 29 23:08:57 2018

Tools Copyright (c) 1996-2012 Texas Instruments Incorporated
csl_nand_dma_example.asm                                             PAGE  137

    5314              $C$DW$558       .dwtag  DW_TAG_member
    5315                      .dwattr $C$DW$558, DW_AT_type(*$C$DW$T$94)
    5316                      .dwattr $C$DW$558, DW_AT_name("regs")
    5317                      .dwattr $C$DW$558, DW_AT_TI_symbol_name("_regs")
    5318                      .dwattr $C$DW$558, DW_AT_data_member_location[DW_OP_plus_uconst 0x0]
    5319                      .dwattr $C$DW$558, DW_AT_accessibility(DW_ACCESS_public)
    5320              $C$DW$559       .dwtag  DW_TAG_member
    5321                      .dwattr $C$DW$559, DW_AT_type(*$C$DW$T$98)
    5322                      .dwattr $C$DW$559, DW_AT_name("sysCtrlRegs")
    5323                      .dwattr $C$DW$559, DW_AT_TI_symbol_name("_sysCtrlRegs")
    5324                      .dwattr $C$DW$559, DW_AT_data_member_location[DW_OP_plus_uconst 0x1]
    5325                      .dwattr $C$DW$559, DW_AT_accessibility(DW_ACCESS_public)
    5326              $C$DW$560       .dwtag  DW_TAG_member
    5327                      .dwattr $C$DW$560, DW_AT_type(*$C$DW$T$19)
    5328                      .dwattr $C$DW$560, DW_AT_name("instId")
    5329                      .dwattr $C$DW$560, DW_AT_TI_symbol_name("_instId")
    5330                      .dwattr $C$DW$560, DW_AT_data_member_location[DW_OP_plus_uconst 0x2]
    5331                      .dwattr $C$DW$560, DW_AT_accessibility(DW_ACCESS_public)
    5332              $C$DW$561       .dwtag  DW_TAG_member
    5333                      .dwattr $C$DW$561, DW_AT_type(*$C$DW$T$64)
    5334                      .dwattr $C$DW$561, DW_AT_name("nandWidth")
    5335                      .dwattr $C$DW$561, DW_AT_TI_symbol_name("_nandWidth")
    5336                      .dwattr $C$DW$561, DW_AT_data_member_location[DW_OP_plus_uconst 0x3]
    5337                      .dwattr $C$DW$561, DW_AT_accessibility(DW_ACCESS_public)
    5338              $C$DW$562       .dwtag  DW_TAG_member
    5339                      .dwattr $C$DW$562, DW_AT_type(*$C$DW$T$99)
    5340                      .dwattr $C$DW$562, DW_AT_name("intrNumNand")
    5341                      .dwattr $C$DW$562, DW_AT_TI_symbol_name("_intrNumNand")
    5342                      .dwattr $C$DW$562, DW_AT_data_member_location[DW_OP_plus_uconst 0x4]
    5343                      .dwattr $C$DW$562, DW_AT_accessibility(DW_ACCESS_public)
    5344              $C$DW$563       .dwtag  DW_TAG_member
    5345                      .dwattr $C$DW$563, DW_AT_type(*$C$DW$T$100)
    5346                      .dwattr $C$DW$563, DW_AT_name("bank")
    5347                      .dwattr $C$DW$563, DW_AT_TI_symbol_name("_bank")
    5348                      .dwattr $C$DW$563, DW_AT_data_member_location[DW_OP_plus_uconst 0x6]
    5349                      .dwattr $C$DW$563, DW_AT_accessibility(DW_ACCESS_public)
    5350              $C$DW$564       .dwtag  DW_TAG_member
    5351                      .dwattr $C$DW$564, DW_AT_type(*$C$DW$T$75)
    5352                      .dwattr $C$DW$564, DW_AT_name("nandPageSize")
    5353                      .dwattr $C$DW$564, DW_AT_TI_symbol_name("_nandPageSize")
    5354                      .dwattr $C$DW$564, DW_AT_data_member_location[DW_OP_plus_uconst 0xe]
    5355                      .dwattr $C$DW$564, DW_AT_accessibility(DW_ACCESS_public)
    5356              $C$DW$565       .dwtag  DW_TAG_member
    5357                      .dwattr $C$DW$565, DW_AT_type(*$C$DW$T$19)
    5358                      .dwattr $C$DW$565, DW_AT_name("addrCycles")
    5359                      .dwattr $C$DW$565, DW_AT_TI_symbol_name("_addrCycles")
    5360                      .dwattr $C$DW$565, DW_AT_data_member_location[DW_OP_plus_uconst 0xf]
    5361                      .dwattr $C$DW$565, DW_AT_accessibility(DW_ACCESS_public)
    5362              $C$DW$566       .dwtag  DW_TAG_member
    5363                      .dwattr $C$DW$566, DW_AT_type(*$C$DW$T$81)
    5364                      .dwattr $C$DW$566, DW_AT_name("nandOpMode")
    5365                      .dwattr $C$DW$566, DW_AT_TI_symbol_name("_nandOpMode")
    5366                      .dwattr $C$DW$566, DW_AT_data_member_location[DW_OP_plus_uconst 0x10]
    5367                      .dwattr $C$DW$566, DW_AT_accessibility(DW_ACCESS_public)
    5368              $C$DW$567       .dwtag  DW_TAG_member
TMS320C55x Assembler PC v4.4.1 Sat Sep 29 23:08:57 2018

Tools Copyright (c) 1996-2012 Texas Instruments Incorporated
csl_nand_dma_example.asm                                             PAGE  138

    5369                      .dwattr $C$DW$567, DW_AT_type(*$C$DW$T$83)
    5370                      .dwattr $C$DW$567, DW_AT_name("nandType")
    5371                      .dwattr $C$DW$567, DW_AT_TI_symbol_name("_nandType")
    5372                      .dwattr $C$DW$567, DW_AT_data_member_location[DW_OP_plus_uconst 0x11]
    5373                      .dwattr $C$DW$567, DW_AT_accessibility(DW_ACCESS_public)
    5374              $C$DW$568       .dwtag  DW_TAG_member
    5375                      .dwattr $C$DW$568, DW_AT_type(*$C$DW$T$85)
    5376                      .dwattr $C$DW$568, DW_AT_name("chipSelect")
    5377                      .dwattr $C$DW$568, DW_AT_TI_symbol_name("_chipSelect")
    5378                      .dwattr $C$DW$568, DW_AT_data_member_location[DW_OP_plus_uconst 0x12]
    5379                      .dwattr $C$DW$568, DW_AT_accessibility(DW_ACCESS_public)
    5380              $C$DW$569       .dwtag  DW_TAG_member
    5381                      .dwattr $C$DW$569, DW_AT_type(*$C$DW$T$101)
    5382                      .dwattr $C$DW$569, DW_AT_name("waitPin")
    5383                      .dwattr $C$DW$569, DW_AT_TI_symbol_name("_waitPin")
    5384                      .dwattr $C$DW$569, DW_AT_data_member_location[DW_OP_plus_uconst 0x13]
    5385                      .dwattr $C$DW$569, DW_AT_accessibility(DW_ACCESS_public)
    5386                      .dwendtag $C$DW$T$102
    5387              
    5388              $C$DW$T$121     .dwtag  DW_TAG_typedef, DW_AT_name("CSL_NandObj")
    5389                      .dwattr $C$DW$T$121, DW_AT_type(*$C$DW$T$102)
    5390                      .dwattr $C$DW$T$121, DW_AT_language(DW_LANG_C)
    5391              $C$DW$T$122     .dwtag  DW_TAG_pointer_type
    5392                      .dwattr $C$DW$T$122, DW_AT_type(*$C$DW$T$121)
    5393                      .dwattr $C$DW$T$122, DW_AT_address_class(0x17)
    5394              $C$DW$T$123     .dwtag  DW_TAG_typedef, DW_AT_name("CSL_NandHandle")
    5395                      .dwattr $C$DW$T$123, DW_AT_type(*$C$DW$T$122)
    5396                      .dwattr $C$DW$T$123, DW_AT_language(DW_LANG_C)
    5397              $C$DW$T$4       .dwtag  DW_TAG_base_type
    5398                      .dwattr $C$DW$T$4, DW_AT_encoding(DW_ATE_boolean)
    5399                      .dwattr $C$DW$T$4, DW_AT_name("bool")
    5400                      .dwattr $C$DW$T$4, DW_AT_byte_size(0x01)
    5401              $C$DW$T$5       .dwtag  DW_TAG_base_type
    5402                      .dwattr $C$DW$T$5, DW_AT_encoding(DW_ATE_signed_char)
    5403                      .dwattr $C$DW$T$5, DW_AT_name("signed char")
    5404                      .dwattr $C$DW$T$5, DW_AT_byte_size(0x01)
    5405              $C$DW$T$6       .dwtag  DW_TAG_base_type
    5406                      .dwattr $C$DW$T$6, DW_AT_encoding(DW_ATE_unsigned_char)
    5407                      .dwattr $C$DW$T$6, DW_AT_name("unsigned char")
    5408                      .dwattr $C$DW$T$6, DW_AT_byte_size(0x01)
    5409              $C$DW$T$101     .dwtag  DW_TAG_typedef, DW_AT_name("Uint8")
    5410                      .dwattr $C$DW$T$101, DW_AT_type(*$C$DW$T$6)
    5411                      .dwattr $C$DW$T$101, DW_AT_language(DW_LANG_C)
    5412              $C$DW$570       .dwtag  DW_TAG_TI_far_type
    5413                      .dwattr $C$DW$570, DW_AT_type(*$C$DW$T$6)
    5414              $C$DW$T$125     .dwtag  DW_TAG_volatile_type
    5415                      .dwattr $C$DW$T$125, DW_AT_type(*$C$DW$570)
    5416              $C$DW$T$126     .dwtag  DW_TAG_typedef, DW_AT_name("CSL_VUint8")
    5417                      .dwattr $C$DW$T$126, DW_AT_type(*$C$DW$T$125)
    5418                      .dwattr $C$DW$T$126, DW_AT_language(DW_LANG_C)
    5419              $C$DW$T$7       .dwtag  DW_TAG_base_type
    5420                      .dwattr $C$DW$T$7, DW_AT_encoding(DW_ATE_signed_char)
    5421                      .dwattr $C$DW$T$7, DW_AT_name("wchar_t")
    5422                      .dwattr $C$DW$T$7, DW_AT_byte_size(0x01)
    5423              $C$DW$T$8       .dwtag  DW_TAG_base_type
TMS320C55x Assembler PC v4.4.1 Sat Sep 29 23:08:57 2018

Tools Copyright (c) 1996-2012 Texas Instruments Incorporated
csl_nand_dma_example.asm                                             PAGE  139

    5424                      .dwattr $C$DW$T$8, DW_AT_encoding(DW_ATE_signed)
    5425                      .dwattr $C$DW$T$8, DW_AT_name("short")
    5426                      .dwattr $C$DW$T$8, DW_AT_byte_size(0x01)
    5427              $C$DW$T$106     .dwtag  DW_TAG_typedef, DW_AT_name("Int16")
    5428                      .dwattr $C$DW$T$106, DW_AT_type(*$C$DW$T$8)
    5429                      .dwattr $C$DW$T$106, DW_AT_language(DW_LANG_C)
    5430              $C$DW$T$107     .dwtag  DW_TAG_typedef, DW_AT_name("CSL_Status")
    5431                      .dwattr $C$DW$T$107, DW_AT_type(*$C$DW$T$106)
    5432                      .dwattr $C$DW$T$107, DW_AT_language(DW_LANG_C)
    5433              $C$DW$T$108     .dwtag  DW_TAG_pointer_type
    5434                      .dwattr $C$DW$T$108, DW_AT_type(*$C$DW$T$107)
    5435                      .dwattr $C$DW$T$108, DW_AT_address_class(0x17)
    5436              $C$DW$571       .dwtag  DW_TAG_TI_far_type
    5437                      .dwattr $C$DW$571, DW_AT_type(*$C$DW$T$106)
    5438              $C$DW$T$155     .dwtag  DW_TAG_volatile_type
    5439                      .dwattr $C$DW$T$155, DW_AT_type(*$C$DW$571)
    5440              $C$DW$T$9       .dwtag  DW_TAG_base_type
    5441                      .dwattr $C$DW$T$9, DW_AT_encoding(DW_ATE_unsigned)
    5442                      .dwattr $C$DW$T$9, DW_AT_name("unsigned short")
    5443                      .dwattr $C$DW$T$9, DW_AT_byte_size(0x01)
    5444              $C$DW$T$19      .dwtag  DW_TAG_typedef, DW_AT_name("Uint16")
    5445                      .dwattr $C$DW$T$19, DW_AT_type(*$C$DW$T$9)
    5446                      .dwattr $C$DW$T$19, DW_AT_language(DW_LANG_C)
    5447              $C$DW$572       .dwtag  DW_TAG_TI_far_type
    5448                      .dwattr $C$DW$572, DW_AT_type(*$C$DW$T$19)
    5449              $C$DW$T$20      .dwtag  DW_TAG_volatile_type
    5450                      .dwattr $C$DW$T$20, DW_AT_type(*$C$DW$572)
    5451              
    5452              $C$DW$T$21      .dwtag  DW_TAG_array_type
    5453                      .dwattr $C$DW$T$21, DW_AT_type(*$C$DW$T$20)
    5454                      .dwattr $C$DW$T$21, DW_AT_language(DW_LANG_C)
    5455                      .dwattr $C$DW$T$21, DW_AT_byte_size(0x02)
    5456              $C$DW$573       .dwtag  DW_TAG_subrange_type
    5457                      .dwattr $C$DW$573, DW_AT_upper_bound(0x01)
    5458                      .dwendtag $C$DW$T$21
    5459              
    5460              
    5461              $C$DW$T$22      .dwtag  DW_TAG_array_type
    5462                      .dwattr $C$DW$T$22, DW_AT_type(*$C$DW$T$20)
    5463                      .dwattr $C$DW$T$22, DW_AT_language(DW_LANG_C)
    5464                      .dwattr $C$DW$T$22, DW_AT_byte_size(0x03)
    5465              $C$DW$574       .dwtag  DW_TAG_subrange_type
    5466                      .dwattr $C$DW$574, DW_AT_upper_bound(0x02)
    5467                      .dwendtag $C$DW$T$22
    5468              
    5469              
    5470              $C$DW$T$23      .dwtag  DW_TAG_array_type
    5471                      .dwattr $C$DW$T$23, DW_AT_type(*$C$DW$T$20)
    5472                      .dwattr $C$DW$T$23, DW_AT_language(DW_LANG_C)
    5473                      .dwattr $C$DW$T$23, DW_AT_byte_size(0x1b)
    5474              $C$DW$575       .dwtag  DW_TAG_subrange_type
    5475                      .dwattr $C$DW$575, DW_AT_upper_bound(0x1a)
    5476                      .dwendtag $C$DW$T$23
    5477              
    5478              
TMS320C55x Assembler PC v4.4.1 Sat Sep 29 23:08:57 2018

Tools Copyright (c) 1996-2012 Texas Instruments Incorporated
csl_nand_dma_example.asm                                             PAGE  140

    5479              $C$DW$T$24      .dwtag  DW_TAG_array_type
    5480                      .dwattr $C$DW$T$24, DW_AT_type(*$C$DW$T$20)
    5481                      .dwattr $C$DW$T$24, DW_AT_language(DW_LANG_C)
    5482                      .dwattr $C$DW$T$24, DW_AT_byte_size(0x13)
    5483              $C$DW$576       .dwtag  DW_TAG_subrange_type
    5484                      .dwattr $C$DW$576, DW_AT_upper_bound(0x12)
    5485                      .dwendtag $C$DW$T$24
    5486              
    5487              
    5488              $C$DW$T$25      .dwtag  DW_TAG_array_type
    5489                      .dwattr $C$DW$T$25, DW_AT_type(*$C$DW$T$20)
    5490                      .dwattr $C$DW$T$25, DW_AT_language(DW_LANG_C)
    5491                      .dwattr $C$DW$T$25, DW_AT_byte_size(0x06)
    5492              $C$DW$577       .dwtag  DW_TAG_subrange_type
    5493                      .dwattr $C$DW$577, DW_AT_upper_bound(0x05)
    5494                      .dwendtag $C$DW$T$25
    5495              
    5496              
    5497              $C$DW$T$26      .dwtag  DW_TAG_array_type
    5498                      .dwattr $C$DW$T$26, DW_AT_type(*$C$DW$T$20)
    5499                      .dwattr $C$DW$T$26, DW_AT_language(DW_LANG_C)
    5500                      .dwattr $C$DW$T$26, DW_AT_byte_size(0x3e)
    5501              $C$DW$578       .dwtag  DW_TAG_subrange_type
    5502                      .dwattr $C$DW$578, DW_AT_upper_bound(0x3d)
    5503                      .dwendtag $C$DW$T$26
    5504              
    5505              
    5506              $C$DW$T$28      .dwtag  DW_TAG_array_type
    5507                      .dwattr $C$DW$T$28, DW_AT_type(*$C$DW$T$20)
    5508                      .dwattr $C$DW$T$28, DW_AT_language(DW_LANG_C)
    5509                      .dwattr $C$DW$T$28, DW_AT_byte_size(0x0e)
    5510              $C$DW$579       .dwtag  DW_TAG_subrange_type
    5511                      .dwattr $C$DW$579, DW_AT_upper_bound(0x0d)
    5512                      .dwendtag $C$DW$T$28
    5513              
    5514              
    5515              $C$DW$T$29      .dwtag  DW_TAG_array_type
    5516                      .dwattr $C$DW$T$29, DW_AT_type(*$C$DW$T$20)
    5517                      .dwattr $C$DW$T$29, DW_AT_language(DW_LANG_C)
    5518                      .dwattr $C$DW$T$29, DW_AT_byte_size(0x05)
    5519              $C$DW$580       .dwtag  DW_TAG_subrange_type
    5520                      .dwattr $C$DW$580, DW_AT_upper_bound(0x04)
    5521                      .dwendtag $C$DW$T$29
    5522              
    5523              
    5524              $C$DW$T$31      .dwtag  DW_TAG_array_type
    5525                      .dwattr $C$DW$T$31, DW_AT_type(*$C$DW$T$20)
    5526                      .dwattr $C$DW$T$31, DW_AT_language(DW_LANG_C)
    5527                      .dwattr $C$DW$T$31, DW_AT_byte_size(0x1a)
    5528              $C$DW$581       .dwtag  DW_TAG_subrange_type
    5529                      .dwattr $C$DW$581, DW_AT_upper_bound(0x19)
    5530                      .dwendtag $C$DW$T$31
    5531              
    5532              $C$DW$T$134     .dwtag  DW_TAG_pointer_type
    5533                      .dwattr $C$DW$T$134, DW_AT_type(*$C$DW$T$19)
TMS320C55x Assembler PC v4.4.1 Sat Sep 29 23:08:57 2018

Tools Copyright (c) 1996-2012 Texas Instruments Incorporated
csl_nand_dma_example.asm                                             PAGE  141

    5534                      .dwattr $C$DW$T$134, DW_AT_address_class(0x17)
    5535              
    5536              $C$DW$T$157     .dwtag  DW_TAG_array_type
    5537                      .dwattr $C$DW$T$157, DW_AT_type(*$C$DW$T$19)
    5538                      .dwattr $C$DW$T$157, DW_AT_language(DW_LANG_C)
    5539                      .dwattr $C$DW$T$157, DW_AT_byte_size(0x400)
    5540              $C$DW$582       .dwtag  DW_TAG_subrange_type
    5541                      .dwattr $C$DW$582, DW_AT_upper_bound(0x3ff)
    5542                      .dwendtag $C$DW$T$157
    5543              
    5544              
    5545              $C$DW$T$159     .dwtag  DW_TAG_array_type
    5546                      .dwattr $C$DW$T$159, DW_AT_type(*$C$DW$T$19)
    5547                      .dwattr $C$DW$T$159, DW_AT_language(DW_LANG_C)
    5548                      .dwattr $C$DW$T$159, DW_AT_byte_size(0x08)
    5549              $C$DW$583       .dwtag  DW_TAG_subrange_type
    5550                      .dwattr $C$DW$583, DW_AT_upper_bound(0x07)
    5551                      .dwendtag $C$DW$T$159
    5552              
    5553              
    5554              $C$DW$T$161     .dwtag  DW_TAG_array_type
    5555                      .dwattr $C$DW$T$161, DW_AT_type(*$C$DW$T$19)
    5556                      .dwattr $C$DW$T$161, DW_AT_language(DW_LANG_C)
    5557                      .dwattr $C$DW$T$161, DW_AT_byte_size(0x05)
    5558              $C$DW$584       .dwtag  DW_TAG_subrange_type
    5559                      .dwattr $C$DW$584, DW_AT_upper_bound(0x04)
    5560                      .dwendtag $C$DW$T$161
    5561              
    5562              $C$DW$585       .dwtag  DW_TAG_TI_far_type
    5563                      .dwattr $C$DW$585, DW_AT_type(*$C$DW$T$9)
    5564              $C$DW$T$137     .dwtag  DW_TAG_volatile_type
    5565                      .dwattr $C$DW$T$137, DW_AT_type(*$C$DW$585)
    5566              $C$DW$T$138     .dwtag  DW_TAG_typedef, DW_AT_name("CSL_VUint16")
    5567                      .dwattr $C$DW$T$138, DW_AT_type(*$C$DW$T$137)
    5568                      .dwattr $C$DW$T$138, DW_AT_language(DW_LANG_C)
    5569              $C$DW$T$10      .dwtag  DW_TAG_base_type
    5570                      .dwattr $C$DW$T$10, DW_AT_encoding(DW_ATE_signed)
    5571                      .dwattr $C$DW$T$10, DW_AT_name("int")
    5572                      .dwattr $C$DW$T$10, DW_AT_byte_size(0x01)
    5573              $C$DW$T$41      .dwtag  DW_TAG_typedef, DW_AT_name("Bool")
    5574                      .dwattr $C$DW$T$41, DW_AT_type(*$C$DW$T$10)
    5575                      .dwattr $C$DW$T$41, DW_AT_language(DW_LANG_C)
    5576              $C$DW$T$99      .dwtag  DW_TAG_typedef, DW_AT_name("Int")
    5577                      .dwattr $C$DW$T$99, DW_AT_type(*$C$DW$T$10)
    5578                      .dwattr $C$DW$T$99, DW_AT_language(DW_LANG_C)
    5579              $C$DW$T$11      .dwtag  DW_TAG_base_type
    5580                      .dwattr $C$DW$T$11, DW_AT_encoding(DW_ATE_unsigned)
    5581                      .dwattr $C$DW$T$11, DW_AT_name("unsigned int")
    5582                      .dwattr $C$DW$T$11, DW_AT_byte_size(0x01)
    5583              $C$DW$T$12      .dwtag  DW_TAG_base_type
    5584                      .dwattr $C$DW$T$12, DW_AT_encoding(DW_ATE_signed)
    5585                      .dwattr $C$DW$T$12, DW_AT_name("long")
    5586                      .dwattr $C$DW$T$12, DW_AT_byte_size(0x02)
    5587              $C$DW$T$13      .dwtag  DW_TAG_base_type
    5588                      .dwattr $C$DW$T$13, DW_AT_encoding(DW_ATE_unsigned)
TMS320C55x Assembler PC v4.4.1 Sat Sep 29 23:08:57 2018

Tools Copyright (c) 1996-2012 Texas Instruments Incorporated
csl_nand_dma_example.asm                                             PAGE  142

    5589                      .dwattr $C$DW$T$13, DW_AT_name("unsigned long")
    5590                      .dwattr $C$DW$T$13, DW_AT_byte_size(0x02)
    5591              $C$DW$T$59      .dwtag  DW_TAG_typedef, DW_AT_name("Uint32")
    5592                      .dwattr $C$DW$T$59, DW_AT_type(*$C$DW$T$13)
    5593                      .dwattr $C$DW$T$59, DW_AT_language(DW_LANG_C)
    5594              $C$DW$586       .dwtag  DW_TAG_TI_far_type
    5595                      .dwattr $C$DW$586, DW_AT_type(*$C$DW$T$59)
    5596              $C$DW$T$66      .dwtag  DW_TAG_volatile_type
    5597                      .dwattr $C$DW$T$66, DW_AT_type(*$C$DW$586)
    5598              $C$DW$T$14      .dwtag  DW_TAG_base_type
    5599                      .dwattr $C$DW$T$14, DW_AT_encoding(DW_ATE_signed)
    5600                      .dwattr $C$DW$T$14, DW_AT_name("long long")
    5601                      .dwattr $C$DW$T$14, DW_AT_byte_size(0x04)
    5602                      .dwattr $C$DW$T$14, DW_AT_bit_size(0x28)
    5603                      .dwattr $C$DW$T$14, DW_AT_bit_offset(0x18)
    5604              $C$DW$T$15      .dwtag  DW_TAG_base_type
    5605                      .dwattr $C$DW$T$15, DW_AT_encoding(DW_ATE_unsigned)
    5606                      .dwattr $C$DW$T$15, DW_AT_name("unsigned long long")
    5607                      .dwattr $C$DW$T$15, DW_AT_byte_size(0x04)
    5608                      .dwattr $C$DW$T$15, DW_AT_bit_size(0x28)
    5609                      .dwattr $C$DW$T$15, DW_AT_bit_offset(0x18)
    5610              $C$DW$T$16      .dwtag  DW_TAG_base_type
    5611                      .dwattr $C$DW$T$16, DW_AT_encoding(DW_ATE_float)
    5612                      .dwattr $C$DW$T$16, DW_AT_name("float")
    5613                      .dwattr $C$DW$T$16, DW_AT_byte_size(0x02)
    5614              $C$DW$T$17      .dwtag  DW_TAG_base_type
    5615                      .dwattr $C$DW$T$17, DW_AT_encoding(DW_ATE_float)
    5616                      .dwattr $C$DW$T$17, DW_AT_name("double")
    5617                      .dwattr $C$DW$T$17, DW_AT_byte_size(0x02)
    5618              $C$DW$T$18      .dwtag  DW_TAG_base_type
    5619                      .dwattr $C$DW$T$18, DW_AT_encoding(DW_ATE_float)
    5620                      .dwattr $C$DW$T$18, DW_AT_name("long double")
    5621                      .dwattr $C$DW$T$18, DW_AT_byte_size(0x02)
    5622              $C$DW$T$61      .dwtag  DW_TAG_base_type
    5623                      .dwattr $C$DW$T$61, DW_AT_encoding(DW_ATE_signed_char)
    5624                      .dwattr $C$DW$T$61, DW_AT_name("signed char")
    5625                      .dwattr $C$DW$T$61, DW_AT_byte_size(0x01)
    5626              $C$DW$T$62      .dwtag  DW_TAG_pointer_type
    5627                      .dwattr $C$DW$T$62, DW_AT_type(*$C$DW$T$61)
    5628                      .dwattr $C$DW$T$62, DW_AT_address_class(0x17)
    5629              $C$DW$587       .dwtag  DW_TAG_TI_far_type
    5630                      .dwattr $C$DW$587, DW_AT_type(*$C$DW$T$61)
    5631              $C$DW$T$166     .dwtag  DW_TAG_const_type
    5632                      .dwattr $C$DW$T$166, DW_AT_type(*$C$DW$587)
    5633              $C$DW$T$167     .dwtag  DW_TAG_pointer_type
    5634                      .dwattr $C$DW$T$167, DW_AT_type(*$C$DW$T$166)
    5635                      .dwattr $C$DW$T$167, DW_AT_address_class(0x17)
    5636                      .dwattr $C$DW$CU, DW_AT_language(DW_LANG_C)
    5637              
    5638              ;***************************************************************
    5639              ;* DWARF CIE ENTRIES                                           *
    5640              ;***************************************************************
    5641              
    5642              $C$DW$CIE       .dwcie 91
    5643                      .dwcfi  cfa_register, 36
TMS320C55x Assembler PC v4.4.1 Sat Sep 29 23:08:57 2018

Tools Copyright (c) 1996-2012 Texas Instruments Incorporated
csl_nand_dma_example.asm                                             PAGE  143

    5644                      .dwcfi  cfa_offset, 0
    5645                      .dwcfi  undefined, 0
    5646                      .dwcfi  undefined, 1
    5647                      .dwcfi  undefined, 2
    5648                      .dwcfi  undefined, 3
    5649                      .dwcfi  undefined, 4
    5650                      .dwcfi  undefined, 5
    5651                      .dwcfi  undefined, 6
    5652                      .dwcfi  undefined, 7
    5653                      .dwcfi  undefined, 8
    5654                      .dwcfi  undefined, 9
    5655                      .dwcfi  undefined, 10
    5656                      .dwcfi  undefined, 11
    5657                      .dwcfi  undefined, 12
    5658                      .dwcfi  undefined, 13
    5659                      .dwcfi  same_value, 14
    5660                      .dwcfi  same_value, 15
    5661                      .dwcfi  undefined, 16
    5662                      .dwcfi  undefined, 17
    5663                      .dwcfi  undefined, 18
    5664                      .dwcfi  undefined, 19
    5665                      .dwcfi  undefined, 20
    5666                      .dwcfi  undefined, 21
    5667                      .dwcfi  undefined, 22
    5668                      .dwcfi  undefined, 23
    5669                      .dwcfi  undefined, 24
    5670                      .dwcfi  undefined, 25
    5671                      .dwcfi  same_value, 26
    5672                      .dwcfi  same_value, 27
    5673                      .dwcfi  same_value, 28
    5674                      .dwcfi  same_value, 29
    5675                      .dwcfi  same_value, 30
    5676                      .dwcfi  same_value, 31
    5677                      .dwcfi  undefined, 32
    5678                      .dwcfi  undefined, 33
    5679                      .dwcfi  undefined, 34
    5680                      .dwcfi  undefined, 35
    5681                      .dwcfi  undefined, 36
    5682                      .dwcfi  undefined, 37
    5683                      .dwcfi  undefined, 38
    5684                      .dwcfi  undefined, 39
    5685                      .dwcfi  undefined, 40
    5686                      .dwcfi  undefined, 41
    5687                      .dwcfi  undefined, 42
    5688                      .dwcfi  undefined, 43
    5689                      .dwcfi  undefined, 44
    5690                      .dwcfi  undefined, 45
    5691                      .dwcfi  undefined, 46
    5692                      .dwcfi  undefined, 47
    5693                      .dwcfi  undefined, 48
    5694                      .dwcfi  undefined, 49
    5695                      .dwcfi  undefined, 50
    5696                      .dwcfi  undefined, 51
    5697                      .dwcfi  undefined, 52
    5698                      .dwcfi  undefined, 53
TMS320C55x Assembler PC v4.4.1 Sat Sep 29 23:08:57 2018

Tools Copyright (c) 1996-2012 Texas Instruments Incorporated
csl_nand_dma_example.asm                                             PAGE  144

    5699                      .dwcfi  undefined, 54
    5700                      .dwcfi  undefined, 55
    5701                      .dwcfi  undefined, 56
    5702                      .dwcfi  undefined, 57
    5703                      .dwcfi  undefined, 58
    5704                      .dwcfi  undefined, 59
    5705                      .dwcfi  undefined, 60
    5706                      .dwcfi  undefined, 61
    5707                      .dwcfi  undefined, 62
    5708                      .dwcfi  undefined, 63
    5709                      .dwcfi  undefined, 64
    5710                      .dwcfi  undefined, 65
    5711                      .dwcfi  undefined, 66
    5712                      .dwcfi  undefined, 67
    5713                      .dwcfi  undefined, 68
    5714                      .dwcfi  undefined, 69
    5715                      .dwcfi  undefined, 70
    5716                      .dwcfi  undefined, 71
    5717                      .dwcfi  undefined, 72
    5718                      .dwcfi  undefined, 73
    5719                      .dwcfi  undefined, 74
    5720                      .dwcfi  undefined, 75
    5721                      .dwcfi  undefined, 76
    5722                      .dwcfi  undefined, 77
    5723                      .dwcfi  undefined, 78
    5724                      .dwcfi  undefined, 79
    5725                      .dwcfi  undefined, 80
    5726                      .dwcfi  undefined, 81
    5727                      .dwcfi  undefined, 82
    5728                      .dwcfi  undefined, 83
    5729                      .dwcfi  undefined, 84
    5730                      .dwcfi  undefined, 85
    5731                      .dwcfi  undefined, 86
    5732                      .dwcfi  undefined, 87
    5733                      .dwcfi  undefined, 88
    5734                      .dwcfi  undefined, 89
    5735                      .dwcfi  undefined, 90
    5736                      .dwcfi  undefined, 91
    5737                      .dwendentry
    5738              
    5739              ;***************************************************************
    5740              ;* DWARF REGISTER MAP                                          *
    5741              ;***************************************************************
    5742              
    5743              $C$DW$588       .dwtag  DW_TAG_TI_assign_register, DW_AT_name("AC0")
    5744                      .dwattr $C$DW$588, DW_AT_location[DW_OP_reg0]
    5745              $C$DW$589       .dwtag  DW_TAG_TI_assign_register, DW_AT_name("AC0")
    5746                      .dwattr $C$DW$589, DW_AT_location[DW_OP_reg1]
    5747              $C$DW$590       .dwtag  DW_TAG_TI_assign_register, DW_AT_name("AC0_G")
    5748                      .dwattr $C$DW$590, DW_AT_location[DW_OP_reg2]
    5749              $C$DW$591       .dwtag  DW_TAG_TI_assign_register, DW_AT_name("AC1")
    5750                      .dwattr $C$DW$591, DW_AT_location[DW_OP_reg3]
    5751              $C$DW$592       .dwtag  DW_TAG_TI_assign_register, DW_AT_name("AC1")
    5752                      .dwattr $C$DW$592, DW_AT_location[DW_OP_reg4]
    5753              $C$DW$593       .dwtag  DW_TAG_TI_assign_register, DW_AT_name("AC1_G")
TMS320C55x Assembler PC v4.4.1 Sat Sep 29 23:08:57 2018

Tools Copyright (c) 1996-2012 Texas Instruments Incorporated
csl_nand_dma_example.asm                                             PAGE  145

    5754                      .dwattr $C$DW$593, DW_AT_location[DW_OP_reg5]
    5755              $C$DW$594       .dwtag  DW_TAG_TI_assign_register, DW_AT_name("AC2")
    5756                      .dwattr $C$DW$594, DW_AT_location[DW_OP_reg6]
    5757              $C$DW$595       .dwtag  DW_TAG_TI_assign_register, DW_AT_name("AC2")
    5758                      .dwattr $C$DW$595, DW_AT_location[DW_OP_reg7]
    5759              $C$DW$596       .dwtag  DW_TAG_TI_assign_register, DW_AT_name("AC2_G")
    5760                      .dwattr $C$DW$596, DW_AT_location[DW_OP_reg8]
    5761              $C$DW$597       .dwtag  DW_TAG_TI_assign_register, DW_AT_name("AC3")
    5762                      .dwattr $C$DW$597, DW_AT_location[DW_OP_reg9]
    5763              $C$DW$598       .dwtag  DW_TAG_TI_assign_register, DW_AT_name("AC3")
    5764                      .dwattr $C$DW$598, DW_AT_location[DW_OP_reg10]
    5765              $C$DW$599       .dwtag  DW_TAG_TI_assign_register, DW_AT_name("AC3_G")
    5766                      .dwattr $C$DW$599, DW_AT_location[DW_OP_reg11]
    5767              $C$DW$600       .dwtag  DW_TAG_TI_assign_register, DW_AT_name("T0")
    5768                      .dwattr $C$DW$600, DW_AT_location[DW_OP_reg12]
    5769              $C$DW$601       .dwtag  DW_TAG_TI_assign_register, DW_AT_name("T1")
    5770                      .dwattr $C$DW$601, DW_AT_location[DW_OP_reg13]
    5771              $C$DW$602       .dwtag  DW_TAG_TI_assign_register, DW_AT_name("T2")
    5772                      .dwattr $C$DW$602, DW_AT_location[DW_OP_reg14]
    5773              $C$DW$603       .dwtag  DW_TAG_TI_assign_register, DW_AT_name("T3")
    5774                      .dwattr $C$DW$603, DW_AT_location[DW_OP_reg15]
    5775              $C$DW$604       .dwtag  DW_TAG_TI_assign_register, DW_AT_name("AR0")
    5776                      .dwattr $C$DW$604, DW_AT_location[DW_OP_reg16]
    5777              $C$DW$605       .dwtag  DW_TAG_TI_assign_register, DW_AT_name("XAR0")
    5778                      .dwattr $C$DW$605, DW_AT_location[DW_OP_reg17]
    5779              $C$DW$606       .dwtag  DW_TAG_TI_assign_register, DW_AT_name("AR1")
    5780                      .dwattr $C$DW$606, DW_AT_location[DW_OP_reg18]
    5781              $C$DW$607       .dwtag  DW_TAG_TI_assign_register, DW_AT_name("XAR1")
    5782                      .dwattr $C$DW$607, DW_AT_location[DW_OP_reg19]
    5783              $C$DW$608       .dwtag  DW_TAG_TI_assign_register, DW_AT_name("AR2")
    5784                      .dwattr $C$DW$608, DW_AT_location[DW_OP_reg20]
    5785              $C$DW$609       .dwtag  DW_TAG_TI_assign_register, DW_AT_name("XAR2")
    5786                      .dwattr $C$DW$609, DW_AT_location[DW_OP_reg21]
    5787              $C$DW$610       .dwtag  DW_TAG_TI_assign_register, DW_AT_name("AR3")
    5788                      .dwattr $C$DW$610, DW_AT_location[DW_OP_reg22]
    5789              $C$DW$611       .dwtag  DW_TAG_TI_assign_register, DW_AT_name("XAR3")
    5790                      .dwattr $C$DW$611, DW_AT_location[DW_OP_reg23]
    5791              $C$DW$612       .dwtag  DW_TAG_TI_assign_register, DW_AT_name("AR4")
    5792                      .dwattr $C$DW$612, DW_AT_location[DW_OP_reg24]
    5793              $C$DW$613       .dwtag  DW_TAG_TI_assign_register, DW_AT_name("XAR4")
    5794                      .dwattr $C$DW$613, DW_AT_location[DW_OP_reg25]
    5795              $C$DW$614       .dwtag  DW_TAG_TI_assign_register, DW_AT_name("AR5")
    5796                      .dwattr $C$DW$614, DW_AT_location[DW_OP_reg26]
    5797              $C$DW$615       .dwtag  DW_TAG_TI_assign_register, DW_AT_name("XAR5")
    5798                      .dwattr $C$DW$615, DW_AT_location[DW_OP_reg27]
    5799              $C$DW$616       .dwtag  DW_TAG_TI_assign_register, DW_AT_name("AR6")
    5800                      .dwattr $C$DW$616, DW_AT_location[DW_OP_reg28]
    5801              $C$DW$617       .dwtag  DW_TAG_TI_assign_register, DW_AT_name("XAR6")
    5802                      .dwattr $C$DW$617, DW_AT_location[DW_OP_reg29]
    5803              $C$DW$618       .dwtag  DW_TAG_TI_assign_register, DW_AT_name("AR7")
    5804                      .dwattr $C$DW$618, DW_AT_location[DW_OP_reg30]
    5805              $C$DW$619       .dwtag  DW_TAG_TI_assign_register, DW_AT_name("XAR7")
    5806                      .dwattr $C$DW$619, DW_AT_location[DW_OP_reg31]
    5807              $C$DW$620       .dwtag  DW_TAG_TI_assign_register, DW_AT_name("FP")
    5808                      .dwattr $C$DW$620, DW_AT_location[DW_OP_regx 0x20]
TMS320C55x Assembler PC v4.4.1 Sat Sep 29 23:08:57 2018

Tools Copyright (c) 1996-2012 Texas Instruments Incorporated
csl_nand_dma_example.asm                                             PAGE  146

    5809              $C$DW$621       .dwtag  DW_TAG_TI_assign_register, DW_AT_name("XFP")
    5810                      .dwattr $C$DW$621, DW_AT_location[DW_OP_regx 0x21]
    5811              $C$DW$622       .dwtag  DW_TAG_TI_assign_register, DW_AT_name("PC")
    5812                      .dwattr $C$DW$622, DW_AT_location[DW_OP_regx 0x22]
    5813              $C$DW$623       .dwtag  DW_TAG_TI_assign_register, DW_AT_name("SP")
    5814                      .dwattr $C$DW$623, DW_AT_location[DW_OP_regx 0x23]
    5815              $C$DW$624       .dwtag  DW_TAG_TI_assign_register, DW_AT_name("XSP")
    5816                      .dwattr $C$DW$624, DW_AT_location[DW_OP_regx 0x24]
    5817              $C$DW$625       .dwtag  DW_TAG_TI_assign_register, DW_AT_name("BKC")
    5818                      .dwattr $C$DW$625, DW_AT_location[DW_OP_regx 0x25]
    5819              $C$DW$626       .dwtag  DW_TAG_TI_assign_register, DW_AT_name("BK03")
    5820                      .dwattr $C$DW$626, DW_AT_location[DW_OP_regx 0x26]
    5821              $C$DW$627       .dwtag  DW_TAG_TI_assign_register, DW_AT_name("BK47")
    5822                      .dwattr $C$DW$627, DW_AT_location[DW_OP_regx 0x27]
    5823              $C$DW$628       .dwtag  DW_TAG_TI_assign_register, DW_AT_name("ST0")
    5824                      .dwattr $C$DW$628, DW_AT_location[DW_OP_regx 0x28]
    5825              $C$DW$629       .dwtag  DW_TAG_TI_assign_register, DW_AT_name("ST1")
    5826                      .dwattr $C$DW$629, DW_AT_location[DW_OP_regx 0x29]
    5827              $C$DW$630       .dwtag  DW_TAG_TI_assign_register, DW_AT_name("ST2")
    5828                      .dwattr $C$DW$630, DW_AT_location[DW_OP_regx 0x2a]
    5829              $C$DW$631       .dwtag  DW_TAG_TI_assign_register, DW_AT_name("ST3")
    5830                      .dwattr $C$DW$631, DW_AT_location[DW_OP_regx 0x2b]
    5831              $C$DW$632       .dwtag  DW_TAG_TI_assign_register, DW_AT_name("MDP")
    5832                      .dwattr $C$DW$632, DW_AT_location[DW_OP_regx 0x2c]
    5833              $C$DW$633       .dwtag  DW_TAG_TI_assign_register, DW_AT_name("MDP05")
    5834                      .dwattr $C$DW$633, DW_AT_location[DW_OP_regx 0x2d]
    5835              $C$DW$634       .dwtag  DW_TAG_TI_assign_register, DW_AT_name("MDP67")
    5836                      .dwattr $C$DW$634, DW_AT_location[DW_OP_regx 0x2e]
    5837              $C$DW$635       .dwtag  DW_TAG_TI_assign_register, DW_AT_name("BRC0")
    5838                      .dwattr $C$DW$635, DW_AT_location[DW_OP_regx 0x2f]
    5839              $C$DW$636       .dwtag  DW_TAG_TI_assign_register, DW_AT_name("RSA0")
    5840                      .dwattr $C$DW$636, DW_AT_location[DW_OP_regx 0x30]
    5841              $C$DW$637       .dwtag  DW_TAG_TI_assign_register, DW_AT_name("RSA0_H")
    5842                      .dwattr $C$DW$637, DW_AT_location[DW_OP_regx 0x31]
    5843              $C$DW$638       .dwtag  DW_TAG_TI_assign_register, DW_AT_name("REA0")
    5844                      .dwattr $C$DW$638, DW_AT_location[DW_OP_regx 0x32]
    5845              $C$DW$639       .dwtag  DW_TAG_TI_assign_register, DW_AT_name("REA0_H")
    5846                      .dwattr $C$DW$639, DW_AT_location[DW_OP_regx 0x33]
    5847              $C$DW$640       .dwtag  DW_TAG_TI_assign_register, DW_AT_name("BRS1")
    5848                      .dwattr $C$DW$640, DW_AT_location[DW_OP_regx 0x34]
    5849              $C$DW$641       .dwtag  DW_TAG_TI_assign_register, DW_AT_name("BRC1")
    5850                      .dwattr $C$DW$641, DW_AT_location[DW_OP_regx 0x35]
    5851              $C$DW$642       .dwtag  DW_TAG_TI_assign_register, DW_AT_name("RSA1")
    5852                      .dwattr $C$DW$642, DW_AT_location[DW_OP_regx 0x36]
    5853              $C$DW$643       .dwtag  DW_TAG_TI_assign_register, DW_AT_name("RSA1_H")
    5854                      .dwattr $C$DW$643, DW_AT_location[DW_OP_regx 0x37]
    5855              $C$DW$644       .dwtag  DW_TAG_TI_assign_register, DW_AT_name("REA1")
    5856                      .dwattr $C$DW$644, DW_AT_location[DW_OP_regx 0x38]
    5857              $C$DW$645       .dwtag  DW_TAG_TI_assign_register, DW_AT_name("REA1_H")
    5858                      .dwattr $C$DW$645, DW_AT_location[DW_OP_regx 0x39]
    5859              $C$DW$646       .dwtag  DW_TAG_TI_assign_register, DW_AT_name("CSR")
    5860                      .dwattr $C$DW$646, DW_AT_location[DW_OP_regx 0x3a]
    5861              $C$DW$647       .dwtag  DW_TAG_TI_assign_register, DW_AT_name("RPTC")
    5862                      .dwattr $C$DW$647, DW_AT_location[DW_OP_regx 0x3b]
    5863              $C$DW$648       .dwtag  DW_TAG_TI_assign_register, DW_AT_name("CDP")
TMS320C55x Assembler PC v4.4.1 Sat Sep 29 23:08:57 2018

Tools Copyright (c) 1996-2012 Texas Instruments Incorporated
csl_nand_dma_example.asm                                             PAGE  147

    5864                      .dwattr $C$DW$648, DW_AT_location[DW_OP_regx 0x3c]
    5865              $C$DW$649       .dwtag  DW_TAG_TI_assign_register, DW_AT_name("XCDP")
    5866                      .dwattr $C$DW$649, DW_AT_location[DW_OP_regx 0x3d]
    5867              $C$DW$650       .dwtag  DW_TAG_TI_assign_register, DW_AT_name("TRN0")
    5868                      .dwattr $C$DW$650, DW_AT_location[DW_OP_regx 0x3e]
    5869              $C$DW$651       .dwtag  DW_TAG_TI_assign_register, DW_AT_name("TRN1")
    5870                      .dwattr $C$DW$651, DW_AT_location[DW_OP_regx 0x3f]
    5871              $C$DW$652       .dwtag  DW_TAG_TI_assign_register, DW_AT_name("BSA01")
    5872                      .dwattr $C$DW$652, DW_AT_location[DW_OP_regx 0x40]
    5873              $C$DW$653       .dwtag  DW_TAG_TI_assign_register, DW_AT_name("BSA23")
    5874                      .dwattr $C$DW$653, DW_AT_location[DW_OP_regx 0x41]
    5875              $C$DW$654       .dwtag  DW_TAG_TI_assign_register, DW_AT_name("BSA45")
    5876                      .dwattr $C$DW$654, DW_AT_location[DW_OP_regx 0x42]
    5877              $C$DW$655       .dwtag  DW_TAG_TI_assign_register, DW_AT_name("BSA67")
    5878                      .dwattr $C$DW$655, DW_AT_location[DW_OP_regx 0x43]
    5879              $C$DW$656       .dwtag  DW_TAG_TI_assign_register, DW_AT_name("BSAC")
    5880                      .dwattr $C$DW$656, DW_AT_location[DW_OP_regx 0x44]
    5881              $C$DW$657       .dwtag  DW_TAG_TI_assign_register, DW_AT_name("CARRY")
    5882                      .dwattr $C$DW$657, DW_AT_location[DW_OP_regx 0x45]
    5883              $C$DW$658       .dwtag  DW_TAG_TI_assign_register, DW_AT_name("TC1")
    5884                      .dwattr $C$DW$658, DW_AT_location[DW_OP_regx 0x46]
    5885              $C$DW$659       .dwtag  DW_TAG_TI_assign_register, DW_AT_name("TC2")
    5886                      .dwattr $C$DW$659, DW_AT_location[DW_OP_regx 0x47]
    5887              $C$DW$660       .dwtag  DW_TAG_TI_assign_register, DW_AT_name("M40")
    5888                      .dwattr $C$DW$660, DW_AT_location[DW_OP_regx 0x48]
    5889              $C$DW$661       .dwtag  DW_TAG_TI_assign_register, DW_AT_name("SXMD")
    5890                      .dwattr $C$DW$661, DW_AT_location[DW_OP_regx 0x49]
    5891              $C$DW$662       .dwtag  DW_TAG_TI_assign_register, DW_AT_name("ARMS")
    5892                      .dwattr $C$DW$662, DW_AT_location[DW_OP_regx 0x4a]
    5893              $C$DW$663       .dwtag  DW_TAG_TI_assign_register, DW_AT_name("C54CM")
    5894                      .dwattr $C$DW$663, DW_AT_location[DW_OP_regx 0x4b]
    5895              $C$DW$664       .dwtag  DW_TAG_TI_assign_register, DW_AT_name("SATA")
    5896                      .dwattr $C$DW$664, DW_AT_location[DW_OP_regx 0x4c]
    5897              $C$DW$665       .dwtag  DW_TAG_TI_assign_register, DW_AT_name("SATD")
    5898                      .dwattr $C$DW$665, DW_AT_location[DW_OP_regx 0x4d]
    5899              $C$DW$666       .dwtag  DW_TAG_TI_assign_register, DW_AT_name("RDM")
    5900                      .dwattr $C$DW$666, DW_AT_location[DW_OP_regx 0x4e]
    5901              $C$DW$667       .dwtag  DW_TAG_TI_assign_register, DW_AT_name("FRCT")
    5902                      .dwattr $C$DW$667, DW_AT_location[DW_OP_regx 0x4f]
    5903              $C$DW$668       .dwtag  DW_TAG_TI_assign_register, DW_AT_name("SMUL")
    5904                      .dwattr $C$DW$668, DW_AT_location[DW_OP_regx 0x50]
    5905              $C$DW$669       .dwtag  DW_TAG_TI_assign_register, DW_AT_name("INTM")
    5906                      .dwattr $C$DW$669, DW_AT_location[DW_OP_regx 0x51]
    5907              $C$DW$670       .dwtag  DW_TAG_TI_assign_register, DW_AT_name("AR0LC")
    5908                      .dwattr $C$DW$670, DW_AT_location[DW_OP_regx 0x52]
    5909              $C$DW$671       .dwtag  DW_TAG_TI_assign_register, DW_AT_name("AR1LC")
    5910                      .dwattr $C$DW$671, DW_AT_location[DW_OP_regx 0x53]
    5911              $C$DW$672       .dwtag  DW_TAG_TI_assign_register, DW_AT_name("AR2LC")
    5912                      .dwattr $C$DW$672, DW_AT_location[DW_OP_regx 0x54]
    5913              $C$DW$673       .dwtag  DW_TAG_TI_assign_register, DW_AT_name("AR3LC")
    5914                      .dwattr $C$DW$673, DW_AT_location[DW_OP_regx 0x55]
    5915              $C$DW$674       .dwtag  DW_TAG_TI_assign_register, DW_AT_name("AR4LC")
    5916                      .dwattr $C$DW$674, DW_AT_location[DW_OP_regx 0x56]
    5917              $C$DW$675       .dwtag  DW_TAG_TI_assign_register, DW_AT_name("AR5LC")
    5918                      .dwattr $C$DW$675, DW_AT_location[DW_OP_regx 0x57]
TMS320C55x Assembler PC v4.4.1 Sat Sep 29 23:08:57 2018

Tools Copyright (c) 1996-2012 Texas Instruments Incorporated
csl_nand_dma_example.asm                                             PAGE  148

    5919              $C$DW$676       .dwtag  DW_TAG_TI_assign_register, DW_AT_name("AR6LC")
    5920                      .dwattr $C$DW$676, DW_AT_location[DW_OP_regx 0x58]
    5921              $C$DW$677       .dwtag  DW_TAG_TI_assign_register, DW_AT_name("AR7LC")
    5922                      .dwattr $C$DW$677, DW_AT_location[DW_OP_regx 0x59]
    5923              $C$DW$678       .dwtag  DW_TAG_TI_assign_register, DW_AT_name("CDPLC")
    5924                      .dwattr $C$DW$678, DW_AT_location[DW_OP_regx 0x5a]
    5925              $C$DW$679       .dwtag  DW_TAG_TI_assign_register, DW_AT_name("CIE_RETA")
    5926                      .dwattr $C$DW$679, DW_AT_location[DW_OP_regx 0x5b]
    5927                      .dwendtag $C$DW$CU
    5928              
    5928              
    5928              

No Assembly Errors, No Assembly Warnings
