TMS320C55x Assembler PC v4.4.1 Sat Sep 29 23:09:11 2018

Tools Copyright (c) 1996-2012 Texas Instruments Incorporated
csl_lcdc_DmaPolledExample.asm                                        PAGE    1

    2556              ; Temporary Registers Used: None
       1              ;*******************************************************************************
       2              ;* TMS320C55x C/C++ Codegen                                          PC v4.4.1 *
       3              ;* Date/Time created: Sat Sep 29 23:09:11 2018                                 *
       4              ;*******************************************************************************
       5                      .compiler_opts --hll_source=on --mem_model:code=flat --mem_model:data=large --object_format=coff --si
       6                      .mmregs
       7                      .cpl_on
       8                      .arms_on
       9                      .c54cm_off
      10                      .asg AR6, FP
      11                      .asg XAR6, XFP
      12                      .asg DPH, MDP
      13                      .model call=c55_std
      14                      .model mem=large
      15                      .noremark 5002  ; code respects overwrite rules
      16              ;*******************************************************************************
      17              ;* GLOBAL FILE PARAMETERS                                                      *
      18              ;*                                                                             *
      19              ;*   Architecture       : TMS320C55x                                           *
      20              ;*   Optimizing for     : Speed                                                *
      21              ;*   Memory             : Large Model (23-Bit Data Pointers)                   *
      22              ;*   Calls              : Normal Library ASM calls                             *
      23              ;*   Debug Info         : Standard TI Debug Information                        *
      24              ;*******************************************************************************
      25              
      26              $C$DW$CU        .dwtag  DW_TAG_compile_unit
      27                      .dwattr $C$DW$CU, DW_AT_name("../c5535_bsl_revc/ezdsp5535_v1/c55xx_csl/ccs_v4.0_examples/lcd/CSL_LCDC
      28                      .dwattr $C$DW$CU, DW_AT_producer("TMS320C55x C/C++ Codegen PC v4.4.1 Copyright (c) 1996-2012 Texas In
      29                      .dwattr $C$DW$CU, DW_AT_TI_version(0x01)
      30                      .dwattr $C$DW$CU, DW_AT_comp_dir("F:\eZdsp_DBG\tmp1\c55x-sim2\foo\Debug")
      31              ;******************************************************************************
      32              ;* CINIT RECORDS                                                              *
      33              ;******************************************************************************
      34 000000               .sect   ".cinit"
      35                      .align  1
      36 000000 0001          .field          1,16
      37 000001 0000-         .field          _PaSs_StAtE+0,24
         000002 0E00 
      38 000002 0E00          .field          0,8
      39 000003 0001          .field  1,16                    ; _PaSs_StAtE @ 0
      40              
      41 000004               .sect   ".cinit"
      42                      .align  1
      43 000004 0001          .field          1,16
      44 000005 0000-         .field          _PaSs+0,24
         000006 0F00 
      45 000006 0F00          .field          0,8
      46 000007 0000          .field  0,16                    ; _PaSs @ 0
      47              
      48              
      49              $C$DW$1 .dwtag  DW_TAG_subprogram, DW_AT_name("printf")
      50                      .dwattr $C$DW$1, DW_AT_TI_symbol_name("_printf")
      51                      .dwattr $C$DW$1, DW_AT_type(*$C$DW$T$10)
      52                      .dwattr $C$DW$1, DW_AT_declaration
TMS320C55x Assembler PC v4.4.1 Sat Sep 29 23:09:11 2018

Tools Copyright (c) 1996-2012 Texas Instruments Incorporated
csl_lcdc_DmaPolledExample.asm                                        PAGE    2

      53                      .dwattr $C$DW$1, DW_AT_external
      54              $C$DW$2 .dwtag  DW_TAG_formal_parameter
      55                      .dwattr $C$DW$2, DW_AT_type(*$C$DW$T$109)
      56              $C$DW$3 .dwtag  DW_TAG_unspecified_parameters
      57                      .dwendtag $C$DW$1
      58              
      59              
      60              $C$DW$4 .dwtag  DW_TAG_subprogram, DW_AT_name("LCD_init")
      61                      .dwattr $C$DW$4, DW_AT_TI_symbol_name("_LCD_init")
      62                      .dwattr $C$DW$4, DW_AT_type(*$C$DW$T$78)
      63                      .dwattr $C$DW$4, DW_AT_declaration
      64                      .dwattr $C$DW$4, DW_AT_external
      65              
      66              $C$DW$5 .dwtag  DW_TAG_subprogram, DW_AT_name("LCD_open")
      67                      .dwattr $C$DW$5, DW_AT_TI_symbol_name("_LCD_open")
      68                      .dwattr $C$DW$5, DW_AT_type(*$C$DW$T$77)
      69                      .dwattr $C$DW$5, DW_AT_declaration
      70                      .dwattr $C$DW$5, DW_AT_external
      71              $C$DW$6 .dwtag  DW_TAG_formal_parameter
      72                      .dwattr $C$DW$6, DW_AT_type(*$C$DW$T$19)
      73              $C$DW$7 .dwtag  DW_TAG_formal_parameter
      74                      .dwattr $C$DW$7, DW_AT_type(*$C$DW$T$76)
      75              $C$DW$8 .dwtag  DW_TAG_formal_parameter
      76                      .dwattr $C$DW$8, DW_AT_type(*$C$DW$T$79)
      77                      .dwendtag $C$DW$5
      78              
      79              
      80              $C$DW$9 .dwtag  DW_TAG_subprogram, DW_AT_name("LCD_setup")
      81                      .dwattr $C$DW$9, DW_AT_TI_symbol_name("_LCD_setup")
      82                      .dwattr $C$DW$9, DW_AT_type(*$C$DW$T$78)
      83                      .dwattr $C$DW$9, DW_AT_declaration
      84                      .dwattr $C$DW$9, DW_AT_external
      85              $C$DW$10        .dwtag  DW_TAG_formal_parameter
      86                      .dwattr $C$DW$10, DW_AT_type(*$C$DW$T$77)
      87              $C$DW$11        .dwtag  DW_TAG_formal_parameter
      88                      .dwattr $C$DW$11, DW_AT_type(*$C$DW$T$64)
      89                      .dwendtag $C$DW$9
      90              
      91              
      92              $C$DW$12        .dwtag  DW_TAG_subprogram, DW_AT_name("LCD_configDMA")
      93                      .dwattr $C$DW$12, DW_AT_TI_symbol_name("_LCD_configDMA")
      94                      .dwattr $C$DW$12, DW_AT_type(*$C$DW$T$78)
      95                      .dwattr $C$DW$12, DW_AT_declaration
      96                      .dwattr $C$DW$12, DW_AT_external
      97              $C$DW$13        .dwtag  DW_TAG_formal_parameter
      98                      .dwattr $C$DW$13, DW_AT_type(*$C$DW$T$77)
      99              $C$DW$14        .dwtag  DW_TAG_formal_parameter
     100                      .dwattr $C$DW$14, DW_AT_type(*$C$DW$T$66)
     101                      .dwendtag $C$DW$12
     102              
     103              
     104              $C$DW$15        .dwtag  DW_TAG_subprogram, DW_AT_name("LCD_close")
     105                      .dwattr $C$DW$15, DW_AT_TI_symbol_name("_LCD_close")
     106                      .dwattr $C$DW$15, DW_AT_type(*$C$DW$T$78)
     107                      .dwattr $C$DW$15, DW_AT_declaration
TMS320C55x Assembler PC v4.4.1 Sat Sep 29 23:09:11 2018

Tools Copyright (c) 1996-2012 Texas Instruments Incorporated
csl_lcdc_DmaPolledExample.asm                                        PAGE    3

     108                      .dwattr $C$DW$15, DW_AT_external
     109              $C$DW$16        .dwtag  DW_TAG_formal_parameter
     110                      .dwattr $C$DW$16, DW_AT_type(*$C$DW$T$77)
     111                      .dwendtag $C$DW$15
     112              
     113              
     114              $C$DW$17        .dwtag  DW_TAG_subprogram, DW_AT_name("cmdWrite")
     115                      .dwattr $C$DW$17, DW_AT_TI_symbol_name("_cmdWrite")
     116                      .dwattr $C$DW$17, DW_AT_declaration
     117                      .dwattr $C$DW$17, DW_AT_external
     118              $C$DW$18        .dwtag  DW_TAG_formal_parameter
     119                      .dwattr $C$DW$18, DW_AT_type(*$C$DW$T$19)
     120              $C$DW$19        .dwtag  DW_TAG_formal_parameter
     121                      .dwattr $C$DW$19, DW_AT_type(*$C$DW$T$19)
     122                      .dwendtag $C$DW$17
     123              
     124              
     125              $C$DW$20        .dwtag  DW_TAG_subprogram, DW_AT_name("windowSetup")
     126                      .dwattr $C$DW$20, DW_AT_TI_symbol_name("_windowSetup")
     127                      .dwattr $C$DW$20, DW_AT_type(*$C$DW$T$60)
     128                      .dwattr $C$DW$20, DW_AT_declaration
     129                      .dwattr $C$DW$20, DW_AT_external
     130              $C$DW$21        .dwtag  DW_TAG_formal_parameter
     131                      .dwattr $C$DW$21, DW_AT_type(*$C$DW$T$19)
     132              $C$DW$22        .dwtag  DW_TAG_formal_parameter
     133                      .dwattr $C$DW$22, DW_AT_type(*$C$DW$T$19)
     134              $C$DW$23        .dwtag  DW_TAG_formal_parameter
     135                      .dwattr $C$DW$23, DW_AT_type(*$C$DW$T$19)
     136              $C$DW$24        .dwtag  DW_TAG_formal_parameter
     137                      .dwattr $C$DW$24, DW_AT_type(*$C$DW$T$19)
     138              $C$DW$25        .dwtag  DW_TAG_formal_parameter
     139                      .dwattr $C$DW$25, DW_AT_type(*$C$DW$T$19)
     140                      .dwendtag $C$DW$20
     141              
     142              
     143              $C$DW$26        .dwtag  DW_TAG_subprogram, DW_AT_name("lcd_DMAWait")
     144                      .dwattr $C$DW$26, DW_AT_TI_symbol_name("_lcd_DMAWait")
     145                      .dwattr $C$DW$26, DW_AT_declaration
     146                      .dwattr $C$DW$26, DW_AT_external
     147              
     148              $C$DW$27        .dwtag  DW_TAG_subprogram, DW_AT_name("panelSetup")
     149                      .dwattr $C$DW$27, DW_AT_TI_symbol_name("_panelSetup")
     150                      .dwattr $C$DW$27, DW_AT_declaration
     151                      .dwattr $C$DW$27, DW_AT_external
     152              $C$DW$28        .dwtag  DW_TAG_formal_parameter
     153                      .dwattr $C$DW$28, DW_AT_type(*$C$DW$T$19)
     154                      .dwendtag $C$DW$27
     155              
     156              
     157              $C$DW$29        .dwtag  DW_TAG_subprogram, DW_AT_name("draw_65K_colorbar")
     158                      .dwattr $C$DW$29, DW_AT_TI_symbol_name("_draw_65K_colorbar")
     159                      .dwattr $C$DW$29, DW_AT_type(*$C$DW$T$60)
     160                      .dwattr $C$DW$29, DW_AT_declaration
     161                      .dwattr $C$DW$29, DW_AT_external
     162              $C$DW$30        .dwtag  DW_TAG_formal_parameter
TMS320C55x Assembler PC v4.4.1 Sat Sep 29 23:09:11 2018

Tools Copyright (c) 1996-2012 Texas Instruments Incorporated
csl_lcdc_DmaPolledExample.asm                                        PAGE    4

     163                      .dwattr $C$DW$30, DW_AT_type(*$C$DW$T$19)
     164                      .dwendtag $C$DW$29
     165              
     166                      .global _hLcdc
     167 000000               .bss    _hLcdc,2,0,2
     168              $C$DW$31        .dwtag  DW_TAG_variable, DW_AT_name("hLcdc")
     169                      .dwattr $C$DW$31, DW_AT_TI_symbol_name("_hLcdc")
     170                      .dwattr $C$DW$31, DW_AT_location[DW_OP_addr _hLcdc]
     171                      .dwattr $C$DW$31, DW_AT_type(*$C$DW$T$77)
     172                      .dwattr $C$DW$31, DW_AT_external
     173                      .global _getConfigDma
     174 000002               .bss    _getConfigDma,12,0,2
     175              $C$DW$32        .dwtag  DW_TAG_variable, DW_AT_name("getConfigDma")
     176                      .dwattr $C$DW$32, DW_AT_TI_symbol_name("_getConfigDma")
     177                      .dwattr $C$DW$32, DW_AT_location[DW_OP_addr _getConfigDma]
     178                      .dwattr $C$DW$32, DW_AT_type(*$C$DW$T$65)
     179                      .dwattr $C$DW$32, DW_AT_external
     180                      .global _gLcdBuf
     181 000000       _gLcdBuf:       .usect  ".buffer2",16384,0,0
     182              $C$DW$33        .dwtag  DW_TAG_variable, DW_AT_name("gLcdBuf")
     183                      .dwattr $C$DW$33, DW_AT_TI_symbol_name("_gLcdBuf")
     184                      .dwattr $C$DW$33, DW_AT_location[DW_OP_addr _gLcdBuf]
     185                      .dwattr $C$DW$33, DW_AT_type(*$C$DW$T$104)
     186                      .dwattr $C$DW$33, DW_AT_external
     187                      .global _PaSs_StAtE
     188 00000e               .bss    _PaSs_StAtE,1,0,0
     189              $C$DW$34        .dwtag  DW_TAG_variable, DW_AT_name("PaSs_StAtE")
     190                      .dwattr $C$DW$34, DW_AT_TI_symbol_name("_PaSs_StAtE")
     191                      .dwattr $C$DW$34, DW_AT_location[DW_OP_addr _PaSs_StAtE]
     192                      .dwattr $C$DW$34, DW_AT_type(*$C$DW$T$98)
     193                      .dwattr $C$DW$34, DW_AT_external
     194                      .global _PaSs
     195 00000f               .bss    _PaSs,1,0,0
     196              $C$DW$35        .dwtag  DW_TAG_variable, DW_AT_name("PaSs")
     197                      .dwattr $C$DW$35, DW_AT_TI_symbol_name("_PaSs")
     198                      .dwattr $C$DW$35, DW_AT_location[DW_OP_addr _PaSs]
     199                      .dwattr $C$DW$35, DW_AT_type(*$C$DW$T$98)
     200                      .dwattr $C$DW$35, DW_AT_external
     201              ;       F:\t\cc5p5\ccsv5\tools\compiler\c5500_4.4.1\bin\acp55.exe -@f:\\AppData\\Local\\Temp\\1965612 
     202 000000               .sect   ".text"
     203                      .align 4
     204              
     205              $C$DW$36        .dwtag  DW_TAG_subprogram, DW_AT_name("CSL_lcdcEnableLiddDMA")
     206                      .dwattr $C$DW$36, DW_AT_low_pc(_CSL_lcdcEnableLiddDMA)
     207                      .dwattr $C$DW$36, DW_AT_high_pc(0x00)
     208                      .dwattr $C$DW$36, DW_AT_TI_symbol_name("_CSL_lcdcEnableLiddDMA")
     209                      .dwattr $C$DW$36, DW_AT_TI_begin_file("F:/eZdsp_DBG/tmp1/c55x-sim2/foo/c5535_bsl_revc/ezdsp5535_v1/c5
     210                      .dwattr $C$DW$36, DW_AT_TI_begin_line(0x4e)
     211                      .dwattr $C$DW$36, DW_AT_TI_begin_column(0x06)
     212                      .dwattr $C$DW$36, DW_AT_TI_max_frame_size(0x04)
     213                      .dwpsn  file "F:/eZdsp_DBG/tmp1/c55x-sim2/foo/c5535_bsl_revc/ezdsp5535_v1/c55xx_csl/inc/csl_lcdcAux.h
     214              
     215                      .dwfde $C$DW$CIE, _CSL_lcdcEnableLiddDMA
     216              $C$DW$37        .dwtag  DW_TAG_formal_parameter, DW_AT_name("hLcdc")
     217                      .dwattr $C$DW$37, DW_AT_TI_symbol_name("_hLcdc")
TMS320C55x Assembler PC v4.4.1 Sat Sep 29 23:09:11 2018

Tools Copyright (c) 1996-2012 Texas Instruments Incorporated
csl_lcdc_DmaPolledExample.asm                                        PAGE    5

     218                      .dwattr $C$DW$37, DW_AT_type(*$C$DW$T$77)
     219                      .dwattr $C$DW$37, DW_AT_location[DW_OP_reg17]
     220              ;*******************************************************************************
     221              ;* FUNCTION NAME: CSL_lcdcEnableLiddDMA                                        *
     222              ;*                                                                             *
     223              ;*   Function Uses Regs : T0,AR0,XAR0,AR1,AR3,XAR3,SP,M40,SATA,SATD,RDM,FRCT,  *
     224              ;*                        SMUL                                                 *
     225              ;*   Stack Frame        : Compact (No Frame Pointer, w/ debug)                 *
     226              ;*   Total Frame Size   : 4 words                                              *
     227              ;*                        (2 return address/alignment)                         *
     228              ;*                        (2 local values)                                     *
     229              ;*   Min System Stack   : 1 word                                               *
     230              ;*******************************************************************************
     231 000000       _CSL_lcdcEnableLiddDMA:
     232                      .dwcfi  cfa_offset, 1
     233                      .dwcfi  save_reg_to_mem, 91, -1
     234 000000 4EFD          AADD #-3, SP
     235                      .dwcfi  cfa_offset, 4
     236              $C$DW$38        .dwtag  DW_TAG_variable, DW_AT_name("hLcdc")
     237                      .dwattr $C$DW$38, DW_AT_TI_symbol_name("_hLcdc")
     238                      .dwattr $C$DW$38, DW_AT_type(*$C$DW$T$77)
     239                      .dwattr $C$DW$38, DW_AT_location[DW_OP_bregx 0x24 0]
     240 000002 EB00          MOV XAR0, dbl(*SP(#0))
         000004 85   
     241                      .dwpsn  file "F:/eZdsp_DBG/tmp1/c55x-sim2/foo/c5535_bsl_revc/ezdsp5535_v1/c55xx_csl/inc/csl_lcdcAux.h
     242 000005 ED00          MOV dbl(*SP(#0)), XAR3
         000007 BF   
     243 000008 AB61          MOV *AR3, AR3 ; |85| 
     244 00000a 140C          AMOV #12, T0
         00000c 45   
     245 00000d A96B          MOV port(*AR3(T0)), AR1 ; |85| 
         00000f 99   
     246 000010 ED00          MOV dbl(*SP(#0)), XAR3
         000012 BF   
     247 000013 AB61          MOV *AR3, AR3 ; |85| 
     248 000015 EC10          BCLR @#8, AR1 ; |85| 
         000017 92   
     249 000018 EC10          BSET @#8, AR1 ; |85| 
         00001a 90   
     250 00001b C96B          MOV AR1, port(*AR3(T0)) ; |85| 
         00001d 9A   
     251                      .dwpsn  file "F:/eZdsp_DBG/tmp1/c55x-sim2/foo/c5535_bsl_revc/ezdsp5535_v1/c55xx_csl/inc/csl_lcdcAux.h
     252 00001e 4E03          AADD #3, SP
     253                      .dwcfi  cfa_offset, 1
     254              $C$DW$39        .dwtag  DW_TAG_TI_branch
     255                      .dwattr $C$DW$39, DW_AT_low_pc(0x00)
     256                      .dwattr $C$DW$39, DW_AT_TI_return
     257 000020 4804          RET
     258                                                      ; return occurs
     259                      .dwattr $C$DW$36, DW_AT_TI_end_file("F:/eZdsp_DBG/tmp1/c55x-sim2/foo/c5535_bsl_revc/ezdsp5535_v1/c55x
     260                      .dwattr $C$DW$36, DW_AT_TI_end_line(0x56)
     261                      .dwattr $C$DW$36, DW_AT_TI_end_column(0x01)
     262                      .dwendentry
     263                      .dwendtag $C$DW$36
     264              
TMS320C55x Assembler PC v4.4.1 Sat Sep 29 23:09:11 2018

Tools Copyright (c) 1996-2012 Texas Instruments Incorporated
csl_lcdc_DmaPolledExample.asm                                        PAGE    6

     265 000022               .sect   ".text"
     266                      .align 4
     267                      .global _main
     268              
     269              $C$DW$40        .dwtag  DW_TAG_subprogram, DW_AT_name("main")
     270                      .dwattr $C$DW$40, DW_AT_low_pc(_main)
     271                      .dwattr $C$DW$40, DW_AT_high_pc(0x00)
     272                      .dwattr $C$DW$40, DW_AT_TI_symbol_name("_main")
     273                      .dwattr $C$DW$40, DW_AT_external
     274                      .dwattr $C$DW$40, DW_AT_TI_begin_file("../c5535_bsl_revc/ezdsp5535_v1/c55xx_csl/ccs_v4.0_examples/lcd
     275                      .dwattr $C$DW$40, DW_AT_TI_begin_line(0x82)
     276                      .dwattr $C$DW$40, DW_AT_TI_begin_column(0x06)
     277                      .dwattr $C$DW$40, DW_AT_TI_max_frame_size(0x04)
     278                      .dwpsn  file "../c5535_bsl_revc/ezdsp5535_v1/c55xx_csl/ccs_v4.0_examples/lcd/CSL_LCDC_DmaPolledExampl
     279              
     280                      .dwfde $C$DW$CIE, _main
     281              ;*******************************************************************************
     282              ;* FUNCTION NAME: main                                                         *
     283              ;*                                                                             *
     284              ;*   Function Uses Regs : T0,AR1,AR3,XAR3,SP,M40,SATA,SATD,RDM,FRCT,SMUL       *
     285              ;*   Stack Frame        : Compact (No Frame Pointer, w/ debug)                 *
     286              ;*   Total Frame Size   : 4 words                                              *
     287              ;*                        (1 return address/alignment)                         *
     288              ;*                        (2 function parameters)                              *
     289              ;*                        (1 local values)                                     *
     290              ;*   Min System Stack   : 1 word                                               *
     291              ;*******************************************************************************
     292 000024       _main:
     293                      .dwcfi  cfa_offset, 1
     294                      .dwcfi  save_reg_to_mem, 91, -1
     295 000024 4EFD          AADD #-3, SP
     296                      .dwcfi  cfa_offset, 4
     297              $C$DW$41        .dwtag  DW_TAG_variable, DW_AT_name("status")
     298                      .dwattr $C$DW$41, DW_AT_TI_symbol_name("_status")
     299                      .dwattr $C$DW$41, DW_AT_type(*$C$DW$T$78)
     300                      .dwattr $C$DW$41, DW_AT_location[DW_OP_bregx 0x24 2]
     301                      .dwpsn  file "../c5535_bsl_revc/ezdsp5535_v1/c55xx_csl/ccs_v4.0_examples/lcd/CSL_LCDC_DmaPolledExampl
     302 000026 EC31          AMOV #$C$FSL1, XAR3 ; |134| 
         000028 BE00 
         00002a 0000+
     303 00002c EB00          MOV XAR3, dbl(*SP(#0))
         00002e B5   
     304              $C$DW$42        .dwtag  DW_TAG_TI_branch
     305                      .dwattr $C$DW$42, DW_AT_low_pc(0x00)
     306                      .dwattr $C$DW$42, DW_AT_name("_printf")
     307                      .dwattr $C$DW$42, DW_AT_TI_call
     308 00002f 6C00          CALL #_printf ; |134| 
         000031 0000!
     309                                                      ; call occurs [#_printf] ; |134| 
     310                      .dwpsn  file "../c5535_bsl_revc/ezdsp5535_v1/c55xx_csl/ccs_v4.0_examples/lcd/CSL_LCDC_DmaPolledExampl
     311              $C$DW$43        .dwtag  DW_TAG_TI_branch
     312                      .dwattr $C$DW$43, DW_AT_low_pc(0x00)
     313                      .dwattr $C$DW$43, DW_AT_name("_CSL_lcdcDmaPolledTest")
     314                      .dwattr $C$DW$43, DW_AT_TI_call
     315 000033 0800          CALL #_CSL_lcdcDmaPolledTest ; |136| 
TMS320C55x Assembler PC v4.4.1 Sat Sep 29 23:09:11 2018

Tools Copyright (c) 1996-2012 Texas Instruments Incorporated
csl_lcdc_DmaPolledExample.asm                                        PAGE    7

         000035 36   
     316                                                      ; call occurs [#_CSL_lcdcDmaPolledTest] ; |136| 
     317 000036 C404          MOV T0, *SP(#2) ; |136| 
     318                      .dwpsn  file "../c5535_bsl_revc/ezdsp5535_v1/c55xx_csl/ccs_v4.0_examples/lcd/CSL_LCDC_DmaPolledExampl
     319 000038 2249          MOV T0, AR1
     320 00003a 6799          BCC $C$L1,AR1 != #0 ; |137| 
     321                                                      ; branchcc occurs ; |137| 
     322                      .dwpsn  file "../c5535_bsl_revc/ezdsp5535_v1/c55xx_csl/ccs_v4.0_examples/lcd/CSL_LCDC_DmaPolledExampl
     323 00003c EC31          AMOV #$C$FSL2, XAR3 ; |139| 
         00003e BE00 
         000040 001A+
     324 000042 EB00          MOV XAR3, dbl(*SP(#0))
         000044 B5   
     325              $C$DW$44        .dwtag  DW_TAG_TI_branch
     326                      .dwattr $C$DW$44, DW_AT_low_pc(0x00)
     327                      .dwattr $C$DW$44, DW_AT_name("_printf")
     328                      .dwattr $C$DW$44, DW_AT_TI_call
     329 000045 6C00          CALL #_printf ; |139| 
         000047 0000!
     330                                                      ; call occurs [#_printf] ; |139| 
     331                      .dwpsn  file "../c5535_bsl_revc/ezdsp5535_v1/c55xx_csl/ccs_v4.0_examples/lcd/CSL_LCDC_DmaPolledExampl
     332 000049 4A13          B $C$L2   ; |140| 
     333                                                      ; branch occurs ; |140| 
     334 00004b       $C$L1:    
     335                      .dwpsn  file "../c5535_bsl_revc/ezdsp5535_v1/c55xx_csl/ccs_v4.0_examples/lcd/CSL_LCDC_DmaPolledExampl
     336 00004b EC31          AMOV #$C$FSL3, XAR3 ; |143| 
         00004d BE00 
         00004f 0040+
     337 000051 EB00          MOV XAR3, dbl(*SP(#0))
         000053 B5   
     338              $C$DW$45        .dwtag  DW_TAG_TI_branch
     339                      .dwattr $C$DW$45, DW_AT_low_pc(0x00)
     340                      .dwattr $C$DW$45, DW_AT_name("_printf")
     341                      .dwattr $C$DW$45, DW_AT_TI_call
     342 000054 6C00          CALL #_printf ; |143| 
         000056 0000!
     343                                                      ; call occurs [#_printf] ; |143| 
     344                      .dwpsn  file "../c5535_bsl_revc/ezdsp5535_v1/c55xx_csl/ccs_v4.0_examples/lcd/CSL_LCDC_DmaPolledExampl
     345 000058 E631          MOV #0, *(#_PaSs_StAtE) ; |146| 
         00005a 0000 
         00005c 000E-
     346 00005e       $C$L2:    
     347                      .dwpsn  file "../c5535_bsl_revc/ezdsp5535_v1/c55xx_csl/ccs_v4.0_examples/lcd/CSL_LCDC_DmaPolledExampl
     348 00005e A931          MOV *(#_PaSs_StAtE), AR1 ; |152| 
         000060 0000 
         000062 0E-  
     349 000063 C931          MOV AR1, *(#_PaSs) ; |152| 
         000065 0000 
         000067 0F-  
     350                      .dwpsn  file "../c5535_bsl_revc/ezdsp5535_v1/c55xx_csl/ccs_v4.0_examples/lcd/CSL_LCDC_DmaPolledExampl
     351 000068 4E03          AADD #3, SP
     352                      .dwcfi  cfa_offset, 1
     353              $C$DW$46        .dwtag  DW_TAG_TI_branch
     354                      .dwattr $C$DW$46, DW_AT_low_pc(0x00)
     355                      .dwattr $C$DW$46, DW_AT_TI_return
TMS320C55x Assembler PC v4.4.1 Sat Sep 29 23:09:11 2018

Tools Copyright (c) 1996-2012 Texas Instruments Incorporated
csl_lcdc_DmaPolledExample.asm                                        PAGE    8

     356 00006a 4804          RET
     357                                                      ; return occurs
     358                      .dwattr $C$DW$40, DW_AT_TI_end_file("../c5535_bsl_revc/ezdsp5535_v1/c55xx_csl/ccs_v4.0_examples/lcd/C
     359                      .dwattr $C$DW$40, DW_AT_TI_end_line(0x9d)
     360                      .dwattr $C$DW$40, DW_AT_TI_end_column(0x01)
     361                      .dwendentry
     362                      .dwendtag $C$DW$40
     363              
     364 00006c               .sect   ".text"
     365                      .align 4
     366                      .global _CSL_lcdcDmaPolledTest
     367              
     368              $C$DW$47        .dwtag  DW_TAG_subprogram, DW_AT_name("CSL_lcdcDmaPolledTest")
     369                      .dwattr $C$DW$47, DW_AT_low_pc(_CSL_lcdcDmaPolledTest)
     370                      .dwattr $C$DW$47, DW_AT_high_pc(0x00)
     371                      .dwattr $C$DW$47, DW_AT_TI_symbol_name("_CSL_lcdcDmaPolledTest")
     372                      .dwattr $C$DW$47, DW_AT_external
     373                      .dwattr $C$DW$47, DW_AT_type(*$C$DW$T$78)
     374                      .dwattr $C$DW$47, DW_AT_TI_begin_file("../c5535_bsl_revc/ezdsp5535_v1/c55xx_csl/ccs_v4.0_examples/lcd
     375                      .dwattr $C$DW$47, DW_AT_TI_begin_line(0xac)
     376                      .dwattr $C$DW$47, DW_AT_TI_begin_column(0x0c)
     377                      .dwattr $C$DW$47, DW_AT_TI_max_frame_size(0x3c)
     378                      .dwpsn  file "../c5535_bsl_revc/ezdsp5535_v1/c55xx_csl/ccs_v4.0_examples/lcd/CSL_LCDC_DmaPolledExampl
     379              
     380                      .dwfde $C$DW$CIE, _CSL_lcdcDmaPolledTest
     381              ;*******************************************************************************
     382              ;* FUNCTION NAME: CSL_lcdcDmaPolledTest                                        *
     383              ;*                                                                             *
     384              ;*   Function Uses Regs : AC0,AC0,T0,T1,AR0,XAR0,AR1,XAR1,AR2,XAR2,AR3,XAR3,SP,*
     385              ;*                        CSR,RPTC,CARRY,TC1,M40,SATA,SATD,RDM,FRCT,SMUL       *
     386              ;*   Stack Frame        : Compact (No Frame Pointer, w/ debug)                 *
     387              ;*   Total Frame Size   : 60 words                                             *
     388              ;*                        (2 return address/alignment)                         *
     389              ;*                        (2 function parameters)                              *
     390              ;*                        (56 local values)                                    *
     391              ;*   Min System Stack   : 1 word                                               *
     392              ;*******************************************************************************
     393 00006c       _CSL_lcdcDmaPolledTest:
     394                      .dwcfi  cfa_offset, 1
     395                      .dwcfi  save_reg_to_mem, 91, -1
     396 00006c 4EC5          AADD #-59, SP
     397                      .dwcfi  cfa_offset, 60
     398              $C$DW$48        .dwtag  DW_TAG_variable, DW_AT_name("status")
     399                      .dwattr $C$DW$48, DW_AT_TI_symbol_name("_status")
     400                      .dwattr $C$DW$48, DW_AT_type(*$C$DW$T$78)
     401                      .dwattr $C$DW$48, DW_AT_location[DW_OP_bregx 0x24 2]
     402              $C$DW$49        .dwtag  DW_TAG_variable, DW_AT_name("lcdcObj")
     403                      .dwattr $C$DW$49, DW_AT_TI_symbol_name("_lcdcObj")
     404                      .dwattr $C$DW$49, DW_AT_type(*$C$DW$T$75)
     405                      .dwattr $C$DW$49, DW_AT_location[DW_OP_bregx 0x24 3]
     406              $C$DW$50        .dwtag  DW_TAG_variable, DW_AT_name("lcdcLiddSetup")
     407                      .dwattr $C$DW$50, DW_AT_TI_symbol_name("_lcdcLiddSetup")
     408                      .dwattr $C$DW$50, DW_AT_type(*$C$DW$T$63)
     409                      .dwattr $C$DW$50, DW_AT_location[DW_OP_bregx 0x24 6]
     410              $C$DW$51        .dwtag  DW_TAG_variable, DW_AT_name("configLIDD")
TMS320C55x Assembler PC v4.4.1 Sat Sep 29 23:09:11 2018

Tools Copyright (c) 1996-2012 Texas Instruments Incorporated
csl_lcdc_DmaPolledExample.asm                                        PAGE    9

     411                      .dwattr $C$DW$51, DW_AT_TI_symbol_name("_configLIDD")
     412                      .dwattr $C$DW$51, DW_AT_type(*$C$DW$T$36)
     413                      .dwattr $C$DW$51, DW_AT_location[DW_OP_bregx 0x24 30]
     414              $C$DW$52        .dwtag  DW_TAG_variable, DW_AT_name("timingCs0LIDD")
     415                      .dwattr $C$DW$52, DW_AT_TI_symbol_name("_timingCs0LIDD")
     416                      .dwattr $C$DW$52, DW_AT_type(*$C$DW$T$37)
     417                      .dwattr $C$DW$52, DW_AT_location[DW_OP_bregx 0x24 36]
     418              $C$DW$53        .dwtag  DW_TAG_variable, DW_AT_name("configDma")
     419                      .dwattr $C$DW$53, DW_AT_TI_symbol_name("_configDma")
     420                      .dwattr $C$DW$53, DW_AT_type(*$C$DW$T$65)
     421                      .dwattr $C$DW$53, DW_AT_location[DW_OP_bregx 0x24 44]
     422              $C$DW$54        .dwtag  DW_TAG_variable, DW_AT_name("retVal")
     423                      .dwattr $C$DW$54, DW_AT_TI_symbol_name("_retVal")
     424                      .dwattr $C$DW$54, DW_AT_type(*$C$DW$T$60)
     425                      .dwattr $C$DW$54, DW_AT_location[DW_OP_bregx 0x24 56]
     426              $C$DW$55        .dwtag  DW_TAG_variable, DW_AT_name("i")
     427                      .dwattr $C$DW$55, DW_AT_TI_symbol_name("_i")
     428                      .dwattr $C$DW$55, DW_AT_type(*$C$DW$T$60)
     429                      .dwattr $C$DW$55, DW_AT_location[DW_OP_bregx 0x24 57]
     430                      .dwpsn  file "../c5535_bsl_revc/ezdsp5535_v1/c55xx_csl/ccs_v4.0_examples/lcd/CSL_LCDC_DmaPolledExampl
     431 00006e E63C          MOV #3, *SP(#30) ; |183| 
         000070 03   
     432                      .dwpsn  file "../c5535_bsl_revc/ezdsp5535_v1/c55xx_csl/ccs_v4.0_examples/lcd/CSL_LCDC_DmaPolledExampl
     433 000071 E63E          MOV #0, *SP(#31) ; |184| 
         000073 00   
     434                      .dwpsn  file "../c5535_bsl_revc/ezdsp5535_v1/c55xx_csl/ccs_v4.0_examples/lcd/CSL_LCDC_DmaPolledExampl
     435 000074 E640          MOV #0, *SP(#32) ; |185| 
         000076 00   
     436                      .dwpsn  file "../c5535_bsl_revc/ezdsp5535_v1/c55xx_csl/ccs_v4.0_examples/lcd/CSL_LCDC_DmaPolledExampl
     437 000077 E642          MOV #0, *SP(#33) ; |186| 
         000079 00   
     438                      .dwpsn  file "../c5535_bsl_revc/ezdsp5535_v1/c55xx_csl/ccs_v4.0_examples/lcd/CSL_LCDC_DmaPolledExampl
     439 00007a E644          MOV #0, *SP(#34) ; |187| 
         00007c 00   
     440                      .dwpsn  file "../c5535_bsl_revc/ezdsp5535_v1/c55xx_csl/ccs_v4.0_examples/lcd/CSL_LCDC_DmaPolledExampl
     441 00007d E646          MOV #3, *SP(#35) ; |188| 
         00007f 03   
     442                      .dwpsn  file "../c5535_bsl_revc/ezdsp5535_v1/c55xx_csl/ccs_v4.0_examples/lcd/CSL_LCDC_DmaPolledExampl
     443 000080 E648          MOV #31, *SP(#36) ; |190| 
         000082 1F   
     444                      .dwpsn  file "../c5535_bsl_revc/ezdsp5535_v1/c55xx_csl/ccs_v4.0_examples/lcd/CSL_LCDC_DmaPolledExampl
     445 000083 E64A          MOV #63, *SP(#37) ; |191| 
         000085 3F   
     446                      .dwpsn  file "../c5535_bsl_revc/ezdsp5535_v1/c55xx_csl/ccs_v4.0_examples/lcd/CSL_LCDC_DmaPolledExampl
     447 000086 E64C          MOV #15, *SP(#38) ; |192| 
         000088 0F   
     448                      .dwpsn  file "../c5535_bsl_revc/ezdsp5535_v1/c55xx_csl/ccs_v4.0_examples/lcd/CSL_LCDC_DmaPolledExampl
     449 000089 E64E          MOV #31, *SP(#39) ; |193| 
         00008b 1F   
     450                      .dwpsn  file "../c5535_bsl_revc/ezdsp5535_v1/c55xx_csl/ccs_v4.0_examples/lcd/CSL_LCDC_DmaPolledExampl
     451 00008c E650          MOV #63, *SP(#40) ; |194| 
         00008e 3F   
     452                      .dwpsn  file "../c5535_bsl_revc/ezdsp5535_v1/c55xx_csl/ccs_v4.0_examples/lcd/CSL_LCDC_DmaPolledExampl
     453 00008f E652          MOV #15, *SP(#41) ; |195| 
         000091 0F   
TMS320C55x Assembler PC v4.4.1 Sat Sep 29 23:09:11 2018

Tools Copyright (c) 1996-2012 Texas Instruments Incorporated
csl_lcdc_DmaPolledExample.asm                                        PAGE   10

     454                      .dwpsn  file "../c5535_bsl_revc/ezdsp5535_v1/c55xx_csl/ccs_v4.0_examples/lcd/CSL_LCDC_DmaPolledExampl
     455 000092 E654          MOV #1, *SP(#42) ; |196| 
         000094 01   
     456                      .dwpsn  file "../c5535_bsl_revc/ezdsp5535_v1/c55xx_csl/ccs_v4.0_examples/lcd/CSL_LCDC_DmaPolledExampl
     457 000095 EC10          AMAR *SP(#8), XAR2
         000097 AE   
     458              
     459 00009b 4D05          RPT #5    ; |199| 
     460 000098 EC3C  ||      AMAR *SP(#30), XAR3
         00009a BE   
     461              
     462                                                          ; loop starts ; |199| 
     463 00009d       $C$L3:    
     464 00009d       $C$DW$L$_CSL_lcdcDmaPolledTest$2$B:
     465 00009d 8065              MOV *AR3+, *AR2+ ; |199| 
         00009f 14   
     466                                                      ; loop ends ; |199| 
     467 0000a0       $C$DW$L$_CSL_lcdcDmaPolledTest$2$E:
     468 0000a0       $C$L4:    
     469                      .dwpsn  file "../c5535_bsl_revc/ezdsp5535_v1/c55xx_csl/ccs_v4.0_examples/lcd/CSL_LCDC_DmaPolledExampl
     470 0000a0 E62A          MOV #0, *SP(#21) ; |201| 
         0000a2 00   
     471                      .dwpsn  file "../c5535_bsl_revc/ezdsp5535_v1/c55xx_csl/ccs_v4.0_examples/lcd/CSL_LCDC_DmaPolledExampl
     472 0000a3 EC1C          AMAR *SP(#14), XAR2
         0000a5 AE   
     473              
     474 0000a9 4D06          RPT #6    ; |203| 
     475 0000a6 EC48  ||      AMAR *SP(#36), XAR3
         0000a8 BE   
     476              
     477                                                          ; loop starts ; |203| 
     478 0000ab       $C$L5:    
     479 0000ab       $C$DW$L$_CSL_lcdcDmaPolledTest$4$B:
     480 0000ab 8065              MOV *AR3+, *AR2+ ; |203| 
         0000ad 14   
     481                                                      ; loop ends ; |203| 
     482 0000ae       $C$DW$L$_CSL_lcdcDmaPolledTest$4$E:
     483 0000ae       $C$L6:    
     484                      .dwpsn  file "../c5535_bsl_revc/ezdsp5535_v1/c55xx_csl/ccs_v4.0_examples/lcd/CSL_LCDC_DmaPolledExampl
     485 0000ae 3C00          MOV #0, AC0 ; |205| 
     486 0000b0 EB0C          MOV AC0, dbl(*SP(#6))
         0000b2 08   
     487                      .dwpsn  file "../c5535_bsl_revc/ezdsp5535_v1/c55xx_csl/ccs_v4.0_examples/lcd/CSL_LCDC_DmaPolledExampl
     488 0000b3 E658          MOV #2, *SP(#44) ; |208| 
         0000b5 02   
     489                      .dwpsn  file "../c5535_bsl_revc/ezdsp5535_v1/c55xx_csl/ccs_v4.0_examples/lcd/CSL_LCDC_DmaPolledExampl
     490 0000b6 E65A          MOV #0, *SP(#45) ; |209| 
         0000b8 00   
     491                      .dwpsn  file "../c5535_bsl_revc/ezdsp5535_v1/c55xx_csl/ccs_v4.0_examples/lcd/CSL_LCDC_DmaPolledExampl
     492 0000b9 E65C          MOV #0, *SP(#46) ; |210| 
         0000bb 00   
     493                      .dwpsn  file "../c5535_bsl_revc/ezdsp5535_v1/c55xx_csl/ccs_v4.0_examples/lcd/CSL_LCDC_DmaPolledExampl
     494 0000bc E65E          MOV #0, *SP(#47) ; |211| 
         0000be 00   
     495                      .dwpsn  file "../c5535_bsl_revc/ezdsp5535_v1/c55xx_csl/ccs_v4.0_examples/lcd/CSL_LCDC_DmaPolledExampl
TMS320C55x Assembler PC v4.4.1 Sat Sep 29 23:09:11 2018

Tools Copyright (c) 1996-2012 Texas Instruments Incorporated
csl_lcdc_DmaPolledExample.asm                                        PAGE   11

     496 0000bf 7A00          MOV #(_gLcdBuf >> 16) << #16, AC0 ; |212| 
         0000c1 000A%
     497 0000c3 7E00          OR #(_gLcdBuf & 0xffff), AC0, AC0 ; |212| 
         0000c5 0000%
     498 0000c7 EB60          MOV AC0, dbl(*SP(#48)) ; |212| 
         0000c9 08   
     499                      .dwpsn  file "../c5535_bsl_revc/ezdsp5535_v1/c55xx_csl/ccs_v4.0_examples/lcd/CSL_LCDC_DmaPolledExampl
     500 0000ca 7A00          MOV #((_gLcdBuf+16384) >> 16) << #16, AC0 ; |213| 
         0000cc 000A%
     501 0000ce 7E00          OR #((_gLcdBuf+16384) & 0xffff), AC0, AC0 ; |213| 
         0000d0 0000%
     502 0000d2 EB64          MOV AC0, dbl(*SP(#50)) ; |213| 
         0000d4 08   
     503                      .dwpsn  file "../c5535_bsl_revc/ezdsp5535_v1/c55xx_csl/ccs_v4.0_examples/lcd/CSL_LCDC_DmaPolledExampl
     504 0000d5 7A00          MOV #(_gLcdBuf >> 16) << #16, AC0 ; |214| 
         0000d7 000A%
     505 0000d9 7E00          OR #(_gLcdBuf & 0xffff), AC0, AC0 ; |214| 
         0000db 0000%
     506 0000dd EB68          MOV AC0, dbl(*SP(#52)) ; |214| 
         0000df 08   
     507                      .dwpsn  file "../c5535_bsl_revc/ezdsp5535_v1/c55xx_csl/ccs_v4.0_examples/lcd/CSL_LCDC_DmaPolledExampl
     508 0000e0 7A00          MOV #((_gLcdBuf+16384) >> 16) << #16, AC0 ; |215| 
         0000e2 000A%
     509 0000e4 7E00          OR #((_gLcdBuf+16384) & 0xffff), AC0, AC0 ; |215| 
         0000e6 0000%
     510 0000e8 EB6C          MOV AC0, dbl(*SP(#54)) ; |215| 
         0000ea 08   
     511                      .dwpsn  file "../c5535_bsl_revc/ezdsp5535_v1/c55xx_csl/ccs_v4.0_examples/lcd/CSL_LCDC_DmaPolledExampl
     512              $C$DW$56        .dwtag  DW_TAG_TI_branch
     513                      .dwattr $C$DW$56, DW_AT_low_pc(0x00)
     514                      .dwattr $C$DW$56, DW_AT_name("_LCD_init")
     515                      .dwattr $C$DW$56, DW_AT_TI_call
     516 0000eb 6C00          CALL #_LCD_init ; |218| 
         0000ed 0000!
     517                                                      ; call occurs [#_LCD_init] ; |218| 
     518 0000ef C404          MOV T0, *SP(#2) ; |218| 
     519                      .dwpsn  file "../c5535_bsl_revc/ezdsp5535_v1/c55xx_csl/ccs_v4.0_examples/lcd/CSL_LCDC_DmaPolledExampl
     520 0000f1 2249          MOV T0, AR1
     521 0000f3 0409          BCC $C$L7,AR1 == #0 ; |219| 
         0000f5 12   
     522                                                      ; branchcc occurs ; |219| 
     523                      .dwpsn  file "../c5535_bsl_revc/ezdsp5535_v1/c55xx_csl/ccs_v4.0_examples/lcd/CSL_LCDC_DmaPolledExampl
     524 0000f6 EC31          AMOV #$C$FSL4, XAR3 ; |221| 
         0000f8 BE00 
         0000fa 0062+
     525 0000fc EB00          MOV XAR3, dbl(*SP(#0))
         0000fe B5   
     526              $C$DW$57        .dwtag  DW_TAG_TI_branch
     527                      .dwattr $C$DW$57, DW_AT_low_pc(0x00)
     528                      .dwattr $C$DW$57, DW_AT_name("_printf")
     529                      .dwattr $C$DW$57, DW_AT_TI_call
     530 0000ff 6C00          CALL #_printf ; |221| 
         000101 0000!
     531                                                      ; call occurs [#_printf] ; |221| 
     532                      .dwpsn  file "../c5535_bsl_revc/ezdsp5535_v1/c55xx_csl/ccs_v4.0_examples/lcd/CSL_LCDC_DmaPolledExampl
TMS320C55x Assembler PC v4.4.1 Sat Sep 29 23:09:11 2018

Tools Copyright (c) 1996-2012 Texas Instruments Incorporated
csl_lcdc_DmaPolledExample.asm                                        PAGE   12

     533 000103 A404          MOV *SP(#2), T0 ; |222| 
     534 000105 0602          B $C$L21  ; |222| 
         000107 60   
     535                                                      ; branch occurs ; |222| 
     536 000108       $C$L7:    
     537                      .dwpsn  file "../c5535_bsl_revc/ezdsp5535_v1/c55xx_csl/ccs_v4.0_examples/lcd/CSL_LCDC_DmaPolledExampl
     538 000108 EC31          AMOV #$C$FSL5, XAR3 ; |226| 
         00010a BE00 
         00010c 0074+
     539 00010e EB00          MOV XAR3, dbl(*SP(#0))
         000110 B5   
     540              $C$DW$58        .dwtag  DW_TAG_TI_branch
     541                      .dwattr $C$DW$58, DW_AT_low_pc(0x00)
     542                      .dwattr $C$DW$58, DW_AT_name("_printf")
     543                      .dwattr $C$DW$58, DW_AT_TI_call
     544 000111 6C00          CALL #_printf ; |226| 
         000113 0000!
     545                                                      ; call occurs [#_printf] ; |226| 
     546                      .dwpsn  file "../c5535_bsl_revc/ezdsp5535_v1/c55xx_csl/ccs_v4.0_examples/lcd/CSL_LCDC_DmaPolledExampl
     547 000115 A951          MOV *port(#7168), AR1 ; |230| 
         000117 1C00 
     548 000119 7D8F          AND #0x8fff, AR1, AC0 ; |230| 
         00011b FF09 
     549 00011d EC1A          BSET @#13, AC0 ; |230| 
         00011f 00   
     550 000120 C051          MOV AC0, *port(#7168) ; |230| 
         000122 1C00 
     551                      .dwpsn  file "../c5535_bsl_revc/ezdsp5535_v1/c55xx_csl/ccs_v4.0_examples/lcd/CSL_LCDC_DmaPolledExampl
     552 000124 A951          MOV *port(#7168), AR1 ; |231| 
         000126 1C00 
     553 000128 7DF3          AND #0xf3ff, AR1, AC0 ; |231| 
         00012a FF09 
     554 00012c EC16          BSET @#11, AC0 ; |231| 
         00012e 00   
     555 00012f C051          MOV AC0, *port(#7168) ; |231| 
         000131 1C00 
     556                      .dwpsn  file "../c5535_bsl_revc/ezdsp5535_v1/c55xx_csl/ccs_v4.0_examples/lcd/CSL_LCDC_DmaPolledExampl
     557 000133 FB51          MOV #2048, *port(#7174) ; |232| 
         000135 0800 
         000137 1C06 
     558                      .dwpsn  file "../c5535_bsl_revc/ezdsp5535_v1/c55xx_csl/ccs_v4.0_examples/lcd/CSL_LCDC_DmaPolledExampl
     559 000139 FB51          MOV #2048, *port(#7178) ; |233| 
         00013b 0800 
         00013d 1C0A 
     560                      .dwpsn  file "../c5535_bsl_revc/ezdsp5535_v1/c55xx_csl/ccs_v4.0_examples/lcd/CSL_LCDC_DmaPolledExampl
     561 00013f EC06          AMAR *SP(#3), XAR0
         000141 8E   
     562 000142 EC04          AMAR *SP(#2), XAR1
         000144 9E   
     563              $C$DW$59        .dwtag  DW_TAG_TI_branch
     564                      .dwattr $C$DW$59, DW_AT_low_pc(0x00)
     565                      .dwattr $C$DW$59, DW_AT_name("_LCD_open")
     566                      .dwattr $C$DW$59, DW_AT_TI_call
     567              
     568 000145 6C00          CALL #_LCD_open ; |236| 
TMS320C55x Assembler PC v4.4.1 Sat Sep 29 23:09:11 2018

Tools Copyright (c) 1996-2012 Texas Instruments Incorporated
csl_lcdc_DmaPolledExample.asm                                        PAGE   13

         000147 0000!
     569 000149 3D04  ||      MOV #0, T0
     570              
     571                                                      ; call occurs [#_LCD_open] ; |236| 
     572 00014b EB31          MOV XAR0, dbl(*(#_hLcdc))
         00014d 8500 
         00014f 0000-
     573                      .dwpsn  file "../c5535_bsl_revc/ezdsp5535_v1/c55xx_csl/ccs_v4.0_examples/lcd/CSL_LCDC_DmaPolledExampl
     574 000151 ED31          MOV dbl(*(#_hLcdc)), XAR3
         000153 BF00 
         000155 0000-
     575 000157 90B0          MOV XAR3, AC0
     576 000159 0410          BCC $C$L8,AC0 != #0 ; |237| 
         00015b 12   
     577                                                      ; branchcc occurs ; |237| 
     578                      .dwpsn  file "../c5535_bsl_revc/ezdsp5535_v1/c55xx_csl/ccs_v4.0_examples/lcd/CSL_LCDC_DmaPolledExampl
     579 00015c EC31          AMOV #$C$FSL6, XAR3 ; |239| 
         00015e BE00 
         000160 008A+
     580 000162 EB00          MOV XAR3, dbl(*SP(#0))
         000164 B5   
     581              $C$DW$60        .dwtag  DW_TAG_TI_branch
     582                      .dwattr $C$DW$60, DW_AT_low_pc(0x00)
     583                      .dwattr $C$DW$60, DW_AT_name("_printf")
     584                      .dwattr $C$DW$60, DW_AT_TI_call
     585 000165 6C00          CALL #_printf ; |239| 
         000167 0000!
     586                                                      ; call occurs [#_printf] ; |239| 
     587                      .dwpsn  file "../c5535_bsl_revc/ezdsp5535_v1/c55xx_csl/ccs_v4.0_examples/lcd/CSL_LCDC_DmaPolledExampl
     588 000169 3E14          MOV #-1, T0
     589 00016b 0601          B $C$L21  ; |240| 
         00016d FA   
     590                                                      ; branch occurs ; |240| 
     591 00016e       $C$L8:    
     592                      .dwpsn  file "../c5535_bsl_revc/ezdsp5535_v1/c55xx_csl/ccs_v4.0_examples/lcd/CSL_LCDC_DmaPolledExampl
     593 00016e EC31          AMOV #$C$FSL7, XAR3 ; |244| 
         000170 BE00 
         000172 009C+
     594 000174 EB00          MOV XAR3, dbl(*SP(#0))
         000176 B5   
     595              $C$DW$61        .dwtag  DW_TAG_TI_branch
     596                      .dwattr $C$DW$61, DW_AT_low_pc(0x00)
     597                      .dwattr $C$DW$61, DW_AT_name("_printf")
     598                      .dwattr $C$DW$61, DW_AT_TI_call
     599 000177 6C00          CALL #_printf ; |244| 
         000179 0000!
     600                                                      ; call occurs [#_printf] ; |244| 
     601                      .dwpsn  file "../c5535_bsl_revc/ezdsp5535_v1/c55xx_csl/ccs_v4.0_examples/lcd/CSL_LCDC_DmaPolledExampl
     602 00017b EC0C          AMAR *SP(#6), XAR1
         00017d 9E   
     603 00017e ED31          MOV dbl(*(#_hLcdc)), XAR0
         000180 8F00 
         000182 0000-
     604              $C$DW$62        .dwtag  DW_TAG_TI_branch
     605                      .dwattr $C$DW$62, DW_AT_low_pc(0x00)
TMS320C55x Assembler PC v4.4.1 Sat Sep 29 23:09:11 2018

Tools Copyright (c) 1996-2012 Texas Instruments Incorporated
csl_lcdc_DmaPolledExample.asm                                        PAGE   14

     606                      .dwattr $C$DW$62, DW_AT_name("_LCD_setup")
     607                      .dwattr $C$DW$62, DW_AT_TI_call
     608 000184 6C00          CALL #_LCD_setup ; |248| 
         000186 0000!
     609                                                      ; call occurs [#_LCD_setup] ; |248| 
     610 000188 C404          MOV T0, *SP(#2) ; |248| 
     611                      .dwpsn  file "../c5535_bsl_revc/ezdsp5535_v1/c55xx_csl/ccs_v4.0_examples/lcd/CSL_LCDC_DmaPolledExampl
     612 00018a 2249          MOV T0, AR1
     613 00018c 0409          BCC $C$L9,AR1 == #0 ; |249| 
         00018e 12   
     614                                                      ; branchcc occurs ; |249| 
     615                      .dwpsn  file "../c5535_bsl_revc/ezdsp5535_v1/c55xx_csl/ccs_v4.0_examples/lcd/CSL_LCDC_DmaPolledExampl
     616 00018f EC31          AMOV #$C$FSL8, XAR3 ; |251| 
         000191 BE00 
         000193 00B2+
     617 000195 EB00          MOV XAR3, dbl(*SP(#0))
         000197 B5   
     618              $C$DW$63        .dwtag  DW_TAG_TI_branch
     619                      .dwattr $C$DW$63, DW_AT_low_pc(0x00)
     620                      .dwattr $C$DW$63, DW_AT_name("_printf")
     621                      .dwattr $C$DW$63, DW_AT_TI_call
     622 000198 6C00          CALL #_printf ; |251| 
         00019a 0000!
     623                                                      ; call occurs [#_printf] ; |251| 
     624                      .dwpsn  file "../c5535_bsl_revc/ezdsp5535_v1/c55xx_csl/ccs_v4.0_examples/lcd/CSL_LCDC_DmaPolledExampl
     625 00019c A404          MOV *SP(#2), T0 ; |252| 
     626 00019e 0601          B $C$L21  ; |252| 
         0001a0 C7   
     627                                                      ; branch occurs ; |252| 
     628 0001a1       $C$L9:    
     629                      .dwpsn  file "../c5535_bsl_revc/ezdsp5535_v1/c55xx_csl/ccs_v4.0_examples/lcd/CSL_LCDC_DmaPolledExampl
     630 0001a1 EC31          AMOV #$C$FSL9, XAR3 ; |256| 
         0001a3 BE00 
         0001a5 00C4+
     631 0001a7 EB00          MOV XAR3, dbl(*SP(#0))
         0001a9 B5   
     632              $C$DW$64        .dwtag  DW_TAG_TI_branch
     633                      .dwattr $C$DW$64, DW_AT_low_pc(0x00)
     634                      .dwattr $C$DW$64, DW_AT_name("_printf")
     635                      .dwattr $C$DW$64, DW_AT_TI_call
     636 0001aa 6C00          CALL #_printf ; |256| 
         0001ac 0000!
     637                                                      ; call occurs [#_printf] ; |256| 
     638                      .dwpsn  file "../c5535_bsl_revc/ezdsp5535_v1/c55xx_csl/ccs_v4.0_examples/lcd/CSL_LCDC_DmaPolledExampl
     639              $C$DW$65        .dwtag  DW_TAG_TI_branch
     640                      .dwattr $C$DW$65, DW_AT_low_pc(0x00)
     641                      .dwattr $C$DW$65, DW_AT_name("_panelSetup")
     642                      .dwattr $C$DW$65, DW_AT_TI_call
     643              
     644 0001ae 6C00          CALL #_panelSetup ; |260| 
         0001b0 0000!
     645 0001b2 3D04  ||      MOV #0, T0
     646              
     647                                                      ; call occurs [#_panelSetup] ; |260| 
     648                      .dwpsn  file "../c5535_bsl_revc/ezdsp5535_v1/c55xx_csl/ccs_v4.0_examples/lcd/CSL_LCDC_DmaPolledExampl
TMS320C55x Assembler PC v4.4.1 Sat Sep 29 23:09:11 2018

Tools Copyright (c) 1996-2012 Texas Instruments Incorporated
csl_lcdc_DmaPolledExample.asm                                        PAGE   15

     649 0001b4 E672          MOV #0, *SP(#57) ; |263| 
         0001b6 00   
     650                      .dwpsn  file "../c5535_bsl_revc/ezdsp5535_v1/c55xx_csl/ccs_v4.0_examples/lcd/CSL_LCDC_DmaPolledExampl
     651 0001b7 763F          MOV #16383, AR2 ; |263| 
         0001b9 FFA8 
     652 0001bb A972          MOV *SP(#57), AR1 ; |263| 
     653 0001bd 1298          CMP AR1 >= AR2, TC1 ; |263| 
         0001bf A0   
     654 0001c0 6664          BCC $C$L11,TC1 ; |263| 
     655                                                      ; branchcc occurs ; |263| 
     656 0001c2       $C$L10:    
     657 0001c2       $C$DW$L$_CSL_lcdcDmaPolledTest$15$B:
     658                      .dwpsn  file "../c5535_bsl_revc/ezdsp5535_v1/c55xx_csl/ccs_v4.0_examples/lcd/CSL_LCDC_DmaPolledExampl
     659 0001c2 F772          ADD #1, *SP(#57) ; |263| 
         0001c4 0001 
     660                      .dwpsn  file "../c5535_bsl_revc/ezdsp5535_v1/c55xx_csl/ccs_v4.0_examples/lcd/CSL_LCDC_DmaPolledExampl
     661 0001c6 A972          MOV *SP(#57), AR1 ; |263| 
     662 0001c8 1294          CMP AR1 < AR2, TC1 ; |263| 
         0001ca A0   
     663 0001cb 0464          BCC $C$L10,TC1 ; |263| 
         0001cd F4   
     664                                                      ; branchcc occurs ; |263| 
     665 0001ce       $C$DW$L$_CSL_lcdcDmaPolledTest$15$E:
     666 0001ce       $C$L11:    
     667                      .dwpsn  file "../c5535_bsl_revc/ezdsp5535_v1/c55xx_csl/ccs_v4.0_examples/lcd/CSL_LCDC_DmaPolledExampl
     668              $C$DW$66        .dwtag  DW_TAG_TI_branch
     669                      .dwattr $C$DW$66, DW_AT_low_pc(0x00)
     670                      .dwattr $C$DW$66, DW_AT_name("_draw_65K_colorbar")
     671                      .dwattr $C$DW$66, DW_AT_TI_call
     672              
     673 0001ce 6C00          CALL #_draw_65K_colorbar ; |264| 
         0001d0 0000!
     674 0001d2 3D04  ||      MOV #0, T0
     675              
     676                                                      ; call occurs [#_draw_65K_colorbar] ; |264| 
     677 0001d4 C470          MOV T0, *SP(#56) ; |264| 
     678                      .dwpsn  file "../c5535_bsl_revc/ezdsp5535_v1/c55xx_csl/ccs_v4.0_examples/lcd/CSL_LCDC_DmaPolledExampl
     679 0001d6 7600          MOV #120, AR1 ; |267| 
         0001d8 7898 
     680 0001da 7600          MOV #60, AR0 ; |267| 
         0001dc 3C88 
     681              
     682 0001de 3C05          MOV #0, T1
     683 0001e0 3D0A  ||      MOV #0, AR2
     684              
     685              $C$DW$67        .dwtag  DW_TAG_TI_branch
     686                      .dwattr $C$DW$67, DW_AT_low_pc(0x00)
     687                      .dwattr $C$DW$67, DW_AT_name("_windowSetup")
     688                      .dwattr $C$DW$67, DW_AT_TI_call
     689              
     690 0001e2 6C00          CALL #_windowSetup ; |267| 
         0001e4 0000!
     691 0001e6 3D04  ||      MOV #0, T0
     692              
     693                                                      ; call occurs [#_windowSetup] ; |267| 
TMS320C55x Assembler PC v4.4.1 Sat Sep 29 23:09:11 2018

Tools Copyright (c) 1996-2012 Texas Instruments Incorporated
csl_lcdc_DmaPolledExample.asm                                        PAGE   16

     694 0001e8 C470          MOV T0, *SP(#56) ; |267| 
     695                      .dwpsn  file "../c5535_bsl_revc/ezdsp5535_v1/c55xx_csl/ccs_v4.0_examples/lcd/CSL_LCDC_DmaPolledExampl
     696 0001ea 2249          MOV T0, AR1
     697 0001ec 0409          BCC $C$L12,AR1 == #0 ; |268| 
         0001ee 12   
     698                                                      ; branchcc occurs ; |268| 
     699                      .dwpsn  file "../c5535_bsl_revc/ezdsp5535_v1/c55xx_csl/ccs_v4.0_examples/lcd/CSL_LCDC_DmaPolledExampl
     700 0001ef EC31          AMOV #$C$FSL10, XAR3 ; |270| 
         0001f1 BE00 
         0001f3 00DA+
     701 0001f5 EB00          MOV XAR3, dbl(*SP(#0))
         0001f7 B5   
     702              $C$DW$68        .dwtag  DW_TAG_TI_branch
     703                      .dwattr $C$DW$68, DW_AT_low_pc(0x00)
     704                      .dwattr $C$DW$68, DW_AT_name("_printf")
     705                      .dwattr $C$DW$68, DW_AT_TI_call
     706 0001f8 6C00          CALL #_printf ; |270| 
         0001fa 0000!
     707                                                      ; call occurs [#_printf] ; |270| 
     708                      .dwpsn  file "../c5535_bsl_revc/ezdsp5535_v1/c55xx_csl/ccs_v4.0_examples/lcd/CSL_LCDC_DmaPolledExampl
     709 0001fc 3E14          MOV #-1, T0
     710 0001fe 0601          B $C$L21  ; |271| 
         000200 67   
     711                                                      ; branch occurs ; |271| 
     712 000201       $C$L12:    
     713                      .dwpsn  file "../c5535_bsl_revc/ezdsp5535_v1/c55xx_csl/ccs_v4.0_examples/lcd/CSL_LCDC_DmaPolledExampl
     714 000201 EC31          AMOV #$C$FSL11, XAR3 ; |275| 
         000203 BE00 
         000205 00EE+
     715 000207 EB00          MOV XAR3, dbl(*SP(#0))
         000209 B5   
     716              $C$DW$69        .dwtag  DW_TAG_TI_branch
     717                      .dwattr $C$DW$69, DW_AT_low_pc(0x00)
     718                      .dwattr $C$DW$69, DW_AT_name("_printf")
     719                      .dwattr $C$DW$69, DW_AT_TI_call
     720 00020a 6C00          CALL #_printf ; |275| 
         00020c 0000!
     721                                                      ; call occurs [#_printf] ; |275| 
     722                      .dwpsn  file "../c5535_bsl_revc/ezdsp5535_v1/c55xx_csl/ccs_v4.0_examples/lcd/CSL_LCDC_DmaPolledExampl
     723 00020e E672          MOV #0, *SP(#57) ; |280| 
         000210 00   
     724                      .dwpsn  file "../c5535_bsl_revc/ezdsp5535_v1/c55xx_csl/ccs_v4.0_examples/lcd/CSL_LCDC_DmaPolledExampl
     725 000211 7640          MOV #16384, AR2 ; |280| 
         000213 00A8 
     726 000215 A972          MOV *SP(#57), AR1 ; |280| 
     727 000217 1298          CMP AR1 >= AR2, TC1 ; |280| 
         000219 A0   
     728 00021a 0464          BCC $C$L14,TC1 ; |280| 
         00021c 1F   
     729                                                      ; branchcc occurs ; |280| 
     730 00021d       $C$L13:    
     731 00021d       $C$DW$L$_CSL_lcdcDmaPolledTest$20$B:
     732                      .dwpsn  file "../c5535_bsl_revc/ezdsp5535_v1/c55xx_csl/ccs_v4.0_examples/lcd/CSL_LCDC_DmaPolledExampl
     733 00021d 2294          MOV AR1, T0 ; |281| 
     734 00021f EC31          AMOV #_gLcdBuf, XAR3 ; |281| 
TMS320C55x Assembler PC v4.4.1 Sat Sep 29 23:09:11 2018

Tools Copyright (c) 1996-2012 Texas Instruments Incorporated
csl_lcdc_DmaPolledExample.asm                                        PAGE   17

         000221 BE00 
         000223 0000-
     735 000225 E66B          MOV #0, *AR3(T0) ; |281| 
         000227 00   
     736                      .dwpsn  file "../c5535_bsl_revc/ezdsp5535_v1/c55xx_csl/ccs_v4.0_examples/lcd/CSL_LCDC_DmaPolledExampl
     737 000228 A472          MOV *SP(#57), T0 ; |282| 
     738 00022a 4014          ADD #1, T0 ; |282| 
     739 00022c FB6B          MOV #248, *AR3(T0) ; |282| 
         00022e 00F8 
     740                      .dwpsn  file "../c5535_bsl_revc/ezdsp5535_v1/c55xx_csl/ccs_v4.0_examples/lcd/CSL_LCDC_DmaPolledExampl
     741 000230 F772          ADD #2, *SP(#57) ; |280| 
         000232 0002 
     742                      .dwpsn  file "../c5535_bsl_revc/ezdsp5535_v1/c55xx_csl/ccs_v4.0_examples/lcd/CSL_LCDC_DmaPolledExampl
     743 000234 A972          MOV *SP(#57), AR1 ; |280| 
     744 000236 1294          CMP AR1 < AR2, TC1 ; |280| 
         000238 A0   
     745 000239 0464          BCC $C$L13,TC1 ; |280| 
         00023b E1   
     746                                                      ; branchcc occurs ; |280| 
     747 00023c       $C$DW$L$_CSL_lcdcDmaPolledTest$20$E:
     748 00023c       $C$L14:    
     749                      .dwpsn  file "../c5535_bsl_revc/ezdsp5535_v1/c55xx_csl/ccs_v4.0_examples/lcd/CSL_LCDC_DmaPolledExampl
     750 00023c 7600          MOV #92, T0 ; |286| 
         00023e 5C48 
     751              $C$DW$70        .dwtag  DW_TAG_TI_branch
     752                      .dwattr $C$DW$70, DW_AT_low_pc(0x00)
     753                      .dwattr $C$DW$70, DW_AT_name("_cmdWrite")
     754                      .dwattr $C$DW$70, DW_AT_TI_call
     755              
     756 000240 6C00          CALL #_cmdWrite ; |286| 
         000242 0000!
     757 000244 3D05  ||      MOV #0, T1
     758              
     759                                                      ; call occurs [#_cmdWrite] ; |286| 
     760                      .dwpsn  file "../c5535_bsl_revc/ezdsp5535_v1/c55xx_csl/ccs_v4.0_examples/lcd/CSL_LCDC_DmaPolledExampl
     761 000246 EC58          AMAR *SP(#44), XAR1
         000248 9E   
     762 000249 ED31          MOV dbl(*(#_hLcdc)), XAR0
         00024b 8F00 
         00024d 0000-
     763              $C$DW$71        .dwtag  DW_TAG_TI_branch
     764                      .dwattr $C$DW$71, DW_AT_low_pc(0x00)
     765                      .dwattr $C$DW$71, DW_AT_name("_LCD_configDMA")
     766                      .dwattr $C$DW$71, DW_AT_TI_call
     767 00024f 6C00          CALL #_LCD_configDMA ; |289| 
         000251 0000!
     768                                                      ; call occurs [#_LCD_configDMA] ; |289| 
     769 000253 C404          MOV T0, *SP(#2) ; |289| 
     770                      .dwpsn  file "../c5535_bsl_revc/ezdsp5535_v1/c55xx_csl/ccs_v4.0_examples/lcd/CSL_LCDC_DmaPolledExampl
     771 000255 2249          MOV T0, AR1
     772 000257 0409          BCC $C$L15,AR1 == #0 ; |290| 
         000259 12   
     773                                                      ; branchcc occurs ; |290| 
     774                      .dwpsn  file "../c5535_bsl_revc/ezdsp5535_v1/c55xx_csl/ccs_v4.0_examples/lcd/CSL_LCDC_DmaPolledExampl
     775 00025a EC31          AMOV #$C$FSL12, XAR3 ; |292| 
TMS320C55x Assembler PC v4.4.1 Sat Sep 29 23:09:11 2018

Tools Copyright (c) 1996-2012 Texas Instruments Incorporated
csl_lcdc_DmaPolledExample.asm                                        PAGE   18

         00025c BE00 
         00025e 0106+
     776 000260 EB00          MOV XAR3, dbl(*SP(#0))
         000262 B5   
     777              $C$DW$72        .dwtag  DW_TAG_TI_branch
     778                      .dwattr $C$DW$72, DW_AT_low_pc(0x00)
     779                      .dwattr $C$DW$72, DW_AT_name("_printf")
     780                      .dwattr $C$DW$72, DW_AT_TI_call
     781 000263 6C00          CALL #_printf ; |292| 
         000265 0000!
     782                                                      ; call occurs [#_printf] ; |292| 
     783                      .dwpsn  file "../c5535_bsl_revc/ezdsp5535_v1/c55xx_csl/ccs_v4.0_examples/lcd/CSL_LCDC_DmaPolledExampl
     784 000267 A404          MOV *SP(#2), T0 ; |293| 
     785 000269 0600          B $C$L21  ; |293| 
         00026b FC   
     786                                                      ; branch occurs ; |293| 
     787 00026c       $C$L15:    
     788                      .dwpsn  file "../c5535_bsl_revc/ezdsp5535_v1/c55xx_csl/ccs_v4.0_examples/lcd/CSL_LCDC_DmaPolledExampl
     789 00026c EC31          AMOV #$C$FSL13, XAR3 ; |297| 
         00026e BE00 
         000270 011C+
     790 000272 EB00          MOV XAR3, dbl(*SP(#0))
         000274 B5   
     791              $C$DW$73        .dwtag  DW_TAG_TI_branch
     792                      .dwattr $C$DW$73, DW_AT_low_pc(0x00)
     793                      .dwattr $C$DW$73, DW_AT_name("_printf")
     794                      .dwattr $C$DW$73, DW_AT_TI_call
     795 000275 6C00          CALL #_printf ; |297| 
         000277 0000!
     796                                                      ; call occurs [#_printf] ; |297| 
     797                      .dwpsn  file "../c5535_bsl_revc/ezdsp5535_v1/c55xx_csl/ccs_v4.0_examples/lcd/CSL_LCDC_DmaPolledExampl
     798 000279 ED31          MOV dbl(*(#_hLcdc)), XAR0
         00027b 8F00 
         00027d 0000-
     799              $C$DW$74        .dwtag  DW_TAG_TI_branch
     800                      .dwattr $C$DW$74, DW_AT_low_pc(0x00)
     801                      .dwattr $C$DW$74, DW_AT_name("_CSL_lcdcEnableLiddDMA")
     802                      .dwattr $C$DW$74, DW_AT_TI_call
     803 00027f 08FD          CALL #_CSL_lcdcEnableLiddDMA ; |301| 
         000281 7E   
     804                                                      ; call occurs [#_CSL_lcdcEnableLiddDMA] ; |301| 
     805                      .dwpsn  file "../c5535_bsl_revc/ezdsp5535_v1/c55xx_csl/ccs_v4.0_examples/lcd/CSL_LCDC_DmaPolledExampl
     806              $C$DW$75        .dwtag  DW_TAG_TI_branch
     807                      .dwattr $C$DW$75, DW_AT_low_pc(0x00)
     808                      .dwattr $C$DW$75, DW_AT_name("_lcd_DMAWait")
     809                      .dwattr $C$DW$75, DW_AT_TI_call
     810 000282 6C00          CALL #_lcd_DMAWait ; |303| 
         000284 0000!
     811                                                      ; call occurs [#_lcd_DMAWait] ; |303| 
     812                      .dwpsn  file "../c5535_bsl_revc/ezdsp5535_v1/c55xx_csl/ccs_v4.0_examples/lcd/CSL_LCDC_DmaPolledExampl
     813 000286 7600          MOV #120, AR0 ; |306| 
         000288 7888 
     814 00028a 7600          MOV #120, AR1 ; |306| 
         00028c 7898 
     815              
TMS320C55x Assembler PC v4.4.1 Sat Sep 29 23:09:11 2018

Tools Copyright (c) 1996-2012 Texas Instruments Incorporated
csl_lcdc_DmaPolledExample.asm                                        PAGE   19

     816 00028e 7600          MOV #60, T0 ; |306| 
         000290 3C48 
     817 000292 3D05  ||      MOV #0, T1
     818              
     819              $C$DW$76        .dwtag  DW_TAG_TI_branch
     820                      .dwattr $C$DW$76, DW_AT_low_pc(0x00)
     821                      .dwattr $C$DW$76, DW_AT_name("_windowSetup")
     822                      .dwattr $C$DW$76, DW_AT_TI_call
     823              
     824 000294 6C00          CALL #_windowSetup ; |306| 
         000296 0000!
     825 000298 3D0A  ||      MOV #0, AR2
     826              
     827                                                      ; call occurs [#_windowSetup] ; |306| 
     828 00029a C470          MOV T0, *SP(#56) ; |306| 
     829                      .dwpsn  file "../c5535_bsl_revc/ezdsp5535_v1/c55xx_csl/ccs_v4.0_examples/lcd/CSL_LCDC_DmaPolledExampl
     830 00029c 2249          MOV T0, AR1
     831 00029e 0409          BCC $C$L16,AR1 == #0 ; |307| 
         0002a0 12   
     832                                                      ; branchcc occurs ; |307| 
     833                      .dwpsn  file "../c5535_bsl_revc/ezdsp5535_v1/c55xx_csl/ccs_v4.0_examples/lcd/CSL_LCDC_DmaPolledExampl
     834 0002a1 EC31          AMOV #$C$FSL10, XAR3 ; |309| 
         0002a3 BE00 
         0002a5 00DA+
     835 0002a7 EB00          MOV XAR3, dbl(*SP(#0))
         0002a9 B5   
     836              $C$DW$77        .dwtag  DW_TAG_TI_branch
     837                      .dwattr $C$DW$77, DW_AT_low_pc(0x00)
     838                      .dwattr $C$DW$77, DW_AT_name("_printf")
     839                      .dwattr $C$DW$77, DW_AT_TI_call
     840 0002aa 6C00          CALL #_printf ; |309| 
         0002ac 0000!
     841                                                      ; call occurs [#_printf] ; |309| 
     842                      .dwpsn  file "../c5535_bsl_revc/ezdsp5535_v1/c55xx_csl/ccs_v4.0_examples/lcd/CSL_LCDC_DmaPolledExampl
     843 0002ae 3E14          MOV #-1, T0
     844 0002b0 0600          B $C$L21  ; |310| 
         0002b2 B5   
     845                                                      ; branch occurs ; |310| 
     846 0002b3       $C$L16:    
     847                      .dwpsn  file "../c5535_bsl_revc/ezdsp5535_v1/c55xx_csl/ccs_v4.0_examples/lcd/CSL_LCDC_DmaPolledExampl
     848 0002b3 EC31          AMOV #$C$FSL11, XAR3 ; |314| 
         0002b5 BE00 
         0002b7 00EE+
     849 0002b9 EB00          MOV XAR3, dbl(*SP(#0))
         0002bb B5   
     850              $C$DW$78        .dwtag  DW_TAG_TI_branch
     851                      .dwattr $C$DW$78, DW_AT_low_pc(0x00)
     852                      .dwattr $C$DW$78, DW_AT_name("_printf")
     853                      .dwattr $C$DW$78, DW_AT_TI_call
     854 0002bc 6C00          CALL #_printf ; |314| 
         0002be 0000!
     855                                                      ; call occurs [#_printf] ; |314| 
     856                      .dwpsn  file "../c5535_bsl_revc/ezdsp5535_v1/c55xx_csl/ccs_v4.0_examples/lcd/CSL_LCDC_DmaPolledExampl
     857 0002c0 E672          MOV #0, *SP(#57) ; |320| 
         0002c2 00   
TMS320C55x Assembler PC v4.4.1 Sat Sep 29 23:09:11 2018

Tools Copyright (c) 1996-2012 Texas Instruments Incorporated
csl_lcdc_DmaPolledExample.asm                                        PAGE   20

     858                      .dwpsn  file "../c5535_bsl_revc/ezdsp5535_v1/c55xx_csl/ccs_v4.0_examples/lcd/CSL_LCDC_DmaPolledExampl
     859 0002c3 7640          MOV #16384, AR2 ; |320| 
         0002c5 00A8 
     860 0002c7 A972          MOV *SP(#57), AR1 ; |320| 
     861 0002c9 1298          CMP AR1 >= AR2, TC1 ; |320| 
         0002cb A0   
     862 0002cc 0464          BCC $C$L18,TC1 ; |320| 
         0002ce 1E   
     863                                                      ; branchcc occurs ; |320| 
     864 0002cf       $C$L17:    
     865 0002cf       $C$DW$L$_CSL_lcdcDmaPolledTest$28$B:
     866                      .dwpsn  file "../c5535_bsl_revc/ezdsp5535_v1/c55xx_csl/ccs_v4.0_examples/lcd/CSL_LCDC_DmaPolledExampl
     867 0002cf 2294          MOV AR1, T0 ; |321| 
     868 0002d1 EC31          AMOV #_gLcdBuf, XAR3 ; |321| 
         0002d3 BE00 
         0002d5 0000-
     869 0002d7 E66B          MOV #31, *AR3(T0) ; |321| 
         0002d9 1F   
     870                      .dwpsn  file "../c5535_bsl_revc/ezdsp5535_v1/c55xx_csl/ccs_v4.0_examples/lcd/CSL_LCDC_DmaPolledExampl
     871 0002da A472          MOV *SP(#57), T0 ; |322| 
     872 0002dc 4014          ADD #1, T0 ; |322| 
     873 0002de E66B          MOV #0, *AR3(T0) ; |322| 
         0002e0 00   
     874                      .dwpsn  file "../c5535_bsl_revc/ezdsp5535_v1/c55xx_csl/ccs_v4.0_examples/lcd/CSL_LCDC_DmaPolledExampl
     875 0002e1 F772          ADD #2, *SP(#57) ; |320| 
         0002e3 0002 
     876                      .dwpsn  file "../c5535_bsl_revc/ezdsp5535_v1/c55xx_csl/ccs_v4.0_examples/lcd/CSL_LCDC_DmaPolledExampl
     877 0002e5 A972          MOV *SP(#57), AR1 ; |320| 
     878 0002e7 1294          CMP AR1 < AR2, TC1 ; |320| 
         0002e9 A0   
     879 0002ea 0464          BCC $C$L17,TC1 ; |320| 
         0002ec E2   
     880                                                      ; branchcc occurs ; |320| 
     881 0002ed       $C$DW$L$_CSL_lcdcDmaPolledTest$28$E:
     882 0002ed       $C$L18:    
     883                      .dwpsn  file "../c5535_bsl_revc/ezdsp5535_v1/c55xx_csl/ccs_v4.0_examples/lcd/CSL_LCDC_DmaPolledExampl
     884 0002ed 7600          MOV #92, T0 ; |326| 
         0002ef 5C48 
     885              $C$DW$79        .dwtag  DW_TAG_TI_branch
     886                      .dwattr $C$DW$79, DW_AT_low_pc(0x00)
     887                      .dwattr $C$DW$79, DW_AT_name("_cmdWrite")
     888                      .dwattr $C$DW$79, DW_AT_TI_call
     889              
     890 0002f1 6C00          CALL #_cmdWrite ; |326| 
         0002f3 0000!
     891 0002f5 3D05  ||      MOV #0, T1
     892              
     893                                                      ; call occurs [#_cmdWrite] ; |326| 
     894                      .dwpsn  file "../c5535_bsl_revc/ezdsp5535_v1/c55xx_csl/ccs_v4.0_examples/lcd/CSL_LCDC_DmaPolledExampl
     895 0002f7 EC58          AMAR *SP(#44), XAR1
         0002f9 9E   
     896 0002fa ED31          MOV dbl(*(#_hLcdc)), XAR0
         0002fc 8F00 
         0002fe 0000-
     897              $C$DW$80        .dwtag  DW_TAG_TI_branch
TMS320C55x Assembler PC v4.4.1 Sat Sep 29 23:09:11 2018

Tools Copyright (c) 1996-2012 Texas Instruments Incorporated
csl_lcdc_DmaPolledExample.asm                                        PAGE   21

     898                      .dwattr $C$DW$80, DW_AT_low_pc(0x00)
     899                      .dwattr $C$DW$80, DW_AT_name("_LCD_configDMA")
     900                      .dwattr $C$DW$80, DW_AT_TI_call
     901 000300 6C00          CALL #_LCD_configDMA ; |329| 
         000302 0000!
     902                                                      ; call occurs [#_LCD_configDMA] ; |329| 
     903 000304 C404          MOV T0, *SP(#2) ; |329| 
     904                      .dwpsn  file "../c5535_bsl_revc/ezdsp5535_v1/c55xx_csl/ccs_v4.0_examples/lcd/CSL_LCDC_DmaPolledExampl
     905 000306 2249          MOV T0, AR1
     906 000308 0409          BCC $C$L19,AR1 == #0 ; |330| 
         00030a 12   
     907                                                      ; branchcc occurs ; |330| 
     908                      .dwpsn  file "../c5535_bsl_revc/ezdsp5535_v1/c55xx_csl/ccs_v4.0_examples/lcd/CSL_LCDC_DmaPolledExampl
     909 00030b EC31          AMOV #$C$FSL12, XAR3 ; |332| 
         00030d BE00 
         00030f 0106+
     910 000311 EB00          MOV XAR3, dbl(*SP(#0))
         000313 B5   
     911              $C$DW$81        .dwtag  DW_TAG_TI_branch
     912                      .dwattr $C$DW$81, DW_AT_low_pc(0x00)
     913                      .dwattr $C$DW$81, DW_AT_name("_printf")
     914                      .dwattr $C$DW$81, DW_AT_TI_call
     915 000314 6C00          CALL #_printf ; |332| 
         000316 0000!
     916                                                      ; call occurs [#_printf] ; |332| 
     917                      .dwpsn  file "../c5535_bsl_revc/ezdsp5535_v1/c55xx_csl/ccs_v4.0_examples/lcd/CSL_LCDC_DmaPolledExampl
     918 000318 A404          MOV *SP(#2), T0 ; |333| 
     919 00031a 0600          B $C$L21  ; |333| 
         00031c 4B   
     920                                                      ; branch occurs ; |333| 
     921 00031d       $C$L19:    
     922                      .dwpsn  file "../c5535_bsl_revc/ezdsp5535_v1/c55xx_csl/ccs_v4.0_examples/lcd/CSL_LCDC_DmaPolledExampl
     923 00031d EC31          AMOV #$C$FSL13, XAR3 ; |337| 
         00031f BE00 
         000321 011C+
     924 000323 EB00          MOV XAR3, dbl(*SP(#0))
         000325 B5   
     925              $C$DW$82        .dwtag  DW_TAG_TI_branch
     926                      .dwattr $C$DW$82, DW_AT_low_pc(0x00)
     927                      .dwattr $C$DW$82, DW_AT_name("_printf")
     928                      .dwattr $C$DW$82, DW_AT_TI_call
     929 000326 6C00          CALL #_printf ; |337| 
         000328 0000!
     930                                                      ; call occurs [#_printf] ; |337| 
     931                      .dwpsn  file "../c5535_bsl_revc/ezdsp5535_v1/c55xx_csl/ccs_v4.0_examples/lcd/CSL_LCDC_DmaPolledExampl
     932 00032a ED31          MOV dbl(*(#_hLcdc)), XAR0
         00032c 8F00 
         00032e 0000-
     933              $C$DW$83        .dwtag  DW_TAG_TI_branch
     934                      .dwattr $C$DW$83, DW_AT_low_pc(0x00)
     935                      .dwattr $C$DW$83, DW_AT_name("_CSL_lcdcEnableLiddDMA")
     936                      .dwattr $C$DW$83, DW_AT_TI_call
     937 000330 08FC          CALL #_CSL_lcdcEnableLiddDMA ; |341| 
         000332 CD   
     938                                                      ; call occurs [#_CSL_lcdcEnableLiddDMA] ; |341| 
TMS320C55x Assembler PC v4.4.1 Sat Sep 29 23:09:11 2018

Tools Copyright (c) 1996-2012 Texas Instruments Incorporated
csl_lcdc_DmaPolledExample.asm                                        PAGE   22

     939                      .dwpsn  file "../c5535_bsl_revc/ezdsp5535_v1/c55xx_csl/ccs_v4.0_examples/lcd/CSL_LCDC_DmaPolledExampl
     940              $C$DW$84        .dwtag  DW_TAG_TI_branch
     941                      .dwattr $C$DW$84, DW_AT_low_pc(0x00)
     942                      .dwattr $C$DW$84, DW_AT_name("_lcd_DMAWait")
     943                      .dwattr $C$DW$84, DW_AT_TI_call
     944 000333 6C00          CALL #_lcd_DMAWait ; |343| 
         000335 0000!
     945                                                      ; call occurs [#_lcd_DMAWait] ; |343| 
     946                      .dwpsn  file "../c5535_bsl_revc/ezdsp5535_v1/c55xx_csl/ccs_v4.0_examples/lcd/CSL_LCDC_DmaPolledExampl
     947 000337 ED31          MOV dbl(*(#_hLcdc)), XAR0
         000339 8F00 
         00033b 0000-
     948              $C$DW$85        .dwtag  DW_TAG_TI_branch
     949                      .dwattr $C$DW$85, DW_AT_low_pc(0x00)
     950                      .dwattr $C$DW$85, DW_AT_name("_LCD_close")
     951                      .dwattr $C$DW$85, DW_AT_TI_call
     952 00033d 6C00          CALL #_LCD_close ; |345| 
         00033f 0000!
     953                                                      ; call occurs [#_LCD_close] ; |345| 
     954 000341 C404          MOV T0, *SP(#2) ; |345| 
     955                      .dwpsn  file "../c5535_bsl_revc/ezdsp5535_v1/c55xx_csl/ccs_v4.0_examples/lcd/CSL_LCDC_DmaPolledExampl
     956 000343 2249          MOV T0, AR1
     957 000345 0409          BCC $C$L20,AR1 == #0 ; |346| 
         000347 11   
     958                                                      ; branchcc occurs ; |346| 
     959                      .dwpsn  file "../c5535_bsl_revc/ezdsp5535_v1/c55xx_csl/ccs_v4.0_examples/lcd/CSL_LCDC_DmaPolledExampl
     960 000348 EC31          AMOV #$C$FSL14, XAR3 ; |348| 
         00034a BE00 
         00034c 0136+
     961 00034e EB00          MOV XAR3, dbl(*SP(#0))
         000350 B5   
     962              $C$DW$86        .dwtag  DW_TAG_TI_branch
     963                      .dwattr $C$DW$86, DW_AT_low_pc(0x00)
     964                      .dwattr $C$DW$86, DW_AT_name("_printf")
     965                      .dwattr $C$DW$86, DW_AT_TI_call
     966 000351 6C00          CALL #_printf ; |348| 
         000353 0000!
     967                                                      ; call occurs [#_printf] ; |348| 
     968                      .dwpsn  file "../c5535_bsl_revc/ezdsp5535_v1/c55xx_csl/ccs_v4.0_examples/lcd/CSL_LCDC_DmaPolledExampl
     969 000355 A404          MOV *SP(#2), T0 ; |349| 
     970 000357 4A0F          B $C$L21  ; |349| 
     971                                                      ; branch occurs ; |349| 
     972 000359       $C$L20:    
     973                      .dwpsn  file "../c5535_bsl_revc/ezdsp5535_v1/c55xx_csl/ccs_v4.0_examples/lcd/CSL_LCDC_DmaPolledExampl
     974 000359 EC31          AMOV #$C$FSL15, XAR3 ; |353| 
         00035b BE00 
         00035d 0148+
     975 00035f EB00          MOV XAR3, dbl(*SP(#0))
         000361 B5   
     976              $C$DW$87        .dwtag  DW_TAG_TI_branch
     977                      .dwattr $C$DW$87, DW_AT_low_pc(0x00)
     978                      .dwattr $C$DW$87, DW_AT_name("_printf")
     979                      .dwattr $C$DW$87, DW_AT_TI_call
     980 000362 6C00          CALL #_printf ; |353| 
         000364 0000!
TMS320C55x Assembler PC v4.4.1 Sat Sep 29 23:09:11 2018

Tools Copyright (c) 1996-2012 Texas Instruments Incorporated
csl_lcdc_DmaPolledExample.asm                                        PAGE   23

     981                                                      ; call occurs [#_printf] ; |353| 
     982                      .dwpsn  file "../c5535_bsl_revc/ezdsp5535_v1/c55xx_csl/ccs_v4.0_examples/lcd/CSL_LCDC_DmaPolledExampl
     983 000366 3C04          MOV #0, T0
     984 000368       $C$L21:    
     985                      .dwpsn  file "../c5535_bsl_revc/ezdsp5535_v1/c55xx_csl/ccs_v4.0_examples/lcd/CSL_LCDC_DmaPolledExampl
     986 000368 4E3B          AADD #59, SP
     987                      .dwcfi  cfa_offset, 1
     988              $C$DW$88        .dwtag  DW_TAG_TI_branch
     989                      .dwattr $C$DW$88, DW_AT_low_pc(0x00)
     990                      .dwattr $C$DW$88, DW_AT_TI_return
     991 00036a 4804          RET
     992                                                      ; return occurs
     993              
     994              $C$DW$89        .dwtag  DW_TAG_TI_loop
     995                      .dwattr $C$DW$89, DW_AT_name("F:\eZdsp_DBG\tmp1\c55x-sim2\foo\Debug\csl_lcdc_DmaPolledExample.asm:$C$
     996                      .dwattr $C$DW$89, DW_AT_TI_begin_file("../c5535_bsl_revc/ezdsp5535_v1/c55xx_csl/ccs_v4.0_examples/lcd
     997                      .dwattr $C$DW$89, DW_AT_TI_begin_line(0x140)
     998                      .dwattr $C$DW$89, DW_AT_TI_end_line(0x143)
     999              $C$DW$90        .dwtag  DW_TAG_TI_loop_range
    1000                      .dwattr $C$DW$90, DW_AT_low_pc($C$DW$L$_CSL_lcdcDmaPolledTest$28$B)
    1001                      .dwattr $C$DW$90, DW_AT_high_pc($C$DW$L$_CSL_lcdcDmaPolledTest$28$E)
    1002                      .dwendtag $C$DW$89
    1003              
    1004              
    1005              $C$DW$91        .dwtag  DW_TAG_TI_loop
    1006                      .dwattr $C$DW$91, DW_AT_name("F:\eZdsp_DBG\tmp1\c55x-sim2\foo\Debug\csl_lcdc_DmaPolledExample.asm:$C$
    1007                      .dwattr $C$DW$91, DW_AT_TI_begin_file("../c5535_bsl_revc/ezdsp5535_v1/c55xx_csl/ccs_v4.0_examples/lcd
    1008                      .dwattr $C$DW$91, DW_AT_TI_begin_line(0x118)
    1009                      .dwattr $C$DW$91, DW_AT_TI_end_line(0x11b)
    1010              $C$DW$92        .dwtag  DW_TAG_TI_loop_range
    1011                      .dwattr $C$DW$92, DW_AT_low_pc($C$DW$L$_CSL_lcdcDmaPolledTest$20$B)
    1012                      .dwattr $C$DW$92, DW_AT_high_pc($C$DW$L$_CSL_lcdcDmaPolledTest$20$E)
    1013                      .dwendtag $C$DW$91
    1014              
    1015              
    1016              $C$DW$93        .dwtag  DW_TAG_TI_loop
    1017                      .dwattr $C$DW$93, DW_AT_name("F:\eZdsp_DBG\tmp1\c55x-sim2\foo\Debug\csl_lcdc_DmaPolledExample.asm:$C$
    1018                      .dwattr $C$DW$93, DW_AT_TI_begin_file("../c5535_bsl_revc/ezdsp5535_v1/c55xx_csl/ccs_v4.0_examples/lcd
    1019                      .dwattr $C$DW$93, DW_AT_TI_begin_line(0x107)
    1020                      .dwattr $C$DW$93, DW_AT_TI_end_line(0x107)
    1021              $C$DW$94        .dwtag  DW_TAG_TI_loop_range
    1022                      .dwattr $C$DW$94, DW_AT_low_pc($C$DW$L$_CSL_lcdcDmaPolledTest$15$B)
    1023                      .dwattr $C$DW$94, DW_AT_high_pc($C$DW$L$_CSL_lcdcDmaPolledTest$15$E)
    1024                      .dwendtag $C$DW$93
    1025              
    1026              
    1027              $C$DW$95        .dwtag  DW_TAG_TI_loop
    1028                      .dwattr $C$DW$95, DW_AT_name("F:\eZdsp_DBG\tmp1\c55x-sim2\foo\Debug\csl_lcdc_DmaPolledExample.asm:$C$
    1029                      .dwattr $C$DW$95, DW_AT_TI_begin_file("../c5535_bsl_revc/ezdsp5535_v1/c55xx_csl/ccs_v4.0_examples/lcd
    1030                      .dwattr $C$DW$95, DW_AT_TI_begin_line(0xcb)
    1031                      .dwattr $C$DW$95, DW_AT_TI_end_line(0xcb)
    1032              $C$DW$96        .dwtag  DW_TAG_TI_loop_range
    1033                      .dwattr $C$DW$96, DW_AT_low_pc($C$DW$L$_CSL_lcdcDmaPolledTest$4$B)
    1034                      .dwattr $C$DW$96, DW_AT_high_pc($C$DW$L$_CSL_lcdcDmaPolledTest$4$E)
    1035                      .dwendtag $C$DW$95
TMS320C55x Assembler PC v4.4.1 Sat Sep 29 23:09:11 2018

Tools Copyright (c) 1996-2012 Texas Instruments Incorporated
csl_lcdc_DmaPolledExample.asm                                        PAGE   24

    1036              
    1037              
    1038              $C$DW$97        .dwtag  DW_TAG_TI_loop
    1039                      .dwattr $C$DW$97, DW_AT_name("F:\eZdsp_DBG\tmp1\c55x-sim2\foo\Debug\csl_lcdc_DmaPolledExample.asm:$C$
    1040                      .dwattr $C$DW$97, DW_AT_TI_begin_file("../c5535_bsl_revc/ezdsp5535_v1/c55xx_csl/ccs_v4.0_examples/lcd
    1041                      .dwattr $C$DW$97, DW_AT_TI_begin_line(0xc7)
    1042                      .dwattr $C$DW$97, DW_AT_TI_end_line(0xc7)
    1043              $C$DW$98        .dwtag  DW_TAG_TI_loop_range
    1044                      .dwattr $C$DW$98, DW_AT_low_pc($C$DW$L$_CSL_lcdcDmaPolledTest$2$B)
    1045                      .dwattr $C$DW$98, DW_AT_high_pc($C$DW$L$_CSL_lcdcDmaPolledTest$2$E)
    1046                      .dwendtag $C$DW$97
    1047              
    1048                      .dwattr $C$DW$47, DW_AT_TI_end_file("../c5535_bsl_revc/ezdsp5535_v1/c55xx_csl/ccs_v4.0_examples/lcd/C
    1049                      .dwattr $C$DW$47, DW_AT_TI_end_line(0x165)
    1050                      .dwattr $C$DW$47, DW_AT_TI_end_column(0x01)
    1051                      .dwendentry
    1052                      .dwendtag $C$DW$47
    1053              
    1054              ;*******************************************************************************
    1055              ;* FAR STRINGS                                                                 *
    1056              ;*******************************************************************************
    1057 000000               .sect   ".const:.string"
    1058                      .align  2
    1059 000000 0043  $C$FSL1:        .string "CSL LCD DMA MODE TESTS!",10,10,0
         000001 0053 
         000002 004C 
         000003 0020 
         000004 004C 
         000005 0043 
         000006 0044 
         000007 0020 
         000008 0044 
         000009 004D 
         00000a 0041 
         00000b 0020 
         00000c 004D 
         00000d 004F 
         00000e 0044 
         00000f 0045 
         000010 0020 
         000011 0054 
         000012 0045 
         000013 0053 
         000014 0054 
         000015 0053 
         000016 0021 
         000017 000A 
         000018 000A 
         000019 0000 
    1060                      .align  2
    1061 00001a 000A  $C$FSL2:        .string 10,"CSL LCD DMA MODE TESTS COMPLETED!!",10,0
         00001b 0043 
         00001c 0053 
         00001d 004C 
         00001e 0020 
TMS320C55x Assembler PC v4.4.1 Sat Sep 29 23:09:11 2018

Tools Copyright (c) 1996-2012 Texas Instruments Incorporated
csl_lcdc_DmaPolledExample.asm                                        PAGE   25

         00001f 004C 
         000020 0043 
         000021 0044 
         000022 0020 
         000023 0044 
         000024 004D 
         000025 0041 
         000026 0020 
         000027 004D 
         000028 004F 
         000029 0044 
         00002a 0045 
         00002b 0020 
         00002c 0054 
         00002d 0045 
         00002e 0053 
         00002f 0054 
         000030 0053 
         000031 0020 
         000032 0043 
         000033 004F 
         000034 004D 
         000035 0050 
         000036 004C 
         000037 0045 
         000038 0054 
         000039 0045 
         00003a 0044 
         00003b 0021 
         00003c 0021 
         00003d 000A 
         00003e 0000 
    1062                      .align  2
    1063 000040 000A  $C$FSL3:        .string 10,"CSL LCD DMA MODE TESTS FAILED!!",10,0
         000041 0043 
         000042 0053 
         000043 004C 
         000044 0020 
         000045 004C 
         000046 0043 
         000047 0044 
         000048 0020 
         000049 0044 
         00004a 004D 
         00004b 0041 
         00004c 0020 
         00004d 004D 
         00004e 004F 
         00004f 0044 
         000050 0045 
         000051 0020 
         000052 0054 
         000053 0045 
         000054 0053 
         000055 0054 
TMS320C55x Assembler PC v4.4.1 Sat Sep 29 23:09:11 2018

Tools Copyright (c) 1996-2012 Texas Instruments Incorporated
csl_lcdc_DmaPolledExample.asm                                        PAGE   26

         000056 0053 
         000057 0020 
         000058 0046 
         000059 0041 
         00005a 0049 
         00005b 004C 
         00005c 0045 
         00005d 0044 
         00005e 0021 
         00005f 0021 
         000060 000A 
         000061 0000 
    1064                      .align  2
    1065 000062 004C  $C$FSL4:        .string "LCD_init Failed",10,0
         000063 0043 
         000064 0044 
         000065 005F 
         000066 0069 
         000067 006E 
         000068 0069 
         000069 0074 
         00006a 0020 
         00006b 0046 
         00006c 0061 
         00006d 0069 
         00006e 006C 
         00006f 0065 
         000070 0064 
         000071 000A 
         000072 0000 
    1066                      .align  2
    1067 000074 004C  $C$FSL5:        .string "LCD_init Successful",10,0
         000075 0043 
         000076 0044 
         000077 005F 
         000078 0069 
         000079 006E 
         00007a 0069 
         00007b 0074 
         00007c 0020 
         00007d 0053 
         00007e 0075 
         00007f 0063 
         000080 0063 
         000081 0065 
         000082 0073 
         000083 0073 
         000084 0066 
         000085 0075 
         000086 006C 
         000087 000A 
         000088 0000 
    1068                      .align  2
    1069 00008a 004C  $C$FSL6:        .string "LCD_open Failed",10,0
         00008b 0043 
TMS320C55x Assembler PC v4.4.1 Sat Sep 29 23:09:11 2018

Tools Copyright (c) 1996-2012 Texas Instruments Incorporated
csl_lcdc_DmaPolledExample.asm                                        PAGE   27

         00008c 0044 
         00008d 005F 
         00008e 006F 
         00008f 0070 
         000090 0065 
         000091 006E 
         000092 0020 
         000093 0046 
         000094 0061 
         000095 0069 
         000096 006C 
         000097 0065 
         000098 0064 
         000099 000A 
         00009a 0000 
    1070                      .align  2
    1071 00009c 004C  $C$FSL7:        .string "LCD_open Successful",10,0
         00009d 0043 
         00009e 0044 
         00009f 005F 
         0000a0 006F 
         0000a1 0070 
         0000a2 0065 
         0000a3 006E 
         0000a4 0020 
         0000a5 0053 
         0000a6 0075 
         0000a7 0063 
         0000a8 0063 
         0000a9 0065 
         0000aa 0073 
         0000ab 0073 
         0000ac 0066 
         0000ad 0075 
         0000ae 006C 
         0000af 000A 
         0000b0 0000 
    1072                      .align  2
    1073 0000b2 004C  $C$FSL8:        .string "LCD_setup Failed",10,0
         0000b3 0043 
         0000b4 0044 
         0000b5 005F 
         0000b6 0073 
         0000b7 0065 
         0000b8 0074 
         0000b9 0075 
         0000ba 0070 
         0000bb 0020 
         0000bc 0046 
         0000bd 0061 
         0000be 0069 
         0000bf 006C 
         0000c0 0065 
         0000c1 0064 
         0000c2 000A 
TMS320C55x Assembler PC v4.4.1 Sat Sep 29 23:09:11 2018

Tools Copyright (c) 1996-2012 Texas Instruments Incorporated
csl_lcdc_DmaPolledExample.asm                                        PAGE   28

         0000c3 0000 
    1074                      .align  2
    1075 0000c4 004C  $C$FSL9:        .string "LCD_setup Successful",10,0
         0000c5 0043 
         0000c6 0044 
         0000c7 005F 
         0000c8 0073 
         0000c9 0065 
         0000ca 0074 
         0000cb 0075 
         0000cc 0070 
         0000cd 0020 
         0000ce 0053 
         0000cf 0075 
         0000d0 0063 
         0000d1 0063 
         0000d2 0065 
         0000d3 0073 
         0000d4 0073 
         0000d5 0066 
         0000d6 0075 
         0000d7 006C 
         0000d8 000A 
         0000d9 0000 
    1076                      .align  2
    1077 0000da 0077  $C$FSL10:       .string "windowSetup Failed",10,0
         0000db 0069 
         0000dc 006E 
         0000dd 0064 
         0000de 006F 
         0000df 0077 
         0000e0 0053 
         0000e1 0065 
         0000e2 0074 
         0000e3 0075 
         0000e4 0070 
         0000e5 0020 
         0000e6 0046 
         0000e7 0061 
         0000e8 0069 
         0000e9 006C 
         0000ea 0065 
         0000eb 0064 
         0000ec 000A 
         0000ed 0000 
    1078                      .align  2
    1079 0000ee 0077  $C$FSL11:       .string "windowSetup Successful",10,0
         0000ef 0069 
         0000f0 006E 
         0000f1 0064 
         0000f2 006F 
         0000f3 0077 
         0000f4 0053 
         0000f5 0065 
         0000f6 0074 
TMS320C55x Assembler PC v4.4.1 Sat Sep 29 23:09:11 2018

Tools Copyright (c) 1996-2012 Texas Instruments Incorporated
csl_lcdc_DmaPolledExample.asm                                        PAGE   29

         0000f7 0075 
         0000f8 0070 
         0000f9 0020 
         0000fa 0053 
         0000fb 0075 
         0000fc 0063 
         0000fd 0063 
         0000fe 0065 
         0000ff 0073 
         000100 0073 
         000101 0066 
         000102 0075 
         000103 006C 
         000104 000A 
         000105 0000 
    1080                      .align  2
    1081 000106 004C  $C$FSL12:       .string "LCD_configDMA Failed",10,0
         000107 0043 
         000108 0044 
         000109 005F 
         00010a 0063 
         00010b 006F 
         00010c 006E 
         00010d 0066 
         00010e 0069 
         00010f 0067 
         000110 0044 
         000111 004D 
         000112 0041 
         000113 0020 
         000114 0046 
         000115 0061 
         000116 0069 
         000117 006C 
         000118 0065 
         000119 0064 
         00011a 000A 
         00011b 0000 
    1082                      .align  2
    1083 00011c 004C  $C$FSL13:       .string "LCD_configDMA Successful",10,0
         00011d 0043 
         00011e 0044 
         00011f 005F 
         000120 0063 
         000121 006F 
         000122 006E 
         000123 0066 
         000124 0069 
         000125 0067 
         000126 0044 
         000127 004D 
         000128 0041 
         000129 0020 
         00012a 0053 
         00012b 0075 
TMS320C55x Assembler PC v4.4.1 Sat Sep 29 23:09:11 2018

Tools Copyright (c) 1996-2012 Texas Instruments Incorporated
csl_lcdc_DmaPolledExample.asm                                        PAGE   30

         00012c 0063 
         00012d 0063 
         00012e 0065 
         00012f 0073 
         000130 0073 
         000131 0066 
         000132 0075 
         000133 006C 
         000134 000A 
         000135 0000 
    1084                      .align  2
    1085 000136 004C  $C$FSL14:       .string "LCD_close Failed",10,0
         000137 0043 
         000138 0044 
         000139 005F 
         00013a 0063 
         00013b 006C 
         00013c 006F 
         00013d 0073 
         00013e 0065 
         00013f 0020 
         000140 0046 
         000141 0061 
         000142 0069 
         000143 006C 
         000144 0065 
         000145 0064 
         000146 000A 
         000147 0000 
    1086                      .align  2
    1087 000148 004C  $C$FSL15:       .string "LCD_close Successful",10,0
         000149 0043 
         00014a 0044 
         00014b 005F 
         00014c 0063 
         00014d 006C 
         00014e 006F 
         00014f 0073 
         000150 0065 
         000151 0020 
         000152 0053 
         000153 0075 
         000154 0063 
         000155 0063 
         000156 0065 
         000157 0073 
         000158 0073 
         000159 0066 
         00015a 0075 
         00015b 006C 
         00015c 000A 
         00015d 0000 
    1088              ;******************************************************************************
    1089              ;* UNDEFINED EXTERNAL REFERENCES                                              *
    1090              ;******************************************************************************
TMS320C55x Assembler PC v4.4.1 Sat Sep 29 23:09:11 2018

Tools Copyright (c) 1996-2012 Texas Instruments Incorporated
csl_lcdc_DmaPolledExample.asm                                        PAGE   31

    1091                      .global _printf
    1092                      .global _LCD_init
    1093                      .global _LCD_open
    1094                      .global _LCD_setup
    1095                      .global _LCD_configDMA
    1096                      .global _LCD_close
    1097                      .global _cmdWrite
    1098                      .global _windowSetup
    1099                      .global _lcd_DMAWait
    1100                      .global _panelSetup
    1101                      .global _draw_65K_colorbar
    1102              
    1103              ;*******************************************************************************
    1104              ;* TYPE INFORMATION                                                            *
    1105              ;*******************************************************************************
    1106              
    1107              $C$DW$T$25      .dwtag  DW_TAG_enumeration_type
    1108                      .dwattr $C$DW$T$25, DW_AT_byte_size(0x01)
    1109              $C$DW$99        .dwtag  DW_TAG_enumerator, DW_AT_name("CSL_LCDC_LIDD_FDONE_DISABLE"), DW_AT_const_value(0x00)
    1110              $C$DW$100       .dwtag  DW_TAG_enumerator, DW_AT_name("CSL_LCDC_LIDD_FDONE_ENABLE"), DW_AT_const_value(0x01)
    1111                      .dwendtag $C$DW$T$25
    1112              
    1113              $C$DW$T$26      .dwtag  DW_TAG_typedef, DW_AT_name("CSL_LcdcFdoneCtl")
    1114                      .dwattr $C$DW$T$26, DW_AT_type(*$C$DW$T$25)
    1115                      .dwattr $C$DW$T$26, DW_AT_language(DW_LANG_C)
    1116              
    1117              $C$DW$T$27      .dwtag  DW_TAG_enumeration_type
    1118                      .dwattr $C$DW$T$27, DW_AT_byte_size(0x01)
    1119              $C$DW$101       .dwtag  DW_TAG_enumerator, DW_AT_name("CSL_LCDC_LIDD_CS0"), DW_AT_const_value(0x00)
    1120              $C$DW$102       .dwtag  DW_TAG_enumerator, DW_AT_name("CSL_LCDC_LIDD_CS1"), DW_AT_const_value(0x01)
    1121                      .dwendtag $C$DW$T$27
    1122              
    1123              $C$DW$T$28      .dwtag  DW_TAG_typedef, DW_AT_name("CSL_LcdcChipSelect")
    1124                      .dwattr $C$DW$T$28, DW_AT_type(*$C$DW$T$27)
    1125                      .dwattr $C$DW$T$28, DW_AT_language(DW_LANG_C)
    1126              
    1127              $C$DW$T$29      .dwtag  DW_TAG_enumeration_type
    1128                      .dwattr $C$DW$T$29, DW_AT_byte_size(0x01)
    1129              $C$DW$103       .dwtag  DW_TAG_enumerator, DW_AT_name("CSL_LCDC_LIDD_DMA_DISABLE"), DW_AT_const_value(0x00)
    1130              $C$DW$104       .dwtag  DW_TAG_enumerator, DW_AT_name("CSL_LCDC_LIDD_DMA_ENABLE"), DW_AT_const_value(0x01)
    1131                      .dwendtag $C$DW$T$29
    1132              
    1133              $C$DW$T$30      .dwtag  DW_TAG_typedef, DW_AT_name("CSL_LcdcDmaCtl")
    1134                      .dwattr $C$DW$T$30, DW_AT_type(*$C$DW$T$29)
    1135                      .dwattr $C$DW$T$30, DW_AT_language(DW_LANG_C)
    1136              
    1137              $C$DW$T$32      .dwtag  DW_TAG_enumeration_type
    1138                      .dwattr $C$DW$T$32, DW_AT_byte_size(0x01)
    1139              $C$DW$105       .dwtag  DW_TAG_enumerator, DW_AT_name("CSL_LCDC_LIDD_SYNC_MPU68"), DW_AT_const_value(0x00)
    1140              $C$DW$106       .dwtag  DW_TAG_enumerator, DW_AT_name("CSL_LCDC_LIDD_ASYNC_MPU68"), DW_AT_const_value(0x01)
    1141              $C$DW$107       .dwtag  DW_TAG_enumerator, DW_AT_name("CSL_LCDC_LIDD_SYNC_MPU80"), DW_AT_const_value(0x02)
    1142              $C$DW$108       .dwtag  DW_TAG_enumerator, DW_AT_name("CSL_LCDC_LIDD_ASYNC_MPU80"), DW_AT_const_value(0x03)
    1143              $C$DW$109       .dwtag  DW_TAG_enumerator, DW_AT_name("CSL_LCDC_LIDD_ASYNC_HITACHI"), DW_AT_const_value(0x04)
    1144                      .dwendtag $C$DW$T$32
    1145              
TMS320C55x Assembler PC v4.4.1 Sat Sep 29 23:09:11 2018

Tools Copyright (c) 1996-2012 Texas Instruments Incorporated
csl_lcdc_DmaPolledExample.asm                                        PAGE   32

    1146              $C$DW$T$33      .dwtag  DW_TAG_typedef, DW_AT_name("CSL_LcdcLiddMode")
    1147                      .dwattr $C$DW$T$33, DW_AT_type(*$C$DW$T$32)
    1148                      .dwattr $C$DW$T$33, DW_AT_language(DW_LANG_C)
    1149              
    1150              $C$DW$T$38      .dwtag  DW_TAG_enumeration_type
    1151                      .dwattr $C$DW$T$38, DW_AT_byte_size(0x01)
    1152              $C$DW$110       .dwtag  DW_TAG_enumerator, DW_AT_name("CSL_LCDC_LIDD_NOT_USE_CS1"), DW_AT_const_value(0x00)
    1153              $C$DW$111       .dwtag  DW_TAG_enumerator, DW_AT_name("CSL_LCDC_LIDD_USE_CS1"), DW_AT_const_value(0x01)
    1154                      .dwendtag $C$DW$T$38
    1155              
    1156              $C$DW$T$39      .dwtag  DW_TAG_typedef, DW_AT_name("CSL_LcdcCs1Status")
    1157                      .dwattr $C$DW$T$39, DW_AT_type(*$C$DW$T$38)
    1158                      .dwattr $C$DW$T$39, DW_AT_language(DW_LANG_C)
    1159              
    1160              $C$DW$T$41      .dwtag  DW_TAG_enumeration_type
    1161                      .dwattr $C$DW$T$41, DW_AT_byte_size(0x01)
    1162              $C$DW$112       .dwtag  DW_TAG_enumerator, DW_AT_name("CSL_LCDC_DMA_BURST1"), DW_AT_const_value(0x00)
    1163              $C$DW$113       .dwtag  DW_TAG_enumerator, DW_AT_name("CSL_LCDC_DMA_BURST2"), DW_AT_const_value(0x01)
    1164              $C$DW$114       .dwtag  DW_TAG_enumerator, DW_AT_name("CSL_LCDC_DMA_BURST4"), DW_AT_const_value(0x02)
    1165              $C$DW$115       .dwtag  DW_TAG_enumerator, DW_AT_name("CSL_LCDC_DMA_BURST8"), DW_AT_const_value(0x03)
    1166              $C$DW$116       .dwtag  DW_TAG_enumerator, DW_AT_name("CSL_LCDC_DMA_BURST16"), DW_AT_const_value(0x04)
    1167                      .dwendtag $C$DW$T$41
    1168              
    1169              $C$DW$T$42      .dwtag  DW_TAG_typedef, DW_AT_name("CSL_LcdcDmaBurst")
    1170                      .dwattr $C$DW$T$42, DW_AT_type(*$C$DW$T$41)
    1171                      .dwattr $C$DW$T$42, DW_AT_language(DW_LANG_C)
    1172              
    1173              $C$DW$T$43      .dwtag  DW_TAG_enumeration_type
    1174                      .dwattr $C$DW$T$43, DW_AT_byte_size(0x01)
    1175              $C$DW$117       .dwtag  DW_TAG_enumerator, DW_AT_name("CSL_LCDC_EOFINT_DISABLE"), DW_AT_const_value(0x00)
    1176              $C$DW$118       .dwtag  DW_TAG_enumerator, DW_AT_name("CSL_LCDC_EOFINT_ENABLE"), DW_AT_const_value(0x01)
    1177                      .dwendtag $C$DW$T$43
    1178              
    1179              $C$DW$T$44      .dwtag  DW_TAG_typedef, DW_AT_name("CSL_LcdcEofIntCtl")
    1180                      .dwattr $C$DW$T$44, DW_AT_type(*$C$DW$T$43)
    1181                      .dwattr $C$DW$T$44, DW_AT_language(DW_LANG_C)
    1182              
    1183              $C$DW$T$45      .dwtag  DW_TAG_enumeration_type
    1184                      .dwattr $C$DW$T$45, DW_AT_byte_size(0x01)
    1185              $C$DW$119       .dwtag  DW_TAG_enumerator, DW_AT_name("CSL_LCDC_ENDIANESS_LITTLE"), DW_AT_const_value(0x00)
    1186              $C$DW$120       .dwtag  DW_TAG_enumerator, DW_AT_name("CSL_LCDC_ENDIANESS_BIG"), DW_AT_const_value(0x01)
    1187                      .dwendtag $C$DW$T$45
    1188              
    1189              $C$DW$T$46      .dwtag  DW_TAG_typedef, DW_AT_name("CSL_LcdcEndianess")
    1190                      .dwattr $C$DW$T$46, DW_AT_type(*$C$DW$T$45)
    1191                      .dwattr $C$DW$T$46, DW_AT_language(DW_LANG_C)
    1192              
    1193              $C$DW$T$47      .dwtag  DW_TAG_enumeration_type
    1194                      .dwattr $C$DW$T$47, DW_AT_byte_size(0x01)
    1195              $C$DW$121       .dwtag  DW_TAG_enumerator, DW_AT_name("CSL_LCDC_FBMODE_SINGLE"), DW_AT_const_value(0x00)
    1196              $C$DW$122       .dwtag  DW_TAG_enumerator, DW_AT_name("CSL_LCDC_FBMODE_DOUBLE"), DW_AT_const_value(0x01)
    1197                      .dwendtag $C$DW$T$47
    1198              
    1199              $C$DW$T$48      .dwtag  DW_TAG_typedef, DW_AT_name("CSL_LcdcFrameMode")
    1200                      .dwattr $C$DW$T$48, DW_AT_type(*$C$DW$T$47)
TMS320C55x Assembler PC v4.4.1 Sat Sep 29 23:09:11 2018

Tools Copyright (c) 1996-2012 Texas Instruments Incorporated
csl_lcdc_DmaPolledExample.asm                                        PAGE   33

    1201                      .dwattr $C$DW$T$48, DW_AT_language(DW_LANG_C)
    1202              
    1203              $C$DW$T$24      .dwtag  DW_TAG_structure_type
    1204                      .dwattr $C$DW$T$24, DW_AT_byte_size(0x52)
    1205              $C$DW$123       .dwtag  DW_TAG_member
    1206                      .dwattr $C$DW$123, DW_AT_type(*$C$DW$T$20)
    1207                      .dwattr $C$DW$123, DW_AT_name("LCDREVMIN")
    1208                      .dwattr $C$DW$123, DW_AT_TI_symbol_name("_LCDREVMIN")
    1209                      .dwattr $C$DW$123, DW_AT_data_member_location[DW_OP_plus_uconst 0x0]
    1210                      .dwattr $C$DW$123, DW_AT_accessibility(DW_ACCESS_public)
    1211              $C$DW$124       .dwtag  DW_TAG_member
    1212                      .dwattr $C$DW$124, DW_AT_type(*$C$DW$T$20)
    1213                      .dwattr $C$DW$124, DW_AT_name("LCDREVMAJ")
    1214                      .dwattr $C$DW$124, DW_AT_TI_symbol_name("_LCDREVMAJ")
    1215                      .dwattr $C$DW$124, DW_AT_data_member_location[DW_OP_plus_uconst 0x1]
    1216                      .dwattr $C$DW$124, DW_AT_accessibility(DW_ACCESS_public)
    1217              $C$DW$125       .dwtag  DW_TAG_member
    1218                      .dwattr $C$DW$125, DW_AT_type(*$C$DW$T$21)
    1219                      .dwattr $C$DW$125, DW_AT_name("RSVD0")
    1220                      .dwattr $C$DW$125, DW_AT_TI_symbol_name("_RSVD0")
    1221                      .dwattr $C$DW$125, DW_AT_data_member_location[DW_OP_plus_uconst 0x2]
    1222                      .dwattr $C$DW$125, DW_AT_accessibility(DW_ACCESS_public)
    1223              $C$DW$126       .dwtag  DW_TAG_member
    1224                      .dwattr $C$DW$126, DW_AT_type(*$C$DW$T$20)
    1225                      .dwattr $C$DW$126, DW_AT_name("LCDCR")
    1226                      .dwattr $C$DW$126, DW_AT_TI_symbol_name("_LCDCR")
    1227                      .dwattr $C$DW$126, DW_AT_data_member_location[DW_OP_plus_uconst 0x4]
    1228                      .dwattr $C$DW$126, DW_AT_accessibility(DW_ACCESS_public)
    1229              $C$DW$127       .dwtag  DW_TAG_member
    1230                      .dwattr $C$DW$127, DW_AT_type(*$C$DW$T$22)
    1231                      .dwattr $C$DW$127, DW_AT_name("RSVD1")
    1232                      .dwattr $C$DW$127, DW_AT_TI_symbol_name("_RSVD1")
    1233                      .dwattr $C$DW$127, DW_AT_data_member_location[DW_OP_plus_uconst 0x5]
    1234                      .dwattr $C$DW$127, DW_AT_accessibility(DW_ACCESS_public)
    1235              $C$DW$128       .dwtag  DW_TAG_member
    1236                      .dwattr $C$DW$128, DW_AT_type(*$C$DW$T$20)
    1237                      .dwattr $C$DW$128, DW_AT_name("LCDSR")
    1238                      .dwattr $C$DW$128, DW_AT_TI_symbol_name("_LCDSR")
    1239                      .dwattr $C$DW$128, DW_AT_data_member_location[DW_OP_plus_uconst 0x8]
    1240                      .dwattr $C$DW$128, DW_AT_accessibility(DW_ACCESS_public)
    1241              $C$DW$129       .dwtag  DW_TAG_member
    1242                      .dwattr $C$DW$129, DW_AT_type(*$C$DW$T$22)
    1243                      .dwattr $C$DW$129, DW_AT_name("RSVD2")
    1244                      .dwattr $C$DW$129, DW_AT_TI_symbol_name("_RSVD2")
    1245                      .dwattr $C$DW$129, DW_AT_data_member_location[DW_OP_plus_uconst 0x9]
    1246                      .dwattr $C$DW$129, DW_AT_accessibility(DW_ACCESS_public)
    1247              $C$DW$130       .dwtag  DW_TAG_member
    1248                      .dwattr $C$DW$130, DW_AT_type(*$C$DW$T$20)
    1249                      .dwattr $C$DW$130, DW_AT_name("LCDLIDDCR")
    1250                      .dwattr $C$DW$130, DW_AT_TI_symbol_name("_LCDLIDDCR")
    1251                      .dwattr $C$DW$130, DW_AT_data_member_location[DW_OP_plus_uconst 0xc]
    1252                      .dwattr $C$DW$130, DW_AT_accessibility(DW_ACCESS_public)
    1253              $C$DW$131       .dwtag  DW_TAG_member
    1254                      .dwattr $C$DW$131, DW_AT_type(*$C$DW$T$22)
    1255                      .dwattr $C$DW$131, DW_AT_name("RSVD3")
TMS320C55x Assembler PC v4.4.1 Sat Sep 29 23:09:11 2018

Tools Copyright (c) 1996-2012 Texas Instruments Incorporated
csl_lcdc_DmaPolledExample.asm                                        PAGE   34

    1256                      .dwattr $C$DW$131, DW_AT_TI_symbol_name("_RSVD3")
    1257                      .dwattr $C$DW$131, DW_AT_data_member_location[DW_OP_plus_uconst 0xd]
    1258                      .dwattr $C$DW$131, DW_AT_accessibility(DW_ACCESS_public)
    1259              $C$DW$132       .dwtag  DW_TAG_member
    1260                      .dwattr $C$DW$132, DW_AT_type(*$C$DW$T$20)
    1261                      .dwattr $C$DW$132, DW_AT_name("LCDLIDDCS0CONFIG0")
    1262                      .dwattr $C$DW$132, DW_AT_TI_symbol_name("_LCDLIDDCS0CONFIG0")
    1263                      .dwattr $C$DW$132, DW_AT_data_member_location[DW_OP_plus_uconst 0x10]
    1264                      .dwattr $C$DW$132, DW_AT_accessibility(DW_ACCESS_public)
    1265              $C$DW$133       .dwtag  DW_TAG_member
    1266                      .dwattr $C$DW$133, DW_AT_type(*$C$DW$T$20)
    1267                      .dwattr $C$DW$133, DW_AT_name("LCDLIDDCS0CONFIG1")
    1268                      .dwattr $C$DW$133, DW_AT_TI_symbol_name("_LCDLIDDCS0CONFIG1")
    1269                      .dwattr $C$DW$133, DW_AT_data_member_location[DW_OP_plus_uconst 0x11]
    1270                      .dwattr $C$DW$133, DW_AT_accessibility(DW_ACCESS_public)
    1271              $C$DW$134       .dwtag  DW_TAG_member
    1272                      .dwattr $C$DW$134, DW_AT_type(*$C$DW$T$21)
    1273                      .dwattr $C$DW$134, DW_AT_name("RSVD4")
    1274                      .dwattr $C$DW$134, DW_AT_TI_symbol_name("_RSVD4")
    1275                      .dwattr $C$DW$134, DW_AT_data_member_location[DW_OP_plus_uconst 0x12]
    1276                      .dwattr $C$DW$134, DW_AT_accessibility(DW_ACCESS_public)
    1277              $C$DW$135       .dwtag  DW_TAG_member
    1278                      .dwattr $C$DW$135, DW_AT_type(*$C$DW$T$20)
    1279                      .dwattr $C$DW$135, DW_AT_name("LCDLIDDCS0ADDR")
    1280                      .dwattr $C$DW$135, DW_AT_TI_symbol_name("_LCDLIDDCS0ADDR")
    1281                      .dwattr $C$DW$135, DW_AT_data_member_location[DW_OP_plus_uconst 0x14]
    1282                      .dwattr $C$DW$135, DW_AT_accessibility(DW_ACCESS_public)
    1283              $C$DW$136       .dwtag  DW_TAG_member
    1284                      .dwattr $C$DW$136, DW_AT_type(*$C$DW$T$22)
    1285                      .dwattr $C$DW$136, DW_AT_name("RSVD5")
    1286                      .dwattr $C$DW$136, DW_AT_TI_symbol_name("_RSVD5")
    1287                      .dwattr $C$DW$136, DW_AT_data_member_location[DW_OP_plus_uconst 0x15]
    1288                      .dwattr $C$DW$136, DW_AT_accessibility(DW_ACCESS_public)
    1289              $C$DW$137       .dwtag  DW_TAG_member
    1290                      .dwattr $C$DW$137, DW_AT_type(*$C$DW$T$20)
    1291                      .dwattr $C$DW$137, DW_AT_name("LCDLIDDCS0DATA")
    1292                      .dwattr $C$DW$137, DW_AT_TI_symbol_name("_LCDLIDDCS0DATA")
    1293                      .dwattr $C$DW$137, DW_AT_data_member_location[DW_OP_plus_uconst 0x18]
    1294                      .dwattr $C$DW$137, DW_AT_accessibility(DW_ACCESS_public)
    1295              $C$DW$138       .dwtag  DW_TAG_member
    1296                      .dwattr $C$DW$138, DW_AT_type(*$C$DW$T$22)
    1297                      .dwattr $C$DW$138, DW_AT_name("RSVD6")
    1298                      .dwattr $C$DW$138, DW_AT_TI_symbol_name("_RSVD6")
    1299                      .dwattr $C$DW$138, DW_AT_data_member_location[DW_OP_plus_uconst 0x19]
    1300                      .dwattr $C$DW$138, DW_AT_accessibility(DW_ACCESS_public)
    1301              $C$DW$139       .dwtag  DW_TAG_member
    1302                      .dwattr $C$DW$139, DW_AT_type(*$C$DW$T$20)
    1303                      .dwattr $C$DW$139, DW_AT_name("LCDLIDDCS1CONFIG0")
    1304                      .dwattr $C$DW$139, DW_AT_TI_symbol_name("_LCDLIDDCS1CONFIG0")
    1305                      .dwattr $C$DW$139, DW_AT_data_member_location[DW_OP_plus_uconst 0x1c]
    1306                      .dwattr $C$DW$139, DW_AT_accessibility(DW_ACCESS_public)
    1307              $C$DW$140       .dwtag  DW_TAG_member
    1308                      .dwattr $C$DW$140, DW_AT_type(*$C$DW$T$20)
    1309                      .dwattr $C$DW$140, DW_AT_name("LCDLIDDCS1CONFIG1")
    1310                      .dwattr $C$DW$140, DW_AT_TI_symbol_name("_LCDLIDDCS1CONFIG1")
TMS320C55x Assembler PC v4.4.1 Sat Sep 29 23:09:11 2018

Tools Copyright (c) 1996-2012 Texas Instruments Incorporated
csl_lcdc_DmaPolledExample.asm                                        PAGE   35

    1311                      .dwattr $C$DW$140, DW_AT_data_member_location[DW_OP_plus_uconst 0x1d]
    1312                      .dwattr $C$DW$140, DW_AT_accessibility(DW_ACCESS_public)
    1313              $C$DW$141       .dwtag  DW_TAG_member
    1314                      .dwattr $C$DW$141, DW_AT_type(*$C$DW$T$21)
    1315                      .dwattr $C$DW$141, DW_AT_name("RSVD7")
    1316                      .dwattr $C$DW$141, DW_AT_TI_symbol_name("_RSVD7")
    1317                      .dwattr $C$DW$141, DW_AT_data_member_location[DW_OP_plus_uconst 0x1e]
    1318                      .dwattr $C$DW$141, DW_AT_accessibility(DW_ACCESS_public)
    1319              $C$DW$142       .dwtag  DW_TAG_member
    1320                      .dwattr $C$DW$142, DW_AT_type(*$C$DW$T$20)
    1321                      .dwattr $C$DW$142, DW_AT_name("LCDLIDDCS1ADDR")
    1322                      .dwattr $C$DW$142, DW_AT_TI_symbol_name("_LCDLIDDCS1ADDR")
    1323                      .dwattr $C$DW$142, DW_AT_data_member_location[DW_OP_plus_uconst 0x20]
    1324                      .dwattr $C$DW$142, DW_AT_accessibility(DW_ACCESS_public)
    1325              $C$DW$143       .dwtag  DW_TAG_member
    1326                      .dwattr $C$DW$143, DW_AT_type(*$C$DW$T$22)
    1327                      .dwattr $C$DW$143, DW_AT_name("RSVD8")
    1328                      .dwattr $C$DW$143, DW_AT_TI_symbol_name("_RSVD8")
    1329                      .dwattr $C$DW$143, DW_AT_data_member_location[DW_OP_plus_uconst 0x21]
    1330                      .dwattr $C$DW$143, DW_AT_accessibility(DW_ACCESS_public)
    1331              $C$DW$144       .dwtag  DW_TAG_member
    1332                      .dwattr $C$DW$144, DW_AT_type(*$C$DW$T$20)
    1333                      .dwattr $C$DW$144, DW_AT_name("LCDLIDDCS1DATA")
    1334                      .dwattr $C$DW$144, DW_AT_TI_symbol_name("_LCDLIDDCS1DATA")
    1335                      .dwattr $C$DW$144, DW_AT_data_member_location[DW_OP_plus_uconst 0x24]
    1336                      .dwattr $C$DW$144, DW_AT_accessibility(DW_ACCESS_public)
    1337              $C$DW$145       .dwtag  DW_TAG_member
    1338                      .dwattr $C$DW$145, DW_AT_type(*$C$DW$T$23)
    1339                      .dwattr $C$DW$145, DW_AT_name("RSVD9")
    1340                      .dwattr $C$DW$145, DW_AT_TI_symbol_name("_RSVD9")
    1341                      .dwattr $C$DW$145, DW_AT_data_member_location[DW_OP_plus_uconst 0x25]
    1342                      .dwattr $C$DW$145, DW_AT_accessibility(DW_ACCESS_public)
    1343              $C$DW$146       .dwtag  DW_TAG_member
    1344                      .dwattr $C$DW$146, DW_AT_type(*$C$DW$T$20)
    1345                      .dwattr $C$DW$146, DW_AT_name("LCDDMACR")
    1346                      .dwattr $C$DW$146, DW_AT_TI_symbol_name("_LCDDMACR")
    1347                      .dwattr $C$DW$146, DW_AT_data_member_location[DW_OP_plus_uconst 0x40]
    1348                      .dwattr $C$DW$146, DW_AT_accessibility(DW_ACCESS_public)
    1349              $C$DW$147       .dwtag  DW_TAG_member
    1350                      .dwattr $C$DW$147, DW_AT_type(*$C$DW$T$22)
    1351                      .dwattr $C$DW$147, DW_AT_name("RSVD10")
    1352                      .dwattr $C$DW$147, DW_AT_TI_symbol_name("_RSVD10")
    1353                      .dwattr $C$DW$147, DW_AT_data_member_location[DW_OP_plus_uconst 0x41]
    1354                      .dwattr $C$DW$147, DW_AT_accessibility(DW_ACCESS_public)
    1355              $C$DW$148       .dwtag  DW_TAG_member
    1356                      .dwattr $C$DW$148, DW_AT_type(*$C$DW$T$20)
    1357                      .dwattr $C$DW$148, DW_AT_name("LCDDMAFB0BAR0")
    1358                      .dwattr $C$DW$148, DW_AT_TI_symbol_name("_LCDDMAFB0BAR0")
    1359                      .dwattr $C$DW$148, DW_AT_data_member_location[DW_OP_plus_uconst 0x44]
    1360                      .dwattr $C$DW$148, DW_AT_accessibility(DW_ACCESS_public)
    1361              $C$DW$149       .dwtag  DW_TAG_member
    1362                      .dwattr $C$DW$149, DW_AT_type(*$C$DW$T$20)
    1363                      .dwattr $C$DW$149, DW_AT_name("LCDDMAFB0BAR1")
    1364                      .dwattr $C$DW$149, DW_AT_TI_symbol_name("_LCDDMAFB0BAR1")
    1365                      .dwattr $C$DW$149, DW_AT_data_member_location[DW_OP_plus_uconst 0x45]
TMS320C55x Assembler PC v4.4.1 Sat Sep 29 23:09:11 2018

Tools Copyright (c) 1996-2012 Texas Instruments Incorporated
csl_lcdc_DmaPolledExample.asm                                        PAGE   36

    1366                      .dwattr $C$DW$149, DW_AT_accessibility(DW_ACCESS_public)
    1367              $C$DW$150       .dwtag  DW_TAG_member
    1368                      .dwattr $C$DW$150, DW_AT_type(*$C$DW$T$21)
    1369                      .dwattr $C$DW$150, DW_AT_name("RSVD11")
    1370                      .dwattr $C$DW$150, DW_AT_TI_symbol_name("_RSVD11")
    1371                      .dwattr $C$DW$150, DW_AT_data_member_location[DW_OP_plus_uconst 0x46]
    1372                      .dwattr $C$DW$150, DW_AT_accessibility(DW_ACCESS_public)
    1373              $C$DW$151       .dwtag  DW_TAG_member
    1374                      .dwattr $C$DW$151, DW_AT_type(*$C$DW$T$20)
    1375                      .dwattr $C$DW$151, DW_AT_name("LCDDMAFB0CAR0")
    1376                      .dwattr $C$DW$151, DW_AT_TI_symbol_name("_LCDDMAFB0CAR0")
    1377                      .dwattr $C$DW$151, DW_AT_data_member_location[DW_OP_plus_uconst 0x48]
    1378                      .dwattr $C$DW$151, DW_AT_accessibility(DW_ACCESS_public)
    1379              $C$DW$152       .dwtag  DW_TAG_member
    1380                      .dwattr $C$DW$152, DW_AT_type(*$C$DW$T$20)
    1381                      .dwattr $C$DW$152, DW_AT_name("LCDDMAFB0CAR1")
    1382                      .dwattr $C$DW$152, DW_AT_TI_symbol_name("_LCDDMAFB0CAR1")
    1383                      .dwattr $C$DW$152, DW_AT_data_member_location[DW_OP_plus_uconst 0x49]
    1384                      .dwattr $C$DW$152, DW_AT_accessibility(DW_ACCESS_public)
    1385              $C$DW$153       .dwtag  DW_TAG_member
    1386                      .dwattr $C$DW$153, DW_AT_type(*$C$DW$T$21)
    1387                      .dwattr $C$DW$153, DW_AT_name("RSVD12")
    1388                      .dwattr $C$DW$153, DW_AT_TI_symbol_name("_RSVD12")
    1389                      .dwattr $C$DW$153, DW_AT_data_member_location[DW_OP_plus_uconst 0x4a]
    1390                      .dwattr $C$DW$153, DW_AT_accessibility(DW_ACCESS_public)
    1391              $C$DW$154       .dwtag  DW_TAG_member
    1392                      .dwattr $C$DW$154, DW_AT_type(*$C$DW$T$20)
    1393                      .dwattr $C$DW$154, DW_AT_name("LCDDMAFB1BAR0")
    1394                      .dwattr $C$DW$154, DW_AT_TI_symbol_name("_LCDDMAFB1BAR0")
    1395                      .dwattr $C$DW$154, DW_AT_data_member_location[DW_OP_plus_uconst 0x4c]
    1396                      .dwattr $C$DW$154, DW_AT_accessibility(DW_ACCESS_public)
    1397              $C$DW$155       .dwtag  DW_TAG_member
    1398                      .dwattr $C$DW$155, DW_AT_type(*$C$DW$T$20)
    1399                      .dwattr $C$DW$155, DW_AT_name("LCDDMAFB1BAR1")
    1400                      .dwattr $C$DW$155, DW_AT_TI_symbol_name("_LCDDMAFB1BAR1")
    1401                      .dwattr $C$DW$155, DW_AT_data_member_location[DW_OP_plus_uconst 0x4d]
    1402                      .dwattr $C$DW$155, DW_AT_accessibility(DW_ACCESS_public)
    1403              $C$DW$156       .dwtag  DW_TAG_member
    1404                      .dwattr $C$DW$156, DW_AT_type(*$C$DW$T$21)
    1405                      .dwattr $C$DW$156, DW_AT_name("RSVD13")
    1406                      .dwattr $C$DW$156, DW_AT_TI_symbol_name("_RSVD13")
    1407                      .dwattr $C$DW$156, DW_AT_data_member_location[DW_OP_plus_uconst 0x4e]
    1408                      .dwattr $C$DW$156, DW_AT_accessibility(DW_ACCESS_public)
    1409              $C$DW$157       .dwtag  DW_TAG_member
    1410                      .dwattr $C$DW$157, DW_AT_type(*$C$DW$T$20)
    1411                      .dwattr $C$DW$157, DW_AT_name("LCDDMAFB1CAR0")
    1412                      .dwattr $C$DW$157, DW_AT_TI_symbol_name("_LCDDMAFB1CAR0")
    1413                      .dwattr $C$DW$157, DW_AT_data_member_location[DW_OP_plus_uconst 0x50]
    1414                      .dwattr $C$DW$157, DW_AT_accessibility(DW_ACCESS_public)
    1415              $C$DW$158       .dwtag  DW_TAG_member
    1416                      .dwattr $C$DW$158, DW_AT_type(*$C$DW$T$20)
    1417                      .dwattr $C$DW$158, DW_AT_name("LCDDMAFB1CAR1")
    1418                      .dwattr $C$DW$158, DW_AT_TI_symbol_name("_LCDDMAFB1CAR1")
    1419                      .dwattr $C$DW$158, DW_AT_data_member_location[DW_OP_plus_uconst 0x51]
    1420                      .dwattr $C$DW$158, DW_AT_accessibility(DW_ACCESS_public)
TMS320C55x Assembler PC v4.4.1 Sat Sep 29 23:09:11 2018

Tools Copyright (c) 1996-2012 Texas Instruments Incorporated
csl_lcdc_DmaPolledExample.asm                                        PAGE   37

    1421                      .dwendtag $C$DW$T$24
    1422              
    1423              $C$DW$T$56      .dwtag  DW_TAG_typedef, DW_AT_name("CSL_LcdcRegs")
    1424                      .dwattr $C$DW$T$56, DW_AT_type(*$C$DW$T$24)
    1425                      .dwattr $C$DW$T$56, DW_AT_language(DW_LANG_C)
    1426              $C$DW$159       .dwtag  DW_TAG_TI_far_type
    1427                      .dwattr $C$DW$159, DW_AT_type(*$C$DW$T$56)
    1428              $C$DW$160       .dwtag  DW_TAG_TI_ioport_type
    1429                      .dwattr $C$DW$160, DW_AT_type(*$C$DW$159)
    1430              $C$DW$T$57      .dwtag  DW_TAG_volatile_type
    1431                      .dwattr $C$DW$T$57, DW_AT_type(*$C$DW$160)
    1432              $C$DW$T$58      .dwtag  DW_TAG_pointer_type
    1433                      .dwattr $C$DW$T$58, DW_AT_type(*$C$DW$T$57)
    1434                      .dwattr $C$DW$T$58, DW_AT_address_class(0x10)
    1435              $C$DW$T$59      .dwtag  DW_TAG_typedef, DW_AT_name("CSL_LcdcRegsOvly")
    1436                      .dwattr $C$DW$T$59, DW_AT_type(*$C$DW$T$58)
    1437                      .dwattr $C$DW$T$59, DW_AT_language(DW_LANG_C)
    1438              
    1439              $C$DW$T$34      .dwtag  DW_TAG_structure_type
    1440                      .dwattr $C$DW$T$34, DW_AT_byte_size(0x06)
    1441              $C$DW$161       .dwtag  DW_TAG_member
    1442                      .dwattr $C$DW$161, DW_AT_type(*$C$DW$T$19)
    1443                      .dwattr $C$DW$161, DW_AT_name("clkDiv")
    1444                      .dwattr $C$DW$161, DW_AT_TI_symbol_name("_clkDiv")
    1445                      .dwattr $C$DW$161, DW_AT_data_member_location[DW_OP_plus_uconst 0x0]
    1446                      .dwattr $C$DW$161, DW_AT_accessibility(DW_ACCESS_public)
    1447              $C$DW$162       .dwtag  DW_TAG_member
    1448                      .dwattr $C$DW$162, DW_AT_type(*$C$DW$T$26)
    1449                      .dwattr $C$DW$162, DW_AT_name("fdoneIntEn")
    1450                      .dwattr $C$DW$162, DW_AT_TI_symbol_name("_fdoneIntEn")
    1451                      .dwattr $C$DW$162, DW_AT_data_member_location[DW_OP_plus_uconst 0x1]
    1452                      .dwattr $C$DW$162, DW_AT_accessibility(DW_ACCESS_public)
    1453              $C$DW$163       .dwtag  DW_TAG_member
    1454                      .dwattr $C$DW$163, DW_AT_type(*$C$DW$T$28)
    1455                      .dwattr $C$DW$163, DW_AT_name("dmaCs0Cs1")
    1456                      .dwattr $C$DW$163, DW_AT_TI_symbol_name("_dmaCs0Cs1")
    1457                      .dwattr $C$DW$163, DW_AT_data_member_location[DW_OP_plus_uconst 0x2]
    1458                      .dwattr $C$DW$163, DW_AT_accessibility(DW_ACCESS_public)
    1459              $C$DW$164       .dwtag  DW_TAG_member
    1460                      .dwattr $C$DW$164, DW_AT_type(*$C$DW$T$30)
    1461                      .dwattr $C$DW$164, DW_AT_name("dmaEnable")
    1462                      .dwattr $C$DW$164, DW_AT_TI_symbol_name("_dmaEnable")
    1463                      .dwattr $C$DW$164, DW_AT_data_member_location[DW_OP_plus_uconst 0x3]
    1464                      .dwattr $C$DW$164, DW_AT_accessibility(DW_ACCESS_public)
    1465              $C$DW$165       .dwtag  DW_TAG_member
    1466                      .dwattr $C$DW$165, DW_AT_type(*$C$DW$T$31)
    1467                      .dwattr $C$DW$165, DW_AT_name("polControl")
    1468                      .dwattr $C$DW$165, DW_AT_TI_symbol_name("_polControl")
    1469                      .dwattr $C$DW$165, DW_AT_data_member_location[DW_OP_plus_uconst 0x4]
    1470                      .dwattr $C$DW$165, DW_AT_accessibility(DW_ACCESS_public)
    1471              $C$DW$166       .dwtag  DW_TAG_member
    1472                      .dwattr $C$DW$166, DW_AT_type(*$C$DW$T$33)
    1473                      .dwattr $C$DW$166, DW_AT_name("modeSel")
    1474                      .dwattr $C$DW$166, DW_AT_TI_symbol_name("_modeSel")
    1475                      .dwattr $C$DW$166, DW_AT_data_member_location[DW_OP_plus_uconst 0x5]
TMS320C55x Assembler PC v4.4.1 Sat Sep 29 23:09:11 2018

Tools Copyright (c) 1996-2012 Texas Instruments Incorporated
csl_lcdc_DmaPolledExample.asm                                        PAGE   38

    1476                      .dwattr $C$DW$166, DW_AT_accessibility(DW_ACCESS_public)
    1477                      .dwendtag $C$DW$T$34
    1478              
    1479              $C$DW$T$36      .dwtag  DW_TAG_typedef, DW_AT_name("CSL_LcdcConfigLidd")
    1480                      .dwattr $C$DW$T$36, DW_AT_type(*$C$DW$T$34)
    1481                      .dwattr $C$DW$T$36, DW_AT_language(DW_LANG_C)
    1482              
    1483              $C$DW$T$35      .dwtag  DW_TAG_structure_type
    1484                      .dwattr $C$DW$T$35, DW_AT_byte_size(0x07)
    1485              $C$DW$167       .dwtag  DW_TAG_member
    1486                      .dwattr $C$DW$167, DW_AT_type(*$C$DW$T$19)
    1487                      .dwattr $C$DW$167, DW_AT_name("wSu")
    1488                      .dwattr $C$DW$167, DW_AT_TI_symbol_name("_wSu")
    1489                      .dwattr $C$DW$167, DW_AT_data_member_location[DW_OP_plus_uconst 0x0]
    1490                      .dwattr $C$DW$167, DW_AT_accessibility(DW_ACCESS_public)
    1491              $C$DW$168       .dwtag  DW_TAG_member
    1492                      .dwattr $C$DW$168, DW_AT_type(*$C$DW$T$19)
    1493                      .dwattr $C$DW$168, DW_AT_name("wStrobe")
    1494                      .dwattr $C$DW$168, DW_AT_TI_symbol_name("_wStrobe")
    1495                      .dwattr $C$DW$168, DW_AT_data_member_location[DW_OP_plus_uconst 0x1]
    1496                      .dwattr $C$DW$168, DW_AT_accessibility(DW_ACCESS_public)
    1497              $C$DW$169       .dwtag  DW_TAG_member
    1498                      .dwattr $C$DW$169, DW_AT_type(*$C$DW$T$19)
    1499                      .dwattr $C$DW$169, DW_AT_name("wHold")
    1500                      .dwattr $C$DW$169, DW_AT_TI_symbol_name("_wHold")
    1501                      .dwattr $C$DW$169, DW_AT_data_member_location[DW_OP_plus_uconst 0x2]
    1502                      .dwattr $C$DW$169, DW_AT_accessibility(DW_ACCESS_public)
    1503              $C$DW$170       .dwtag  DW_TAG_member
    1504                      .dwattr $C$DW$170, DW_AT_type(*$C$DW$T$19)
    1505                      .dwattr $C$DW$170, DW_AT_name("rSu")
    1506                      .dwattr $C$DW$170, DW_AT_TI_symbol_name("_rSu")
    1507                      .dwattr $C$DW$170, DW_AT_data_member_location[DW_OP_plus_uconst 0x3]
    1508                      .dwattr $C$DW$170, DW_AT_accessibility(DW_ACCESS_public)
    1509              $C$DW$171       .dwtag  DW_TAG_member
    1510                      .dwattr $C$DW$171, DW_AT_type(*$C$DW$T$19)
    1511                      .dwattr $C$DW$171, DW_AT_name("rStrobe")
    1512                      .dwattr $C$DW$171, DW_AT_TI_symbol_name("_rStrobe")
    1513                      .dwattr $C$DW$171, DW_AT_data_member_location[DW_OP_plus_uconst 0x4]
    1514                      .dwattr $C$DW$171, DW_AT_accessibility(DW_ACCESS_public)
    1515              $C$DW$172       .dwtag  DW_TAG_member
    1516                      .dwattr $C$DW$172, DW_AT_type(*$C$DW$T$19)
    1517                      .dwattr $C$DW$172, DW_AT_name("rHold")
    1518                      .dwattr $C$DW$172, DW_AT_TI_symbol_name("_rHold")
    1519                      .dwattr $C$DW$172, DW_AT_data_member_location[DW_OP_plus_uconst 0x5]
    1520                      .dwattr $C$DW$172, DW_AT_accessibility(DW_ACCESS_public)
    1521              $C$DW$173       .dwtag  DW_TAG_member
    1522                      .dwattr $C$DW$173, DW_AT_type(*$C$DW$T$19)
    1523                      .dwattr $C$DW$173, DW_AT_name("ta")
    1524                      .dwattr $C$DW$173, DW_AT_TI_symbol_name("_ta")
    1525                      .dwattr $C$DW$173, DW_AT_data_member_location[DW_OP_plus_uconst 0x6]
    1526                      .dwattr $C$DW$173, DW_AT_accessibility(DW_ACCESS_public)
    1527                      .dwendtag $C$DW$T$35
    1528              
    1529              $C$DW$T$37      .dwtag  DW_TAG_typedef, DW_AT_name("CSL_LcdcLiddTiming")
    1530                      .dwattr $C$DW$T$37, DW_AT_type(*$C$DW$T$35)
TMS320C55x Assembler PC v4.4.1 Sat Sep 29 23:09:11 2018

Tools Copyright (c) 1996-2012 Texas Instruments Incorporated
csl_lcdc_DmaPolledExample.asm                                        PAGE   39

    1531                      .dwattr $C$DW$T$37, DW_AT_language(DW_LANG_C)
    1532              
    1533              $C$DW$T$40      .dwtag  DW_TAG_structure_type
    1534                      .dwattr $C$DW$T$40, DW_AT_byte_size(0x18)
    1535              $C$DW$174       .dwtag  DW_TAG_member
    1536                      .dwattr $C$DW$174, DW_AT_type(*$C$DW$T$3)
    1537                      .dwattr $C$DW$174, DW_AT_name("extendSetup")
    1538                      .dwattr $C$DW$174, DW_AT_TI_symbol_name("_extendSetup")
    1539                      .dwattr $C$DW$174, DW_AT_data_member_location[DW_OP_plus_uconst 0x0]
    1540                      .dwattr $C$DW$174, DW_AT_accessibility(DW_ACCESS_public)
    1541              $C$DW$175       .dwtag  DW_TAG_member
    1542                      .dwattr $C$DW$175, DW_AT_type(*$C$DW$T$36)
    1543                      .dwattr $C$DW$175, DW_AT_name("config")
    1544                      .dwattr $C$DW$175, DW_AT_TI_symbol_name("_config")
    1545                      .dwattr $C$DW$175, DW_AT_data_member_location[DW_OP_plus_uconst 0x2]
    1546                      .dwattr $C$DW$175, DW_AT_accessibility(DW_ACCESS_public)
    1547              $C$DW$176       .dwtag  DW_TAG_member
    1548                      .dwattr $C$DW$176, DW_AT_type(*$C$DW$T$37)
    1549                      .dwattr $C$DW$176, DW_AT_name("timingCs0")
    1550                      .dwattr $C$DW$176, DW_AT_TI_symbol_name("_timingCs0")
    1551                      .dwattr $C$DW$176, DW_AT_data_member_location[DW_OP_plus_uconst 0x8]
    1552                      .dwattr $C$DW$176, DW_AT_accessibility(DW_ACCESS_public)
    1553              $C$DW$177       .dwtag  DW_TAG_member
    1554                      .dwattr $C$DW$177, DW_AT_type(*$C$DW$T$39)
    1555                      .dwattr $C$DW$177, DW_AT_name("useCs1")
    1556                      .dwattr $C$DW$177, DW_AT_TI_symbol_name("_useCs1")
    1557                      .dwattr $C$DW$177, DW_AT_data_member_location[DW_OP_plus_uconst 0xf]
    1558                      .dwattr $C$DW$177, DW_AT_accessibility(DW_ACCESS_public)
    1559              $C$DW$178       .dwtag  DW_TAG_member
    1560                      .dwattr $C$DW$178, DW_AT_type(*$C$DW$T$37)
    1561                      .dwattr $C$DW$178, DW_AT_name("timingCs1")
    1562                      .dwattr $C$DW$178, DW_AT_TI_symbol_name("_timingCs1")
    1563                      .dwattr $C$DW$178, DW_AT_data_member_location[DW_OP_plus_uconst 0x10]
    1564                      .dwattr $C$DW$178, DW_AT_accessibility(DW_ACCESS_public)
    1565                      .dwendtag $C$DW$T$40
    1566              
    1567              $C$DW$T$63      .dwtag  DW_TAG_typedef, DW_AT_name("CSL_LcdcHwSetup")
    1568                      .dwattr $C$DW$T$63, DW_AT_type(*$C$DW$T$40)
    1569                      .dwattr $C$DW$T$63, DW_AT_language(DW_LANG_C)
    1570              $C$DW$T$64      .dwtag  DW_TAG_pointer_type
    1571                      .dwattr $C$DW$T$64, DW_AT_type(*$C$DW$T$63)
    1572                      .dwattr $C$DW$T$64, DW_AT_address_class(0x17)
    1573              
    1574              $C$DW$T$50      .dwtag  DW_TAG_structure_type
    1575                      .dwattr $C$DW$T$50, DW_AT_byte_size(0x0c)
    1576              $C$DW$179       .dwtag  DW_TAG_member
    1577                      .dwattr $C$DW$179, DW_AT_type(*$C$DW$T$42)
    1578                      .dwattr $C$DW$179, DW_AT_name("burstSize")
    1579                      .dwattr $C$DW$179, DW_AT_TI_symbol_name("_burstSize")
    1580                      .dwattr $C$DW$179, DW_AT_data_member_location[DW_OP_plus_uconst 0x0]
    1581                      .dwattr $C$DW$179, DW_AT_accessibility(DW_ACCESS_public)
    1582              $C$DW$180       .dwtag  DW_TAG_member
    1583                      .dwattr $C$DW$180, DW_AT_type(*$C$DW$T$44)
    1584                      .dwattr $C$DW$180, DW_AT_name("eofIntEn")
    1585                      .dwattr $C$DW$180, DW_AT_TI_symbol_name("_eofIntEn")
TMS320C55x Assembler PC v4.4.1 Sat Sep 29 23:09:11 2018

Tools Copyright (c) 1996-2012 Texas Instruments Incorporated
csl_lcdc_DmaPolledExample.asm                                        PAGE   40

    1586                      .dwattr $C$DW$180, DW_AT_data_member_location[DW_OP_plus_uconst 0x1]
    1587                      .dwattr $C$DW$180, DW_AT_accessibility(DW_ACCESS_public)
    1588              $C$DW$181       .dwtag  DW_TAG_member
    1589                      .dwattr $C$DW$181, DW_AT_type(*$C$DW$T$46)
    1590                      .dwattr $C$DW$181, DW_AT_name("bigEndian")
    1591                      .dwattr $C$DW$181, DW_AT_TI_symbol_name("_bigEndian")
    1592                      .dwattr $C$DW$181, DW_AT_data_member_location[DW_OP_plus_uconst 0x2]
    1593                      .dwattr $C$DW$181, DW_AT_accessibility(DW_ACCESS_public)
    1594              $C$DW$182       .dwtag  DW_TAG_member
    1595                      .dwattr $C$DW$182, DW_AT_type(*$C$DW$T$48)
    1596                      .dwattr $C$DW$182, DW_AT_name("frameMode")
    1597                      .dwattr $C$DW$182, DW_AT_TI_symbol_name("_frameMode")
    1598                      .dwattr $C$DW$182, DW_AT_data_member_location[DW_OP_plus_uconst 0x3]
    1599                      .dwattr $C$DW$182, DW_AT_accessibility(DW_ACCESS_public)
    1600              $C$DW$183       .dwtag  DW_TAG_member
    1601                      .dwattr $C$DW$183, DW_AT_type(*$C$DW$T$49)
    1602                      .dwattr $C$DW$183, DW_AT_name("fb0Base")
    1603                      .dwattr $C$DW$183, DW_AT_TI_symbol_name("_fb0Base")
    1604                      .dwattr $C$DW$183, DW_AT_data_member_location[DW_OP_plus_uconst 0x4]
    1605                      .dwattr $C$DW$183, DW_AT_accessibility(DW_ACCESS_public)
    1606              $C$DW$184       .dwtag  DW_TAG_member
    1607                      .dwattr $C$DW$184, DW_AT_type(*$C$DW$T$49)
    1608                      .dwattr $C$DW$184, DW_AT_name("fb0Ceil")
    1609                      .dwattr $C$DW$184, DW_AT_TI_symbol_name("_fb0Ceil")
    1610                      .dwattr $C$DW$184, DW_AT_data_member_location[DW_OP_plus_uconst 0x6]
    1611                      .dwattr $C$DW$184, DW_AT_accessibility(DW_ACCESS_public)
    1612              $C$DW$185       .dwtag  DW_TAG_member
    1613                      .dwattr $C$DW$185, DW_AT_type(*$C$DW$T$49)
    1614                      .dwattr $C$DW$185, DW_AT_name("fb1Base")
    1615                      .dwattr $C$DW$185, DW_AT_TI_symbol_name("_fb1Base")
    1616                      .dwattr $C$DW$185, DW_AT_data_member_location[DW_OP_plus_uconst 0x8]
    1617                      .dwattr $C$DW$185, DW_AT_accessibility(DW_ACCESS_public)
    1618              $C$DW$186       .dwtag  DW_TAG_member
    1619                      .dwattr $C$DW$186, DW_AT_type(*$C$DW$T$49)
    1620                      .dwattr $C$DW$186, DW_AT_name("fb1Ceil")
    1621                      .dwattr $C$DW$186, DW_AT_TI_symbol_name("_fb1Ceil")
    1622                      .dwattr $C$DW$186, DW_AT_data_member_location[DW_OP_plus_uconst 0xa]
    1623                      .dwattr $C$DW$186, DW_AT_accessibility(DW_ACCESS_public)
    1624                      .dwendtag $C$DW$T$50
    1625              
    1626              $C$DW$T$65      .dwtag  DW_TAG_typedef, DW_AT_name("CSL_LcdcConfigDma")
    1627                      .dwattr $C$DW$T$65, DW_AT_type(*$C$DW$T$50)
    1628                      .dwattr $C$DW$T$65, DW_AT_language(DW_LANG_C)
    1629              $C$DW$T$66      .dwtag  DW_TAG_pointer_type
    1630                      .dwattr $C$DW$T$66, DW_AT_type(*$C$DW$T$65)
    1631                      .dwattr $C$DW$T$66, DW_AT_address_class(0x17)
    1632              
    1633              $C$DW$T$53      .dwtag  DW_TAG_structure_type
    1634                      .dwattr $C$DW$T$53, DW_AT_byte_size(0x48)
    1635              $C$DW$187       .dwtag  DW_TAG_member
    1636                      .dwattr $C$DW$187, DW_AT_type(*$C$DW$T$20)
    1637                      .dwattr $C$DW$187, DW_AT_name("EBSR")
    1638                      .dwattr $C$DW$187, DW_AT_TI_symbol_name("_EBSR")
    1639                      .dwattr $C$DW$187, DW_AT_data_member_location[DW_OP_plus_uconst 0x0]
    1640                      .dwattr $C$DW$187, DW_AT_accessibility(DW_ACCESS_public)
TMS320C55x Assembler PC v4.4.1 Sat Sep 29 23:09:11 2018

Tools Copyright (c) 1996-2012 Texas Instruments Incorporated
csl_lcdc_DmaPolledExample.asm                                        PAGE   41

    1641              $C$DW$188       .dwtag  DW_TAG_member
    1642                      .dwattr $C$DW$188, DW_AT_type(*$C$DW$T$20)
    1643                      .dwattr $C$DW$188, DW_AT_name("RSVD0")
    1644                      .dwattr $C$DW$188, DW_AT_TI_symbol_name("_RSVD0")
    1645                      .dwattr $C$DW$188, DW_AT_data_member_location[DW_OP_plus_uconst 0x1]
    1646                      .dwattr $C$DW$188, DW_AT_accessibility(DW_ACCESS_public)
    1647              $C$DW$189       .dwtag  DW_TAG_member
    1648                      .dwattr $C$DW$189, DW_AT_type(*$C$DW$T$20)
    1649                      .dwattr $C$DW$189, DW_AT_name("PCGCR1")
    1650                      .dwattr $C$DW$189, DW_AT_TI_symbol_name("_PCGCR1")
    1651                      .dwattr $C$DW$189, DW_AT_data_member_location[DW_OP_plus_uconst 0x2]
    1652                      .dwattr $C$DW$189, DW_AT_accessibility(DW_ACCESS_public)
    1653              $C$DW$190       .dwtag  DW_TAG_member
    1654                      .dwattr $C$DW$190, DW_AT_type(*$C$DW$T$20)
    1655                      .dwattr $C$DW$190, DW_AT_name("PCGCR2")
    1656                      .dwattr $C$DW$190, DW_AT_TI_symbol_name("_PCGCR2")
    1657                      .dwattr $C$DW$190, DW_AT_data_member_location[DW_OP_plus_uconst 0x3]
    1658                      .dwattr $C$DW$190, DW_AT_accessibility(DW_ACCESS_public)
    1659              $C$DW$191       .dwtag  DW_TAG_member
    1660                      .dwattr $C$DW$191, DW_AT_type(*$C$DW$T$20)
    1661                      .dwattr $C$DW$191, DW_AT_name("PSRCR")
    1662                      .dwattr $C$DW$191, DW_AT_TI_symbol_name("_PSRCR")
    1663                      .dwattr $C$DW$191, DW_AT_data_member_location[DW_OP_plus_uconst 0x4]
    1664                      .dwattr $C$DW$191, DW_AT_accessibility(DW_ACCESS_public)
    1665              $C$DW$192       .dwtag  DW_TAG_member
    1666                      .dwattr $C$DW$192, DW_AT_type(*$C$DW$T$20)
    1667                      .dwattr $C$DW$192, DW_AT_name("PRCR")
    1668                      .dwattr $C$DW$192, DW_AT_TI_symbol_name("_PRCR")
    1669                      .dwattr $C$DW$192, DW_AT_data_member_location[DW_OP_plus_uconst 0x5]
    1670                      .dwattr $C$DW$192, DW_AT_accessibility(DW_ACCESS_public)
    1671              $C$DW$193       .dwtag  DW_TAG_member
    1672                      .dwattr $C$DW$193, DW_AT_type(*$C$DW$T$51)
    1673                      .dwattr $C$DW$193, DW_AT_name("RSVD1")
    1674                      .dwattr $C$DW$193, DW_AT_TI_symbol_name("_RSVD1")
    1675                      .dwattr $C$DW$193, DW_AT_data_member_location[DW_OP_plus_uconst 0x6]
    1676                      .dwattr $C$DW$193, DW_AT_accessibility(DW_ACCESS_public)
    1677              $C$DW$194       .dwtag  DW_TAG_member
    1678                      .dwattr $C$DW$194, DW_AT_type(*$C$DW$T$20)
    1679                      .dwattr $C$DW$194, DW_AT_name("TIAFR")
    1680                      .dwattr $C$DW$194, DW_AT_TI_symbol_name("_TIAFR")
    1681                      .dwattr $C$DW$194, DW_AT_data_member_location[DW_OP_plus_uconst 0x14]
    1682                      .dwattr $C$DW$194, DW_AT_accessibility(DW_ACCESS_public)
    1683              $C$DW$195       .dwtag  DW_TAG_member
    1684                      .dwattr $C$DW$195, DW_AT_type(*$C$DW$T$20)
    1685                      .dwattr $C$DW$195, DW_AT_name("RSVD2")
    1686                      .dwattr $C$DW$195, DW_AT_TI_symbol_name("_RSVD2")
    1687                      .dwattr $C$DW$195, DW_AT_data_member_location[DW_OP_plus_uconst 0x15]
    1688                      .dwattr $C$DW$195, DW_AT_accessibility(DW_ACCESS_public)
    1689              $C$DW$196       .dwtag  DW_TAG_member
    1690                      .dwattr $C$DW$196, DW_AT_type(*$C$DW$T$20)
    1691                      .dwattr $C$DW$196, DW_AT_name("ODSCR")
    1692                      .dwattr $C$DW$196, DW_AT_TI_symbol_name("_ODSCR")
    1693                      .dwattr $C$DW$196, DW_AT_data_member_location[DW_OP_plus_uconst 0x16]
    1694                      .dwattr $C$DW$196, DW_AT_accessibility(DW_ACCESS_public)
    1695              $C$DW$197       .dwtag  DW_TAG_member
TMS320C55x Assembler PC v4.4.1 Sat Sep 29 23:09:11 2018

Tools Copyright (c) 1996-2012 Texas Instruments Incorporated
csl_lcdc_DmaPolledExample.asm                                        PAGE   42

    1696                      .dwattr $C$DW$197, DW_AT_type(*$C$DW$T$20)
    1697                      .dwattr $C$DW$197, DW_AT_name("PDINHIBR1")
    1698                      .dwattr $C$DW$197, DW_AT_TI_symbol_name("_PDINHIBR1")
    1699                      .dwattr $C$DW$197, DW_AT_data_member_location[DW_OP_plus_uconst 0x17]
    1700                      .dwattr $C$DW$197, DW_AT_accessibility(DW_ACCESS_public)
    1701              $C$DW$198       .dwtag  DW_TAG_member
    1702                      .dwattr $C$DW$198, DW_AT_type(*$C$DW$T$20)
    1703                      .dwattr $C$DW$198, DW_AT_name("PDINHIBR2")
    1704                      .dwattr $C$DW$198, DW_AT_TI_symbol_name("_PDINHIBR2")
    1705                      .dwattr $C$DW$198, DW_AT_data_member_location[DW_OP_plus_uconst 0x18]
    1706                      .dwattr $C$DW$198, DW_AT_accessibility(DW_ACCESS_public)
    1707              $C$DW$199       .dwtag  DW_TAG_member
    1708                      .dwattr $C$DW$199, DW_AT_type(*$C$DW$T$20)
    1709                      .dwattr $C$DW$199, DW_AT_name("PDINHIBR3")
    1710                      .dwattr $C$DW$199, DW_AT_TI_symbol_name("_PDINHIBR3")
    1711                      .dwattr $C$DW$199, DW_AT_data_member_location[DW_OP_plus_uconst 0x19]
    1712                      .dwattr $C$DW$199, DW_AT_accessibility(DW_ACCESS_public)
    1713              $C$DW$200       .dwtag  DW_TAG_member
    1714                      .dwattr $C$DW$200, DW_AT_type(*$C$DW$T$20)
    1715                      .dwattr $C$DW$200, DW_AT_name("DMA0CESR1")
    1716                      .dwattr $C$DW$200, DW_AT_TI_symbol_name("_DMA0CESR1")
    1717                      .dwattr $C$DW$200, DW_AT_data_member_location[DW_OP_plus_uconst 0x1a]
    1718                      .dwattr $C$DW$200, DW_AT_accessibility(DW_ACCESS_public)
    1719              $C$DW$201       .dwtag  DW_TAG_member
    1720                      .dwattr $C$DW$201, DW_AT_type(*$C$DW$T$20)
    1721                      .dwattr $C$DW$201, DW_AT_name("DMA0CESR2")
    1722                      .dwattr $C$DW$201, DW_AT_TI_symbol_name("_DMA0CESR2")
    1723                      .dwattr $C$DW$201, DW_AT_data_member_location[DW_OP_plus_uconst 0x1b]
    1724                      .dwattr $C$DW$201, DW_AT_accessibility(DW_ACCESS_public)
    1725              $C$DW$202       .dwtag  DW_TAG_member
    1726                      .dwattr $C$DW$202, DW_AT_type(*$C$DW$T$20)
    1727                      .dwattr $C$DW$202, DW_AT_name("DMA1CESR1")
    1728                      .dwattr $C$DW$202, DW_AT_TI_symbol_name("_DMA1CESR1")
    1729                      .dwattr $C$DW$202, DW_AT_data_member_location[DW_OP_plus_uconst 0x1c]
    1730                      .dwattr $C$DW$202, DW_AT_accessibility(DW_ACCESS_public)
    1731              $C$DW$203       .dwtag  DW_TAG_member
    1732                      .dwattr $C$DW$203, DW_AT_type(*$C$DW$T$20)
    1733                      .dwattr $C$DW$203, DW_AT_name("DMA1CESR2")
    1734                      .dwattr $C$DW$203, DW_AT_TI_symbol_name("_DMA1CESR2")
    1735                      .dwattr $C$DW$203, DW_AT_data_member_location[DW_OP_plus_uconst 0x1d]
    1736                      .dwattr $C$DW$203, DW_AT_accessibility(DW_ACCESS_public)
    1737              $C$DW$204       .dwtag  DW_TAG_member
    1738                      .dwattr $C$DW$204, DW_AT_type(*$C$DW$T$20)
    1739                      .dwattr $C$DW$204, DW_AT_name("SDRAMCCR")
    1740                      .dwattr $C$DW$204, DW_AT_TI_symbol_name("_SDRAMCCR")
    1741                      .dwattr $C$DW$204, DW_AT_data_member_location[DW_OP_plus_uconst 0x1e]
    1742                      .dwattr $C$DW$204, DW_AT_accessibility(DW_ACCESS_public)
    1743              $C$DW$205       .dwtag  DW_TAG_member
    1744                      .dwattr $C$DW$205, DW_AT_type(*$C$DW$T$20)
    1745                      .dwattr $C$DW$205, DW_AT_name("CCR2")
    1746                      .dwattr $C$DW$205, DW_AT_TI_symbol_name("_CCR2")
    1747                      .dwattr $C$DW$205, DW_AT_data_member_location[DW_OP_plus_uconst 0x1f]
    1748                      .dwattr $C$DW$205, DW_AT_accessibility(DW_ACCESS_public)
    1749              $C$DW$206       .dwtag  DW_TAG_member
    1750                      .dwattr $C$DW$206, DW_AT_type(*$C$DW$T$20)
TMS320C55x Assembler PC v4.4.1 Sat Sep 29 23:09:11 2018

Tools Copyright (c) 1996-2012 Texas Instruments Incorporated
csl_lcdc_DmaPolledExample.asm                                        PAGE   43

    1751                      .dwattr $C$DW$206, DW_AT_name("CGCR1")
    1752                      .dwattr $C$DW$206, DW_AT_TI_symbol_name("_CGCR1")
    1753                      .dwattr $C$DW$206, DW_AT_data_member_location[DW_OP_plus_uconst 0x20]
    1754                      .dwattr $C$DW$206, DW_AT_accessibility(DW_ACCESS_public)
    1755              $C$DW$207       .dwtag  DW_TAG_member
    1756                      .dwattr $C$DW$207, DW_AT_type(*$C$DW$T$20)
    1757                      .dwattr $C$DW$207, DW_AT_name("CGICR")
    1758                      .dwattr $C$DW$207, DW_AT_TI_symbol_name("_CGICR")
    1759                      .dwattr $C$DW$207, DW_AT_data_member_location[DW_OP_plus_uconst 0x21]
    1760                      .dwattr $C$DW$207, DW_AT_accessibility(DW_ACCESS_public)
    1761              $C$DW$208       .dwtag  DW_TAG_member
    1762                      .dwattr $C$DW$208, DW_AT_type(*$C$DW$T$20)
    1763                      .dwattr $C$DW$208, DW_AT_name("CGCR2")
    1764                      .dwattr $C$DW$208, DW_AT_TI_symbol_name("_CGCR2")
    1765                      .dwattr $C$DW$208, DW_AT_data_member_location[DW_OP_plus_uconst 0x22]
    1766                      .dwattr $C$DW$208, DW_AT_accessibility(DW_ACCESS_public)
    1767              $C$DW$209       .dwtag  DW_TAG_member
    1768                      .dwattr $C$DW$209, DW_AT_type(*$C$DW$T$20)
    1769                      .dwattr $C$DW$209, DW_AT_name("CGOCR")
    1770                      .dwattr $C$DW$209, DW_AT_TI_symbol_name("_CGOCR")
    1771                      .dwattr $C$DW$209, DW_AT_data_member_location[DW_OP_plus_uconst 0x23]
    1772                      .dwattr $C$DW$209, DW_AT_accessibility(DW_ACCESS_public)
    1773              $C$DW$210       .dwtag  DW_TAG_member
    1774                      .dwattr $C$DW$210, DW_AT_type(*$C$DW$T$20)
    1775                      .dwattr $C$DW$210, DW_AT_name("CCSSR")
    1776                      .dwattr $C$DW$210, DW_AT_TI_symbol_name("_CCSSR")
    1777                      .dwattr $C$DW$210, DW_AT_data_member_location[DW_OP_plus_uconst 0x24]
    1778                      .dwattr $C$DW$210, DW_AT_accessibility(DW_ACCESS_public)
    1779              $C$DW$211       .dwtag  DW_TAG_member
    1780                      .dwattr $C$DW$211, DW_AT_type(*$C$DW$T$20)
    1781                      .dwattr $C$DW$211, DW_AT_name("RSVD3")
    1782                      .dwattr $C$DW$211, DW_AT_TI_symbol_name("_RSVD3")
    1783                      .dwattr $C$DW$211, DW_AT_data_member_location[DW_OP_plus_uconst 0x25]
    1784                      .dwattr $C$DW$211, DW_AT_accessibility(DW_ACCESS_public)
    1785              $C$DW$212       .dwtag  DW_TAG_member
    1786                      .dwattr $C$DW$212, DW_AT_type(*$C$DW$T$20)
    1787                      .dwattr $C$DW$212, DW_AT_name("ECDR")
    1788                      .dwattr $C$DW$212, DW_AT_TI_symbol_name("_ECDR")
    1789                      .dwattr $C$DW$212, DW_AT_data_member_location[DW_OP_plus_uconst 0x26]
    1790                      .dwattr $C$DW$212, DW_AT_accessibility(DW_ACCESS_public)
    1791              $C$DW$213       .dwtag  DW_TAG_member
    1792                      .dwattr $C$DW$213, DW_AT_type(*$C$DW$T$20)
    1793                      .dwattr $C$DW$213, DW_AT_name("RSVD4")
    1794                      .dwattr $C$DW$213, DW_AT_TI_symbol_name("_RSVD4")
    1795                      .dwattr $C$DW$213, DW_AT_data_member_location[DW_OP_plus_uconst 0x27]
    1796                      .dwattr $C$DW$213, DW_AT_accessibility(DW_ACCESS_public)
    1797              $C$DW$214       .dwtag  DW_TAG_member
    1798                      .dwattr $C$DW$214, DW_AT_type(*$C$DW$T$20)
    1799                      .dwattr $C$DW$214, DW_AT_name("RAMSLPMDCNTLR1")
    1800                      .dwattr $C$DW$214, DW_AT_TI_symbol_name("_RAMSLPMDCNTLR1")
    1801                      .dwattr $C$DW$214, DW_AT_data_member_location[DW_OP_plus_uconst 0x28]
    1802                      .dwattr $C$DW$214, DW_AT_accessibility(DW_ACCESS_public)
    1803              $C$DW$215       .dwtag  DW_TAG_member
    1804                      .dwattr $C$DW$215, DW_AT_type(*$C$DW$T$20)
    1805                      .dwattr $C$DW$215, DW_AT_name("RSVD5")
TMS320C55x Assembler PC v4.4.1 Sat Sep 29 23:09:11 2018

Tools Copyright (c) 1996-2012 Texas Instruments Incorporated
csl_lcdc_DmaPolledExample.asm                                        PAGE   44

    1806                      .dwattr $C$DW$215, DW_AT_TI_symbol_name("_RSVD5")
    1807                      .dwattr $C$DW$215, DW_AT_data_member_location[DW_OP_plus_uconst 0x29]
    1808                      .dwattr $C$DW$215, DW_AT_accessibility(DW_ACCESS_public)
    1809              $C$DW$216       .dwtag  DW_TAG_member
    1810                      .dwattr $C$DW$216, DW_AT_type(*$C$DW$T$20)
    1811                      .dwattr $C$DW$216, DW_AT_name("RAMSLPMDCNTLR2")
    1812                      .dwattr $C$DW$216, DW_AT_TI_symbol_name("_RAMSLPMDCNTLR2")
    1813                      .dwattr $C$DW$216, DW_AT_data_member_location[DW_OP_plus_uconst 0x2a]
    1814                      .dwattr $C$DW$216, DW_AT_accessibility(DW_ACCESS_public)
    1815              $C$DW$217       .dwtag  DW_TAG_member
    1816                      .dwattr $C$DW$217, DW_AT_type(*$C$DW$T$20)
    1817                      .dwattr $C$DW$217, DW_AT_name("RAMSLPMDCNTLR3")
    1818                      .dwattr $C$DW$217, DW_AT_TI_symbol_name("_RAMSLPMDCNTLR3")
    1819                      .dwattr $C$DW$217, DW_AT_data_member_location[DW_OP_plus_uconst 0x2b]
    1820                      .dwattr $C$DW$217, DW_AT_accessibility(DW_ACCESS_public)
    1821              $C$DW$218       .dwtag  DW_TAG_member
    1822                      .dwattr $C$DW$218, DW_AT_type(*$C$DW$T$20)
    1823                      .dwattr $C$DW$218, DW_AT_name("RAMSLPMDCNTLR4")
    1824                      .dwattr $C$DW$218, DW_AT_TI_symbol_name("_RAMSLPMDCNTLR4")
    1825                      .dwattr $C$DW$218, DW_AT_data_member_location[DW_OP_plus_uconst 0x2c]
    1826                      .dwattr $C$DW$218, DW_AT_accessibility(DW_ACCESS_public)
    1827              $C$DW$219       .dwtag  DW_TAG_member
    1828                      .dwattr $C$DW$219, DW_AT_type(*$C$DW$T$20)
    1829                      .dwattr $C$DW$219, DW_AT_name("RAMSLPMDCNTLR5")
    1830                      .dwattr $C$DW$219, DW_AT_TI_symbol_name("_RAMSLPMDCNTLR5")
    1831                      .dwattr $C$DW$219, DW_AT_data_member_location[DW_OP_plus_uconst 0x2d]
    1832                      .dwattr $C$DW$219, DW_AT_accessibility(DW_ACCESS_public)
    1833              $C$DW$220       .dwtag  DW_TAG_member
    1834                      .dwattr $C$DW$220, DW_AT_type(*$C$DW$T$21)
    1835                      .dwattr $C$DW$220, DW_AT_name("RSVD6")
    1836                      .dwattr $C$DW$220, DW_AT_TI_symbol_name("_RSVD6")
    1837                      .dwattr $C$DW$220, DW_AT_data_member_location[DW_OP_plus_uconst 0x2e]
    1838                      .dwattr $C$DW$220, DW_AT_accessibility(DW_ACCESS_public)
    1839              $C$DW$221       .dwtag  DW_TAG_member
    1840                      .dwattr $C$DW$221, DW_AT_type(*$C$DW$T$20)
    1841                      .dwattr $C$DW$221, DW_AT_name("DMAIFR")
    1842                      .dwattr $C$DW$221, DW_AT_TI_symbol_name("_DMAIFR")
    1843                      .dwattr $C$DW$221, DW_AT_data_member_location[DW_OP_plus_uconst 0x30]
    1844                      .dwattr $C$DW$221, DW_AT_accessibility(DW_ACCESS_public)
    1845              $C$DW$222       .dwtag  DW_TAG_member
    1846                      .dwattr $C$DW$222, DW_AT_type(*$C$DW$T$20)
    1847                      .dwattr $C$DW$222, DW_AT_name("DMAIER")
    1848                      .dwattr $C$DW$222, DW_AT_TI_symbol_name("_DMAIER")
    1849                      .dwattr $C$DW$222, DW_AT_data_member_location[DW_OP_plus_uconst 0x31]
    1850                      .dwattr $C$DW$222, DW_AT_accessibility(DW_ACCESS_public)
    1851              $C$DW$223       .dwtag  DW_TAG_member
    1852                      .dwattr $C$DW$223, DW_AT_type(*$C$DW$T$20)
    1853                      .dwattr $C$DW$223, DW_AT_name("USBSCR")
    1854                      .dwattr $C$DW$223, DW_AT_TI_symbol_name("_USBSCR")
    1855                      .dwattr $C$DW$223, DW_AT_data_member_location[DW_OP_plus_uconst 0x32]
    1856                      .dwattr $C$DW$223, DW_AT_accessibility(DW_ACCESS_public)
    1857              $C$DW$224       .dwtag  DW_TAG_member
    1858                      .dwattr $C$DW$224, DW_AT_type(*$C$DW$T$20)
    1859                      .dwattr $C$DW$224, DW_AT_name("ESCR")
    1860                      .dwattr $C$DW$224, DW_AT_TI_symbol_name("_ESCR")
TMS320C55x Assembler PC v4.4.1 Sat Sep 29 23:09:11 2018

Tools Copyright (c) 1996-2012 Texas Instruments Incorporated
csl_lcdc_DmaPolledExample.asm                                        PAGE   45

    1861                      .dwattr $C$DW$224, DW_AT_data_member_location[DW_OP_plus_uconst 0x33]
    1862                      .dwattr $C$DW$224, DW_AT_accessibility(DW_ACCESS_public)
    1863              $C$DW$225       .dwtag  DW_TAG_member
    1864                      .dwattr $C$DW$225, DW_AT_type(*$C$DW$T$21)
    1865                      .dwattr $C$DW$225, DW_AT_name("RSVD7")
    1866                      .dwattr $C$DW$225, DW_AT_TI_symbol_name("_RSVD7")
    1867                      .dwattr $C$DW$225, DW_AT_data_member_location[DW_OP_plus_uconst 0x34]
    1868                      .dwattr $C$DW$225, DW_AT_accessibility(DW_ACCESS_public)
    1869              $C$DW$226       .dwtag  DW_TAG_member
    1870                      .dwattr $C$DW$226, DW_AT_type(*$C$DW$T$20)
    1871                      .dwattr $C$DW$226, DW_AT_name("DMA2CESR1")
    1872                      .dwattr $C$DW$226, DW_AT_TI_symbol_name("_DMA2CESR1")
    1873                      .dwattr $C$DW$226, DW_AT_data_member_location[DW_OP_plus_uconst 0x36]
    1874                      .dwattr $C$DW$226, DW_AT_accessibility(DW_ACCESS_public)
    1875              $C$DW$227       .dwtag  DW_TAG_member
    1876                      .dwattr $C$DW$227, DW_AT_type(*$C$DW$T$20)
    1877                      .dwattr $C$DW$227, DW_AT_name("DMA2CESR2")
    1878                      .dwattr $C$DW$227, DW_AT_TI_symbol_name("_DMA2CESR2")
    1879                      .dwattr $C$DW$227, DW_AT_data_member_location[DW_OP_plus_uconst 0x37]
    1880                      .dwattr $C$DW$227, DW_AT_accessibility(DW_ACCESS_public)
    1881              $C$DW$228       .dwtag  DW_TAG_member
    1882                      .dwattr $C$DW$228, DW_AT_type(*$C$DW$T$20)
    1883                      .dwattr $C$DW$228, DW_AT_name("DMA3CESR1")
    1884                      .dwattr $C$DW$228, DW_AT_TI_symbol_name("_DMA3CESR1")
    1885                      .dwattr $C$DW$228, DW_AT_data_member_location[DW_OP_plus_uconst 0x38]
    1886                      .dwattr $C$DW$228, DW_AT_accessibility(DW_ACCESS_public)
    1887              $C$DW$229       .dwtag  DW_TAG_member
    1888                      .dwattr $C$DW$229, DW_AT_type(*$C$DW$T$20)
    1889                      .dwattr $C$DW$229, DW_AT_name("DMA3CESR2")
    1890                      .dwattr $C$DW$229, DW_AT_TI_symbol_name("_DMA3CESR2")
    1891                      .dwattr $C$DW$229, DW_AT_data_member_location[DW_OP_plus_uconst 0x39]
    1892                      .dwattr $C$DW$229, DW_AT_accessibility(DW_ACCESS_public)
    1893              $C$DW$230       .dwtag  DW_TAG_member
    1894                      .dwattr $C$DW$230, DW_AT_type(*$C$DW$T$20)
    1895                      .dwattr $C$DW$230, DW_AT_name("CLKSTOP")
    1896                      .dwattr $C$DW$230, DW_AT_TI_symbol_name("_CLKSTOP")
    1897                      .dwattr $C$DW$230, DW_AT_data_member_location[DW_OP_plus_uconst 0x3a]
    1898                      .dwattr $C$DW$230, DW_AT_accessibility(DW_ACCESS_public)
    1899              $C$DW$231       .dwtag  DW_TAG_member
    1900                      .dwattr $C$DW$231, DW_AT_type(*$C$DW$T$52)
    1901                      .dwattr $C$DW$231, DW_AT_name("RSVD8")
    1902                      .dwattr $C$DW$231, DW_AT_TI_symbol_name("_RSVD8")
    1903                      .dwattr $C$DW$231, DW_AT_data_member_location[DW_OP_plus_uconst 0x3b]
    1904                      .dwattr $C$DW$231, DW_AT_accessibility(DW_ACCESS_public)
    1905              $C$DW$232       .dwtag  DW_TAG_member
    1906                      .dwattr $C$DW$232, DW_AT_type(*$C$DW$T$20)
    1907                      .dwattr $C$DW$232, DW_AT_name("DIEIDR0")
    1908                      .dwattr $C$DW$232, DW_AT_TI_symbol_name("_DIEIDR0")
    1909                      .dwattr $C$DW$232, DW_AT_data_member_location[DW_OP_plus_uconst 0x40]
    1910                      .dwattr $C$DW$232, DW_AT_accessibility(DW_ACCESS_public)
    1911              $C$DW$233       .dwtag  DW_TAG_member
    1912                      .dwattr $C$DW$233, DW_AT_type(*$C$DW$T$20)
    1913                      .dwattr $C$DW$233, DW_AT_name("DIEIDR1")
    1914                      .dwattr $C$DW$233, DW_AT_TI_symbol_name("_DIEIDR1")
    1915                      .dwattr $C$DW$233, DW_AT_data_member_location[DW_OP_plus_uconst 0x41]
TMS320C55x Assembler PC v4.4.1 Sat Sep 29 23:09:11 2018

Tools Copyright (c) 1996-2012 Texas Instruments Incorporated
csl_lcdc_DmaPolledExample.asm                                        PAGE   46

    1916                      .dwattr $C$DW$233, DW_AT_accessibility(DW_ACCESS_public)
    1917              $C$DW$234       .dwtag  DW_TAG_member
    1918                      .dwattr $C$DW$234, DW_AT_type(*$C$DW$T$20)
    1919                      .dwattr $C$DW$234, DW_AT_name("DIEIDR2")
    1920                      .dwattr $C$DW$234, DW_AT_TI_symbol_name("_DIEIDR2")
    1921                      .dwattr $C$DW$234, DW_AT_data_member_location[DW_OP_plus_uconst 0x42]
    1922                      .dwattr $C$DW$234, DW_AT_accessibility(DW_ACCESS_public)
    1923              $C$DW$235       .dwtag  DW_TAG_member
    1924                      .dwattr $C$DW$235, DW_AT_type(*$C$DW$T$20)
    1925                      .dwattr $C$DW$235, DW_AT_name("DIEIDR3")
    1926                      .dwattr $C$DW$235, DW_AT_TI_symbol_name("_DIEIDR3")
    1927                      .dwattr $C$DW$235, DW_AT_data_member_location[DW_OP_plus_uconst 0x43]
    1928                      .dwattr $C$DW$235, DW_AT_accessibility(DW_ACCESS_public)
    1929              $C$DW$236       .dwtag  DW_TAG_member
    1930                      .dwattr $C$DW$236, DW_AT_type(*$C$DW$T$20)
    1931                      .dwattr $C$DW$236, DW_AT_name("DIEIDR4")
    1932                      .dwattr $C$DW$236, DW_AT_TI_symbol_name("_DIEIDR4")
    1933                      .dwattr $C$DW$236, DW_AT_data_member_location[DW_OP_plus_uconst 0x44]
    1934                      .dwattr $C$DW$236, DW_AT_accessibility(DW_ACCESS_public)
    1935              $C$DW$237       .dwtag  DW_TAG_member
    1936                      .dwattr $C$DW$237, DW_AT_type(*$C$DW$T$20)
    1937                      .dwattr $C$DW$237, DW_AT_name("DIEIDR5")
    1938                      .dwattr $C$DW$237, DW_AT_TI_symbol_name("_DIEIDR5")
    1939                      .dwattr $C$DW$237, DW_AT_data_member_location[DW_OP_plus_uconst 0x45]
    1940                      .dwattr $C$DW$237, DW_AT_accessibility(DW_ACCESS_public)
    1941              $C$DW$238       .dwtag  DW_TAG_member
    1942                      .dwattr $C$DW$238, DW_AT_type(*$C$DW$T$20)
    1943                      .dwattr $C$DW$238, DW_AT_name("DIEIDR6")
    1944                      .dwattr $C$DW$238, DW_AT_TI_symbol_name("_DIEIDR6")
    1945                      .dwattr $C$DW$238, DW_AT_data_member_location[DW_OP_plus_uconst 0x46]
    1946                      .dwattr $C$DW$238, DW_AT_accessibility(DW_ACCESS_public)
    1947              $C$DW$239       .dwtag  DW_TAG_member
    1948                      .dwattr $C$DW$239, DW_AT_type(*$C$DW$T$20)
    1949                      .dwattr $C$DW$239, DW_AT_name("DIEIDR7")
    1950                      .dwattr $C$DW$239, DW_AT_TI_symbol_name("_DIEIDR7")
    1951                      .dwattr $C$DW$239, DW_AT_data_member_location[DW_OP_plus_uconst 0x47]
    1952                      .dwattr $C$DW$239, DW_AT_accessibility(DW_ACCESS_public)
    1953                      .dwendtag $C$DW$T$53
    1954              
    1955              $C$DW$T$67      .dwtag  DW_TAG_typedef, DW_AT_name("CSL_SysRegs")
    1956                      .dwattr $C$DW$T$67, DW_AT_type(*$C$DW$T$53)
    1957                      .dwattr $C$DW$T$67, DW_AT_language(DW_LANG_C)
    1958              $C$DW$240       .dwtag  DW_TAG_TI_far_type
    1959                      .dwattr $C$DW$240, DW_AT_type(*$C$DW$T$67)
    1960              $C$DW$241       .dwtag  DW_TAG_TI_ioport_type
    1961                      .dwattr $C$DW$241, DW_AT_type(*$C$DW$240)
    1962              $C$DW$T$68      .dwtag  DW_TAG_volatile_type
    1963                      .dwattr $C$DW$T$68, DW_AT_type(*$C$DW$241)
    1964              $C$DW$T$69      .dwtag  DW_TAG_pointer_type
    1965                      .dwattr $C$DW$T$69, DW_AT_type(*$C$DW$T$68)
    1966                      .dwattr $C$DW$T$69, DW_AT_address_class(0x10)
    1967              $C$DW$T$70      .dwtag  DW_TAG_typedef, DW_AT_name("CSL_SysRegsOvly")
    1968                      .dwattr $C$DW$T$70, DW_AT_type(*$C$DW$T$69)
    1969                      .dwattr $C$DW$T$70, DW_AT_language(DW_LANG_C)
    1970              
TMS320C55x Assembler PC v4.4.1 Sat Sep 29 23:09:11 2018

Tools Copyright (c) 1996-2012 Texas Instruments Incorporated
csl_lcdc_DmaPolledExample.asm                                        PAGE   47

    1971              $C$DW$T$55      .dwtag  DW_TAG_structure_type
    1972                      .dwattr $C$DW$T$55, DW_AT_byte_size(0x12)
    1973              $C$DW$242       .dwtag  DW_TAG_member
    1974                      .dwattr $C$DW$242, DW_AT_type(*$C$DW$T$54)
    1975                      .dwattr $C$DW$242, DW_AT_name("RSVD0")
    1976                      .dwattr $C$DW$242, DW_AT_TI_symbol_name("_RSVD0")
    1977                      .dwattr $C$DW$242, DW_AT_data_member_location[DW_OP_plus_uconst 0x0]
    1978                      .dwattr $C$DW$242, DW_AT_accessibility(DW_ACCESS_public)
    1979              $C$DW$243       .dwtag  DW_TAG_member
    1980                      .dwattr $C$DW$243, DW_AT_type(*$C$DW$T$20)
    1981                      .dwattr $C$DW$243, DW_AT_name("IODIR1")
    1982                      .dwattr $C$DW$243, DW_AT_TI_symbol_name("_IODIR1")
    1983                      .dwattr $C$DW$243, DW_AT_data_member_location[DW_OP_plus_uconst 0x6]
    1984                      .dwattr $C$DW$243, DW_AT_accessibility(DW_ACCESS_public)
    1985              $C$DW$244       .dwtag  DW_TAG_member
    1986                      .dwattr $C$DW$244, DW_AT_type(*$C$DW$T$20)
    1987                      .dwattr $C$DW$244, DW_AT_name("IODIR2")
    1988                      .dwattr $C$DW$244, DW_AT_TI_symbol_name("_IODIR2")
    1989                      .dwattr $C$DW$244, DW_AT_data_member_location[DW_OP_plus_uconst 0x7]
    1990                      .dwattr $C$DW$244, DW_AT_accessibility(DW_ACCESS_public)
    1991              $C$DW$245       .dwtag  DW_TAG_member
    1992                      .dwattr $C$DW$245, DW_AT_type(*$C$DW$T$20)
    1993                      .dwattr $C$DW$245, DW_AT_name("IOINDATA1")
    1994                      .dwattr $C$DW$245, DW_AT_TI_symbol_name("_IOINDATA1")
    1995                      .dwattr $C$DW$245, DW_AT_data_member_location[DW_OP_plus_uconst 0x8]
    1996                      .dwattr $C$DW$245, DW_AT_accessibility(DW_ACCESS_public)
    1997              $C$DW$246       .dwtag  DW_TAG_member
    1998                      .dwattr $C$DW$246, DW_AT_type(*$C$DW$T$20)
    1999                      .dwattr $C$DW$246, DW_AT_name("IOINDATA2")
    2000                      .dwattr $C$DW$246, DW_AT_TI_symbol_name("_IOINDATA2")
    2001                      .dwattr $C$DW$246, DW_AT_data_member_location[DW_OP_plus_uconst 0x9]
    2002                      .dwattr $C$DW$246, DW_AT_accessibility(DW_ACCESS_public)
    2003              $C$DW$247       .dwtag  DW_TAG_member
    2004                      .dwattr $C$DW$247, DW_AT_type(*$C$DW$T$20)
    2005                      .dwattr $C$DW$247, DW_AT_name("IOOUTDATA1")
    2006                      .dwattr $C$DW$247, DW_AT_TI_symbol_name("_IOOUTDATA1")
    2007                      .dwattr $C$DW$247, DW_AT_data_member_location[DW_OP_plus_uconst 0xa]
    2008                      .dwattr $C$DW$247, DW_AT_accessibility(DW_ACCESS_public)
    2009              $C$DW$248       .dwtag  DW_TAG_member
    2010                      .dwattr $C$DW$248, DW_AT_type(*$C$DW$T$20)
    2011                      .dwattr $C$DW$248, DW_AT_name("IOOUTDATA2")
    2012                      .dwattr $C$DW$248, DW_AT_TI_symbol_name("_IOOUTDATA2")
    2013                      .dwattr $C$DW$248, DW_AT_data_member_location[DW_OP_plus_uconst 0xb]
    2014                      .dwattr $C$DW$248, DW_AT_accessibility(DW_ACCESS_public)
    2015              $C$DW$249       .dwtag  DW_TAG_member
    2016                      .dwattr $C$DW$249, DW_AT_type(*$C$DW$T$20)
    2017                      .dwattr $C$DW$249, DW_AT_name("IOINTEDG1")
    2018                      .dwattr $C$DW$249, DW_AT_TI_symbol_name("_IOINTEDG1")
    2019                      .dwattr $C$DW$249, DW_AT_data_member_location[DW_OP_plus_uconst 0xc]
    2020                      .dwattr $C$DW$249, DW_AT_accessibility(DW_ACCESS_public)
    2021              $C$DW$250       .dwtag  DW_TAG_member
    2022                      .dwattr $C$DW$250, DW_AT_type(*$C$DW$T$20)
    2023                      .dwattr $C$DW$250, DW_AT_name("IOINTEDG2")
    2024                      .dwattr $C$DW$250, DW_AT_TI_symbol_name("_IOINTEDG2")
    2025                      .dwattr $C$DW$250, DW_AT_data_member_location[DW_OP_plus_uconst 0xd]
TMS320C55x Assembler PC v4.4.1 Sat Sep 29 23:09:11 2018

Tools Copyright (c) 1996-2012 Texas Instruments Incorporated
csl_lcdc_DmaPolledExample.asm                                        PAGE   48

    2026                      .dwattr $C$DW$250, DW_AT_accessibility(DW_ACCESS_public)
    2027              $C$DW$251       .dwtag  DW_TAG_member
    2028                      .dwattr $C$DW$251, DW_AT_type(*$C$DW$T$20)
    2029                      .dwattr $C$DW$251, DW_AT_name("IOINTEN1")
    2030                      .dwattr $C$DW$251, DW_AT_TI_symbol_name("_IOINTEN1")
    2031                      .dwattr $C$DW$251, DW_AT_data_member_location[DW_OP_plus_uconst 0xe]
    2032                      .dwattr $C$DW$251, DW_AT_accessibility(DW_ACCESS_public)
    2033              $C$DW$252       .dwtag  DW_TAG_member
    2034                      .dwattr $C$DW$252, DW_AT_type(*$C$DW$T$20)
    2035                      .dwattr $C$DW$252, DW_AT_name("IOINTEN2")
    2036                      .dwattr $C$DW$252, DW_AT_TI_symbol_name("_IOINTEN2")
    2037                      .dwattr $C$DW$252, DW_AT_data_member_location[DW_OP_plus_uconst 0xf]
    2038                      .dwattr $C$DW$252, DW_AT_accessibility(DW_ACCESS_public)
    2039              $C$DW$253       .dwtag  DW_TAG_member
    2040                      .dwattr $C$DW$253, DW_AT_type(*$C$DW$T$20)
    2041                      .dwattr $C$DW$253, DW_AT_name("IOINTFLG1")
    2042                      .dwattr $C$DW$253, DW_AT_TI_symbol_name("_IOINTFLG1")
    2043                      .dwattr $C$DW$253, DW_AT_data_member_location[DW_OP_plus_uconst 0x10]
    2044                      .dwattr $C$DW$253, DW_AT_accessibility(DW_ACCESS_public)
    2045              $C$DW$254       .dwtag  DW_TAG_member
    2046                      .dwattr $C$DW$254, DW_AT_type(*$C$DW$T$20)
    2047                      .dwattr $C$DW$254, DW_AT_name("IOINTFLG2")
    2048                      .dwattr $C$DW$254, DW_AT_TI_symbol_name("_IOINTFLG2")
    2049                      .dwattr $C$DW$254, DW_AT_data_member_location[DW_OP_plus_uconst 0x11]
    2050                      .dwattr $C$DW$254, DW_AT_accessibility(DW_ACCESS_public)
    2051                      .dwendtag $C$DW$T$55
    2052              
    2053              $C$DW$T$71      .dwtag  DW_TAG_typedef, DW_AT_name("CSL_GpioRegs")
    2054                      .dwattr $C$DW$T$71, DW_AT_type(*$C$DW$T$55)
    2055                      .dwattr $C$DW$T$71, DW_AT_language(DW_LANG_C)
    2056              $C$DW$255       .dwtag  DW_TAG_TI_far_type
    2057                      .dwattr $C$DW$255, DW_AT_type(*$C$DW$T$71)
    2058              $C$DW$256       .dwtag  DW_TAG_TI_ioport_type
    2059                      .dwattr $C$DW$256, DW_AT_type(*$C$DW$255)
    2060              $C$DW$T$72      .dwtag  DW_TAG_volatile_type
    2061                      .dwattr $C$DW$T$72, DW_AT_type(*$C$DW$256)
    2062              $C$DW$T$73      .dwtag  DW_TAG_pointer_type
    2063                      .dwattr $C$DW$T$73, DW_AT_type(*$C$DW$T$72)
    2064                      .dwattr $C$DW$T$73, DW_AT_address_class(0x10)
    2065              $C$DW$T$74      .dwtag  DW_TAG_typedef, DW_AT_name("CSL_GpioRegsOvly")
    2066                      .dwattr $C$DW$T$74, DW_AT_type(*$C$DW$T$73)
    2067                      .dwattr $C$DW$T$74, DW_AT_language(DW_LANG_C)
    2068              
    2069              $C$DW$T$62      .dwtag  DW_TAG_structure_type
    2070                      .dwattr $C$DW$T$62, DW_AT_name("CSL_LcdcObj")
    2071                      .dwattr $C$DW$T$62, DW_AT_byte_size(0x02)
    2072              $C$DW$257       .dwtag  DW_TAG_member
    2073                      .dwattr $C$DW$257, DW_AT_type(*$C$DW$T$59)
    2074                      .dwattr $C$DW$257, DW_AT_name("regs")
    2075                      .dwattr $C$DW$257, DW_AT_TI_symbol_name("_regs")
    2076                      .dwattr $C$DW$257, DW_AT_data_member_location[DW_OP_plus_uconst 0x0]
    2077                      .dwattr $C$DW$257, DW_AT_accessibility(DW_ACCESS_public)
    2078              $C$DW$258       .dwtag  DW_TAG_member
    2079                      .dwattr $C$DW$258, DW_AT_type(*$C$DW$T$61)
    2080                      .dwattr $C$DW$258, DW_AT_name("perNum")
TMS320C55x Assembler PC v4.4.1 Sat Sep 29 23:09:11 2018

Tools Copyright (c) 1996-2012 Texas Instruments Incorporated
csl_lcdc_DmaPolledExample.asm                                        PAGE   49

    2081                      .dwattr $C$DW$258, DW_AT_TI_symbol_name("_perNum")
    2082                      .dwattr $C$DW$258, DW_AT_data_member_location[DW_OP_plus_uconst 0x1]
    2083                      .dwattr $C$DW$258, DW_AT_accessibility(DW_ACCESS_public)
    2084                      .dwendtag $C$DW$T$62
    2085              
    2086              $C$DW$T$75      .dwtag  DW_TAG_typedef, DW_AT_name("CSL_LcdcObj")
    2087                      .dwattr $C$DW$T$75, DW_AT_type(*$C$DW$T$62)
    2088                      .dwattr $C$DW$T$75, DW_AT_language(DW_LANG_C)
    2089              $C$DW$T$76      .dwtag  DW_TAG_pointer_type
    2090                      .dwattr $C$DW$T$76, DW_AT_type(*$C$DW$T$75)
    2091                      .dwattr $C$DW$T$76, DW_AT_address_class(0x17)
    2092              $C$DW$T$77      .dwtag  DW_TAG_typedef, DW_AT_name("CSL_LcdcHandle")
    2093                      .dwattr $C$DW$T$77, DW_AT_type(*$C$DW$T$76)
    2094                      .dwattr $C$DW$T$77, DW_AT_language(DW_LANG_C)
    2095              $C$DW$T$3       .dwtag  DW_TAG_pointer_type
    2096                      .dwattr $C$DW$T$3, DW_AT_address_class(0x17)
    2097              $C$DW$T$4       .dwtag  DW_TAG_base_type
    2098                      .dwattr $C$DW$T$4, DW_AT_encoding(DW_ATE_boolean)
    2099                      .dwattr $C$DW$T$4, DW_AT_name("bool")
    2100                      .dwattr $C$DW$T$4, DW_AT_byte_size(0x01)
    2101              $C$DW$T$5       .dwtag  DW_TAG_base_type
    2102                      .dwattr $C$DW$T$5, DW_AT_encoding(DW_ATE_signed_char)
    2103                      .dwattr $C$DW$T$5, DW_AT_name("signed char")
    2104                      .dwattr $C$DW$T$5, DW_AT_byte_size(0x01)
    2105              $C$DW$T$6       .dwtag  DW_TAG_base_type
    2106                      .dwattr $C$DW$T$6, DW_AT_encoding(DW_ATE_unsigned_char)
    2107                      .dwattr $C$DW$T$6, DW_AT_name("unsigned char")
    2108                      .dwattr $C$DW$T$6, DW_AT_byte_size(0x01)
    2109              $C$DW$T$7       .dwtag  DW_TAG_base_type
    2110                      .dwattr $C$DW$T$7, DW_AT_encoding(DW_ATE_signed_char)
    2111                      .dwattr $C$DW$T$7, DW_AT_name("wchar_t")
    2112                      .dwattr $C$DW$T$7, DW_AT_byte_size(0x01)
    2113              $C$DW$T$8       .dwtag  DW_TAG_base_type
    2114                      .dwattr $C$DW$T$8, DW_AT_encoding(DW_ATE_signed)
    2115                      .dwattr $C$DW$T$8, DW_AT_name("short")
    2116                      .dwattr $C$DW$T$8, DW_AT_byte_size(0x01)
    2117              $C$DW$T$60      .dwtag  DW_TAG_typedef, DW_AT_name("Int16")
    2118                      .dwattr $C$DW$T$60, DW_AT_type(*$C$DW$T$8)
    2119                      .dwattr $C$DW$T$60, DW_AT_language(DW_LANG_C)
    2120              $C$DW$T$61      .dwtag  DW_TAG_typedef, DW_AT_name("CSL_InstNum")
    2121                      .dwattr $C$DW$T$61, DW_AT_type(*$C$DW$T$60)
    2122                      .dwattr $C$DW$T$61, DW_AT_language(DW_LANG_C)
    2123              $C$DW$T$78      .dwtag  DW_TAG_typedef, DW_AT_name("CSL_Status")
    2124                      .dwattr $C$DW$T$78, DW_AT_type(*$C$DW$T$60)
    2125                      .dwattr $C$DW$T$78, DW_AT_language(DW_LANG_C)
    2126              $C$DW$T$79      .dwtag  DW_TAG_pointer_type
    2127                      .dwattr $C$DW$T$79, DW_AT_type(*$C$DW$T$78)
    2128                      .dwattr $C$DW$T$79, DW_AT_address_class(0x17)
    2129              $C$DW$259       .dwtag  DW_TAG_TI_far_type
    2130                      .dwattr $C$DW$259, DW_AT_type(*$C$DW$T$60)
    2131              $C$DW$T$98      .dwtag  DW_TAG_volatile_type
    2132                      .dwattr $C$DW$T$98, DW_AT_type(*$C$DW$259)
    2133              $C$DW$T$9       .dwtag  DW_TAG_base_type
    2134                      .dwattr $C$DW$T$9, DW_AT_encoding(DW_ATE_unsigned)
    2135                      .dwattr $C$DW$T$9, DW_AT_name("unsigned short")
TMS320C55x Assembler PC v4.4.1 Sat Sep 29 23:09:11 2018

Tools Copyright (c) 1996-2012 Texas Instruments Incorporated
csl_lcdc_DmaPolledExample.asm                                        PAGE   50

    2136                      .dwattr $C$DW$T$9, DW_AT_byte_size(0x01)
    2137              $C$DW$T$19      .dwtag  DW_TAG_typedef, DW_AT_name("Uint16")
    2138                      .dwattr $C$DW$T$19, DW_AT_type(*$C$DW$T$9)
    2139                      .dwattr $C$DW$T$19, DW_AT_language(DW_LANG_C)
    2140              $C$DW$T$31      .dwtag  DW_TAG_typedef, DW_AT_name("CSL_BitMask16")
    2141                      .dwattr $C$DW$T$31, DW_AT_type(*$C$DW$T$19)
    2142                      .dwattr $C$DW$T$31, DW_AT_language(DW_LANG_C)
    2143              $C$DW$260       .dwtag  DW_TAG_TI_far_type
    2144                      .dwattr $C$DW$260, DW_AT_type(*$C$DW$T$19)
    2145              $C$DW$T$20      .dwtag  DW_TAG_volatile_type
    2146                      .dwattr $C$DW$T$20, DW_AT_type(*$C$DW$260)
    2147              
    2148              $C$DW$T$21      .dwtag  DW_TAG_array_type
    2149                      .dwattr $C$DW$T$21, DW_AT_type(*$C$DW$T$20)
    2150                      .dwattr $C$DW$T$21, DW_AT_language(DW_LANG_C)
    2151                      .dwattr $C$DW$T$21, DW_AT_byte_size(0x02)
    2152              $C$DW$261       .dwtag  DW_TAG_subrange_type
    2153                      .dwattr $C$DW$261, DW_AT_upper_bound(0x01)
    2154                      .dwendtag $C$DW$T$21
    2155              
    2156              
    2157              $C$DW$T$22      .dwtag  DW_TAG_array_type
    2158                      .dwattr $C$DW$T$22, DW_AT_type(*$C$DW$T$20)
    2159                      .dwattr $C$DW$T$22, DW_AT_language(DW_LANG_C)
    2160                      .dwattr $C$DW$T$22, DW_AT_byte_size(0x03)
    2161              $C$DW$262       .dwtag  DW_TAG_subrange_type
    2162                      .dwattr $C$DW$262, DW_AT_upper_bound(0x02)
    2163                      .dwendtag $C$DW$T$22
    2164              
    2165              
    2166              $C$DW$T$23      .dwtag  DW_TAG_array_type
    2167                      .dwattr $C$DW$T$23, DW_AT_type(*$C$DW$T$20)
    2168                      .dwattr $C$DW$T$23, DW_AT_language(DW_LANG_C)
    2169                      .dwattr $C$DW$T$23, DW_AT_byte_size(0x1b)
    2170              $C$DW$263       .dwtag  DW_TAG_subrange_type
    2171                      .dwattr $C$DW$263, DW_AT_upper_bound(0x1a)
    2172                      .dwendtag $C$DW$T$23
    2173              
    2174              
    2175              $C$DW$T$51      .dwtag  DW_TAG_array_type
    2176                      .dwattr $C$DW$T$51, DW_AT_type(*$C$DW$T$20)
    2177                      .dwattr $C$DW$T$51, DW_AT_language(DW_LANG_C)
    2178                      .dwattr $C$DW$T$51, DW_AT_byte_size(0x0e)
    2179              $C$DW$264       .dwtag  DW_TAG_subrange_type
    2180                      .dwattr $C$DW$264, DW_AT_upper_bound(0x0d)
    2181                      .dwendtag $C$DW$T$51
    2182              
    2183              
    2184              $C$DW$T$52      .dwtag  DW_TAG_array_type
    2185                      .dwattr $C$DW$T$52, DW_AT_type(*$C$DW$T$20)
    2186                      .dwattr $C$DW$T$52, DW_AT_language(DW_LANG_C)
    2187                      .dwattr $C$DW$T$52, DW_AT_byte_size(0x05)
    2188              $C$DW$265       .dwtag  DW_TAG_subrange_type
    2189                      .dwattr $C$DW$265, DW_AT_upper_bound(0x04)
    2190                      .dwendtag $C$DW$T$52
TMS320C55x Assembler PC v4.4.1 Sat Sep 29 23:09:11 2018

Tools Copyright (c) 1996-2012 Texas Instruments Incorporated
csl_lcdc_DmaPolledExample.asm                                        PAGE   51

    2191              
    2192              
    2193              $C$DW$T$54      .dwtag  DW_TAG_array_type
    2194                      .dwattr $C$DW$T$54, DW_AT_type(*$C$DW$T$20)
    2195                      .dwattr $C$DW$T$54, DW_AT_language(DW_LANG_C)
    2196                      .dwattr $C$DW$T$54, DW_AT_byte_size(0x06)
    2197              $C$DW$266       .dwtag  DW_TAG_subrange_type
    2198                      .dwattr $C$DW$266, DW_AT_upper_bound(0x05)
    2199                      .dwendtag $C$DW$T$54
    2200              
    2201              
    2202              $C$DW$T$104     .dwtag  DW_TAG_array_type
    2203                      .dwattr $C$DW$T$104, DW_AT_type(*$C$DW$T$19)
    2204                      .dwattr $C$DW$T$104, DW_AT_language(DW_LANG_C)
    2205                      .dwattr $C$DW$T$104, DW_AT_byte_size(0x4000)
    2206              $C$DW$267       .dwtag  DW_TAG_subrange_type
    2207                      .dwattr $C$DW$267, DW_AT_upper_bound(0x3fff)
    2208                      .dwendtag $C$DW$T$104
    2209              
    2210              $C$DW$T$10      .dwtag  DW_TAG_base_type
    2211                      .dwattr $C$DW$T$10, DW_AT_encoding(DW_ATE_signed)
    2212                      .dwattr $C$DW$T$10, DW_AT_name("int")
    2213                      .dwattr $C$DW$T$10, DW_AT_byte_size(0x01)
    2214              $C$DW$T$11      .dwtag  DW_TAG_base_type
    2215                      .dwattr $C$DW$T$11, DW_AT_encoding(DW_ATE_unsigned)
    2216                      .dwattr $C$DW$T$11, DW_AT_name("unsigned int")
    2217                      .dwattr $C$DW$T$11, DW_AT_byte_size(0x01)
    2218              $C$DW$T$12      .dwtag  DW_TAG_base_type
    2219                      .dwattr $C$DW$T$12, DW_AT_encoding(DW_ATE_signed)
    2220                      .dwattr $C$DW$T$12, DW_AT_name("long")
    2221                      .dwattr $C$DW$T$12, DW_AT_byte_size(0x02)
    2222              $C$DW$T$13      .dwtag  DW_TAG_base_type
    2223                      .dwattr $C$DW$T$13, DW_AT_encoding(DW_ATE_unsigned)
    2224                      .dwattr $C$DW$T$13, DW_AT_name("unsigned long")
    2225                      .dwattr $C$DW$T$13, DW_AT_byte_size(0x02)
    2226              $C$DW$T$49      .dwtag  DW_TAG_typedef, DW_AT_name("Uint32")
    2227                      .dwattr $C$DW$T$49, DW_AT_type(*$C$DW$T$13)
    2228                      .dwattr $C$DW$T$49, DW_AT_language(DW_LANG_C)
    2229              $C$DW$T$14      .dwtag  DW_TAG_base_type
    2230                      .dwattr $C$DW$T$14, DW_AT_encoding(DW_ATE_signed)
    2231                      .dwattr $C$DW$T$14, DW_AT_name("long long")
    2232                      .dwattr $C$DW$T$14, DW_AT_byte_size(0x04)
    2233                      .dwattr $C$DW$T$14, DW_AT_bit_size(0x28)
    2234                      .dwattr $C$DW$T$14, DW_AT_bit_offset(0x18)
    2235              $C$DW$T$15      .dwtag  DW_TAG_base_type
    2236                      .dwattr $C$DW$T$15, DW_AT_encoding(DW_ATE_unsigned)
    2237                      .dwattr $C$DW$T$15, DW_AT_name("unsigned long long")
    2238                      .dwattr $C$DW$T$15, DW_AT_byte_size(0x04)
    2239                      .dwattr $C$DW$T$15, DW_AT_bit_size(0x28)
    2240                      .dwattr $C$DW$T$15, DW_AT_bit_offset(0x18)
    2241              $C$DW$T$16      .dwtag  DW_TAG_base_type
    2242                      .dwattr $C$DW$T$16, DW_AT_encoding(DW_ATE_float)
    2243                      .dwattr $C$DW$T$16, DW_AT_name("float")
    2244                      .dwattr $C$DW$T$16, DW_AT_byte_size(0x02)
    2245              $C$DW$T$17      .dwtag  DW_TAG_base_type
TMS320C55x Assembler PC v4.4.1 Sat Sep 29 23:09:11 2018

Tools Copyright (c) 1996-2012 Texas Instruments Incorporated
csl_lcdc_DmaPolledExample.asm                                        PAGE   52

    2246                      .dwattr $C$DW$T$17, DW_AT_encoding(DW_ATE_float)
    2247                      .dwattr $C$DW$T$17, DW_AT_name("double")
    2248                      .dwattr $C$DW$T$17, DW_AT_byte_size(0x02)
    2249              $C$DW$T$18      .dwtag  DW_TAG_base_type
    2250                      .dwattr $C$DW$T$18, DW_AT_encoding(DW_ATE_float)
    2251                      .dwattr $C$DW$T$18, DW_AT_name("long double")
    2252                      .dwattr $C$DW$T$18, DW_AT_byte_size(0x02)
    2253              $C$DW$T$107     .dwtag  DW_TAG_base_type
    2254                      .dwattr $C$DW$T$107, DW_AT_encoding(DW_ATE_signed_char)
    2255                      .dwattr $C$DW$T$107, DW_AT_name("signed char")
    2256                      .dwattr $C$DW$T$107, DW_AT_byte_size(0x01)
    2257              $C$DW$268       .dwtag  DW_TAG_TI_far_type
    2258                      .dwattr $C$DW$268, DW_AT_type(*$C$DW$T$107)
    2259              $C$DW$T$108     .dwtag  DW_TAG_const_type
    2260                      .dwattr $C$DW$T$108, DW_AT_type(*$C$DW$268)
    2261              $C$DW$T$109     .dwtag  DW_TAG_pointer_type
    2262                      .dwattr $C$DW$T$109, DW_AT_type(*$C$DW$T$108)
    2263                      .dwattr $C$DW$T$109, DW_AT_address_class(0x17)
    2264                      .dwattr $C$DW$CU, DW_AT_language(DW_LANG_C)
    2265              
    2266              ;***************************************************************
    2267              ;* DWARF CIE ENTRIES                                           *
    2268              ;***************************************************************
    2269              
    2270              $C$DW$CIE       .dwcie 91
    2271                      .dwcfi  cfa_register, 36
    2272                      .dwcfi  cfa_offset, 0
    2273                      .dwcfi  undefined, 0
    2274                      .dwcfi  undefined, 1
    2275                      .dwcfi  undefined, 2
    2276                      .dwcfi  undefined, 3
    2277                      .dwcfi  undefined, 4
    2278                      .dwcfi  undefined, 5
    2279                      .dwcfi  undefined, 6
    2280                      .dwcfi  undefined, 7
    2281                      .dwcfi  undefined, 8
    2282                      .dwcfi  undefined, 9
    2283                      .dwcfi  undefined, 10
    2284                      .dwcfi  undefined, 11
    2285                      .dwcfi  undefined, 12
    2286                      .dwcfi  undefined, 13
    2287                      .dwcfi  same_value, 14
    2288                      .dwcfi  same_value, 15
    2289                      .dwcfi  undefined, 16
    2290                      .dwcfi  undefined, 17
    2291                      .dwcfi  undefined, 18
    2292                      .dwcfi  undefined, 19
    2293                      .dwcfi  undefined, 20
    2294                      .dwcfi  undefined, 21
    2295                      .dwcfi  undefined, 22
    2296                      .dwcfi  undefined, 23
    2297                      .dwcfi  undefined, 24
    2298                      .dwcfi  undefined, 25
    2299                      .dwcfi  same_value, 26
    2300                      .dwcfi  same_value, 27
TMS320C55x Assembler PC v4.4.1 Sat Sep 29 23:09:11 2018

Tools Copyright (c) 1996-2012 Texas Instruments Incorporated
csl_lcdc_DmaPolledExample.asm                                        PAGE   53

    2301                      .dwcfi  same_value, 28
    2302                      .dwcfi  same_value, 29
    2303                      .dwcfi  same_value, 30
    2304                      .dwcfi  same_value, 31
    2305                      .dwcfi  undefined, 32
    2306                      .dwcfi  undefined, 33
    2307                      .dwcfi  undefined, 34
    2308                      .dwcfi  undefined, 35
    2309                      .dwcfi  undefined, 36
    2310                      .dwcfi  undefined, 37
    2311                      .dwcfi  undefined, 38
    2312                      .dwcfi  undefined, 39
    2313                      .dwcfi  undefined, 40
    2314                      .dwcfi  undefined, 41
    2315                      .dwcfi  undefined, 42
    2316                      .dwcfi  undefined, 43
    2317                      .dwcfi  undefined, 44
    2318                      .dwcfi  undefined, 45
    2319                      .dwcfi  undefined, 46
    2320                      .dwcfi  undefined, 47
    2321                      .dwcfi  undefined, 48
    2322                      .dwcfi  undefined, 49
    2323                      .dwcfi  undefined, 50
    2324                      .dwcfi  undefined, 51
    2325                      .dwcfi  undefined, 52
    2326                      .dwcfi  undefined, 53
    2327                      .dwcfi  undefined, 54
    2328                      .dwcfi  undefined, 55
    2329                      .dwcfi  undefined, 56
    2330                      .dwcfi  undefined, 57
    2331                      .dwcfi  undefined, 58
    2332                      .dwcfi  undefined, 59
    2333                      .dwcfi  undefined, 60
    2334                      .dwcfi  undefined, 61
    2335                      .dwcfi  undefined, 62
    2336                      .dwcfi  undefined, 63
    2337                      .dwcfi  undefined, 64
    2338                      .dwcfi  undefined, 65
    2339                      .dwcfi  undefined, 66
    2340                      .dwcfi  undefined, 67
    2341                      .dwcfi  undefined, 68
    2342                      .dwcfi  undefined, 69
    2343                      .dwcfi  undefined, 70
    2344                      .dwcfi  undefined, 71
    2345                      .dwcfi  undefined, 72
    2346                      .dwcfi  undefined, 73
    2347                      .dwcfi  undefined, 74
    2348                      .dwcfi  undefined, 75
    2349                      .dwcfi  undefined, 76
    2350                      .dwcfi  undefined, 77
    2351                      .dwcfi  undefined, 78
    2352                      .dwcfi  undefined, 79
    2353                      .dwcfi  undefined, 80
    2354                      .dwcfi  undefined, 81
    2355                      .dwcfi  undefined, 82
TMS320C55x Assembler PC v4.4.1 Sat Sep 29 23:09:11 2018

Tools Copyright (c) 1996-2012 Texas Instruments Incorporated
csl_lcdc_DmaPolledExample.asm                                        PAGE   54

    2356                      .dwcfi  undefined, 83
    2357                      .dwcfi  undefined, 84
    2358                      .dwcfi  undefined, 85
    2359                      .dwcfi  undefined, 86
    2360                      .dwcfi  undefined, 87
    2361                      .dwcfi  undefined, 88
    2362                      .dwcfi  undefined, 89
    2363                      .dwcfi  undefined, 90
    2364                      .dwcfi  undefined, 91
    2365                      .dwendentry
    2366              
    2367              ;***************************************************************
    2368              ;* DWARF REGISTER MAP                                          *
    2369              ;***************************************************************
    2370              
    2371              $C$DW$269       .dwtag  DW_TAG_TI_assign_register, DW_AT_name("AC0")
    2372                      .dwattr $C$DW$269, DW_AT_location[DW_OP_reg0]
    2373              $C$DW$270       .dwtag  DW_TAG_TI_assign_register, DW_AT_name("AC0")
    2374                      .dwattr $C$DW$270, DW_AT_location[DW_OP_reg1]
    2375              $C$DW$271       .dwtag  DW_TAG_TI_assign_register, DW_AT_name("AC0_G")
    2376                      .dwattr $C$DW$271, DW_AT_location[DW_OP_reg2]
    2377              $C$DW$272       .dwtag  DW_TAG_TI_assign_register, DW_AT_name("AC1")
    2378                      .dwattr $C$DW$272, DW_AT_location[DW_OP_reg3]
    2379              $C$DW$273       .dwtag  DW_TAG_TI_assign_register, DW_AT_name("AC1")
    2380                      .dwattr $C$DW$273, DW_AT_location[DW_OP_reg4]
    2381              $C$DW$274       .dwtag  DW_TAG_TI_assign_register, DW_AT_name("AC1_G")
    2382                      .dwattr $C$DW$274, DW_AT_location[DW_OP_reg5]
    2383              $C$DW$275       .dwtag  DW_TAG_TI_assign_register, DW_AT_name("AC2")
    2384                      .dwattr $C$DW$275, DW_AT_location[DW_OP_reg6]
    2385              $C$DW$276       .dwtag  DW_TAG_TI_assign_register, DW_AT_name("AC2")
    2386                      .dwattr $C$DW$276, DW_AT_location[DW_OP_reg7]
    2387              $C$DW$277       .dwtag  DW_TAG_TI_assign_register, DW_AT_name("AC2_G")
    2388                      .dwattr $C$DW$277, DW_AT_location[DW_OP_reg8]
    2389              $C$DW$278       .dwtag  DW_TAG_TI_assign_register, DW_AT_name("AC3")
    2390                      .dwattr $C$DW$278, DW_AT_location[DW_OP_reg9]
    2391              $C$DW$279       .dwtag  DW_TAG_TI_assign_register, DW_AT_name("AC3")
    2392                      .dwattr $C$DW$279, DW_AT_location[DW_OP_reg10]
    2393              $C$DW$280       .dwtag  DW_TAG_TI_assign_register, DW_AT_name("AC3_G")
    2394                      .dwattr $C$DW$280, DW_AT_location[DW_OP_reg11]
    2395              $C$DW$281       .dwtag  DW_TAG_TI_assign_register, DW_AT_name("T0")
    2396                      .dwattr $C$DW$281, DW_AT_location[DW_OP_reg12]
    2397              $C$DW$282       .dwtag  DW_TAG_TI_assign_register, DW_AT_name("T1")
    2398                      .dwattr $C$DW$282, DW_AT_location[DW_OP_reg13]
    2399              $C$DW$283       .dwtag  DW_TAG_TI_assign_register, DW_AT_name("T2")
    2400                      .dwattr $C$DW$283, DW_AT_location[DW_OP_reg14]
    2401              $C$DW$284       .dwtag  DW_TAG_TI_assign_register, DW_AT_name("T3")
    2402                      .dwattr $C$DW$284, DW_AT_location[DW_OP_reg15]
    2403              $C$DW$285       .dwtag  DW_TAG_TI_assign_register, DW_AT_name("AR0")
    2404                      .dwattr $C$DW$285, DW_AT_location[DW_OP_reg16]
    2405              $C$DW$286       .dwtag  DW_TAG_TI_assign_register, DW_AT_name("XAR0")
    2406                      .dwattr $C$DW$286, DW_AT_location[DW_OP_reg17]
    2407              $C$DW$287       .dwtag  DW_TAG_TI_assign_register, DW_AT_name("AR1")
    2408                      .dwattr $C$DW$287, DW_AT_location[DW_OP_reg18]
    2409              $C$DW$288       .dwtag  DW_TAG_TI_assign_register, DW_AT_name("XAR1")
    2410                      .dwattr $C$DW$288, DW_AT_location[DW_OP_reg19]
TMS320C55x Assembler PC v4.4.1 Sat Sep 29 23:09:11 2018

Tools Copyright (c) 1996-2012 Texas Instruments Incorporated
csl_lcdc_DmaPolledExample.asm                                        PAGE   55

    2411              $C$DW$289       .dwtag  DW_TAG_TI_assign_register, DW_AT_name("AR2")
    2412                      .dwattr $C$DW$289, DW_AT_location[DW_OP_reg20]
    2413              $C$DW$290       .dwtag  DW_TAG_TI_assign_register, DW_AT_name("XAR2")
    2414                      .dwattr $C$DW$290, DW_AT_location[DW_OP_reg21]
    2415              $C$DW$291       .dwtag  DW_TAG_TI_assign_register, DW_AT_name("AR3")
    2416                      .dwattr $C$DW$291, DW_AT_location[DW_OP_reg22]
    2417              $C$DW$292       .dwtag  DW_TAG_TI_assign_register, DW_AT_name("XAR3")
    2418                      .dwattr $C$DW$292, DW_AT_location[DW_OP_reg23]
    2419              $C$DW$293       .dwtag  DW_TAG_TI_assign_register, DW_AT_name("AR4")
    2420                      .dwattr $C$DW$293, DW_AT_location[DW_OP_reg24]
    2421              $C$DW$294       .dwtag  DW_TAG_TI_assign_register, DW_AT_name("XAR4")
    2422                      .dwattr $C$DW$294, DW_AT_location[DW_OP_reg25]
    2423              $C$DW$295       .dwtag  DW_TAG_TI_assign_register, DW_AT_name("AR5")
    2424                      .dwattr $C$DW$295, DW_AT_location[DW_OP_reg26]
    2425              $C$DW$296       .dwtag  DW_TAG_TI_assign_register, DW_AT_name("XAR5")
    2426                      .dwattr $C$DW$296, DW_AT_location[DW_OP_reg27]
    2427              $C$DW$297       .dwtag  DW_TAG_TI_assign_register, DW_AT_name("AR6")
    2428                      .dwattr $C$DW$297, DW_AT_location[DW_OP_reg28]
    2429              $C$DW$298       .dwtag  DW_TAG_TI_assign_register, DW_AT_name("XAR6")
    2430                      .dwattr $C$DW$298, DW_AT_location[DW_OP_reg29]
    2431              $C$DW$299       .dwtag  DW_TAG_TI_assign_register, DW_AT_name("AR7")
    2432                      .dwattr $C$DW$299, DW_AT_location[DW_OP_reg30]
    2433              $C$DW$300       .dwtag  DW_TAG_TI_assign_register, DW_AT_name("XAR7")
    2434                      .dwattr $C$DW$300, DW_AT_location[DW_OP_reg31]
    2435              $C$DW$301       .dwtag  DW_TAG_TI_assign_register, DW_AT_name("FP")
    2436                      .dwattr $C$DW$301, DW_AT_location[DW_OP_regx 0x20]
    2437              $C$DW$302       .dwtag  DW_TAG_TI_assign_register, DW_AT_name("XFP")
    2438                      .dwattr $C$DW$302, DW_AT_location[DW_OP_regx 0x21]
    2439              $C$DW$303       .dwtag  DW_TAG_TI_assign_register, DW_AT_name("PC")
    2440                      .dwattr $C$DW$303, DW_AT_location[DW_OP_regx 0x22]
    2441              $C$DW$304       .dwtag  DW_TAG_TI_assign_register, DW_AT_name("SP")
    2442                      .dwattr $C$DW$304, DW_AT_location[DW_OP_regx 0x23]
    2443              $C$DW$305       .dwtag  DW_TAG_TI_assign_register, DW_AT_name("XSP")
    2444                      .dwattr $C$DW$305, DW_AT_location[DW_OP_regx 0x24]
    2445              $C$DW$306       .dwtag  DW_TAG_TI_assign_register, DW_AT_name("BKC")
    2446                      .dwattr $C$DW$306, DW_AT_location[DW_OP_regx 0x25]
    2447              $C$DW$307       .dwtag  DW_TAG_TI_assign_register, DW_AT_name("BK03")
    2448                      .dwattr $C$DW$307, DW_AT_location[DW_OP_regx 0x26]
    2449              $C$DW$308       .dwtag  DW_TAG_TI_assign_register, DW_AT_name("BK47")
    2450                      .dwattr $C$DW$308, DW_AT_location[DW_OP_regx 0x27]
    2451              $C$DW$309       .dwtag  DW_TAG_TI_assign_register, DW_AT_name("ST0")
    2452                      .dwattr $C$DW$309, DW_AT_location[DW_OP_regx 0x28]
    2453              $C$DW$310       .dwtag  DW_TAG_TI_assign_register, DW_AT_name("ST1")
    2454                      .dwattr $C$DW$310, DW_AT_location[DW_OP_regx 0x29]
    2455              $C$DW$311       .dwtag  DW_TAG_TI_assign_register, DW_AT_name("ST2")
    2456                      .dwattr $C$DW$311, DW_AT_location[DW_OP_regx 0x2a]
    2457              $C$DW$312       .dwtag  DW_TAG_TI_assign_register, DW_AT_name("ST3")
    2458                      .dwattr $C$DW$312, DW_AT_location[DW_OP_regx 0x2b]
    2459              $C$DW$313       .dwtag  DW_TAG_TI_assign_register, DW_AT_name("MDP")
    2460                      .dwattr $C$DW$313, DW_AT_location[DW_OP_regx 0x2c]
    2461              $C$DW$314       .dwtag  DW_TAG_TI_assign_register, DW_AT_name("MDP05")
    2462                      .dwattr $C$DW$314, DW_AT_location[DW_OP_regx 0x2d]
    2463              $C$DW$315       .dwtag  DW_TAG_TI_assign_register, DW_AT_name("MDP67")
    2464                      .dwattr $C$DW$315, DW_AT_location[DW_OP_regx 0x2e]
    2465              $C$DW$316       .dwtag  DW_TAG_TI_assign_register, DW_AT_name("BRC0")
TMS320C55x Assembler PC v4.4.1 Sat Sep 29 23:09:11 2018

Tools Copyright (c) 1996-2012 Texas Instruments Incorporated
csl_lcdc_DmaPolledExample.asm                                        PAGE   56

    2466                      .dwattr $C$DW$316, DW_AT_location[DW_OP_regx 0x2f]
    2467              $C$DW$317       .dwtag  DW_TAG_TI_assign_register, DW_AT_name("RSA0")
    2468                      .dwattr $C$DW$317, DW_AT_location[DW_OP_regx 0x30]
    2469              $C$DW$318       .dwtag  DW_TAG_TI_assign_register, DW_AT_name("RSA0_H")
    2470                      .dwattr $C$DW$318, DW_AT_location[DW_OP_regx 0x31]
    2471              $C$DW$319       .dwtag  DW_TAG_TI_assign_register, DW_AT_name("REA0")
    2472                      .dwattr $C$DW$319, DW_AT_location[DW_OP_regx 0x32]
    2473              $C$DW$320       .dwtag  DW_TAG_TI_assign_register, DW_AT_name("REA0_H")
    2474                      .dwattr $C$DW$320, DW_AT_location[DW_OP_regx 0x33]
    2475              $C$DW$321       .dwtag  DW_TAG_TI_assign_register, DW_AT_name("BRS1")
    2476                      .dwattr $C$DW$321, DW_AT_location[DW_OP_regx 0x34]
    2477              $C$DW$322       .dwtag  DW_TAG_TI_assign_register, DW_AT_name("BRC1")
    2478                      .dwattr $C$DW$322, DW_AT_location[DW_OP_regx 0x35]
    2479              $C$DW$323       .dwtag  DW_TAG_TI_assign_register, DW_AT_name("RSA1")
    2480                      .dwattr $C$DW$323, DW_AT_location[DW_OP_regx 0x36]
    2481              $C$DW$324       .dwtag  DW_TAG_TI_assign_register, DW_AT_name("RSA1_H")
    2482                      .dwattr $C$DW$324, DW_AT_location[DW_OP_regx 0x37]
    2483              $C$DW$325       .dwtag  DW_TAG_TI_assign_register, DW_AT_name("REA1")
    2484                      .dwattr $C$DW$325, DW_AT_location[DW_OP_regx 0x38]
    2485              $C$DW$326       .dwtag  DW_TAG_TI_assign_register, DW_AT_name("REA1_H")
    2486                      .dwattr $C$DW$326, DW_AT_location[DW_OP_regx 0x39]
    2487              $C$DW$327       .dwtag  DW_TAG_TI_assign_register, DW_AT_name("CSR")
    2488                      .dwattr $C$DW$327, DW_AT_location[DW_OP_regx 0x3a]
    2489              $C$DW$328       .dwtag  DW_TAG_TI_assign_register, DW_AT_name("RPTC")
    2490                      .dwattr $C$DW$328, DW_AT_location[DW_OP_regx 0x3b]
    2491              $C$DW$329       .dwtag  DW_TAG_TI_assign_register, DW_AT_name("CDP")
    2492                      .dwattr $C$DW$329, DW_AT_location[DW_OP_regx 0x3c]
    2493              $C$DW$330       .dwtag  DW_TAG_TI_assign_register, DW_AT_name("XCDP")
    2494                      .dwattr $C$DW$330, DW_AT_location[DW_OP_regx 0x3d]
    2495              $C$DW$331       .dwtag  DW_TAG_TI_assign_register, DW_AT_name("TRN0")
    2496                      .dwattr $C$DW$331, DW_AT_location[DW_OP_regx 0x3e]
    2497              $C$DW$332       .dwtag  DW_TAG_TI_assign_register, DW_AT_name("TRN1")
    2498                      .dwattr $C$DW$332, DW_AT_location[DW_OP_regx 0x3f]
    2499              $C$DW$333       .dwtag  DW_TAG_TI_assign_register, DW_AT_name("BSA01")
    2500                      .dwattr $C$DW$333, DW_AT_location[DW_OP_regx 0x40]
    2501              $C$DW$334       .dwtag  DW_TAG_TI_assign_register, DW_AT_name("BSA23")
    2502                      .dwattr $C$DW$334, DW_AT_location[DW_OP_regx 0x41]
    2503              $C$DW$335       .dwtag  DW_TAG_TI_assign_register, DW_AT_name("BSA45")
    2504                      .dwattr $C$DW$335, DW_AT_location[DW_OP_regx 0x42]
    2505              $C$DW$336       .dwtag  DW_TAG_TI_assign_register, DW_AT_name("BSA67")
    2506                      .dwattr $C$DW$336, DW_AT_location[DW_OP_regx 0x43]
    2507              $C$DW$337       .dwtag  DW_TAG_TI_assign_register, DW_AT_name("BSAC")
    2508                      .dwattr $C$DW$337, DW_AT_location[DW_OP_regx 0x44]
    2509              $C$DW$338       .dwtag  DW_TAG_TI_assign_register, DW_AT_name("CARRY")
    2510                      .dwattr $C$DW$338, DW_AT_location[DW_OP_regx 0x45]
    2511              $C$DW$339       .dwtag  DW_TAG_TI_assign_register, DW_AT_name("TC1")
    2512                      .dwattr $C$DW$339, DW_AT_location[DW_OP_regx 0x46]
    2513              $C$DW$340       .dwtag  DW_TAG_TI_assign_register, DW_AT_name("TC2")
    2514                      .dwattr $C$DW$340, DW_AT_location[DW_OP_regx 0x47]
    2515              $C$DW$341       .dwtag  DW_TAG_TI_assign_register, DW_AT_name("M40")
    2516                      .dwattr $C$DW$341, DW_AT_location[DW_OP_regx 0x48]
    2517              $C$DW$342       .dwtag  DW_TAG_TI_assign_register, DW_AT_name("SXMD")
    2518                      .dwattr $C$DW$342, DW_AT_location[DW_OP_regx 0x49]
    2519              $C$DW$343       .dwtag  DW_TAG_TI_assign_register, DW_AT_name("ARMS")
    2520                      .dwattr $C$DW$343, DW_AT_location[DW_OP_regx 0x4a]
TMS320C55x Assembler PC v4.4.1 Sat Sep 29 23:09:11 2018

Tools Copyright (c) 1996-2012 Texas Instruments Incorporated
csl_lcdc_DmaPolledExample.asm                                        PAGE   57

    2521              $C$DW$344       .dwtag  DW_TAG_TI_assign_register, DW_AT_name("C54CM")
    2522                      .dwattr $C$DW$344, DW_AT_location[DW_OP_regx 0x4b]
    2523              $C$DW$345       .dwtag  DW_TAG_TI_assign_register, DW_AT_name("SATA")
    2524                      .dwattr $C$DW$345, DW_AT_location[DW_OP_regx 0x4c]
    2525              $C$DW$346       .dwtag  DW_TAG_TI_assign_register, DW_AT_name("SATD")
    2526                      .dwattr $C$DW$346, DW_AT_location[DW_OP_regx 0x4d]
    2527              $C$DW$347       .dwtag  DW_TAG_TI_assign_register, DW_AT_name("RDM")
    2528                      .dwattr $C$DW$347, DW_AT_location[DW_OP_regx 0x4e]
    2529              $C$DW$348       .dwtag  DW_TAG_TI_assign_register, DW_AT_name("FRCT")
    2530                      .dwattr $C$DW$348, DW_AT_location[DW_OP_regx 0x4f]
    2531              $C$DW$349       .dwtag  DW_TAG_TI_assign_register, DW_AT_name("SMUL")
    2532                      .dwattr $C$DW$349, DW_AT_location[DW_OP_regx 0x50]
    2533              $C$DW$350       .dwtag  DW_TAG_TI_assign_register, DW_AT_name("INTM")
    2534                      .dwattr $C$DW$350, DW_AT_location[DW_OP_regx 0x51]
    2535              $C$DW$351       .dwtag  DW_TAG_TI_assign_register, DW_AT_name("AR0LC")
    2536                      .dwattr $C$DW$351, DW_AT_location[DW_OP_regx 0x52]
    2537              $C$DW$352       .dwtag  DW_TAG_TI_assign_register, DW_AT_name("AR1LC")
    2538                      .dwattr $C$DW$352, DW_AT_location[DW_OP_regx 0x53]
    2539              $C$DW$353       .dwtag  DW_TAG_TI_assign_register, DW_AT_name("AR2LC")
    2540                      .dwattr $C$DW$353, DW_AT_location[DW_OP_regx 0x54]
    2541              $C$DW$354       .dwtag  DW_TAG_TI_assign_register, DW_AT_name("AR3LC")
    2542                      .dwattr $C$DW$354, DW_AT_location[DW_OP_regx 0x55]
    2543              $C$DW$355       .dwtag  DW_TAG_TI_assign_register, DW_AT_name("AR4LC")
    2544                      .dwattr $C$DW$355, DW_AT_location[DW_OP_regx 0x56]
    2545              $C$DW$356       .dwtag  DW_TAG_TI_assign_register, DW_AT_name("AR5LC")
    2546                      .dwattr $C$DW$356, DW_AT_location[DW_OP_regx 0x57]
    2547              $C$DW$357       .dwtag  DW_TAG_TI_assign_register, DW_AT_name("AR6LC")
    2548                      .dwattr $C$DW$357, DW_AT_location[DW_OP_regx 0x58]
    2549              $C$DW$358       .dwtag  DW_TAG_TI_assign_register, DW_AT_name("AR7LC")
    2550                      .dwattr $C$DW$358, DW_AT_location[DW_OP_regx 0x59]
    2551              $C$DW$359       .dwtag  DW_TAG_TI_assign_register, DW_AT_name("CDPLC")
    2552                      .dwattr $C$DW$359, DW_AT_location[DW_OP_regx 0x5a]
    2553              $C$DW$360       .dwtag  DW_TAG_TI_assign_register, DW_AT_name("CIE_RETA")
    2554                      .dwattr $C$DW$360, DW_AT_location[DW_OP_regx 0x5b]
    2555                      .dwendtag $C$DW$CU
    2556              
    2556              
    2556              

No Assembly Errors, No Assembly Warnings
