TMS320C55x Assembler PC v4.4.1 Sat Sep 29 23:08:48 2018

Tools Copyright (c) 1996-2012 Texas Instruments Incorporated
csl_sar_DmaExample.asm                                               PAGE    1

    3053              ; Temporary Registers Used: None
       1              ;*******************************************************************************
       2              ;* TMS320C55x C/C++ Codegen                                          PC v4.4.1 *
       3              ;* Date/Time created: Sat Sep 29 23:08:47 2018                                 *
       4              ;*******************************************************************************
       5                      .compiler_opts --hll_source=on --mem_model:code=flat --mem_model:data=large --object_format=coff --si
       6                      .mmregs
       7                      .cpl_on
       8                      .arms_on
       9                      .c54cm_off
      10                      .asg AR6, FP
      11                      .asg XAR6, XFP
      12                      .asg DPH, MDP
      13                      .model call=c55_std
      14                      .model mem=large
      15                      .noremark 5002  ; code respects overwrite rules
      16              ;*******************************************************************************
      17              ;* GLOBAL FILE PARAMETERS                                                      *
      18              ;*                                                                             *
      19              ;*   Architecture       : TMS320C55x                                           *
      20              ;*   Optimizing for     : Speed                                                *
      21              ;*   Memory             : Large Model (23-Bit Data Pointers)                   *
      22              ;*   Calls              : Normal Library ASM calls                             *
      23              ;*   Debug Info         : Standard TI Debug Information                        *
      24              ;*******************************************************************************
      25              
      26              $C$DW$CU        .dwtag  DW_TAG_compile_unit
      27                      .dwattr $C$DW$CU, DW_AT_name("../c5535_bsl_revc/ezdsp5535_v1/c55xx_csl/ccs_v4.0_examples/sar/CSL_SAR_
      28                      .dwattr $C$DW$CU, DW_AT_producer("TMS320C55x C/C++ Codegen PC v4.4.1 Copyright (c) 1996-2012 Texas In
      29                      .dwattr $C$DW$CU, DW_AT_TI_version(0x01)
      30                      .dwattr $C$DW$CU, DW_AT_comp_dir("F:\eZdsp_DBG\tmp1\c55x-sim2\foo\Debug")
      31              ;******************************************************************************
      32              ;* CINIT RECORDS                                                              *
      33              ;******************************************************************************
      34 000000               .sect   ".cinit"
      35                      .align  1
      36 000000 0001          .field          1,16
      37 000001 0000-         .field          _i+0,24
         000002 0300 
      38 000002 0300          .field          0,8
      39 000003 0000          .field  0,16                    ; _i @ 0
      40              
      41 000004               .sect   ".cinit"
      42                      .align  1
      43 000004 0001          .field          1,16
      44 000005 0000-         .field          _j+0,24
         000006 0F00 
      45 000006 0F00          .field          0,8
      46 000007 0000          .field  0,16                    ; _j @ 0
      47              
      48 000008               .sect   ".cinit"
      49                      .align  1
      50 000008 0001          .field          1,16
      51 000009 0000-         .field          _PaSs_StAtE+0,24
         00000a 2000 
TMS320C55x Assembler PC v4.4.1 Sat Sep 29 23:08:48 2018

Tools Copyright (c) 1996-2012 Texas Instruments Incorporated
csl_sar_DmaExample.asm                                               PAGE    2

      52 00000a 2000          .field          0,8
      53 00000b 0001          .field  1,16                    ; _PaSs_StAtE @ 0
      54              
      55 00000c               .sect   ".cinit"
      56                      .align  1
      57 00000c 0001          .field          1,16
      58 00000d 0000-         .field          _PaSs+0,24
         00000e 2100 
      59 00000e 2100          .field          0,8
      60 00000f 0000          .field  0,16                    ; _PaSs @ 0
      61              
      62              
      63              $C$DW$1 .dwtag  DW_TAG_subprogram, DW_AT_name("SAR_init")
      64                      .dwattr $C$DW$1, DW_AT_TI_symbol_name("_SAR_init")
      65                      .dwattr $C$DW$1, DW_AT_type(*$C$DW$T$86)
      66                      .dwattr $C$DW$1, DW_AT_declaration
      67                      .dwattr $C$DW$1, DW_AT_external
      68              
      69              $C$DW$2 .dwtag  DW_TAG_subprogram, DW_AT_name("SAR_deInit")
      70                      .dwattr $C$DW$2, DW_AT_TI_symbol_name("_SAR_deInit")
      71                      .dwattr $C$DW$2, DW_AT_type(*$C$DW$T$86)
      72                      .dwattr $C$DW$2, DW_AT_declaration
      73                      .dwattr $C$DW$2, DW_AT_external
      74              
      75              $C$DW$3 .dwtag  DW_TAG_subprogram, DW_AT_name("SAR_chanOpen")
      76                      .dwattr $C$DW$3, DW_AT_TI_symbol_name("_SAR_chanOpen")
      77                      .dwattr $C$DW$3, DW_AT_type(*$C$DW$T$86)
      78                      .dwattr $C$DW$3, DW_AT_declaration
      79                      .dwattr $C$DW$3, DW_AT_external
      80              $C$DW$4 .dwtag  DW_TAG_formal_parameter
      81                      .dwattr $C$DW$4, DW_AT_type(*$C$DW$T$78)
      82              $C$DW$5 .dwtag  DW_TAG_formal_parameter
      83                      .dwattr $C$DW$5, DW_AT_type(*$C$DW$T$71)
      84                      .dwendtag $C$DW$3
      85              
      86              
      87              $C$DW$6 .dwtag  DW_TAG_subprogram, DW_AT_name("SAR_chanClose")
      88                      .dwattr $C$DW$6, DW_AT_TI_symbol_name("_SAR_chanClose")
      89                      .dwattr $C$DW$6, DW_AT_type(*$C$DW$T$86)
      90                      .dwattr $C$DW$6, DW_AT_declaration
      91                      .dwattr $C$DW$6, DW_AT_external
      92              $C$DW$7 .dwtag  DW_TAG_formal_parameter
      93                      .dwattr $C$DW$7, DW_AT_type(*$C$DW$T$78)
      94                      .dwendtag $C$DW$6
      95              
      96              
      97              $C$DW$8 .dwtag  DW_TAG_subprogram, DW_AT_name("SAR_chanInit")
      98                      .dwattr $C$DW$8, DW_AT_TI_symbol_name("_SAR_chanInit")
      99                      .dwattr $C$DW$8, DW_AT_type(*$C$DW$T$86)
     100                      .dwattr $C$DW$8, DW_AT_declaration
     101                      .dwattr $C$DW$8, DW_AT_external
     102              $C$DW$9 .dwtag  DW_TAG_formal_parameter
     103                      .dwattr $C$DW$9, DW_AT_type(*$C$DW$T$79)
     104                      .dwendtag $C$DW$8
     105              
TMS320C55x Assembler PC v4.4.1 Sat Sep 29 23:08:48 2018

Tools Copyright (c) 1996-2012 Texas Instruments Incorporated
csl_sar_DmaExample.asm                                               PAGE    3

     106              
     107              $C$DW$10        .dwtag  DW_TAG_subprogram, DW_AT_name("SAR_chanSetup")
     108                      .dwattr $C$DW$10, DW_AT_TI_symbol_name("_SAR_chanSetup")
     109                      .dwattr $C$DW$10, DW_AT_type(*$C$DW$T$86)
     110                      .dwattr $C$DW$10, DW_AT_declaration
     111                      .dwattr $C$DW$10, DW_AT_external
     112              $C$DW$11        .dwtag  DW_TAG_formal_parameter
     113                      .dwattr $C$DW$11, DW_AT_type(*$C$DW$T$78)
     114              $C$DW$12        .dwtag  DW_TAG_formal_parameter
     115                      .dwattr $C$DW$12, DW_AT_type(*$C$DW$T$81)
     116                      .dwendtag $C$DW$10
     117              
     118              
     119              $C$DW$13        .dwtag  DW_TAG_subprogram, DW_AT_name("SAR_chanCycSet")
     120                      .dwattr $C$DW$13, DW_AT_TI_symbol_name("_SAR_chanCycSet")
     121                      .dwattr $C$DW$13, DW_AT_type(*$C$DW$T$86)
     122                      .dwattr $C$DW$13, DW_AT_declaration
     123                      .dwattr $C$DW$13, DW_AT_external
     124              $C$DW$14        .dwtag  DW_TAG_formal_parameter
     125                      .dwattr $C$DW$14, DW_AT_type(*$C$DW$T$78)
     126              $C$DW$15        .dwtag  DW_TAG_formal_parameter
     127                      .dwattr $C$DW$15, DW_AT_type(*$C$DW$T$74)
     128                      .dwendtag $C$DW$13
     129              
     130              
     131              $C$DW$16        .dwtag  DW_TAG_subprogram, DW_AT_name("SAR_startConversion")
     132                      .dwattr $C$DW$16, DW_AT_TI_symbol_name("_SAR_startConversion")
     133                      .dwattr $C$DW$16, DW_AT_type(*$C$DW$T$86)
     134                      .dwattr $C$DW$16, DW_AT_declaration
     135                      .dwattr $C$DW$16, DW_AT_external
     136              $C$DW$17        .dwtag  DW_TAG_formal_parameter
     137                      .dwattr $C$DW$17, DW_AT_type(*$C$DW$T$78)
     138                      .dwendtag $C$DW$16
     139              
     140              
     141              $C$DW$18        .dwtag  DW_TAG_subprogram, DW_AT_name("SAR_stopConversion")
     142                      .dwattr $C$DW$18, DW_AT_TI_symbol_name("_SAR_stopConversion")
     143                      .dwattr $C$DW$18, DW_AT_type(*$C$DW$T$86)
     144                      .dwattr $C$DW$18, DW_AT_declaration
     145                      .dwattr $C$DW$18, DW_AT_external
     146              $C$DW$19        .dwtag  DW_TAG_formal_parameter
     147                      .dwattr $C$DW$19, DW_AT_type(*$C$DW$T$78)
     148                      .dwendtag $C$DW$18
     149              
     150              
     151              $C$DW$20        .dwtag  DW_TAG_subprogram, DW_AT_name("SAR_A2DMeasParamSet")
     152                      .dwattr $C$DW$20, DW_AT_TI_symbol_name("_SAR_A2DMeasParamSet")
     153                      .dwattr $C$DW$20, DW_AT_type(*$C$DW$T$86)
     154                      .dwattr $C$DW$20, DW_AT_declaration
     155                      .dwattr $C$DW$20, DW_AT_external
     156              $C$DW$21        .dwtag  DW_TAG_formal_parameter
     157                      .dwattr $C$DW$21, DW_AT_type(*$C$DW$T$78)
     158              $C$DW$22        .dwtag  DW_TAG_formal_parameter
     159                      .dwattr $C$DW$22, DW_AT_type(*$C$DW$T$76)
     160              $C$DW$23        .dwtag  DW_TAG_formal_parameter
TMS320C55x Assembler PC v4.4.1 Sat Sep 29 23:08:48 2018

Tools Copyright (c) 1996-2012 Texas Instruments Incorporated
csl_sar_DmaExample.asm                                               PAGE    4

     161                      .dwattr $C$DW$23, DW_AT_type(*$C$DW$T$72)
     162                      .dwendtag $C$DW$20
     163              
     164              
     165              $C$DW$24        .dwtag  DW_TAG_subprogram, DW_AT_name("DMA_init")
     166                      .dwattr $C$DW$24, DW_AT_TI_symbol_name("_DMA_init")
     167                      .dwattr $C$DW$24, DW_AT_type(*$C$DW$T$86)
     168                      .dwattr $C$DW$24, DW_AT_declaration
     169                      .dwattr $C$DW$24, DW_AT_external
     170              
     171              $C$DW$25        .dwtag  DW_TAG_subprogram, DW_AT_name("DMA_open")
     172                      .dwattr $C$DW$25, DW_AT_TI_symbol_name("_DMA_open")
     173                      .dwattr $C$DW$25, DW_AT_type(*$C$DW$T$84)
     174                      .dwattr $C$DW$25, DW_AT_declaration
     175                      .dwattr $C$DW$25, DW_AT_external
     176              $C$DW$26        .dwtag  DW_TAG_formal_parameter
     177                      .dwattr $C$DW$26, DW_AT_type(*$C$DW$T$43)
     178              $C$DW$27        .dwtag  DW_TAG_formal_parameter
     179                      .dwattr $C$DW$27, DW_AT_type(*$C$DW$T$83)
     180              $C$DW$28        .dwtag  DW_TAG_formal_parameter
     181                      .dwattr $C$DW$28, DW_AT_type(*$C$DW$T$87)
     182                      .dwendtag $C$DW$25
     183              
     184              
     185              $C$DW$29        .dwtag  DW_TAG_subprogram, DW_AT_name("DMA_config")
     186                      .dwattr $C$DW$29, DW_AT_TI_symbol_name("_DMA_config")
     187                      .dwattr $C$DW$29, DW_AT_type(*$C$DW$T$86)
     188                      .dwattr $C$DW$29, DW_AT_declaration
     189                      .dwattr $C$DW$29, DW_AT_external
     190              $C$DW$30        .dwtag  DW_TAG_formal_parameter
     191                      .dwattr $C$DW$30, DW_AT_type(*$C$DW$T$84)
     192              $C$DW$31        .dwtag  DW_TAG_formal_parameter
     193                      .dwattr $C$DW$31, DW_AT_type(*$C$DW$T$91)
     194                      .dwendtag $C$DW$29
     195              
     196              
     197              $C$DW$32        .dwtag  DW_TAG_subprogram, DW_AT_name("DMA_start")
     198                      .dwattr $C$DW$32, DW_AT_TI_symbol_name("_DMA_start")
     199                      .dwattr $C$DW$32, DW_AT_type(*$C$DW$T$86)
     200                      .dwattr $C$DW$32, DW_AT_declaration
     201                      .dwattr $C$DW$32, DW_AT_external
     202              $C$DW$33        .dwtag  DW_TAG_formal_parameter
     203                      .dwattr $C$DW$33, DW_AT_type(*$C$DW$T$84)
     204                      .dwendtag $C$DW$32
     205              
     206              
     207              $C$DW$34        .dwtag  DW_TAG_subprogram, DW_AT_name("printf")
     208                      .dwattr $C$DW$34, DW_AT_TI_symbol_name("_printf")
     209                      .dwattr $C$DW$34, DW_AT_type(*$C$DW$T$10)
     210                      .dwattr $C$DW$34, DW_AT_declaration
     211                      .dwattr $C$DW$34, DW_AT_external
     212              $C$DW$35        .dwtag  DW_TAG_formal_parameter
     213                      .dwattr $C$DW$35, DW_AT_type(*$C$DW$T$131)
     214              $C$DW$36        .dwtag  DW_TAG_unspecified_parameters
     215                      .dwendtag $C$DW$34
TMS320C55x Assembler PC v4.4.1 Sat Sep 29 23:08:48 2018

Tools Copyright (c) 1996-2012 Texas Instruments Incorporated
csl_sar_DmaExample.asm                                               PAGE    5

     216              
     217              
     218              $C$DW$37        .dwtag  DW_TAG_subprogram, DW_AT_name("IRQ_plug")
     219                      .dwattr $C$DW$37, DW_AT_TI_symbol_name("_IRQ_plug")
     220                      .dwattr $C$DW$37, DW_AT_type(*$C$DW$T$10)
     221                      .dwattr $C$DW$37, DW_AT_declaration
     222                      .dwattr $C$DW$37, DW_AT_external
     223              $C$DW$38        .dwtag  DW_TAG_formal_parameter
     224                      .dwattr $C$DW$38, DW_AT_type(*$C$DW$T$19)
     225              $C$DW$39        .dwtag  DW_TAG_formal_parameter
     226                      .dwattr $C$DW$39, DW_AT_type(*$C$DW$T$98)
     227                      .dwendtag $C$DW$37
     228              
     229              
     230              $C$DW$40        .dwtag  DW_TAG_subprogram, DW_AT_name("IRQ_clear")
     231                      .dwattr $C$DW$40, DW_AT_TI_symbol_name("_IRQ_clear")
     232                      .dwattr $C$DW$40, DW_AT_type(*$C$DW$T$86)
     233                      .dwattr $C$DW$40, DW_AT_declaration
     234                      .dwattr $C$DW$40, DW_AT_external
     235              $C$DW$41        .dwtag  DW_TAG_formal_parameter
     236                      .dwattr $C$DW$41, DW_AT_type(*$C$DW$T$19)
     237                      .dwendtag $C$DW$40
     238              
     239              
     240              $C$DW$42        .dwtag  DW_TAG_subprogram, DW_AT_name("IRQ_clearAll")
     241                      .dwattr $C$DW$42, DW_AT_TI_symbol_name("_IRQ_clearAll")
     242                      .dwattr $C$DW$42, DW_AT_declaration
     243                      .dwattr $C$DW$42, DW_AT_external
     244              
     245              $C$DW$43        .dwtag  DW_TAG_subprogram, DW_AT_name("IRQ_disableAll")
     246                      .dwattr $C$DW$43, DW_AT_TI_symbol_name("_IRQ_disableAll")
     247                      .dwattr $C$DW$43, DW_AT_declaration
     248                      .dwattr $C$DW$43, DW_AT_external
     249              
     250              $C$DW$44        .dwtag  DW_TAG_subprogram, DW_AT_name("IRQ_enable")
     251                      .dwattr $C$DW$44, DW_AT_TI_symbol_name("_IRQ_enable")
     252                      .dwattr $C$DW$44, DW_AT_type(*$C$DW$T$10)
     253                      .dwattr $C$DW$44, DW_AT_declaration
     254                      .dwattr $C$DW$44, DW_AT_external
     255              $C$DW$45        .dwtag  DW_TAG_formal_parameter
     256                      .dwattr $C$DW$45, DW_AT_type(*$C$DW$T$19)
     257                      .dwendtag $C$DW$44
     258              
     259              
     260              $C$DW$46        .dwtag  DW_TAG_subprogram, DW_AT_name("IRQ_setVecs")
     261                      .dwattr $C$DW$46, DW_AT_TI_symbol_name("_IRQ_setVecs")
     262                      .dwattr $C$DW$46, DW_AT_type(*$C$DW$T$86)
     263                      .dwattr $C$DW$46, DW_AT_declaration
     264                      .dwattr $C$DW$46, DW_AT_external
     265              $C$DW$47        .dwtag  DW_TAG_formal_parameter
     266                      .dwattr $C$DW$47, DW_AT_type(*$C$DW$T$64)
     267                      .dwendtag $C$DW$46
     268              
     269              
     270              $C$DW$48        .dwtag  DW_TAG_subprogram, DW_AT_name("IRQ_globalDisable")
TMS320C55x Assembler PC v4.4.1 Sat Sep 29 23:08:48 2018

Tools Copyright (c) 1996-2012 Texas Instruments Incorporated
csl_sar_DmaExample.asm                                               PAGE    6

     271                      .dwattr $C$DW$48, DW_AT_TI_symbol_name("_IRQ_globalDisable")
     272                      .dwattr $C$DW$48, DW_AT_type(*$C$DW$T$46)
     273                      .dwattr $C$DW$48, DW_AT_declaration
     274                      .dwattr $C$DW$48, DW_AT_external
     275              
     276              $C$DW$49        .dwtag  DW_TAG_subprogram, DW_AT_name("IRQ_globalEnable")
     277                      .dwattr $C$DW$49, DW_AT_TI_symbol_name("_IRQ_globalEnable")
     278                      .dwattr $C$DW$49, DW_AT_type(*$C$DW$T$46)
     279                      .dwattr $C$DW$49, DW_AT_declaration
     280                      .dwattr $C$DW$49, DW_AT_external
     281              
     282              $C$DW$50        .dwtag  DW_TAG_subprogram, DW_AT_name("VECSTART")
     283                      .dwattr $C$DW$50, DW_AT_TI_symbol_name("_VECSTART")
     284                      .dwattr $C$DW$50, DW_AT_declaration
     285                      .dwattr $C$DW$50, DW_AT_external
     286                      .global _SarObj
     287 000000               .bss    _SarObj,3,0,0
     288              $C$DW$51        .dwtag  DW_TAG_variable, DW_AT_name("SarObj")
     289                      .dwattr $C$DW$51, DW_AT_TI_symbol_name("_SarObj")
     290                      .dwattr $C$DW$51, DW_AT_location[DW_OP_addr _SarObj]
     291                      .dwattr $C$DW$51, DW_AT_type(*$C$DW$T$77)
     292                      .dwattr $C$DW$51, DW_AT_external
     293                      .global _readBuffer
     294 000004               .bss    _readBuffer,2,0,4
     295              $C$DW$52        .dwtag  DW_TAG_variable, DW_AT_name("readBuffer")
     296                      .dwattr $C$DW$52, DW_AT_TI_symbol_name("_readBuffer")
     297                      .dwattr $C$DW$52, DW_AT_location[DW_OP_addr _readBuffer]
     298                      .dwattr $C$DW$52, DW_AT_type(*$C$DW$T$124)
     299                      .dwattr $C$DW$52, DW_AT_external
     300                      .global _dmaObj
     301 000006               .bss    _dmaObj,9,0,0
     302              $C$DW$53        .dwtag  DW_TAG_variable, DW_AT_name("dmaObj")
     303                      .dwattr $C$DW$53, DW_AT_TI_symbol_name("_dmaObj")
     304                      .dwattr $C$DW$53, DW_AT_location[DW_OP_addr _dmaObj]
     305                      .dwattr $C$DW$53, DW_AT_type(*$C$DW$T$82)
     306                      .dwattr $C$DW$53, DW_AT_external
     307                      .global _dmaHandle
     308 000010               .bss    _dmaHandle,2,0,2
     309              $C$DW$54        .dwtag  DW_TAG_variable, DW_AT_name("dmaHandle")
     310                      .dwattr $C$DW$54, DW_AT_TI_symbol_name("_dmaHandle")
     311                      .dwattr $C$DW$54, DW_AT_location[DW_OP_addr _dmaHandle]
     312                      .dwattr $C$DW$54, DW_AT_type(*$C$DW$T$84)
     313                      .dwattr $C$DW$54, DW_AT_external
     314                      .global _dmaConfig
     315 000012               .bss    _dmaConfig,14,0,2
     316              $C$DW$55        .dwtag  DW_TAG_variable, DW_AT_name("dmaConfig")
     317                      .dwattr $C$DW$55, DW_AT_TI_symbol_name("_dmaConfig")
     318                      .dwattr $C$DW$55, DW_AT_location[DW_OP_addr _dmaConfig]
     319                      .dwattr $C$DW$55, DW_AT_type(*$C$DW$T$90)
     320                      .dwattr $C$DW$55, DW_AT_external
     321                      .global _i
     322 000003               .bss    _i,1,0,0
     323              $C$DW$56        .dwtag  DW_TAG_variable, DW_AT_name("i")
     324                      .dwattr $C$DW$56, DW_AT_TI_symbol_name("_i")
     325                      .dwattr $C$DW$56, DW_AT_location[DW_OP_addr _i]
TMS320C55x Assembler PC v4.4.1 Sat Sep 29 23:08:48 2018

Tools Copyright (c) 1996-2012 Texas Instruments Incorporated
csl_sar_DmaExample.asm                                               PAGE    7

     326                      .dwattr $C$DW$56, DW_AT_type(*$C$DW$T$10)
     327                      .dwattr $C$DW$56, DW_AT_external
     328                      .global _j
     329 00000f               .bss    _j,1,0,0
     330              $C$DW$57        .dwtag  DW_TAG_variable, DW_AT_name("j")
     331                      .dwattr $C$DW$57, DW_AT_TI_symbol_name("_j")
     332                      .dwattr $C$DW$57, DW_AT_location[DW_OP_addr _j]
     333                      .dwattr $C$DW$57, DW_AT_type(*$C$DW$T$10)
     334                      .dwattr $C$DW$57, DW_AT_external
     335                      .global _PaSs_StAtE
     336 000020               .bss    _PaSs_StAtE,1,0,0
     337              $C$DW$58        .dwtag  DW_TAG_variable, DW_AT_name("PaSs_StAtE")
     338                      .dwattr $C$DW$58, DW_AT_TI_symbol_name("_PaSs_StAtE")
     339                      .dwattr $C$DW$58, DW_AT_location[DW_OP_addr _PaSs_StAtE]
     340                      .dwattr $C$DW$58, DW_AT_type(*$C$DW$T$121)
     341                      .dwattr $C$DW$58, DW_AT_external
     342                      .global _PaSs
     343 000021               .bss    _PaSs,1,0,0
     344              $C$DW$59        .dwtag  DW_TAG_variable, DW_AT_name("PaSs")
     345                      .dwattr $C$DW$59, DW_AT_TI_symbol_name("_PaSs")
     346                      .dwattr $C$DW$59, DW_AT_location[DW_OP_addr _PaSs]
     347                      .dwattr $C$DW$59, DW_AT_type(*$C$DW$T$121)
     348                      .dwattr $C$DW$59, DW_AT_external
     349              ;       F:\t\cc5p5\ccsv5\tools\compiler\c5500_4.4.1\bin\acp55.exe -@f:\\AppData\\Local\\Temp\\0536012 
     350 000000               .sect   ".text"
     351                      .align 4
     352                      .global _main
     353              
     354              $C$DW$60        .dwtag  DW_TAG_subprogram, DW_AT_name("main")
     355                      .dwattr $C$DW$60, DW_AT_low_pc(_main)
     356                      .dwattr $C$DW$60, DW_AT_high_pc(0x00)
     357                      .dwattr $C$DW$60, DW_AT_TI_symbol_name("_main")
     358                      .dwattr $C$DW$60, DW_AT_external
     359                      .dwattr $C$DW$60, DW_AT_TI_begin_file("../c5535_bsl_revc/ezdsp5535_v1/c55xx_csl/ccs_v4.0_examples/sar
     360                      .dwattr $C$DW$60, DW_AT_TI_begin_line(0x86)
     361                      .dwattr $C$DW$60, DW_AT_TI_begin_column(0x06)
     362                      .dwattr $C$DW$60, DW_AT_TI_max_frame_size(0x04)
     363                      .dwpsn  file "../c5535_bsl_revc/ezdsp5535_v1/c55xx_csl/ccs_v4.0_examples/sar/CSL_SAR_DmaExample/csl_s
     364              
     365                      .dwfde $C$DW$CIE, _main
     366              ;*******************************************************************************
     367              ;* FUNCTION NAME: main                                                         *
     368              ;*                                                                             *
     369              ;*   Function Uses Regs : T0,AR1,AR2,AR3,XAR3,SP,CARRY,TC1,M40,SATA,SATD,RDM,  *
     370              ;*                        FRCT,SMUL                                            *
     371              ;*   Stack Frame        : Compact (No Frame Pointer, w/ debug)                 *
     372              ;*   Total Frame Size   : 4 words                                              *
     373              ;*                        (1 return address/alignment)                         *
     374              ;*                        (2 function parameters)                              *
     375              ;*                        (1 local values)                                     *
     376              ;*   Min System Stack   : 1 word                                               *
     377              ;*******************************************************************************
     378 000000       _main:
     379                      .dwcfi  cfa_offset, 1
     380                      .dwcfi  save_reg_to_mem, 91, -1
TMS320C55x Assembler PC v4.4.1 Sat Sep 29 23:08:48 2018

Tools Copyright (c) 1996-2012 Texas Instruments Incorporated
csl_sar_DmaExample.asm                                               PAGE    8

     381 000000 4EFD          AADD #-3, SP
     382                      .dwcfi  cfa_offset, 4
     383              $C$DW$61        .dwtag  DW_TAG_variable, DW_AT_name("result")
     384                      .dwattr $C$DW$61, DW_AT_TI_symbol_name("_result")
     385                      .dwattr $C$DW$61, DW_AT_type(*$C$DW$T$10)
     386                      .dwattr $C$DW$61, DW_AT_location[DW_OP_bregx 0x24 2]
     387                      .dwpsn  file "../c5535_bsl_revc/ezdsp5535_v1/c55xx_csl/ccs_v4.0_examples/sar/CSL_SAR_DmaExample/csl_s
     388 000002 EC31          AMOV #$C$FSL1, XAR3 ; |140| 
         000004 BE00 
         000006 0000+
     389 000008 EB00          MOV XAR3, dbl(*SP(#0))
         00000a B5   
     390              $C$DW$62        .dwtag  DW_TAG_TI_branch
     391                      .dwattr $C$DW$62, DW_AT_low_pc(0x00)
     392                      .dwattr $C$DW$62, DW_AT_name("_printf")
     393                      .dwattr $C$DW$62, DW_AT_TI_call
     394 00000b 6C00          CALL #_printf ; |140| 
         00000d 0000!
     395                                                      ; call occurs [#_printf] ; |140| 
     396                      .dwpsn  file "../c5535_bsl_revc/ezdsp5535_v1/c55xx_csl/ccs_v4.0_examples/sar/CSL_SAR_DmaExample/csl_s
     397 00000f EC31          AMOV #$C$FSL2, XAR3 ; |141| 
         000011 BE00 
         000013 0020+
     398 000015 EB00          MOV XAR3, dbl(*SP(#0))
         000017 B5   
     399              $C$DW$63        .dwtag  DW_TAG_TI_branch
     400                      .dwattr $C$DW$63, DW_AT_low_pc(0x00)
     401                      .dwattr $C$DW$63, DW_AT_name("_printf")
     402                      .dwattr $C$DW$63, DW_AT_TI_call
     403 000018 6C00          CALL #_printf ; |141| 
         00001a 0000!
     404                                                      ; call occurs [#_printf] ; |141| 
     405                      .dwpsn  file "../c5535_bsl_revc/ezdsp5535_v1/c55xx_csl/ccs_v4.0_examples/sar/CSL_SAR_DmaExample/csl_s
     406 00001c E631          MOV #0, *(#_j) ; |144| 
         00001e 0000 
         000020 000F-
     407                      .dwpsn  file "../c5535_bsl_revc/ezdsp5535_v1/c55xx_csl/ccs_v4.0_examples/sar/CSL_SAR_DmaExample/csl_s
     408 000022 3C2A          MOV #2, AR2
     409 000024 A931          MOV *(#_j), AR1 ; |144| 
         000026 0000 
         000028 0F-  
     410 000029 1298          CMP AR1 >= AR2, TC1 ; |144| 
         00002b A0   
     411 00002c 0464          BCC $C$L2,TC1 ; |144| 
         00002e 1E   
     412                                                      ; branchcc occurs ; |144| 
     413 00002f       $C$L1:    
     414 00002f       $C$DW$L$_main$2$B:
     415                      .dwpsn  file "../c5535_bsl_revc/ezdsp5535_v1/c55xx_csl/ccs_v4.0_examples/sar/CSL_SAR_DmaExample/csl_s
     416 00002f 2294          MOV AR1, T0 ; |146| 
     417 000031 EC31          AMOV #_readBuffer, XAR3 ; |146| 
         000033 BE00 
         000035 0004-
     418 000037 FB6B          MOV #65535, *AR3(T0) ; |146| 
         000039 FFFF 
TMS320C55x Assembler PC v4.4.1 Sat Sep 29 23:08:48 2018

Tools Copyright (c) 1996-2012 Texas Instruments Incorporated
csl_sar_DmaExample.asm                                               PAGE    9

     419                      .dwpsn  file "../c5535_bsl_revc/ezdsp5535_v1/c55xx_csl/ccs_v4.0_examples/sar/CSL_SAR_DmaExample/csl_s
     420 00003b F731          ADD #1, *(#_j) ; |144| 
         00003d 0001 
         00003f 0000 
         000041 0F-  
     421                      .dwpsn  file "../c5535_bsl_revc/ezdsp5535_v1/c55xx_csl/ccs_v4.0_examples/sar/CSL_SAR_DmaExample/csl_s
     422 000042 A931          MOV *(#_j), AR1 ; |144| 
         000044 0000 
         000046 0F-  
     423 000047 1294          CMP AR1 < AR2, TC1 ; |144| 
         000049 A0   
     424 00004a 0464          BCC $C$L1,TC1 ; |144| 
         00004c E2   
     425                                                      ; branchcc occurs ; |144| 
     426 00004d       $C$DW$L$_main$2$E:
     427 00004d       $C$L2:    
     428                      .dwpsn  file "../c5535_bsl_revc/ezdsp5535_v1/c55xx_csl/ccs_v4.0_examples/sar/CSL_SAR_DmaExample/csl_s
     429 00004d F451          AND #0xffef, *port(#7171) ; |150| 
         00004f FFEF 
         000051 1C03 
     430                      .dwpsn  file "../c5535_bsl_revc/ezdsp5535_v1/c55xx_csl/ccs_v4.0_examples/sar/CSL_SAR_DmaExample/csl_s
     431              $C$DW$64        .dwtag  DW_TAG_TI_branch
     432                      .dwattr $C$DW$64, DW_AT_low_pc(0x00)
     433                      .dwattr $C$DW$64, DW_AT_name("_sar_test_dma_keypad_voltage")
     434                      .dwattr $C$DW$64, DW_AT_TI_call
     435 000053 0800          CALL #_sar_test_dma_keypad_voltage ; |153| 
         000055 3A   
     436                                                      ; call occurs [#_sar_test_dma_keypad_voltage] ; |153| 
     437 000056 C404          MOV T0, *SP(#2) ; |153| 
     438                      .dwpsn  file "../c5535_bsl_revc/ezdsp5535_v1/c55xx_csl/ccs_v4.0_examples/sar/CSL_SAR_DmaExample/csl_s
     439 000058 2249          MOV T0, AR1
     440 00005a 0409          BCC $C$L3,AR1 == #0 ; |154| 
         00005c 15   
     441                                                      ; branchcc occurs ; |154| 
     442                      .dwpsn  file "../c5535_bsl_revc/ezdsp5535_v1/c55xx_csl/ccs_v4.0_examples/sar/CSL_SAR_DmaExample/csl_s
     443 00005d EC31          AMOV #$C$FSL3, XAR3 ; |156| 
         00005f BE00 
         000061 0044+
     444 000063 EB00          MOV XAR3, dbl(*SP(#0))
         000065 B5   
     445              $C$DW$65        .dwtag  DW_TAG_TI_branch
     446                      .dwattr $C$DW$65, DW_AT_low_pc(0x00)
     447                      .dwattr $C$DW$65, DW_AT_name("_printf")
     448                      .dwattr $C$DW$65, DW_AT_TI_call
     449 000066 6C00          CALL #_printf ; |156| 
         000068 0000!
     450                                                      ; call occurs [#_printf] ; |156| 
     451                      .dwpsn  file "../c5535_bsl_revc/ezdsp5535_v1/c55xx_csl/ccs_v4.0_examples/sar/CSL_SAR_DmaExample/csl_s
     452 00006a E631          MOV #0, *(#_PaSs_StAtE) ; |159| 
         00006c 0000 
         00006e 0020-
     453                      .dwpsn  file "../c5535_bsl_revc/ezdsp5535_v1/c55xx_csl/ccs_v4.0_examples/sar/CSL_SAR_DmaExample/csl_s
     454 000070 4A0D          B $C$L4   ; |161| 
     455                                                      ; branch occurs ; |161| 
     456 000072       $C$L3:    
TMS320C55x Assembler PC v4.4.1 Sat Sep 29 23:08:48 2018

Tools Copyright (c) 1996-2012 Texas Instruments Incorporated
csl_sar_DmaExample.asm                                               PAGE   10

     457                      .dwpsn  file "../c5535_bsl_revc/ezdsp5535_v1/c55xx_csl/ccs_v4.0_examples/sar/CSL_SAR_DmaExample/csl_s
     458 000072 EC31          AMOV #$C$FSL4, XAR3 ; |164| 
         000074 BE00 
         000076 006C+
     459 000078 EB00          MOV XAR3, dbl(*SP(#0))
         00007a B5   
     460              $C$DW$66        .dwtag  DW_TAG_TI_branch
     461                      .dwattr $C$DW$66, DW_AT_low_pc(0x00)
     462                      .dwattr $C$DW$66, DW_AT_name("_printf")
     463                      .dwattr $C$DW$66, DW_AT_TI_call
     464 00007b 6C00          CALL #_printf ; |164| 
         00007d 0000!
     465                                                      ; call occurs [#_printf] ; |164| 
     466 00007f       $C$L4:    
     467                      .dwpsn  file "../c5535_bsl_revc/ezdsp5535_v1/c55xx_csl/ccs_v4.0_examples/sar/CSL_SAR_DmaExample/csl_s
     468 00007f A931          MOV *(#_PaSs_StAtE), AR1 ; |169| 
         000081 0000 
         000083 20-  
     469 000084 C931          MOV AR1, *(#_PaSs) ; |169| 
         000086 0000 
         000088 21-  
     470                      .dwpsn  file "../c5535_bsl_revc/ezdsp5535_v1/c55xx_csl/ccs_v4.0_examples/sar/CSL_SAR_DmaExample/csl_s
     471 000089 4E03          AADD #3, SP
     472                      .dwcfi  cfa_offset, 1
     473              $C$DW$67        .dwtag  DW_TAG_TI_branch
     474                      .dwattr $C$DW$67, DW_AT_low_pc(0x00)
     475                      .dwattr $C$DW$67, DW_AT_TI_return
     476 00008b 4804          RET
     477                                                      ; return occurs
     478              
     479              $C$DW$68        .dwtag  DW_TAG_TI_loop
     480                      .dwattr $C$DW$68, DW_AT_name("F:\eZdsp_DBG\tmp1\c55x-sim2\foo\Debug\csl_sar_DmaExample.asm:$C$L1:1:15
     481                      .dwattr $C$DW$68, DW_AT_TI_begin_file("../c5535_bsl_revc/ezdsp5535_v1/c55xx_csl/ccs_v4.0_examples/sar
     482                      .dwattr $C$DW$68, DW_AT_TI_begin_line(0x90)
     483                      .dwattr $C$DW$68, DW_AT_TI_end_line(0x93)
     484              $C$DW$69        .dwtag  DW_TAG_TI_loop_range
     485                      .dwattr $C$DW$69, DW_AT_low_pc($C$DW$L$_main$2$B)
     486                      .dwattr $C$DW$69, DW_AT_high_pc($C$DW$L$_main$2$E)
     487                      .dwendtag $C$DW$68
     488              
     489                      .dwattr $C$DW$60, DW_AT_TI_end_file("../c5535_bsl_revc/ezdsp5535_v1/c55xx_csl/ccs_v4.0_examples/sar/C
     490                      .dwattr $C$DW$60, DW_AT_TI_end_line(0xae)
     491                      .dwattr $C$DW$60, DW_AT_TI_end_column(0x01)
     492                      .dwendentry
     493                      .dwendtag $C$DW$60
     494              
     495 00008d               .sect   ".text"
     496                      .align 4
     497                      .global _sar_test_dma_keypad_voltage
     498              
     499              $C$DW$70        .dwtag  DW_TAG_subprogram, DW_AT_name("sar_test_dma_keypad_voltage")
     500                      .dwattr $C$DW$70, DW_AT_low_pc(_sar_test_dma_keypad_voltage)
     501                      .dwattr $C$DW$70, DW_AT_high_pc(0x00)
     502                      .dwattr $C$DW$70, DW_AT_TI_symbol_name("_sar_test_dma_keypad_voltage")
     503                      .dwattr $C$DW$70, DW_AT_external
TMS320C55x Assembler PC v4.4.1 Sat Sep 29 23:08:48 2018

Tools Copyright (c) 1996-2012 Texas Instruments Incorporated
csl_sar_DmaExample.asm                                               PAGE   11

     504                      .dwattr $C$DW$70, DW_AT_type(*$C$DW$T$10)
     505                      .dwattr $C$DW$70, DW_AT_TI_begin_file("../c5535_bsl_revc/ezdsp5535_v1/c55xx_csl/ccs_v4.0_examples/sar
     506                      .dwattr $C$DW$70, DW_AT_TI_begin_line(0xb1)
     507                      .dwattr $C$DW$70, DW_AT_TI_begin_column(0x06)
     508                      .dwattr $C$DW$70, DW_AT_TI_max_frame_size(0x0e)
     509                      .dwpsn  file "../c5535_bsl_revc/ezdsp5535_v1/c55xx_csl/ccs_v4.0_examples/sar/CSL_SAR_DmaExample/csl_s
     510              
     511                      .dwfde $C$DW$CIE, _sar_test_dma_keypad_voltage
     512              ;*******************************************************************************
     513              ;* FUNCTION NAME: sar_test_dma_keypad_voltage                                  *
     514              ;*                                                                             *
     515              ;*   Function Uses Regs : AC0,AC0,T0,AR0,XAR0,AR1,XAR1,AR3,XAR3,SP,TC1,M40,    *
     516              ;*                        SATA,SATD,RDM,FRCT,SMUL                              *
     517              ;*   Stack Frame        : Compact (No Frame Pointer, w/ debug)                 *
     518              ;*   Total Frame Size   : 14 words                                             *
     519              ;*                        (2 return address/alignment)                         *
     520              ;*                        (3 function parameters)                              *
     521              ;*                        (9 local values)                                     *
     522              ;*   Min System Stack   : 1 word                                               *
     523              ;*******************************************************************************
     524 000090       _sar_test_dma_keypad_voltage:
     525                      .dwcfi  cfa_offset, 1
     526                      .dwcfi  save_reg_to_mem, 91, -1
     527 000090 4EF3          AADD #-13, SP
     528                      .dwcfi  cfa_offset, 14
     529              $C$DW$71        .dwtag  DW_TAG_variable, DW_AT_name("status")
     530                      .dwattr $C$DW$71, DW_AT_TI_symbol_name("_status")
     531                      .dwattr $C$DW$71, DW_AT_type(*$C$DW$T$86)
     532                      .dwattr $C$DW$71, DW_AT_location[DW_OP_bregx 0x24 3]
     533              $C$DW$72        .dwtag  DW_TAG_variable, DW_AT_name("SarHandle")
     534                      .dwattr $C$DW$72, DW_AT_TI_symbol_name("_SarHandle")
     535                      .dwattr $C$DW$72, DW_AT_type(*$C$DW$T$78)
     536                      .dwattr $C$DW$72, DW_AT_location[DW_OP_bregx 0x24 4]
     537              $C$DW$73        .dwtag  DW_TAG_variable, DW_AT_name("param")
     538                      .dwattr $C$DW$73, DW_AT_TI_symbol_name("_param")
     539                      .dwattr $C$DW$73, DW_AT_type(*$C$DW$T$80)
     540                      .dwattr $C$DW$73, DW_AT_location[DW_OP_bregx 0x24 6]
     541              $C$DW$74        .dwtag  DW_TAG_variable, DW_AT_name("result")
     542                      .dwattr $C$DW$74, DW_AT_TI_symbol_name("_result")
     543                      .dwattr $C$DW$74, DW_AT_type(*$C$DW$T$10)
     544                      .dwattr $C$DW$74, DW_AT_location[DW_OP_bregx 0x24 10]
     545              $C$DW$75        .dwtag  DW_TAG_variable, DW_AT_name("chanNo")
     546                      .dwattr $C$DW$75, DW_AT_TI_symbol_name("_chanNo")
     547                      .dwattr $C$DW$75, DW_AT_type(*$C$DW$T$10)
     548                      .dwattr $C$DW$75, DW_AT_location[DW_OP_bregx 0x24 11]
     549                      .dwpsn  file "../c5535_bsl_revc/ezdsp5535_v1/c55xx_csl/ccs_v4.0_examples/sar/CSL_SAR_DmaExample/csl_s
     550 000092 E614          MOV #1, *SP(#10) ; |186| 
         000094 01   
     551                      .dwpsn  file "../c5535_bsl_revc/ezdsp5535_v1/c55xx_csl/ccs_v4.0_examples/sar/CSL_SAR_DmaExample/csl_s
     552              $C$DW$76        .dwtag  DW_TAG_TI_branch
     553                      .dwattr $C$DW$76, DW_AT_low_pc(0x00)
     554                      .dwattr $C$DW$76, DW_AT_name("_SAR_init")
     555                      .dwattr $C$DW$76, DW_AT_TI_call
     556 000095 6C00          CALL #_SAR_init ; |189| 
         000097 0000!
TMS320C55x Assembler PC v4.4.1 Sat Sep 29 23:08:48 2018

Tools Copyright (c) 1996-2012 Texas Instruments Incorporated
csl_sar_DmaExample.asm                                               PAGE   12

     557                                                      ; call occurs [#_SAR_init] ; |189| 
     558 000099 C406          MOV T0, *SP(#3) ; |189| 
     559                      .dwpsn  file "../c5535_bsl_revc/ezdsp5535_v1/c55xx_csl/ccs_v4.0_examples/sar/CSL_SAR_DmaExample/csl_s
     560 00009b 2249          MOV T0, AR1
     561 00009d 0409          BCC $C$L5,AR1 == #0 ; |190| 
         00009f 12   
     562                                                      ; branchcc occurs ; |190| 
     563                      .dwpsn  file "../c5535_bsl_revc/ezdsp5535_v1/c55xx_csl/ccs_v4.0_examples/sar/CSL_SAR_DmaExample/csl_s
     564 0000a0 EC31          AMOV #$C$FSL5, XAR3 ; |192| 
         0000a2 BE00 
         0000a4 0094+
     565 0000a6 EB00          MOV XAR3, dbl(*SP(#0))
         0000a8 B5   
     566              $C$DW$77        .dwtag  DW_TAG_TI_branch
     567                      .dwattr $C$DW$77, DW_AT_low_pc(0x00)
     568                      .dwattr $C$DW$77, DW_AT_name("_printf")
     569                      .dwattr $C$DW$77, DW_AT_TI_call
     570 0000a9 6C00          CALL #_printf ; |192| 
         0000ab 0000!
     571                                                      ; call occurs [#_printf] ; |192| 
     572                      .dwpsn  file "../c5535_bsl_revc/ezdsp5535_v1/c55xx_csl/ccs_v4.0_examples/sar/CSL_SAR_DmaExample/csl_s
     573 0000ad A414          MOV *SP(#10), T0 ; |193| 
     574 0000af 0602          B $C$L21  ; |193| 
         0000b1 B6   
     575                                                      ; branch occurs ; |193| 
     576 0000b2       $C$L5:    
     577                      .dwpsn  file "../c5535_bsl_revc/ezdsp5535_v1/c55xx_csl/ccs_v4.0_examples/sar/CSL_SAR_DmaExample/csl_s
     578 0000b2 EC31          AMOV #_SarObj, XAR0 ; |197| 
         0000b4 8E00 
         0000b6 0000-
     579              $C$DW$78        .dwtag  DW_TAG_TI_branch
     580                      .dwattr $C$DW$78, DW_AT_low_pc(0x00)
     581                      .dwattr $C$DW$78, DW_AT_name("_SAR_chanOpen")
     582                      .dwattr $C$DW$78, DW_AT_TI_call
     583              
     584 0000b8 6C00          CALL #_SAR_chanOpen ; |197| 
         0000ba 0000!
     585 0000bc 3D34  ||      MOV #3, T0
     586              
     587                                                      ; call occurs [#_SAR_chanOpen] ; |197| 
     588 0000be C406          MOV T0, *SP(#3) ; |197| 
     589                      .dwpsn  file "../c5535_bsl_revc/ezdsp5535_v1/c55xx_csl/ccs_v4.0_examples/sar/CSL_SAR_DmaExample/csl_s
     590 0000c0 EC31          AMOV #_SarObj, XAR3 ; |198| 
         0000c2 BE00 
         0000c4 0000-
     591 0000c6 EB08          MOV XAR3, dbl(*SP(#4))
         0000c8 B5   
     592                      .dwpsn  file "../c5535_bsl_revc/ezdsp5535_v1/c55xx_csl/ccs_v4.0_examples/sar/CSL_SAR_DmaExample/csl_s
     593 0000c9 A906          MOV *SP(#3), AR1 ; |199| 
     594 0000cb 0409          BCC $C$L6,AR1 == #0 ; |199| 
         0000cd 12   
     595                                                      ; branchcc occurs ; |199| 
     596                      .dwpsn  file "../c5535_bsl_revc/ezdsp5535_v1/c55xx_csl/ccs_v4.0_examples/sar/CSL_SAR_DmaExample/csl_s
     597 0000ce EC31          AMOV #$C$FSL6, XAR3 ; |200| 
         0000d0 BE00 
TMS320C55x Assembler PC v4.4.1 Sat Sep 29 23:08:48 2018

Tools Copyright (c) 1996-2012 Texas Instruments Incorporated
csl_sar_DmaExample.asm                                               PAGE   13

         0000d2 00A8+
     598 0000d4 EB00          MOV XAR3, dbl(*SP(#0))
         0000d6 B5   
     599              $C$DW$79        .dwtag  DW_TAG_TI_branch
     600                      .dwattr $C$DW$79, DW_AT_low_pc(0x00)
     601                      .dwattr $C$DW$79, DW_AT_name("_printf")
     602                      .dwattr $C$DW$79, DW_AT_TI_call
     603 0000d7 6C00          CALL #_printf ; |200| 
         0000d9 0000!
     604                                                      ; call occurs [#_printf] ; |200| 
     605                      .dwpsn  file "../c5535_bsl_revc/ezdsp5535_v1/c55xx_csl/ccs_v4.0_examples/sar/CSL_SAR_DmaExample/csl_s
     606 0000db A414          MOV *SP(#10), T0 ; |201| 
     607 0000dd 0602          B $C$L21  ; |201| 
         0000df 88   
     608                                                      ; branch occurs ; |201| 
     609 0000e0       $C$L6:    
     610                      .dwpsn  file "../c5535_bsl_revc/ezdsp5535_v1/c55xx_csl/ccs_v4.0_examples/sar/CSL_SAR_DmaExample/csl_s
     611 0000e0 ED08          MOV dbl(*SP(#4)), XAR0
         0000e2 8F   
     612              $C$DW$80        .dwtag  DW_TAG_TI_branch
     613                      .dwattr $C$DW$80, DW_AT_low_pc(0x00)
     614                      .dwattr $C$DW$80, DW_AT_name("_SAR_chanInit")
     615                      .dwattr $C$DW$80, DW_AT_TI_call
     616 0000e3 6C00          CALL #_SAR_chanInit ; |204| 
         0000e5 0000!
     617                                                      ; call occurs [#_SAR_chanInit] ; |204| 
     618 0000e7 C406          MOV T0, *SP(#3) ; |204| 
     619                      .dwpsn  file "../c5535_bsl_revc/ezdsp5535_v1/c55xx_csl/ccs_v4.0_examples/sar/CSL_SAR_DmaExample/csl_s
     620 0000e9 2249          MOV T0, AR1
     621 0000eb 0409          BCC $C$L7,AR1 == #0 ; |205| 
         0000ed 12   
     622                                                      ; branchcc occurs ; |205| 
     623                      .dwpsn  file "../c5535_bsl_revc/ezdsp5535_v1/c55xx_csl/ccs_v4.0_examples/sar/CSL_SAR_DmaExample/csl_s
     624 0000ee EC31          AMOV #$C$FSL7, XAR3 ; |207| 
         0000f0 BE00 
         0000f2 00C0+
     625 0000f4 EB00          MOV XAR3, dbl(*SP(#0))
         0000f6 B5   
     626              $C$DW$81        .dwtag  DW_TAG_TI_branch
     627                      .dwattr $C$DW$81, DW_AT_low_pc(0x00)
     628                      .dwattr $C$DW$81, DW_AT_name("_printf")
     629                      .dwattr $C$DW$81, DW_AT_TI_call
     630 0000f7 6C00          CALL #_printf ; |207| 
         0000f9 0000!
     631                                                      ; call occurs [#_printf] ; |207| 
     632                      .dwpsn  file "../c5535_bsl_revc/ezdsp5535_v1/c55xx_csl/ccs_v4.0_examples/sar/CSL_SAR_DmaExample/csl_s
     633 0000fb A414          MOV *SP(#10), T0 ; |208| 
     634 0000fd 0602          B $C$L21  ; |208| 
         0000ff 68   
     635                                                      ; branch occurs ; |208| 
     636 000100       $C$L7:    
     637                      .dwpsn  file "../c5535_bsl_revc/ezdsp5535_v1/c55xx_csl/ccs_v4.0_examples/sar/CSL_SAR_DmaExample/csl_s
     638 000100 E60E          MOV #2, *SP(#7) ; |210| 
         000102 02   
     639                      .dwpsn  file "../c5535_bsl_revc/ezdsp5535_v1/c55xx_csl/ccs_v4.0_examples/sar/CSL_SAR_DmaExample/csl_s
TMS320C55x Assembler PC v4.4.1 Sat Sep 29 23:08:48 2018

Tools Copyright (c) 1996-2012 Texas Instruments Incorporated
csl_sar_DmaExample.asm                                               PAGE   14

     640 000103 E610          MOV #0, *SP(#8) ; |211| 
         000105 00   
     641                      .dwpsn  file "../c5535_bsl_revc/ezdsp5535_v1/c55xx_csl/ccs_v4.0_examples/sar/CSL_SAR_DmaExample/csl_s
     642 000106 E612          MOV #2, *SP(#9) ; |212| 
         000108 02   
     643                      .dwpsn  file "../c5535_bsl_revc/ezdsp5535_v1/c55xx_csl/ccs_v4.0_examples/sar/CSL_SAR_DmaExample/csl_s
     644 000109 E60C          MOV #11, *SP(#6) ; |213| 
         00010b 0B   
     645                      .dwpsn  file "../c5535_bsl_revc/ezdsp5535_v1/c55xx_csl/ccs_v4.0_examples/sar/CSL_SAR_DmaExample/csl_s
     646 00010c EC0C          AMAR *SP(#6), XAR1
         00010e 9E   
     647 00010f ED08          MOV dbl(*SP(#4)), XAR0
         000111 8F   
     648              $C$DW$82        .dwtag  DW_TAG_TI_branch
     649                      .dwattr $C$DW$82, DW_AT_low_pc(0x00)
     650                      .dwattr $C$DW$82, DW_AT_name("_SAR_chanSetup")
     651                      .dwattr $C$DW$82, DW_AT_TI_call
     652 000112 6C00          CALL #_SAR_chanSetup ; |215| 
         000114 0000!
     653                                                      ; call occurs [#_SAR_chanSetup] ; |215| 
     654 000116 C406          MOV T0, *SP(#3) ; |215| 
     655                      .dwpsn  file "../c5535_bsl_revc/ezdsp5535_v1/c55xx_csl/ccs_v4.0_examples/sar/CSL_SAR_DmaExample/csl_s
     656 000118 2249          MOV T0, AR1
     657 00011a 0409          BCC $C$L8,AR1 == #0 ; |216| 
         00011c 12   
     658                                                      ; branchcc occurs ; |216| 
     659                      .dwpsn  file "../c5535_bsl_revc/ezdsp5535_v1/c55xx_csl/ccs_v4.0_examples/sar/CSL_SAR_DmaExample/csl_s
     660 00011d EC31          AMOV #$C$FSL8, XAR3 ; |218| 
         00011f BE00 
         000121 00D8+
     661 000123 EB00          MOV XAR3, dbl(*SP(#0))
         000125 B5   
     662              $C$DW$83        .dwtag  DW_TAG_TI_branch
     663                      .dwattr $C$DW$83, DW_AT_low_pc(0x00)
     664                      .dwattr $C$DW$83, DW_AT_name("_printf")
     665                      .dwattr $C$DW$83, DW_AT_TI_call
     666 000126 6C00          CALL #_printf ; |218| 
         000128 0000!
     667                                                      ; call occurs [#_printf] ; |218| 
     668                      .dwpsn  file "../c5535_bsl_revc/ezdsp5535_v1/c55xx_csl/ccs_v4.0_examples/sar/CSL_SAR_DmaExample/csl_s
     669 00012a A414          MOV *SP(#10), T0 ; |219| 
     670 00012c 0602          B $C$L21  ; |219| 
         00012e 39   
     671                                                      ; branch occurs ; |219| 
     672 00012f       $C$L8:    
     673                      .dwpsn  file "../c5535_bsl_revc/ezdsp5535_v1/c55xx_csl/ccs_v4.0_examples/sar/CSL_SAR_DmaExample/csl_s
     674              $C$DW$84        .dwtag  DW_TAG_TI_branch
     675                      .dwattr $C$DW$84, DW_AT_low_pc(0x00)
     676                      .dwattr $C$DW$84, DW_AT_name("_DMA_init")
     677                      .dwattr $C$DW$84, DW_AT_TI_call
     678 00012f 6C00          CALL #_DMA_init ; |224| 
         000131 0000!
     679                                                      ; call occurs [#_DMA_init] ; |224| 
     680 000133 C406          MOV T0, *SP(#3) ; |224| 
     681                      .dwpsn  file "../c5535_bsl_revc/ezdsp5535_v1/c55xx_csl/ccs_v4.0_examples/sar/CSL_SAR_DmaExample/csl_s
TMS320C55x Assembler PC v4.4.1 Sat Sep 29 23:08:48 2018

Tools Copyright (c) 1996-2012 Texas Instruments Incorporated
csl_sar_DmaExample.asm                                               PAGE   15

     682 000135 2249          MOV T0, AR1
     683 000137 0409          BCC $C$L9,AR1 == #0 ; |225| 
         000139 12   
     684                                                      ; branchcc occurs ; |225| 
     685                      .dwpsn  file "../c5535_bsl_revc/ezdsp5535_v1/c55xx_csl/ccs_v4.0_examples/sar/CSL_SAR_DmaExample/csl_s
     686 00013a EC31          AMOV #$C$FSL9, XAR3 ; |227| 
         00013c BE00 
         00013e 00F2+
     687 000140 EB00          MOV XAR3, dbl(*SP(#0))
         000142 B5   
     688              $C$DW$85        .dwtag  DW_TAG_TI_branch
     689                      .dwattr $C$DW$85, DW_AT_low_pc(0x00)
     690                      .dwattr $C$DW$85, DW_AT_name("_printf")
     691                      .dwattr $C$DW$85, DW_AT_TI_call
     692 000143 6C00          CALL #_printf ; |227| 
         000145 0000!
     693                                                      ; call occurs [#_printf] ; |227| 
     694                      .dwpsn  file "../c5535_bsl_revc/ezdsp5535_v1/c55xx_csl/ccs_v4.0_examples/sar/CSL_SAR_DmaExample/csl_s
     695 000147 A414          MOV *SP(#10), T0 ; |228| 
     696 000149 0602          B $C$L21  ; |228| 
         00014b 1C   
     697                                                      ; branch occurs ; |228| 
     698 00014c       $C$L9:    
     699                      .dwpsn  file "../c5535_bsl_revc/ezdsp5535_v1/c55xx_csl/ccs_v4.0_examples/sar/CSL_SAR_DmaExample/csl_s
     700 00014c E631          MOV #0, *(#_dmaConfig) ; |236| 
         00014e 0000 
         000150 0012-
     701                      .dwpsn  file "../c5535_bsl_revc/ezdsp5535_v1/c55xx_csl/ccs_v4.0_examples/sar/CSL_SAR_DmaExample/csl_s
     702 000152 E631          MOV #1, *(#(_dmaConfig+1)) ; |238| 
         000154 0100 
         000156 0013-
     703                      .dwpsn  file "../c5535_bsl_revc/ezdsp5535_v1/c55xx_csl/ccs_v4.0_examples/sar/CSL_SAR_DmaExample/csl_s
     704 000158 E631          MOV #0, *(#(_dmaConfig+2)) ; |239| 
         00015a 0000 
         00015c 0014-
     705                      .dwpsn  file "../c5535_bsl_revc/ezdsp5535_v1/c55xx_csl/ccs_v4.0_examples/sar/CSL_SAR_DmaExample/csl_s
     706 00015e E631          MOV #1, *(#(_dmaConfig+3)) ; |240| 
         000160 0100 
         000162 0015-
     707                      .dwpsn  file "../c5535_bsl_revc/ezdsp5535_v1/c55xx_csl/ccs_v4.0_examples/sar/CSL_SAR_DmaExample/csl_s
     708 000164 E631          MOV #3, *(#(_dmaConfig+4)) ; |241| 
         000166 0300 
         000168 0016-
     709                      .dwpsn  file "../c5535_bsl_revc/ezdsp5535_v1/c55xx_csl/ccs_v4.0_examples/sar/CSL_SAR_DmaExample/csl_s
     710 00016a E631          MOV #1, *(#(_dmaConfig+5)) ; |242| 
         00016c 0100 
         00016e 0017-
     711                      .dwpsn  file "../c5535_bsl_revc/ezdsp5535_v1/c55xx_csl/ccs_v4.0_examples/sar/CSL_SAR_DmaExample/csl_s
     712 000170 E631          MOV #0, *(#(_dmaConfig+6)) ; |243| 
         000172 0000 
         000174 0018-
     713                      .dwpsn  file "../c5535_bsl_revc/ezdsp5535_v1/c55xx_csl/ccs_v4.0_examples/sar/CSL_SAR_DmaExample/csl_s
     714 000176 E631          MOV #0, *(#(_dmaConfig+7)) ; |244| 
         000178 0000 
         00017a 0019-
TMS320C55x Assembler PC v4.4.1 Sat Sep 29 23:08:48 2018

Tools Copyright (c) 1996-2012 Texas Instruments Incorporated
csl_sar_DmaExample.asm                                               PAGE   16

     715                      .dwpsn  file "../c5535_bsl_revc/ezdsp5535_v1/c55xx_csl/ccs_v4.0_examples/sar/CSL_SAR_DmaExample/csl_s
     716 00017c E631          MOV #4, *(#(_dmaConfig+8)) ; |245| 
         00017e 0400 
         000180 001A-
     717                      .dwpsn  file "../c5535_bsl_revc/ezdsp5535_v1/c55xx_csl/ccs_v4.0_examples/sar/CSL_SAR_DmaExample/csl_s
     718 000182 ED08          MOV dbl(*SP(#4)), XAR3
         000184 BF   
     719 000185 DF61          MOV uns(*AR3), AC0 ; |246| 
         000187 05   
     720 000188 900B          MOV AC0, XAR3
     721 00018a 1414          AADD #20, AR3 ; |246| 
         00018c B4   
     722 00018d 90B0          MOV XAR3, AC0
     723 00018f EB31          MOV AC0, dbl(*(#(_dmaConfig+10))) ; |246| 
         000191 0800 
         000193 001C-
     724                      .dwpsn  file "../c5535_bsl_revc/ezdsp5535_v1/c55xx_csl/ccs_v4.0_examples/sar/CSL_SAR_DmaExample/csl_s
     725 000195 7A00          MOV #(_readBuffer >> 16) << #16, AC0 ; |247| 
         000197 000A%
     726 000199 7E00          OR #(_readBuffer & 0xffff), AC0, AC0 ; |247| 
         00019b 0000%
     727 00019d EB31          MOV AC0, dbl(*(#(_dmaConfig+12))) ; |247| 
         00019f 0800 
         0001a1 001E-
     728                      .dwpsn  file "../c5535_bsl_revc/ezdsp5535_v1/c55xx_csl/ccs_v4.0_examples/sar/CSL_SAR_DmaExample/csl_s
     729 0001a3 EC06          AMAR *SP(#3), XAR1
         0001a5 9E   
     730 0001a6 EC31          AMOV #_dmaObj, XAR0 ; |249| 
         0001a8 8E00 
         0001aa 0006-
     731              $C$DW$86        .dwtag  DW_TAG_TI_branch
     732                      .dwattr $C$DW$86, DW_AT_low_pc(0x00)
     733                      .dwattr $C$DW$86, DW_AT_name("_DMA_open")
     734                      .dwattr $C$DW$86, DW_AT_TI_call
     735              
     736 0001ac 6C00          CALL #_DMA_open ; |249| 
         0001ae 0000!
     737 0001b0 3D84  ||      MOV #8, T0
     738              
     739                                                      ; call occurs [#_DMA_open] ; |249| 
     740 0001b2 EB31          MOV XAR0, dbl(*(#_dmaHandle))
         0001b4 8500 
         0001b6 0010-
     741                      .dwpsn  file "../c5535_bsl_revc/ezdsp5535_v1/c55xx_csl/ccs_v4.0_examples/sar/CSL_SAR_DmaExample/csl_s
     742 0001b8 ED31          MOV dbl(*(#_dmaHandle)), XAR3
         0001ba BF00 
         0001bc 0010-
     743 0001be 90B0          MOV XAR3, AC0
     744 0001c0 0410          BCC $C$L10,AC0 != #0 ; |250| 
         0001c2 12   
     745                                                      ; branchcc occurs ; |250| 
     746                      .dwpsn  file "../c5535_bsl_revc/ezdsp5535_v1/c55xx_csl/ccs_v4.0_examples/sar/CSL_SAR_DmaExample/csl_s
     747 0001c3 EC31          AMOV #$C$FSL10, XAR3 ; |252| 
         0001c5 BE00 
         0001c7 0106+
TMS320C55x Assembler PC v4.4.1 Sat Sep 29 23:08:48 2018

Tools Copyright (c) 1996-2012 Texas Instruments Incorporated
csl_sar_DmaExample.asm                                               PAGE   17

     748 0001c9 EB00          MOV XAR3, dbl(*SP(#0))
         0001cb B5   
     749              $C$DW$87        .dwtag  DW_TAG_TI_branch
     750                      .dwattr $C$DW$87, DW_AT_low_pc(0x00)
     751                      .dwattr $C$DW$87, DW_AT_name("_printf")
     752                      .dwattr $C$DW$87, DW_AT_TI_call
     753 0001cc 6C00          CALL #_printf ; |252| 
         0001ce 0000!
     754                                                      ; call occurs [#_printf] ; |252| 
     755                      .dwpsn  file "../c5535_bsl_revc/ezdsp5535_v1/c55xx_csl/ccs_v4.0_examples/sar/CSL_SAR_DmaExample/csl_s
     756 0001d0 A414          MOV *SP(#10), T0 ; |253| 
     757 0001d2 0601          B $C$L21  ; |253| 
         0001d4 93   
     758                                                      ; branch occurs ; |253| 
     759 0001d5       $C$L10:    
     760                      .dwpsn  file "../c5535_bsl_revc/ezdsp5535_v1/c55xx_csl/ccs_v4.0_examples/sar/CSL_SAR_DmaExample/csl_s
     761              $C$DW$88        .dwtag  DW_TAG_TI_branch
     762                      .dwattr $C$DW$88, DW_AT_low_pc(0x00)
     763                      .dwattr $C$DW$88, DW_AT_name("_IRQ_globalDisable")
     764                      .dwattr $C$DW$88, DW_AT_TI_call
     765 0001d5 6C00          CALL #_IRQ_globalDisable ; |257| 
         0001d7 0000!
     766                                                      ; call occurs [#_IRQ_globalDisable] ; |257| 
     767                      .dwpsn  file "../c5535_bsl_revc/ezdsp5535_v1/c55xx_csl/ccs_v4.0_examples/sar/CSL_SAR_DmaExample/csl_s
     768              $C$DW$89        .dwtag  DW_TAG_TI_branch
     769                      .dwattr $C$DW$89, DW_AT_low_pc(0x00)
     770                      .dwattr $C$DW$89, DW_AT_name("_IRQ_clearAll")
     771                      .dwattr $C$DW$89, DW_AT_TI_call
     772 0001d9 6C00          CALL #_IRQ_clearAll ; |260| 
         0001db 0000!
     773                                                      ; call occurs [#_IRQ_clearAll] ; |260| 
     774                      .dwpsn  file "../c5535_bsl_revc/ezdsp5535_v1/c55xx_csl/ccs_v4.0_examples/sar/CSL_SAR_DmaExample/csl_s
     775              $C$DW$90        .dwtag  DW_TAG_TI_branch
     776                      .dwattr $C$DW$90, DW_AT_low_pc(0x00)
     777                      .dwattr $C$DW$90, DW_AT_name("_IRQ_disableAll")
     778                      .dwattr $C$DW$90, DW_AT_TI_call
     779 0001dd 6C00          CALL #_IRQ_disableAll ; |263| 
         0001df 0000!
     780                                                      ; call occurs [#_IRQ_disableAll] ; |263| 
     781                      .dwpsn  file "../c5535_bsl_revc/ezdsp5535_v1/c55xx_csl/ccs_v4.0_examples/sar/CSL_SAR_DmaExample/csl_s
     782 0001e1 7A00          MOV #(_VECSTART >> 16) << #16, AC0 ; |265| 
         0001e3 000A%
     783 0001e5 7E00          OR #(_VECSTART & 0xffff), AC0, AC0 ; |265| 
         0001e7 0000%
     784              $C$DW$91        .dwtag  DW_TAG_TI_branch
     785                      .dwattr $C$DW$91, DW_AT_low_pc(0x00)
     786                      .dwattr $C$DW$91, DW_AT_name("_IRQ_setVecs")
     787                      .dwattr $C$DW$91, DW_AT_TI_call
     788 0001e9 6C00          CALL #_IRQ_setVecs ; |265| 
         0001eb 0000!
     789                                                      ; call occurs [#_IRQ_setVecs] ; |265| 
     790                      .dwpsn  file "../c5535_bsl_revc/ezdsp5535_v1/c55xx_csl/ccs_v4.0_examples/sar/CSL_SAR_DmaExample/csl_s
     791              $C$DW$92        .dwtag  DW_TAG_TI_branch
     792                      .dwattr $C$DW$92, DW_AT_low_pc(0x00)
     793                      .dwattr $C$DW$92, DW_AT_name("_IRQ_clear")
TMS320C55x Assembler PC v4.4.1 Sat Sep 29 23:08:48 2018

Tools Copyright (c) 1996-2012 Texas Instruments Incorporated
csl_sar_DmaExample.asm                                               PAGE   18

     794                      .dwattr $C$DW$92, DW_AT_TI_call
     795              
     796 0001ed 6C00          CALL #_IRQ_clear ; |266| 
         0001ef 0000!
     797 0001f1 3D84  ||      MOV #8, T0
     798              
     799                                                      ; call occurs [#_IRQ_clear] ; |266| 
     800                      .dwpsn  file "../c5535_bsl_revc/ezdsp5535_v1/c55xx_csl/ccs_v4.0_examples/sar/CSL_SAR_DmaExample/csl_s
     801              $C$DW$93        .dwtag  DW_TAG_TI_branch
     802                      .dwattr $C$DW$93, DW_AT_low_pc(0x00)
     803                      .dwattr $C$DW$93, DW_AT_name("_IRQ_clear")
     804                      .dwattr $C$DW$93, DW_AT_TI_call
     805              
     806 0001f3 6C00          CALL #_IRQ_clear ; |267| 
         0001f5 0000!
     807 0001f7 3DD4  ||      MOV #13, T0
     808              
     809                                                      ; call occurs [#_IRQ_clear] ; |267| 
     810                      .dwpsn  file "../c5535_bsl_revc/ezdsp5535_v1/c55xx_csl/ccs_v4.0_examples/sar/CSL_SAR_DmaExample/csl_s
     811 0001f9 7A00          MOV #(_dma_isr >> 16) << #16, AC0 ; |269| 
         0001fb 000A%
     812 0001fd 7E00          OR #(_dma_isr & 0xffff), AC0, AC0 ; |269| 
         0001ff 0000%
     813              $C$DW$94        .dwtag  DW_TAG_TI_branch
     814                      .dwattr $C$DW$94, DW_AT_low_pc(0x00)
     815                      .dwattr $C$DW$94, DW_AT_name("_IRQ_plug")
     816                      .dwattr $C$DW$94, DW_AT_TI_call
     817              
     818 000201 6C00          CALL #_IRQ_plug ; |269| 
         000203 0000!
     819 000205 3D84  ||      MOV #8, T0
     820              
     821                                                      ; call occurs [#_IRQ_plug] ; |269| 
     822                      .dwpsn  file "../c5535_bsl_revc/ezdsp5535_v1/c55xx_csl/ccs_v4.0_examples/sar/CSL_SAR_DmaExample/csl_s
     823              $C$DW$95        .dwtag  DW_TAG_TI_branch
     824                      .dwattr $C$DW$95, DW_AT_low_pc(0x00)
     825                      .dwattr $C$DW$95, DW_AT_name("_IRQ_enable")
     826                      .dwattr $C$DW$95, DW_AT_TI_call
     827              
     828 000207 6C00          CALL #_IRQ_enable ; |271| 
         000209 0000!
     829 00020b 3D84  ||      MOV #8, T0
     830              
     831                                                      ; call occurs [#_IRQ_enable] ; |271| 
     832                      .dwpsn  file "../c5535_bsl_revc/ezdsp5535_v1/c55xx_csl/ccs_v4.0_examples/sar/CSL_SAR_DmaExample/csl_s
     833              $C$DW$96        .dwtag  DW_TAG_TI_branch
     834                      .dwattr $C$DW$96, DW_AT_low_pc(0x00)
     835                      .dwattr $C$DW$96, DW_AT_name("_IRQ_globalEnable")
     836                      .dwattr $C$DW$96, DW_AT_TI_call
     837 00020d 6C00          CALL #_IRQ_globalEnable ; |272| 
         00020f 0000!
     838                                                      ; call occurs [#_IRQ_globalEnable] ; |272| 
     839                      .dwpsn  file "../c5535_bsl_revc/ezdsp5535_v1/c55xx_csl/ccs_v4.0_examples/sar/CSL_SAR_DmaExample/csl_s
     840 000211 EC31          AMOV #_dmaConfig, XAR1 ; |275| 
         000213 9E00 
TMS320C55x Assembler PC v4.4.1 Sat Sep 29 23:08:48 2018

Tools Copyright (c) 1996-2012 Texas Instruments Incorporated
csl_sar_DmaExample.asm                                               PAGE   19

         000215 0012-
     841 000217 ED31          MOV dbl(*(#_dmaHandle)), XAR0
         000219 8F00 
         00021b 0010-
     842              $C$DW$97        .dwtag  DW_TAG_TI_branch
     843                      .dwattr $C$DW$97, DW_AT_low_pc(0x00)
     844                      .dwattr $C$DW$97, DW_AT_name("_DMA_config")
     845                      .dwattr $C$DW$97, DW_AT_TI_call
     846 00021d 6C00          CALL #_DMA_config ; |275| 
         00021f 0000!
     847                                                      ; call occurs [#_DMA_config] ; |275| 
     848 000221 C406          MOV T0, *SP(#3) ; |275| 
     849                      .dwpsn  file "../c5535_bsl_revc/ezdsp5535_v1/c55xx_csl/ccs_v4.0_examples/sar/CSL_SAR_DmaExample/csl_s
     850 000223 2249          MOV T0, AR1
     851 000225 0409          BCC $C$L11,AR1 == #0 ; |276| 
         000227 12   
     852                                                      ; branchcc occurs ; |276| 
     853                      .dwpsn  file "../c5535_bsl_revc/ezdsp5535_v1/c55xx_csl/ccs_v4.0_examples/sar/CSL_SAR_DmaExample/csl_s
     854 000228 EC31          AMOV #$C$FSL11, XAR3 ; |278| 
         00022a BE00 
         00022c 011A+
     855 00022e EB00          MOV XAR3, dbl(*SP(#0))
         000230 B5   
     856              $C$DW$98        .dwtag  DW_TAG_TI_branch
     857                      .dwattr $C$DW$98, DW_AT_low_pc(0x00)
     858                      .dwattr $C$DW$98, DW_AT_name("_printf")
     859                      .dwattr $C$DW$98, DW_AT_TI_call
     860 000231 6C00          CALL #_printf ; |278| 
         000233 0000!
     861                                                      ; call occurs [#_printf] ; |278| 
     862                      .dwpsn  file "../c5535_bsl_revc/ezdsp5535_v1/c55xx_csl/ccs_v4.0_examples/sar/CSL_SAR_DmaExample/csl_s
     863 000235 A414          MOV *SP(#10), T0 ; |279| 
     864 000237 0601          B $C$L21  ; |279| 
         000239 2E   
     865                                                      ; branch occurs ; |279| 
     866 00023a       $C$L11:    
     867                      .dwpsn  file "../c5535_bsl_revc/ezdsp5535_v1/c55xx_csl/ccs_v4.0_examples/sar/CSL_SAR_DmaExample/csl_s
     868 00023a ED08          MOV dbl(*SP(#4)), XAR0
         00023c 8F   
     869              $C$DW$99        .dwtag  DW_TAG_TI_branch
     870                      .dwattr $C$DW$99, DW_AT_low_pc(0x00)
     871                      .dwattr $C$DW$99, DW_AT_name("_SAR_chanCycSet")
     872                      .dwattr $C$DW$99, DW_AT_TI_call
     873              
     874 00023d 6C00          CALL #_SAR_chanCycSet ; |282| 
         00023f 0000!
     875 000241 3D14  ||      MOV #1, T0
     876              
     877                                                      ; call occurs [#_SAR_chanCycSet] ; |282| 
     878 000243 C406          MOV T0, *SP(#3) ; |282| 
     879                      .dwpsn  file "../c5535_bsl_revc/ezdsp5535_v1/c55xx_csl/ccs_v4.0_examples/sar/CSL_SAR_DmaExample/csl_s
     880 000245 2249          MOV T0, AR1
     881 000247 0409          BCC $C$L12,AR1 == #0 ; |283| 
         000249 12   
     882                                                      ; branchcc occurs ; |283| 
TMS320C55x Assembler PC v4.4.1 Sat Sep 29 23:08:48 2018

Tools Copyright (c) 1996-2012 Texas Instruments Incorporated
csl_sar_DmaExample.asm                                               PAGE   20

     883                      .dwpsn  file "../c5535_bsl_revc/ezdsp5535_v1/c55xx_csl/ccs_v4.0_examples/sar/CSL_SAR_DmaExample/csl_s
     884 00024a EC31          AMOV #$C$FSL12, XAR3 ; |285| 
         00024c BE00 
         00024e 0130+
     885 000250 EB00          MOV XAR3, dbl(*SP(#0))
         000252 B5   
     886              $C$DW$100       .dwtag  DW_TAG_TI_branch
     887                      .dwattr $C$DW$100, DW_AT_low_pc(0x00)
     888                      .dwattr $C$DW$100, DW_AT_name("_printf")
     889                      .dwattr $C$DW$100, DW_AT_TI_call
     890 000253 6C00          CALL #_printf ; |285| 
         000255 0000!
     891                                                      ; call occurs [#_printf] ; |285| 
     892                      .dwpsn  file "../c5535_bsl_revc/ezdsp5535_v1/c55xx_csl/ccs_v4.0_examples/sar/CSL_SAR_DmaExample/csl_s
     893 000257 A414          MOV *SP(#10), T0 ; |286| 
     894 000259 0601          B $C$L21  ; |286| 
         00025b 0C   
     895                                                      ; branch occurs ; |286| 
     896 00025c       $C$L12:    
     897                      .dwpsn  file "../c5535_bsl_revc/ezdsp5535_v1/c55xx_csl/ccs_v4.0_examples/sar/CSL_SAR_DmaExample/csl_s
     898 00025c ED08          MOV dbl(*SP(#4)), XAR0
         00025e 8F   
     899 00025f EC16          AMAR *SP(#11), XAR1
         000261 9E   
     900              $C$DW$101       .dwtag  DW_TAG_TI_branch
     901                      .dwattr $C$DW$101, DW_AT_low_pc(0x00)
     902                      .dwattr $C$DW$101, DW_AT_name("_SAR_A2DMeasParamSet")
     903                      .dwattr $C$DW$101, DW_AT_TI_call
     904              
     905 000262 6C00          CALL #_SAR_A2DMeasParamSet ; |289| 
         000264 0000!
     906 000266 3D04  ||      MOV #0, T0
     907              
     908                                                      ; call occurs [#_SAR_A2DMeasParamSet] ; |289| 
     909 000268 C406          MOV T0, *SP(#3) ; |289| 
     910                      .dwpsn  file "../c5535_bsl_revc/ezdsp5535_v1/c55xx_csl/ccs_v4.0_examples/sar/CSL_SAR_DmaExample/csl_s
     911 00026a 2249          MOV T0, AR1
     912 00026c 0409          BCC $C$L13,AR1 == #0 ; |290| 
         00026e 12   
     913                                                      ; branchcc occurs ; |290| 
     914                      .dwpsn  file "../c5535_bsl_revc/ezdsp5535_v1/c55xx_csl/ccs_v4.0_examples/sar/CSL_SAR_DmaExample/csl_s
     915 00026f EC31          AMOV #$C$FSL13, XAR3 ; |292| 
         000271 BE00 
         000273 014A+
     916 000275 EB00          MOV XAR3, dbl(*SP(#0))
         000277 B5   
     917              $C$DW$102       .dwtag  DW_TAG_TI_branch
     918                      .dwattr $C$DW$102, DW_AT_low_pc(0x00)
     919                      .dwattr $C$DW$102, DW_AT_name("_printf")
     920                      .dwattr $C$DW$102, DW_AT_TI_call
     921 000278 6C00          CALL #_printf ; |292| 
         00027a 0000!
     922                                                      ; call occurs [#_printf] ; |292| 
     923                      .dwpsn  file "../c5535_bsl_revc/ezdsp5535_v1/c55xx_csl/ccs_v4.0_examples/sar/CSL_SAR_DmaExample/csl_s
     924 00027c A414          MOV *SP(#10), T0 ; |293| 
TMS320C55x Assembler PC v4.4.1 Sat Sep 29 23:08:48 2018

Tools Copyright (c) 1996-2012 Texas Instruments Incorporated
csl_sar_DmaExample.asm                                               PAGE   21

     925 00027e 0600          B $C$L21  ; |293| 
         000280 E7   
     926                                                      ; branch occurs ; |293| 
     927 000281       $C$L13:    
     928                      .dwpsn  file "../c5535_bsl_revc/ezdsp5535_v1/c55xx_csl/ccs_v4.0_examples/sar/CSL_SAR_DmaExample/csl_s
     929 000281 EC31          AMOV #$C$FSL14, XAR3 ; |295| 
         000283 BE00 
         000285 0168+
     930 000287 EB00          MOV XAR3, dbl(*SP(#0))
         000289 B5   
     931 00028a A916          MOV *SP(#11), AR1 ; |295| 
     932 00028c C904          MOV AR1, *SP(#2) ; |295| 
     933              $C$DW$103       .dwtag  DW_TAG_TI_branch
     934                      .dwattr $C$DW$103, DW_AT_low_pc(0x00)
     935                      .dwattr $C$DW$103, DW_AT_name("_printf")
     936                      .dwattr $C$DW$103, DW_AT_TI_call
     937 00028e 6C00          CALL #_printf ; |295| 
         000290 0000!
     938                                                      ; call occurs [#_printf] ; |295| 
     939                      .dwpsn  file "../c5535_bsl_revc/ezdsp5535_v1/c55xx_csl/ccs_v4.0_examples/sar/CSL_SAR_DmaExample/csl_s
     940 000292 ED31          MOV dbl(*(#_dmaHandle)), XAR0
         000294 8F00 
         000296 0010-
     941              $C$DW$104       .dwtag  DW_TAG_TI_branch
     942                      .dwattr $C$DW$104, DW_AT_low_pc(0x00)
     943                      .dwattr $C$DW$104, DW_AT_name("_DMA_start")
     944                      .dwattr $C$DW$104, DW_AT_TI_call
     945 000298 6C00          CALL #_DMA_start ; |297| 
         00029a 0000!
     946                                                      ; call occurs [#_DMA_start] ; |297| 
     947 00029c C406          MOV T0, *SP(#3) ; |297| 
     948                      .dwpsn  file "../c5535_bsl_revc/ezdsp5535_v1/c55xx_csl/ccs_v4.0_examples/sar/CSL_SAR_DmaExample/csl_s
     949 00029e 2249          MOV T0, AR1
     950 0002a0 0409          BCC $C$L14,AR1 == #0 ; |298| 
         0002a2 12   
     951                                                      ; branchcc occurs ; |298| 
     952                      .dwpsn  file "../c5535_bsl_revc/ezdsp5535_v1/c55xx_csl/ccs_v4.0_examples/sar/CSL_SAR_DmaExample/csl_s
     953 0002a3 EC31          AMOV #$C$FSL15, XAR3 ; |300| 
         0002a5 BE00 
         0002a7 0184+
     954 0002a9 EB00          MOV XAR3, dbl(*SP(#0))
         0002ab B5   
     955              $C$DW$105       .dwtag  DW_TAG_TI_branch
     956                      .dwattr $C$DW$105, DW_AT_low_pc(0x00)
     957                      .dwattr $C$DW$105, DW_AT_name("_printf")
     958                      .dwattr $C$DW$105, DW_AT_TI_call
     959 0002ac 6C00          CALL #_printf ; |300| 
         0002ae 0000!
     960                                                      ; call occurs [#_printf] ; |300| 
     961                      .dwpsn  file "../c5535_bsl_revc/ezdsp5535_v1/c55xx_csl/ccs_v4.0_examples/sar/CSL_SAR_DmaExample/csl_s
     962 0002b0 A414          MOV *SP(#10), T0 ; |301| 
     963 0002b2 0600          B $C$L21  ; |301| 
         0002b4 B3   
     964                                                      ; branch occurs ; |301| 
     965 0002b5       $C$L14:    
TMS320C55x Assembler PC v4.4.1 Sat Sep 29 23:08:48 2018

Tools Copyright (c) 1996-2012 Texas Instruments Incorporated
csl_sar_DmaExample.asm                                               PAGE   22

     966                      .dwpsn  file "../c5535_bsl_revc/ezdsp5535_v1/c55xx_csl/ccs_v4.0_examples/sar/CSL_SAR_DmaExample/csl_s
     967 0002b5 ED08          MOV dbl(*SP(#4)), XAR0
         0002b7 8F   
     968              $C$DW$106       .dwtag  DW_TAG_TI_branch
     969                      .dwattr $C$DW$106, DW_AT_low_pc(0x00)
     970                      .dwattr $C$DW$106, DW_AT_name("_SAR_startConversion")
     971                      .dwattr $C$DW$106, DW_AT_TI_call
     972 0002b8 6C00          CALL #_SAR_startConversion ; |306| 
         0002ba 0000!
     973                                                      ; call occurs [#_SAR_startConversion] ; |306| 
     974 0002bc C406          MOV T0, *SP(#3) ; |306| 
     975                      .dwpsn  file "../c5535_bsl_revc/ezdsp5535_v1/c55xx_csl/ccs_v4.0_examples/sar/CSL_SAR_DmaExample/csl_s
     976 0002be 2249          MOV T0, AR1
     977 0002c0 0409          BCC $C$L15,AR1 == #0 ; |307| 
         0002c2 12   
     978                                                      ; branchcc occurs ; |307| 
     979                      .dwpsn  file "../c5535_bsl_revc/ezdsp5535_v1/c55xx_csl/ccs_v4.0_examples/sar/CSL_SAR_DmaExample/csl_s
     980 0002c3 EC31          AMOV #$C$FSL16, XAR3 ; |309| 
         0002c5 BE00 
         0002c7 019A+
     981 0002c9 EB00          MOV XAR3, dbl(*SP(#0))
         0002cb B5   
     982              $C$DW$107       .dwtag  DW_TAG_TI_branch
     983                      .dwattr $C$DW$107, DW_AT_low_pc(0x00)
     984                      .dwattr $C$DW$107, DW_AT_name("_printf")
     985                      .dwattr $C$DW$107, DW_AT_TI_call
     986 0002cc 6C00          CALL #_printf ; |309| 
         0002ce 0000!
     987                                                      ; call occurs [#_printf] ; |309| 
     988                      .dwpsn  file "../c5535_bsl_revc/ezdsp5535_v1/c55xx_csl/ccs_v4.0_examples/sar/CSL_SAR_DmaExample/csl_s
     989 0002d0 A414          MOV *SP(#10), T0 ; |310| 
     990 0002d2 0600          B $C$L21  ; |310| 
         0002d4 93   
     991                                                      ; branch occurs ; |310| 
     992 0002d5       $C$L15:    
     993                      .dwpsn  file "../c5535_bsl_revc/ezdsp5535_v1/c55xx_csl/ccs_v4.0_examples/sar/CSL_SAR_DmaExample/csl_s
     994 0002d5 F031          CMP *(#_i) == #1, TC1 ; |313| 
         0002d7 0001 
         0002d9 0000 
         0002db 03-  
     995 0002dc 6564          BCC $C$L17,TC1 ; |313| 
     996                                                      ; branchcc occurs ; |313| 
     997 0002de       $C$L16:    
     998 0002de       $C$DW$L$_sar_test_dma_keypad_voltage$25$B:
     999 0002de F031          CMP *(#_i) == #1, TC1 ; |313| 
         0002e0 0001 
         0002e2 0000 
         0002e4 03-  
    1000 0002e5 0474          BCC $C$L16,!TC1 ; |313| 
         0002e7 F6   
    1001                                                      ; branchcc occurs ; |313| 
    1002 0002e8       $C$DW$L$_sar_test_dma_keypad_voltage$25$E:
    1003 0002e8       $C$L17:    
    1004                      .dwpsn  file "../c5535_bsl_revc/ezdsp5535_v1/c55xx_csl/ccs_v4.0_examples/sar/CSL_SAR_DmaExample/csl_s
    1005 0002e8 EC31          AMOV #$C$FSL17, XAR3 ; |315| 
TMS320C55x Assembler PC v4.4.1 Sat Sep 29 23:08:48 2018

Tools Copyright (c) 1996-2012 Texas Instruments Incorporated
csl_sar_DmaExample.asm                                               PAGE   23

         0002ea BE00 
         0002ec 01B8+
    1006 0002ee A931          MOV *(#(_readBuffer+1)), AR1 ; |315| 
         0002f0 0000 
         0002f2 05-  
    1007 0002f3 EB00          MOV XAR3, dbl(*SP(#0))
         0002f5 B5   
    1008 0002f6 C904          MOV AR1, *SP(#2) ; |315| 
    1009              $C$DW$108       .dwtag  DW_TAG_TI_branch
    1010                      .dwattr $C$DW$108, DW_AT_low_pc(0x00)
    1011                      .dwattr $C$DW$108, DW_AT_name("_printf")
    1012                      .dwattr $C$DW$108, DW_AT_TI_call
    1013 0002f8 6C00          CALL #_printf ; |315| 
         0002fa 0000!
    1014                                                      ; call occurs [#_printf] ; |315| 
    1015                      .dwpsn  file "../c5535_bsl_revc/ezdsp5535_v1/c55xx_csl/ccs_v4.0_examples/sar/CSL_SAR_DmaExample/csl_s
    1016              $C$DW$109       .dwtag  DW_TAG_TI_branch
    1017                      .dwattr $C$DW$109, DW_AT_low_pc(0x00)
    1018                      .dwattr $C$DW$109, DW_AT_name("_IRQ_globalDisable")
    1019                      .dwattr $C$DW$109, DW_AT_TI_call
    1020 0002fc 6C00          CALL #_IRQ_globalDisable ; |317| 
         0002fe 0000!
    1021                                                      ; call occurs [#_IRQ_globalDisable] ; |317| 
    1022                      .dwpsn  file "../c5535_bsl_revc/ezdsp5535_v1/c55xx_csl/ccs_v4.0_examples/sar/CSL_SAR_DmaExample/csl_s
    1023              $C$DW$110       .dwtag  DW_TAG_TI_branch
    1024                      .dwattr $C$DW$110, DW_AT_low_pc(0x00)
    1025                      .dwattr $C$DW$110, DW_AT_name("_IRQ_clearAll")
    1026                      .dwattr $C$DW$110, DW_AT_TI_call
    1027 000300 6C00          CALL #_IRQ_clearAll ; |320| 
         000302 0000!
    1028                                                      ; call occurs [#_IRQ_clearAll] ; |320| 
    1029                      .dwpsn  file "../c5535_bsl_revc/ezdsp5535_v1/c55xx_csl/ccs_v4.0_examples/sar/CSL_SAR_DmaExample/csl_s
    1030              $C$DW$111       .dwtag  DW_TAG_TI_branch
    1031                      .dwattr $C$DW$111, DW_AT_low_pc(0x00)
    1032                      .dwattr $C$DW$111, DW_AT_name("_IRQ_disableAll")
    1033                      .dwattr $C$DW$111, DW_AT_TI_call
    1034 000304 6C00          CALL #_IRQ_disableAll ; |323| 
         000306 0000!
    1035                                                      ; call occurs [#_IRQ_disableAll] ; |323| 
    1036                      .dwpsn  file "../c5535_bsl_revc/ezdsp5535_v1/c55xx_csl/ccs_v4.0_examples/sar/CSL_SAR_DmaExample/csl_s
    1037 000308 ED08          MOV dbl(*SP(#4)), XAR0
         00030a 8F   
    1038              $C$DW$112       .dwtag  DW_TAG_TI_branch
    1039                      .dwattr $C$DW$112, DW_AT_low_pc(0x00)
    1040                      .dwattr $C$DW$112, DW_AT_name("_SAR_stopConversion")
    1041                      .dwattr $C$DW$112, DW_AT_TI_call
    1042 00030b 6C00          CALL #_SAR_stopConversion ; |326| 
         00030d 0000!
    1043                                                      ; call occurs [#_SAR_stopConversion] ; |326| 
    1044 00030f C406          MOV T0, *SP(#3) ; |326| 
    1045                      .dwpsn  file "../c5535_bsl_revc/ezdsp5535_v1/c55xx_csl/ccs_v4.0_examples/sar/CSL_SAR_DmaExample/csl_s
    1046 000311 2249          MOV T0, AR1
    1047 000313 0409          BCC $C$L18,AR1 == #0 ; |327| 
         000315 12   
    1048                                                      ; branchcc occurs ; |327| 
TMS320C55x Assembler PC v4.4.1 Sat Sep 29 23:08:48 2018

Tools Copyright (c) 1996-2012 Texas Instruments Incorporated
csl_sar_DmaExample.asm                                               PAGE   24

    1049                      .dwpsn  file "../c5535_bsl_revc/ezdsp5535_v1/c55xx_csl/ccs_v4.0_examples/sar/CSL_SAR_DmaExample/csl_s
    1050 000316 EC31          AMOV #$C$FSL18, XAR3 ; |329| 
         000318 BE00 
         00031a 01CC+
    1051 00031c EB00          MOV XAR3, dbl(*SP(#0))
         00031e B5   
    1052              $C$DW$113       .dwtag  DW_TAG_TI_branch
    1053                      .dwattr $C$DW$113, DW_AT_low_pc(0x00)
    1054                      .dwattr $C$DW$113, DW_AT_name("_printf")
    1055                      .dwattr $C$DW$113, DW_AT_TI_call
    1056 00031f 6C00          CALL #_printf ; |329| 
         000321 0000!
    1057                                                      ; call occurs [#_printf] ; |329| 
    1058                      .dwpsn  file "../c5535_bsl_revc/ezdsp5535_v1/c55xx_csl/ccs_v4.0_examples/sar/CSL_SAR_DmaExample/csl_s
    1059 000323 A414          MOV *SP(#10), T0 ; |330| 
    1060 000325 0600          B $C$L21  ; |330| 
         000327 40   
    1061                                                      ; branch occurs ; |330| 
    1062 000328       $C$L18:    
    1063                      .dwpsn  file "../c5535_bsl_revc/ezdsp5535_v1/c55xx_csl/ccs_v4.0_examples/sar/CSL_SAR_DmaExample/csl_s
    1064 000328 ED08          MOV dbl(*SP(#4)), XAR0
         00032a 8F   
    1065              $C$DW$114       .dwtag  DW_TAG_TI_branch
    1066                      .dwattr $C$DW$114, DW_AT_low_pc(0x00)
    1067                      .dwattr $C$DW$114, DW_AT_name("_SAR_chanClose")
    1068                      .dwattr $C$DW$114, DW_AT_TI_call
    1069 00032b 6C00          CALL #_SAR_chanClose ; |333| 
         00032d 0000!
    1070                                                      ; call occurs [#_SAR_chanClose] ; |333| 
    1071 00032f C406          MOV T0, *SP(#3) ; |333| 
    1072                      .dwpsn  file "../c5535_bsl_revc/ezdsp5535_v1/c55xx_csl/ccs_v4.0_examples/sar/CSL_SAR_DmaExample/csl_s
    1073 000331 2249          MOV T0, AR1
    1074 000333 0409          BCC $C$L19,AR1 == #0 ; |334| 
         000335 11   
    1075                                                      ; branchcc occurs ; |334| 
    1076                      .dwpsn  file "../c5535_bsl_revc/ezdsp5535_v1/c55xx_csl/ccs_v4.0_examples/sar/CSL_SAR_DmaExample/csl_s
    1077 000336 EC31          AMOV #$C$FSL19, XAR3 ; |336| 
         000338 BE00 
         00033a 01EA+
    1078 00033c EB00          MOV XAR3, dbl(*SP(#0))
         00033e B5   
    1079              $C$DW$115       .dwtag  DW_TAG_TI_branch
    1080                      .dwattr $C$DW$115, DW_AT_low_pc(0x00)
    1081                      .dwattr $C$DW$115, DW_AT_name("_printf")
    1082                      .dwattr $C$DW$115, DW_AT_TI_call
    1083 00033f 6C00          CALL #_printf ; |336| 
         000341 0000!
    1084                                                      ; call occurs [#_printf] ; |336| 
    1085                      .dwpsn  file "../c5535_bsl_revc/ezdsp5535_v1/c55xx_csl/ccs_v4.0_examples/sar/CSL_SAR_DmaExample/csl_s
    1086 000343 A414          MOV *SP(#10), T0 ; |337| 
    1087 000345 4A21          B $C$L21  ; |337| 
    1088                                                      ; branch occurs ; |337| 
    1089 000347       $C$L19:    
    1090                      .dwpsn  file "../c5535_bsl_revc/ezdsp5535_v1/c55xx_csl/ccs_v4.0_examples/sar/CSL_SAR_DmaExample/csl_s
    1091              $C$DW$116       .dwtag  DW_TAG_TI_branch
TMS320C55x Assembler PC v4.4.1 Sat Sep 29 23:08:48 2018

Tools Copyright (c) 1996-2012 Texas Instruments Incorporated
csl_sar_DmaExample.asm                                               PAGE   25

    1092                      .dwattr $C$DW$116, DW_AT_low_pc(0x00)
    1093                      .dwattr $C$DW$116, DW_AT_name("_SAR_deInit")
    1094                      .dwattr $C$DW$116, DW_AT_TI_call
    1095 000347 6C00          CALL #_SAR_deInit ; |340| 
         000349 0000!
    1096                                                      ; call occurs [#_SAR_deInit] ; |340| 
    1097 00034b C406          MOV T0, *SP(#3) ; |340| 
    1098                      .dwpsn  file "../c5535_bsl_revc/ezdsp5535_v1/c55xx_csl/ccs_v4.0_examples/sar/CSL_SAR_DmaExample/csl_s
    1099 00034d 2249          MOV T0, AR1
    1100 00034f 0409          BCC $C$L20,AR1 == #0 ; |341| 
         000351 11   
    1101                                                      ; branchcc occurs ; |341| 
    1102                      .dwpsn  file "../c5535_bsl_revc/ezdsp5535_v1/c55xx_csl/ccs_v4.0_examples/sar/CSL_SAR_DmaExample/csl_s
    1103 000352 EC31          AMOV #$C$FSL20, XAR3 ; |343| 
         000354 BE00 
         000356 0202+
    1104 000358 EB00          MOV XAR3, dbl(*SP(#0))
         00035a B5   
    1105              $C$DW$117       .dwtag  DW_TAG_TI_branch
    1106                      .dwattr $C$DW$117, DW_AT_low_pc(0x00)
    1107                      .dwattr $C$DW$117, DW_AT_name("_printf")
    1108                      .dwattr $C$DW$117, DW_AT_TI_call
    1109 00035b 6C00          CALL #_printf ; |343| 
         00035d 0000!
    1110                                                      ; call occurs [#_printf] ; |343| 
    1111                      .dwpsn  file "../c5535_bsl_revc/ezdsp5535_v1/c55xx_csl/ccs_v4.0_examples/sar/CSL_SAR_DmaExample/csl_s
    1112 00035f A414          MOV *SP(#10), T0 ; |344| 
    1113 000361 4A05          B $C$L21  ; |344| 
    1114                                                      ; branch occurs ; |344| 
    1115 000363       $C$L20:    
    1116                      .dwpsn  file "../c5535_bsl_revc/ezdsp5535_v1/c55xx_csl/ccs_v4.0_examples/sar/CSL_SAR_DmaExample/csl_s
    1117 000363 E614          MOV #0, *SP(#10) ; |346| 
         000365 00   
    1118                      .dwpsn  file "../c5535_bsl_revc/ezdsp5535_v1/c55xx_csl/ccs_v4.0_examples/sar/CSL_SAR_DmaExample/csl_s
    1119 000366 A414          MOV *SP(#10), T0 ; |347| 
    1120 000368       $C$L21:    
    1121                      .dwpsn  file "../c5535_bsl_revc/ezdsp5535_v1/c55xx_csl/ccs_v4.0_examples/sar/CSL_SAR_DmaExample/csl_s
    1122 000368 4E0D          AADD #13, SP
    1123                      .dwcfi  cfa_offset, 1
    1124              $C$DW$118       .dwtag  DW_TAG_TI_branch
    1125                      .dwattr $C$DW$118, DW_AT_low_pc(0x00)
    1126                      .dwattr $C$DW$118, DW_AT_TI_return
    1127 00036a 4804          RET
    1128                                                      ; return occurs
    1129              
    1130              $C$DW$119       .dwtag  DW_TAG_TI_loop
    1131                      .dwattr $C$DW$119, DW_AT_name("F:\eZdsp_DBG\tmp1\c55x-sim2\foo\Debug\csl_sar_DmaExample.asm:$C$L16:1:
    1132                      .dwattr $C$DW$119, DW_AT_TI_begin_file("../c5535_bsl_revc/ezdsp5535_v1/c55xx_csl/ccs_v4.0_examples/sa
    1133                      .dwattr $C$DW$119, DW_AT_TI_begin_line(0x139)
    1134                      .dwattr $C$DW$119, DW_AT_TI_end_line(0x139)
    1135              $C$DW$120       .dwtag  DW_TAG_TI_loop_range
    1136                      .dwattr $C$DW$120, DW_AT_low_pc($C$DW$L$_sar_test_dma_keypad_voltage$25$B)
    1137                      .dwattr $C$DW$120, DW_AT_high_pc($C$DW$L$_sar_test_dma_keypad_voltage$25$E)
    1138                      .dwendtag $C$DW$119
    1139              
TMS320C55x Assembler PC v4.4.1 Sat Sep 29 23:08:48 2018

Tools Copyright (c) 1996-2012 Texas Instruments Incorporated
csl_sar_DmaExample.asm                                               PAGE   26

    1140                      .dwattr $C$DW$70, DW_AT_TI_end_file("../c5535_bsl_revc/ezdsp5535_v1/c55xx_csl/ccs_v4.0_examples/sar/C
    1141                      .dwattr $C$DW$70, DW_AT_TI_end_line(0x15c)
    1142                      .dwattr $C$DW$70, DW_AT_TI_end_column(0x01)
    1143                      .dwendentry
    1144                      .dwendtag $C$DW$70
    1145              
    1146 000000               .sect   ".text:retain"
    1147                      .align 4
    1148                      .global _dma_isr
    1149              
    1150              $C$DW$121       .dwtag  DW_TAG_subprogram, DW_AT_name("dma_isr")
    1151                      .dwattr $C$DW$121, DW_AT_low_pc(_dma_isr)
    1152                      .dwattr $C$DW$121, DW_AT_high_pc(0x00)
    1153                      .dwattr $C$DW$121, DW_AT_TI_symbol_name("_dma_isr")
    1154                      .dwattr $C$DW$121, DW_AT_external
    1155                      .dwattr $C$DW$121, DW_AT_TI_begin_file("../c5535_bsl_revc/ezdsp5535_v1/c55xx_csl/ccs_v4.0_examples/sa
    1156                      .dwattr $C$DW$121, DW_AT_TI_begin_line(0x15f)
    1157                      .dwattr $C$DW$121, DW_AT_TI_begin_column(0x10)
    1158                      .dwattr $C$DW$121, DW_AT_TI_interrupt
    1159                      .dwattr $C$DW$121, DW_AT_TI_max_frame_size(0x2f)
    1160                      .dwpsn  file "../c5535_bsl_revc/ezdsp5535_v1/c55xx_csl/ccs_v4.0_examples/sar/CSL_SAR_DmaExample/csl_s
    1161              
    1162                      .dwfde $C$DW$CIE, _dma_isr
    1163              ;*******************************************************************************
    1164              ;* INTERRUPT NAME: dma_isr                                                     *
    1165              ;*                                                                             *
    1166              ;*   Function Uses Regs : AC0,AC0,AC1,AC1,AC2,AC2,AC3,AC3,T0,T1,AR0,AR1,AR2,   *
    1167              ;*                        AR3,AR4,SP,BKC,BK03,BK47,ST1,ST2,ST3,BRC0,RSA0,REA0, *
    1168              ;*                        BRS1,BRC1,RSA1,REA1,CSR,RPTC,CDP,TRN0,TRN1,BSA01,    *
    1169              ;*                        BSA23,BSA45,BSA67,BSAC,CARRY,M40,SATA,SATD,RDM,FRCT, *
    1170              ;*                        SMUL                                                 *
    1171              ;*   Save On Entry Regs : AC0,AC0,AC1,AC1,AC2,AC2,AC3,AC3,T0,T1,AR0,AR1,AR2,   *
    1172              ;*                        AR3,AR4,BKC,BK03,BK47,BRC0,RSA0,REA0,BRS1,BRC1,RSA1, *
    1173              ;*                        REA1,CSR,RPTC,CDP,TRN0,TRN1,BSA01,BSA23,BSA45,BSA67, *
    1174              ;*                        BSAC                                                 *
    1175              ;*******************************************************************************
    1176 000000       _dma_isr:
    1177                      .dwcfi  cfa_offset, 3
    1178                      .dwcfi  save_reg_to_mem, 91, -3
    1179 000000 F406          AND #0xf91f, mmap(ST1_55)
         000002 F91F 
         000004 98   
    1180 000005 F506          OR #0x4100, mmap(ST1_55)
         000007 4100 
         000009 98   
    1181 00000a F496          AND #0xfa00, mmap(ST2_55)
         00000c FA00 
         00000e 98   
    1182 00000f F596          OR #0x8000, mmap(ST2_55)
         000011 8000 
         000013 98   
    1183 000014 B508          PSH mmap(ST3_55)
         000016 98   
    1184                      .dwcfi  cfa_offset, 4
    1185                      .dwcfi  save_reg_to_mem, 42, -4
TMS320C55x Assembler PC v4.4.1 Sat Sep 29 23:08:48 2018

Tools Copyright (c) 1996-2012 Texas Instruments Incorporated
csl_sar_DmaExample.asm                                               PAGE   27

    1186 000017 5007          PSH dbl(AC0)
    1187                      .dwcfi  cfa_offset, 5
    1188                      .dwcfi  save_reg_to_mem, 0, -5
    1189                      .dwcfi  cfa_offset, 6
    1190                      .dwcfi  save_reg_to_mem, 1, -6
    1191 000019 B514          PSH mmap(AC0G)
         00001b 98   
    1192                      .dwcfi  cfa_offset, 7
    1193                      .dwcfi  save_reg_to_mem, 2, -7
    1194 00001c 5017          PSH dbl(AC1)
    1195                      .dwcfi  cfa_offset, 8
    1196                      .dwcfi  save_reg_to_mem, 3, -8
    1197                      .dwcfi  cfa_offset, 9
    1198                      .dwcfi  save_reg_to_mem, 4, -9
    1199 00001e B51A          PSH mmap(AC1G)
         000020 98   
    1200                      .dwcfi  cfa_offset, 10
    1201                      .dwcfi  save_reg_to_mem, 5, -10
    1202 000021 5027          PSH dbl(AC2)
    1203                      .dwcfi  cfa_offset, 11
    1204                      .dwcfi  save_reg_to_mem, 6, -11
    1205                      .dwcfi  cfa_offset, 12
    1206                      .dwcfi  save_reg_to_mem, 7, -12
    1207 000023 B54C          PSH mmap(AC2G)
         000025 98   
    1208                      .dwcfi  cfa_offset, 13
    1209                      .dwcfi  save_reg_to_mem, 8, -13
    1210 000026 5037          PSH dbl(AC3)
    1211                      .dwcfi  cfa_offset, 14
    1212                      .dwcfi  save_reg_to_mem, 9, -14
    1213                      .dwcfi  cfa_offset, 15
    1214                      .dwcfi  save_reg_to_mem, 10, -15
    1215 000028 B554          PSH mmap(AC3G)
         00002a 98   
    1216                      .dwcfi  cfa_offset, 16
    1217                      .dwcfi  save_reg_to_mem, 11, -16
    1218 00002b 5046          PSH T0
    1219                      .dwcfi  cfa_offset, 17
    1220                      .dwcfi  save_reg_to_mem, 12, -17
    1221 00002d 5056          PSH T1
    1222                      .dwcfi  cfa_offset, 18
    1223                      .dwcfi  save_reg_to_mem, 13, -18
    1224 00002f 5085          PSHBOTH XAR0
    1225                      .dwcfi  cfa_offset, 19
    1226                      .dwcfi  save_reg_to_mem, 16, -19
    1227 000031 5095          PSHBOTH XAR1
    1228                      .dwcfi  cfa_offset, 20
    1229                      .dwcfi  save_reg_to_mem, 18, -20
    1230 000033 50A5          PSHBOTH XAR2
    1231                      .dwcfi  cfa_offset, 21
    1232                      .dwcfi  save_reg_to_mem, 20, -21
    1233 000035 50B5          PSHBOTH XAR3
    1234                      .dwcfi  cfa_offset, 22
    1235                      .dwcfi  save_reg_to_mem, 22, -22
    1236 000037 50C5          PSHBOTH XAR4
TMS320C55x Assembler PC v4.4.1 Sat Sep 29 23:08:48 2018

Tools Copyright (c) 1996-2012 Texas Instruments Incorporated
csl_sar_DmaExample.asm                                               PAGE   28

    1237                      .dwcfi  cfa_offset, 23
    1238                      .dwcfi  save_reg_to_mem, 24, -23
    1239 000039 B562          PSH mmap(BKC)
         00003b 98   
    1240                      .dwcfi  cfa_offset, 24
    1241                      .dwcfi  save_reg_to_mem, 37, -24
    1242 00003c B532          PSH mmap(BK03)
         00003e 98   
    1243                      .dwcfi  cfa_offset, 25
    1244                      .dwcfi  save_reg_to_mem, 38, -25
    1245 00003f B560          PSH mmap(BK47)
         000041 98   
    1246                      .dwcfi  cfa_offset, 26
    1247                      .dwcfi  save_reg_to_mem, 39, -26
    1248 000042 B534          PSH mmap(BRC0)
         000044 98   
    1249                      .dwcfi  cfa_offset, 27
    1250                      .dwcfi  save_reg_to_mem, 47, -27
    1251 000045 B57A          PSH mmap(RSA0L)
         000047 98   
    1252                      .dwcfi  cfa_offset, 28
    1253                      .dwcfi  save_reg_to_mem, 48, -28
    1254 000048 B578          PSH mmap(RSA0H)
         00004a 98   
    1255                      .dwcfi  cfa_offset, 29
    1256                      .dwcfi  save_reg_to_mem, 49, -29
    1257 00004b B57E          PSH mmap(REA0L)
         00004d 98   
    1258                      .dwcfi  cfa_offset, 30
    1259                      .dwcfi  save_reg_to_mem, 50, -30
    1260 00004e B57C          PSH mmap(REA0H)
         000050 98   
    1261                      .dwcfi  cfa_offset, 31
    1262                      .dwcfi  save_reg_to_mem, 51, -31
    1263 000051 B574          PSH mmap(BRS1)
         000053 98   
    1264                      .dwcfi  cfa_offset, 32
    1265                      .dwcfi  save_reg_to_mem, 52, -32
    1266 000054 B572          PSH mmap(BRC1)
         000056 98   
    1267                      .dwcfi  cfa_offset, 33
    1268                      .dwcfi  save_reg_to_mem, 53, -33
    1269 000057 B582          PSH mmap(RSA1L)
         000059 98   
    1270                      .dwcfi  cfa_offset, 34
    1271                      .dwcfi  save_reg_to_mem, 54, -34
    1272 00005a B580          PSH mmap(RSA1H)
         00005c 98   
    1273                      .dwcfi  cfa_offset, 35
    1274                      .dwcfi  save_reg_to_mem, 55, -35
    1275 00005d B586          PSH mmap(REA1L)
         00005f 98   
    1276                      .dwcfi  cfa_offset, 36
    1277                      .dwcfi  save_reg_to_mem, 56, -36
    1278 000060 B584          PSH mmap(REA1H)
TMS320C55x Assembler PC v4.4.1 Sat Sep 29 23:08:48 2018

Tools Copyright (c) 1996-2012 Texas Instruments Incorporated
csl_sar_DmaExample.asm                                               PAGE   29

         000062 98   
    1279                      .dwcfi  cfa_offset, 37
    1280                      .dwcfi  save_reg_to_mem, 57, -37
    1281 000063 B576          PSH mmap(CSR)
         000065 98   
    1282                      .dwcfi  cfa_offset, 38
    1283                      .dwcfi  save_reg_to_mem, 58, -38
    1284 000066 B588          PSH mmap(RPTC)
         000068 98   
    1285                      .dwcfi  cfa_offset, 39
    1286                      .dwcfi  save_reg_to_mem, 59, -39
    1287 000069 5075          PSHBOTH XCDP
    1288                      .dwcfi  cfa_offset, 40
    1289                      .dwcfi  save_reg_to_mem, 60, -40
    1290 00006b B51E          PSH mmap(TRN0)
         00006d 98   
    1291                      .dwcfi  cfa_offset, 41
    1292                      .dwcfi  save_reg_to_mem, 62, -41
    1293 00006e B570          PSH mmap(TRN1)
         000070 98   
    1294                      .dwcfi  cfa_offset, 42
    1295                      .dwcfi  save_reg_to_mem, 63, -42
    1296 000071 B564          PSH mmap(BSA01)
         000073 98   
    1297                      .dwcfi  cfa_offset, 43
    1298                      .dwcfi  save_reg_to_mem, 64, -43
    1299 000074 B566          PSH mmap(BSA23)
         000076 98   
    1300                      .dwcfi  cfa_offset, 44
    1301                      .dwcfi  save_reg_to_mem, 65, -44
    1302 000077 B568          PSH mmap(BSA45)
         000079 98   
    1303                      .dwcfi  cfa_offset, 45
    1304                      .dwcfi  save_reg_to_mem, 66, -45
    1305 00007a B56A          PSH mmap(BSA67)
         00007c 98   
    1306                      .dwcfi  cfa_offset, 46
    1307                      .dwcfi  save_reg_to_mem, 67, -46
    1308 00007d B56C          PSH mmap(BSAC)
         00007f 98   
    1309                      .dwcfi  cfa_offset, 47
    1310                      .dwcfi  save_reg_to_mem, 68, -47
    1311 000080 EC00          AMAR *SP(#0), XAR1
         000082 9E   
    1312 000083 F49A          AND #0xfffe, mmap(SP)
         000085 FFFE 
         000087 98   
    1313 000088 5096          PSH AR1
    1314 00008a 4EFF          AADD #-1, SP
    1315                      .dwcfi  cfa_offset, 47
    1316                      .dwpsn  file "../c5535_bsl_revc/ezdsp5535_v1/c55xx_csl/ccs_v4.0_examples/sar/CSL_SAR_DmaExample/csl_s
    1317 00008c F731          ADD #1, *(#_i) ; |353| 
         00008e 0001 
         000090 0000 
         000092 03-  
TMS320C55x Assembler PC v4.4.1 Sat Sep 29 23:08:48 2018

Tools Copyright (c) 1996-2012 Texas Instruments Incorporated
csl_sar_DmaExample.asm                                               PAGE   30

    1318                      .dwpsn  file "../c5535_bsl_revc/ezdsp5535_v1/c55xx_csl/ccs_v4.0_examples/sar/CSL_SAR_DmaExample/csl_s
    1319 000093 4656          BCLR ST3_SATA
    1320 000095 4617          BSET ST3_SMUL
    1321              $C$DW$122       .dwtag  DW_TAG_TI_branch
    1322                      .dwattr $C$DW$122, DW_AT_low_pc(0x00)
    1323                      .dwattr $C$DW$122, DW_AT_name("_IRQ_clear")
    1324                      .dwattr $C$DW$122, DW_AT_TI_call
    1325              
    1326 000097 6C00          CALL #_IRQ_clear ; |355| 
         000099 0000!
    1327 00009b 3DD4  ||      MOV #13, T0
    1328              
    1329                                                      ; call occurs [#_IRQ_clear] ; |355| 
    1330                      .dwpsn  file "../c5535_bsl_revc/ezdsp5535_v1/c55xx_csl/ccs_v4.0_examples/sar/CSL_SAR_DmaExample/csl_s
    1331 00009d 4E01          AADD #1, SP
    1332                      .dwcfi  cfa_offset, 47
    1333 00009f BB9A          POP mmap(SP)
         0000a1 98   
    1334 0000a2 BB6C          POP mmap(BSAC)
         0000a4 98   
    1335                      .dwcfi  restore_reg, 68
    1336                      .dwcfi  cfa_offset, 46
    1337 0000a5 BB6A          POP mmap(BSA67)
         0000a7 98   
    1338                      .dwcfi  restore_reg, 67
    1339                      .dwcfi  cfa_offset, 45
    1340 0000a8 BB68          POP mmap(BSA45)
         0000aa 98   
    1341                      .dwcfi  restore_reg, 66
    1342                      .dwcfi  cfa_offset, 44
    1343 0000ab BB66          POP mmap(BSA23)
         0000ad 98   
    1344                      .dwcfi  restore_reg, 65
    1345                      .dwcfi  cfa_offset, 43
    1346 0000ae BB64          POP mmap(BSA01)
         0000b0 98   
    1347                      .dwcfi  restore_reg, 64
    1348                      .dwcfi  cfa_offset, 42
    1349 0000b1 BB70          POP mmap(TRN1)
         0000b3 98   
    1350                      .dwcfi  restore_reg, 63
    1351                      .dwcfi  cfa_offset, 41
    1352 0000b4 BB1E          POP mmap(TRN0)
         0000b6 98   
    1353                      .dwcfi  restore_reg, 62
    1354                      .dwcfi  cfa_offset, 40
    1355 0000b7 5074          POPBOTH XCDP
    1356                      .dwcfi  restore_reg, 60
    1357                      .dwcfi  cfa_offset, 39
    1358 0000b9 BB88          POP mmap(RPTC)
         0000bb 98   
    1359                      .dwcfi  restore_reg, 59
    1360                      .dwcfi  cfa_offset, 38
    1361 0000bc BB76          POP mmap(CSR)
         0000be 98   
TMS320C55x Assembler PC v4.4.1 Sat Sep 29 23:08:48 2018

Tools Copyright (c) 1996-2012 Texas Instruments Incorporated
csl_sar_DmaExample.asm                                               PAGE   31

    1362                      .dwcfi  restore_reg, 58
    1363                      .dwcfi  cfa_offset, 37
    1364 0000bf BB84          POP mmap(REA1H)
         0000c1 98   
    1365                      .dwcfi  restore_reg, 57
    1366                      .dwcfi  cfa_offset, 36
    1367 0000c2 BB86          POP mmap(REA1L)
         0000c4 98   
    1368                      .dwcfi  restore_reg, 56
    1369                      .dwcfi  cfa_offset, 35
    1370 0000c5 BB80          POP mmap(RSA1H)
         0000c7 98   
    1371                      .dwcfi  restore_reg, 55
    1372                      .dwcfi  cfa_offset, 34
    1373 0000c8 BB82          POP mmap(RSA1L)
         0000ca 98   
    1374                      .dwcfi  restore_reg, 54
    1375                      .dwcfi  cfa_offset, 33
    1376 0000cb BB72          POP mmap(BRC1)
         0000cd 98   
    1377                      .dwcfi  restore_reg, 53
    1378                      .dwcfi  cfa_offset, 32
    1379 0000ce BB74          POP mmap(BRS1)
         0000d0 98   
    1380                      .dwcfi  restore_reg, 52
    1381                      .dwcfi  cfa_offset, 31
    1382 0000d1 BB7C          POP mmap(REA0H)
         0000d3 98   
    1383                      .dwcfi  restore_reg, 51
    1384                      .dwcfi  cfa_offset, 30
    1385 0000d4 BB7E          POP mmap(REA0L)
         0000d6 98   
    1386                      .dwcfi  restore_reg, 50
    1387                      .dwcfi  cfa_offset, 29
    1388 0000d7 BB78          POP mmap(RSA0H)
         0000d9 98   
    1389                      .dwcfi  restore_reg, 49
    1390                      .dwcfi  cfa_offset, 28
    1391 0000da BB7A          POP mmap(RSA0L)
         0000dc 98   
    1392                      .dwcfi  restore_reg, 48
    1393                      .dwcfi  cfa_offset, 27
    1394 0000dd BB34          POP mmap(BRC0)
         0000df 98   
    1395                      .dwcfi  restore_reg, 47
    1396                      .dwcfi  cfa_offset, 26
    1397 0000e0 BB60          POP mmap(BK47)
         0000e2 98   
    1398                      .dwcfi  restore_reg, 39
    1399                      .dwcfi  cfa_offset, 25
    1400 0000e3 BB32          POP mmap(BK03)
         0000e5 98   
    1401                      .dwcfi  restore_reg, 38
    1402                      .dwcfi  cfa_offset, 24
    1403 0000e6 BB62          POP mmap(BKC)
TMS320C55x Assembler PC v4.4.1 Sat Sep 29 23:08:48 2018

Tools Copyright (c) 1996-2012 Texas Instruments Incorporated
csl_sar_DmaExample.asm                                               PAGE   32

         0000e8 98   
    1404                      .dwcfi  restore_reg, 37
    1405                      .dwcfi  cfa_offset, 23
    1406 0000e9 50C4          POPBOTH XAR4
    1407                      .dwcfi  restore_reg, 24
    1408                      .dwcfi  cfa_offset, 22
    1409 0000eb 50B4          POPBOTH XAR3
    1410                      .dwcfi  restore_reg, 22
    1411                      .dwcfi  cfa_offset, 21
    1412 0000ed 50A4          POPBOTH XAR2
    1413                      .dwcfi  restore_reg, 20
    1414                      .dwcfi  cfa_offset, 20
    1415 0000ef 5094          POPBOTH XAR1
    1416                      .dwcfi  restore_reg, 18
    1417                      .dwcfi  cfa_offset, 19
    1418 0000f1 5084          POPBOTH XAR0
    1419                      .dwcfi  restore_reg, 16
    1420                      .dwcfi  cfa_offset, 18
    1421 0000f3 5052          POP T1
    1422                      .dwcfi  restore_reg, 13
    1423                      .dwcfi  cfa_offset, 17
    1424 0000f5 5042          POP T0
    1425                      .dwcfi  restore_reg, 12
    1426                      .dwcfi  cfa_offset, 16
    1427 0000f7 BB54          POP mmap(AC3G)
         0000f9 98   
    1428                      .dwcfi  restore_reg, 11
    1429                      .dwcfi  cfa_offset, 15
    1430                      .dwcfi  restore_reg, 10
    1431                      .dwcfi  cfa_offset, 14
    1432 0000fa 5033          POP dbl(AC3)
    1433                      .dwcfi  restore_reg, 9
    1434                      .dwcfi  cfa_offset, 13
    1435 0000fc BB4C          POP mmap(AC2G)
         0000fe 98   
    1436                      .dwcfi  restore_reg, 8
    1437                      .dwcfi  cfa_offset, 12
    1438                      .dwcfi  restore_reg, 7
    1439                      .dwcfi  cfa_offset, 11
    1440 0000ff 5023          POP dbl(AC2)
    1441                      .dwcfi  restore_reg, 6
    1442                      .dwcfi  cfa_offset, 10
    1443 000101 BB1A          POP mmap(AC1G)
         000103 98   
    1444                      .dwcfi  restore_reg, 5
    1445                      .dwcfi  cfa_offset, 9
    1446                      .dwcfi  restore_reg, 4
    1447                      .dwcfi  cfa_offset, 8
    1448 000104 5013          POP dbl(AC1)
    1449                      .dwcfi  restore_reg, 3
    1450                      .dwcfi  cfa_offset, 7
    1451 000106 BB14          POP mmap(AC0G)
         000108 98   
    1452                      .dwcfi  restore_reg, 2
    1453                      .dwcfi  cfa_offset, 6
TMS320C55x Assembler PC v4.4.1 Sat Sep 29 23:08:48 2018

Tools Copyright (c) 1996-2012 Texas Instruments Incorporated
csl_sar_DmaExample.asm                                               PAGE   33

    1454                      .dwcfi  restore_reg, 1
    1455                      .dwcfi  cfa_offset, 5
    1456 000109 5003          POP dbl(AC0)
    1457                      .dwcfi  restore_reg, 0
    1458                      .dwcfi  cfa_offset, 4
    1459 00010b BB08          POP mmap(ST3_55)
         00010d 98   
    1460                      .dwcfi  restore_reg, 43
    1461                      .dwcfi  cfa_offset, 3
    1462              $C$DW$123       .dwtag  DW_TAG_TI_branch
    1463                      .dwattr $C$DW$123, DW_AT_low_pc(0x00)
    1464                      .dwattr $C$DW$123, DW_AT_TI_return
    1465 00010e 4805          RETI
    1466                                                      ; return occurs
    1467                      .dwattr $C$DW$121, DW_AT_TI_end_file("../c5535_bsl_revc/ezdsp5535_v1/c55xx_csl/ccs_v4.0_examples/sar/
    1468                      .dwattr $C$DW$121, DW_AT_TI_end_line(0x164)
    1469                      .dwattr $C$DW$121, DW_AT_TI_end_column(0x01)
    1470                      .dwendentry
    1471                      .dwendtag $C$DW$121
    1472              
    1473              ;*******************************************************************************
    1474              ;* FAR STRINGS                                                                 *
    1475              ;*******************************************************************************
    1476 000000               .sect   ".const:.string"
    1477                      .align  2
    1478 000000 0043  $C$FSL1:        .string "CSL SAR Module DMA Mode Test",10,10,0
         000001 0053 
         000002 004C 
         000003 0020 
         000004 0053 
         000005 0041 
         000006 0052 
         000007 0020 
         000008 004D 
         000009 006F 
         00000a 0064 
         00000b 0075 
         00000c 006C 
         00000d 0065 
         00000e 0020 
         00000f 0044 
         000010 004D 
         000011 0041 
         000012 0020 
         000013 004D 
         000014 006F 
         000015 0064 
         000016 0065 
         000017 0020 
         000018 0054 
         000019 0065 
         00001a 0073 
         00001b 0074 
         00001c 000A 
         00001d 000A 
TMS320C55x Assembler PC v4.4.1 Sat Sep 29 23:08:48 2018

Tools Copyright (c) 1996-2012 Texas Instruments Incorporated
csl_sar_DmaExample.asm                                               PAGE   34

         00001e 0000 
    1479                      .align  2
    1480 000020 0050  $C$FSL2:        .string "Press any Button in the EVM Keypad",10,0
         000021 0072 
         000022 0065 
         000023 0073 
         000024 0073 
         000025 0020 
         000026 0061 
         000027 006E 
         000028 0079 
         000029 0020 
         00002a 0042 
         00002b 0075 
         00002c 0074 
         00002d 0074 
         00002e 006F 
         00002f 006E 
         000030 0020 
         000031 0069 
         000032 006E 
         000033 0020 
         000034 0074 
         000035 0068 
         000036 0065 
         000037 0020 
         000038 0045 
         000039 0056 
         00003a 004D 
         00003b 0020 
         00003c 004B 
         00003d 0065 
         00003e 0079 
         00003f 0070 
         000040 0061 
         000041 0064 
         000042 000A 
         000043 0000 
    1481                      .align  2
    1482 000044 000A  $C$FSL3:        .string 10,"CSL SAR Module DMA Mode Test Failed!!",10,0
         000045 0043 
         000046 0053 
         000047 004C 
         000048 0020 
         000049 0053 
         00004a 0041 
         00004b 0052 
         00004c 0020 
         00004d 004D 
         00004e 006F 
         00004f 0064 
         000050 0075 
         000051 006C 
         000052 0065 
         000053 0020 
TMS320C55x Assembler PC v4.4.1 Sat Sep 29 23:08:48 2018

Tools Copyright (c) 1996-2012 Texas Instruments Incorporated
csl_sar_DmaExample.asm                                               PAGE   35

         000054 0044 
         000055 004D 
         000056 0041 
         000057 0020 
         000058 004D 
         000059 006F 
         00005a 0064 
         00005b 0065 
         00005c 0020 
         00005d 0054 
         00005e 0065 
         00005f 0073 
         000060 0074 
         000061 0020 
         000062 0046 
         000063 0061 
         000064 0069 
         000065 006C 
         000066 0065 
         000067 0064 
         000068 0021 
         000069 0021 
         00006a 000A 
         00006b 0000 
    1483                      .align  2
    1484 00006c 000A  $C$FSL4:        .string 10,"CSL SAR Module DMA Mode Test Passed!!",10,0
         00006d 0043 
         00006e 0053 
         00006f 004C 
         000070 0020 
         000071 0053 
         000072 0041 
         000073 0052 
         000074 0020 
         000075 004D 
         000076 006F 
         000077 0064 
         000078 0075 
         000079 006C 
         00007a 0065 
         00007b 0020 
         00007c 0044 
         00007d 004D 
         00007e 0041 
         00007f 0020 
         000080 004D 
         000081 006F 
         000082 0064 
         000083 0065 
         000084 0020 
         000085 0054 
         000086 0065 
         000087 0073 
         000088 0074 
         000089 0020 
TMS320C55x Assembler PC v4.4.1 Sat Sep 29 23:08:48 2018

Tools Copyright (c) 1996-2012 Texas Instruments Incorporated
csl_sar_DmaExample.asm                                               PAGE   36

         00008a 0050 
         00008b 0061 
         00008c 0073 
         00008d 0073 
         00008e 0065 
         00008f 0064 
         000090 0021 
         000091 0021 
         000092 000A 
         000093 0000 
    1485                      .align  2
    1486 000094 0053  $C$FSL5:        .string "SAR Init Failed!!",10,0
         000095 0041 
         000096 0052 
         000097 0020 
         000098 0049 
         000099 006E 
         00009a 0069 
         00009b 0074 
         00009c 0020 
         00009d 0046 
         00009e 0061 
         00009f 0069 
         0000a0 006C 
         0000a1 0065 
         0000a2 0064 
         0000a3 0021 
         0000a4 0021 
         0000a5 000A 
         0000a6 0000 
    1487                      .align  2
    1488 0000a8 0053  $C$FSL6:        .string "SAR_chanOpen Failed!!",10,0
         0000a9 0041 
         0000aa 0052 
         0000ab 005F 
         0000ac 0063 
         0000ad 0068 
         0000ae 0061 
         0000af 006E 
         0000b0 004F 
         0000b1 0070 
         0000b2 0065 
         0000b3 006E 
         0000b4 0020 
         0000b5 0046 
         0000b6 0061 
         0000b7 0069 
         0000b8 006C 
         0000b9 0065 
         0000ba 0064 
         0000bb 0021 
         0000bc 0021 
         0000bd 000A 
         0000be 0000 
    1489                      .align  2
TMS320C55x Assembler PC v4.4.1 Sat Sep 29 23:08:48 2018

Tools Copyright (c) 1996-2012 Texas Instruments Incorporated
csl_sar_DmaExample.asm                                               PAGE   37

    1490 0000c0 0053  $C$FSL7:        .string "SAR_chanInit Failed!!",10,0
         0000c1 0041 
         0000c2 0052 
         0000c3 005F 
         0000c4 0063 
         0000c5 0068 
         0000c6 0061 
         0000c7 006E 
         0000c8 0049 
         0000c9 006E 
         0000ca 0069 
         0000cb 0074 
         0000cc 0020 
         0000cd 0046 
         0000ce 0061 
         0000cf 0069 
         0000d0 006C 
         0000d1 0065 
         0000d2 0064 
         0000d3 0021 
         0000d4 0021 
         0000d5 000A 
         0000d6 0000 
    1491                      .align  2
    1492 0000d8 0053  $C$FSL8:        .string "SAR_chanConfig Failed!!",10,0
         0000d9 0041 
         0000da 0052 
         0000db 005F 
         0000dc 0063 
         0000dd 0068 
         0000de 0061 
         0000df 006E 
         0000e0 0043 
         0000e1 006F 
         0000e2 006E 
         0000e3 0066 
         0000e4 0069 
         0000e5 0067 
         0000e6 0020 
         0000e7 0046 
         0000e8 0061 
         0000e9 0069 
         0000ea 006C 
         0000eb 0065 
         0000ec 0064 
         0000ed 0021 
         0000ee 0021 
         0000ef 000A 
         0000f0 0000 
    1493                      .align  2
    1494 0000f2 0044  $C$FSL9:        .string "DMA_init() Failed ",10,0
         0000f3 004D 
         0000f4 0041 
         0000f5 005F 
         0000f6 0069 
TMS320C55x Assembler PC v4.4.1 Sat Sep 29 23:08:48 2018

Tools Copyright (c) 1996-2012 Texas Instruments Incorporated
csl_sar_DmaExample.asm                                               PAGE   38

         0000f7 006E 
         0000f8 0069 
         0000f9 0074 
         0000fa 0028 
         0000fb 0029 
         0000fc 0020 
         0000fd 0046 
         0000fe 0061 
         0000ff 0069 
         000100 006C 
         000101 0065 
         000102 0064 
         000103 0020 
         000104 000A 
         000105 0000 
    1495                      .align  2
    1496 000106 0044  $C$FSL10:       .string "DMA_open() Failed ",10,0
         000107 004D 
         000108 0041 
         000109 005F 
         00010a 006F 
         00010b 0070 
         00010c 0065 
         00010d 006E 
         00010e 0028 
         00010f 0029 
         000110 0020 
         000111 0046 
         000112 0061 
         000113 0069 
         000114 006C 
         000115 0065 
         000116 0064 
         000117 0020 
         000118 000A 
         000119 0000 
    1497                      .align  2
    1498 00011a 0044  $C$FSL11:       .string "DMA_config() Failed ",10,0
         00011b 004D 
         00011c 0041 
         00011d 005F 
         00011e 0063 
         00011f 006F 
         000120 006E 
         000121 0066 
         000122 0069 
         000123 0067 
         000124 0028 
         000125 0029 
         000126 0020 
         000127 0046 
         000128 0061 
         000129 0069 
         00012a 006C 
         00012b 0065 
TMS320C55x Assembler PC v4.4.1 Sat Sep 29 23:08:48 2018

Tools Copyright (c) 1996-2012 Texas Instruments Incorporated
csl_sar_DmaExample.asm                                               PAGE   39

         00012c 0064 
         00012d 0020 
         00012e 000A 
         00012f 0000 
    1499                      .align  2
    1500 000130 0053  $C$FSL12:       .string "SAR_chanCycSet Failed!!",10,0
         000131 0041 
         000132 0052 
         000133 005F 
         000134 0063 
         000135 0068 
         000136 0061 
         000137 006E 
         000138 0043 
         000139 0079 
         00013a 0063 
         00013b 0053 
         00013c 0065 
         00013d 0074 
         00013e 0020 
         00013f 0046 
         000140 0061 
         000141 0069 
         000142 006C 
         000143 0065 
         000144 0064 
         000145 0021 
         000146 0021 
         000147 000A 
         000148 0000 
    1501                      .align  2
    1502 00014a 0053  $C$FSL13:       .string "SAR_A2DMeasParamSet Failed!!",10,0
         00014b 0041 
         00014c 0052 
         00014d 005F 
         00014e 0041 
         00014f 0032 
         000150 0044 
         000151 004D 
         000152 0065 
         000153 0061 
         000154 0073 
         000155 0050 
         000156 0061 
         000157 0072 
         000158 0061 
         000159 006D 
         00015a 0053 
         00015b 0065 
         00015c 0074 
         00015d 0020 
         00015e 0046 
         00015f 0061 
         000160 0069 
         000161 006C 
TMS320C55x Assembler PC v4.4.1 Sat Sep 29 23:08:48 2018

Tools Copyright (c) 1996-2012 Texas Instruments Incorporated
csl_sar_DmaExample.asm                                               PAGE   40

         000162 0065 
         000163 0064 
         000164 0021 
         000165 0021 
         000166 000A 
         000167 0000 
    1503                      .align  2
    1504 000168 0043  $C$FSL14:       .string "Channel Number selected %d",10,0
         000169 0068 
         00016a 0061 
         00016b 006E 
         00016c 006E 
         00016d 0065 
         00016e 006C 
         00016f 0020 
         000170 004E 
         000171 0075 
         000172 006D 
         000173 0062 
         000174 0065 
         000175 0072 
         000176 0020 
         000177 0073 
         000178 0065 
         000179 006C 
         00017a 0065 
         00017b 0063 
         00017c 0074 
         00017d 0065 
         00017e 0064 
         00017f 0020 
         000180 0025 
         000181 0064 
         000182 000A 
         000183 0000 
    1505                      .align  2
    1506 000184 0044  $C$FSL15:       .string "DMA_start() Failed ",10,0
         000185 004D 
         000186 0041 
         000187 005F 
         000188 0073 
         000189 0074 
         00018a 0061 
         00018b 0072 
         00018c 0074 
         00018d 0028 
         00018e 0029 
         00018f 0020 
         000190 0046 
         000191 0061 
         000192 0069 
         000193 006C 
         000194 0065 
         000195 0064 
         000196 0020 
TMS320C55x Assembler PC v4.4.1 Sat Sep 29 23:08:48 2018

Tools Copyright (c) 1996-2012 Texas Instruments Incorporated
csl_sar_DmaExample.asm                                               PAGE   41

         000197 000A 
         000198 0000 
    1507                      .align  2
    1508 00019a 0053  $C$FSL16:       .string "SAR_startConversion Failed!!",10,0
         00019b 0041 
         00019c 0052 
         00019d 005F 
         00019e 0073 
         00019f 0074 
         0001a0 0061 
         0001a1 0072 
         0001a2 0074 
         0001a3 0043 
         0001a4 006F 
         0001a5 006E 
         0001a6 0076 
         0001a7 0065 
         0001a8 0072 
         0001a9 0073 
         0001aa 0069 
         0001ab 006F 
         0001ac 006E 
         0001ad 0020 
         0001ae 0046 
         0001af 0061 
         0001b0 0069 
         0001b1 006C 
         0001b2 0065 
         0001b3 0064 
         0001b4 0021 
         0001b5 0021 
         0001b6 000A 
         0001b7 0000 
    1509                      .align  2
    1510 0001b8 0056  $C$FSL17:       .string "Voltage Read 0x%x",10,0
         0001b9 006F 
         0001ba 006C 
         0001bb 0074 
         0001bc 0061 
         0001bd 0067 
         0001be 0065 
         0001bf 0020 
         0001c0 0052 
         0001c1 0065 
         0001c2 0061 
         0001c3 0064 
         0001c4 0020 
         0001c5 0030 
         0001c6 0078 
         0001c7 0025 
         0001c8 0078 
         0001c9 000A 
         0001ca 0000 
    1511                      .align  2
    1512 0001cc 0053  $C$FSL18:       .string "SAR_stopConversion Failed!!",10,0
TMS320C55x Assembler PC v4.4.1 Sat Sep 29 23:08:48 2018

Tools Copyright (c) 1996-2012 Texas Instruments Incorporated
csl_sar_DmaExample.asm                                               PAGE   42

         0001cd 0041 
         0001ce 0052 
         0001cf 005F 
         0001d0 0073 
         0001d1 0074 
         0001d2 006F 
         0001d3 0070 
         0001d4 0043 
         0001d5 006F 
         0001d6 006E 
         0001d7 0076 
         0001d8 0065 
         0001d9 0072 
         0001da 0073 
         0001db 0069 
         0001dc 006F 
         0001dd 006E 
         0001de 0020 
         0001df 0046 
         0001e0 0061 
         0001e1 0069 
         0001e2 006C 
         0001e3 0065 
         0001e4 0064 
         0001e5 0021 
         0001e6 0021 
         0001e7 000A 
         0001e8 0000 
    1513                      .align  2
    1514 0001ea 0053  $C$FSL19:       .string "SAR_chanClose Failed!!",10,0
         0001eb 0041 
         0001ec 0052 
         0001ed 005F 
         0001ee 0063 
         0001ef 0068 
         0001f0 0061 
         0001f1 006E 
         0001f2 0043 
         0001f3 006C 
         0001f4 006F 
         0001f5 0073 
         0001f6 0065 
         0001f7 0020 
         0001f8 0046 
         0001f9 0061 
         0001fa 0069 
         0001fb 006C 
         0001fc 0065 
         0001fd 0064 
         0001fe 0021 
         0001ff 0021 
         000200 000A 
         000201 0000 
    1515                      .align  2
    1516 000202 0053  $C$FSL20:       .string "SAR_deInit Failed!!",10,0
TMS320C55x Assembler PC v4.4.1 Sat Sep 29 23:08:48 2018

Tools Copyright (c) 1996-2012 Texas Instruments Incorporated
csl_sar_DmaExample.asm                                               PAGE   43

         000203 0041 
         000204 0052 
         000205 005F 
         000206 0064 
         000207 0065 
         000208 0049 
         000209 006E 
         00020a 0069 
         00020b 0074 
         00020c 0020 
         00020d 0046 
         00020e 0061 
         00020f 0069 
         000210 006C 
         000211 0065 
         000212 0064 
         000213 0021 
         000214 0021 
         000215 000A 
         000216 0000 
    1517              ;******************************************************************************
    1518              ;* UNDEFINED EXTERNAL REFERENCES                                              *
    1519              ;******************************************************************************
    1520                      .global _SAR_init
    1521                      .global _SAR_deInit
    1522                      .global _SAR_chanOpen
    1523                      .global _SAR_chanClose
    1524                      .global _SAR_chanInit
    1525                      .global _SAR_chanSetup
    1526                      .global _SAR_chanCycSet
    1527                      .global _SAR_startConversion
    1528                      .global _SAR_stopConversion
    1529                      .global _SAR_A2DMeasParamSet
    1530                      .global _DMA_init
    1531                      .global _DMA_open
    1532                      .global _DMA_config
    1533                      .global _DMA_start
    1534                      .global _printf
    1535                      .global _IRQ_plug
    1536                      .global _IRQ_clear
    1537                      .global _IRQ_clearAll
    1538                      .global _IRQ_disableAll
    1539                      .global _IRQ_enable
    1540                      .global _IRQ_setVecs
    1541                      .global _IRQ_globalDisable
    1542                      .global _IRQ_globalEnable
    1543                      .global _VECSTART
    1544              
    1545              ;*******************************************************************************
    1546              ;* TYPE INFORMATION                                                            *
    1547              ;*******************************************************************************
    1548              
    1549              $C$DW$T$29      .dwtag  DW_TAG_enumeration_type
    1550                      .dwattr $C$DW$T$29, DW_AT_byte_size(0x01)
    1551              $C$DW$124       .dwtag  DW_TAG_enumerator, DW_AT_name("CSL_SAR_POLLING"), DW_AT_const_value(0x00)
TMS320C55x Assembler PC v4.4.1 Sat Sep 29 23:08:48 2018

Tools Copyright (c) 1996-2012 Texas Instruments Incorporated
csl_sar_DmaExample.asm                                               PAGE   44

    1552              $C$DW$125       .dwtag  DW_TAG_enumerator, DW_AT_name("CSL_SAR_INTERRUPT"), DW_AT_const_value(0x01)
    1553              $C$DW$126       .dwtag  DW_TAG_enumerator, DW_AT_name("CSL_SAR_DMA"), DW_AT_const_value(0x02)
    1554                      .dwendtag $C$DW$T$29
    1555              
    1556              $C$DW$T$30      .dwtag  DW_TAG_typedef, DW_AT_name("CSL_SarOpMode")
    1557                      .dwattr $C$DW$T$30, DW_AT_type(*$C$DW$T$29)
    1558                      .dwattr $C$DW$T$30, DW_AT_language(DW_LANG_C)
    1559              
    1560              $C$DW$T$31      .dwtag  DW_TAG_enumeration_type
    1561                      .dwattr $C$DW$T$31, DW_AT_byte_size(0x01)
    1562              $C$DW$127       .dwtag  DW_TAG_enumerator, DW_AT_name("CSL_SAR_NO_DISCHARGE"), DW_AT_const_value(0x00)
    1563              $C$DW$128       .dwtag  DW_TAG_enumerator, DW_AT_name("CSL_SAR_DISCHARGE_ARRAY"), DW_AT_const_value(0x01)
    1564                      .dwendtag $C$DW$T$31
    1565              
    1566              $C$DW$T$32      .dwtag  DW_TAG_typedef, DW_AT_name("CSL_SarMultiCh")
    1567                      .dwattr $C$DW$T$32, DW_AT_type(*$C$DW$T$31)
    1568                      .dwattr $C$DW$T$32, DW_AT_language(DW_LANG_C)
    1569              
    1570              $C$DW$T$33      .dwtag  DW_TAG_enumeration_type
    1571                      .dwattr $C$DW$T$33, DW_AT_byte_size(0x01)
    1572              $C$DW$129       .dwtag  DW_TAG_enumerator, DW_AT_name("CSL_SAR_REF_0_8v"), DW_AT_const_value(0x00)
    1573              $C$DW$130       .dwtag  DW_TAG_enumerator, DW_AT_name("CSL_SAR_REF_1v"), DW_AT_const_value(0x01)
    1574              $C$DW$131       .dwtag  DW_TAG_enumerator, DW_AT_name("CSL_SAR_REF_VIN"), DW_AT_const_value(0x02)
    1575                      .dwendtag $C$DW$T$33
    1576              
    1577              $C$DW$T$34      .dwtag  DW_TAG_typedef, DW_AT_name("CSL_RefVoltage")
    1578                      .dwattr $C$DW$T$34, DW_AT_type(*$C$DW$T$33)
    1579                      .dwattr $C$DW$T$34, DW_AT_language(DW_LANG_C)
    1580              
    1581              $C$DW$T$42      .dwtag  DW_TAG_enumeration_type
    1582                      .dwattr $C$DW$T$42, DW_AT_byte_size(0x01)
    1583              $C$DW$132       .dwtag  DW_TAG_enumerator, DW_AT_name("CSL_DMA_CHAN0"), DW_AT_const_value(0x00)
    1584              $C$DW$133       .dwtag  DW_TAG_enumerator, DW_AT_name("CSL_DMA_CHAN1"), DW_AT_const_value(0x01)
    1585              $C$DW$134       .dwtag  DW_TAG_enumerator, DW_AT_name("CSL_DMA_CHAN2"), DW_AT_const_value(0x02)
    1586              $C$DW$135       .dwtag  DW_TAG_enumerator, DW_AT_name("CSL_DMA_CHAN3"), DW_AT_const_value(0x03)
    1587              $C$DW$136       .dwtag  DW_TAG_enumerator, DW_AT_name("CSL_DMA_CHAN4"), DW_AT_const_value(0x04)
    1588              $C$DW$137       .dwtag  DW_TAG_enumerator, DW_AT_name("CSL_DMA_CHAN5"), DW_AT_const_value(0x05)
    1589              $C$DW$138       .dwtag  DW_TAG_enumerator, DW_AT_name("CSL_DMA_CHAN6"), DW_AT_const_value(0x06)
    1590              $C$DW$139       .dwtag  DW_TAG_enumerator, DW_AT_name("CSL_DMA_CHAN7"), DW_AT_const_value(0x07)
    1591              $C$DW$140       .dwtag  DW_TAG_enumerator, DW_AT_name("CSL_DMA_CHAN8"), DW_AT_const_value(0x08)
    1592              $C$DW$141       .dwtag  DW_TAG_enumerator, DW_AT_name("CSL_DMA_CHAN9"), DW_AT_const_value(0x09)
    1593              $C$DW$142       .dwtag  DW_TAG_enumerator, DW_AT_name("CSL_DMA_CHAN10"), DW_AT_const_value(0x0a)
    1594              $C$DW$143       .dwtag  DW_TAG_enumerator, DW_AT_name("CSL_DMA_CHAN11"), DW_AT_const_value(0x0b)
    1595              $C$DW$144       .dwtag  DW_TAG_enumerator, DW_AT_name("CSL_DMA_CHAN12"), DW_AT_const_value(0x0c)
    1596              $C$DW$145       .dwtag  DW_TAG_enumerator, DW_AT_name("CSL_DMA_CHAN13"), DW_AT_const_value(0x0d)
    1597              $C$DW$146       .dwtag  DW_TAG_enumerator, DW_AT_name("CSL_DMA_CHAN14"), DW_AT_const_value(0x0e)
    1598              $C$DW$147       .dwtag  DW_TAG_enumerator, DW_AT_name("CSL_DMA_CHAN15"), DW_AT_const_value(0x0f)
    1599              $C$DW$148       .dwtag  DW_TAG_enumerator, DW_AT_name("CSL_DMA_CHAN_INV"), DW_AT_const_value(0x10)
    1600                      .dwendtag $C$DW$T$42
    1601              
    1602              $C$DW$T$43      .dwtag  DW_TAG_typedef, DW_AT_name("CSL_DMAChanNum")
    1603                      .dwattr $C$DW$T$43, DW_AT_type(*$C$DW$T$42)
    1604                      .dwattr $C$DW$T$43, DW_AT_language(DW_LANG_C)
    1605              
    1606              $C$DW$T$44      .dwtag  DW_TAG_enumeration_type
TMS320C55x Assembler PC v4.4.1 Sat Sep 29 23:08:48 2018

Tools Copyright (c) 1996-2012 Texas Instruments Incorporated
csl_sar_DmaExample.asm                                               PAGE   45

    1607                      .dwattr $C$DW$T$44, DW_AT_byte_size(0x01)
    1608              $C$DW$149       .dwtag  DW_TAG_enumerator, DW_AT_name("CSL_DMA_ENGINE0"), DW_AT_const_value(0x00)
    1609              $C$DW$150       .dwtag  DW_TAG_enumerator, DW_AT_name("CSL_DMA_ENGINE1"), DW_AT_const_value(0x01)
    1610              $C$DW$151       .dwtag  DW_TAG_enumerator, DW_AT_name("CSL_DMA_ENGINE2"), DW_AT_const_value(0x02)
    1611              $C$DW$152       .dwtag  DW_TAG_enumerator, DW_AT_name("CSL_DMA_ENGINE3"), DW_AT_const_value(0x03)
    1612              $C$DW$153       .dwtag  DW_TAG_enumerator, DW_AT_name("CSL_DMA_ENGINEINV"), DW_AT_const_value(0x04)
    1613                      .dwendtag $C$DW$T$44
    1614              
    1615              $C$DW$T$45      .dwtag  DW_TAG_typedef, DW_AT_name("CSL_DMAEngineId")
    1616                      .dwattr $C$DW$T$45, DW_AT_type(*$C$DW$T$44)
    1617                      .dwattr $C$DW$T$45, DW_AT_language(DW_LANG_C)
    1618              
    1619              $C$DW$T$47      .dwtag  DW_TAG_enumeration_type
    1620                      .dwattr $C$DW$T$47, DW_AT_byte_size(0x01)
    1621              $C$DW$154       .dwtag  DW_TAG_enumerator, DW_AT_name("CSL_DMA_READ"), DW_AT_const_value(0x00)
    1622              $C$DW$155       .dwtag  DW_TAG_enumerator, DW_AT_name("CSL_DMA_WRITE"), DW_AT_const_value(0x01)
    1623                      .dwendtag $C$DW$T$47
    1624              
    1625              $C$DW$T$48      .dwtag  DW_TAG_typedef, DW_AT_name("CSL_DMAChanDir")
    1626                      .dwattr $C$DW$T$48, DW_AT_type(*$C$DW$T$47)
    1627                      .dwattr $C$DW$T$48, DW_AT_language(DW_LANG_C)
    1628              
    1629              $C$DW$T$49      .dwtag  DW_TAG_enumeration_type
    1630                      .dwattr $C$DW$T$49, DW_AT_byte_size(0x01)
    1631              $C$DW$156       .dwtag  DW_TAG_enumerator, DW_AT_name("CSL_DMA_SOFTWARE_TRIGGER"), DW_AT_const_value(0x00)
    1632              $C$DW$157       .dwtag  DW_TAG_enumerator, DW_AT_name("CSL_DMA_EVENT_TRIGGER"), DW_AT_const_value(0x01)
    1633                      .dwendtag $C$DW$T$49
    1634              
    1635              $C$DW$T$50      .dwtag  DW_TAG_typedef, DW_AT_name("CSL_DMATriggerType")
    1636                      .dwattr $C$DW$T$50, DW_AT_type(*$C$DW$T$49)
    1637                      .dwattr $C$DW$T$50, DW_AT_language(DW_LANG_C)
    1638              
    1639              $C$DW$T$51      .dwtag  DW_TAG_enumeration_type
    1640                      .dwattr $C$DW$T$51, DW_AT_byte_size(0x01)
    1641              $C$DW$158       .dwtag  DW_TAG_enumerator, DW_AT_name("CSL_DMA_TRANSFER_IO_MEMORY"), DW_AT_const_value(0x00)
    1642              $C$DW$159       .dwtag  DW_TAG_enumerator, DW_AT_name("CSL_DMA_TRANSFER_MEMORY"), DW_AT_const_value(0x01)
    1643                      .dwendtag $C$DW$T$51
    1644              
    1645              $C$DW$T$52      .dwtag  DW_TAG_typedef, DW_AT_name("CSL_DMATransferType")
    1646                      .dwattr $C$DW$T$52, DW_AT_type(*$C$DW$T$51)
    1647                      .dwattr $C$DW$T$52, DW_AT_language(DW_LANG_C)
    1648              
    1649              $C$DW$T$53      .dwtag  DW_TAG_enumeration_type
    1650                      .dwattr $C$DW$T$53, DW_AT_byte_size(0x01)
    1651              $C$DW$160       .dwtag  DW_TAG_enumerator, DW_AT_name("CSL_DMA_INTERRUPT_DISABLE"), DW_AT_const_value(0x00)
    1652              $C$DW$161       .dwtag  DW_TAG_enumerator, DW_AT_name("CSL_DMA_INTERRUPT_ENABLE"), DW_AT_const_value(0x01)
    1653                      .dwendtag $C$DW$T$53
    1654              
    1655              $C$DW$T$54      .dwtag  DW_TAG_typedef, DW_AT_name("CSL_DMAInterruptState")
    1656                      .dwattr $C$DW$T$54, DW_AT_type(*$C$DW$T$53)
    1657                      .dwattr $C$DW$T$54, DW_AT_language(DW_LANG_C)
    1658              
    1659              $C$DW$T$56      .dwtag  DW_TAG_enumeration_type
    1660                      .dwattr $C$DW$T$56, DW_AT_byte_size(0x01)
    1661              $C$DW$162       .dwtag  DW_TAG_enumerator, DW_AT_name("CSL_DMA_PING_PONG_DISABLE"), DW_AT_const_value(0x00)
TMS320C55x Assembler PC v4.4.1 Sat Sep 29 23:08:48 2018

Tools Copyright (c) 1996-2012 Texas Instruments Incorporated
csl_sar_DmaExample.asm                                               PAGE   46

    1662              $C$DW$163       .dwtag  DW_TAG_enumerator, DW_AT_name("CSL_DMA_PING_PONG_ENABLE"), DW_AT_const_value(0x01)
    1663                      .dwendtag $C$DW$T$56
    1664              
    1665              $C$DW$T$57      .dwtag  DW_TAG_typedef, DW_AT_name("CSL_DMAPingPongMode")
    1666                      .dwattr $C$DW$T$57, DW_AT_type(*$C$DW$T$56)
    1667                      .dwattr $C$DW$T$57, DW_AT_language(DW_LANG_C)
    1668              
    1669              $C$DW$T$58      .dwtag  DW_TAG_enumeration_type
    1670                      .dwattr $C$DW$T$58, DW_AT_byte_size(0x01)
    1671              $C$DW$164       .dwtag  DW_TAG_enumerator, DW_AT_name("CSL_DMA_AUTORELOAD_DISABLE"), DW_AT_const_value(0x00)
    1672              $C$DW$165       .dwtag  DW_TAG_enumerator, DW_AT_name("CSL_DMA_AUTORELOAD_ENABLE"), DW_AT_const_value(0x01)
    1673                      .dwendtag $C$DW$T$58
    1674              
    1675              $C$DW$T$59      .dwtag  DW_TAG_typedef, DW_AT_name("CSL_DMAAutoReloadMode")
    1676                      .dwattr $C$DW$T$59, DW_AT_type(*$C$DW$T$58)
    1677                      .dwattr $C$DW$T$59, DW_AT_language(DW_LANG_C)
    1678              
    1679              $C$DW$T$60      .dwtag  DW_TAG_enumeration_type
    1680                      .dwattr $C$DW$T$60, DW_AT_byte_size(0x01)
    1681              $C$DW$166       .dwtag  DW_TAG_enumerator, DW_AT_name("CSL_DMA_TXBURST_1WORD"), DW_AT_const_value(0x00)
    1682              $C$DW$167       .dwtag  DW_TAG_enumerator, DW_AT_name("CSL_DMA_TXBURST_2WORD"), DW_AT_const_value(0x01)
    1683              $C$DW$168       .dwtag  DW_TAG_enumerator, DW_AT_name("CSL_DMA_TXBURST_4WORD"), DW_AT_const_value(0x02)
    1684              $C$DW$169       .dwtag  DW_TAG_enumerator, DW_AT_name("CSL_DMA_TXBURST_8WORD"), DW_AT_const_value(0x03)
    1685              $C$DW$170       .dwtag  DW_TAG_enumerator, DW_AT_name("CSL_DMA_TXBURST_16WORD"), DW_AT_const_value(0x04)
    1686                      .dwendtag $C$DW$T$60
    1687              
    1688              $C$DW$T$61      .dwtag  DW_TAG_typedef, DW_AT_name("CSL_DMATxBurstLen")
    1689                      .dwattr $C$DW$T$61, DW_AT_type(*$C$DW$T$60)
    1690                      .dwattr $C$DW$T$61, DW_AT_language(DW_LANG_C)
    1691              
    1692              $C$DW$T$62      .dwtag  DW_TAG_enumeration_type
    1693                      .dwattr $C$DW$T$62, DW_AT_byte_size(0x01)
    1694              $C$DW$171       .dwtag  DW_TAG_enumerator, DW_AT_name("CSL_DMA_EVT_NONE"), DW_AT_const_value(0x00)
    1695              $C$DW$172       .dwtag  DW_TAG_enumerator, DW_AT_name("CSL_DMA_EVT_I2S0_TX"), DW_AT_const_value(0x01)
    1696              $C$DW$173       .dwtag  DW_TAG_enumerator, DW_AT_name("CSL_DMA_EVT_I2S0_RX"), DW_AT_const_value(0x02)
    1697              $C$DW$174       .dwtag  DW_TAG_enumerator, DW_AT_name("CSL_DMA_EVT_I2S1_TX"), DW_AT_const_value(0x01)
    1698              $C$DW$175       .dwtag  DW_TAG_enumerator, DW_AT_name("CSL_DMA_EVT_I2S1_RX"), DW_AT_const_value(0x02)
    1699              $C$DW$176       .dwtag  DW_TAG_enumerator, DW_AT_name("CSL_DMA_EVT_I2S2_TX"), DW_AT_const_value(0x01)
    1700              $C$DW$177       .dwtag  DW_TAG_enumerator, DW_AT_name("CSL_DMA_EVT_I2S2_RX"), DW_AT_const_value(0x02)
    1701              $C$DW$178       .dwtag  DW_TAG_enumerator, DW_AT_name("CSL_DMA_EVT_I2S3_TX"), DW_AT_const_value(0x04)
    1702              $C$DW$179       .dwtag  DW_TAG_enumerator, DW_AT_name("CSL_DMA_EVT_I2S3_RX"), DW_AT_const_value(0x05)
    1703              $C$DW$180       .dwtag  DW_TAG_enumerator, DW_AT_name("CSL_DMA_EVT_MMC_SD0_TX"), DW_AT_const_value(0x05)
    1704              $C$DW$181       .dwtag  DW_TAG_enumerator, DW_AT_name("CSL_DMA_EVT_MMC_SD0_RX"), DW_AT_const_value(0x06)
    1705              $C$DW$182       .dwtag  DW_TAG_enumerator, DW_AT_name("CSL_DMA_EVT_MMC_SD1_TX"), DW_AT_const_value(0x07)
    1706              $C$DW$183       .dwtag  DW_TAG_enumerator, DW_AT_name("CSL_DMA_EVT_MMC_SD1_RX"), DW_AT_const_value(0x08)
    1707              $C$DW$184       .dwtag  DW_TAG_enumerator, DW_AT_name("CSL_DMA_EVT_TIMER0"), DW_AT_const_value(0x0c)
    1708              $C$DW$185       .dwtag  DW_TAG_enumerator, DW_AT_name("CSL_DMA_EVT_TIMER1"), DW_AT_const_value(0x0d)
    1709              $C$DW$186       .dwtag  DW_TAG_enumerator, DW_AT_name("CSL_DMA_EVT_TIMER2"), DW_AT_const_value(0x0e)
    1710              $C$DW$187       .dwtag  DW_TAG_enumerator, DW_AT_name("CSL_DMA_EVT_UART_TX"), DW_AT_const_value(0x05)
    1711              $C$DW$188       .dwtag  DW_TAG_enumerator, DW_AT_name("CSL_DMA_EVT_UART_RX"), DW_AT_const_value(0x06)
    1712              $C$DW$189       .dwtag  DW_TAG_enumerator, DW_AT_name("CSL_DMA_EVT_I2C_TX"), DW_AT_const_value(0x01)
    1713              $C$DW$190       .dwtag  DW_TAG_enumerator, DW_AT_name("CSL_DMA_EVT_I2C_RX"), DW_AT_const_value(0x02)
    1714              $C$DW$191       .dwtag  DW_TAG_enumerator, DW_AT_name("CSL_DMA_EVT_SAR_AD"), DW_AT_const_value(0x03)
    1715              $C$DW$192       .dwtag  DW_TAG_enumerator, DW_AT_name("CSL_DMA_EVT_INVALID"), DW_AT_const_value(0x04)
    1716                      .dwendtag $C$DW$T$62
TMS320C55x Assembler PC v4.4.1 Sat Sep 29 23:08:48 2018

Tools Copyright (c) 1996-2012 Texas Instruments Incorporated
csl_sar_DmaExample.asm                                               PAGE   47

    1717              
    1718              $C$DW$T$63      .dwtag  DW_TAG_typedef, DW_AT_name("CSL_DMAEvtType")
    1719                      .dwattr $C$DW$T$63, DW_AT_type(*$C$DW$T$62)
    1720                      .dwattr $C$DW$T$63, DW_AT_language(DW_LANG_C)
    1721              
    1722              $C$DW$T$70      .dwtag  DW_TAG_enumeration_type
    1723                      .dwattr $C$DW$T$70, DW_AT_byte_size(0x01)
    1724              $C$DW$193       .dwtag  DW_TAG_enumerator, DW_AT_name("CSL_SAR_CHAN_0"), DW_AT_const_value(0x00)
    1725              $C$DW$194       .dwtag  DW_TAG_enumerator, DW_AT_name("CSL_SAR_CHAN_1"), DW_AT_const_value(0x01)
    1726              $C$DW$195       .dwtag  DW_TAG_enumerator, DW_AT_name("CSL_SAR_CHAN_2"), DW_AT_const_value(0x02)
    1727              $C$DW$196       .dwtag  DW_TAG_enumerator, DW_AT_name("CSL_SAR_CHAN_3"), DW_AT_const_value(0x03)
    1728              $C$DW$197       .dwtag  DW_TAG_enumerator, DW_AT_name("CSL_SAR_CHAN_4"), DW_AT_const_value(0x04)
    1729              $C$DW$198       .dwtag  DW_TAG_enumerator, DW_AT_name("CSL_SAR_CHAN_5"), DW_AT_const_value(0x05)
    1730              $C$DW$199       .dwtag  DW_TAG_enumerator, DW_AT_name("CSL_SAR_NO_CHAN"), DW_AT_const_value(0x06)
    1731                      .dwendtag $C$DW$T$70
    1732              
    1733              $C$DW$T$71      .dwtag  DW_TAG_typedef, DW_AT_name("CSL_SarChanSel")
    1734                      .dwattr $C$DW$T$71, DW_AT_type(*$C$DW$T$70)
    1735                      .dwattr $C$DW$T$71, DW_AT_language(DW_LANG_C)
    1736              $C$DW$T$72      .dwtag  DW_TAG_pointer_type
    1737                      .dwattr $C$DW$T$72, DW_AT_type(*$C$DW$T$71)
    1738                      .dwattr $C$DW$T$72, DW_AT_address_class(0x17)
    1739              
    1740              $C$DW$T$73      .dwtag  DW_TAG_enumeration_type
    1741                      .dwattr $C$DW$T$73, DW_AT_byte_size(0x01)
    1742              $C$DW$200       .dwtag  DW_TAG_enumerator, DW_AT_name("CSL_SAR_CONTINUOUS_CONVERSION"), DW_AT_const_value(0x0
    1743              $C$DW$201       .dwtag  DW_TAG_enumerator, DW_AT_name("CSL_SAR_SINGLE_CONVERSION"), DW_AT_const_value(0x01)
    1744                      .dwendtag $C$DW$T$73
    1745              
    1746              $C$DW$T$74      .dwtag  DW_TAG_typedef, DW_AT_name("CSL_SarChanCyc")
    1747                      .dwattr $C$DW$T$74, DW_AT_type(*$C$DW$T$73)
    1748                      .dwattr $C$DW$T$74, DW_AT_language(DW_LANG_C)
    1749              
    1750              $C$DW$T$75      .dwtag  DW_TAG_enumeration_type
    1751                      .dwattr $C$DW$T$75, DW_AT_byte_size(0x01)
    1752              $C$DW$202       .dwtag  DW_TAG_enumerator, DW_AT_name("CSL_KEYPAD_MEAS"), DW_AT_const_value(0x00)
    1753              $C$DW$203       .dwtag  DW_TAG_enumerator, DW_AT_name("CSL_BATTRY_MEAS"), DW_AT_const_value(0x01)
    1754              $C$DW$204       .dwtag  DW_TAG_enumerator, DW_AT_name("CSL_INT_VOLT_MEAS"), DW_AT_const_value(0x02)
    1755              $C$DW$205       .dwtag  DW_TAG_enumerator, DW_AT_name("CSL_VOLUME_CTRL"), DW_AT_const_value(0x03)
    1756              $C$DW$206       .dwtag  DW_TAG_enumerator, DW_AT_name("CSL_TOUCH_SCREEN_XAXIS"), DW_AT_const_value(0x04)
    1757              $C$DW$207       .dwtag  DW_TAG_enumerator, DW_AT_name("CSL_TOUCH_SCREEN_YAXIS"), DW_AT_const_value(0x05)
    1758              $C$DW$208       .dwtag  DW_TAG_enumerator, DW_AT_name("CSL_PEN_PRESS_DOWN"), DW_AT_const_value(0x06)
    1759                      .dwendtag $C$DW$T$75
    1760              
    1761              $C$DW$T$76      .dwtag  DW_TAG_typedef, DW_AT_name("CSL_SARMeasParam")
    1762                      .dwattr $C$DW$T$76, DW_AT_type(*$C$DW$T$75)
    1763                      .dwattr $C$DW$T$76, DW_AT_language(DW_LANG_C)
    1764              
    1765              $C$DW$T$23      .dwtag  DW_TAG_structure_type
    1766                      .dwattr $C$DW$T$23, DW_AT_byte_size(0x1b)
    1767              $C$DW$209       .dwtag  DW_TAG_member
    1768                      .dwattr $C$DW$209, DW_AT_type(*$C$DW$T$21)
    1769                      .dwattr $C$DW$209, DW_AT_name("RSVD0")
    1770                      .dwattr $C$DW$209, DW_AT_TI_symbol_name("_RSVD0")
    1771                      .dwattr $C$DW$209, DW_AT_data_member_location[DW_OP_plus_uconst 0x0]
TMS320C55x Assembler PC v4.4.1 Sat Sep 29 23:08:48 2018

Tools Copyright (c) 1996-2012 Texas Instruments Incorporated
csl_sar_DmaExample.asm                                               PAGE   48

    1772                      .dwattr $C$DW$209, DW_AT_accessibility(DW_ACCESS_public)
    1773              $C$DW$210       .dwtag  DW_TAG_member
    1774                      .dwattr $C$DW$210, DW_AT_type(*$C$DW$T$20)
    1775                      .dwattr $C$DW$210, DW_AT_name("USBLDOCNTL")
    1776                      .dwattr $C$DW$210, DW_AT_TI_symbol_name("_USBLDOCNTL")
    1777                      .dwattr $C$DW$210, DW_AT_data_member_location[DW_OP_plus_uconst 0x4]
    1778                      .dwattr $C$DW$210, DW_AT_accessibility(DW_ACCESS_public)
    1779              $C$DW$211       .dwtag  DW_TAG_member
    1780                      .dwattr $C$DW$211, DW_AT_type(*$C$DW$T$22)
    1781                      .dwattr $C$DW$211, DW_AT_name("RSVD1")
    1782                      .dwattr $C$DW$211, DW_AT_TI_symbol_name("_RSVD1")
    1783                      .dwattr $C$DW$211, DW_AT_data_member_location[DW_OP_plus_uconst 0x5]
    1784                      .dwattr $C$DW$211, DW_AT_accessibility(DW_ACCESS_public)
    1785              $C$DW$212       .dwtag  DW_TAG_member
    1786                      .dwattr $C$DW$212, DW_AT_type(*$C$DW$T$20)
    1787                      .dwattr $C$DW$212, DW_AT_name("SARCTRL")
    1788                      .dwattr $C$DW$212, DW_AT_TI_symbol_name("_SARCTRL")
    1789                      .dwattr $C$DW$212, DW_AT_data_member_location[DW_OP_plus_uconst 0x12]
    1790                      .dwattr $C$DW$212, DW_AT_accessibility(DW_ACCESS_public)
    1791              $C$DW$213       .dwtag  DW_TAG_member
    1792                      .dwattr $C$DW$213, DW_AT_type(*$C$DW$T$20)
    1793                      .dwattr $C$DW$213, DW_AT_name("RSVD2")
    1794                      .dwattr $C$DW$213, DW_AT_TI_symbol_name("_RSVD2")
    1795                      .dwattr $C$DW$213, DW_AT_data_member_location[DW_OP_plus_uconst 0x13]
    1796                      .dwattr $C$DW$213, DW_AT_accessibility(DW_ACCESS_public)
    1797              $C$DW$214       .dwtag  DW_TAG_member
    1798                      .dwattr $C$DW$214, DW_AT_type(*$C$DW$T$20)
    1799                      .dwattr $C$DW$214, DW_AT_name("SARDATA")
    1800                      .dwattr $C$DW$214, DW_AT_TI_symbol_name("_SARDATA")
    1801                      .dwattr $C$DW$214, DW_AT_data_member_location[DW_OP_plus_uconst 0x14]
    1802                      .dwattr $C$DW$214, DW_AT_accessibility(DW_ACCESS_public)
    1803              $C$DW$215       .dwtag  DW_TAG_member
    1804                      .dwattr $C$DW$215, DW_AT_type(*$C$DW$T$20)
    1805                      .dwattr $C$DW$215, DW_AT_name("RSVD3")
    1806                      .dwattr $C$DW$215, DW_AT_TI_symbol_name("_RSVD3")
    1807                      .dwattr $C$DW$215, DW_AT_data_member_location[DW_OP_plus_uconst 0x15]
    1808                      .dwattr $C$DW$215, DW_AT_accessibility(DW_ACCESS_public)
    1809              $C$DW$216       .dwtag  DW_TAG_member
    1810                      .dwattr $C$DW$216, DW_AT_type(*$C$DW$T$20)
    1811                      .dwattr $C$DW$216, DW_AT_name("SARCLKCTRL")
    1812                      .dwattr $C$DW$216, DW_AT_TI_symbol_name("_SARCLKCTRL")
    1813                      .dwattr $C$DW$216, DW_AT_data_member_location[DW_OP_plus_uconst 0x16]
    1814                      .dwattr $C$DW$216, DW_AT_accessibility(DW_ACCESS_public)
    1815              $C$DW$217       .dwtag  DW_TAG_member
    1816                      .dwattr $C$DW$217, DW_AT_type(*$C$DW$T$20)
    1817                      .dwattr $C$DW$217, DW_AT_name("RSVD4")
    1818                      .dwattr $C$DW$217, DW_AT_TI_symbol_name("_RSVD4")
    1819                      .dwattr $C$DW$217, DW_AT_data_member_location[DW_OP_plus_uconst 0x17]
    1820                      .dwattr $C$DW$217, DW_AT_accessibility(DW_ACCESS_public)
    1821              $C$DW$218       .dwtag  DW_TAG_member
    1822                      .dwattr $C$DW$218, DW_AT_type(*$C$DW$T$20)
    1823                      .dwattr $C$DW$218, DW_AT_name("SARPINCTRL")
    1824                      .dwattr $C$DW$218, DW_AT_TI_symbol_name("_SARPINCTRL")
    1825                      .dwattr $C$DW$218, DW_AT_data_member_location[DW_OP_plus_uconst 0x18]
    1826                      .dwattr $C$DW$218, DW_AT_accessibility(DW_ACCESS_public)
TMS320C55x Assembler PC v4.4.1 Sat Sep 29 23:08:48 2018

Tools Copyright (c) 1996-2012 Texas Instruments Incorporated
csl_sar_DmaExample.asm                                               PAGE   49

    1827              $C$DW$219       .dwtag  DW_TAG_member
    1828                      .dwattr $C$DW$219, DW_AT_type(*$C$DW$T$20)
    1829                      .dwattr $C$DW$219, DW_AT_name("RSVD5")
    1830                      .dwattr $C$DW$219, DW_AT_TI_symbol_name("_RSVD5")
    1831                      .dwattr $C$DW$219, DW_AT_data_member_location[DW_OP_plus_uconst 0x19]
    1832                      .dwattr $C$DW$219, DW_AT_accessibility(DW_ACCESS_public)
    1833              $C$DW$220       .dwtag  DW_TAG_member
    1834                      .dwattr $C$DW$220, DW_AT_type(*$C$DW$T$20)
    1835                      .dwattr $C$DW$220, DW_AT_name("SARGPOCTRL")
    1836                      .dwattr $C$DW$220, DW_AT_TI_symbol_name("_SARGPOCTRL")
    1837                      .dwattr $C$DW$220, DW_AT_data_member_location[DW_OP_plus_uconst 0x1a]
    1838                      .dwattr $C$DW$220, DW_AT_accessibility(DW_ACCESS_public)
    1839                      .dwendtag $C$DW$T$23
    1840              
    1841              $C$DW$T$24      .dwtag  DW_TAG_typedef, DW_AT_name("CSL_AnactrlRegs")
    1842                      .dwattr $C$DW$T$24, DW_AT_type(*$C$DW$T$23)
    1843                      .dwattr $C$DW$T$24, DW_AT_language(DW_LANG_C)
    1844              $C$DW$221       .dwtag  DW_TAG_TI_far_type
    1845                      .dwattr $C$DW$221, DW_AT_type(*$C$DW$T$24)
    1846              $C$DW$222       .dwtag  DW_TAG_TI_ioport_type
    1847                      .dwattr $C$DW$222, DW_AT_type(*$C$DW$221)
    1848              $C$DW$T$25      .dwtag  DW_TAG_volatile_type
    1849                      .dwattr $C$DW$T$25, DW_AT_type(*$C$DW$222)
    1850              $C$DW$T$26      .dwtag  DW_TAG_pointer_type
    1851                      .dwattr $C$DW$T$26, DW_AT_type(*$C$DW$T$25)
    1852                      .dwattr $C$DW$T$26, DW_AT_address_class(0x10)
    1853              $C$DW$T$27      .dwtag  DW_TAG_typedef, DW_AT_name("CSL_SarRegsOvly")
    1854                      .dwattr $C$DW$T$27, DW_AT_type(*$C$DW$T$26)
    1855                      .dwattr $C$DW$T$27, DW_AT_language(DW_LANG_C)
    1856              
    1857              $C$DW$T$28      .dwtag  DW_TAG_structure_type
    1858                      .dwattr $C$DW$T$28, DW_AT_byte_size(0x03)
    1859              $C$DW$223       .dwtag  DW_TAG_member
    1860                      .dwattr $C$DW$223, DW_AT_type(*$C$DW$T$27)
    1861                      .dwattr $C$DW$223, DW_AT_name("baseAddr")
    1862                      .dwattr $C$DW$223, DW_AT_TI_symbol_name("_baseAddr")
    1863                      .dwattr $C$DW$223, DW_AT_data_member_location[DW_OP_plus_uconst 0x0]
    1864                      .dwattr $C$DW$223, DW_AT_accessibility(DW_ACCESS_public)
    1865              $C$DW$224       .dwtag  DW_TAG_member
    1866                      .dwattr $C$DW$224, DW_AT_type(*$C$DW$T$19)
    1867                      .dwattr $C$DW$224, DW_AT_name("chanNo")
    1868                      .dwattr $C$DW$224, DW_AT_TI_symbol_name("_chanNo")
    1869                      .dwattr $C$DW$224, DW_AT_data_member_location[DW_OP_plus_uconst 0x1]
    1870                      .dwattr $C$DW$224, DW_AT_accessibility(DW_ACCESS_public)
    1871              $C$DW$225       .dwtag  DW_TAG_member
    1872                      .dwattr $C$DW$225, DW_AT_type(*$C$DW$T$19)
    1873                      .dwattr $C$DW$225, DW_AT_name("status")
    1874                      .dwattr $C$DW$225, DW_AT_TI_symbol_name("_status")
    1875                      .dwattr $C$DW$225, DW_AT_data_member_location[DW_OP_plus_uconst 0x2]
    1876                      .dwattr $C$DW$225, DW_AT_accessibility(DW_ACCESS_public)
    1877                      .dwendtag $C$DW$T$28
    1878              
    1879              $C$DW$T$77      .dwtag  DW_TAG_typedef, DW_AT_name("CSL_SarHandleObj")
    1880                      .dwattr $C$DW$T$77, DW_AT_type(*$C$DW$T$28)
    1881                      .dwattr $C$DW$T$77, DW_AT_language(DW_LANG_C)
TMS320C55x Assembler PC v4.4.1 Sat Sep 29 23:08:48 2018

Tools Copyright (c) 1996-2012 Texas Instruments Incorporated
csl_sar_DmaExample.asm                                               PAGE   50

    1882              $C$DW$T$78      .dwtag  DW_TAG_pointer_type
    1883                      .dwattr $C$DW$T$78, DW_AT_type(*$C$DW$T$77)
    1884                      .dwattr $C$DW$T$78, DW_AT_address_class(0x17)
    1885              $C$DW$T$79      .dwtag  DW_TAG_typedef, DW_AT_name("SAR_Handle")
    1886                      .dwattr $C$DW$T$79, DW_AT_type(*$C$DW$T$78)
    1887                      .dwattr $C$DW$T$79, DW_AT_language(DW_LANG_C)
    1888              
    1889              $C$DW$T$35      .dwtag  DW_TAG_structure_type
    1890                      .dwattr $C$DW$T$35, DW_AT_byte_size(0x04)
    1891              $C$DW$226       .dwtag  DW_TAG_member
    1892                      .dwattr $C$DW$226, DW_AT_type(*$C$DW$T$19)
    1893                      .dwattr $C$DW$226, DW_AT_name("SysClkDiv")
    1894                      .dwattr $C$DW$226, DW_AT_TI_symbol_name("_SysClkDiv")
    1895                      .dwattr $C$DW$226, DW_AT_data_member_location[DW_OP_plus_uconst 0x0]
    1896                      .dwattr $C$DW$226, DW_AT_accessibility(DW_ACCESS_public)
    1897              $C$DW$227       .dwtag  DW_TAG_member
    1898                      .dwattr $C$DW$227, DW_AT_type(*$C$DW$T$30)
    1899                      .dwattr $C$DW$227, DW_AT_name("OpMode")
    1900                      .dwattr $C$DW$227, DW_AT_TI_symbol_name("_OpMode")
    1901                      .dwattr $C$DW$227, DW_AT_data_member_location[DW_OP_plus_uconst 0x1]
    1902                      .dwattr $C$DW$227, DW_AT_accessibility(DW_ACCESS_public)
    1903              $C$DW$228       .dwtag  DW_TAG_member
    1904                      .dwattr $C$DW$228, DW_AT_type(*$C$DW$T$32)
    1905                      .dwattr $C$DW$228, DW_AT_name("MultiCh")
    1906                      .dwattr $C$DW$228, DW_AT_TI_symbol_name("_MultiCh")
    1907                      .dwattr $C$DW$228, DW_AT_data_member_location[DW_OP_plus_uconst 0x2]
    1908                      .dwattr $C$DW$228, DW_AT_accessibility(DW_ACCESS_public)
    1909              $C$DW$229       .dwtag  DW_TAG_member
    1910                      .dwattr $C$DW$229, DW_AT_type(*$C$DW$T$34)
    1911                      .dwattr $C$DW$229, DW_AT_name("RefVoltage")
    1912                      .dwattr $C$DW$229, DW_AT_TI_symbol_name("_RefVoltage")
    1913                      .dwattr $C$DW$229, DW_AT_data_member_location[DW_OP_plus_uconst 0x3]
    1914                      .dwattr $C$DW$229, DW_AT_accessibility(DW_ACCESS_public)
    1915                      .dwendtag $C$DW$T$35
    1916              
    1917              $C$DW$T$80      .dwtag  DW_TAG_typedef, DW_AT_name("CSL_SarChSetup")
    1918                      .dwattr $C$DW$T$80, DW_AT_type(*$C$DW$T$35)
    1919                      .dwattr $C$DW$T$80, DW_AT_language(DW_LANG_C)
    1920              $C$DW$T$81      .dwtag  DW_TAG_pointer_type
    1921                      .dwattr $C$DW$T$81, DW_AT_type(*$C$DW$T$80)
    1922                      .dwattr $C$DW$T$81, DW_AT_address_class(0x17)
    1923              
    1924              $C$DW$T$37      .dwtag  DW_TAG_structure_type
    1925                      .dwattr $C$DW$T$37, DW_AT_byte_size(0x66)
    1926              $C$DW$230       .dwtag  DW_TAG_member
    1927                      .dwattr $C$DW$230, DW_AT_type(*$C$DW$T$20)
    1928                      .dwattr $C$DW$230, DW_AT_name("DMACH0SSAL")
    1929                      .dwattr $C$DW$230, DW_AT_TI_symbol_name("_DMACH0SSAL")
    1930                      .dwattr $C$DW$230, DW_AT_data_member_location[DW_OP_plus_uconst 0x0]
    1931                      .dwattr $C$DW$230, DW_AT_accessibility(DW_ACCESS_public)
    1932              $C$DW$231       .dwtag  DW_TAG_member
    1933                      .dwattr $C$DW$231, DW_AT_type(*$C$DW$T$20)
    1934                      .dwattr $C$DW$231, DW_AT_name("DMACH0SSAU")
    1935                      .dwattr $C$DW$231, DW_AT_TI_symbol_name("_DMACH0SSAU")
    1936                      .dwattr $C$DW$231, DW_AT_data_member_location[DW_OP_plus_uconst 0x1]
TMS320C55x Assembler PC v4.4.1 Sat Sep 29 23:08:48 2018

Tools Copyright (c) 1996-2012 Texas Instruments Incorporated
csl_sar_DmaExample.asm                                               PAGE   51

    1937                      .dwattr $C$DW$231, DW_AT_accessibility(DW_ACCESS_public)
    1938              $C$DW$232       .dwtag  DW_TAG_member
    1939                      .dwattr $C$DW$232, DW_AT_type(*$C$DW$T$20)
    1940                      .dwattr $C$DW$232, DW_AT_name("DMACH0DSAL")
    1941                      .dwattr $C$DW$232, DW_AT_TI_symbol_name("_DMACH0DSAL")
    1942                      .dwattr $C$DW$232, DW_AT_data_member_location[DW_OP_plus_uconst 0x2]
    1943                      .dwattr $C$DW$232, DW_AT_accessibility(DW_ACCESS_public)
    1944              $C$DW$233       .dwtag  DW_TAG_member
    1945                      .dwattr $C$DW$233, DW_AT_type(*$C$DW$T$20)
    1946                      .dwattr $C$DW$233, DW_AT_name("DMACH0DSAU")
    1947                      .dwattr $C$DW$233, DW_AT_TI_symbol_name("_DMACH0DSAU")
    1948                      .dwattr $C$DW$233, DW_AT_data_member_location[DW_OP_plus_uconst 0x3]
    1949                      .dwattr $C$DW$233, DW_AT_accessibility(DW_ACCESS_public)
    1950              $C$DW$234       .dwtag  DW_TAG_member
    1951                      .dwattr $C$DW$234, DW_AT_type(*$C$DW$T$20)
    1952                      .dwattr $C$DW$234, DW_AT_name("DMACH0TCR1")
    1953                      .dwattr $C$DW$234, DW_AT_TI_symbol_name("_DMACH0TCR1")
    1954                      .dwattr $C$DW$234, DW_AT_data_member_location[DW_OP_plus_uconst 0x4]
    1955                      .dwattr $C$DW$234, DW_AT_accessibility(DW_ACCESS_public)
    1956              $C$DW$235       .dwtag  DW_TAG_member
    1957                      .dwattr $C$DW$235, DW_AT_type(*$C$DW$T$20)
    1958                      .dwattr $C$DW$235, DW_AT_name("DMACH0TCR2")
    1959                      .dwattr $C$DW$235, DW_AT_TI_symbol_name("_DMACH0TCR2")
    1960                      .dwattr $C$DW$235, DW_AT_data_member_location[DW_OP_plus_uconst 0x5]
    1961                      .dwattr $C$DW$235, DW_AT_accessibility(DW_ACCESS_public)
    1962              $C$DW$236       .dwtag  DW_TAG_member
    1963                      .dwattr $C$DW$236, DW_AT_type(*$C$DW$T$36)
    1964                      .dwattr $C$DW$236, DW_AT_name("RSVD0")
    1965                      .dwattr $C$DW$236, DW_AT_TI_symbol_name("_RSVD0")
    1966                      .dwattr $C$DW$236, DW_AT_data_member_location[DW_OP_plus_uconst 0x6]
    1967                      .dwattr $C$DW$236, DW_AT_accessibility(DW_ACCESS_public)
    1968              $C$DW$237       .dwtag  DW_TAG_member
    1969                      .dwattr $C$DW$237, DW_AT_type(*$C$DW$T$20)
    1970                      .dwattr $C$DW$237, DW_AT_name("DMACH1SSAL")
    1971                      .dwattr $C$DW$237, DW_AT_TI_symbol_name("_DMACH1SSAL")
    1972                      .dwattr $C$DW$237, DW_AT_data_member_location[DW_OP_plus_uconst 0x20]
    1973                      .dwattr $C$DW$237, DW_AT_accessibility(DW_ACCESS_public)
    1974              $C$DW$238       .dwtag  DW_TAG_member
    1975                      .dwattr $C$DW$238, DW_AT_type(*$C$DW$T$20)
    1976                      .dwattr $C$DW$238, DW_AT_name("DMACH1SSAU")
    1977                      .dwattr $C$DW$238, DW_AT_TI_symbol_name("_DMACH1SSAU")
    1978                      .dwattr $C$DW$238, DW_AT_data_member_location[DW_OP_plus_uconst 0x21]
    1979                      .dwattr $C$DW$238, DW_AT_accessibility(DW_ACCESS_public)
    1980              $C$DW$239       .dwtag  DW_TAG_member
    1981                      .dwattr $C$DW$239, DW_AT_type(*$C$DW$T$20)
    1982                      .dwattr $C$DW$239, DW_AT_name("DMACH1DSAL")
    1983                      .dwattr $C$DW$239, DW_AT_TI_symbol_name("_DMACH1DSAL")
    1984                      .dwattr $C$DW$239, DW_AT_data_member_location[DW_OP_plus_uconst 0x22]
    1985                      .dwattr $C$DW$239, DW_AT_accessibility(DW_ACCESS_public)
    1986              $C$DW$240       .dwtag  DW_TAG_member
    1987                      .dwattr $C$DW$240, DW_AT_type(*$C$DW$T$20)
    1988                      .dwattr $C$DW$240, DW_AT_name("DMACH1DSAU")
    1989                      .dwattr $C$DW$240, DW_AT_TI_symbol_name("_DMACH1DSAU")
    1990                      .dwattr $C$DW$240, DW_AT_data_member_location[DW_OP_plus_uconst 0x23]
    1991                      .dwattr $C$DW$240, DW_AT_accessibility(DW_ACCESS_public)
TMS320C55x Assembler PC v4.4.1 Sat Sep 29 23:08:48 2018

Tools Copyright (c) 1996-2012 Texas Instruments Incorporated
csl_sar_DmaExample.asm                                               PAGE   52

    1992              $C$DW$241       .dwtag  DW_TAG_member
    1993                      .dwattr $C$DW$241, DW_AT_type(*$C$DW$T$20)
    1994                      .dwattr $C$DW$241, DW_AT_name("DMACH1TCR1")
    1995                      .dwattr $C$DW$241, DW_AT_TI_symbol_name("_DMACH1TCR1")
    1996                      .dwattr $C$DW$241, DW_AT_data_member_location[DW_OP_plus_uconst 0x24]
    1997                      .dwattr $C$DW$241, DW_AT_accessibility(DW_ACCESS_public)
    1998              $C$DW$242       .dwtag  DW_TAG_member
    1999                      .dwattr $C$DW$242, DW_AT_type(*$C$DW$T$20)
    2000                      .dwattr $C$DW$242, DW_AT_name("DMACH1TCR2")
    2001                      .dwattr $C$DW$242, DW_AT_TI_symbol_name("_DMACH1TCR2")
    2002                      .dwattr $C$DW$242, DW_AT_data_member_location[DW_OP_plus_uconst 0x25]
    2003                      .dwattr $C$DW$242, DW_AT_accessibility(DW_ACCESS_public)
    2004              $C$DW$243       .dwtag  DW_TAG_member
    2005                      .dwattr $C$DW$243, DW_AT_type(*$C$DW$T$36)
    2006                      .dwattr $C$DW$243, DW_AT_name("RSVD1")
    2007                      .dwattr $C$DW$243, DW_AT_TI_symbol_name("_RSVD1")
    2008                      .dwattr $C$DW$243, DW_AT_data_member_location[DW_OP_plus_uconst 0x26]
    2009                      .dwattr $C$DW$243, DW_AT_accessibility(DW_ACCESS_public)
    2010              $C$DW$244       .dwtag  DW_TAG_member
    2011                      .dwattr $C$DW$244, DW_AT_type(*$C$DW$T$20)
    2012                      .dwattr $C$DW$244, DW_AT_name("DMACH2SSAL")
    2013                      .dwattr $C$DW$244, DW_AT_TI_symbol_name("_DMACH2SSAL")
    2014                      .dwattr $C$DW$244, DW_AT_data_member_location[DW_OP_plus_uconst 0x40]
    2015                      .dwattr $C$DW$244, DW_AT_accessibility(DW_ACCESS_public)
    2016              $C$DW$245       .dwtag  DW_TAG_member
    2017                      .dwattr $C$DW$245, DW_AT_type(*$C$DW$T$20)
    2018                      .dwattr $C$DW$245, DW_AT_name("DMACH2SSAU")
    2019                      .dwattr $C$DW$245, DW_AT_TI_symbol_name("_DMACH2SSAU")
    2020                      .dwattr $C$DW$245, DW_AT_data_member_location[DW_OP_plus_uconst 0x41]
    2021                      .dwattr $C$DW$245, DW_AT_accessibility(DW_ACCESS_public)
    2022              $C$DW$246       .dwtag  DW_TAG_member
    2023                      .dwattr $C$DW$246, DW_AT_type(*$C$DW$T$20)
    2024                      .dwattr $C$DW$246, DW_AT_name("DMACH2DSAL")
    2025                      .dwattr $C$DW$246, DW_AT_TI_symbol_name("_DMACH2DSAL")
    2026                      .dwattr $C$DW$246, DW_AT_data_member_location[DW_OP_plus_uconst 0x42]
    2027                      .dwattr $C$DW$246, DW_AT_accessibility(DW_ACCESS_public)
    2028              $C$DW$247       .dwtag  DW_TAG_member
    2029                      .dwattr $C$DW$247, DW_AT_type(*$C$DW$T$20)
    2030                      .dwattr $C$DW$247, DW_AT_name("DMACH2DSAU")
    2031                      .dwattr $C$DW$247, DW_AT_TI_symbol_name("_DMACH2DSAU")
    2032                      .dwattr $C$DW$247, DW_AT_data_member_location[DW_OP_plus_uconst 0x43]
    2033                      .dwattr $C$DW$247, DW_AT_accessibility(DW_ACCESS_public)
    2034              $C$DW$248       .dwtag  DW_TAG_member
    2035                      .dwattr $C$DW$248, DW_AT_type(*$C$DW$T$20)
    2036                      .dwattr $C$DW$248, DW_AT_name("DMACH2TCR1")
    2037                      .dwattr $C$DW$248, DW_AT_TI_symbol_name("_DMACH2TCR1")
    2038                      .dwattr $C$DW$248, DW_AT_data_member_location[DW_OP_plus_uconst 0x44]
    2039                      .dwattr $C$DW$248, DW_AT_accessibility(DW_ACCESS_public)
    2040              $C$DW$249       .dwtag  DW_TAG_member
    2041                      .dwattr $C$DW$249, DW_AT_type(*$C$DW$T$20)
    2042                      .dwattr $C$DW$249, DW_AT_name("DMACH2TCR2")
    2043                      .dwattr $C$DW$249, DW_AT_TI_symbol_name("_DMACH2TCR2")
    2044                      .dwattr $C$DW$249, DW_AT_data_member_location[DW_OP_plus_uconst 0x45]
    2045                      .dwattr $C$DW$249, DW_AT_accessibility(DW_ACCESS_public)
    2046              $C$DW$250       .dwtag  DW_TAG_member
TMS320C55x Assembler PC v4.4.1 Sat Sep 29 23:08:48 2018

Tools Copyright (c) 1996-2012 Texas Instruments Incorporated
csl_sar_DmaExample.asm                                               PAGE   53

    2047                      .dwattr $C$DW$250, DW_AT_type(*$C$DW$T$36)
    2048                      .dwattr $C$DW$250, DW_AT_name("RSVD2")
    2049                      .dwattr $C$DW$250, DW_AT_TI_symbol_name("_RSVD2")
    2050                      .dwattr $C$DW$250, DW_AT_data_member_location[DW_OP_plus_uconst 0x46]
    2051                      .dwattr $C$DW$250, DW_AT_accessibility(DW_ACCESS_public)
    2052              $C$DW$251       .dwtag  DW_TAG_member
    2053                      .dwattr $C$DW$251, DW_AT_type(*$C$DW$T$20)
    2054                      .dwattr $C$DW$251, DW_AT_name("DMACH3SSAL")
    2055                      .dwattr $C$DW$251, DW_AT_TI_symbol_name("_DMACH3SSAL")
    2056                      .dwattr $C$DW$251, DW_AT_data_member_location[DW_OP_plus_uconst 0x60]
    2057                      .dwattr $C$DW$251, DW_AT_accessibility(DW_ACCESS_public)
    2058              $C$DW$252       .dwtag  DW_TAG_member
    2059                      .dwattr $C$DW$252, DW_AT_type(*$C$DW$T$20)
    2060                      .dwattr $C$DW$252, DW_AT_name("DMACH3SSAU")
    2061                      .dwattr $C$DW$252, DW_AT_TI_symbol_name("_DMACH3SSAU")
    2062                      .dwattr $C$DW$252, DW_AT_data_member_location[DW_OP_plus_uconst 0x61]
    2063                      .dwattr $C$DW$252, DW_AT_accessibility(DW_ACCESS_public)
    2064              $C$DW$253       .dwtag  DW_TAG_member
    2065                      .dwattr $C$DW$253, DW_AT_type(*$C$DW$T$20)
    2066                      .dwattr $C$DW$253, DW_AT_name("DMACH3DSAL")
    2067                      .dwattr $C$DW$253, DW_AT_TI_symbol_name("_DMACH3DSAL")
    2068                      .dwattr $C$DW$253, DW_AT_data_member_location[DW_OP_plus_uconst 0x62]
    2069                      .dwattr $C$DW$253, DW_AT_accessibility(DW_ACCESS_public)
    2070              $C$DW$254       .dwtag  DW_TAG_member
    2071                      .dwattr $C$DW$254, DW_AT_type(*$C$DW$T$20)
    2072                      .dwattr $C$DW$254, DW_AT_name("DMACH3DSAU")
    2073                      .dwattr $C$DW$254, DW_AT_TI_symbol_name("_DMACH3DSAU")
    2074                      .dwattr $C$DW$254, DW_AT_data_member_location[DW_OP_plus_uconst 0x63]
    2075                      .dwattr $C$DW$254, DW_AT_accessibility(DW_ACCESS_public)
    2076              $C$DW$255       .dwtag  DW_TAG_member
    2077                      .dwattr $C$DW$255, DW_AT_type(*$C$DW$T$20)
    2078                      .dwattr $C$DW$255, DW_AT_name("DMACH3TCR1")
    2079                      .dwattr $C$DW$255, DW_AT_TI_symbol_name("_DMACH3TCR1")
    2080                      .dwattr $C$DW$255, DW_AT_data_member_location[DW_OP_plus_uconst 0x64]
    2081                      .dwattr $C$DW$255, DW_AT_accessibility(DW_ACCESS_public)
    2082              $C$DW$256       .dwtag  DW_TAG_member
    2083                      .dwattr $C$DW$256, DW_AT_type(*$C$DW$T$20)
    2084                      .dwattr $C$DW$256, DW_AT_name("DMACH3TCR2")
    2085                      .dwattr $C$DW$256, DW_AT_TI_symbol_name("_DMACH3TCR2")
    2086                      .dwattr $C$DW$256, DW_AT_data_member_location[DW_OP_plus_uconst 0x65]
    2087                      .dwattr $C$DW$256, DW_AT_accessibility(DW_ACCESS_public)
    2088                      .dwendtag $C$DW$T$37
    2089              
    2090              $C$DW$T$38      .dwtag  DW_TAG_typedef, DW_AT_name("CSL_DmaRegs")
    2091                      .dwattr $C$DW$T$38, DW_AT_type(*$C$DW$T$37)
    2092                      .dwattr $C$DW$T$38, DW_AT_language(DW_LANG_C)
    2093              $C$DW$257       .dwtag  DW_TAG_TI_far_type
    2094                      .dwattr $C$DW$257, DW_AT_type(*$C$DW$T$38)
    2095              $C$DW$258       .dwtag  DW_TAG_TI_ioport_type
    2096                      .dwattr $C$DW$258, DW_AT_type(*$C$DW$257)
    2097              $C$DW$T$39      .dwtag  DW_TAG_volatile_type
    2098                      .dwattr $C$DW$T$39, DW_AT_type(*$C$DW$258)
    2099              $C$DW$T$40      .dwtag  DW_TAG_pointer_type
    2100                      .dwattr $C$DW$T$40, DW_AT_type(*$C$DW$T$39)
    2101                      .dwattr $C$DW$T$40, DW_AT_address_class(0x10)
TMS320C55x Assembler PC v4.4.1 Sat Sep 29 23:08:48 2018

Tools Copyright (c) 1996-2012 Texas Instruments Incorporated
csl_sar_DmaExample.asm                                               PAGE   54

    2102              $C$DW$T$41      .dwtag  DW_TAG_typedef, DW_AT_name("CSL_DmaRegsOvly")
    2103                      .dwattr $C$DW$T$41, DW_AT_type(*$C$DW$T$40)
    2104                      .dwattr $C$DW$T$41, DW_AT_language(DW_LANG_C)
    2105              
    2106              $C$DW$T$55      .dwtag  DW_TAG_structure_type
    2107                      .dwattr $C$DW$T$55, DW_AT_byte_size(0x09)
    2108              $C$DW$259       .dwtag  DW_TAG_member
    2109                      .dwattr $C$DW$259, DW_AT_type(*$C$DW$T$41)
    2110                      .dwattr $C$DW$259, DW_AT_name("dmaRegs")
    2111                      .dwattr $C$DW$259, DW_AT_TI_symbol_name("_dmaRegs")
    2112                      .dwattr $C$DW$259, DW_AT_data_member_location[DW_OP_plus_uconst 0x0]
    2113                      .dwattr $C$DW$259, DW_AT_accessibility(DW_ACCESS_public)
    2114              $C$DW$260       .dwtag  DW_TAG_member
    2115                      .dwattr $C$DW$260, DW_AT_type(*$C$DW$T$43)
    2116                      .dwattr $C$DW$260, DW_AT_name("chanNum")
    2117                      .dwattr $C$DW$260, DW_AT_TI_symbol_name("_chanNum")
    2118                      .dwattr $C$DW$260, DW_AT_data_member_location[DW_OP_plus_uconst 0x1]
    2119                      .dwattr $C$DW$260, DW_AT_accessibility(DW_ACCESS_public)
    2120              $C$DW$261       .dwtag  DW_TAG_member
    2121                      .dwattr $C$DW$261, DW_AT_type(*$C$DW$T$45)
    2122                      .dwattr $C$DW$261, DW_AT_name("dmaInstNum")
    2123                      .dwattr $C$DW$261, DW_AT_TI_symbol_name("_dmaInstNum")
    2124                      .dwattr $C$DW$261, DW_AT_data_member_location[DW_OP_plus_uconst 0x2]
    2125                      .dwattr $C$DW$261, DW_AT_accessibility(DW_ACCESS_public)
    2126              $C$DW$262       .dwtag  DW_TAG_member
    2127                      .dwattr $C$DW$262, DW_AT_type(*$C$DW$T$46)
    2128                      .dwattr $C$DW$262, DW_AT_name("isChanFree")
    2129                      .dwattr $C$DW$262, DW_AT_TI_symbol_name("_isChanFree")
    2130                      .dwattr $C$DW$262, DW_AT_data_member_location[DW_OP_plus_uconst 0x3]
    2131                      .dwattr $C$DW$262, DW_AT_accessibility(DW_ACCESS_public)
    2132              $C$DW$263       .dwtag  DW_TAG_member
    2133                      .dwattr $C$DW$263, DW_AT_type(*$C$DW$T$48)
    2134                      .dwattr $C$DW$263, DW_AT_name("chanDir")
    2135                      .dwattr $C$DW$263, DW_AT_TI_symbol_name("_chanDir")
    2136                      .dwattr $C$DW$263, DW_AT_data_member_location[DW_OP_plus_uconst 0x4]
    2137                      .dwattr $C$DW$263, DW_AT_accessibility(DW_ACCESS_public)
    2138              $C$DW$264       .dwtag  DW_TAG_member
    2139                      .dwattr $C$DW$264, DW_AT_type(*$C$DW$T$50)
    2140                      .dwattr $C$DW$264, DW_AT_name("trigger")
    2141                      .dwattr $C$DW$264, DW_AT_TI_symbol_name("_trigger")
    2142                      .dwattr $C$DW$264, DW_AT_data_member_location[DW_OP_plus_uconst 0x5]
    2143                      .dwattr $C$DW$264, DW_AT_accessibility(DW_ACCESS_public)
    2144              $C$DW$265       .dwtag  DW_TAG_member
    2145                      .dwattr $C$DW$265, DW_AT_type(*$C$DW$T$52)
    2146                      .dwattr $C$DW$265, DW_AT_name("trfType")
    2147                      .dwattr $C$DW$265, DW_AT_TI_symbol_name("_trfType")
    2148                      .dwattr $C$DW$265, DW_AT_data_member_location[DW_OP_plus_uconst 0x6]
    2149                      .dwattr $C$DW$265, DW_AT_accessibility(DW_ACCESS_public)
    2150              $C$DW$266       .dwtag  DW_TAG_member
    2151                      .dwattr $C$DW$266, DW_AT_type(*$C$DW$T$54)
    2152                      .dwattr $C$DW$266, DW_AT_name("dmaInt")
    2153                      .dwattr $C$DW$266, DW_AT_TI_symbol_name("_dmaInt")
    2154                      .dwattr $C$DW$266, DW_AT_data_member_location[DW_OP_plus_uconst 0x7]
    2155                      .dwattr $C$DW$266, DW_AT_accessibility(DW_ACCESS_public)
    2156              $C$DW$267       .dwtag  DW_TAG_member
TMS320C55x Assembler PC v4.4.1 Sat Sep 29 23:08:48 2018

Tools Copyright (c) 1996-2012 Texas Instruments Incorporated
csl_sar_DmaExample.asm                                               PAGE   55

    2157                      .dwattr $C$DW$267, DW_AT_type(*$C$DW$T$46)
    2158                      .dwattr $C$DW$267, DW_AT_name("pingPongEnabled")
    2159                      .dwattr $C$DW$267, DW_AT_TI_symbol_name("_pingPongEnabled")
    2160                      .dwattr $C$DW$267, DW_AT_data_member_location[DW_OP_plus_uconst 0x8]
    2161                      .dwattr $C$DW$267, DW_AT_accessibility(DW_ACCESS_public)
    2162                      .dwendtag $C$DW$T$55
    2163              
    2164              $C$DW$T$82      .dwtag  DW_TAG_typedef, DW_AT_name("CSL_DMA_ChannelObj")
    2165                      .dwattr $C$DW$T$82, DW_AT_type(*$C$DW$T$55)
    2166                      .dwattr $C$DW$T$82, DW_AT_language(DW_LANG_C)
    2167              $C$DW$T$83      .dwtag  DW_TAG_pointer_type
    2168                      .dwattr $C$DW$T$83, DW_AT_type(*$C$DW$T$82)
    2169                      .dwattr $C$DW$T$83, DW_AT_address_class(0x17)
    2170              $C$DW$T$84      .dwtag  DW_TAG_typedef, DW_AT_name("CSL_DMA_Handle")
    2171                      .dwattr $C$DW$T$84, DW_AT_type(*$C$DW$T$83)
    2172                      .dwattr $C$DW$T$84, DW_AT_language(DW_LANG_C)
    2173              
    2174              $C$DW$T$65      .dwtag  DW_TAG_structure_type
    2175                      .dwattr $C$DW$T$65, DW_AT_byte_size(0x0e)
    2176              $C$DW$268       .dwtag  DW_TAG_member
    2177                      .dwattr $C$DW$268, DW_AT_type(*$C$DW$T$57)
    2178                      .dwattr $C$DW$268, DW_AT_name("pingPongMode")
    2179                      .dwattr $C$DW$268, DW_AT_TI_symbol_name("_pingPongMode")
    2180                      .dwattr $C$DW$268, DW_AT_data_member_location[DW_OP_plus_uconst 0x0]
    2181                      .dwattr $C$DW$268, DW_AT_accessibility(DW_ACCESS_public)
    2182              $C$DW$269       .dwtag  DW_TAG_member
    2183                      .dwattr $C$DW$269, DW_AT_type(*$C$DW$T$59)
    2184                      .dwattr $C$DW$269, DW_AT_name("autoMode")
    2185                      .dwattr $C$DW$269, DW_AT_TI_symbol_name("_autoMode")
    2186                      .dwattr $C$DW$269, DW_AT_data_member_location[DW_OP_plus_uconst 0x1]
    2187                      .dwattr $C$DW$269, DW_AT_accessibility(DW_ACCESS_public)
    2188              $C$DW$270       .dwtag  DW_TAG_member
    2189                      .dwattr $C$DW$270, DW_AT_type(*$C$DW$T$61)
    2190                      .dwattr $C$DW$270, DW_AT_name("burstLen")
    2191                      .dwattr $C$DW$270, DW_AT_TI_symbol_name("_burstLen")
    2192                      .dwattr $C$DW$270, DW_AT_data_member_location[DW_OP_plus_uconst 0x2]
    2193                      .dwattr $C$DW$270, DW_AT_accessibility(DW_ACCESS_public)
    2194              $C$DW$271       .dwtag  DW_TAG_member
    2195                      .dwattr $C$DW$271, DW_AT_type(*$C$DW$T$50)
    2196                      .dwattr $C$DW$271, DW_AT_name("trigger")
    2197                      .dwattr $C$DW$271, DW_AT_TI_symbol_name("_trigger")
    2198                      .dwattr $C$DW$271, DW_AT_data_member_location[DW_OP_plus_uconst 0x3]
    2199                      .dwattr $C$DW$271, DW_AT_accessibility(DW_ACCESS_public)
    2200              $C$DW$272       .dwtag  DW_TAG_member
    2201                      .dwattr $C$DW$272, DW_AT_type(*$C$DW$T$63)
    2202                      .dwattr $C$DW$272, DW_AT_name("dmaEvt")
    2203                      .dwattr $C$DW$272, DW_AT_TI_symbol_name("_dmaEvt")
    2204                      .dwattr $C$DW$272, DW_AT_data_member_location[DW_OP_plus_uconst 0x4]
    2205                      .dwattr $C$DW$272, DW_AT_accessibility(DW_ACCESS_public)
    2206              $C$DW$273       .dwtag  DW_TAG_member
    2207                      .dwattr $C$DW$273, DW_AT_type(*$C$DW$T$54)
    2208                      .dwattr $C$DW$273, DW_AT_name("dmaInt")
    2209                      .dwattr $C$DW$273, DW_AT_TI_symbol_name("_dmaInt")
    2210                      .dwattr $C$DW$273, DW_AT_data_member_location[DW_OP_plus_uconst 0x5]
    2211                      .dwattr $C$DW$273, DW_AT_accessibility(DW_ACCESS_public)
TMS320C55x Assembler PC v4.4.1 Sat Sep 29 23:08:48 2018

Tools Copyright (c) 1996-2012 Texas Instruments Incorporated
csl_sar_DmaExample.asm                                               PAGE   56

    2212              $C$DW$274       .dwtag  DW_TAG_member
    2213                      .dwattr $C$DW$274, DW_AT_type(*$C$DW$T$48)
    2214                      .dwattr $C$DW$274, DW_AT_name("chanDir")
    2215                      .dwattr $C$DW$274, DW_AT_TI_symbol_name("_chanDir")
    2216                      .dwattr $C$DW$274, DW_AT_data_member_location[DW_OP_plus_uconst 0x6]
    2217                      .dwattr $C$DW$274, DW_AT_accessibility(DW_ACCESS_public)
    2218              $C$DW$275       .dwtag  DW_TAG_member
    2219                      .dwattr $C$DW$275, DW_AT_type(*$C$DW$T$52)
    2220                      .dwattr $C$DW$275, DW_AT_name("trfType")
    2221                      .dwattr $C$DW$275, DW_AT_TI_symbol_name("_trfType")
    2222                      .dwattr $C$DW$275, DW_AT_data_member_location[DW_OP_plus_uconst 0x7]
    2223                      .dwattr $C$DW$275, DW_AT_accessibility(DW_ACCESS_public)
    2224              $C$DW$276       .dwtag  DW_TAG_member
    2225                      .dwattr $C$DW$276, DW_AT_type(*$C$DW$T$19)
    2226                      .dwattr $C$DW$276, DW_AT_name("dataLen")
    2227                      .dwattr $C$DW$276, DW_AT_TI_symbol_name("_dataLen")
    2228                      .dwattr $C$DW$276, DW_AT_data_member_location[DW_OP_plus_uconst 0x8]
    2229                      .dwattr $C$DW$276, DW_AT_accessibility(DW_ACCESS_public)
    2230              $C$DW$277       .dwtag  DW_TAG_member
    2231                      .dwattr $C$DW$277, DW_AT_type(*$C$DW$T$64)
    2232                      .dwattr $C$DW$277, DW_AT_name("srcAddr")
    2233                      .dwattr $C$DW$277, DW_AT_TI_symbol_name("_srcAddr")
    2234                      .dwattr $C$DW$277, DW_AT_data_member_location[DW_OP_plus_uconst 0xa]
    2235                      .dwattr $C$DW$277, DW_AT_accessibility(DW_ACCESS_public)
    2236              $C$DW$278       .dwtag  DW_TAG_member
    2237                      .dwattr $C$DW$278, DW_AT_type(*$C$DW$T$64)
    2238                      .dwattr $C$DW$278, DW_AT_name("destAddr")
    2239                      .dwattr $C$DW$278, DW_AT_TI_symbol_name("_destAddr")
    2240                      .dwattr $C$DW$278, DW_AT_data_member_location[DW_OP_plus_uconst 0xc]
    2241                      .dwattr $C$DW$278, DW_AT_accessibility(DW_ACCESS_public)
    2242                      .dwendtag $C$DW$T$65
    2243              
    2244              $C$DW$T$90      .dwtag  DW_TAG_typedef, DW_AT_name("CSL_DMA_Config")
    2245                      .dwattr $C$DW$T$90, DW_AT_type(*$C$DW$T$65)
    2246                      .dwattr $C$DW$T$90, DW_AT_language(DW_LANG_C)
    2247              $C$DW$T$91      .dwtag  DW_TAG_pointer_type
    2248                      .dwattr $C$DW$T$91, DW_AT_type(*$C$DW$T$90)
    2249                      .dwattr $C$DW$T$91, DW_AT_address_class(0x17)
    2250              
    2251              $C$DW$T$69      .dwtag  DW_TAG_structure_type
    2252                      .dwattr $C$DW$T$69, DW_AT_byte_size(0x48)
    2253              $C$DW$279       .dwtag  DW_TAG_member
    2254                      .dwattr $C$DW$279, DW_AT_type(*$C$DW$T$20)
    2255                      .dwattr $C$DW$279, DW_AT_name("EBSR")
    2256                      .dwattr $C$DW$279, DW_AT_TI_symbol_name("_EBSR")
    2257                      .dwattr $C$DW$279, DW_AT_data_member_location[DW_OP_plus_uconst 0x0]
    2258                      .dwattr $C$DW$279, DW_AT_accessibility(DW_ACCESS_public)
    2259              $C$DW$280       .dwtag  DW_TAG_member
    2260                      .dwattr $C$DW$280, DW_AT_type(*$C$DW$T$20)
    2261                      .dwattr $C$DW$280, DW_AT_name("RSVD0")
    2262                      .dwattr $C$DW$280, DW_AT_TI_symbol_name("_RSVD0")
    2263                      .dwattr $C$DW$280, DW_AT_data_member_location[DW_OP_plus_uconst 0x1]
    2264                      .dwattr $C$DW$280, DW_AT_accessibility(DW_ACCESS_public)
    2265              $C$DW$281       .dwtag  DW_TAG_member
    2266                      .dwattr $C$DW$281, DW_AT_type(*$C$DW$T$20)
TMS320C55x Assembler PC v4.4.1 Sat Sep 29 23:08:48 2018

Tools Copyright (c) 1996-2012 Texas Instruments Incorporated
csl_sar_DmaExample.asm                                               PAGE   57

    2267                      .dwattr $C$DW$281, DW_AT_name("PCGCR1")
    2268                      .dwattr $C$DW$281, DW_AT_TI_symbol_name("_PCGCR1")
    2269                      .dwattr $C$DW$281, DW_AT_data_member_location[DW_OP_plus_uconst 0x2]
    2270                      .dwattr $C$DW$281, DW_AT_accessibility(DW_ACCESS_public)
    2271              $C$DW$282       .dwtag  DW_TAG_member
    2272                      .dwattr $C$DW$282, DW_AT_type(*$C$DW$T$20)
    2273                      .dwattr $C$DW$282, DW_AT_name("PCGCR2")
    2274                      .dwattr $C$DW$282, DW_AT_TI_symbol_name("_PCGCR2")
    2275                      .dwattr $C$DW$282, DW_AT_data_member_location[DW_OP_plus_uconst 0x3]
    2276                      .dwattr $C$DW$282, DW_AT_accessibility(DW_ACCESS_public)
    2277              $C$DW$283       .dwtag  DW_TAG_member
    2278                      .dwattr $C$DW$283, DW_AT_type(*$C$DW$T$20)
    2279                      .dwattr $C$DW$283, DW_AT_name("PSRCR")
    2280                      .dwattr $C$DW$283, DW_AT_TI_symbol_name("_PSRCR")
    2281                      .dwattr $C$DW$283, DW_AT_data_member_location[DW_OP_plus_uconst 0x4]
    2282                      .dwattr $C$DW$283, DW_AT_accessibility(DW_ACCESS_public)
    2283              $C$DW$284       .dwtag  DW_TAG_member
    2284                      .dwattr $C$DW$284, DW_AT_type(*$C$DW$T$20)
    2285                      .dwattr $C$DW$284, DW_AT_name("PRCR")
    2286                      .dwattr $C$DW$284, DW_AT_TI_symbol_name("_PRCR")
    2287                      .dwattr $C$DW$284, DW_AT_data_member_location[DW_OP_plus_uconst 0x5]
    2288                      .dwattr $C$DW$284, DW_AT_accessibility(DW_ACCESS_public)
    2289              $C$DW$285       .dwtag  DW_TAG_member
    2290                      .dwattr $C$DW$285, DW_AT_type(*$C$DW$T$66)
    2291                      .dwattr $C$DW$285, DW_AT_name("RSVD1")
    2292                      .dwattr $C$DW$285, DW_AT_TI_symbol_name("_RSVD1")
    2293                      .dwattr $C$DW$285, DW_AT_data_member_location[DW_OP_plus_uconst 0x6]
    2294                      .dwattr $C$DW$285, DW_AT_accessibility(DW_ACCESS_public)
    2295              $C$DW$286       .dwtag  DW_TAG_member
    2296                      .dwattr $C$DW$286, DW_AT_type(*$C$DW$T$20)
    2297                      .dwattr $C$DW$286, DW_AT_name("TIAFR")
    2298                      .dwattr $C$DW$286, DW_AT_TI_symbol_name("_TIAFR")
    2299                      .dwattr $C$DW$286, DW_AT_data_member_location[DW_OP_plus_uconst 0x14]
    2300                      .dwattr $C$DW$286, DW_AT_accessibility(DW_ACCESS_public)
    2301              $C$DW$287       .dwtag  DW_TAG_member
    2302                      .dwattr $C$DW$287, DW_AT_type(*$C$DW$T$20)
    2303                      .dwattr $C$DW$287, DW_AT_name("RSVD2")
    2304                      .dwattr $C$DW$287, DW_AT_TI_symbol_name("_RSVD2")
    2305                      .dwattr $C$DW$287, DW_AT_data_member_location[DW_OP_plus_uconst 0x15]
    2306                      .dwattr $C$DW$287, DW_AT_accessibility(DW_ACCESS_public)
    2307              $C$DW$288       .dwtag  DW_TAG_member
    2308                      .dwattr $C$DW$288, DW_AT_type(*$C$DW$T$20)
    2309                      .dwattr $C$DW$288, DW_AT_name("ODSCR")
    2310                      .dwattr $C$DW$288, DW_AT_TI_symbol_name("_ODSCR")
    2311                      .dwattr $C$DW$288, DW_AT_data_member_location[DW_OP_plus_uconst 0x16]
    2312                      .dwattr $C$DW$288, DW_AT_accessibility(DW_ACCESS_public)
    2313              $C$DW$289       .dwtag  DW_TAG_member
    2314                      .dwattr $C$DW$289, DW_AT_type(*$C$DW$T$20)
    2315                      .dwattr $C$DW$289, DW_AT_name("PDINHIBR1")
    2316                      .dwattr $C$DW$289, DW_AT_TI_symbol_name("_PDINHIBR1")
    2317                      .dwattr $C$DW$289, DW_AT_data_member_location[DW_OP_plus_uconst 0x17]
    2318                      .dwattr $C$DW$289, DW_AT_accessibility(DW_ACCESS_public)
    2319              $C$DW$290       .dwtag  DW_TAG_member
    2320                      .dwattr $C$DW$290, DW_AT_type(*$C$DW$T$20)
    2321                      .dwattr $C$DW$290, DW_AT_name("PDINHIBR2")
TMS320C55x Assembler PC v4.4.1 Sat Sep 29 23:08:48 2018

Tools Copyright (c) 1996-2012 Texas Instruments Incorporated
csl_sar_DmaExample.asm                                               PAGE   58

    2322                      .dwattr $C$DW$290, DW_AT_TI_symbol_name("_PDINHIBR2")
    2323                      .dwattr $C$DW$290, DW_AT_data_member_location[DW_OP_plus_uconst 0x18]
    2324                      .dwattr $C$DW$290, DW_AT_accessibility(DW_ACCESS_public)
    2325              $C$DW$291       .dwtag  DW_TAG_member
    2326                      .dwattr $C$DW$291, DW_AT_type(*$C$DW$T$20)
    2327                      .dwattr $C$DW$291, DW_AT_name("PDINHIBR3")
    2328                      .dwattr $C$DW$291, DW_AT_TI_symbol_name("_PDINHIBR3")
    2329                      .dwattr $C$DW$291, DW_AT_data_member_location[DW_OP_plus_uconst 0x19]
    2330                      .dwattr $C$DW$291, DW_AT_accessibility(DW_ACCESS_public)
    2331              $C$DW$292       .dwtag  DW_TAG_member
    2332                      .dwattr $C$DW$292, DW_AT_type(*$C$DW$T$20)
    2333                      .dwattr $C$DW$292, DW_AT_name("DMA0CESR1")
    2334                      .dwattr $C$DW$292, DW_AT_TI_symbol_name("_DMA0CESR1")
    2335                      .dwattr $C$DW$292, DW_AT_data_member_location[DW_OP_plus_uconst 0x1a]
    2336                      .dwattr $C$DW$292, DW_AT_accessibility(DW_ACCESS_public)
    2337              $C$DW$293       .dwtag  DW_TAG_member
    2338                      .dwattr $C$DW$293, DW_AT_type(*$C$DW$T$20)
    2339                      .dwattr $C$DW$293, DW_AT_name("DMA0CESR2")
    2340                      .dwattr $C$DW$293, DW_AT_TI_symbol_name("_DMA0CESR2")
    2341                      .dwattr $C$DW$293, DW_AT_data_member_location[DW_OP_plus_uconst 0x1b]
    2342                      .dwattr $C$DW$293, DW_AT_accessibility(DW_ACCESS_public)
    2343              $C$DW$294       .dwtag  DW_TAG_member
    2344                      .dwattr $C$DW$294, DW_AT_type(*$C$DW$T$20)
    2345                      .dwattr $C$DW$294, DW_AT_name("DMA1CESR1")
    2346                      .dwattr $C$DW$294, DW_AT_TI_symbol_name("_DMA1CESR1")
    2347                      .dwattr $C$DW$294, DW_AT_data_member_location[DW_OP_plus_uconst 0x1c]
    2348                      .dwattr $C$DW$294, DW_AT_accessibility(DW_ACCESS_public)
    2349              $C$DW$295       .dwtag  DW_TAG_member
    2350                      .dwattr $C$DW$295, DW_AT_type(*$C$DW$T$20)
    2351                      .dwattr $C$DW$295, DW_AT_name("DMA1CESR2")
    2352                      .dwattr $C$DW$295, DW_AT_TI_symbol_name("_DMA1CESR2")
    2353                      .dwattr $C$DW$295, DW_AT_data_member_location[DW_OP_plus_uconst 0x1d]
    2354                      .dwattr $C$DW$295, DW_AT_accessibility(DW_ACCESS_public)
    2355              $C$DW$296       .dwtag  DW_TAG_member
    2356                      .dwattr $C$DW$296, DW_AT_type(*$C$DW$T$20)
    2357                      .dwattr $C$DW$296, DW_AT_name("SDRAMCCR")
    2358                      .dwattr $C$DW$296, DW_AT_TI_symbol_name("_SDRAMCCR")
    2359                      .dwattr $C$DW$296, DW_AT_data_member_location[DW_OP_plus_uconst 0x1e]
    2360                      .dwattr $C$DW$296, DW_AT_accessibility(DW_ACCESS_public)
    2361              $C$DW$297       .dwtag  DW_TAG_member
    2362                      .dwattr $C$DW$297, DW_AT_type(*$C$DW$T$20)
    2363                      .dwattr $C$DW$297, DW_AT_name("CCR2")
    2364                      .dwattr $C$DW$297, DW_AT_TI_symbol_name("_CCR2")
    2365                      .dwattr $C$DW$297, DW_AT_data_member_location[DW_OP_plus_uconst 0x1f]
    2366                      .dwattr $C$DW$297, DW_AT_accessibility(DW_ACCESS_public)
    2367              $C$DW$298       .dwtag  DW_TAG_member
    2368                      .dwattr $C$DW$298, DW_AT_type(*$C$DW$T$20)
    2369                      .dwattr $C$DW$298, DW_AT_name("CGCR1")
    2370                      .dwattr $C$DW$298, DW_AT_TI_symbol_name("_CGCR1")
    2371                      .dwattr $C$DW$298, DW_AT_data_member_location[DW_OP_plus_uconst 0x20]
    2372                      .dwattr $C$DW$298, DW_AT_accessibility(DW_ACCESS_public)
    2373              $C$DW$299       .dwtag  DW_TAG_member
    2374                      .dwattr $C$DW$299, DW_AT_type(*$C$DW$T$20)
    2375                      .dwattr $C$DW$299, DW_AT_name("CGICR")
    2376                      .dwattr $C$DW$299, DW_AT_TI_symbol_name("_CGICR")
TMS320C55x Assembler PC v4.4.1 Sat Sep 29 23:08:48 2018

Tools Copyright (c) 1996-2012 Texas Instruments Incorporated
csl_sar_DmaExample.asm                                               PAGE   59

    2377                      .dwattr $C$DW$299, DW_AT_data_member_location[DW_OP_plus_uconst 0x21]
    2378                      .dwattr $C$DW$299, DW_AT_accessibility(DW_ACCESS_public)
    2379              $C$DW$300       .dwtag  DW_TAG_member
    2380                      .dwattr $C$DW$300, DW_AT_type(*$C$DW$T$20)
    2381                      .dwattr $C$DW$300, DW_AT_name("CGCR2")
    2382                      .dwattr $C$DW$300, DW_AT_TI_symbol_name("_CGCR2")
    2383                      .dwattr $C$DW$300, DW_AT_data_member_location[DW_OP_plus_uconst 0x22]
    2384                      .dwattr $C$DW$300, DW_AT_accessibility(DW_ACCESS_public)
    2385              $C$DW$301       .dwtag  DW_TAG_member
    2386                      .dwattr $C$DW$301, DW_AT_type(*$C$DW$T$20)
    2387                      .dwattr $C$DW$301, DW_AT_name("CGOCR")
    2388                      .dwattr $C$DW$301, DW_AT_TI_symbol_name("_CGOCR")
    2389                      .dwattr $C$DW$301, DW_AT_data_member_location[DW_OP_plus_uconst 0x23]
    2390                      .dwattr $C$DW$301, DW_AT_accessibility(DW_ACCESS_public)
    2391              $C$DW$302       .dwtag  DW_TAG_member
    2392                      .dwattr $C$DW$302, DW_AT_type(*$C$DW$T$20)
    2393                      .dwattr $C$DW$302, DW_AT_name("CCSSR")
    2394                      .dwattr $C$DW$302, DW_AT_TI_symbol_name("_CCSSR")
    2395                      .dwattr $C$DW$302, DW_AT_data_member_location[DW_OP_plus_uconst 0x24]
    2396                      .dwattr $C$DW$302, DW_AT_accessibility(DW_ACCESS_public)
    2397              $C$DW$303       .dwtag  DW_TAG_member
    2398                      .dwattr $C$DW$303, DW_AT_type(*$C$DW$T$20)
    2399                      .dwattr $C$DW$303, DW_AT_name("RSVD3")
    2400                      .dwattr $C$DW$303, DW_AT_TI_symbol_name("_RSVD3")
    2401                      .dwattr $C$DW$303, DW_AT_data_member_location[DW_OP_plus_uconst 0x25]
    2402                      .dwattr $C$DW$303, DW_AT_accessibility(DW_ACCESS_public)
    2403              $C$DW$304       .dwtag  DW_TAG_member
    2404                      .dwattr $C$DW$304, DW_AT_type(*$C$DW$T$20)
    2405                      .dwattr $C$DW$304, DW_AT_name("ECDR")
    2406                      .dwattr $C$DW$304, DW_AT_TI_symbol_name("_ECDR")
    2407                      .dwattr $C$DW$304, DW_AT_data_member_location[DW_OP_plus_uconst 0x26]
    2408                      .dwattr $C$DW$304, DW_AT_accessibility(DW_ACCESS_public)
    2409              $C$DW$305       .dwtag  DW_TAG_member
    2410                      .dwattr $C$DW$305, DW_AT_type(*$C$DW$T$20)
    2411                      .dwattr $C$DW$305, DW_AT_name("RSVD4")
    2412                      .dwattr $C$DW$305, DW_AT_TI_symbol_name("_RSVD4")
    2413                      .dwattr $C$DW$305, DW_AT_data_member_location[DW_OP_plus_uconst 0x27]
    2414                      .dwattr $C$DW$305, DW_AT_accessibility(DW_ACCESS_public)
    2415              $C$DW$306       .dwtag  DW_TAG_member
    2416                      .dwattr $C$DW$306, DW_AT_type(*$C$DW$T$20)
    2417                      .dwattr $C$DW$306, DW_AT_name("RAMSLPMDCNTLR1")
    2418                      .dwattr $C$DW$306, DW_AT_TI_symbol_name("_RAMSLPMDCNTLR1")
    2419                      .dwattr $C$DW$306, DW_AT_data_member_location[DW_OP_plus_uconst 0x28]
    2420                      .dwattr $C$DW$306, DW_AT_accessibility(DW_ACCESS_public)
    2421              $C$DW$307       .dwtag  DW_TAG_member
    2422                      .dwattr $C$DW$307, DW_AT_type(*$C$DW$T$20)
    2423                      .dwattr $C$DW$307, DW_AT_name("RSVD5")
    2424                      .dwattr $C$DW$307, DW_AT_TI_symbol_name("_RSVD5")
    2425                      .dwattr $C$DW$307, DW_AT_data_member_location[DW_OP_plus_uconst 0x29]
    2426                      .dwattr $C$DW$307, DW_AT_accessibility(DW_ACCESS_public)
    2427              $C$DW$308       .dwtag  DW_TAG_member
    2428                      .dwattr $C$DW$308, DW_AT_type(*$C$DW$T$20)
    2429                      .dwattr $C$DW$308, DW_AT_name("RAMSLPMDCNTLR2")
    2430                      .dwattr $C$DW$308, DW_AT_TI_symbol_name("_RAMSLPMDCNTLR2")
    2431                      .dwattr $C$DW$308, DW_AT_data_member_location[DW_OP_plus_uconst 0x2a]
TMS320C55x Assembler PC v4.4.1 Sat Sep 29 23:08:48 2018

Tools Copyright (c) 1996-2012 Texas Instruments Incorporated
csl_sar_DmaExample.asm                                               PAGE   60

    2432                      .dwattr $C$DW$308, DW_AT_accessibility(DW_ACCESS_public)
    2433              $C$DW$309       .dwtag  DW_TAG_member
    2434                      .dwattr $C$DW$309, DW_AT_type(*$C$DW$T$20)
    2435                      .dwattr $C$DW$309, DW_AT_name("RAMSLPMDCNTLR3")
    2436                      .dwattr $C$DW$309, DW_AT_TI_symbol_name("_RAMSLPMDCNTLR3")
    2437                      .dwattr $C$DW$309, DW_AT_data_member_location[DW_OP_plus_uconst 0x2b]
    2438                      .dwattr $C$DW$309, DW_AT_accessibility(DW_ACCESS_public)
    2439              $C$DW$310       .dwtag  DW_TAG_member
    2440                      .dwattr $C$DW$310, DW_AT_type(*$C$DW$T$20)
    2441                      .dwattr $C$DW$310, DW_AT_name("RAMSLPMDCNTLR4")
    2442                      .dwattr $C$DW$310, DW_AT_TI_symbol_name("_RAMSLPMDCNTLR4")
    2443                      .dwattr $C$DW$310, DW_AT_data_member_location[DW_OP_plus_uconst 0x2c]
    2444                      .dwattr $C$DW$310, DW_AT_accessibility(DW_ACCESS_public)
    2445              $C$DW$311       .dwtag  DW_TAG_member
    2446                      .dwattr $C$DW$311, DW_AT_type(*$C$DW$T$20)
    2447                      .dwattr $C$DW$311, DW_AT_name("RAMSLPMDCNTLR5")
    2448                      .dwattr $C$DW$311, DW_AT_TI_symbol_name("_RAMSLPMDCNTLR5")
    2449                      .dwattr $C$DW$311, DW_AT_data_member_location[DW_OP_plus_uconst 0x2d]
    2450                      .dwattr $C$DW$311, DW_AT_accessibility(DW_ACCESS_public)
    2451              $C$DW$312       .dwtag  DW_TAG_member
    2452                      .dwattr $C$DW$312, DW_AT_type(*$C$DW$T$67)
    2453                      .dwattr $C$DW$312, DW_AT_name("RSVD6")
    2454                      .dwattr $C$DW$312, DW_AT_TI_symbol_name("_RSVD6")
    2455                      .dwattr $C$DW$312, DW_AT_data_member_location[DW_OP_plus_uconst 0x2e]
    2456                      .dwattr $C$DW$312, DW_AT_accessibility(DW_ACCESS_public)
    2457              $C$DW$313       .dwtag  DW_TAG_member
    2458                      .dwattr $C$DW$313, DW_AT_type(*$C$DW$T$20)
    2459                      .dwattr $C$DW$313, DW_AT_name("DMAIFR")
    2460                      .dwattr $C$DW$313, DW_AT_TI_symbol_name("_DMAIFR")
    2461                      .dwattr $C$DW$313, DW_AT_data_member_location[DW_OP_plus_uconst 0x30]
    2462                      .dwattr $C$DW$313, DW_AT_accessibility(DW_ACCESS_public)
    2463              $C$DW$314       .dwtag  DW_TAG_member
    2464                      .dwattr $C$DW$314, DW_AT_type(*$C$DW$T$20)
    2465                      .dwattr $C$DW$314, DW_AT_name("DMAIER")
    2466                      .dwattr $C$DW$314, DW_AT_TI_symbol_name("_DMAIER")
    2467                      .dwattr $C$DW$314, DW_AT_data_member_location[DW_OP_plus_uconst 0x31]
    2468                      .dwattr $C$DW$314, DW_AT_accessibility(DW_ACCESS_public)
    2469              $C$DW$315       .dwtag  DW_TAG_member
    2470                      .dwattr $C$DW$315, DW_AT_type(*$C$DW$T$20)
    2471                      .dwattr $C$DW$315, DW_AT_name("USBSCR")
    2472                      .dwattr $C$DW$315, DW_AT_TI_symbol_name("_USBSCR")
    2473                      .dwattr $C$DW$315, DW_AT_data_member_location[DW_OP_plus_uconst 0x32]
    2474                      .dwattr $C$DW$315, DW_AT_accessibility(DW_ACCESS_public)
    2475              $C$DW$316       .dwtag  DW_TAG_member
    2476                      .dwattr $C$DW$316, DW_AT_type(*$C$DW$T$20)
    2477                      .dwattr $C$DW$316, DW_AT_name("ESCR")
    2478                      .dwattr $C$DW$316, DW_AT_TI_symbol_name("_ESCR")
    2479                      .dwattr $C$DW$316, DW_AT_data_member_location[DW_OP_plus_uconst 0x33]
    2480                      .dwattr $C$DW$316, DW_AT_accessibility(DW_ACCESS_public)
    2481              $C$DW$317       .dwtag  DW_TAG_member
    2482                      .dwattr $C$DW$317, DW_AT_type(*$C$DW$T$67)
    2483                      .dwattr $C$DW$317, DW_AT_name("RSVD7")
    2484                      .dwattr $C$DW$317, DW_AT_TI_symbol_name("_RSVD7")
    2485                      .dwattr $C$DW$317, DW_AT_data_member_location[DW_OP_plus_uconst 0x34]
    2486                      .dwattr $C$DW$317, DW_AT_accessibility(DW_ACCESS_public)
TMS320C55x Assembler PC v4.4.1 Sat Sep 29 23:08:48 2018

Tools Copyright (c) 1996-2012 Texas Instruments Incorporated
csl_sar_DmaExample.asm                                               PAGE   61

    2487              $C$DW$318       .dwtag  DW_TAG_member
    2488                      .dwattr $C$DW$318, DW_AT_type(*$C$DW$T$20)
    2489                      .dwattr $C$DW$318, DW_AT_name("DMA2CESR1")
    2490                      .dwattr $C$DW$318, DW_AT_TI_symbol_name("_DMA2CESR1")
    2491                      .dwattr $C$DW$318, DW_AT_data_member_location[DW_OP_plus_uconst 0x36]
    2492                      .dwattr $C$DW$318, DW_AT_accessibility(DW_ACCESS_public)
    2493              $C$DW$319       .dwtag  DW_TAG_member
    2494                      .dwattr $C$DW$319, DW_AT_type(*$C$DW$T$20)
    2495                      .dwattr $C$DW$319, DW_AT_name("DMA2CESR2")
    2496                      .dwattr $C$DW$319, DW_AT_TI_symbol_name("_DMA2CESR2")
    2497                      .dwattr $C$DW$319, DW_AT_data_member_location[DW_OP_plus_uconst 0x37]
    2498                      .dwattr $C$DW$319, DW_AT_accessibility(DW_ACCESS_public)
    2499              $C$DW$320       .dwtag  DW_TAG_member
    2500                      .dwattr $C$DW$320, DW_AT_type(*$C$DW$T$20)
    2501                      .dwattr $C$DW$320, DW_AT_name("DMA3CESR1")
    2502                      .dwattr $C$DW$320, DW_AT_TI_symbol_name("_DMA3CESR1")
    2503                      .dwattr $C$DW$320, DW_AT_data_member_location[DW_OP_plus_uconst 0x38]
    2504                      .dwattr $C$DW$320, DW_AT_accessibility(DW_ACCESS_public)
    2505              $C$DW$321       .dwtag  DW_TAG_member
    2506                      .dwattr $C$DW$321, DW_AT_type(*$C$DW$T$20)
    2507                      .dwattr $C$DW$321, DW_AT_name("DMA3CESR2")
    2508                      .dwattr $C$DW$321, DW_AT_TI_symbol_name("_DMA3CESR2")
    2509                      .dwattr $C$DW$321, DW_AT_data_member_location[DW_OP_plus_uconst 0x39]
    2510                      .dwattr $C$DW$321, DW_AT_accessibility(DW_ACCESS_public)
    2511              $C$DW$322       .dwtag  DW_TAG_member
    2512                      .dwattr $C$DW$322, DW_AT_type(*$C$DW$T$20)
    2513                      .dwattr $C$DW$322, DW_AT_name("CLKSTOP")
    2514                      .dwattr $C$DW$322, DW_AT_TI_symbol_name("_CLKSTOP")
    2515                      .dwattr $C$DW$322, DW_AT_data_member_location[DW_OP_plus_uconst 0x3a]
    2516                      .dwattr $C$DW$322, DW_AT_accessibility(DW_ACCESS_public)
    2517              $C$DW$323       .dwtag  DW_TAG_member
    2518                      .dwattr $C$DW$323, DW_AT_type(*$C$DW$T$68)
    2519                      .dwattr $C$DW$323, DW_AT_name("RSVD8")
    2520                      .dwattr $C$DW$323, DW_AT_TI_symbol_name("_RSVD8")
    2521                      .dwattr $C$DW$323, DW_AT_data_member_location[DW_OP_plus_uconst 0x3b]
    2522                      .dwattr $C$DW$323, DW_AT_accessibility(DW_ACCESS_public)
    2523              $C$DW$324       .dwtag  DW_TAG_member
    2524                      .dwattr $C$DW$324, DW_AT_type(*$C$DW$T$20)
    2525                      .dwattr $C$DW$324, DW_AT_name("DIEIDR0")
    2526                      .dwattr $C$DW$324, DW_AT_TI_symbol_name("_DIEIDR0")
    2527                      .dwattr $C$DW$324, DW_AT_data_member_location[DW_OP_plus_uconst 0x40]
    2528                      .dwattr $C$DW$324, DW_AT_accessibility(DW_ACCESS_public)
    2529              $C$DW$325       .dwtag  DW_TAG_member
    2530                      .dwattr $C$DW$325, DW_AT_type(*$C$DW$T$20)
    2531                      .dwattr $C$DW$325, DW_AT_name("DIEIDR1")
    2532                      .dwattr $C$DW$325, DW_AT_TI_symbol_name("_DIEIDR1")
    2533                      .dwattr $C$DW$325, DW_AT_data_member_location[DW_OP_plus_uconst 0x41]
    2534                      .dwattr $C$DW$325, DW_AT_accessibility(DW_ACCESS_public)
    2535              $C$DW$326       .dwtag  DW_TAG_member
    2536                      .dwattr $C$DW$326, DW_AT_type(*$C$DW$T$20)
    2537                      .dwattr $C$DW$326, DW_AT_name("DIEIDR2")
    2538                      .dwattr $C$DW$326, DW_AT_TI_symbol_name("_DIEIDR2")
    2539                      .dwattr $C$DW$326, DW_AT_data_member_location[DW_OP_plus_uconst 0x42]
    2540                      .dwattr $C$DW$326, DW_AT_accessibility(DW_ACCESS_public)
    2541              $C$DW$327       .dwtag  DW_TAG_member
TMS320C55x Assembler PC v4.4.1 Sat Sep 29 23:08:48 2018

Tools Copyright (c) 1996-2012 Texas Instruments Incorporated
csl_sar_DmaExample.asm                                               PAGE   62

    2542                      .dwattr $C$DW$327, DW_AT_type(*$C$DW$T$20)
    2543                      .dwattr $C$DW$327, DW_AT_name("DIEIDR3")
    2544                      .dwattr $C$DW$327, DW_AT_TI_symbol_name("_DIEIDR3")
    2545                      .dwattr $C$DW$327, DW_AT_data_member_location[DW_OP_plus_uconst 0x43]
    2546                      .dwattr $C$DW$327, DW_AT_accessibility(DW_ACCESS_public)
    2547              $C$DW$328       .dwtag  DW_TAG_member
    2548                      .dwattr $C$DW$328, DW_AT_type(*$C$DW$T$20)
    2549                      .dwattr $C$DW$328, DW_AT_name("DIEIDR4")
    2550                      .dwattr $C$DW$328, DW_AT_TI_symbol_name("_DIEIDR4")
    2551                      .dwattr $C$DW$328, DW_AT_data_member_location[DW_OP_plus_uconst 0x44]
    2552                      .dwattr $C$DW$328, DW_AT_accessibility(DW_ACCESS_public)
    2553              $C$DW$329       .dwtag  DW_TAG_member
    2554                      .dwattr $C$DW$329, DW_AT_type(*$C$DW$T$20)
    2555                      .dwattr $C$DW$329, DW_AT_name("DIEIDR5")
    2556                      .dwattr $C$DW$329, DW_AT_TI_symbol_name("_DIEIDR5")
    2557                      .dwattr $C$DW$329, DW_AT_data_member_location[DW_OP_plus_uconst 0x45]
    2558                      .dwattr $C$DW$329, DW_AT_accessibility(DW_ACCESS_public)
    2559              $C$DW$330       .dwtag  DW_TAG_member
    2560                      .dwattr $C$DW$330, DW_AT_type(*$C$DW$T$20)
    2561                      .dwattr $C$DW$330, DW_AT_name("DIEIDR6")
    2562                      .dwattr $C$DW$330, DW_AT_TI_symbol_name("_DIEIDR6")
    2563                      .dwattr $C$DW$330, DW_AT_data_member_location[DW_OP_plus_uconst 0x46]
    2564                      .dwattr $C$DW$330, DW_AT_accessibility(DW_ACCESS_public)
    2565              $C$DW$331       .dwtag  DW_TAG_member
    2566                      .dwattr $C$DW$331, DW_AT_type(*$C$DW$T$20)
    2567                      .dwattr $C$DW$331, DW_AT_name("DIEIDR7")
    2568                      .dwattr $C$DW$331, DW_AT_TI_symbol_name("_DIEIDR7")
    2569                      .dwattr $C$DW$331, DW_AT_data_member_location[DW_OP_plus_uconst 0x47]
    2570                      .dwattr $C$DW$331, DW_AT_accessibility(DW_ACCESS_public)
    2571                      .dwendtag $C$DW$T$69
    2572              
    2573              $C$DW$T$92      .dwtag  DW_TAG_typedef, DW_AT_name("CSL_SysRegs")
    2574                      .dwattr $C$DW$T$92, DW_AT_type(*$C$DW$T$69)
    2575                      .dwattr $C$DW$T$92, DW_AT_language(DW_LANG_C)
    2576              $C$DW$332       .dwtag  DW_TAG_TI_far_type
    2577                      .dwattr $C$DW$332, DW_AT_type(*$C$DW$T$92)
    2578              $C$DW$333       .dwtag  DW_TAG_TI_ioport_type
    2579                      .dwattr $C$DW$333, DW_AT_type(*$C$DW$332)
    2580              $C$DW$T$93      .dwtag  DW_TAG_volatile_type
    2581                      .dwattr $C$DW$T$93, DW_AT_type(*$C$DW$333)
    2582              $C$DW$T$94      .dwtag  DW_TAG_pointer_type
    2583                      .dwattr $C$DW$T$94, DW_AT_type(*$C$DW$T$93)
    2584                      .dwattr $C$DW$T$94, DW_AT_address_class(0x10)
    2585              $C$DW$T$95      .dwtag  DW_TAG_typedef, DW_AT_name("CSL_SysRegsOvly")
    2586                      .dwattr $C$DW$T$95, DW_AT_type(*$C$DW$T$94)
    2587                      .dwattr $C$DW$T$95, DW_AT_language(DW_LANG_C)
    2588              
    2589              $C$DW$T$96      .dwtag  DW_TAG_subroutine_type
    2590                      .dwattr $C$DW$T$96, DW_AT_language(DW_LANG_C)
    2591              $C$DW$T$97      .dwtag  DW_TAG_pointer_type
    2592                      .dwattr $C$DW$T$97, DW_AT_type(*$C$DW$T$96)
    2593                      .dwattr $C$DW$T$97, DW_AT_address_class(0x20)
    2594              $C$DW$T$98      .dwtag  DW_TAG_typedef, DW_AT_name("IRQ_IsrPtr")
    2595                      .dwattr $C$DW$T$98, DW_AT_type(*$C$DW$T$97)
    2596                      .dwattr $C$DW$T$98, DW_AT_language(DW_LANG_C)
TMS320C55x Assembler PC v4.4.1 Sat Sep 29 23:08:48 2018

Tools Copyright (c) 1996-2012 Texas Instruments Incorporated
csl_sar_DmaExample.asm                                               PAGE   63

    2597              $C$DW$T$4       .dwtag  DW_TAG_base_type
    2598                      .dwattr $C$DW$T$4, DW_AT_encoding(DW_ATE_boolean)
    2599                      .dwattr $C$DW$T$4, DW_AT_name("bool")
    2600                      .dwattr $C$DW$T$4, DW_AT_byte_size(0x01)
    2601              $C$DW$T$5       .dwtag  DW_TAG_base_type
    2602                      .dwattr $C$DW$T$5, DW_AT_encoding(DW_ATE_signed_char)
    2603                      .dwattr $C$DW$T$5, DW_AT_name("signed char")
    2604                      .dwattr $C$DW$T$5, DW_AT_byte_size(0x01)
    2605              $C$DW$T$6       .dwtag  DW_TAG_base_type
    2606                      .dwattr $C$DW$T$6, DW_AT_encoding(DW_ATE_unsigned_char)
    2607                      .dwattr $C$DW$T$6, DW_AT_name("unsigned char")
    2608                      .dwattr $C$DW$T$6, DW_AT_byte_size(0x01)
    2609              $C$DW$T$7       .dwtag  DW_TAG_base_type
    2610                      .dwattr $C$DW$T$7, DW_AT_encoding(DW_ATE_signed_char)
    2611                      .dwattr $C$DW$T$7, DW_AT_name("wchar_t")
    2612                      .dwattr $C$DW$T$7, DW_AT_byte_size(0x01)
    2613              $C$DW$T$8       .dwtag  DW_TAG_base_type
    2614                      .dwattr $C$DW$T$8, DW_AT_encoding(DW_ATE_signed)
    2615                      .dwattr $C$DW$T$8, DW_AT_name("short")
    2616                      .dwattr $C$DW$T$8, DW_AT_byte_size(0x01)
    2617              $C$DW$T$85      .dwtag  DW_TAG_typedef, DW_AT_name("Int16")
    2618                      .dwattr $C$DW$T$85, DW_AT_type(*$C$DW$T$8)
    2619                      .dwattr $C$DW$T$85, DW_AT_language(DW_LANG_C)
    2620              $C$DW$T$86      .dwtag  DW_TAG_typedef, DW_AT_name("CSL_Status")
    2621                      .dwattr $C$DW$T$86, DW_AT_type(*$C$DW$T$85)
    2622                      .dwattr $C$DW$T$86, DW_AT_language(DW_LANG_C)
    2623              $C$DW$T$87      .dwtag  DW_TAG_pointer_type
    2624                      .dwattr $C$DW$T$87, DW_AT_type(*$C$DW$T$86)
    2625                      .dwattr $C$DW$T$87, DW_AT_address_class(0x17)
    2626              $C$DW$334       .dwtag  DW_TAG_TI_far_type
    2627                      .dwattr $C$DW$334, DW_AT_type(*$C$DW$T$85)
    2628              $C$DW$T$121     .dwtag  DW_TAG_volatile_type
    2629                      .dwattr $C$DW$T$121, DW_AT_type(*$C$DW$334)
    2630              $C$DW$T$9       .dwtag  DW_TAG_base_type
    2631                      .dwattr $C$DW$T$9, DW_AT_encoding(DW_ATE_unsigned)
    2632                      .dwattr $C$DW$T$9, DW_AT_name("unsigned short")
    2633                      .dwattr $C$DW$T$9, DW_AT_byte_size(0x01)
    2634              $C$DW$T$19      .dwtag  DW_TAG_typedef, DW_AT_name("Uint16")
    2635                      .dwattr $C$DW$T$19, DW_AT_type(*$C$DW$T$9)
    2636                      .dwattr $C$DW$T$19, DW_AT_language(DW_LANG_C)
    2637              $C$DW$335       .dwtag  DW_TAG_TI_far_type
    2638                      .dwattr $C$DW$335, DW_AT_type(*$C$DW$T$19)
    2639              $C$DW$T$20      .dwtag  DW_TAG_volatile_type
    2640                      .dwattr $C$DW$T$20, DW_AT_type(*$C$DW$335)
    2641              
    2642              $C$DW$T$21      .dwtag  DW_TAG_array_type
    2643                      .dwattr $C$DW$T$21, DW_AT_type(*$C$DW$T$20)
    2644                      .dwattr $C$DW$T$21, DW_AT_language(DW_LANG_C)
    2645                      .dwattr $C$DW$T$21, DW_AT_byte_size(0x04)
    2646              $C$DW$336       .dwtag  DW_TAG_subrange_type
    2647                      .dwattr $C$DW$336, DW_AT_upper_bound(0x03)
    2648                      .dwendtag $C$DW$T$21
    2649              
    2650              
    2651              $C$DW$T$22      .dwtag  DW_TAG_array_type
TMS320C55x Assembler PC v4.4.1 Sat Sep 29 23:08:48 2018

Tools Copyright (c) 1996-2012 Texas Instruments Incorporated
csl_sar_DmaExample.asm                                               PAGE   64

    2652                      .dwattr $C$DW$T$22, DW_AT_type(*$C$DW$T$20)
    2653                      .dwattr $C$DW$T$22, DW_AT_language(DW_LANG_C)
    2654                      .dwattr $C$DW$T$22, DW_AT_byte_size(0x0d)
    2655              $C$DW$337       .dwtag  DW_TAG_subrange_type
    2656                      .dwattr $C$DW$337, DW_AT_upper_bound(0x0c)
    2657                      .dwendtag $C$DW$T$22
    2658              
    2659              
    2660              $C$DW$T$36      .dwtag  DW_TAG_array_type
    2661                      .dwattr $C$DW$T$36, DW_AT_type(*$C$DW$T$20)
    2662                      .dwattr $C$DW$T$36, DW_AT_language(DW_LANG_C)
    2663                      .dwattr $C$DW$T$36, DW_AT_byte_size(0x1a)
    2664              $C$DW$338       .dwtag  DW_TAG_subrange_type
    2665                      .dwattr $C$DW$338, DW_AT_upper_bound(0x19)
    2666                      .dwendtag $C$DW$T$36
    2667              
    2668              
    2669              $C$DW$T$66      .dwtag  DW_TAG_array_type
    2670                      .dwattr $C$DW$T$66, DW_AT_type(*$C$DW$T$20)
    2671                      .dwattr $C$DW$T$66, DW_AT_language(DW_LANG_C)
    2672                      .dwattr $C$DW$T$66, DW_AT_byte_size(0x0e)
    2673              $C$DW$339       .dwtag  DW_TAG_subrange_type
    2674                      .dwattr $C$DW$339, DW_AT_upper_bound(0x0d)
    2675                      .dwendtag $C$DW$T$66
    2676              
    2677              
    2678              $C$DW$T$67      .dwtag  DW_TAG_array_type
    2679                      .dwattr $C$DW$T$67, DW_AT_type(*$C$DW$T$20)
    2680                      .dwattr $C$DW$T$67, DW_AT_language(DW_LANG_C)
    2681                      .dwattr $C$DW$T$67, DW_AT_byte_size(0x02)
    2682              $C$DW$340       .dwtag  DW_TAG_subrange_type
    2683                      .dwattr $C$DW$340, DW_AT_upper_bound(0x01)
    2684                      .dwendtag $C$DW$T$67
    2685              
    2686              
    2687              $C$DW$T$68      .dwtag  DW_TAG_array_type
    2688                      .dwattr $C$DW$T$68, DW_AT_type(*$C$DW$T$20)
    2689                      .dwattr $C$DW$T$68, DW_AT_language(DW_LANG_C)
    2690                      .dwattr $C$DW$T$68, DW_AT_byte_size(0x05)
    2691              $C$DW$341       .dwtag  DW_TAG_subrange_type
    2692                      .dwattr $C$DW$341, DW_AT_upper_bound(0x04)
    2693                      .dwendtag $C$DW$T$68
    2694              
    2695              
    2696              $C$DW$T$124     .dwtag  DW_TAG_array_type
    2697                      .dwattr $C$DW$T$124, DW_AT_type(*$C$DW$T$19)
    2698                      .dwattr $C$DW$T$124, DW_AT_language(DW_LANG_C)
    2699                      .dwattr $C$DW$T$124, DW_AT_byte_size(0x02)
    2700              $C$DW$342       .dwtag  DW_TAG_subrange_type
    2701                      .dwattr $C$DW$342, DW_AT_upper_bound(0x01)
    2702                      .dwendtag $C$DW$T$124
    2703              
    2704              $C$DW$T$10      .dwtag  DW_TAG_base_type
    2705                      .dwattr $C$DW$T$10, DW_AT_encoding(DW_ATE_signed)
    2706                      .dwattr $C$DW$T$10, DW_AT_name("int")
TMS320C55x Assembler PC v4.4.1 Sat Sep 29 23:08:48 2018

Tools Copyright (c) 1996-2012 Texas Instruments Incorporated
csl_sar_DmaExample.asm                                               PAGE   65

    2707                      .dwattr $C$DW$T$10, DW_AT_byte_size(0x01)
    2708              $C$DW$T$46      .dwtag  DW_TAG_typedef, DW_AT_name("Bool")
    2709                      .dwattr $C$DW$T$46, DW_AT_type(*$C$DW$T$10)
    2710                      .dwattr $C$DW$T$46, DW_AT_language(DW_LANG_C)
    2711              $C$DW$T$11      .dwtag  DW_TAG_base_type
    2712                      .dwattr $C$DW$T$11, DW_AT_encoding(DW_ATE_unsigned)
    2713                      .dwattr $C$DW$T$11, DW_AT_name("unsigned int")
    2714                      .dwattr $C$DW$T$11, DW_AT_byte_size(0x01)
    2715              $C$DW$T$12      .dwtag  DW_TAG_base_type
    2716                      .dwattr $C$DW$T$12, DW_AT_encoding(DW_ATE_signed)
    2717                      .dwattr $C$DW$T$12, DW_AT_name("long")
    2718                      .dwattr $C$DW$T$12, DW_AT_byte_size(0x02)
    2719              $C$DW$T$13      .dwtag  DW_TAG_base_type
    2720                      .dwattr $C$DW$T$13, DW_AT_encoding(DW_ATE_unsigned)
    2721                      .dwattr $C$DW$T$13, DW_AT_name("unsigned long")
    2722                      .dwattr $C$DW$T$13, DW_AT_byte_size(0x02)
    2723              $C$DW$T$64      .dwtag  DW_TAG_typedef, DW_AT_name("Uint32")
    2724                      .dwattr $C$DW$T$64, DW_AT_type(*$C$DW$T$13)
    2725                      .dwattr $C$DW$T$64, DW_AT_language(DW_LANG_C)
    2726              $C$DW$T$14      .dwtag  DW_TAG_base_type
    2727                      .dwattr $C$DW$T$14, DW_AT_encoding(DW_ATE_signed)
    2728                      .dwattr $C$DW$T$14, DW_AT_name("long long")
    2729                      .dwattr $C$DW$T$14, DW_AT_byte_size(0x04)
    2730                      .dwattr $C$DW$T$14, DW_AT_bit_size(0x28)
    2731                      .dwattr $C$DW$T$14, DW_AT_bit_offset(0x18)
    2732              $C$DW$T$15      .dwtag  DW_TAG_base_type
    2733                      .dwattr $C$DW$T$15, DW_AT_encoding(DW_ATE_unsigned)
    2734                      .dwattr $C$DW$T$15, DW_AT_name("unsigned long long")
    2735                      .dwattr $C$DW$T$15, DW_AT_byte_size(0x04)
    2736                      .dwattr $C$DW$T$15, DW_AT_bit_size(0x28)
    2737                      .dwattr $C$DW$T$15, DW_AT_bit_offset(0x18)
    2738              $C$DW$T$16      .dwtag  DW_TAG_base_type
    2739                      .dwattr $C$DW$T$16, DW_AT_encoding(DW_ATE_float)
    2740                      .dwattr $C$DW$T$16, DW_AT_name("float")
    2741                      .dwattr $C$DW$T$16, DW_AT_byte_size(0x02)
    2742              $C$DW$T$17      .dwtag  DW_TAG_base_type
    2743                      .dwattr $C$DW$T$17, DW_AT_encoding(DW_ATE_float)
    2744                      .dwattr $C$DW$T$17, DW_AT_name("double")
    2745                      .dwattr $C$DW$T$17, DW_AT_byte_size(0x02)
    2746              $C$DW$T$18      .dwtag  DW_TAG_base_type
    2747                      .dwattr $C$DW$T$18, DW_AT_encoding(DW_ATE_float)
    2748                      .dwattr $C$DW$T$18, DW_AT_name("long double")
    2749                      .dwattr $C$DW$T$18, DW_AT_byte_size(0x02)
    2750              $C$DW$T$129     .dwtag  DW_TAG_base_type
    2751                      .dwattr $C$DW$T$129, DW_AT_encoding(DW_ATE_signed_char)
    2752                      .dwattr $C$DW$T$129, DW_AT_name("signed char")
    2753                      .dwattr $C$DW$T$129, DW_AT_byte_size(0x01)
    2754              $C$DW$343       .dwtag  DW_TAG_TI_far_type
    2755                      .dwattr $C$DW$343, DW_AT_type(*$C$DW$T$129)
    2756              $C$DW$T$130     .dwtag  DW_TAG_const_type
    2757                      .dwattr $C$DW$T$130, DW_AT_type(*$C$DW$343)
    2758              $C$DW$T$131     .dwtag  DW_TAG_pointer_type
    2759                      .dwattr $C$DW$T$131, DW_AT_type(*$C$DW$T$130)
    2760                      .dwattr $C$DW$T$131, DW_AT_address_class(0x17)
    2761                      .dwattr $C$DW$CU, DW_AT_language(DW_LANG_C)
TMS320C55x Assembler PC v4.4.1 Sat Sep 29 23:08:48 2018

Tools Copyright (c) 1996-2012 Texas Instruments Incorporated
csl_sar_DmaExample.asm                                               PAGE   66

    2762              
    2763              ;***************************************************************
    2764              ;* DWARF CIE ENTRIES                                           *
    2765              ;***************************************************************
    2766              
    2767              $C$DW$CIE       .dwcie 91
    2768                      .dwcfi  cfa_register, 36
    2769                      .dwcfi  cfa_offset, 0
    2770                      .dwcfi  undefined, 0
    2771                      .dwcfi  undefined, 1
    2772                      .dwcfi  undefined, 2
    2773                      .dwcfi  undefined, 3
    2774                      .dwcfi  undefined, 4
    2775                      .dwcfi  undefined, 5
    2776                      .dwcfi  undefined, 6
    2777                      .dwcfi  undefined, 7
    2778                      .dwcfi  undefined, 8
    2779                      .dwcfi  undefined, 9
    2780                      .dwcfi  undefined, 10
    2781                      .dwcfi  undefined, 11
    2782                      .dwcfi  undefined, 12
    2783                      .dwcfi  undefined, 13
    2784                      .dwcfi  same_value, 14
    2785                      .dwcfi  same_value, 15
    2786                      .dwcfi  undefined, 16
    2787                      .dwcfi  undefined, 17
    2788                      .dwcfi  undefined, 18
    2789                      .dwcfi  undefined, 19
    2790                      .dwcfi  undefined, 20
    2791                      .dwcfi  undefined, 21
    2792                      .dwcfi  undefined, 22
    2793                      .dwcfi  undefined, 23
    2794                      .dwcfi  undefined, 24
    2795                      .dwcfi  undefined, 25
    2796                      .dwcfi  same_value, 26
    2797                      .dwcfi  same_value, 27
    2798                      .dwcfi  same_value, 28
    2799                      .dwcfi  same_value, 29
    2800                      .dwcfi  same_value, 30
    2801                      .dwcfi  same_value, 31
    2802                      .dwcfi  undefined, 32
    2803                      .dwcfi  undefined, 33
    2804                      .dwcfi  undefined, 34
    2805                      .dwcfi  undefined, 35
    2806                      .dwcfi  undefined, 36
    2807                      .dwcfi  undefined, 37
    2808                      .dwcfi  undefined, 38
    2809                      .dwcfi  undefined, 39
    2810                      .dwcfi  undefined, 40
    2811                      .dwcfi  undefined, 41
    2812                      .dwcfi  undefined, 42
    2813                      .dwcfi  undefined, 43
    2814                      .dwcfi  undefined, 44
    2815                      .dwcfi  undefined, 45
    2816                      .dwcfi  undefined, 46
TMS320C55x Assembler PC v4.4.1 Sat Sep 29 23:08:48 2018

Tools Copyright (c) 1996-2012 Texas Instruments Incorporated
csl_sar_DmaExample.asm                                               PAGE   67

    2817                      .dwcfi  undefined, 47
    2818                      .dwcfi  undefined, 48
    2819                      .dwcfi  undefined, 49
    2820                      .dwcfi  undefined, 50
    2821                      .dwcfi  undefined, 51
    2822                      .dwcfi  undefined, 52
    2823                      .dwcfi  undefined, 53
    2824                      .dwcfi  undefined, 54
    2825                      .dwcfi  undefined, 55
    2826                      .dwcfi  undefined, 56
    2827                      .dwcfi  undefined, 57
    2828                      .dwcfi  undefined, 58
    2829                      .dwcfi  undefined, 59
    2830                      .dwcfi  undefined, 60
    2831                      .dwcfi  undefined, 61
    2832                      .dwcfi  undefined, 62
    2833                      .dwcfi  undefined, 63
    2834                      .dwcfi  undefined, 64
    2835                      .dwcfi  undefined, 65
    2836                      .dwcfi  undefined, 66
    2837                      .dwcfi  undefined, 67
    2838                      .dwcfi  undefined, 68
    2839                      .dwcfi  undefined, 69
    2840                      .dwcfi  undefined, 70
    2841                      .dwcfi  undefined, 71
    2842                      .dwcfi  undefined, 72
    2843                      .dwcfi  undefined, 73
    2844                      .dwcfi  undefined, 74
    2845                      .dwcfi  undefined, 75
    2846                      .dwcfi  undefined, 76
    2847                      .dwcfi  undefined, 77
    2848                      .dwcfi  undefined, 78
    2849                      .dwcfi  undefined, 79
    2850                      .dwcfi  undefined, 80
    2851                      .dwcfi  undefined, 81
    2852                      .dwcfi  undefined, 82
    2853                      .dwcfi  undefined, 83
    2854                      .dwcfi  undefined, 84
    2855                      .dwcfi  undefined, 85
    2856                      .dwcfi  undefined, 86
    2857                      .dwcfi  undefined, 87
    2858                      .dwcfi  undefined, 88
    2859                      .dwcfi  undefined, 89
    2860                      .dwcfi  undefined, 90
    2861                      .dwcfi  undefined, 91
    2862                      .dwendentry
    2863              
    2864              ;***************************************************************
    2865              ;* DWARF REGISTER MAP                                          *
    2866              ;***************************************************************
    2867              
    2868              $C$DW$344       .dwtag  DW_TAG_TI_assign_register, DW_AT_name("AC0")
    2869                      .dwattr $C$DW$344, DW_AT_location[DW_OP_reg0]
    2870              $C$DW$345       .dwtag  DW_TAG_TI_assign_register, DW_AT_name("AC0")
    2871                      .dwattr $C$DW$345, DW_AT_location[DW_OP_reg1]
TMS320C55x Assembler PC v4.4.1 Sat Sep 29 23:08:48 2018

Tools Copyright (c) 1996-2012 Texas Instruments Incorporated
csl_sar_DmaExample.asm                                               PAGE   68

    2872              $C$DW$346       .dwtag  DW_TAG_TI_assign_register, DW_AT_name("AC0_G")
    2873                      .dwattr $C$DW$346, DW_AT_location[DW_OP_reg2]
    2874              $C$DW$347       .dwtag  DW_TAG_TI_assign_register, DW_AT_name("AC1")
    2875                      .dwattr $C$DW$347, DW_AT_location[DW_OP_reg3]
    2876              $C$DW$348       .dwtag  DW_TAG_TI_assign_register, DW_AT_name("AC1")
    2877                      .dwattr $C$DW$348, DW_AT_location[DW_OP_reg4]
    2878              $C$DW$349       .dwtag  DW_TAG_TI_assign_register, DW_AT_name("AC1_G")
    2879                      .dwattr $C$DW$349, DW_AT_location[DW_OP_reg5]
    2880              $C$DW$350       .dwtag  DW_TAG_TI_assign_register, DW_AT_name("AC2")
    2881                      .dwattr $C$DW$350, DW_AT_location[DW_OP_reg6]
    2882              $C$DW$351       .dwtag  DW_TAG_TI_assign_register, DW_AT_name("AC2")
    2883                      .dwattr $C$DW$351, DW_AT_location[DW_OP_reg7]
    2884              $C$DW$352       .dwtag  DW_TAG_TI_assign_register, DW_AT_name("AC2_G")
    2885                      .dwattr $C$DW$352, DW_AT_location[DW_OP_reg8]
    2886              $C$DW$353       .dwtag  DW_TAG_TI_assign_register, DW_AT_name("AC3")
    2887                      .dwattr $C$DW$353, DW_AT_location[DW_OP_reg9]
    2888              $C$DW$354       .dwtag  DW_TAG_TI_assign_register, DW_AT_name("AC3")
    2889                      .dwattr $C$DW$354, DW_AT_location[DW_OP_reg10]
    2890              $C$DW$355       .dwtag  DW_TAG_TI_assign_register, DW_AT_name("AC3_G")
    2891                      .dwattr $C$DW$355, DW_AT_location[DW_OP_reg11]
    2892              $C$DW$356       .dwtag  DW_TAG_TI_assign_register, DW_AT_name("T0")
    2893                      .dwattr $C$DW$356, DW_AT_location[DW_OP_reg12]
    2894              $C$DW$357       .dwtag  DW_TAG_TI_assign_register, DW_AT_name("T1")
    2895                      .dwattr $C$DW$357, DW_AT_location[DW_OP_reg13]
    2896              $C$DW$358       .dwtag  DW_TAG_TI_assign_register, DW_AT_name("T2")
    2897                      .dwattr $C$DW$358, DW_AT_location[DW_OP_reg14]
    2898              $C$DW$359       .dwtag  DW_TAG_TI_assign_register, DW_AT_name("T3")
    2899                      .dwattr $C$DW$359, DW_AT_location[DW_OP_reg15]
    2900              $C$DW$360       .dwtag  DW_TAG_TI_assign_register, DW_AT_name("AR0")
    2901                      .dwattr $C$DW$360, DW_AT_location[DW_OP_reg16]
    2902              $C$DW$361       .dwtag  DW_TAG_TI_assign_register, DW_AT_name("XAR0")
    2903                      .dwattr $C$DW$361, DW_AT_location[DW_OP_reg17]
    2904              $C$DW$362       .dwtag  DW_TAG_TI_assign_register, DW_AT_name("AR1")
    2905                      .dwattr $C$DW$362, DW_AT_location[DW_OP_reg18]
    2906              $C$DW$363       .dwtag  DW_TAG_TI_assign_register, DW_AT_name("XAR1")
    2907                      .dwattr $C$DW$363, DW_AT_location[DW_OP_reg19]
    2908              $C$DW$364       .dwtag  DW_TAG_TI_assign_register, DW_AT_name("AR2")
    2909                      .dwattr $C$DW$364, DW_AT_location[DW_OP_reg20]
    2910              $C$DW$365       .dwtag  DW_TAG_TI_assign_register, DW_AT_name("XAR2")
    2911                      .dwattr $C$DW$365, DW_AT_location[DW_OP_reg21]
    2912              $C$DW$366       .dwtag  DW_TAG_TI_assign_register, DW_AT_name("AR3")
    2913                      .dwattr $C$DW$366, DW_AT_location[DW_OP_reg22]
    2914              $C$DW$367       .dwtag  DW_TAG_TI_assign_register, DW_AT_name("XAR3")
    2915                      .dwattr $C$DW$367, DW_AT_location[DW_OP_reg23]
    2916              $C$DW$368       .dwtag  DW_TAG_TI_assign_register, DW_AT_name("AR4")
    2917                      .dwattr $C$DW$368, DW_AT_location[DW_OP_reg24]
    2918              $C$DW$369       .dwtag  DW_TAG_TI_assign_register, DW_AT_name("XAR4")
    2919                      .dwattr $C$DW$369, DW_AT_location[DW_OP_reg25]
    2920              $C$DW$370       .dwtag  DW_TAG_TI_assign_register, DW_AT_name("AR5")
    2921                      .dwattr $C$DW$370, DW_AT_location[DW_OP_reg26]
    2922              $C$DW$371       .dwtag  DW_TAG_TI_assign_register, DW_AT_name("XAR5")
    2923                      .dwattr $C$DW$371, DW_AT_location[DW_OP_reg27]
    2924              $C$DW$372       .dwtag  DW_TAG_TI_assign_register, DW_AT_name("AR6")
    2925                      .dwattr $C$DW$372, DW_AT_location[DW_OP_reg28]
    2926              $C$DW$373       .dwtag  DW_TAG_TI_assign_register, DW_AT_name("XAR6")
TMS320C55x Assembler PC v4.4.1 Sat Sep 29 23:08:48 2018

Tools Copyright (c) 1996-2012 Texas Instruments Incorporated
csl_sar_DmaExample.asm                                               PAGE   69

    2927                      .dwattr $C$DW$373, DW_AT_location[DW_OP_reg29]
    2928              $C$DW$374       .dwtag  DW_TAG_TI_assign_register, DW_AT_name("AR7")
    2929                      .dwattr $C$DW$374, DW_AT_location[DW_OP_reg30]
    2930              $C$DW$375       .dwtag  DW_TAG_TI_assign_register, DW_AT_name("XAR7")
    2931                      .dwattr $C$DW$375, DW_AT_location[DW_OP_reg31]
    2932              $C$DW$376       .dwtag  DW_TAG_TI_assign_register, DW_AT_name("FP")
    2933                      .dwattr $C$DW$376, DW_AT_location[DW_OP_regx 0x20]
    2934              $C$DW$377       .dwtag  DW_TAG_TI_assign_register, DW_AT_name("XFP")
    2935                      .dwattr $C$DW$377, DW_AT_location[DW_OP_regx 0x21]
    2936              $C$DW$378       .dwtag  DW_TAG_TI_assign_register, DW_AT_name("PC")
    2937                      .dwattr $C$DW$378, DW_AT_location[DW_OP_regx 0x22]
    2938              $C$DW$379       .dwtag  DW_TAG_TI_assign_register, DW_AT_name("SP")
    2939                      .dwattr $C$DW$379, DW_AT_location[DW_OP_regx 0x23]
    2940              $C$DW$380       .dwtag  DW_TAG_TI_assign_register, DW_AT_name("XSP")
    2941                      .dwattr $C$DW$380, DW_AT_location[DW_OP_regx 0x24]
    2942              $C$DW$381       .dwtag  DW_TAG_TI_assign_register, DW_AT_name("BKC")
    2943                      .dwattr $C$DW$381, DW_AT_location[DW_OP_regx 0x25]
    2944              $C$DW$382       .dwtag  DW_TAG_TI_assign_register, DW_AT_name("BK03")
    2945                      .dwattr $C$DW$382, DW_AT_location[DW_OP_regx 0x26]
    2946              $C$DW$383       .dwtag  DW_TAG_TI_assign_register, DW_AT_name("BK47")
    2947                      .dwattr $C$DW$383, DW_AT_location[DW_OP_regx 0x27]
    2948              $C$DW$384       .dwtag  DW_TAG_TI_assign_register, DW_AT_name("ST0")
    2949                      .dwattr $C$DW$384, DW_AT_location[DW_OP_regx 0x28]
    2950              $C$DW$385       .dwtag  DW_TAG_TI_assign_register, DW_AT_name("ST1")
    2951                      .dwattr $C$DW$385, DW_AT_location[DW_OP_regx 0x29]
    2952              $C$DW$386       .dwtag  DW_TAG_TI_assign_register, DW_AT_name("ST2")
    2953                      .dwattr $C$DW$386, DW_AT_location[DW_OP_regx 0x2a]
    2954              $C$DW$387       .dwtag  DW_TAG_TI_assign_register, DW_AT_name("ST3")
    2955                      .dwattr $C$DW$387, DW_AT_location[DW_OP_regx 0x2b]
    2956              $C$DW$388       .dwtag  DW_TAG_TI_assign_register, DW_AT_name("MDP")
    2957                      .dwattr $C$DW$388, DW_AT_location[DW_OP_regx 0x2c]
    2958              $C$DW$389       .dwtag  DW_TAG_TI_assign_register, DW_AT_name("MDP05")
    2959                      .dwattr $C$DW$389, DW_AT_location[DW_OP_regx 0x2d]
    2960              $C$DW$390       .dwtag  DW_TAG_TI_assign_register, DW_AT_name("MDP67")
    2961                      .dwattr $C$DW$390, DW_AT_location[DW_OP_regx 0x2e]
    2962              $C$DW$391       .dwtag  DW_TAG_TI_assign_register, DW_AT_name("BRC0")
    2963                      .dwattr $C$DW$391, DW_AT_location[DW_OP_regx 0x2f]
    2964              $C$DW$392       .dwtag  DW_TAG_TI_assign_register, DW_AT_name("RSA0")
    2965                      .dwattr $C$DW$392, DW_AT_location[DW_OP_regx 0x30]
    2966              $C$DW$393       .dwtag  DW_TAG_TI_assign_register, DW_AT_name("RSA0_H")
    2967                      .dwattr $C$DW$393, DW_AT_location[DW_OP_regx 0x31]
    2968              $C$DW$394       .dwtag  DW_TAG_TI_assign_register, DW_AT_name("REA0")
    2969                      .dwattr $C$DW$394, DW_AT_location[DW_OP_regx 0x32]
    2970              $C$DW$395       .dwtag  DW_TAG_TI_assign_register, DW_AT_name("REA0_H")
    2971                      .dwattr $C$DW$395, DW_AT_location[DW_OP_regx 0x33]
    2972              $C$DW$396       .dwtag  DW_TAG_TI_assign_register, DW_AT_name("BRS1")
    2973                      .dwattr $C$DW$396, DW_AT_location[DW_OP_regx 0x34]
    2974              $C$DW$397       .dwtag  DW_TAG_TI_assign_register, DW_AT_name("BRC1")
    2975                      .dwattr $C$DW$397, DW_AT_location[DW_OP_regx 0x35]
    2976              $C$DW$398       .dwtag  DW_TAG_TI_assign_register, DW_AT_name("RSA1")
    2977                      .dwattr $C$DW$398, DW_AT_location[DW_OP_regx 0x36]
    2978              $C$DW$399       .dwtag  DW_TAG_TI_assign_register, DW_AT_name("RSA1_H")
    2979                      .dwattr $C$DW$399, DW_AT_location[DW_OP_regx 0x37]
    2980              $C$DW$400       .dwtag  DW_TAG_TI_assign_register, DW_AT_name("REA1")
    2981                      .dwattr $C$DW$400, DW_AT_location[DW_OP_regx 0x38]
TMS320C55x Assembler PC v4.4.1 Sat Sep 29 23:08:48 2018

Tools Copyright (c) 1996-2012 Texas Instruments Incorporated
csl_sar_DmaExample.asm                                               PAGE   70

    2982              $C$DW$401       .dwtag  DW_TAG_TI_assign_register, DW_AT_name("REA1_H")
    2983                      .dwattr $C$DW$401, DW_AT_location[DW_OP_regx 0x39]
    2984              $C$DW$402       .dwtag  DW_TAG_TI_assign_register, DW_AT_name("CSR")
    2985                      .dwattr $C$DW$402, DW_AT_location[DW_OP_regx 0x3a]
    2986              $C$DW$403       .dwtag  DW_TAG_TI_assign_register, DW_AT_name("RPTC")
    2987                      .dwattr $C$DW$403, DW_AT_location[DW_OP_regx 0x3b]
    2988              $C$DW$404       .dwtag  DW_TAG_TI_assign_register, DW_AT_name("CDP")
    2989                      .dwattr $C$DW$404, DW_AT_location[DW_OP_regx 0x3c]
    2990              $C$DW$405       .dwtag  DW_TAG_TI_assign_register, DW_AT_name("XCDP")
    2991                      .dwattr $C$DW$405, DW_AT_location[DW_OP_regx 0x3d]
    2992              $C$DW$406       .dwtag  DW_TAG_TI_assign_register, DW_AT_name("TRN0")
    2993                      .dwattr $C$DW$406, DW_AT_location[DW_OP_regx 0x3e]
    2994              $C$DW$407       .dwtag  DW_TAG_TI_assign_register, DW_AT_name("TRN1")
    2995                      .dwattr $C$DW$407, DW_AT_location[DW_OP_regx 0x3f]
    2996              $C$DW$408       .dwtag  DW_TAG_TI_assign_register, DW_AT_name("BSA01")
    2997                      .dwattr $C$DW$408, DW_AT_location[DW_OP_regx 0x40]
    2998              $C$DW$409       .dwtag  DW_TAG_TI_assign_register, DW_AT_name("BSA23")
    2999                      .dwattr $C$DW$409, DW_AT_location[DW_OP_regx 0x41]
    3000              $C$DW$410       .dwtag  DW_TAG_TI_assign_register, DW_AT_name("BSA45")
    3001                      .dwattr $C$DW$410, DW_AT_location[DW_OP_regx 0x42]
    3002              $C$DW$411       .dwtag  DW_TAG_TI_assign_register, DW_AT_name("BSA67")
    3003                      .dwattr $C$DW$411, DW_AT_location[DW_OP_regx 0x43]
    3004              $C$DW$412       .dwtag  DW_TAG_TI_assign_register, DW_AT_name("BSAC")
    3005                      .dwattr $C$DW$412, DW_AT_location[DW_OP_regx 0x44]
    3006              $C$DW$413       .dwtag  DW_TAG_TI_assign_register, DW_AT_name("CARRY")
    3007                      .dwattr $C$DW$413, DW_AT_location[DW_OP_regx 0x45]
    3008              $C$DW$414       .dwtag  DW_TAG_TI_assign_register, DW_AT_name("TC1")
    3009                      .dwattr $C$DW$414, DW_AT_location[DW_OP_regx 0x46]
    3010              $C$DW$415       .dwtag  DW_TAG_TI_assign_register, DW_AT_name("TC2")
    3011                      .dwattr $C$DW$415, DW_AT_location[DW_OP_regx 0x47]
    3012              $C$DW$416       .dwtag  DW_TAG_TI_assign_register, DW_AT_name("M40")
    3013                      .dwattr $C$DW$416, DW_AT_location[DW_OP_regx 0x48]
    3014              $C$DW$417       .dwtag  DW_TAG_TI_assign_register, DW_AT_name("SXMD")
    3015                      .dwattr $C$DW$417, DW_AT_location[DW_OP_regx 0x49]
    3016              $C$DW$418       .dwtag  DW_TAG_TI_assign_register, DW_AT_name("ARMS")
    3017                      .dwattr $C$DW$418, DW_AT_location[DW_OP_regx 0x4a]
    3018              $C$DW$419       .dwtag  DW_TAG_TI_assign_register, DW_AT_name("C54CM")
    3019                      .dwattr $C$DW$419, DW_AT_location[DW_OP_regx 0x4b]
    3020              $C$DW$420       .dwtag  DW_TAG_TI_assign_register, DW_AT_name("SATA")
    3021                      .dwattr $C$DW$420, DW_AT_location[DW_OP_regx 0x4c]
    3022              $C$DW$421       .dwtag  DW_TAG_TI_assign_register, DW_AT_name("SATD")
    3023                      .dwattr $C$DW$421, DW_AT_location[DW_OP_regx 0x4d]
    3024              $C$DW$422       .dwtag  DW_TAG_TI_assign_register, DW_AT_name("RDM")
    3025                      .dwattr $C$DW$422, DW_AT_location[DW_OP_regx 0x4e]
