TMS320C55x Assembler PC v4.4.1 Sat Sep 29 23:09:22 2018

Tools Copyright (c) 1996-2012 Texas Instruments Incorporated
lcdc_panel.asm                                                       PAGE    1

    8942              ; Temporary Registers Used: None
       1              ;*******************************************************************************
       2              ;* TMS320C55x C/C++ Codegen                                          PC v4.4.1 *
       3              ;* Date/Time created: Sat Sep 29 23:09:19 2018                                 *
       4              ;*******************************************************************************
       5                      .compiler_opts --hll_source=on --mem_model:code=flat --mem_model:data=large --object_format=coff --si
       6                      .mmregs
       7                      .cpl_on
       8                      .arms_on
       9                      .c54cm_off
      10                      .asg AR6, FP
      11                      .asg XAR6, XFP
      12                      .asg DPH, MDP
      13                      .model call=c55_std
      14                      .model mem=large
      15                      .noremark 5002  ; code respects overwrite rules
      16              ;*******************************************************************************
      17              ;* GLOBAL FILE PARAMETERS                                                      *
      18              ;*                                                                             *
      19              ;*   Architecture       : TMS320C55x                                           *
      20              ;*   Optimizing for     : Speed                                                *
      21              ;*   Memory             : Large Model (23-Bit Data Pointers)                   *
      22              ;*   Calls              : Normal Library ASM calls                             *
      23              ;*   Debug Info         : Standard TI Debug Information                        *
      24              ;*******************************************************************************
      25              
      26              $C$DW$CU        .dwtag  DW_TAG_compile_unit
      27                      .dwattr $C$DW$CU, DW_AT_name("../c5535_bsl_revc/ezdsp5535_v1/c55xx_csl/ccs_v4.0_examples/lcd/CSL_LCDC
      28                      .dwattr $C$DW$CU, DW_AT_producer("TMS320C55x C/C++ Codegen PC v4.4.1 Copyright (c) 1996-2012 Texas In
      29                      .dwattr $C$DW$CU, DW_AT_TI_version(0x01)
      30                      .dwattr $C$DW$CU, DW_AT_comp_dir("F:\eZdsp_DBG\tmp1\c55x-sim2\foo\Debug")
      31              $C$DW$1 .dwtag  DW_TAG_variable, DW_AT_name("hLcdc")
      32                      .dwattr $C$DW$1, DW_AT_TI_symbol_name("_hLcdc")
      33                      .dwattr $C$DW$1, DW_AT_type(*$C$DW$T$40)
      34                      .dwattr $C$DW$1, DW_AT_declaration
      35                      .dwattr $C$DW$1, DW_AT_external
      36              $C$DW$2 .dwtag  DW_TAG_variable, DW_AT_name("ti_logo64")
      37                      .dwattr $C$DW$2, DW_AT_TI_symbol_name("_ti_logo64")
      38                      .dwattr $C$DW$2, DW_AT_type(*$C$DW$T$74)
      39                      .dwattr $C$DW$2, DW_AT_declaration
      40                      .dwattr $C$DW$2, DW_AT_external
      41              $C$DW$3 .dwtag  DW_TAG_variable, DW_AT_name("ti_logo32")
      42                      .dwattr $C$DW$3, DW_AT_TI_symbol_name("_ti_logo32")
      43                      .dwattr $C$DW$3, DW_AT_type(*$C$DW$T$74)
      44                      .dwattr $C$DW$3, DW_AT_declaration
      45                      .dwattr $C$DW$3, DW_AT_external
      46              ;       F:\t\cc5p5\ccsv5\tools\compiler\c5500_4.4.1\bin\acp55.exe -@f:\\AppData\\Local\\Temp\\2848012 
      47 000000               .sect   ".text"
      48                      .align 4
      49              
      50              $C$DW$4 .dwtag  DW_TAG_subprogram, DW_AT_name("CSL_lcdcLiddWriteCsAddr")
      51                      .dwattr $C$DW$4, DW_AT_low_pc(_CSL_lcdcLiddWriteCsAddr)
      52                      .dwattr $C$DW$4, DW_AT_high_pc(0x00)
      53                      .dwattr $C$DW$4, DW_AT_TI_symbol_name("_CSL_lcdcLiddWriteCsAddr")
      54                      .dwattr $C$DW$4, DW_AT_TI_begin_file("F:/eZdsp_DBG/tmp1/c55x-sim2/foo/c5535_bsl_revc/ezdsp5535_v1/c55
TMS320C55x Assembler PC v4.4.1 Sat Sep 29 23:09:22 2018

Tools Copyright (c) 1996-2012 Texas Instruments Incorporated
lcdc_panel.asm                                                       PAGE    2

      55                      .dwattr $C$DW$4, DW_AT_TI_begin_line(0xa9)
      56                      .dwattr $C$DW$4, DW_AT_TI_begin_column(0x06)
      57                      .dwattr $C$DW$4, DW_AT_TI_max_frame_size(0x08)
      58                      .dwpsn  file "F:/eZdsp_DBG/tmp1/c55x-sim2/foo/c5535_bsl_revc/ezdsp5535_v1/c55xx_csl/inc/csl_lcdcAux.h
      59              
      60                      .dwfde $C$DW$CIE, _CSL_lcdcLiddWriteCsAddr
      61              $C$DW$5 .dwtag  DW_TAG_formal_parameter, DW_AT_name("hLcdc")
      62                      .dwattr $C$DW$5, DW_AT_TI_symbol_name("_hLcdc")
      63                      .dwattr $C$DW$5, DW_AT_type(*$C$DW$T$40)
      64                      .dwattr $C$DW$5, DW_AT_location[DW_OP_reg17]
      65              $C$DW$6 .dwtag  DW_TAG_formal_parameter, DW_AT_name("cs0cs1")
      66                      .dwattr $C$DW$6, DW_AT_TI_symbol_name("_cs0cs1")
      67                      .dwattr $C$DW$6, DW_AT_type(*$C$DW$T$33)
      68                      .dwattr $C$DW$6, DW_AT_location[DW_OP_reg12]
      69              $C$DW$7 .dwtag  DW_TAG_formal_parameter, DW_AT_name("arg")
      70                      .dwattr $C$DW$7, DW_AT_TI_symbol_name("_arg")
      71                      .dwattr $C$DW$7, DW_AT_type(*$C$DW$T$41)
      72                      .dwattr $C$DW$7, DW_AT_location[DW_OP_reg0]
      73              ;*******************************************************************************
      74              ;* FUNCTION NAME: CSL_lcdcLiddWriteCsAddr                                      *
      75              ;*                                                                             *
      76              ;*   Function Uses Regs : AC0,AC0,AC1,AC1,T0,AR0,XAR0,AR1,AR2,AR3,XAR3,SP,TC1, *
      77              ;*                        M40,SATA,SATD,RDM,FRCT,SMUL                          *
      78              ;*   Stack Frame        : Compact (No Frame Pointer, w/ debug)                 *
      79              ;*   Total Frame Size   : 8 words                                              *
      80              ;*                        (2 return address/alignment)                         *
      81              ;*                        (6 local values)                                     *
      82              ;*   Min System Stack   : 1 word                                               *
      83              ;*******************************************************************************
      84 000000       _CSL_lcdcLiddWriteCsAddr:
      85                      .dwcfi  cfa_offset, 1
      86                      .dwcfi  save_reg_to_mem, 91, -1
      87 000000 4EF9          AADD #-7, SP
      88                      .dwcfi  cfa_offset, 8
      89              $C$DW$8 .dwtag  DW_TAG_variable, DW_AT_name("hLcdc")
      90                      .dwattr $C$DW$8, DW_AT_TI_symbol_name("_hLcdc")
      91                      .dwattr $C$DW$8, DW_AT_type(*$C$DW$T$40)
      92                      .dwattr $C$DW$8, DW_AT_location[DW_OP_bregx 0x24 0]
      93              $C$DW$9 .dwtag  DW_TAG_variable, DW_AT_name("cs0cs1")
      94                      .dwattr $C$DW$9, DW_AT_TI_symbol_name("_cs0cs1")
      95                      .dwattr $C$DW$9, DW_AT_type(*$C$DW$T$33)
      96                      .dwattr $C$DW$9, DW_AT_location[DW_OP_bregx 0x24 2]
      97              $C$DW$10        .dwtag  DW_TAG_variable, DW_AT_name("arg")
      98                      .dwattr $C$DW$10, DW_AT_TI_symbol_name("_arg")
      99                      .dwattr $C$DW$10, DW_AT_type(*$C$DW$T$41)
     100                      .dwattr $C$DW$10, DW_AT_location[DW_OP_bregx 0x24 4]
     101 000002 EB08          MOV AC0, dbl(*SP(#4)) ; |177| 
         000004 08   
     102 000005 C404          MOV T0, *SP(#2) ; |177| 
     103 000007 EB00          MOV XAR0, dbl(*SP(#0))
         000009 85   
     104                      .dwpsn  file "F:/eZdsp_DBG/tmp1/c55x-sim2/foo/c5535_bsl_revc/ezdsp5535_v1/c55xx_csl/inc/csl_lcdcAux.h
     105              
     106 00000a A904          MOV *SP(#2), AR1 ; |178| 
     107 00000c 3D0A  ||      MOV #0, AR2
TMS320C55x Assembler PC v4.4.1 Sat Sep 29 23:09:22 2018

Tools Copyright (c) 1996-2012 Texas Instruments Incorporated
lcdc_panel.asm                                                       PAGE    3

     108              
     109 00000e 12AC          CMP AR2 != AR1, TC1 ; |178| 
         000010 90   
     110 000011 0464          BCC $C$L1,TC1 ; |178| 
         000013 23   
     111                                                      ; branchcc occurs ; |178| 
     112                      .dwpsn  file "F:/eZdsp_DBG/tmp1/c55x-sim2/foo/c5535_bsl_revc/ezdsp5535_v1/c55xx_csl/inc/csl_lcdcAux.h
     113 000014 ED00          MOV dbl(*SP(#0)), XAR3
         000016 BF   
     114 000017 7600          MOV #20, T0 ; |180| 
         000019 1448 
     115 00001b AB61          MOV *AR3, AR3 ; |180| 
     116 00001d A96B          MOV port(*AR3(T0)), AR1 ; |180| 
         00001f 99   
     117 000020 ED00          MOV dbl(*SP(#0)), XAR3
         000022 BF   
     118 000023 AB61          MOV *AR3, AR3 ; |180| 
     119 000025 ED08          MOV dbl(*SP(#4)), AC0 ; |180| 
         000027 08   
     120 000028 7A00          MOV #0 << #16, AC1 ; |180| 
         00002a 001A 
     121 00002c 7DFF          AND #0xffff, AC0, AC0 ; |180| 
         00002e FF00 
     122 000030 2A10          OR AC1, AC0 ; |180| 
     123 000032 C06B          MOV AC0, port(*AR3(T0)) ; |180| 
         000034 9A   
     124                      .dwpsn  file "F:/eZdsp_DBG/tmp1/c55x-sim2/foo/c5535_bsl_revc/ezdsp5535_v1/c55xx_csl/inc/csl_lcdcAux.h
     125 000035 4A21          B $C$L2   ; |182| 
     126                                                      ; branch occurs ; |182| 
     127 000037       $C$L1:    
     128                      .dwpsn  file "F:/eZdsp_DBG/tmp1/c55x-sim2/foo/c5535_bsl_revc/ezdsp5535_v1/c55xx_csl/inc/csl_lcdcAux.h
     129 000037 ED00          MOV dbl(*SP(#0)), XAR3
         000039 BF   
     130 00003a 7600          MOV #32, T0 ; |185| 
         00003c 2048 
     131 00003e AB61          MOV *AR3, AR3 ; |185| 
     132 000040 A96B          MOV port(*AR3(T0)), AR1 ; |185| 
         000042 99   
     133 000043 ED00          MOV dbl(*SP(#0)), XAR3
         000045 BF   
     134 000046 AB61          MOV *AR3, AR3 ; |185| 
     135 000048 ED08          MOV dbl(*SP(#4)), AC0 ; |185| 
         00004a 08   
     136 00004b 7A00          MOV #0 << #16, AC1 ; |185| 
         00004d 001A 
     137 00004f 7DFF          AND #0xffff, AC0, AC0 ; |185| 
         000051 FF00 
     138 000053 2A10          OR AC1, AC0 ; |185| 
     139 000055 C06B          MOV AC0, port(*AR3(T0)) ; |185| 
         000057 9A   
     140                      .dwpsn  file "F:/eZdsp_DBG/tmp1/c55x-sim2/foo/c5535_bsl_revc/ezdsp5535_v1/c55xx_csl/inc/csl_lcdcAux.h
     141 000058       $C$L2:    
     142 000058 4E07          AADD #7, SP
     143                      .dwcfi  cfa_offset, 1
     144              $C$DW$11        .dwtag  DW_TAG_TI_branch
TMS320C55x Assembler PC v4.4.1 Sat Sep 29 23:09:22 2018

Tools Copyright (c) 1996-2012 Texas Instruments Incorporated
lcdc_panel.asm                                                       PAGE    4

     145                      .dwattr $C$DW$11, DW_AT_low_pc(0x00)
     146                      .dwattr $C$DW$11, DW_AT_TI_return
     147 00005a 4804          RET
     148                                                      ; return occurs
     149                      .dwattr $C$DW$4, DW_AT_TI_end_file("F:/eZdsp_DBG/tmp1/c55x-sim2/foo/c5535_bsl_revc/ezdsp5535_v1/c55xx
     150                      .dwattr $C$DW$4, DW_AT_TI_end_line(0xbc)
     151                      .dwattr $C$DW$4, DW_AT_TI_end_column(0x01)
     152                      .dwendentry
     153                      .dwendtag $C$DW$4
     154              
     155 00005c               .sect   ".text"
     156                      .align 4
     157              
     158              $C$DW$12        .dwtag  DW_TAG_subprogram, DW_AT_name("CSL_lcdcLiddWriteCsData")
     159                      .dwattr $C$DW$12, DW_AT_low_pc(_CSL_lcdcLiddWriteCsData)
     160                      .dwattr $C$DW$12, DW_AT_high_pc(0x00)
     161                      .dwattr $C$DW$12, DW_AT_TI_symbol_name("_CSL_lcdcLiddWriteCsData")
     162                      .dwattr $C$DW$12, DW_AT_TI_begin_file("F:/eZdsp_DBG/tmp1/c55x-sim2/foo/c5535_bsl_revc/ezdsp5535_v1/c5
     163                      .dwattr $C$DW$12, DW_AT_TI_begin_line(0xe2)
     164                      .dwattr $C$DW$12, DW_AT_TI_begin_column(0x06)
     165                      .dwattr $C$DW$12, DW_AT_TI_max_frame_size(0x06)
     166                      .dwpsn  file "F:/eZdsp_DBG/tmp1/c55x-sim2/foo/c5535_bsl_revc/ezdsp5535_v1/c55xx_csl/inc/csl_lcdcAux.h
     167              
     168                      .dwfde $C$DW$CIE, _CSL_lcdcLiddWriteCsData
     169              $C$DW$13        .dwtag  DW_TAG_formal_parameter, DW_AT_name("hLcdc")
     170                      .dwattr $C$DW$13, DW_AT_TI_symbol_name("_hLcdc")
     171                      .dwattr $C$DW$13, DW_AT_type(*$C$DW$T$40)
     172                      .dwattr $C$DW$13, DW_AT_location[DW_OP_reg17]
     173              $C$DW$14        .dwtag  DW_TAG_formal_parameter, DW_AT_name("cs0cs1")
     174                      .dwattr $C$DW$14, DW_AT_TI_symbol_name("_cs0cs1")
     175                      .dwattr $C$DW$14, DW_AT_type(*$C$DW$T$33)
     176                      .dwattr $C$DW$14, DW_AT_location[DW_OP_reg12]
     177              $C$DW$15        .dwtag  DW_TAG_formal_parameter, DW_AT_name("arg")
     178                      .dwattr $C$DW$15, DW_AT_TI_symbol_name("_arg")
     179                      .dwattr $C$DW$15, DW_AT_type(*$C$DW$T$19)
     180                      .dwattr $C$DW$15, DW_AT_location[DW_OP_reg13]
     181              ;*******************************************************************************
     182              ;* FUNCTION NAME: CSL_lcdcLiddWriteCsData                                      *
     183              ;*                                                                             *
     184              ;*   Function Uses Regs : T0,T1,AR0,XAR0,AR1,AR2,AR3,XAR3,SP,TC1,M40,SATA,SATD,*
     185              ;*                        RDM,FRCT,SMUL                                        *
     186              ;*   Stack Frame        : Compact (No Frame Pointer, w/ debug)                 *
     187              ;*   Total Frame Size   : 6 words                                              *
     188              ;*                        (2 return address/alignment)                         *
     189              ;*                        (4 local values)                                     *
     190              ;*   Min System Stack   : 1 word                                               *
     191              ;*******************************************************************************
     192 00005c       _CSL_lcdcLiddWriteCsData:
     193                      .dwcfi  cfa_offset, 1
     194                      .dwcfi  save_reg_to_mem, 91, -1
     195 00005c 4EFB          AADD #-5, SP
     196                      .dwcfi  cfa_offset, 6
     197              $C$DW$16        .dwtag  DW_TAG_variable, DW_AT_name("hLcdc")
     198                      .dwattr $C$DW$16, DW_AT_TI_symbol_name("_hLcdc")
     199                      .dwattr $C$DW$16, DW_AT_type(*$C$DW$T$40)
TMS320C55x Assembler PC v4.4.1 Sat Sep 29 23:09:22 2018

Tools Copyright (c) 1996-2012 Texas Instruments Incorporated
lcdc_panel.asm                                                       PAGE    5

     200                      .dwattr $C$DW$16, DW_AT_location[DW_OP_bregx 0x24 0]
     201              $C$DW$17        .dwtag  DW_TAG_variable, DW_AT_name("cs0cs1")
     202                      .dwattr $C$DW$17, DW_AT_TI_symbol_name("_cs0cs1")
     203                      .dwattr $C$DW$17, DW_AT_type(*$C$DW$T$33)
     204                      .dwattr $C$DW$17, DW_AT_location[DW_OP_bregx 0x24 2]
     205              $C$DW$18        .dwtag  DW_TAG_variable, DW_AT_name("arg")
     206                      .dwattr $C$DW$18, DW_AT_TI_symbol_name("_arg")
     207                      .dwattr $C$DW$18, DW_AT_type(*$C$DW$T$19)
     208                      .dwattr $C$DW$18, DW_AT_location[DW_OP_bregx 0x24 3]
     209 00005e C506          MOV T1, *SP(#3) ; |234| 
     210 000060 C404          MOV T0, *SP(#2) ; |234| 
     211 000062 EB00          MOV XAR0, dbl(*SP(#0))
         000064 85   
     212                      .dwpsn  file "F:/eZdsp_DBG/tmp1/c55x-sim2/foo/c5535_bsl_revc/ezdsp5535_v1/c55xx_csl/inc/csl_lcdcAux.h
     213              
     214 000065 A904          MOV *SP(#2), AR1 ; |235| 
     215 000067 3D0A  ||      MOV #0, AR2
     216              
     217 000069 12AC          CMP AR2 != AR1, TC1 ; |235| 
         00006b 90   
     218 00006c 0464          BCC $C$L3,TC1 ; |235| 
         00006e 1B   
     219                                                      ; branchcc occurs ; |235| 
     220                      .dwpsn  file "F:/eZdsp_DBG/tmp1/c55x-sim2/foo/c5535_bsl_revc/ezdsp5535_v1/c55xx_csl/inc/csl_lcdcAux.h
     221 00006f ED00          MOV dbl(*SP(#0)), XAR3
         000071 BF   
     222 000072 7600          MOV #24, T0 ; |237| 
         000074 1848 
     223 000076 AB61          MOV *AR3, AR3 ; |237| 
     224 000078 A96B          MOV port(*AR3(T0)), AR1 ; |237| 
         00007a 99   
     225 00007b ED00          MOV dbl(*SP(#0)), XAR3
         00007d BF   
     226 00007e AB61          MOV *AR3, AR3 ; |237| 
     227 000080 A906          MOV *SP(#3), AR1 ; |237| 
     228 000082 1A00          OR #0x0000, AR1, AR1 ; |237| 
         000084 99   
     229 000085 C96B          MOV AR1, port(*AR3(T0)) ; |237| 
         000087 9A   
     230                      .dwpsn  file "F:/eZdsp_DBG/tmp1/c55x-sim2/foo/c5535_bsl_revc/ezdsp5535_v1/c55xx_csl/inc/csl_lcdcAux.h
     231 000088 4A19          B $C$L4   ; |239| 
     232                                                      ; branch occurs ; |239| 
     233 00008a       $C$L3:    
     234                      .dwpsn  file "F:/eZdsp_DBG/tmp1/c55x-sim2/foo/c5535_bsl_revc/ezdsp5535_v1/c55xx_csl/inc/csl_lcdcAux.h
     235 00008a ED00          MOV dbl(*SP(#0)), XAR3
         00008c BF   
     236 00008d 7600          MOV #36, T0 ; |242| 
         00008f 2448 
     237 000091 AB61          MOV *AR3, AR3 ; |242| 
     238 000093 A96B          MOV port(*AR3(T0)), AR1 ; |242| 
         000095 99   
     239 000096 ED00          MOV dbl(*SP(#0)), XAR3
         000098 BF   
     240 000099 AB61          MOV *AR3, AR3 ; |242| 
     241 00009b A906          MOV *SP(#3), AR1 ; |242| 
TMS320C55x Assembler PC v4.4.1 Sat Sep 29 23:09:22 2018

Tools Copyright (c) 1996-2012 Texas Instruments Incorporated
lcdc_panel.asm                                                       PAGE    6

     242 00009d 1A00          OR #0x0000, AR1, AR1 ; |242| 
         00009f 99   
     243 0000a0 C96B          MOV AR1, port(*AR3(T0)) ; |242| 
         0000a2 9A   
     244                      .dwpsn  file "F:/eZdsp_DBG/tmp1/c55x-sim2/foo/c5535_bsl_revc/ezdsp5535_v1/c55xx_csl/inc/csl_lcdcAux.h
     245 0000a3       $C$L4:    
     246 0000a3 4E05          AADD #5, SP
     247                      .dwcfi  cfa_offset, 1
     248              $C$DW$19        .dwtag  DW_TAG_TI_branch
     249                      .dwattr $C$DW$19, DW_AT_low_pc(0x00)
     250                      .dwattr $C$DW$19, DW_AT_TI_return
     251 0000a5 4804          RET
     252                                                      ; return occurs
     253                      .dwattr $C$DW$12, DW_AT_TI_end_file("F:/eZdsp_DBG/tmp1/c55x-sim2/foo/c5535_bsl_revc/ezdsp5535_v1/c55x
     254                      .dwattr $C$DW$12, DW_AT_TI_end_line(0xf5)
     255                      .dwattr $C$DW$12, DW_AT_TI_end_column(0x01)
     256                      .dwendentry
     257                      .dwendtag $C$DW$12
     258              
     259 0000a7               .sect   ".text"
     260                      .align 4
     261              
     262              $C$DW$20        .dwtag  DW_TAG_subprogram, DW_AT_name("CSL_lcdcGetLiddCsData")
     263                      .dwattr $C$DW$20, DW_AT_low_pc(_CSL_lcdcGetLiddCsData)
     264                      .dwattr $C$DW$20, DW_AT_high_pc(0x00)
     265                      .dwattr $C$DW$20, DW_AT_TI_symbol_name("_CSL_lcdcGetLiddCsData")
     266                      .dwattr $C$DW$20, DW_AT_type(*$C$DW$T$19)
     267                      .dwattr $C$DW$20, DW_AT_TI_begin_file("F:/eZdsp_DBG/tmp1/c55x-sim2/foo/c5535_bsl_revc/ezdsp5535_v1/c5
     268                      .dwattr $C$DW$20, DW_AT_TI_begin_line(0x11b)
     269                      .dwattr $C$DW$20, DW_AT_TI_begin_column(0x08)
     270                      .dwattr $C$DW$20, DW_AT_TI_max_frame_size(0x04)
     271                      .dwpsn  file "F:/eZdsp_DBG/tmp1/c55x-sim2/foo/c5535_bsl_revc/ezdsp5535_v1/c55xx_csl/inc/csl_lcdcAux.h
     272              
     273                      .dwfde $C$DW$CIE, _CSL_lcdcGetLiddCsData
     274              $C$DW$21        .dwtag  DW_TAG_formal_parameter, DW_AT_name("hLcdc")
     275                      .dwattr $C$DW$21, DW_AT_TI_symbol_name("_hLcdc")
     276                      .dwattr $C$DW$21, DW_AT_type(*$C$DW$T$40)
     277                      .dwattr $C$DW$21, DW_AT_location[DW_OP_reg17]
     278              $C$DW$22        .dwtag  DW_TAG_formal_parameter, DW_AT_name("cs0cs1")
     279                      .dwattr $C$DW$22, DW_AT_TI_symbol_name("_cs0cs1")
     280                      .dwattr $C$DW$22, DW_AT_type(*$C$DW$T$33)
     281                      .dwattr $C$DW$22, DW_AT_location[DW_OP_reg12]
     282              ;*******************************************************************************
     283              ;* FUNCTION NAME: CSL_lcdcGetLiddCsData                                        *
     284              ;*                                                                             *
     285              ;*   Function Uses Regs : T0,AR0,XAR0,AR1,AR2,AR3,XAR3,SP,TC1,M40,SATA,SATD,   *
     286              ;*                        RDM,FRCT,SMUL                                        *
     287              ;*   Stack Frame        : Compact (No Frame Pointer, w/ debug)                 *
     288              ;*   Total Frame Size   : 4 words                                              *
     289              ;*                        (1 return address/alignment)                         *
     290              ;*                        (3 local values)                                     *
     291              ;*   Min System Stack   : 1 word                                               *
     292              ;*******************************************************************************
     293 0000a8       _CSL_lcdcGetLiddCsData:
     294                      .dwcfi  cfa_offset, 1
TMS320C55x Assembler PC v4.4.1 Sat Sep 29 23:09:22 2018

Tools Copyright (c) 1996-2012 Texas Instruments Incorporated
lcdc_panel.asm                                                       PAGE    7

     295                      .dwcfi  save_reg_to_mem, 91, -1
     296 0000a8 4EFD          AADD #-3, SP
     297                      .dwcfi  cfa_offset, 4
     298              $C$DW$23        .dwtag  DW_TAG_variable, DW_AT_name("hLcdc")
     299                      .dwattr $C$DW$23, DW_AT_TI_symbol_name("_hLcdc")
     300                      .dwattr $C$DW$23, DW_AT_type(*$C$DW$T$40)
     301                      .dwattr $C$DW$23, DW_AT_location[DW_OP_bregx 0x24 0]
     302              $C$DW$24        .dwtag  DW_TAG_variable, DW_AT_name("cs0cs1")
     303                      .dwattr $C$DW$24, DW_AT_TI_symbol_name("_cs0cs1")
     304                      .dwattr $C$DW$24, DW_AT_type(*$C$DW$T$33)
     305                      .dwattr $C$DW$24, DW_AT_location[DW_OP_bregx 0x24 2]
     306 0000aa C404          MOV T0, *SP(#2) ; |290| 
     307 0000ac EB00          MOV XAR0, dbl(*SP(#0))
         0000ae 85   
     308                      .dwpsn  file "F:/eZdsp_DBG/tmp1/c55x-sim2/foo/c5535_bsl_revc/ezdsp5535_v1/c55xx_csl/inc/csl_lcdcAux.h
     309              
     310 0000af A904          MOV *SP(#2), AR1 ; |291| 
     311 0000b1 3D0A  ||      MOV #0, AR2
     312              
     313 0000b3 12AC          CMP AR2 != AR1, TC1 ; |291| 
         0000b5 90   
     314 0000b6 6764          BCC $C$L5,TC1 ; |291| 
     315                                                      ; branchcc occurs ; |291| 
     316                      .dwpsn  file "F:/eZdsp_DBG/tmp1/c55x-sim2/foo/c5535_bsl_revc/ezdsp5535_v1/c55xx_csl/inc/csl_lcdcAux.h
     317 0000b8 ED00          MOV dbl(*SP(#0)), XAR3
         0000ba BF   
     318 0000bb 7600          MOV #24, T0 ; |293| 
         0000bd 1848 
     319 0000bf AB61          MOV *AR3, AR3 ; |293| 
     320 0000c1 A46B          MOV port(*AR3(T0)), T0 ; |293| 
         0000c3 99   
     321 0000c4 4A0C          B $C$L6   ; |293| 
     322                                                      ; branch occurs ; |293| 
     323 0000c6       $C$L5:    
     324                      .dwpsn  file "F:/eZdsp_DBG/tmp1/c55x-sim2/foo/c5535_bsl_revc/ezdsp5535_v1/c55xx_csl/inc/csl_lcdcAux.h
     325 0000c6 ED00          MOV dbl(*SP(#0)), XAR3
         0000c8 BF   
     326 0000c9 7600          MOV #36, T0 ; |297| 
         0000cb 2448 
     327 0000cd AB61          MOV *AR3, AR3 ; |297| 
     328 0000cf A46B          MOV port(*AR3(T0)), T0 ; |297| 
         0000d1 99   
     329 0000d2       $C$L6:    
     330                      .dwpsn  file "F:/eZdsp_DBG/tmp1/c55x-sim2/foo/c5535_bsl_revc/ezdsp5535_v1/c55xx_csl/inc/csl_lcdcAux.h
     331 0000d2 4E03          AADD #3, SP
     332                      .dwcfi  cfa_offset, 1
     333              $C$DW$25        .dwtag  DW_TAG_TI_branch
     334                      .dwattr $C$DW$25, DW_AT_low_pc(0x00)
     335                      .dwattr $C$DW$25, DW_AT_TI_return
     336 0000d4 4804          RET
     337                                                      ; return occurs
     338                      .dwattr $C$DW$20, DW_AT_TI_end_file("F:/eZdsp_DBG/tmp1/c55x-sim2/foo/c5535_bsl_revc/ezdsp5535_v1/c55x
     339                      .dwattr $C$DW$20, DW_AT_TI_end_line(0x12b)
     340                      .dwattr $C$DW$20, DW_AT_TI_end_column(0x01)
     341                      .dwendentry
TMS320C55x Assembler PC v4.4.1 Sat Sep 29 23:09:22 2018

Tools Copyright (c) 1996-2012 Texas Instruments Incorporated
lcdc_panel.asm                                                       PAGE    8

     342                      .dwendtag $C$DW$20
     343              
     344 0000d6               .sect   ".text"
     345                      .align 4
     346                      .global _wait
     347              
     348              $C$DW$26        .dwtag  DW_TAG_subprogram, DW_AT_name("wait")
     349                      .dwattr $C$DW$26, DW_AT_low_pc(_wait)
     350                      .dwattr $C$DW$26, DW_AT_high_pc(0x00)
     351                      .dwattr $C$DW$26, DW_AT_TI_symbol_name("_wait")
     352                      .dwattr $C$DW$26, DW_AT_external
     353                      .dwattr $C$DW$26, DW_AT_TI_begin_file("../c5535_bsl_revc/ezdsp5535_v1/c55xx_csl/ccs_v4.0_examples/lcd
     354                      .dwattr $C$DW$26, DW_AT_TI_begin_line(0x1e)
     355                      .dwattr $C$DW$26, DW_AT_TI_begin_column(0x06)
     356                      .dwattr $C$DW$26, DW_AT_TI_max_frame_size(0x04)
     357                      .dwpsn  file "../c5535_bsl_revc/ezdsp5535_v1/c55xx_csl/ccs_v4.0_examples/lcd/CSL_LCDC_DiagramExample/
     358              
     359                      .dwfde $C$DW$CIE, _wait
     360              $C$DW$27        .dwtag  DW_TAG_formal_parameter, DW_AT_name("count")
     361                      .dwattr $C$DW$27, DW_AT_TI_symbol_name("_count")
     362                      .dwattr $C$DW$27, DW_AT_type(*$C$DW$T$41)
     363                      .dwattr $C$DW$27, DW_AT_location[DW_OP_reg0]
     364              ;*******************************************************************************
     365              ;* FUNCTION NAME: wait                                                         *
     366              ;*                                                                             *
     367              ;*   Function Uses Regs : AC0,AC0,AC1,AC1,SP,CARRY,TC1,M40,SATA,SATD,RDM,FRCT, *
     368              ;*                        SMUL                                                 *
     369              ;*   Stack Frame        : Compact (No Frame Pointer, w/ debug)                 *
     370              ;*   Total Frame Size   : 4 words                                              *
     371              ;*                        (1 return address/alignment)                         *
     372              ;*                        (3 local values)                                     *
     373              ;*   Min System Stack   : 1 word                                               *
     374              ;*******************************************************************************
     375 0000d8       _wait:
     376                      .dwcfi  cfa_offset, 1
     377                      .dwcfi  save_reg_to_mem, 91, -1
     378 0000d8 4EFD          AADD #-3, SP
     379                      .dwcfi  cfa_offset, 4
     380              $C$DW$28        .dwtag  DW_TAG_variable, DW_AT_name("count")
     381                      .dwattr $C$DW$28, DW_AT_TI_symbol_name("_count")
     382                      .dwattr $C$DW$28, DW_AT_type(*$C$DW$T$41)
     383                      .dwattr $C$DW$28, DW_AT_location[DW_OP_bregx 0x24 0]
     384              $C$DW$29        .dwtag  DW_TAG_variable, DW_AT_name("i")
     385                      .dwattr $C$DW$29, DW_AT_TI_symbol_name("_i")
     386                      .dwattr $C$DW$29, DW_AT_type(*$C$DW$T$10)
     387                      .dwattr $C$DW$29, DW_AT_location[DW_OP_bregx 0x24 2]
     388 0000da EB00          MOV AC0, dbl(*SP(#0)) ; |31| 
         0000dc 08   
     389                      .dwpsn  file "../c5535_bsl_revc/ezdsp5535_v1/c55xx_csl/ccs_v4.0_examples/lcd/CSL_LCDC_DiagramExample/
     390 0000dd E604          MOV #0, *SP(#2) ; |34| 
         0000df 00   
     391                      .dwpsn  file "../c5535_bsl_revc/ezdsp5535_v1/c55xx_csl/ccs_v4.0_examples/lcd/CSL_LCDC_DiagramExample/
     392 0000e0 A104          MOV *SP(#2), AC1 ; |34| 
     393 0000e2 ED00          MOV dbl(*SP(#0)), AC0 ; |34| 
         0000e4 08   
TMS320C55x Assembler PC v4.4.1 Sat Sep 29 23:09:22 2018

Tools Copyright (c) 1996-2012 Texas Instruments Incorporated
lcdc_panel.asm                                                       PAGE    9

     394 0000e5 1218          CMPU AC1 >= AC0, TC1 ; |34| 
         0000e7 04   
     395 0000e8 0464          BCC $C$L8,TC1 ; |34| 
         0000ea 10   
     396                                                      ; branchcc occurs ; |34| 
     397 0000eb       $C$L7:    
     398 0000eb       $C$DW$L$_wait$2$B:
     399                      .dwpsn  file "../c5535_bsl_revc/ezdsp5535_v1/c55xx_csl/ccs_v4.0_examples/lcd/CSL_LCDC_DiagramExample/
     400 0000eb 20            nop
     401                      .dwpsn  file "../c5535_bsl_revc/ezdsp5535_v1/c55xx_csl/ccs_v4.0_examples/lcd/CSL_LCDC_DiagramExample/
     402 0000ec F704          ADD #1, *SP(#2) ; |34| 
         0000ee 0001 
     403                      .dwpsn  file "../c5535_bsl_revc/ezdsp5535_v1/c55xx_csl/ccs_v4.0_examples/lcd/CSL_LCDC_DiagramExample/
     404 0000f0 ED00          MOV dbl(*SP(#0)), AC0 ; |34| 
         0000f2 08   
     405 0000f3 A104          MOV *SP(#2), AC1 ; |34| 
     406 0000f5 1214          CMPU AC1 < AC0, TC1 ; |34| 
         0000f7 04   
     407 0000f8 0464          BCC $C$L7,TC1 ; |34| 
         0000fa F0   
     408                                                      ; branchcc occurs ; |34| 
     409 0000fb       $C$DW$L$_wait$2$E:
     410                      .dwpsn  file "../c5535_bsl_revc/ezdsp5535_v1/c55xx_csl/ccs_v4.0_examples/lcd/CSL_LCDC_DiagramExample/
     411 0000fb       $C$L8:    
     412 0000fb 4E03          AADD #3, SP
     413                      .dwcfi  cfa_offset, 1
     414              $C$DW$30        .dwtag  DW_TAG_TI_branch
     415                      .dwattr $C$DW$30, DW_AT_low_pc(0x00)
     416                      .dwattr $C$DW$30, DW_AT_TI_return
     417 0000fd 4804          RET
     418                                                      ; return occurs
     419              
     420              $C$DW$31        .dwtag  DW_TAG_TI_loop
     421                      .dwattr $C$DW$31, DW_AT_name("F:\eZdsp_DBG\tmp1\c55x-sim2\foo\Debug\lcdc_panel.asm:$C$L7:1:1538287759
     422                      .dwattr $C$DW$31, DW_AT_TI_begin_file("../c5535_bsl_revc/ezdsp5535_v1/c55xx_csl/ccs_v4.0_examples/lcd
     423                      .dwattr $C$DW$31, DW_AT_TI_begin_line(0x22)
     424                      .dwattr $C$DW$31, DW_AT_TI_end_line(0x23)
     425              $C$DW$32        .dwtag  DW_TAG_TI_loop_range
     426                      .dwattr $C$DW$32, DW_AT_low_pc($C$DW$L$_wait$2$B)
     427                      .dwattr $C$DW$32, DW_AT_high_pc($C$DW$L$_wait$2$E)
     428                      .dwendtag $C$DW$31
     429              
     430                      .dwattr $C$DW$26, DW_AT_TI_end_file("../c5535_bsl_revc/ezdsp5535_v1/c55xx_csl/ccs_v4.0_examples/lcd/C
     431                      .dwattr $C$DW$26, DW_AT_TI_end_line(0x24)
     432                      .dwattr $C$DW$26, DW_AT_TI_end_column(0x01)
     433                      .dwendentry
     434                      .dwendtag $C$DW$26
     435              
     436 0000ff               .sect   ".text"
     437                      .align 4
     438                      .global _DisplayOn
     439              
     440              $C$DW$33        .dwtag  DW_TAG_subprogram, DW_AT_name("DisplayOn")
     441                      .dwattr $C$DW$33, DW_AT_low_pc(_DisplayOn)
     442                      .dwattr $C$DW$33, DW_AT_high_pc(0x00)
TMS320C55x Assembler PC v4.4.1 Sat Sep 29 23:09:22 2018

Tools Copyright (c) 1996-2012 Texas Instruments Incorporated
lcdc_panel.asm                                                       PAGE   10

     443                      .dwattr $C$DW$33, DW_AT_TI_symbol_name("_DisplayOn")
     444                      .dwattr $C$DW$33, DW_AT_external
     445                      .dwattr $C$DW$33, DW_AT_TI_begin_file("../c5535_bsl_revc/ezdsp5535_v1/c55xx_csl/ccs_v4.0_examples/lcd
     446                      .dwattr $C$DW$33, DW_AT_TI_begin_line(0x2d)
     447                      .dwattr $C$DW$33, DW_AT_TI_begin_column(0x06)
     448                      .dwattr $C$DW$33, DW_AT_TI_max_frame_size(0x02)
     449                      .dwpsn  file "../c5535_bsl_revc/ezdsp5535_v1/c55xx_csl/ccs_v4.0_examples/lcd/CSL_LCDC_DiagramExample/
     450              
     451                      .dwfde $C$DW$CIE, _DisplayOn
     452              $C$DW$34        .dwtag  DW_TAG_formal_parameter, DW_AT_name("cs_flag")
     453                      .dwattr $C$DW$34, DW_AT_TI_symbol_name("_cs_flag")
     454                      .dwattr $C$DW$34, DW_AT_type(*$C$DW$T$19)
     455                      .dwattr $C$DW$34, DW_AT_location[DW_OP_reg12]
     456              ;*******************************************************************************
     457              ;* FUNCTION NAME: DisplayOn                                                    *
     458              ;*                                                                             *
     459              ;*   Function Uses Regs : T0,T1,SP,M40,SATA,SATD,RDM,FRCT,SMUL                 *
     460              ;*   Stack Frame        : Compact (No Frame Pointer, w/ debug)                 *
     461              ;*   Total Frame Size   : 2 words                                              *
     462              ;*                        (1 return address/alignment)                         *
     463              ;*                        (1 local values)                                     *
     464              ;*   Min System Stack   : 1 word                                               *
     465              ;*******************************************************************************
     466 000100       _DisplayOn:
     467                      .dwcfi  cfa_offset, 1
     468                      .dwcfi  save_reg_to_mem, 91, -1
     469 000100 4EFF          AADD #-1, SP
     470                      .dwcfi  cfa_offset, 2
     471              $C$DW$35        .dwtag  DW_TAG_variable, DW_AT_name("cs_flag")
     472                      .dwattr $C$DW$35, DW_AT_TI_symbol_name("_cs_flag")
     473                      .dwattr $C$DW$35, DW_AT_type(*$C$DW$T$19)
     474                      .dwattr $C$DW$35, DW_AT_location[DW_OP_bregx 0x24 0]
     475 000102 C400          MOV T0, *SP(#0) ; |47| 
     476                      .dwpsn  file "../c5535_bsl_revc/ezdsp5535_v1/c55xx_csl/ccs_v4.0_examples/lcd/CSL_LCDC_DiagramExample/
     477 000104 7600          MOV #175, T0 ; |48| 
         000106 AF48 
     478 000108 A500          MOV *SP(#0), T1 ; |48| 
     479              $C$DW$36        .dwtag  DW_TAG_TI_branch
     480                      .dwattr $C$DW$36, DW_AT_low_pc(0x00)
     481                      .dwattr $C$DW$36, DW_AT_name("_cmdWrite")
     482                      .dwattr $C$DW$36, DW_AT_TI_call
     483 00010a 0801          CALL #_cmdWrite ; |48| 
         00010c 7B   
     484                                                      ; call occurs [#_cmdWrite] ; |48| 
     485                      .dwpsn  file "../c5535_bsl_revc/ezdsp5535_v1/c55xx_csl/ccs_v4.0_examples/lcd/CSL_LCDC_DiagramExample/
     486 00010d 7600          MOV #166, T0 ; |49| 
         00010f A648 
     487 000111 A500          MOV *SP(#0), T1 ; |49| 
     488              $C$DW$37        .dwtag  DW_TAG_TI_branch
     489                      .dwattr $C$DW$37, DW_AT_low_pc(0x00)
     490                      .dwattr $C$DW$37, DW_AT_name("_cmdWrite")
     491                      .dwattr $C$DW$37, DW_AT_TI_call
     492 000113 0801          CALL #_cmdWrite ; |49| 
         000115 72   
     493                                                      ; call occurs [#_cmdWrite] ; |49| 
TMS320C55x Assembler PC v4.4.1 Sat Sep 29 23:09:22 2018

Tools Copyright (c) 1996-2012 Texas Instruments Incorporated
lcdc_panel.asm                                                       PAGE   11

     494                      .dwpsn  file "../c5535_bsl_revc/ezdsp5535_v1/c55xx_csl/ccs_v4.0_examples/lcd/CSL_LCDC_DiagramExample/
     495 000116 4E01          AADD #1, SP
     496                      .dwcfi  cfa_offset, 1
     497              $C$DW$38        .dwtag  DW_TAG_TI_branch
     498                      .dwattr $C$DW$38, DW_AT_low_pc(0x00)
     499                      .dwattr $C$DW$38, DW_AT_TI_return
     500 000118 4804          RET
     501                                                      ; return occurs
     502                      .dwattr $C$DW$33, DW_AT_TI_end_file("../c5535_bsl_revc/ezdsp5535_v1/c55xx_csl/ccs_v4.0_examples/lcd/C
     503                      .dwattr $C$DW$33, DW_AT_TI_end_line(0x32)
     504                      .dwattr $C$DW$33, DW_AT_TI_end_column(0x01)
     505                      .dwendentry
     506                      .dwendtag $C$DW$33
     507              
     508 00011a               .sect   ".text"
     509                      .align 4
     510                      .global _DisplayOff
     511              
     512              $C$DW$39        .dwtag  DW_TAG_subprogram, DW_AT_name("DisplayOff")
     513                      .dwattr $C$DW$39, DW_AT_low_pc(_DisplayOff)
     514                      .dwattr $C$DW$39, DW_AT_high_pc(0x00)
     515                      .dwattr $C$DW$39, DW_AT_TI_symbol_name("_DisplayOff")
     516                      .dwattr $C$DW$39, DW_AT_external
     517                      .dwattr $C$DW$39, DW_AT_TI_begin_file("../c5535_bsl_revc/ezdsp5535_v1/c55xx_csl/ccs_v4.0_examples/lcd
     518                      .dwattr $C$DW$39, DW_AT_TI_begin_line(0x3a)
     519                      .dwattr $C$DW$39, DW_AT_TI_begin_column(0x06)
     520                      .dwattr $C$DW$39, DW_AT_TI_max_frame_size(0x02)
     521                      .dwpsn  file "../c5535_bsl_revc/ezdsp5535_v1/c55xx_csl/ccs_v4.0_examples/lcd/CSL_LCDC_DiagramExample/
     522              
     523                      .dwfde $C$DW$CIE, _DisplayOff
     524              $C$DW$40        .dwtag  DW_TAG_formal_parameter, DW_AT_name("cs_flag")
     525                      .dwattr $C$DW$40, DW_AT_TI_symbol_name("_cs_flag")
     526                      .dwattr $C$DW$40, DW_AT_type(*$C$DW$T$19)
     527                      .dwattr $C$DW$40, DW_AT_location[DW_OP_reg12]
     528              ;*******************************************************************************
     529              ;* FUNCTION NAME: DisplayOff                                                   *
     530              ;*                                                                             *
     531              ;*   Function Uses Regs : T0,T1,SP,M40,SATA,SATD,RDM,FRCT,SMUL                 *
     532              ;*   Stack Frame        : Compact (No Frame Pointer, w/ debug)                 *
     533              ;*   Total Frame Size   : 2 words                                              *
     534              ;*                        (1 return address/alignment)                         *
     535              ;*                        (1 local values)                                     *
     536              ;*   Min System Stack   : 1 word                                               *
     537              ;*******************************************************************************
     538 00011c       _DisplayOff:
     539                      .dwcfi  cfa_offset, 1
     540                      .dwcfi  save_reg_to_mem, 91, -1
     541 00011c 4EFF          AADD #-1, SP
     542                      .dwcfi  cfa_offset, 2
     543              $C$DW$41        .dwtag  DW_TAG_variable, DW_AT_name("cs_flag")
     544                      .dwattr $C$DW$41, DW_AT_TI_symbol_name("_cs_flag")
     545                      .dwattr $C$DW$41, DW_AT_type(*$C$DW$T$19)
     546                      .dwattr $C$DW$41, DW_AT_location[DW_OP_bregx 0x24 0]
     547 00011e C400          MOV T0, *SP(#0) ; |60| 
     548                      .dwpsn  file "../c5535_bsl_revc/ezdsp5535_v1/c55xx_csl/ccs_v4.0_examples/lcd/CSL_LCDC_DiagramExample/
TMS320C55x Assembler PC v4.4.1 Sat Sep 29 23:09:22 2018

Tools Copyright (c) 1996-2012 Texas Instruments Incorporated
lcdc_panel.asm                                                       PAGE   12

     549 000120 7600          MOV #164, T0 ; |61| 
         000122 A448 
     550 000124 A500          MOV *SP(#0), T1 ; |61| 
     551              $C$DW$42        .dwtag  DW_TAG_TI_branch
     552                      .dwattr $C$DW$42, DW_AT_low_pc(0x00)
     553                      .dwattr $C$DW$42, DW_AT_name("_cmdWrite")
     554                      .dwattr $C$DW$42, DW_AT_TI_call
     555 000126 0801          CALL #_cmdWrite ; |61| 
         000128 5F   
     556                                                      ; call occurs [#_cmdWrite] ; |61| 
     557                      .dwpsn  file "../c5535_bsl_revc/ezdsp5535_v1/c55xx_csl/ccs_v4.0_examples/lcd/CSL_LCDC_DiagramExample/
     558 000129 4E01          AADD #1, SP
     559                      .dwcfi  cfa_offset, 1
     560              $C$DW$43        .dwtag  DW_TAG_TI_branch
     561                      .dwattr $C$DW$43, DW_AT_low_pc(0x00)
     562                      .dwattr $C$DW$43, DW_AT_TI_return
     563 00012b 4804          RET
     564                                                      ; return occurs
     565                      .dwattr $C$DW$39, DW_AT_TI_end_file("../c5535_bsl_revc/ezdsp5535_v1/c55xx_csl/ccs_v4.0_examples/lcd/C
     566                      .dwattr $C$DW$39, DW_AT_TI_end_line(0x3e)
     567                      .dwattr $C$DW$39, DW_AT_TI_end_column(0x01)
     568                      .dwendentry
     569                      .dwendtag $C$DW$39
     570              
     571 00012d               .sect   ".text"
     572                      .align 4
     573                      .global _DisplayColorMode
     574              
     575              $C$DW$44        .dwtag  DW_TAG_subprogram, DW_AT_name("DisplayColorMode")
     576                      .dwattr $C$DW$44, DW_AT_low_pc(_DisplayColorMode)
     577                      .dwattr $C$DW$44, DW_AT_high_pc(0x00)
     578                      .dwattr $C$DW$44, DW_AT_TI_symbol_name("_DisplayColorMode")
     579                      .dwattr $C$DW$44, DW_AT_external
     580                      .dwattr $C$DW$44, DW_AT_TI_begin_file("../c5535_bsl_revc/ezdsp5535_v1/c55xx_csl/ccs_v4.0_examples/lcd
     581                      .dwattr $C$DW$44, DW_AT_TI_begin_line(0x47)
     582                      .dwattr $C$DW$44, DW_AT_TI_begin_column(0x06)
     583                      .dwattr $C$DW$44, DW_AT_TI_max_frame_size(0x04)
     584                      .dwpsn  file "../c5535_bsl_revc/ezdsp5535_v1/c55xx_csl/ccs_v4.0_examples/lcd/CSL_LCDC_DiagramExample/
     585              
     586                      .dwfde $C$DW$CIE, _DisplayColorMode
     587              $C$DW$45        .dwtag  DW_TAG_formal_parameter, DW_AT_name("colorMode")
     588                      .dwattr $C$DW$45, DW_AT_TI_symbol_name("_colorMode")
     589                      .dwattr $C$DW$45, DW_AT_type(*$C$DW$T$35)
     590                      .dwattr $C$DW$45, DW_AT_location[DW_OP_reg12]
     591              $C$DW$46        .dwtag  DW_TAG_formal_parameter, DW_AT_name("cs_flag")
     592                      .dwattr $C$DW$46, DW_AT_TI_symbol_name("_cs_flag")
     593                      .dwattr $C$DW$46, DW_AT_type(*$C$DW$T$19)
     594                      .dwattr $C$DW$46, DW_AT_location[DW_OP_reg13]
     595              ;*******************************************************************************
     596              ;* FUNCTION NAME: DisplayColorMode                                             *
     597              ;*                                                                             *
     598              ;*   Function Uses Regs : T0,T1,AR1,AR2,AR3,SP,CARRY,TC1,M40,SATA,SATD,RDM,    *
     599              ;*                        FRCT,SMUL                                            *
     600              ;*   Stack Frame        : Compact (No Frame Pointer, w/ debug)                 *
     601              ;*   Total Frame Size   : 4 words                                              *
TMS320C55x Assembler PC v4.4.1 Sat Sep 29 23:09:22 2018

Tools Copyright (c) 1996-2012 Texas Instruments Incorporated
lcdc_panel.asm                                                       PAGE   13

     602              ;*                        (1 return address/alignment)                         *
     603              ;*                        (3 local values)                                     *
     604              ;*   Min System Stack   : 1 word                                               *
     605              ;*******************************************************************************
     606 000130       _DisplayColorMode:
     607                      .dwcfi  cfa_offset, 1
     608                      .dwcfi  save_reg_to_mem, 91, -1
     609 000130 4EFD          AADD #-3, SP
     610                      .dwcfi  cfa_offset, 4
     611              $C$DW$47        .dwtag  DW_TAG_variable, DW_AT_name("colorMode")
     612                      .dwattr $C$DW$47, DW_AT_TI_symbol_name("_colorMode")
     613                      .dwattr $C$DW$47, DW_AT_type(*$C$DW$T$35)
     614                      .dwattr $C$DW$47, DW_AT_location[DW_OP_bregx 0x24 0]
     615              $C$DW$48        .dwtag  DW_TAG_variable, DW_AT_name("cs_flag")
     616                      .dwattr $C$DW$48, DW_AT_TI_symbol_name("_cs_flag")
     617                      .dwattr $C$DW$48, DW_AT_type(*$C$DW$T$19)
     618                      .dwattr $C$DW$48, DW_AT_location[DW_OP_bregx 0x24 1]
     619              $C$DW$49        .dwtag  DW_TAG_variable, DW_AT_name("temp")
     620                      .dwattr $C$DW$49, DW_AT_TI_symbol_name("_temp")
     621                      .dwattr $C$DW$49, DW_AT_type(*$C$DW$T$19)
     622                      .dwattr $C$DW$49, DW_AT_location[DW_OP_bregx 0x24 2]
     623 000132 C502          MOV T1, *SP(#1) ; |74| 
     624 000134 C400          MOV T0, *SP(#0) ; |74| 
     625                      .dwpsn  file "../c5535_bsl_revc/ezdsp5535_v1/c55xx_csl/ccs_v4.0_examples/lcd/CSL_LCDC_DiagramExample/
     626 000136 7600          MOV #160, T0 ; |76| 
         000138 A048 
     627 00013a A502          MOV *SP(#1), T1 ; |76| 
     628              $C$DW$50        .dwtag  DW_TAG_TI_branch
     629                      .dwattr $C$DW$50, DW_AT_low_pc(0x00)
     630                      .dwattr $C$DW$50, DW_AT_name("_cmdWrite")
     631                      .dwattr $C$DW$50, DW_AT_TI_call
     632 00013c 0801          CALL #_cmdWrite ; |76| 
         00013e 49   
     633                                                      ; call occurs [#_cmdWrite] ; |76| 
     634                      .dwpsn  file "../c5535_bsl_revc/ezdsp5535_v1/c55xx_csl/ccs_v4.0_examples/lcd/CSL_LCDC_DiagramExample/
     635 00013f F000          CMP *SP(#0) == #3, TC1 ; |77| 
         000141 0003 
     636 000143 65F4          BCC $C$L9,!TC1 ; |77| 
     637                                                      ; branchcc occurs ; |77| 
     638                      .dwpsn  file "../c5535_bsl_revc/ezdsp5535_v1/c55xx_csl/ccs_v4.0_examples/lcd/CSL_LCDC_DiagramExample/
     639 000145 A502          MOV *SP(#1), T1 ; |79| 
     640 000147 7600          MOV #164, T0 ; |79| 
         000149 A448 
     641              $C$DW$51        .dwtag  DW_TAG_TI_branch
     642                      .dwattr $C$DW$51, DW_AT_low_pc(0x00)
     643                      .dwattr $C$DW$51, DW_AT_name("_dataWrite")
     644                      .dwattr $C$DW$51, DW_AT_TI_call
     645 00014b 0801          CALL #_dataWrite ; |79| 
         00014d 52   
     646                                                      ; call occurs [#_dataWrite] ; |79| 
     647                      .dwpsn  file "../c5535_bsl_revc/ezdsp5535_v1/c55xx_csl/ccs_v4.0_examples/lcd/CSL_LCDC_DiagramExample/
     648 00014e 4A3C          B $C$L13  ; |80| 
     649                                                      ; branch occurs ; |80| 
     650 000150       $C$L9:    
     651                      .dwpsn  file "../c5535_bsl_revc/ezdsp5535_v1/c55xx_csl/ccs_v4.0_examples/lcd/CSL_LCDC_DiagramExample/
TMS320C55x Assembler PC v4.4.1 Sat Sep 29 23:09:22 2018

Tools Copyright (c) 1996-2012 Texas Instruments Incorporated
lcdc_panel.asm                                                       PAGE   14

     652 000150 F000          CMP *SP(#0) == #2, TC1 ; |81| 
         000152 0002 
     653 000154 65F4          BCC $C$L10,!TC1 ; |81| 
     654                                                      ; branchcc occurs ; |81| 
     655                      .dwpsn  file "../c5535_bsl_revc/ezdsp5535_v1/c55xx_csl/ccs_v4.0_examples/lcd/CSL_LCDC_DiagramExample/
     656 000156 A502          MOV *SP(#1), T1 ; |83| 
     657 000158 7600          MOV #236, T0 ; |83| 
         00015a EC48 
     658              $C$DW$52        .dwtag  DW_TAG_TI_branch
     659                      .dwattr $C$DW$52, DW_AT_low_pc(0x00)
     660                      .dwattr $C$DW$52, DW_AT_name("_dataWrite")
     661                      .dwattr $C$DW$52, DW_AT_TI_call
     662 00015c 0801          CALL #_dataWrite ; |83| 
         00015e 41   
     663                                                      ; call occurs [#_dataWrite] ; |83| 
     664                      .dwpsn  file "../c5535_bsl_revc/ezdsp5535_v1/c55xx_csl/ccs_v4.0_examples/lcd/CSL_LCDC_DiagramExample/
     665 00015f 4A2B          B $C$L13  ; |84| 
     666                                                      ; branch occurs ; |84| 
     667 000161       $C$L10:    
     668                      .dwpsn  file "../c5535_bsl_revc/ezdsp5535_v1/c55xx_csl/ccs_v4.0_examples/lcd/CSL_LCDC_DiagramExample/
     669 000161 F000          CMP *SP(#0) == #1, TC1 ; |85| 
         000163 0001 
     670 000165 65F4          BCC $C$L11,!TC1 ; |85| 
     671                                                      ; branchcc occurs ; |85| 
     672                      .dwpsn  file "../c5535_bsl_revc/ezdsp5535_v1/c55xx_csl/ccs_v4.0_examples/lcd/CSL_LCDC_DiagramExample/
     673 000167 A502          MOV *SP(#1), T1 ; |87| 
     674 000169 7600          MOV #112, T0 ; |87| 
         00016b 7048 
     675              $C$DW$53        .dwtag  DW_TAG_TI_branch
     676                      .dwattr $C$DW$53, DW_AT_low_pc(0x00)
     677                      .dwattr $C$DW$53, DW_AT_name("_dataWrite")
     678                      .dwattr $C$DW$53, DW_AT_TI_call
     679 00016d 0801          CALL #_dataWrite ; |87| 
         00016f 30   
     680                                                      ; call occurs [#_dataWrite] ; |87| 
     681                      .dwpsn  file "../c5535_bsl_revc/ezdsp5535_v1/c55xx_csl/ccs_v4.0_examples/lcd/CSL_LCDC_DiagramExample/
     682 000170 4A1A          B $C$L13  ; |88| 
     683                                                      ; branch occurs ; |88| 
     684 000172       $C$L11:    
     685                      .dwpsn  file "../c5535_bsl_revc/ezdsp5535_v1/c55xx_csl/ccs_v4.0_examples/lcd/CSL_LCDC_DiagramExample/
     686              
     687 000172 A900          MOV *SP(#0), AR1 ; |91| 
     688 000174 3D4A  ||      MOV #4, AR2
     689              
     690 000176 1298          CMP AR1 >= AR2, TC1 ; |91| 
         000178 A0   
     691              
     692 000179 6164          BCC $C$L12,TC1 ; |91| 
     693 00017b 3D0B  ||      MOV #0, AR3
     694              
     695                                                      ; branchcc occurs ; |91| 
     696 00017d 3C1B          MOV #1, AR3
     697 00017f       $C$L12:    
     698 00017f 7B00          ADD #52, AR3, AR1 ; |91| 
         000181 349B 
TMS320C55x Assembler PC v4.4.1 Sat Sep 29 23:09:22 2018

Tools Copyright (c) 1996-2012 Texas Instruments Incorporated
lcdc_panel.asm                                                       PAGE   15

     699 000183 C904          MOV AR1, *SP(#2) ; |91| 
     700                      .dwpsn  file "../c5535_bsl_revc/ezdsp5535_v1/c55xx_csl/ccs_v4.0_examples/lcd/CSL_LCDC_DiagramExample/
     701 000185 A502          MOV *SP(#1), T1 ; |92| 
     702              $C$DW$54        .dwtag  DW_TAG_TI_branch
     703                      .dwattr $C$DW$54, DW_AT_low_pc(0x00)
     704                      .dwattr $C$DW$54, DW_AT_name("_dataWrite")
     705                      .dwattr $C$DW$54, DW_AT_TI_call
     706              
     707 000187 0801          CALL #_dataWrite ; |92| 
         000189 14   
     708 00018a 2394  ||      MOV AR1, T0
     709              
     710                                                      ; call occurs [#_dataWrite] ; |92| 
     711 00018c       $C$L13:    
     712                      .dwpsn  file "../c5535_bsl_revc/ezdsp5535_v1/c55xx_csl/ccs_v4.0_examples/lcd/CSL_LCDC_DiagramExample/
     713 00018c A502          MOV *SP(#1), T1 ; |94| 
     714 00018e 7600          MOV #166, T0 ; |94| 
         000190 A648 
     715              $C$DW$55        .dwtag  DW_TAG_TI_branch
     716                      .dwattr $C$DW$55, DW_AT_low_pc(0x00)
     717                      .dwattr $C$DW$55, DW_AT_name("_cmdWrite")
     718                      .dwattr $C$DW$55, DW_AT_TI_call
     719 000192 0800          CALL #_cmdWrite ; |94| 
         000194 F3   
     720                                                      ; call occurs [#_cmdWrite] ; |94| 
     721                      .dwpsn  file "../c5535_bsl_revc/ezdsp5535_v1/c55xx_csl/ccs_v4.0_examples/lcd/CSL_LCDC_DiagramExample/
     722 000195 4E03          AADD #3, SP
     723                      .dwcfi  cfa_offset, 1
     724              $C$DW$56        .dwtag  DW_TAG_TI_branch
     725                      .dwattr $C$DW$56, DW_AT_low_pc(0x00)
     726                      .dwattr $C$DW$56, DW_AT_TI_return
     727 000197 4804          RET
     728                                                      ; return occurs
     729                      .dwattr $C$DW$44, DW_AT_TI_end_file("../c5535_bsl_revc/ezdsp5535_v1/c55xx_csl/ccs_v4.0_examples/lcd/C
     730                      .dwattr $C$DW$44, DW_AT_TI_end_line(0x5f)
     731                      .dwattr $C$DW$44, DW_AT_TI_end_column(0x01)
     732                      .dwendentry
     733                      .dwendtag $C$DW$44
     734              
     735 000199               .sect   ".text"
     736                      .align 4
     737                      .global _SetSleep
     738              
     739              $C$DW$57        .dwtag  DW_TAG_subprogram, DW_AT_name("SetSleep")
     740                      .dwattr $C$DW$57, DW_AT_low_pc(_SetSleep)
     741                      .dwattr $C$DW$57, DW_AT_high_pc(0x00)
     742                      .dwattr $C$DW$57, DW_AT_TI_symbol_name("_SetSleep")
     743                      .dwattr $C$DW$57, DW_AT_external
     744                      .dwattr $C$DW$57, DW_AT_TI_begin_file("../c5535_bsl_revc/ezdsp5535_v1/c55xx_csl/ccs_v4.0_examples/lcd
     745                      .dwattr $C$DW$57, DW_AT_TI_begin_line(0x67)
     746                      .dwattr $C$DW$57, DW_AT_TI_begin_column(0x06)
     747                      .dwattr $C$DW$57, DW_AT_TI_max_frame_size(0x02)
     748                      .dwpsn  file "../c5535_bsl_revc/ezdsp5535_v1/c55xx_csl/ccs_v4.0_examples/lcd/CSL_LCDC_DiagramExample/
     749              
     750                      .dwfde $C$DW$CIE, _SetSleep
TMS320C55x Assembler PC v4.4.1 Sat Sep 29 23:09:22 2018

Tools Copyright (c) 1996-2012 Texas Instruments Incorporated
lcdc_panel.asm                                                       PAGE   16

     751              $C$DW$58        .dwtag  DW_TAG_formal_parameter, DW_AT_name("cs_flag")
     752                      .dwattr $C$DW$58, DW_AT_TI_symbol_name("_cs_flag")
     753                      .dwattr $C$DW$58, DW_AT_type(*$C$DW$T$19)
     754                      .dwattr $C$DW$58, DW_AT_location[DW_OP_reg12]
     755              ;*******************************************************************************
     756              ;* FUNCTION NAME: SetSleep                                                     *
     757              ;*                                                                             *
     758              ;*   Function Uses Regs : T0,T1,SP,M40,SATA,SATD,RDM,FRCT,SMUL                 *
     759              ;*   Stack Frame        : Compact (No Frame Pointer, w/ debug)                 *
     760              ;*   Total Frame Size   : 2 words                                              *
     761              ;*                        (1 return address/alignment)                         *
     762              ;*                        (1 local values)                                     *
     763              ;*   Min System Stack   : 1 word                                               *
     764              ;*******************************************************************************
     765 00019c       _SetSleep:
     766                      .dwcfi  cfa_offset, 1
     767                      .dwcfi  save_reg_to_mem, 91, -1
     768 00019c 4EFF          AADD #-1, SP
     769                      .dwcfi  cfa_offset, 2
     770              $C$DW$59        .dwtag  DW_TAG_variable, DW_AT_name("cs_flag")
     771                      .dwattr $C$DW$59, DW_AT_TI_symbol_name("_cs_flag")
     772                      .dwattr $C$DW$59, DW_AT_type(*$C$DW$T$19)
     773                      .dwattr $C$DW$59, DW_AT_location[DW_OP_bregx 0x24 0]
     774 00019e C400          MOV T0, *SP(#0) ; |105| 
     775                      .dwpsn  file "../c5535_bsl_revc/ezdsp5535_v1/c55xx_csl/ccs_v4.0_examples/lcd/CSL_LCDC_DiagramExample/
     776              $C$DW$60        .dwtag  DW_TAG_TI_branch
     777                      .dwattr $C$DW$60, DW_AT_low_pc(0x00)
     778                      .dwattr $C$DW$60, DW_AT_name("_DisplayOff")
     779                      .dwattr $C$DW$60, DW_AT_TI_call
     780 0001a0 08FF          CALL #_DisplayOff ; |107| 
         0001a2 79   
     781                                                      ; call occurs [#_DisplayOff] ; |107| 
     782                      .dwpsn  file "../c5535_bsl_revc/ezdsp5535_v1/c55xx_csl/ccs_v4.0_examples/lcd/CSL_LCDC_DiagramExample/
     783 0001a3 A500          MOV *SP(#0), T1 ; |108| 
     784 0001a5 7600          MOV #174, T0 ; |108| 
         0001a7 AE48 
     785              $C$DW$61        .dwtag  DW_TAG_TI_branch
     786                      .dwattr $C$DW$61, DW_AT_low_pc(0x00)
     787                      .dwattr $C$DW$61, DW_AT_name("_cmdWrite")
     788                      .dwattr $C$DW$61, DW_AT_TI_call
     789 0001a9 0800          CALL #_cmdWrite ; |108| 
         0001ab DC   
     790                                                      ; call occurs [#_cmdWrite] ; |108| 
     791                      .dwpsn  file "../c5535_bsl_revc/ezdsp5535_v1/c55xx_csl/ccs_v4.0_examples/lcd/CSL_LCDC_DiagramExample/
     792 0001ac 4E01          AADD #1, SP
     793                      .dwcfi  cfa_offset, 1
     794              $C$DW$62        .dwtag  DW_TAG_TI_branch
     795                      .dwattr $C$DW$62, DW_AT_low_pc(0x00)
     796                      .dwattr $C$DW$62, DW_AT_TI_return
     797 0001ae 4804          RET
     798                                                      ; return occurs
     799                      .dwattr $C$DW$57, DW_AT_TI_end_file("../c5535_bsl_revc/ezdsp5535_v1/c55xx_csl/ccs_v4.0_examples/lcd/C
     800                      .dwattr $C$DW$57, DW_AT_TI_end_line(0x6d)
     801                      .dwattr $C$DW$57, DW_AT_TI_end_column(0x01)
     802                      .dwendentry
TMS320C55x Assembler PC v4.4.1 Sat Sep 29 23:09:22 2018

Tools Copyright (c) 1996-2012 Texas Instruments Incorporated
lcdc_panel.asm                                                       PAGE   17

     803                      .dwendtag $C$DW$57
     804              
     805 0001b0               .sect   ".text"
     806                      .align 4
     807                      .global _CancelSleep
     808              
     809              $C$DW$63        .dwtag  DW_TAG_subprogram, DW_AT_name("CancelSleep")
     810                      .dwattr $C$DW$63, DW_AT_low_pc(_CancelSleep)
     811                      .dwattr $C$DW$63, DW_AT_high_pc(0x00)
     812                      .dwattr $C$DW$63, DW_AT_TI_symbol_name("_CancelSleep")
     813                      .dwattr $C$DW$63, DW_AT_external
     814                      .dwattr $C$DW$63, DW_AT_TI_begin_file("../c5535_bsl_revc/ezdsp5535_v1/c55xx_csl/ccs_v4.0_examples/lcd
     815                      .dwattr $C$DW$63, DW_AT_TI_begin_line(0x75)
     816                      .dwattr $C$DW$63, DW_AT_TI_begin_column(0x06)
     817                      .dwattr $C$DW$63, DW_AT_TI_max_frame_size(0x02)
     818                      .dwpsn  file "../c5535_bsl_revc/ezdsp5535_v1/c55xx_csl/ccs_v4.0_examples/lcd/CSL_LCDC_DiagramExample/
     819              
     820                      .dwfde $C$DW$CIE, _CancelSleep
     821              $C$DW$64        .dwtag  DW_TAG_formal_parameter, DW_AT_name("cs_flag")
     822                      .dwattr $C$DW$64, DW_AT_TI_symbol_name("_cs_flag")
     823                      .dwattr $C$DW$64, DW_AT_type(*$C$DW$T$19)
     824                      .dwattr $C$DW$64, DW_AT_location[DW_OP_reg12]
     825              ;*******************************************************************************
     826              ;* FUNCTION NAME: CancelSleep                                                  *
     827              ;*                                                                             *
     828              ;*   Function Uses Regs : T0,T1,SP,M40,SATA,SATD,RDM,FRCT,SMUL                 *
     829              ;*   Stack Frame        : Compact (No Frame Pointer, w/ debug)                 *
     830              ;*   Total Frame Size   : 2 words                                              *
     831              ;*                        (1 return address/alignment)                         *
     832              ;*                        (1 local values)                                     *
     833              ;*   Min System Stack   : 1 word                                               *
     834              ;*******************************************************************************
     835 0001b0       _CancelSleep:
     836                      .dwcfi  cfa_offset, 1
     837                      .dwcfi  save_reg_to_mem, 91, -1
     838 0001b0 4EFF          AADD #-1, SP
     839                      .dwcfi  cfa_offset, 2
     840              $C$DW$65        .dwtag  DW_TAG_variable, DW_AT_name("cs_flag")
     841                      .dwattr $C$DW$65, DW_AT_TI_symbol_name("_cs_flag")
     842                      .dwattr $C$DW$65, DW_AT_type(*$C$DW$T$19)
     843                      .dwattr $C$DW$65, DW_AT_location[DW_OP_bregx 0x24 0]
     844 0001b2 C400          MOV T0, *SP(#0) ; |119| 
     845                      .dwpsn  file "../c5535_bsl_revc/ezdsp5535_v1/c55xx_csl/ccs_v4.0_examples/lcd/CSL_LCDC_DiagramExample/
     846 0001b4 7600          MOV #175, T0 ; |120| 
         0001b6 AF48 
     847 0001b8 A500          MOV *SP(#0), T1 ; |120| 
     848              $C$DW$66        .dwtag  DW_TAG_TI_branch
     849                      .dwattr $C$DW$66, DW_AT_low_pc(0x00)
     850                      .dwattr $C$DW$66, DW_AT_name("_cmdWrite")
     851                      .dwattr $C$DW$66, DW_AT_TI_call
     852 0001ba 0800          CALL #_cmdWrite ; |120| 
         0001bc CB   
     853                                                      ; call occurs [#_cmdWrite] ; |120| 
     854                      .dwpsn  file "../c5535_bsl_revc/ezdsp5535_v1/c55xx_csl/ccs_v4.0_examples/lcd/CSL_LCDC_DiagramExample/
     855 0001bd A400          MOV *SP(#0), T0 ; |121| 
TMS320C55x Assembler PC v4.4.1 Sat Sep 29 23:09:22 2018

Tools Copyright (c) 1996-2012 Texas Instruments Incorporated
lcdc_panel.asm                                                       PAGE   18

     856              $C$DW$67        .dwtag  DW_TAG_TI_branch
     857                      .dwattr $C$DW$67, DW_AT_low_pc(0x00)
     858                      .dwattr $C$DW$67, DW_AT_name("_DisplayOn")
     859                      .dwattr $C$DW$67, DW_AT_TI_call
     860 0001bf 08FF          CALL #_DisplayOn ; |121| 
         0001c1 3E   
     861                                                      ; call occurs [#_DisplayOn] ; |121| 
     862                      .dwpsn  file "../c5535_bsl_revc/ezdsp5535_v1/c55xx_csl/ccs_v4.0_examples/lcd/CSL_LCDC_DiagramExample/
     863 0001c2 4E01          AADD #1, SP
     864                      .dwcfi  cfa_offset, 1
     865              $C$DW$68        .dwtag  DW_TAG_TI_branch
     866                      .dwattr $C$DW$68, DW_AT_low_pc(0x00)
     867                      .dwattr $C$DW$68, DW_AT_TI_return
     868 0001c4 4804          RET
     869                                                      ; return occurs
     870                      .dwattr $C$DW$63, DW_AT_TI_end_file("../c5535_bsl_revc/ezdsp5535_v1/c55xx_csl/ccs_v4.0_examples/lcd/C
     871                      .dwattr $C$DW$63, DW_AT_TI_end_line(0x7a)
     872                      .dwattr $C$DW$63, DW_AT_TI_end_column(0x01)
     873                      .dwendentry
     874                      .dwendtag $C$DW$63
     875              
     876 0001c6               .sect   ".text"
     877                      .align 4
     878                      .global _SetPowerMode
     879              
     880              $C$DW$69        .dwtag  DW_TAG_subprogram, DW_AT_name("SetPowerMode")
     881                      .dwattr $C$DW$69, DW_AT_low_pc(_SetPowerMode)
     882                      .dwattr $C$DW$69, DW_AT_high_pc(0x00)
     883                      .dwattr $C$DW$69, DW_AT_TI_symbol_name("_SetPowerMode")
     884                      .dwattr $C$DW$69, DW_AT_external
     885                      .dwattr $C$DW$69, DW_AT_TI_begin_file("../c5535_bsl_revc/ezdsp5535_v1/c55xx_csl/ccs_v4.0_examples/lcd
     886                      .dwattr $C$DW$69, DW_AT_TI_begin_line(0x83)
     887                      .dwattr $C$DW$69, DW_AT_TI_begin_column(0x06)
     888                      .dwattr $C$DW$69, DW_AT_TI_max_frame_size(0x04)
     889                      .dwpsn  file "../c5535_bsl_revc/ezdsp5535_v1/c55xx_csl/ccs_v4.0_examples/lcd/CSL_LCDC_DiagramExample/
     890              
     891                      .dwfde $C$DW$CIE, _SetPowerMode
     892              $C$DW$70        .dwtag  DW_TAG_formal_parameter, DW_AT_name("powerMode")
     893                      .dwattr $C$DW$70, DW_AT_TI_symbol_name("_powerMode")
     894                      .dwattr $C$DW$70, DW_AT_type(*$C$DW$T$37)
     895                      .dwattr $C$DW$70, DW_AT_location[DW_OP_reg12]
     896              $C$DW$71        .dwtag  DW_TAG_formal_parameter, DW_AT_name("cs_flag")
     897                      .dwattr $C$DW$71, DW_AT_TI_symbol_name("_cs_flag")
     898                      .dwattr $C$DW$71, DW_AT_type(*$C$DW$T$19)
     899                      .dwattr $C$DW$71, DW_AT_location[DW_OP_reg13]
     900              ;*******************************************************************************
     901              ;* FUNCTION NAME: SetPowerMode                                                 *
     902              ;*                                                                             *
     903              ;*   Function Uses Regs : T0,T1,SP,M40,SATA,SATD,RDM,FRCT,SMUL                 *
     904              ;*   Stack Frame        : Compact (No Frame Pointer, w/ debug)                 *
     905              ;*   Total Frame Size   : 4 words                                              *
     906              ;*                        (2 return address/alignment)                         *
     907              ;*                        (2 local values)                                     *
     908              ;*   Min System Stack   : 1 word                                               *
     909              ;*******************************************************************************
TMS320C55x Assembler PC v4.4.1 Sat Sep 29 23:09:22 2018

Tools Copyright (c) 1996-2012 Texas Instruments Incorporated
lcdc_panel.asm                                                       PAGE   19

     910 0001c8       _SetPowerMode:
     911                      .dwcfi  cfa_offset, 1
     912                      .dwcfi  save_reg_to_mem, 91, -1
     913 0001c8 4EFD          AADD #-3, SP
     914                      .dwcfi  cfa_offset, 4
     915              $C$DW$72        .dwtag  DW_TAG_variable, DW_AT_name("powerMode")
     916                      .dwattr $C$DW$72, DW_AT_TI_symbol_name("_powerMode")
     917                      .dwattr $C$DW$72, DW_AT_type(*$C$DW$T$37)
     918                      .dwattr $C$DW$72, DW_AT_location[DW_OP_bregx 0x24 0]
     919              $C$DW$73        .dwtag  DW_TAG_variable, DW_AT_name("cs_flag")
     920                      .dwattr $C$DW$73, DW_AT_TI_symbol_name("_cs_flag")
     921                      .dwattr $C$DW$73, DW_AT_type(*$C$DW$T$19)
     922                      .dwattr $C$DW$73, DW_AT_location[DW_OP_bregx 0x24 1]
     923 0001ca C502          MOV T1, *SP(#1) ; |134| 
     924 0001cc C400          MOV T0, *SP(#0) ; |134| 
     925                      .dwpsn  file "../c5535_bsl_revc/ezdsp5535_v1/c55xx_csl/ccs_v4.0_examples/lcd/CSL_LCDC_DiagramExample/
     926 0001ce 7600          MOV #176, T0 ; |135| 
         0001d0 B048 
     927 0001d2 A502          MOV *SP(#1), T1 ; |135| 
     928              $C$DW$74        .dwtag  DW_TAG_TI_branch
     929                      .dwattr $C$DW$74, DW_AT_low_pc(0x00)
     930                      .dwattr $C$DW$74, DW_AT_name("_cmdWrite")
     931                      .dwattr $C$DW$74, DW_AT_TI_call
     932 0001d4 0800          CALL #_cmdWrite ; |135| 
         0001d6 B1   
     933                                                      ; call occurs [#_cmdWrite] ; |135| 
     934                      .dwpsn  file "../c5535_bsl_revc/ezdsp5535_v1/c55xx_csl/ccs_v4.0_examples/lcd/CSL_LCDC_DiagramExample/
     935 0001d7 A400          MOV *SP(#0), T0 ; |136| 
     936 0001d9 A502          MOV *SP(#1), T1 ; |136| 
     937              $C$DW$75        .dwtag  DW_TAG_TI_branch
     938                      .dwattr $C$DW$75, DW_AT_low_pc(0x00)
     939                      .dwattr $C$DW$75, DW_AT_name("_dataWrite")
     940                      .dwattr $C$DW$75, DW_AT_TI_call
     941 0001db 0800          CALL #_dataWrite ; |136| 
         0001dd C2   
     942                                                      ; call occurs [#_dataWrite] ; |136| 
     943                      .dwpsn  file "../c5535_bsl_revc/ezdsp5535_v1/c55xx_csl/ccs_v4.0_examples/lcd/CSL_LCDC_DiagramExample/
     944 0001de 4E03          AADD #3, SP
     945                      .dwcfi  cfa_offset, 1
     946              $C$DW$76        .dwtag  DW_TAG_TI_branch
     947                      .dwattr $C$DW$76, DW_AT_low_pc(0x00)
     948                      .dwattr $C$DW$76, DW_AT_TI_return
     949 0001e0 4804          RET
     950                                                      ; return occurs
     951                      .dwattr $C$DW$69, DW_AT_TI_end_file("../c5535_bsl_revc/ezdsp5535_v1/c55xx_csl/ccs_v4.0_examples/lcd/C
     952                      .dwattr $C$DW$69, DW_AT_TI_end_line(0x89)
     953                      .dwattr $C$DW$69, DW_AT_TI_end_column(0x01)
     954                      .dwendentry
     955                      .dwendtag $C$DW$69
     956              
     957 0001e2               .sect   ".text"
     958                      .align 4
     959                      .global _SetVerticalScrollControl
     960              
     961              $C$DW$77        .dwtag  DW_TAG_subprogram, DW_AT_name("SetVerticalScrollControl")
TMS320C55x Assembler PC v4.4.1 Sat Sep 29 23:09:22 2018

Tools Copyright (c) 1996-2012 Texas Instruments Incorporated
lcdc_panel.asm                                                       PAGE   20

     962                      .dwattr $C$DW$77, DW_AT_low_pc(_SetVerticalScrollControl)
     963                      .dwattr $C$DW$77, DW_AT_high_pc(0x00)
     964                      .dwattr $C$DW$77, DW_AT_TI_symbol_name("_SetVerticalScrollControl")
     965                      .dwattr $C$DW$77, DW_AT_external
     966                      .dwattr $C$DW$77, DW_AT_TI_begin_file("../c5535_bsl_revc/ezdsp5535_v1/c55xx_csl/ccs_v4.0_examples/lcd
     967                      .dwattr $C$DW$77, DW_AT_TI_begin_line(0x92)
     968                      .dwattr $C$DW$77, DW_AT_TI_begin_column(0x06)
     969                      .dwattr $C$DW$77, DW_AT_TI_max_frame_size(0x04)
     970                      .dwpsn  file "../c5535_bsl_revc/ezdsp5535_v1/c55xx_csl/ccs_v4.0_examples/lcd/CSL_LCDC_DiagramExample/
     971              
     972                      .dwfde $C$DW$CIE, _SetVerticalScrollControl
     973              $C$DW$78        .dwtag  DW_TAG_formal_parameter, DW_AT_name("VL")
     974                      .dwattr $C$DW$78, DW_AT_TI_symbol_name("_VL")
     975                      .dwattr $C$DW$78, DW_AT_type(*$C$DW$T$19)
     976                      .dwattr $C$DW$78, DW_AT_location[DW_OP_reg12]
     977              $C$DW$79        .dwtag  DW_TAG_formal_parameter, DW_AT_name("cs_flag")
     978                      .dwattr $C$DW$79, DW_AT_TI_symbol_name("_cs_flag")
     979                      .dwattr $C$DW$79, DW_AT_type(*$C$DW$T$19)
     980                      .dwattr $C$DW$79, DW_AT_location[DW_OP_reg13]
     981              ;*******************************************************************************
     982              ;* FUNCTION NAME: SetVerticalScrollControl                                     *
     983              ;*                                                                             *
     984              ;*   Function Uses Regs : T0,T1,SP,M40,SATA,SATD,RDM,FRCT,SMUL                 *
     985              ;*   Stack Frame        : Compact (No Frame Pointer, w/ debug)                 *
     986              ;*   Total Frame Size   : 4 words                                              *
     987              ;*                        (2 return address/alignment)                         *
     988              ;*                        (2 local values)                                     *
     989              ;*   Min System Stack   : 1 word                                               *
     990              ;*******************************************************************************
     991 0001e4       _SetVerticalScrollControl:
     992                      .dwcfi  cfa_offset, 1
     993                      .dwcfi  save_reg_to_mem, 91, -1
     994 0001e4 4EFD          AADD #-3, SP
     995                      .dwcfi  cfa_offset, 4
     996              $C$DW$80        .dwtag  DW_TAG_variable, DW_AT_name("VL")
     997                      .dwattr $C$DW$80, DW_AT_TI_symbol_name("_VL")
     998                      .dwattr $C$DW$80, DW_AT_type(*$C$DW$T$19)
     999                      .dwattr $C$DW$80, DW_AT_location[DW_OP_bregx 0x24 0]
    1000              $C$DW$81        .dwtag  DW_TAG_variable, DW_AT_name("cs_flag")
    1001                      .dwattr $C$DW$81, DW_AT_TI_symbol_name("_cs_flag")
    1002                      .dwattr $C$DW$81, DW_AT_type(*$C$DW$T$19)
    1003                      .dwattr $C$DW$81, DW_AT_location[DW_OP_bregx 0x24 1]
    1004 0001e6 C502          MOV T1, *SP(#1) ; |149| 
    1005 0001e8 C400          MOV T0, *SP(#0) ; |149| 
    1006                      .dwpsn  file "../c5535_bsl_revc/ezdsp5535_v1/c55xx_csl/ccs_v4.0_examples/lcd/CSL_LCDC_DiagramExample/
    1007 0001ea 7600          MOV #162, T0 ; |150| 
         0001ec A248 
    1008 0001ee A502          MOV *SP(#1), T1 ; |150| 
    1009              $C$DW$82        .dwtag  DW_TAG_TI_branch
    1010                      .dwattr $C$DW$82, DW_AT_low_pc(0x00)
    1011                      .dwattr $C$DW$82, DW_AT_name("_cmdWrite")
    1012                      .dwattr $C$DW$82, DW_AT_TI_call
    1013 0001f0 0800          CALL #_cmdWrite ; |150| 
         0001f2 95   
    1014                                                      ; call occurs [#_cmdWrite] ; |150| 
TMS320C55x Assembler PC v4.4.1 Sat Sep 29 23:09:22 2018

Tools Copyright (c) 1996-2012 Texas Instruments Incorporated
lcdc_panel.asm                                                       PAGE   21

    1015                      .dwpsn  file "../c5535_bsl_revc/ezdsp5535_v1/c55xx_csl/ccs_v4.0_examples/lcd/CSL_LCDC_DiagramExample/
    1016 0001f3 A400          MOV *SP(#0), T0 ; |151| 
    1017 0001f5 A502          MOV *SP(#1), T1 ; |151| 
    1018              $C$DW$83        .dwtag  DW_TAG_TI_branch
    1019                      .dwattr $C$DW$83, DW_AT_low_pc(0x00)
    1020                      .dwattr $C$DW$83, DW_AT_name("_dataWrite")
    1021                      .dwattr $C$DW$83, DW_AT_TI_call
    1022 0001f7 0800          CALL #_dataWrite ; |151| 
         0001f9 A6   
    1023                                                      ; call occurs [#_dataWrite] ; |151| 
    1024                      .dwpsn  file "../c5535_bsl_revc/ezdsp5535_v1/c55xx_csl/ccs_v4.0_examples/lcd/CSL_LCDC_DiagramExample/
    1025 0001fa 4E03          AADD #3, SP
    1026                      .dwcfi  cfa_offset, 1
    1027              $C$DW$84        .dwtag  DW_TAG_TI_branch
    1028                      .dwattr $C$DW$84, DW_AT_low_pc(0x00)
    1029                      .dwattr $C$DW$84, DW_AT_TI_return
    1030 0001fc 4804          RET
    1031                                                      ; return occurs
    1032                      .dwattr $C$DW$77, DW_AT_TI_end_file("../c5535_bsl_revc/ezdsp5535_v1/c55xx_csl/ccs_v4.0_examples/lcd/C
    1033                      .dwattr $C$DW$77, DW_AT_TI_end_line(0x98)
    1034                      .dwattr $C$DW$77, DW_AT_TI_end_column(0x01)
    1035                      .dwendentry
    1036                      .dwendtag $C$DW$77
    1037              
    1038 0001fe               .sect   ".text"
    1039                      .align 4
    1040                      .global _SetHorizontalRAMAddress
    1041              
    1042              $C$DW$85        .dwtag  DW_TAG_subprogram, DW_AT_name("SetHorizontalRAMAddress")
    1043                      .dwattr $C$DW$85, DW_AT_low_pc(_SetHorizontalRAMAddress)
    1044                      .dwattr $C$DW$85, DW_AT_high_pc(0x00)
    1045                      .dwattr $C$DW$85, DW_AT_TI_symbol_name("_SetHorizontalRAMAddress")
    1046                      .dwattr $C$DW$85, DW_AT_external
    1047                      .dwattr $C$DW$85, DW_AT_TI_begin_file("../c5535_bsl_revc/ezdsp5535_v1/c55xx_csl/ccs_v4.0_examples/lcd
    1048                      .dwattr $C$DW$85, DW_AT_TI_begin_line(0xa2)
    1049                      .dwattr $C$DW$85, DW_AT_TI_begin_column(0x06)
    1050                      .dwattr $C$DW$85, DW_AT_TI_max_frame_size(0x04)
    1051                      .dwpsn  file "../c5535_bsl_revc/ezdsp5535_v1/c55xx_csl/ccs_v4.0_examples/lcd/CSL_LCDC_DiagramExample/
    1052              
    1053                      .dwfde $C$DW$CIE, _SetHorizontalRAMAddress
    1054              $C$DW$86        .dwtag  DW_TAG_formal_parameter, DW_AT_name("HStart")
    1055                      .dwattr $C$DW$86, DW_AT_TI_symbol_name("_HStart")
    1056                      .dwattr $C$DW$86, DW_AT_type(*$C$DW$T$19)
    1057                      .dwattr $C$DW$86, DW_AT_location[DW_OP_reg12]
    1058              $C$DW$87        .dwtag  DW_TAG_formal_parameter, DW_AT_name("HEnd")
    1059                      .dwattr $C$DW$87, DW_AT_TI_symbol_name("_HEnd")
    1060                      .dwattr $C$DW$87, DW_AT_type(*$C$DW$T$19)
    1061                      .dwattr $C$DW$87, DW_AT_location[DW_OP_reg13]
    1062              $C$DW$88        .dwtag  DW_TAG_formal_parameter, DW_AT_name("cs_flag")
    1063                      .dwattr $C$DW$88, DW_AT_TI_symbol_name("_cs_flag")
    1064                      .dwattr $C$DW$88, DW_AT_type(*$C$DW$T$19)
    1065                      .dwattr $C$DW$88, DW_AT_location[DW_OP_reg16]
    1066              ;*******************************************************************************
    1067              ;* FUNCTION NAME: SetHorizontalRAMAddress                                      *
    1068              ;*                                                                             *
TMS320C55x Assembler PC v4.4.1 Sat Sep 29 23:09:22 2018

Tools Copyright (c) 1996-2012 Texas Instruments Incorporated
lcdc_panel.asm                                                       PAGE   22

    1069              ;*   Function Uses Regs : T0,T1,AR0,SP,M40,SATA,SATD,RDM,FRCT,SMUL             *
    1070              ;*   Stack Frame        : Compact (No Frame Pointer, w/ debug)                 *
    1071              ;*   Total Frame Size   : 4 words                                              *
    1072              ;*                        (1 return address/alignment)                         *
    1073              ;*                        (3 local values)                                     *
    1074              ;*   Min System Stack   : 1 word                                               *
    1075              ;*******************************************************************************
    1076 000200       _SetHorizontalRAMAddress:
    1077                      .dwcfi  cfa_offset, 1
    1078                      .dwcfi  save_reg_to_mem, 91, -1
    1079 000200 4EFD          AADD #-3, SP
    1080                      .dwcfi  cfa_offset, 4
    1081              $C$DW$89        .dwtag  DW_TAG_variable, DW_AT_name("HStart")
    1082                      .dwattr $C$DW$89, DW_AT_TI_symbol_name("_HStart")
    1083                      .dwattr $C$DW$89, DW_AT_type(*$C$DW$T$19)
    1084                      .dwattr $C$DW$89, DW_AT_location[DW_OP_bregx 0x24 0]
    1085              $C$DW$90        .dwtag  DW_TAG_variable, DW_AT_name("HEnd")
    1086                      .dwattr $C$DW$90, DW_AT_TI_symbol_name("_HEnd")
    1087                      .dwattr $C$DW$90, DW_AT_type(*$C$DW$T$19)
    1088                      .dwattr $C$DW$90, DW_AT_location[DW_OP_bregx 0x24 1]
    1089              $C$DW$91        .dwtag  DW_TAG_variable, DW_AT_name("cs_flag")
    1090                      .dwattr $C$DW$91, DW_AT_TI_symbol_name("_cs_flag")
    1091                      .dwattr $C$DW$91, DW_AT_type(*$C$DW$T$19)
    1092                      .dwattr $C$DW$91, DW_AT_location[DW_OP_bregx 0x24 2]
    1093 000202 C804          MOV AR0, *SP(#2) ; |166| 
    1094 000204 C502          MOV T1, *SP(#1) ; |166| 
    1095 000206 C400          MOV T0, *SP(#0) ; |166| 
    1096                      .dwpsn  file "../c5535_bsl_revc/ezdsp5535_v1/c55xx_csl/ccs_v4.0_examples/lcd/CSL_LCDC_DiagramExample/
    1097 000208 7600          MOV #117, T0 ; |167| 
         00020a 7548 
    1098 00020c A504          MOV *SP(#2), T1 ; |167| 
    1099              $C$DW$92        .dwtag  DW_TAG_TI_branch
    1100                      .dwattr $C$DW$92, DW_AT_low_pc(0x00)
    1101                      .dwattr $C$DW$92, DW_AT_name("_cmdWrite")
    1102                      .dwattr $C$DW$92, DW_AT_TI_call
    1103 00020e 0800          CALL #_cmdWrite ; |167| 
         000210 77   
    1104                                                      ; call occurs [#_cmdWrite] ; |167| 
    1105                      .dwpsn  file "../c5535_bsl_revc/ezdsp5535_v1/c55xx_csl/ccs_v4.0_examples/lcd/CSL_LCDC_DiagramExample/
    1106 000211 A400          MOV *SP(#0), T0 ; |168| 
    1107 000213 A504          MOV *SP(#2), T1 ; |168| 
    1108              $C$DW$93        .dwtag  DW_TAG_TI_branch
    1109                      .dwattr $C$DW$93, DW_AT_low_pc(0x00)
    1110                      .dwattr $C$DW$93, DW_AT_name("_dataWrite")
    1111                      .dwattr $C$DW$93, DW_AT_TI_call
    1112 000215 0800          CALL #_dataWrite ; |168| 
         000217 88   
    1113                                                      ; call occurs [#_dataWrite] ; |168| 
    1114                      .dwpsn  file "../c5535_bsl_revc/ezdsp5535_v1/c55xx_csl/ccs_v4.0_examples/lcd/CSL_LCDC_DiagramExample/
    1115 000218 A402          MOV *SP(#1), T0 ; |169| 
    1116 00021a A504          MOV *SP(#2), T1 ; |169| 
    1117              $C$DW$94        .dwtag  DW_TAG_TI_branch
    1118                      .dwattr $C$DW$94, DW_AT_low_pc(0x00)
    1119                      .dwattr $C$DW$94, DW_AT_name("_dataWrite")
    1120                      .dwattr $C$DW$94, DW_AT_TI_call
TMS320C55x Assembler PC v4.4.1 Sat Sep 29 23:09:22 2018

Tools Copyright (c) 1996-2012 Texas Instruments Incorporated
lcdc_panel.asm                                                       PAGE   23

    1121 00021c 0800          CALL #_dataWrite ; |169| 
         00021e 81   
    1122                                                      ; call occurs [#_dataWrite] ; |169| 
    1123                      .dwpsn  file "../c5535_bsl_revc/ezdsp5535_v1/c55xx_csl/ccs_v4.0_examples/lcd/CSL_LCDC_DiagramExample/
    1124 00021f 4E03          AADD #3, SP
    1125                      .dwcfi  cfa_offset, 1
    1126              $C$DW$95        .dwtag  DW_TAG_TI_branch
    1127                      .dwattr $C$DW$95, DW_AT_low_pc(0x00)
    1128                      .dwattr $C$DW$95, DW_AT_TI_return
    1129 000221 4804          RET
    1130                                                      ; return occurs
    1131                      .dwattr $C$DW$85, DW_AT_TI_end_file("../c5535_bsl_revc/ezdsp5535_v1/c55xx_csl/ccs_v4.0_examples/lcd/C
    1132                      .dwattr $C$DW$85, DW_AT_TI_end_line(0xaa)
    1133                      .dwattr $C$DW$85, DW_AT_TI_end_column(0x01)
    1134                      .dwendentry
    1135                      .dwendtag $C$DW$85
    1136              
    1137 000223               .sect   ".text"
    1138                      .align 4
    1139                      .global _SetVerticalRAMAddress
    1140              
    1141              $C$DW$96        .dwtag  DW_TAG_subprogram, DW_AT_name("SetVerticalRAMAddress")
    1142                      .dwattr $C$DW$96, DW_AT_low_pc(_SetVerticalRAMAddress)
    1143                      .dwattr $C$DW$96, DW_AT_high_pc(0x00)
    1144                      .dwattr $C$DW$96, DW_AT_TI_symbol_name("_SetVerticalRAMAddress")
    1145                      .dwattr $C$DW$96, DW_AT_external
    1146                      .dwattr $C$DW$96, DW_AT_TI_begin_file("../c5535_bsl_revc/ezdsp5535_v1/c55xx_csl/ccs_v4.0_examples/lcd
    1147                      .dwattr $C$DW$96, DW_AT_TI_begin_line(0xb4)
    1148                      .dwattr $C$DW$96, DW_AT_TI_begin_column(0x06)
    1149                      .dwattr $C$DW$96, DW_AT_TI_max_frame_size(0x04)
    1150                      .dwpsn  file "../c5535_bsl_revc/ezdsp5535_v1/c55xx_csl/ccs_v4.0_examples/lcd/CSL_LCDC_DiagramExample/
    1151              
    1152                      .dwfde $C$DW$CIE, _SetVerticalRAMAddress
    1153              $C$DW$97        .dwtag  DW_TAG_formal_parameter, DW_AT_name("VStart")
    1154                      .dwattr $C$DW$97, DW_AT_TI_symbol_name("_VStart")
    1155                      .dwattr $C$DW$97, DW_AT_type(*$C$DW$T$19)
    1156                      .dwattr $C$DW$97, DW_AT_location[DW_OP_reg12]
    1157              $C$DW$98        .dwtag  DW_TAG_formal_parameter, DW_AT_name("VEnd")
    1158                      .dwattr $C$DW$98, DW_AT_TI_symbol_name("_VEnd")
    1159                      .dwattr $C$DW$98, DW_AT_type(*$C$DW$T$19)
    1160                      .dwattr $C$DW$98, DW_AT_location[DW_OP_reg13]
    1161              $C$DW$99        .dwtag  DW_TAG_formal_parameter, DW_AT_name("cs_flag")
    1162                      .dwattr $C$DW$99, DW_AT_TI_symbol_name("_cs_flag")
    1163                      .dwattr $C$DW$99, DW_AT_type(*$C$DW$T$19)
    1164                      .dwattr $C$DW$99, DW_AT_location[DW_OP_reg16]
    1165              ;*******************************************************************************
    1166              ;* FUNCTION NAME: SetVerticalRAMAddress                                        *
    1167              ;*                                                                             *
    1168              ;*   Function Uses Regs : T0,T1,AR0,SP,M40,SATA,SATD,RDM,FRCT,SMUL             *
    1169              ;*   Stack Frame        : Compact (No Frame Pointer, w/ debug)                 *
    1170              ;*   Total Frame Size   : 4 words                                              *
    1171              ;*                        (1 return address/alignment)                         *
    1172              ;*                        (3 local values)                                     *
    1173              ;*   Min System Stack   : 1 word                                               *
    1174              ;*******************************************************************************
TMS320C55x Assembler PC v4.4.1 Sat Sep 29 23:09:22 2018

Tools Copyright (c) 1996-2012 Texas Instruments Incorporated
lcdc_panel.asm                                                       PAGE   24

    1175 000224       _SetVerticalRAMAddress:
    1176                      .dwcfi  cfa_offset, 1
    1177                      .dwcfi  save_reg_to_mem, 91, -1
    1178 000224 4EFD          AADD #-3, SP
    1179                      .dwcfi  cfa_offset, 4
    1180              $C$DW$100       .dwtag  DW_TAG_variable, DW_AT_name("VStart")
    1181                      .dwattr $C$DW$100, DW_AT_TI_symbol_name("_VStart")
    1182                      .dwattr $C$DW$100, DW_AT_type(*$C$DW$T$19)
    1183                      .dwattr $C$DW$100, DW_AT_location[DW_OP_bregx 0x24 0]
    1184              $C$DW$101       .dwtag  DW_TAG_variable, DW_AT_name("VEnd")
    1185                      .dwattr $C$DW$101, DW_AT_TI_symbol_name("_VEnd")
    1186                      .dwattr $C$DW$101, DW_AT_type(*$C$DW$T$19)
    1187                      .dwattr $C$DW$101, DW_AT_location[DW_OP_bregx 0x24 1]
    1188              $C$DW$102       .dwtag  DW_TAG_variable, DW_AT_name("cs_flag")
    1189                      .dwattr $C$DW$102, DW_AT_TI_symbol_name("_cs_flag")
    1190                      .dwattr $C$DW$102, DW_AT_type(*$C$DW$T$19)
    1191                      .dwattr $C$DW$102, DW_AT_location[DW_OP_bregx 0x24 2]
    1192 000226 C804          MOV AR0, *SP(#2) ; |184| 
    1193 000228 C502          MOV T1, *SP(#1) ; |184| 
    1194 00022a C400          MOV T0, *SP(#0) ; |184| 
    1195                      .dwpsn  file "../c5535_bsl_revc/ezdsp5535_v1/c55xx_csl/ccs_v4.0_examples/lcd/CSL_LCDC_DiagramExample/
    1196 00022c 7600          MOV #21, T0 ; |185| 
         00022e 1548 
    1197 000230 A504          MOV *SP(#2), T1 ; |185| 
    1198              $C$DW$103       .dwtag  DW_TAG_TI_branch
    1199                      .dwattr $C$DW$103, DW_AT_low_pc(0x00)
    1200                      .dwattr $C$DW$103, DW_AT_name("_cmdWrite")
    1201                      .dwattr $C$DW$103, DW_AT_TI_call
    1202 000232 0800          CALL #_cmdWrite ; |185| 
         000234 53   
    1203                                                      ; call occurs [#_cmdWrite] ; |185| 
    1204                      .dwpsn  file "../c5535_bsl_revc/ezdsp5535_v1/c55xx_csl/ccs_v4.0_examples/lcd/CSL_LCDC_DiagramExample/
    1205 000235 A400          MOV *SP(#0), T0 ; |186| 
    1206 000237 A504          MOV *SP(#2), T1 ; |186| 
    1207              $C$DW$104       .dwtag  DW_TAG_TI_branch
    1208                      .dwattr $C$DW$104, DW_AT_low_pc(0x00)
    1209                      .dwattr $C$DW$104, DW_AT_name("_dataWrite")
    1210                      .dwattr $C$DW$104, DW_AT_TI_call
    1211 000239 0800          CALL #_dataWrite ; |186| 
         00023b 64   
    1212                                                      ; call occurs [#_dataWrite] ; |186| 
    1213                      .dwpsn  file "../c5535_bsl_revc/ezdsp5535_v1/c55xx_csl/ccs_v4.0_examples/lcd/CSL_LCDC_DiagramExample/
    1214 00023c A402          MOV *SP(#1), T0 ; |187| 
    1215 00023e A504          MOV *SP(#2), T1 ; |187| 
    1216              $C$DW$105       .dwtag  DW_TAG_TI_branch
    1217                      .dwattr $C$DW$105, DW_AT_low_pc(0x00)
    1218                      .dwattr $C$DW$105, DW_AT_name("_dataWrite")
    1219                      .dwattr $C$DW$105, DW_AT_TI_call
    1220 000240 0800          CALL #_dataWrite ; |187| 
         000242 5D   
    1221                                                      ; call occurs [#_dataWrite] ; |187| 
    1222                      .dwpsn  file "../c5535_bsl_revc/ezdsp5535_v1/c55xx_csl/ccs_v4.0_examples/lcd/CSL_LCDC_DiagramExample/
    1223 000243 4E03          AADD #3, SP
    1224                      .dwcfi  cfa_offset, 1
    1225              $C$DW$106       .dwtag  DW_TAG_TI_branch
TMS320C55x Assembler PC v4.4.1 Sat Sep 29 23:09:22 2018

Tools Copyright (c) 1996-2012 Texas Instruments Incorporated
lcdc_panel.asm                                                       PAGE   25

    1226                      .dwattr $C$DW$106, DW_AT_low_pc(0x00)
    1227                      .dwattr $C$DW$106, DW_AT_TI_return
    1228 000245 4804          RET
    1229                                                      ; return occurs
    1230                      .dwattr $C$DW$96, DW_AT_TI_end_file("../c5535_bsl_revc/ezdsp5535_v1/c55xx_csl/ccs_v4.0_examples/lcd/C
    1231                      .dwattr $C$DW$96, DW_AT_TI_end_line(0xbc)
    1232                      .dwattr $C$DW$96, DW_AT_TI_end_column(0x01)
    1233                      .dwendentry
    1234                      .dwendtag $C$DW$96
    1235              
    1236 000247               .sect   ".text"
    1237                      .align 4
    1238                      .global _SetRAMAddress
    1239              
    1240              $C$DW$107       .dwtag  DW_TAG_subprogram, DW_AT_name("SetRAMAddress")
    1241                      .dwattr $C$DW$107, DW_AT_low_pc(_SetRAMAddress)
    1242                      .dwattr $C$DW$107, DW_AT_high_pc(0x00)
    1243                      .dwattr $C$DW$107, DW_AT_TI_symbol_name("_SetRAMAddress")
    1244                      .dwattr $C$DW$107, DW_AT_external
    1245                      .dwattr $C$DW$107, DW_AT_TI_begin_file("../c5535_bsl_revc/ezdsp5535_v1/c55xx_csl/ccs_v4.0_examples/lc
    1246                      .dwattr $C$DW$107, DW_AT_TI_begin_line(0xc8)
    1247                      .dwattr $C$DW$107, DW_AT_TI_begin_column(0x06)
    1248                      .dwattr $C$DW$107, DW_AT_TI_max_frame_size(0x06)
    1249                      .dwpsn  file "../c5535_bsl_revc/ezdsp5535_v1/c55xx_csl/ccs_v4.0_examples/lcd/CSL_LCDC_DiagramExample/
    1250              
    1251                      .dwfde $C$DW$CIE, _SetRAMAddress
    1252              $C$DW$108       .dwtag  DW_TAG_formal_parameter, DW_AT_name("columnStart")
    1253                      .dwattr $C$DW$108, DW_AT_TI_symbol_name("_columnStart")
    1254                      .dwattr $C$DW$108, DW_AT_type(*$C$DW$T$19)
    1255                      .dwattr $C$DW$108, DW_AT_location[DW_OP_reg12]
    1256              $C$DW$109       .dwtag  DW_TAG_formal_parameter, DW_AT_name("columnEnd")
    1257                      .dwattr $C$DW$109, DW_AT_TI_symbol_name("_columnEnd")
    1258                      .dwattr $C$DW$109, DW_AT_type(*$C$DW$T$19)
    1259                      .dwattr $C$DW$109, DW_AT_location[DW_OP_reg13]
    1260              $C$DW$110       .dwtag  DW_TAG_formal_parameter, DW_AT_name("rowStart")
    1261                      .dwattr $C$DW$110, DW_AT_TI_symbol_name("_rowStart")
    1262                      .dwattr $C$DW$110, DW_AT_type(*$C$DW$T$19)
    1263                      .dwattr $C$DW$110, DW_AT_location[DW_OP_reg16]
    1264              $C$DW$111       .dwtag  DW_TAG_formal_parameter, DW_AT_name("rowEnd")
    1265                      .dwattr $C$DW$111, DW_AT_TI_symbol_name("_rowEnd")
    1266                      .dwattr $C$DW$111, DW_AT_type(*$C$DW$T$19)
    1267                      .dwattr $C$DW$111, DW_AT_location[DW_OP_reg18]
    1268              $C$DW$112       .dwtag  DW_TAG_formal_parameter, DW_AT_name("cs_flag")
    1269                      .dwattr $C$DW$112, DW_AT_TI_symbol_name("_cs_flag")
    1270                      .dwattr $C$DW$112, DW_AT_type(*$C$DW$T$19)
    1271                      .dwattr $C$DW$112, DW_AT_location[DW_OP_reg20]
    1272              ;*******************************************************************************
    1273              ;* FUNCTION NAME: SetRAMAddress                                                *
    1274              ;*                                                                             *
    1275              ;*   Function Uses Regs : T0,T1,AR0,AR1,AR2,SP,M40,SATA,SATD,RDM,FRCT,SMUL     *
    1276              ;*   Stack Frame        : Compact (No Frame Pointer, w/ debug)                 *
    1277              ;*   Total Frame Size   : 6 words                                              *
    1278              ;*                        (1 return address/alignment)                         *
    1279              ;*                        (5 local values)                                     *
    1280              ;*   Min System Stack   : 1 word                                               *
TMS320C55x Assembler PC v4.4.1 Sat Sep 29 23:09:22 2018

Tools Copyright (c) 1996-2012 Texas Instruments Incorporated
lcdc_panel.asm                                                       PAGE   26

    1281              ;*******************************************************************************
    1282 000248       _SetRAMAddress:
    1283                      .dwcfi  cfa_offset, 1
    1284                      .dwcfi  save_reg_to_mem, 91, -1
    1285 000248 4EFB          AADD #-5, SP
    1286                      .dwcfi  cfa_offset, 6
    1287              $C$DW$113       .dwtag  DW_TAG_variable, DW_AT_name("columnStart")
    1288                      .dwattr $C$DW$113, DW_AT_TI_symbol_name("_columnStart")
    1289                      .dwattr $C$DW$113, DW_AT_type(*$C$DW$T$19)
    1290                      .dwattr $C$DW$113, DW_AT_location[DW_OP_bregx 0x24 0]
    1291              $C$DW$114       .dwtag  DW_TAG_variable, DW_AT_name("columnEnd")
    1292                      .dwattr $C$DW$114, DW_AT_TI_symbol_name("_columnEnd")
    1293                      .dwattr $C$DW$114, DW_AT_type(*$C$DW$T$19)
    1294                      .dwattr $C$DW$114, DW_AT_location[DW_OP_bregx 0x24 1]
    1295              $C$DW$115       .dwtag  DW_TAG_variable, DW_AT_name("rowStart")
    1296                      .dwattr $C$DW$115, DW_AT_TI_symbol_name("_rowStart")
    1297                      .dwattr $C$DW$115, DW_AT_type(*$C$DW$T$19)
    1298                      .dwattr $C$DW$115, DW_AT_location[DW_OP_bregx 0x24 2]
    1299              $C$DW$116       .dwtag  DW_TAG_variable, DW_AT_name("rowEnd")
    1300                      .dwattr $C$DW$116, DW_AT_TI_symbol_name("_rowEnd")
    1301                      .dwattr $C$DW$116, DW_AT_type(*$C$DW$T$19)
    1302                      .dwattr $C$DW$116, DW_AT_location[DW_OP_bregx 0x24 3]
    1303              $C$DW$117       .dwtag  DW_TAG_variable, DW_AT_name("cs_flag")
    1304                      .dwattr $C$DW$117, DW_AT_TI_symbol_name("_cs_flag")
    1305                      .dwattr $C$DW$117, DW_AT_type(*$C$DW$T$19)
    1306                      .dwattr $C$DW$117, DW_AT_location[DW_OP_bregx 0x24 4]
    1307 00024a CA08          MOV AR2, *SP(#4) ; |206| 
    1308 00024c C906          MOV AR1, *SP(#3) ; |206| 
    1309 00024e C804          MOV AR0, *SP(#2) ; |206| 
    1310 000250 C502          MOV T1, *SP(#1) ; |206| 
    1311 000252 C400          MOV T0, *SP(#0) ; |206| 
    1312                      .dwpsn  file "../c5535_bsl_revc/ezdsp5535_v1/c55xx_csl/ccs_v4.0_examples/lcd/CSL_LCDC_DiagramExample/
    1313 000254 7600          MOV #21, T0 ; |207| 
         000256 1548 
    1314 000258 A508          MOV *SP(#4), T1 ; |207| 
    1315              $C$DW$118       .dwtag  DW_TAG_TI_branch
    1316                      .dwattr $C$DW$118, DW_AT_low_pc(0x00)
    1317                      .dwattr $C$DW$118, DW_AT_name("_cmdWrite")
    1318                      .dwattr $C$DW$118, DW_AT_TI_call
    1319 00025a 0800          CALL #_cmdWrite ; |207| 
         00025c 2B   
    1320                                                      ; call occurs [#_cmdWrite] ; |207| 
    1321                      .dwpsn  file "../c5535_bsl_revc/ezdsp5535_v1/c55xx_csl/ccs_v4.0_examples/lcd/CSL_LCDC_DiagramExample/
    1322 00025d A400          MOV *SP(#0), T0 ; |208| 
    1323 00025f A508          MOV *SP(#4), T1 ; |208| 
    1324              $C$DW$119       .dwtag  DW_TAG_TI_branch
    1325                      .dwattr $C$DW$119, DW_AT_low_pc(0x00)
    1326                      .dwattr $C$DW$119, DW_AT_name("_dataWrite")
    1327                      .dwattr $C$DW$119, DW_AT_TI_call
    1328 000261 0800          CALL #_dataWrite ; |208| 
         000263 3C   
    1329                                                      ; call occurs [#_dataWrite] ; |208| 
    1330                      .dwpsn  file "../c5535_bsl_revc/ezdsp5535_v1/c55xx_csl/ccs_v4.0_examples/lcd/CSL_LCDC_DiagramExample/
    1331 000264 A402          MOV *SP(#1), T0 ; |209| 
    1332 000266 A508          MOV *SP(#4), T1 ; |209| 
TMS320C55x Assembler PC v4.4.1 Sat Sep 29 23:09:22 2018

Tools Copyright (c) 1996-2012 Texas Instruments Incorporated
lcdc_panel.asm                                                       PAGE   27

    1333              $C$DW$120       .dwtag  DW_TAG_TI_branch
    1334                      .dwattr $C$DW$120, DW_AT_low_pc(0x00)
    1335                      .dwattr $C$DW$120, DW_AT_name("_dataWrite")
    1336                      .dwattr $C$DW$120, DW_AT_TI_call
    1337 000268 0800          CALL #_dataWrite ; |209| 
         00026a 35   
    1338                                                      ; call occurs [#_dataWrite] ; |209| 
    1339                      .dwpsn  file "../c5535_bsl_revc/ezdsp5535_v1/c55xx_csl/ccs_v4.0_examples/lcd/CSL_LCDC_DiagramExample/
    1340 00026b 7600          MOV #117, T0 ; |210| 
         00026d 7548 
    1341 00026f A508          MOV *SP(#4), T1 ; |210| 
    1342              $C$DW$121       .dwtag  DW_TAG_TI_branch
    1343                      .dwattr $C$DW$121, DW_AT_low_pc(0x00)
    1344                      .dwattr $C$DW$121, DW_AT_name("_cmdWrite")
    1345                      .dwattr $C$DW$121, DW_AT_TI_call
    1346 000271 0800          CALL #_cmdWrite ; |210| 
         000273 14   
    1347                                                      ; call occurs [#_cmdWrite] ; |210| 
    1348                      .dwpsn  file "../c5535_bsl_revc/ezdsp5535_v1/c55xx_csl/ccs_v4.0_examples/lcd/CSL_LCDC_DiagramExample/
    1349 000274 A404          MOV *SP(#2), T0 ; |211| 
    1350 000276 A508          MOV *SP(#4), T1 ; |211| 
    1351              $C$DW$122       .dwtag  DW_TAG_TI_branch
    1352                      .dwattr $C$DW$122, DW_AT_low_pc(0x00)
    1353                      .dwattr $C$DW$122, DW_AT_name("_dataWrite")
    1354                      .dwattr $C$DW$122, DW_AT_TI_call
    1355 000278 0800          CALL #_dataWrite ; |211| 
         00027a 25   
    1356                                                      ; call occurs [#_dataWrite] ; |211| 
    1357                      .dwpsn  file "../c5535_bsl_revc/ezdsp5535_v1/c55xx_csl/ccs_v4.0_examples/lcd/CSL_LCDC_DiagramExample/
    1358 00027b A406          MOV *SP(#3), T0 ; |212| 
    1359 00027d A508          MOV *SP(#4), T1 ; |212| 
    1360              $C$DW$123       .dwtag  DW_TAG_TI_branch
    1361                      .dwattr $C$DW$123, DW_AT_low_pc(0x00)
    1362                      .dwattr $C$DW$123, DW_AT_name("_dataWrite")
    1363                      .dwattr $C$DW$123, DW_AT_TI_call
    1364 00027f 0800          CALL #_dataWrite ; |212| 
         000281 1E   
    1365                                                      ; call occurs [#_dataWrite] ; |212| 
    1366                      .dwpsn  file "../c5535_bsl_revc/ezdsp5535_v1/c55xx_csl/ccs_v4.0_examples/lcd/CSL_LCDC_DiagramExample/
    1367 000282 4E05          AADD #5, SP
    1368                      .dwcfi  cfa_offset, 1
    1369              $C$DW$124       .dwtag  DW_TAG_TI_branch
    1370                      .dwattr $C$DW$124, DW_AT_low_pc(0x00)
    1371                      .dwattr $C$DW$124, DW_AT_TI_return
    1372 000284 4804          RET
    1373                                                      ; return occurs
    1374                      .dwattr $C$DW$107, DW_AT_TI_end_file("../c5535_bsl_revc/ezdsp5535_v1/c55xx_csl/ccs_v4.0_examples/lcd/
    1375                      .dwattr $C$DW$107, DW_AT_TI_end_line(0xd5)
    1376                      .dwattr $C$DW$107, DW_AT_TI_end_column(0x01)
    1377                      .dwendentry
    1378                      .dwendtag $C$DW$107
    1379              
    1380 000286               .sect   ".text"
    1381                      .align 4
    1382                      .global _cmdWrite
TMS320C55x Assembler PC v4.4.1 Sat Sep 29 23:09:22 2018

Tools Copyright (c) 1996-2012 Texas Instruments Incorporated
lcdc_panel.asm                                                       PAGE   28

    1383              
    1384              $C$DW$125       .dwtag  DW_TAG_subprogram, DW_AT_name("cmdWrite")
    1385                      .dwattr $C$DW$125, DW_AT_low_pc(_cmdWrite)
    1386                      .dwattr $C$DW$125, DW_AT_high_pc(0x00)
    1387                      .dwattr $C$DW$125, DW_AT_TI_symbol_name("_cmdWrite")
    1388                      .dwattr $C$DW$125, DW_AT_external
    1389                      .dwattr $C$DW$125, DW_AT_TI_begin_file("../c5535_bsl_revc/ezdsp5535_v1/c55xx_csl/ccs_v4.0_examples/lc
    1390                      .dwattr $C$DW$125, DW_AT_TI_begin_line(0xde)
    1391                      .dwattr $C$DW$125, DW_AT_TI_begin_column(0x06)
    1392                      .dwattr $C$DW$125, DW_AT_TI_max_frame_size(0x04)
    1393                      .dwpsn  file "../c5535_bsl_revc/ezdsp5535_v1/c55xx_csl/ccs_v4.0_examples/lcd/CSL_LCDC_DiagramExample/
    1394              
    1395                      .dwfde $C$DW$CIE, _cmdWrite
    1396              $C$DW$126       .dwtag  DW_TAG_formal_parameter, DW_AT_name("cmd")
    1397                      .dwattr $C$DW$126, DW_AT_TI_symbol_name("_cmd")
    1398                      .dwattr $C$DW$126, DW_AT_type(*$C$DW$T$19)
    1399                      .dwattr $C$DW$126, DW_AT_location[DW_OP_reg12]
    1400              $C$DW$127       .dwtag  DW_TAG_formal_parameter, DW_AT_name("cs_flag")
    1401                      .dwattr $C$DW$127, DW_AT_TI_symbol_name("_cs_flag")
    1402                      .dwattr $C$DW$127, DW_AT_type(*$C$DW$T$19)
    1403                      .dwattr $C$DW$127, DW_AT_location[DW_OP_reg13]
    1404              ;*******************************************************************************
    1405              ;* FUNCTION NAME: cmdWrite                                                     *
    1406              ;*                                                                             *
    1407              ;*   Function Uses Regs : AC0,AC0,T0,T1,AR0,XAR0,SP,M40,SATA,SATD,RDM,FRCT,    *
    1408              ;*                        SMUL                                                 *
    1409              ;*   Stack Frame        : Compact (No Frame Pointer, w/ debug)                 *
    1410              ;*   Total Frame Size   : 4 words                                              *
    1411              ;*                        (2 return address/alignment)                         *
    1412              ;*                        (2 local values)                                     *
    1413              ;*   Min System Stack   : 1 word                                               *
    1414              ;*******************************************************************************
    1415 000288       _cmdWrite:
    1416                      .dwcfi  cfa_offset, 1
    1417                      .dwcfi  save_reg_to_mem, 91, -1
    1418 000288 4EFD          AADD #-3, SP
    1419                      .dwcfi  cfa_offset, 4
    1420              $C$DW$128       .dwtag  DW_TAG_variable, DW_AT_name("cmd")
    1421                      .dwattr $C$DW$128, DW_AT_TI_symbol_name("_cmd")
    1422                      .dwattr $C$DW$128, DW_AT_type(*$C$DW$T$19)
    1423                      .dwattr $C$DW$128, DW_AT_location[DW_OP_bregx 0x24 0]
    1424              $C$DW$129       .dwtag  DW_TAG_variable, DW_AT_name("cs_flag")
    1425                      .dwattr $C$DW$129, DW_AT_TI_symbol_name("_cs_flag")
    1426                      .dwattr $C$DW$129, DW_AT_type(*$C$DW$T$19)
    1427                      .dwattr $C$DW$129, DW_AT_location[DW_OP_bregx 0x24 1]
    1428 00028a C502          MOV T1, *SP(#1) ; |225| 
    1429 00028c C400          MOV T0, *SP(#0) ; |225| 
    1430                      .dwpsn  file "../c5535_bsl_revc/ezdsp5535_v1/c55xx_csl/ccs_v4.0_examples/lcd/CSL_LCDC_DiagramExample/
    1431 00028e ED31          MOV dbl(*(#_hLcdc)), XAR0
         000290 8F00 
         000292 0000!
    1432 000294 DF00          MOV uns(*SP(#0)), AC0 ; |226| 
         000296 05   
    1433 000297 A402          MOV *SP(#1), T0 ; |226| 
    1434              $C$DW$130       .dwtag  DW_TAG_TI_branch
TMS320C55x Assembler PC v4.4.1 Sat Sep 29 23:09:22 2018

Tools Copyright (c) 1996-2012 Texas Instruments Incorporated
lcdc_panel.asm                                                       PAGE   29

    1435                      .dwattr $C$DW$130, DW_AT_low_pc(0x00)
    1436                      .dwattr $C$DW$130, DW_AT_name("_CSL_lcdcLiddWriteCsAddr")
    1437                      .dwattr $C$DW$130, DW_AT_TI_call
    1438 000299 08FD          CALL #_CSL_lcdcLiddWriteCsAddr ; |226| 
         00029b 64   
    1439                                                      ; call occurs [#_CSL_lcdcLiddWriteCsAddr] ; |226| 
    1440                      .dwpsn  file "../c5535_bsl_revc/ezdsp5535_v1/c55xx_csl/ccs_v4.0_examples/lcd/CSL_LCDC_DiagramExample/
    1441 00029c 4E03          AADD #3, SP
    1442                      .dwcfi  cfa_offset, 1
    1443              $C$DW$131       .dwtag  DW_TAG_TI_branch
    1444                      .dwattr $C$DW$131, DW_AT_low_pc(0x00)
    1445                      .dwattr $C$DW$131, DW_AT_TI_return
    1446 00029e 4804          RET
    1447                                                      ; return occurs
    1448                      .dwattr $C$DW$125, DW_AT_TI_end_file("../c5535_bsl_revc/ezdsp5535_v1/c55xx_csl/ccs_v4.0_examples/lcd/
    1449                      .dwattr $C$DW$125, DW_AT_TI_end_line(0xe3)
    1450                      .dwattr $C$DW$125, DW_AT_TI_end_column(0x01)
    1451                      .dwendentry
    1452                      .dwendtag $C$DW$125
    1453              
    1454 0002a0               .sect   ".text"
    1455                      .align 4
    1456                      .global _dataWrite
    1457              
    1458              $C$DW$132       .dwtag  DW_TAG_subprogram, DW_AT_name("dataWrite")
    1459                      .dwattr $C$DW$132, DW_AT_low_pc(_dataWrite)
    1460                      .dwattr $C$DW$132, DW_AT_high_pc(0x00)
    1461                      .dwattr $C$DW$132, DW_AT_TI_symbol_name("_dataWrite")
    1462                      .dwattr $C$DW$132, DW_AT_external
    1463                      .dwattr $C$DW$132, DW_AT_TI_begin_file("../c5535_bsl_revc/ezdsp5535_v1/c55xx_csl/ccs_v4.0_examples/lc
    1464                      .dwattr $C$DW$132, DW_AT_TI_begin_line(0xf4)
    1465                      .dwattr $C$DW$132, DW_AT_TI_begin_column(0x06)
    1466                      .dwattr $C$DW$132, DW_AT_TI_max_frame_size(0x04)
    1467                      .dwpsn  file "../c5535_bsl_revc/ezdsp5535_v1/c55xx_csl/ccs_v4.0_examples/lcd/CSL_LCDC_DiagramExample/
    1468              
    1469                      .dwfde $C$DW$CIE, _dataWrite
    1470              $C$DW$133       .dwtag  DW_TAG_formal_parameter, DW_AT_name("data")
    1471                      .dwattr $C$DW$133, DW_AT_TI_symbol_name("_data")
    1472                      .dwattr $C$DW$133, DW_AT_type(*$C$DW$T$19)
    1473                      .dwattr $C$DW$133, DW_AT_location[DW_OP_reg12]
    1474              $C$DW$134       .dwtag  DW_TAG_formal_parameter, DW_AT_name("cs_flag")
    1475                      .dwattr $C$DW$134, DW_AT_TI_symbol_name("_cs_flag")
    1476                      .dwattr $C$DW$134, DW_AT_type(*$C$DW$T$19)
    1477                      .dwattr $C$DW$134, DW_AT_location[DW_OP_reg13]
    1478              ;*******************************************************************************
    1479              ;* FUNCTION NAME: dataWrite                                                    *
    1480              ;*                                                                             *
    1481              ;*   Function Uses Regs : T0,T1,AR1,SP,M40,SATA,SATD,RDM,FRCT,SMUL             *
    1482              ;*   Stack Frame        : Compact (No Frame Pointer, w/ debug)                 *
    1483              ;*   Total Frame Size   : 4 words                                              *
    1484              ;*                        (2 return address/alignment)                         *
    1485              ;*                        (2 local values)                                     *
    1486              ;*   Min System Stack   : 1 word                                               *
    1487              ;*******************************************************************************
    1488 0002a0       _dataWrite:
TMS320C55x Assembler PC v4.4.1 Sat Sep 29 23:09:22 2018

Tools Copyright (c) 1996-2012 Texas Instruments Incorporated
lcdc_panel.asm                                                       PAGE   30

    1489                      .dwcfi  cfa_offset, 1
    1490                      .dwcfi  save_reg_to_mem, 91, -1
    1491 0002a0 4EFD          AADD #-3, SP
    1492                      .dwcfi  cfa_offset, 4
    1493              $C$DW$135       .dwtag  DW_TAG_variable, DW_AT_name("data")
    1494                      .dwattr $C$DW$135, DW_AT_TI_symbol_name("_data")
    1495                      .dwattr $C$DW$135, DW_AT_type(*$C$DW$T$19)
    1496                      .dwattr $C$DW$135, DW_AT_location[DW_OP_bregx 0x24 0]
    1497              $C$DW$136       .dwtag  DW_TAG_variable, DW_AT_name("cs_flag")
    1498                      .dwattr $C$DW$136, DW_AT_TI_symbol_name("_cs_flag")
    1499                      .dwattr $C$DW$136, DW_AT_type(*$C$DW$T$19)
    1500                      .dwattr $C$DW$136, DW_AT_location[DW_OP_bregx 0x24 1]
    1501 0002a2 C502          MOV T1, *SP(#1) ; |247| 
    1502 0002a4 C400          MOV T0, *SP(#0) ; |247| 
    1503                      .dwpsn  file "../c5535_bsl_revc/ezdsp5535_v1/c55xx_csl/ccs_v4.0_examples/lcd/CSL_LCDC_DiagramExample/
    1504 0002a6 A902          MOV *SP(#1), AR1 ; |248| 
    1505 0002a8 6419          BCC $C$L14,AR1 != #0 ; |248| 
    1506                                                      ; branchcc occurs ; |248| 
    1507                      .dwpsn  file "../c5535_bsl_revc/ezdsp5535_v1/c55xx_csl/ccs_v4.0_examples/lcd/CSL_LCDC_DiagramExample/
    1508 0002aa 2249          MOV T0, AR1
    1509 0002ac C951          MOV AR1, *port(#11800) ; |249| 
         0002ae 2E18 
    1510                      .dwpsn  file "../c5535_bsl_revc/ezdsp5535_v1/c55xx_csl/ccs_v4.0_examples/lcd/CSL_LCDC_DiagramExample/
    1511 0002b0 4A06          B $C$L15  ; |250| 
    1512                                                      ; branch occurs ; |250| 
    1513 0002b2       $C$L14:    
    1514                      .dwpsn  file "../c5535_bsl_revc/ezdsp5535_v1/c55xx_csl/ccs_v4.0_examples/lcd/CSL_LCDC_DiagramExample/
    1515 0002b2 2249          MOV T0, AR1
    1516 0002b4 C951          MOV AR1, *port(#11812) ; |252| 
         0002b6 2E24 
    1517                      .dwpsn  file "../c5535_bsl_revc/ezdsp5535_v1/c55xx_csl/ccs_v4.0_examples/lcd/CSL_LCDC_DiagramExample/
    1518 0002b8       $C$L15:    
    1519 0002b8 4E03          AADD #3, SP
    1520                      .dwcfi  cfa_offset, 1
    1521              $C$DW$137       .dwtag  DW_TAG_TI_branch
    1522                      .dwattr $C$DW$137, DW_AT_low_pc(0x00)
    1523                      .dwattr $C$DW$137, DW_AT_TI_return
    1524 0002ba 4804          RET
    1525                                                      ; return occurs
    1526                      .dwattr $C$DW$132, DW_AT_TI_end_file("../c5535_bsl_revc/ezdsp5535_v1/c55xx_csl/ccs_v4.0_examples/lcd/
    1527                      .dwattr $C$DW$132, DW_AT_TI_end_line(0xfe)
    1528                      .dwattr $C$DW$132, DW_AT_TI_end_column(0x01)
    1529                      .dwendentry
    1530                      .dwendtag $C$DW$132
    1531              
    1532 0002bc               .sect   ".text"
    1533                      .align 4
    1534                      .global _WriteCmd
    1535              
    1536              $C$DW$138       .dwtag  DW_TAG_subprogram, DW_AT_name("WriteCmd")
    1537                      .dwattr $C$DW$138, DW_AT_low_pc(_WriteCmd)
    1538                      .dwattr $C$DW$138, DW_AT_high_pc(0x00)
    1539                      .dwattr $C$DW$138, DW_AT_TI_symbol_name("_WriteCmd")
    1540                      .dwattr $C$DW$138, DW_AT_external
    1541                      .dwattr $C$DW$138, DW_AT_TI_begin_file("../c5535_bsl_revc/ezdsp5535_v1/c55xx_csl/ccs_v4.0_examples/lc
TMS320C55x Assembler PC v4.4.1 Sat Sep 29 23:09:22 2018

Tools Copyright (c) 1996-2012 Texas Instruments Incorporated
lcdc_panel.asm                                                       PAGE   31

    1542                      .dwattr $C$DW$138, DW_AT_TI_begin_line(0x108)
    1543                      .dwattr $C$DW$138, DW_AT_TI_begin_column(0x06)
    1544                      .dwattr $C$DW$138, DW_AT_TI_max_frame_size(0x04)
    1545                      .dwpsn  file "../c5535_bsl_revc/ezdsp5535_v1/c55xx_csl/ccs_v4.0_examples/lcd/CSL_LCDC_DiagramExample/
    1546              
    1547                      .dwfde $C$DW$CIE, _WriteCmd
    1548              $C$DW$139       .dwtag  DW_TAG_formal_parameter, DW_AT_name("cmd")
    1549                      .dwattr $C$DW$139, DW_AT_TI_symbol_name("_cmd")
    1550                      .dwattr $C$DW$139, DW_AT_type(*$C$DW$T$19)
    1551                      .dwattr $C$DW$139, DW_AT_location[DW_OP_reg12]
    1552              $C$DW$140       .dwtag  DW_TAG_formal_parameter, DW_AT_name("data")
    1553                      .dwattr $C$DW$140, DW_AT_TI_symbol_name("_data")
    1554                      .dwattr $C$DW$140, DW_AT_type(*$C$DW$T$19)
    1555                      .dwattr $C$DW$140, DW_AT_location[DW_OP_reg13]
    1556              $C$DW$141       .dwtag  DW_TAG_formal_parameter, DW_AT_name("cs_flag")
    1557                      .dwattr $C$DW$141, DW_AT_TI_symbol_name("_cs_flag")
    1558                      .dwattr $C$DW$141, DW_AT_type(*$C$DW$T$19)
    1559                      .dwattr $C$DW$141, DW_AT_location[DW_OP_reg16]
    1560              ;*******************************************************************************
    1561              ;* FUNCTION NAME: WriteCmd                                                     *
    1562              ;*                                                                             *
    1563              ;*   Function Uses Regs : AC0,AC0,T0,T1,AR0,XAR0,SP,M40,SATA,SATD,RDM,FRCT,    *
    1564              ;*                        SMUL                                                 *
    1565              ;*   Stack Frame        : Compact (No Frame Pointer, w/ debug)                 *
    1566              ;*   Total Frame Size   : 4 words                                              *
    1567              ;*                        (1 return address/alignment)                         *
    1568              ;*                        (3 local values)                                     *
    1569              ;*   Min System Stack   : 1 word                                               *
    1570              ;*******************************************************************************
    1571 0002bc       _WriteCmd:
    1572                      .dwcfi  cfa_offset, 1
    1573                      .dwcfi  save_reg_to_mem, 91, -1
    1574 0002bc 4EFD          AADD #-3, SP
    1575                      .dwcfi  cfa_offset, 4
    1576              $C$DW$142       .dwtag  DW_TAG_variable, DW_AT_name("cmd")
    1577                      .dwattr $C$DW$142, DW_AT_TI_symbol_name("_cmd")
    1578                      .dwattr $C$DW$142, DW_AT_type(*$C$DW$T$19)
    1579                      .dwattr $C$DW$142, DW_AT_location[DW_OP_bregx 0x24 0]
    1580              $C$DW$143       .dwtag  DW_TAG_variable, DW_AT_name("data")
    1581                      .dwattr $C$DW$143, DW_AT_TI_symbol_name("_data")
    1582                      .dwattr $C$DW$143, DW_AT_type(*$C$DW$T$19)
    1583                      .dwattr $C$DW$143, DW_AT_location[DW_OP_bregx 0x24 1]
    1584              $C$DW$144       .dwtag  DW_TAG_variable, DW_AT_name("cs_flag")
    1585                      .dwattr $C$DW$144, DW_AT_TI_symbol_name("_cs_flag")
    1586                      .dwattr $C$DW$144, DW_AT_type(*$C$DW$T$19)
    1587                      .dwattr $C$DW$144, DW_AT_location[DW_OP_bregx 0x24 2]
    1588 0002be C804          MOV AR0, *SP(#2) ; |268| 
    1589 0002c0 C502          MOV T1, *SP(#1) ; |268| 
    1590 0002c2 C400          MOV T0, *SP(#0) ; |268| 
    1591                      .dwpsn  file "../c5535_bsl_revc/ezdsp5535_v1/c55xx_csl/ccs_v4.0_examples/lcd/CSL_LCDC_DiagramExample/
    1592 0002c4 ED31          MOV dbl(*(#_hLcdc)), XAR0
         0002c6 8F00 
         0002c8 0000!
    1593 0002ca DF00          MOV uns(*SP(#0)), AC0 ; |269| 
         0002cc 05   
TMS320C55x Assembler PC v4.4.1 Sat Sep 29 23:09:22 2018

Tools Copyright (c) 1996-2012 Texas Instruments Incorporated
lcdc_panel.asm                                                       PAGE   32

    1594 0002cd A404          MOV *SP(#2), T0 ; |269| 
    1595              $C$DW$145       .dwtag  DW_TAG_TI_branch
    1596                      .dwattr $C$DW$145, DW_AT_low_pc(0x00)
    1597                      .dwattr $C$DW$145, DW_AT_name("_CSL_lcdcLiddWriteCsAddr")
    1598                      .dwattr $C$DW$145, DW_AT_TI_call
    1599 0002cf 08FD          CALL #_CSL_lcdcLiddWriteCsAddr ; |269| 
         0002d1 2E   
    1600                                                      ; call occurs [#_CSL_lcdcLiddWriteCsAddr] ; |269| 
    1601                      .dwpsn  file "../c5535_bsl_revc/ezdsp5535_v1/c55xx_csl/ccs_v4.0_examples/lcd/CSL_LCDC_DiagramExample/
    1602 0002d2 A502          MOV *SP(#1), T1 ; |270| 
    1603 0002d4 A404          MOV *SP(#2), T0 ; |270| 
    1604 0002d6 ED31          MOV dbl(*(#_hLcdc)), XAR0
         0002d8 8F00 
         0002da 0000!
    1605              $C$DW$146       .dwtag  DW_TAG_TI_branch
    1606                      .dwattr $C$DW$146, DW_AT_low_pc(0x00)
    1607                      .dwattr $C$DW$146, DW_AT_name("_CSL_lcdcLiddWriteCsData")
    1608                      .dwattr $C$DW$146, DW_AT_TI_call
    1609 0002dc 08FD          CALL #_CSL_lcdcLiddWriteCsData ; |270| 
         0002de 7D   
    1610                                                      ; call occurs [#_CSL_lcdcLiddWriteCsData] ; |270| 
    1611                      .dwpsn  file "../c5535_bsl_revc/ezdsp5535_v1/c55xx_csl/ccs_v4.0_examples/lcd/CSL_LCDC_DiagramExample/
    1612 0002df 4E03          AADD #3, SP
    1613                      .dwcfi  cfa_offset, 1
    1614              $C$DW$147       .dwtag  DW_TAG_TI_branch
    1615                      .dwattr $C$DW$147, DW_AT_low_pc(0x00)
    1616                      .dwattr $C$DW$147, DW_AT_TI_return
    1617 0002e1 4804          RET
    1618                                                      ; return occurs
    1619                      .dwattr $C$DW$138, DW_AT_TI_end_file("../c5535_bsl_revc/ezdsp5535_v1/c55xx_csl/ccs_v4.0_examples/lcd/
    1620                      .dwattr $C$DW$138, DW_AT_TI_end_line(0x10f)
    1621                      .dwattr $C$DW$138, DW_AT_TI_end_column(0x01)
    1622                      .dwendentry
    1623                      .dwendtag $C$DW$138
    1624              
    1625 0002e3               .sect   ".text"
    1626                      .align 4
    1627                      .global _WriteData
    1628              
    1629              $C$DW$148       .dwtag  DW_TAG_subprogram, DW_AT_name("WriteData")
    1630                      .dwattr $C$DW$148, DW_AT_low_pc(_WriteData)
    1631                      .dwattr $C$DW$148, DW_AT_high_pc(0x00)
    1632                      .dwattr $C$DW$148, DW_AT_TI_symbol_name("_WriteData")
    1633                      .dwattr $C$DW$148, DW_AT_external
    1634                      .dwattr $C$DW$148, DW_AT_TI_begin_file("../c5535_bsl_revc/ezdsp5535_v1/c55xx_csl/ccs_v4.0_examples/lc
    1635                      .dwattr $C$DW$148, DW_AT_TI_begin_line(0x119)
    1636                      .dwattr $C$DW$148, DW_AT_TI_begin_column(0x06)
    1637                      .dwattr $C$DW$148, DW_AT_TI_max_frame_size(0x06)
    1638                      .dwpsn  file "../c5535_bsl_revc/ezdsp5535_v1/c55xx_csl/ccs_v4.0_examples/lcd/CSL_LCDC_DiagramExample/
    1639              
    1640                      .dwfde $C$DW$CIE, _WriteData
    1641              $C$DW$149       .dwtag  DW_TAG_formal_parameter, DW_AT_name("uByte")
    1642                      .dwattr $C$DW$149, DW_AT_TI_symbol_name("_uByte")
    1643                      .dwattr $C$DW$149, DW_AT_type(*$C$DW$T$19)
    1644                      .dwattr $C$DW$149, DW_AT_location[DW_OP_reg12]
TMS320C55x Assembler PC v4.4.1 Sat Sep 29 23:09:22 2018

Tools Copyright (c) 1996-2012 Texas Instruments Incorporated
lcdc_panel.asm                                                       PAGE   33

    1645              $C$DW$150       .dwtag  DW_TAG_formal_parameter, DW_AT_name("lByte")
    1646                      .dwattr $C$DW$150, DW_AT_TI_symbol_name("_lByte")
    1647                      .dwattr $C$DW$150, DW_AT_type(*$C$DW$T$19)
    1648                      .dwattr $C$DW$150, DW_AT_location[DW_OP_reg13]
    1649              $C$DW$151       .dwtag  DW_TAG_formal_parameter, DW_AT_name("cs_flag")
    1650                      .dwattr $C$DW$151, DW_AT_TI_symbol_name("_cs_flag")
    1651                      .dwattr $C$DW$151, DW_AT_type(*$C$DW$T$19)
    1652                      .dwattr $C$DW$151, DW_AT_location[DW_OP_reg16]
    1653              ;*******************************************************************************
    1654              ;* FUNCTION NAME: WriteData                                                    *
    1655              ;*                                                                             *
    1656              ;*   Function Uses Regs : AC0,AC1,T0,T1,AR0,XAR0,SP,M40,SATA,SATD,RDM,FRCT,    *
    1657              ;*                        SMUL                                                 *
    1658              ;*   Stack Frame        : Compact (No Frame Pointer, w/ debug)                 *
    1659              ;*   Total Frame Size   : 6 words                                              *
    1660              ;*                        (2 return address/alignment)                         *
    1661              ;*                        (4 local values)                                     *
    1662              ;*   Min System Stack   : 1 word                                               *
    1663              ;*******************************************************************************
    1664 0002e4       _WriteData:
    1665                      .dwcfi  cfa_offset, 1
    1666                      .dwcfi  save_reg_to_mem, 91, -1
    1667 0002e4 4EFB          AADD #-5, SP
    1668                      .dwcfi  cfa_offset, 6
    1669              $C$DW$152       .dwtag  DW_TAG_variable, DW_AT_name("uByte")
    1670                      .dwattr $C$DW$152, DW_AT_TI_symbol_name("_uByte")
    1671                      .dwattr $C$DW$152, DW_AT_type(*$C$DW$T$19)
    1672                      .dwattr $C$DW$152, DW_AT_location[DW_OP_bregx 0x24 0]
    1673              $C$DW$153       .dwtag  DW_TAG_variable, DW_AT_name("lByte")
    1674                      .dwattr $C$DW$153, DW_AT_TI_symbol_name("_lByte")
    1675                      .dwattr $C$DW$153, DW_AT_type(*$C$DW$T$19)
    1676                      .dwattr $C$DW$153, DW_AT_location[DW_OP_bregx 0x24 1]
    1677              $C$DW$154       .dwtag  DW_TAG_variable, DW_AT_name("cs_flag")
    1678                      .dwattr $C$DW$154, DW_AT_TI_symbol_name("_cs_flag")
    1679                      .dwattr $C$DW$154, DW_AT_type(*$C$DW$T$19)
    1680                      .dwattr $C$DW$154, DW_AT_location[DW_OP_bregx 0x24 2]
    1681              $C$DW$155       .dwtag  DW_TAG_variable, DW_AT_name("DATA16")
    1682                      .dwattr $C$DW$155, DW_AT_TI_symbol_name("_DATA16")
    1683                      .dwattr $C$DW$155, DW_AT_type(*$C$DW$T$19)
    1684                      .dwattr $C$DW$155, DW_AT_location[DW_OP_bregx 0x24 3]
    1685 0002e6 C804          MOV AR0, *SP(#2) ; |285| 
    1686 0002e8 C502          MOV T1, *SP(#1) ; |285| 
    1687 0002ea C400          MOV T0, *SP(#0) ; |285| 
    1688                      .dwpsn  file "../c5535_bsl_revc/ezdsp5535_v1/c55xx_csl/ccs_v4.0_examples/lcd/CSL_LCDC_DiagramExample/
    1689              
    1690 0002ec A002          MOV *SP(#1), AC0 ; |287| 
    1691 0002ee 2341  ||      MOV T0, AC1
    1692              
    1693 0002f0 1011          OR AC1 << #8, AC0 ; |287| 
         0002f2 08   
    1694 0002f3 C006          MOV AC0, *SP(#3) ; |287| 
    1695                      .dwpsn  file "../c5535_bsl_revc/ezdsp5535_v1/c55xx_csl/ccs_v4.0_examples/lcd/CSL_LCDC_DiagramExample/
    1696 0002f5 ED31          MOV dbl(*(#_hLcdc)), XAR0
         0002f7 8F00 
         0002f9 0000!
TMS320C55x Assembler PC v4.4.1 Sat Sep 29 23:09:22 2018

Tools Copyright (c) 1996-2012 Texas Instruments Incorporated
lcdc_panel.asm                                                       PAGE   34

    1697              
    1698 0002fb A404          MOV *SP(#2), T0 ; |288| 
    1699 0002fd 2305  ||      MOV AC0, T1
    1700              
    1701              $C$DW$156       .dwtag  DW_TAG_TI_branch
    1702                      .dwattr $C$DW$156, DW_AT_low_pc(0x00)
    1703                      .dwattr $C$DW$156, DW_AT_name("_CSL_lcdcLiddWriteCsData")
    1704                      .dwattr $C$DW$156, DW_AT_TI_call
    1705 0002ff 08FD          CALL #_CSL_lcdcLiddWriteCsData ; |288| 
         000301 5A   
    1706                                                      ; call occurs [#_CSL_lcdcLiddWriteCsData] ; |288| 
    1707                      .dwpsn  file "../c5535_bsl_revc/ezdsp5535_v1/c55xx_csl/ccs_v4.0_examples/lcd/CSL_LCDC_DiagramExample/
    1708 000302 4E05          AADD #5, SP
    1709                      .dwcfi  cfa_offset, 1
    1710              $C$DW$157       .dwtag  DW_TAG_TI_branch
    1711                      .dwattr $C$DW$157, DW_AT_low_pc(0x00)
    1712                      .dwattr $C$DW$157, DW_AT_TI_return
    1713 000304 4804          RET
    1714                                                      ; return occurs
    1715                      .dwattr $C$DW$148, DW_AT_TI_end_file("../c5535_bsl_revc/ezdsp5535_v1/c55xx_csl/ccs_v4.0_examples/lcd/
    1716                      .dwattr $C$DW$148, DW_AT_TI_end_line(0x121)
    1717                      .dwattr $C$DW$148, DW_AT_TI_end_column(0x02)
    1718                      .dwendentry
    1719                      .dwendtag $C$DW$148
    1720              
    1721 000306               .sect   ".text"
    1722                      .align 4
    1723                      .global _ReadData
    1724              
    1725              $C$DW$158       .dwtag  DW_TAG_subprogram, DW_AT_name("ReadData")
    1726                      .dwattr $C$DW$158, DW_AT_low_pc(_ReadData)
    1727                      .dwattr $C$DW$158, DW_AT_high_pc(0x00)
    1728                      .dwattr $C$DW$158, DW_AT_TI_symbol_name("_ReadData")
    1729                      .dwattr $C$DW$158, DW_AT_external
    1730                      .dwattr $C$DW$158, DW_AT_TI_begin_file("../c5535_bsl_revc/ezdsp5535_v1/c55xx_csl/ccs_v4.0_examples/lc
    1731                      .dwattr $C$DW$158, DW_AT_TI_begin_line(0x12a)
    1732                      .dwattr $C$DW$158, DW_AT_TI_begin_column(0x06)
    1733                      .dwattr $C$DW$158, DW_AT_TI_max_frame_size(0x04)
    1734                      .dwpsn  file "../c5535_bsl_revc/ezdsp5535_v1/c55xx_csl/ccs_v4.0_examples/lcd/CSL_LCDC_DiagramExample/
    1735              
    1736                      .dwfde $C$DW$CIE, _ReadData
    1737              $C$DW$159       .dwtag  DW_TAG_formal_parameter, DW_AT_name("arg")
    1738                      .dwattr $C$DW$159, DW_AT_TI_symbol_name("_arg")
    1739                      .dwattr $C$DW$159, DW_AT_type(*$C$DW$T$3)
    1740                      .dwattr $C$DW$159, DW_AT_location[DW_OP_reg17]
    1741              $C$DW$160       .dwtag  DW_TAG_formal_parameter, DW_AT_name("cs_flag")
    1742                      .dwattr $C$DW$160, DW_AT_TI_symbol_name("_cs_flag")
    1743                      .dwattr $C$DW$160, DW_AT_type(*$C$DW$T$19)
    1744                      .dwattr $C$DW$160, DW_AT_location[DW_OP_reg12]
    1745              ;*******************************************************************************
    1746              ;* FUNCTION NAME: ReadData                                                     *
    1747              ;*                                                                             *
    1748              ;*   Function Uses Regs : T0,AR0,XAR0,AR3,XAR3,SP,M40,SATA,SATD,RDM,FRCT,SMUL  *
    1749              ;*   Stack Frame        : Compact (No Frame Pointer, w/ debug)                 *
    1750              ;*   Total Frame Size   : 4 words                                              *
TMS320C55x Assembler PC v4.4.1 Sat Sep 29 23:09:22 2018

Tools Copyright (c) 1996-2012 Texas Instruments Incorporated
lcdc_panel.asm                                                       PAGE   35

    1751              ;*                        (1 return address/alignment)                         *
    1752              ;*                        (3 local values)                                     *
    1753              ;*   Min System Stack   : 1 word                                               *
    1754              ;*******************************************************************************
    1755 000308       _ReadData:
    1756                      .dwcfi  cfa_offset, 1
    1757                      .dwcfi  save_reg_to_mem, 91, -1
    1758 000308 4EFD          AADD #-3, SP
    1759                      .dwcfi  cfa_offset, 4
    1760              $C$DW$161       .dwtag  DW_TAG_variable, DW_AT_name("arg")
    1761                      .dwattr $C$DW$161, DW_AT_TI_symbol_name("_arg")
    1762                      .dwattr $C$DW$161, DW_AT_type(*$C$DW$T$3)
    1763                      .dwattr $C$DW$161, DW_AT_location[DW_OP_bregx 0x24 0]
    1764              $C$DW$162       .dwtag  DW_TAG_variable, DW_AT_name("cs_flag")
    1765                      .dwattr $C$DW$162, DW_AT_TI_symbol_name("_cs_flag")
    1766                      .dwattr $C$DW$162, DW_AT_type(*$C$DW$T$19)
    1767                      .dwattr $C$DW$162, DW_AT_location[DW_OP_bregx 0x24 2]
    1768 00030a C404          MOV T0, *SP(#2) ; |301| 
    1769 00030c EB00          MOV XAR0, dbl(*SP(#0))
         00030e 85   
    1770                      .dwpsn  file "../c5535_bsl_revc/ezdsp5535_v1/c55xx_csl/ccs_v4.0_examples/lcd/CSL_LCDC_DiagramExample/
    1771 00030f ED31          MOV dbl(*(#_hLcdc)), XAR0
         000311 8F00 
         000313 0000!
    1772 000315 A404          MOV *SP(#2), T0 ; |302| 
    1773              $C$DW$163       .dwtag  DW_TAG_TI_branch
    1774                      .dwattr $C$DW$163, DW_AT_low_pc(0x00)
    1775                      .dwattr $C$DW$163, DW_AT_name("_CSL_lcdcGetLiddCsData")
    1776                      .dwattr $C$DW$163, DW_AT_TI_call
    1777 000317 08FD          CALL #_CSL_lcdcGetLiddCsData ; |302| 
         000319 8E   
    1778                                                      ; call occurs [#_CSL_lcdcGetLiddCsData] ; |302| 
    1779 00031a ED00          MOV dbl(*SP(#0)), XAR3
         00031c BF   
    1780 00031d C461          MOV T0, *AR3 ; |302| 
    1781                      .dwpsn  file "../c5535_bsl_revc/ezdsp5535_v1/c55xx_csl/ccs_v4.0_examples/lcd/CSL_LCDC_DiagramExample/
    1782 00031f 4E03          AADD #3, SP
    1783                      .dwcfi  cfa_offset, 1
    1784              $C$DW$164       .dwtag  DW_TAG_TI_branch
    1785                      .dwattr $C$DW$164, DW_AT_low_pc(0x00)
    1786                      .dwattr $C$DW$164, DW_AT_TI_return
    1787 000321 4804          RET
    1788                                                      ; return occurs
    1789                      .dwattr $C$DW$158, DW_AT_TI_end_file("../c5535_bsl_revc/ezdsp5535_v1/c55xx_csl/ccs_v4.0_examples/lcd/
    1790                      .dwattr $C$DW$158, DW_AT_TI_end_line(0x12f)
    1791                      .dwattr $C$DW$158, DW_AT_TI_end_column(0x01)
    1792                      .dwendentry
    1793                      .dwendtag $C$DW$158
    1794              
    1795 000323               .sect   ".text"
    1796                      .align 4
    1797                      .global _CreateChessPattern
    1798              
    1799              $C$DW$165       .dwtag  DW_TAG_subprogram, DW_AT_name("CreateChessPattern")
    1800                      .dwattr $C$DW$165, DW_AT_low_pc(_CreateChessPattern)
TMS320C55x Assembler PC v4.4.1 Sat Sep 29 23:09:22 2018

Tools Copyright (c) 1996-2012 Texas Instruments Incorporated
lcdc_panel.asm                                                       PAGE   36

    1801                      .dwattr $C$DW$165, DW_AT_high_pc(0x00)
    1802                      .dwattr $C$DW$165, DW_AT_TI_symbol_name("_CreateChessPattern")
    1803                      .dwattr $C$DW$165, DW_AT_external
    1804                      .dwattr $C$DW$165, DW_AT_TI_begin_file("../c5535_bsl_revc/ezdsp5535_v1/c55xx_csl/ccs_v4.0_examples/lc
    1805                      .dwattr $C$DW$165, DW_AT_TI_begin_line(0x13b)
    1806                      .dwattr $C$DW$165, DW_AT_TI_begin_column(0x06)
    1807                      .dwattr $C$DW$165, DW_AT_TI_max_frame_size(0x0c)
    1808                      .dwpsn  file "../c5535_bsl_revc/ezdsp5535_v1/c55xx_csl/ccs_v4.0_examples/lcd/CSL_LCDC_DiagramExample/
    1809              
    1810                      .dwfde $C$DW$CIE, _CreateChessPattern
    1811              $C$DW$166       .dwtag  DW_TAG_formal_parameter, DW_AT_name("pBuf")
    1812                      .dwattr $C$DW$166, DW_AT_TI_symbol_name("_pBuf")
    1813                      .dwattr $C$DW$166, DW_AT_type(*$C$DW$T$59)
    1814                      .dwattr $C$DW$166, DW_AT_location[DW_OP_reg17]
    1815              $C$DW$167       .dwtag  DW_TAG_formal_parameter, DW_AT_name("Width")
    1816                      .dwattr $C$DW$167, DW_AT_TI_symbol_name("_Width")
    1817                      .dwattr $C$DW$167, DW_AT_type(*$C$DW$T$19)
    1818                      .dwattr $C$DW$167, DW_AT_location[DW_OP_reg12]
    1819              $C$DW$168       .dwtag  DW_TAG_formal_parameter, DW_AT_name("Height")
    1820                      .dwattr $C$DW$168, DW_AT_TI_symbol_name("_Height")
    1821                      .dwattr $C$DW$168, DW_AT_type(*$C$DW$T$19)
    1822                      .dwattr $C$DW$168, DW_AT_location[DW_OP_reg13]
    1823              $C$DW$169       .dwtag  DW_TAG_formal_parameter, DW_AT_name("size")
    1824                      .dwattr $C$DW$169, DW_AT_TI_symbol_name("_size")
    1825                      .dwattr $C$DW$169, DW_AT_type(*$C$DW$T$19)
    1826                      .dwattr $C$DW$169, DW_AT_location[DW_OP_reg18]
    1827              ;*******************************************************************************
    1828              ;* FUNCTION NAME: CreateChessPattern                                           *
    1829              ;*                                                                             *
    1830              ;*   Function Uses Regs : T0,T1,AR0,XAR0,AR1,AR2,AR3,XAR3,SP,CARRY,TC1,M40,    *
    1831              ;*                        SATA,SATD,RDM,FRCT,SMUL                              *
    1832              ;*   Stack Frame        : Compact (No Frame Pointer, w/ debug)                 *
    1833              ;*   Total Frame Size   : 12 words                                             *
    1834              ;*                        (2 return address/alignment)                         *
    1835              ;*                        (10 local values)                                    *
    1836              ;*   Min System Stack   : 1 word                                               *
    1837              ;*******************************************************************************
    1838 000324       _CreateChessPattern:
    1839                      .dwcfi  cfa_offset, 1
    1840                      .dwcfi  save_reg_to_mem, 91, -1
    1841 000324 4EF5          AADD #-11, SP
    1842                      .dwcfi  cfa_offset, 12
    1843              $C$DW$170       .dwtag  DW_TAG_variable, DW_AT_name("pBuf")
    1844                      .dwattr $C$DW$170, DW_AT_TI_symbol_name("_pBuf")
    1845                      .dwattr $C$DW$170, DW_AT_type(*$C$DW$T$59)
    1846                      .dwattr $C$DW$170, DW_AT_location[DW_OP_bregx 0x24 0]
    1847              $C$DW$171       .dwtag  DW_TAG_variable, DW_AT_name("Width")
    1848                      .dwattr $C$DW$171, DW_AT_TI_symbol_name("_Width")
    1849                      .dwattr $C$DW$171, DW_AT_type(*$C$DW$T$19)
    1850                      .dwattr $C$DW$171, DW_AT_location[DW_OP_bregx 0x24 2]
    1851              $C$DW$172       .dwtag  DW_TAG_variable, DW_AT_name("Height")
    1852                      .dwattr $C$DW$172, DW_AT_TI_symbol_name("_Height")
    1853                      .dwattr $C$DW$172, DW_AT_type(*$C$DW$T$19)
    1854                      .dwattr $C$DW$172, DW_AT_location[DW_OP_bregx 0x24 3]
    1855              $C$DW$173       .dwtag  DW_TAG_variable, DW_AT_name("size")
TMS320C55x Assembler PC v4.4.1 Sat Sep 29 23:09:22 2018

Tools Copyright (c) 1996-2012 Texas Instruments Incorporated
lcdc_panel.asm                                                       PAGE   37

    1856                      .dwattr $C$DW$173, DW_AT_TI_symbol_name("_size")
    1857                      .dwattr $C$DW$173, DW_AT_type(*$C$DW$T$19)
    1858                      .dwattr $C$DW$173, DW_AT_location[DW_OP_bregx 0x24 4]
    1859              $C$DW$174       .dwtag  DW_TAG_variable, DW_AT_name("bufPattern")
    1860                      .dwattr $C$DW$174, DW_AT_TI_symbol_name("_bufPattern")
    1861                      .dwattr $C$DW$174, DW_AT_type(*$C$DW$T$59)
    1862                      .dwattr $C$DW$174, DW_AT_location[DW_OP_bregx 0x24 6]
    1863              $C$DW$175       .dwtag  DW_TAG_variable, DW_AT_name("i")
    1864                      .dwattr $C$DW$175, DW_AT_TI_symbol_name("_i")
    1865                      .dwattr $C$DW$175, DW_AT_type(*$C$DW$T$19)
    1866                      .dwattr $C$DW$175, DW_AT_location[DW_OP_bregx 0x24 8]
    1867              $C$DW$176       .dwtag  DW_TAG_variable, DW_AT_name("j")
    1868                      .dwattr $C$DW$176, DW_AT_TI_symbol_name("_j")
    1869                      .dwattr $C$DW$176, DW_AT_type(*$C$DW$T$19)
    1870                      .dwattr $C$DW$176, DW_AT_location[DW_OP_bregx 0x24 9]
    1871 000326 C908          MOV AR1, *SP(#4) ; |320| 
    1872 000328 C506          MOV T1, *SP(#3) ; |320| 
    1873 00032a C404          MOV T0, *SP(#2) ; |320| 
    1874 00032c EB00          MOV XAR0, dbl(*SP(#0))
         00032e 85   
    1875                      .dwpsn  file "../c5535_bsl_revc/ezdsp5535_v1/c55xx_csl/ccs_v4.0_examples/lcd/CSL_LCDC_DiagramExample/
    1876 00032f ED00          MOV dbl(*SP(#0)), XAR3
         000331 BF   
    1877 000332 EB0C          MOV XAR3, dbl(*SP(#6))
         000334 B5   
    1878                      .dwpsn  file "../c5535_bsl_revc/ezdsp5535_v1/c55xx_csl/ccs_v4.0_examples/lcd/CSL_LCDC_DiagramExample/
    1879 000335 E610          MOV #0, *SP(#8) ; |326| 
         000337 00   
    1880                      .dwpsn  file "../c5535_bsl_revc/ezdsp5535_v1/c55xx_csl/ccs_v4.0_examples/lcd/CSL_LCDC_DiagramExample/
    1881 000338 A908          MOV *SP(#4), AR1 ; |326| 
    1882 00033a AA10          MOV *SP(#8), AR2 ; |326| 
    1883 00033c 7C00          SUB #31, AR1, AR1 ; |326| 
         00033e 1F99 
    1884 000340 12A8          CMPU AR2 >= AR1, TC1 ; |326| 
         000342 94   
    1885 000343 0464          BCC $C$L21,TC1 ; |326| 
         000345 5E   
    1886                                                      ; branchcc occurs ; |326| 
    1887 000346       $C$L16:    
    1888 000346       $C$DW$L$_CreateChessPattern$2$B:
    1889                      .dwpsn  file "../c5535_bsl_revc/ezdsp5535_v1/c55xx_csl/ccs_v4.0_examples/lcd/CSL_LCDC_DiagramExample/
    1890 000346 E612          MOV #0, *SP(#9) ; |328| 
         000348 00   
    1891                      .dwpsn  file "../c5535_bsl_revc/ezdsp5535_v1/c55xx_csl/ccs_v4.0_examples/lcd/CSL_LCDC_DiagramExample/
    1892 000349 7600          MOV #16, AR2 ; |328| 
         00034b 10A8 
    1893 00034d A912          MOV *SP(#9), AR1 ; |328| 
    1894 00034f 1298          CMPU AR1 >= AR2, TC1 ; |328| 
         000351 A4   
    1895 000352 0464          BCC $C$L18,TC1 ; |328| 
         000354 1B   
    1896                                                      ; branchcc occurs ; |328| 
    1897 000355       $C$DW$L$_CreateChessPattern$2$E:
    1898 000355       $C$L17:    
    1899 000355       $C$DW$L$_CreateChessPattern$3$B:
TMS320C55x Assembler PC v4.4.1 Sat Sep 29 23:09:22 2018

Tools Copyright (c) 1996-2012 Texas Instruments Incorporated
lcdc_panel.asm                                                       PAGE   38

    1900                      .dwpsn  file "../c5535_bsl_revc/ezdsp5535_v1/c55xx_csl/ccs_v4.0_examples/lcd/CSL_LCDC_DiagramExample/
    1901 000355 A410          MOV *SP(#8), T0 ; |330| 
    1902 000357 7B00          ADD #1, T0, AR1 ; |330| 
         000359 0194 
    1903 00035b C910          MOV AR1, *SP(#8) ; |330| 
    1904 00035d ED0C          MOV dbl(*SP(#6)), XAR3
         00035f BF   
    1905 000360 FB6B          MOV #255, *AR3(T0) ; |330| 
         000362 00FF 
    1906                      .dwpsn  file "../c5535_bsl_revc/ezdsp5535_v1/c55xx_csl/ccs_v4.0_examples/lcd/CSL_LCDC_DiagramExample/
    1907 000364 F712          ADD #1, *SP(#9) ; |328| 
         000366 0001 
    1908                      .dwpsn  file "../c5535_bsl_revc/ezdsp5535_v1/c55xx_csl/ccs_v4.0_examples/lcd/CSL_LCDC_DiagramExample/
    1909 000368 A912          MOV *SP(#9), AR1 ; |328| 
    1910 00036a 1294          CMPU AR1 < AR2, TC1 ; |328| 
         00036c A4   
    1911 00036d 0464          BCC $C$L17,TC1 ; |328| 
         00036f E5   
    1912                                                      ; branchcc occurs ; |328| 
    1913 000370       $C$DW$L$_CreateChessPattern$3$E:
    1914 000370       $C$L18:    
    1915 000370       $C$DW$L$_CreateChessPattern$4$B:
    1916                      .dwpsn  file "../c5535_bsl_revc/ezdsp5535_v1/c55xx_csl/ccs_v4.0_examples/lcd/CSL_LCDC_DiagramExample/
    1917 000370 E612          MOV #0, *SP(#9) ; |332| 
         000372 00   
    1918                      .dwpsn  file "../c5535_bsl_revc/ezdsp5535_v1/c55xx_csl/ccs_v4.0_examples/lcd/CSL_LCDC_DiagramExample/
    1919 000373 A912          MOV *SP(#9), AR1 ; |332| 
    1920 000375 1298          CMPU AR1 >= AR2, TC1 ; |332| 
         000377 A4   
    1921 000378 0464          BCC $C$L20,TC1 ; |332| 
         00037a 1B   
    1922                                                      ; branchcc occurs ; |332| 
    1923 00037b       $C$DW$L$_CreateChessPattern$4$E:
    1924 00037b       $C$L19:    
    1925 00037b       $C$DW$L$_CreateChessPattern$5$B:
    1926                      .dwpsn  file "../c5535_bsl_revc/ezdsp5535_v1/c55xx_csl/ccs_v4.0_examples/lcd/CSL_LCDC_DiagramExample/
    1927 00037b A410          MOV *SP(#8), T0 ; |334| 
    1928 00037d 7B00          ADD #1, T0, AR1 ; |334| 
         00037f 0194 
    1929 000381 C910          MOV AR1, *SP(#8) ; |334| 
    1930 000383 ED0C          MOV dbl(*SP(#6)), XAR3
         000385 BF   
    1931 000386 FB6B          MOV #224, *AR3(T0) ; |334| 
         000388 00E0 
    1932                      .dwpsn  file "../c5535_bsl_revc/ezdsp5535_v1/c55xx_csl/ccs_v4.0_examples/lcd/CSL_LCDC_DiagramExample/
    1933 00038a F712          ADD #1, *SP(#9) ; |332| 
         00038c 0001 
    1934                      .dwpsn  file "../c5535_bsl_revc/ezdsp5535_v1/c55xx_csl/ccs_v4.0_examples/lcd/CSL_LCDC_DiagramExample/
    1935 00038e A912          MOV *SP(#9), AR1 ; |332| 
    1936 000390 1294          CMPU AR1 < AR2, TC1 ; |332| 
         000392 A4   
    1937 000393 0464          BCC $C$L19,TC1 ; |332| 
         000395 E5   
    1938                                                      ; branchcc occurs ; |332| 
    1939 000396       $C$DW$L$_CreateChessPattern$5$E:
TMS320C55x Assembler PC v4.4.1 Sat Sep 29 23:09:22 2018

Tools Copyright (c) 1996-2012 Texas Instruments Incorporated
lcdc_panel.asm                                                       PAGE   39

    1940 000396       $C$L20:    
    1941 000396       $C$DW$L$_CreateChessPattern$6$B:
    1942                      .dwpsn  file "../c5535_bsl_revc/ezdsp5535_v1/c55xx_csl/ccs_v4.0_examples/lcd/CSL_LCDC_DiagramExample/
    1943 000396 A908          MOV *SP(#4), AR1 ; |326| 
    1944 000398 AA10          MOV *SP(#8), AR2 ; |326| 
    1945 00039a 7C00          SUB #31, AR1, AR1 ; |326| 
         00039c 1F99 
    1946 00039e 12A4          CMPU AR2 < AR1, TC1 ; |326| 
         0003a0 94   
    1947 0003a1 0464          BCC $C$L16,TC1 ; |326| 
         0003a3 A2   
    1948                                                      ; branchcc occurs ; |326| 
    1949 0003a4       $C$DW$L$_CreateChessPattern$6$E:
    1950                      .dwpsn  file "../c5535_bsl_revc/ezdsp5535_v1/c55xx_csl/ccs_v4.0_examples/lcd/CSL_LCDC_DiagramExample/
    1951 0003a4       $C$L21:    
    1952 0003a4 4E0B          AADD #11, SP
    1953                      .dwcfi  cfa_offset, 1
    1954              $C$DW$177       .dwtag  DW_TAG_TI_branch
    1955                      .dwattr $C$DW$177, DW_AT_low_pc(0x00)
    1956                      .dwattr $C$DW$177, DW_AT_TI_return
    1957 0003a6 4804          RET
    1958                                                      ; return occurs
    1959              
    1960              $C$DW$178       .dwtag  DW_TAG_TI_loop
    1961                      .dwattr $C$DW$178, DW_AT_name("F:\eZdsp_DBG\tmp1\c55x-sim2\foo\Debug\lcdc_panel.asm:$C$L16:1:15382877
    1962                      .dwattr $C$DW$178, DW_AT_TI_begin_file("../c5535_bsl_revc/ezdsp5535_v1/c55xx_csl/ccs_v4.0_examples/lc
    1963                      .dwattr $C$DW$178, DW_AT_TI_begin_line(0x146)
    1964                      .dwattr $C$DW$178, DW_AT_TI_end_line(0x150)
    1965              $C$DW$179       .dwtag  DW_TAG_TI_loop_range
    1966                      .dwattr $C$DW$179, DW_AT_low_pc($C$DW$L$_CreateChessPattern$2$B)
    1967                      .dwattr $C$DW$179, DW_AT_high_pc($C$DW$L$_CreateChessPattern$2$E)
    1968              $C$DW$180       .dwtag  DW_TAG_TI_loop_range
    1969                      .dwattr $C$DW$180, DW_AT_low_pc($C$DW$L$_CreateChessPattern$4$B)
    1970                      .dwattr $C$DW$180, DW_AT_high_pc($C$DW$L$_CreateChessPattern$4$E)
    1971              $C$DW$181       .dwtag  DW_TAG_TI_loop_range
    1972                      .dwattr $C$DW$181, DW_AT_low_pc($C$DW$L$_CreateChessPattern$6$B)
    1973                      .dwattr $C$DW$181, DW_AT_high_pc($C$DW$L$_CreateChessPattern$6$E)
    1974              
    1975              $C$DW$182       .dwtag  DW_TAG_TI_loop
    1976                      .dwattr $C$DW$182, DW_AT_name("F:\eZdsp_DBG\tmp1\c55x-sim2\foo\Debug\lcdc_panel.asm:$C$L17:2:15382877
    1977                      .dwattr $C$DW$182, DW_AT_TI_begin_file("../c5535_bsl_revc/ezdsp5535_v1/c55xx_csl/ccs_v4.0_examples/lc
    1978                      .dwattr $C$DW$182, DW_AT_TI_begin_line(0x148)
    1979                      .dwattr $C$DW$182, DW_AT_TI_end_line(0x14b)
    1980              $C$DW$183       .dwtag  DW_TAG_TI_loop_range
    1981                      .dwattr $C$DW$183, DW_AT_low_pc($C$DW$L$_CreateChessPattern$3$B)
    1982                      .dwattr $C$DW$183, DW_AT_high_pc($C$DW$L$_CreateChessPattern$3$E)
    1983                      .dwendtag $C$DW$182
    1984              
    1985              
    1986              $C$DW$184       .dwtag  DW_TAG_TI_loop
    1987                      .dwattr $C$DW$184, DW_AT_name("F:\eZdsp_DBG\tmp1\c55x-sim2\foo\Debug\lcdc_panel.asm:$C$L19:2:15382877
    1988                      .dwattr $C$DW$184, DW_AT_TI_begin_file("../c5535_bsl_revc/ezdsp5535_v1/c55xx_csl/ccs_v4.0_examples/lc
    1989                      .dwattr $C$DW$184, DW_AT_TI_begin_line(0x14c)
    1990                      .dwattr $C$DW$184, DW_AT_TI_end_line(0x14f)
    1991              $C$DW$185       .dwtag  DW_TAG_TI_loop_range
TMS320C55x Assembler PC v4.4.1 Sat Sep 29 23:09:22 2018

Tools Copyright (c) 1996-2012 Texas Instruments Incorporated
lcdc_panel.asm                                                       PAGE   40

    1992                      .dwattr $C$DW$185, DW_AT_low_pc($C$DW$L$_CreateChessPattern$5$B)
    1993                      .dwattr $C$DW$185, DW_AT_high_pc($C$DW$L$_CreateChessPattern$5$E)
    1994                      .dwendtag $C$DW$184
    1995              
    1996                      .dwendtag $C$DW$178
    1997              
    1998                      .dwattr $C$DW$165, DW_AT_TI_end_file("../c5535_bsl_revc/ezdsp5535_v1/c55xx_csl/ccs_v4.0_examples/lcd/
    1999                      .dwattr $C$DW$165, DW_AT_TI_end_line(0x151)
    2000                      .dwattr $C$DW$165, DW_AT_TI_end_column(0x01)
    2001                      .dwendentry
    2002                      .dwendtag $C$DW$165
    2003              
    2004 0003a8               .sect   ".text"
    2005                      .align 4
    2006                      .global _delay
    2007              
    2008              $C$DW$186       .dwtag  DW_TAG_subprogram, DW_AT_name("delay")
    2009                      .dwattr $C$DW$186, DW_AT_low_pc(_delay)
    2010                      .dwattr $C$DW$186, DW_AT_high_pc(0x00)
    2011                      .dwattr $C$DW$186, DW_AT_TI_symbol_name("_delay")
    2012                      .dwattr $C$DW$186, DW_AT_external
    2013                      .dwattr $C$DW$186, DW_AT_TI_begin_file("../c5535_bsl_revc/ezdsp5535_v1/c55xx_csl/ccs_v4.0_examples/lc
    2014                      .dwattr $C$DW$186, DW_AT_TI_begin_line(0x159)
    2015                      .dwattr $C$DW$186, DW_AT_TI_begin_column(0x06)
    2016                      .dwattr $C$DW$186, DW_AT_TI_max_frame_size(0x08)
    2017                      .dwpsn  file "../c5535_bsl_revc/ezdsp5535_v1/c55xx_csl/ccs_v4.0_examples/lcd/CSL_LCDC_DiagramExample/
    2018              
    2019                      .dwfde $C$DW$CIE, _delay
    2020              $C$DW$187       .dwtag  DW_TAG_formal_parameter, DW_AT_name("msCount")
    2021                      .dwattr $C$DW$187, DW_AT_TI_symbol_name("_msCount")
    2022                      .dwattr $C$DW$187, DW_AT_type(*$C$DW$T$19)
    2023                      .dwattr $C$DW$187, DW_AT_location[DW_OP_reg12]
    2024              ;*******************************************************************************
    2025              ;* FUNCTION NAME: delay                                                        *
    2026              ;*                                                                             *
    2027              ;*   Function Uses Regs : AC0,AC0,AC1,AC1,T0,SP,CARRY,TC1,M40,SATA,SATD,RDM,   *
    2028              ;*                        FRCT,SMUL                                            *
    2029              ;*   Stack Frame        : Compact (No Frame Pointer, w/ debug)                 *
    2030              ;*   Total Frame Size   : 8 words                                              *
    2031              ;*                        (2 return address/alignment)                         *
    2032              ;*                        (6 local values)                                     *
    2033              ;*   Min System Stack   : 1 word                                               *
    2034              ;*******************************************************************************
    2035 0003a8       _delay:
    2036                      .dwcfi  cfa_offset, 1
    2037                      .dwcfi  save_reg_to_mem, 91, -1
    2038 0003a8 4EF9          AADD #-7, SP
    2039                      .dwcfi  cfa_offset, 8
    2040              $C$DW$188       .dwtag  DW_TAG_variable, DW_AT_name("msCount")
    2041                      .dwattr $C$DW$188, DW_AT_TI_symbol_name("_msCount")
    2042                      .dwattr $C$DW$188, DW_AT_type(*$C$DW$T$19)
    2043                      .dwattr $C$DW$188, DW_AT_location[DW_OP_bregx 0x24 0]
    2044              $C$DW$189       .dwtag  DW_TAG_variable, DW_AT_name("i")
    2045                      .dwattr $C$DW$189, DW_AT_TI_symbol_name("_i")
    2046                      .dwattr $C$DW$189, DW_AT_type(*$C$DW$T$76)
TMS320C55x Assembler PC v4.4.1 Sat Sep 29 23:09:22 2018

Tools Copyright (c) 1996-2012 Texas Instruments Incorporated
lcdc_panel.asm                                                       PAGE   41

    2047                      .dwattr $C$DW$189, DW_AT_location[DW_OP_bregx 0x24 2]
    2048              $C$DW$190       .dwtag  DW_TAG_variable, DW_AT_name("j")
    2049                      .dwattr $C$DW$190, DW_AT_TI_symbol_name("_j")
    2050                      .dwattr $C$DW$190, DW_AT_type(*$C$DW$T$76)
    2051                      .dwattr $C$DW$190, DW_AT_location[DW_OP_bregx 0x24 4]
    2052 0003aa C400          MOV T0, *SP(#0) ; |347| 
    2053                      .dwpsn  file "../c5535_bsl_revc/ezdsp5535_v1/c55xx_csl/ccs_v4.0_examples/lcd/CSL_LCDC_DiagramExample/
    2054 0003ac 3C00          MOV #0, AC0 ; |351| 
    2055 0003ae EB08          MOV AC0, dbl(*SP(#4)) ; |351| 
         0003b0 08   
    2056 0003b1 20            NOP
    2057 0003b2 20            NOP
    2058 0003b3 20            NOP
    2059                      .dwpsn  file "../c5535_bsl_revc/ezdsp5535_v1/c55xx_csl/ccs_v4.0_examples/lcd/CSL_LCDC_DiagramExample/
    2060 0003b4 ED08          MOV dbl(*SP(#4)), AC1 ; |351| 
         0003b6 18   
    2061 0003b7 DF00          MOV uns(*SP(#0)), AC0 ; |351| 
         0003b9 05   
    2062 0003ba 1218          CMPU AC1 >= AC0, TC1 ; |351| 
         0003bc 04   
    2063 0003bd 0464          BCC $C$L25,TC1 ; |351| 
         0003bf 43   
    2064                                                      ; branchcc occurs ; |351| 
    2065 0003c0       $C$L22:    
    2066 0003c0       $C$DW$L$_delay$2$B:
    2067                      .dwpsn  file "../c5535_bsl_revc/ezdsp5535_v1/c55xx_csl/ccs_v4.0_examples/lcd/CSL_LCDC_DiagramExample/
    2068 0003c0 3C00          MOV #0, AC0 ; |353| 
    2069 0003c2 EB04          MOV AC0, dbl(*SP(#2)) ; |353| 
         0003c4 08   
    2070 0003c5 20            NOP
    2071 0003c6 20            NOP
    2072 0003c7 20            NOP
    2073                      .dwpsn  file "../c5535_bsl_revc/ezdsp5535_v1/c55xx_csl/ccs_v4.0_examples/lcd/CSL_LCDC_DiagramExample/
    2074 0003c8 ED04          MOV dbl(*SP(#2)), AC1 ; |353| 
         0003ca 18   
    2075 0003cb 7608          MOV #2048, AC0 ; |353| 
         0003cd 0008 
    2076 0003cf 1218          CMPU AC1 >= AC0, TC1 ; |353| 
         0003d1 04   
    2077 0003d2 0464          BCC $C$L24,TC1 ; |353| 
         0003d4 17   
    2078                                                      ; branchcc occurs ; |353| 
    2079 0003d5       $C$DW$L$_delay$2$E:
    2080 0003d5       $C$L23:    
    2081 0003d5       $C$DW$L$_delay$3$B:
    2082                      .dwpsn  file "../c5535_bsl_revc/ezdsp5535_v1/c55xx_csl/ccs_v4.0_examples/lcd/CSL_LCDC_DiagramExample/
    2083 0003d5 ED04          MOV dbl(*SP(#2)), AC0 ; |353| 
         0003d7 08   
    2084 0003d8 4010          ADD #1, AC0 ; |353| 
    2085 0003da EB04          MOV AC0, dbl(*SP(#2)) ; |353| 
         0003dc 08   
    2086 0003dd 20            NOP
    2087 0003de 20            NOP
    2088                      .dwpsn  file "../c5535_bsl_revc/ezdsp5535_v1/c55xx_csl/ccs_v4.0_examples/lcd/CSL_LCDC_DiagramExample/
    2089 0003df 7608          MOV #2048, AC0 ; |353| 
TMS320C55x Assembler PC v4.4.1 Sat Sep 29 23:09:22 2018

Tools Copyright (c) 1996-2012 Texas Instruments Incorporated
lcdc_panel.asm                                                       PAGE   42

         0003e1 0008 
    2090 0003e3 ED04          MOV dbl(*SP(#2)), AC1 ; |353| 
         0003e5 18   
    2091 0003e6 1214          CMPU AC1 < AC0, TC1 ; |353| 
         0003e8 04   
    2092 0003e9 0464          BCC $C$L23,TC1 ; |353| 
         0003eb E9   
    2093                                                      ; branchcc occurs ; |353| 
    2094 0003ec       $C$DW$L$_delay$3$E:
    2095 0003ec       $C$L24:    
    2096 0003ec       $C$DW$L$_delay$4$B:
    2097                      .dwpsn  file "../c5535_bsl_revc/ezdsp5535_v1/c55xx_csl/ccs_v4.0_examples/lcd/CSL_LCDC_DiagramExample/
    2098 0003ec ED08          MOV dbl(*SP(#4)), AC0 ; |351| 
         0003ee 08   
    2099 0003ef 4010          ADD #1, AC0 ; |351| 
    2100 0003f1 EB08          MOV AC0, dbl(*SP(#4)) ; |351| 
         0003f3 08   
    2101 0003f4 20            NOP
    2102 0003f5 20            NOP
    2103 0003f6 20            NOP
    2104                      .dwpsn  file "../c5535_bsl_revc/ezdsp5535_v1/c55xx_csl/ccs_v4.0_examples/lcd/CSL_LCDC_DiagramExample/
    2105 0003f7 ED08          MOV dbl(*SP(#4)), AC1 ; |351| 
         0003f9 18   
    2106 0003fa DF00          MOV uns(*SP(#0)), AC0 ; |351| 
         0003fc 05   
    2107 0003fd 1214          CMPU AC1 < AC0, TC1 ; |351| 
         0003ff 04   
    2108 000400 0464          BCC $C$L22,TC1 ; |351| 
         000402 BD   
    2109                                                      ; branchcc occurs ; |351| 
    2110 000403       $C$DW$L$_delay$4$E:
    2111                      .dwpsn  file "../c5535_bsl_revc/ezdsp5535_v1/c55xx_csl/ccs_v4.0_examples/lcd/CSL_LCDC_DiagramExample/
    2112 000403       $C$L25:    
    2113 000403 4E07          AADD #7, SP
    2114                      .dwcfi  cfa_offset, 1
    2115              $C$DW$191       .dwtag  DW_TAG_TI_branch
    2116                      .dwattr $C$DW$191, DW_AT_low_pc(0x00)
    2117                      .dwattr $C$DW$191, DW_AT_TI_return
    2118 000405 4804          RET
    2119                                                      ; return occurs
    2120              
    2121              $C$DW$192       .dwtag  DW_TAG_TI_loop
    2122                      .dwattr $C$DW$192, DW_AT_name("F:\eZdsp_DBG\tmp1\c55x-sim2\foo\Debug\lcdc_panel.asm:$C$L22:1:15382877
    2123                      .dwattr $C$DW$192, DW_AT_TI_begin_file("../c5535_bsl_revc/ezdsp5535_v1/c55xx_csl/ccs_v4.0_examples/lc
    2124                      .dwattr $C$DW$192, DW_AT_TI_begin_line(0x15f)
    2125                      .dwattr $C$DW$192, DW_AT_TI_end_line(0x162)
    2126              $C$DW$193       .dwtag  DW_TAG_TI_loop_range
    2127                      .dwattr $C$DW$193, DW_AT_low_pc($C$DW$L$_delay$2$B)
    2128                      .dwattr $C$DW$193, DW_AT_high_pc($C$DW$L$_delay$2$E)
    2129              $C$DW$194       .dwtag  DW_TAG_TI_loop_range
    2130                      .dwattr $C$DW$194, DW_AT_low_pc($C$DW$L$_delay$4$B)
    2131                      .dwattr $C$DW$194, DW_AT_high_pc($C$DW$L$_delay$4$E)
    2132              
    2133              $C$DW$195       .dwtag  DW_TAG_TI_loop
    2134                      .dwattr $C$DW$195, DW_AT_name("F:\eZdsp_DBG\tmp1\c55x-sim2\foo\Debug\lcdc_panel.asm:$C$L23:2:15382877
TMS320C55x Assembler PC v4.4.1 Sat Sep 29 23:09:22 2018

Tools Copyright (c) 1996-2012 Texas Instruments Incorporated
lcdc_panel.asm                                                       PAGE   43

    2135                      .dwattr $C$DW$195, DW_AT_TI_begin_file("../c5535_bsl_revc/ezdsp5535_v1/c55xx_csl/ccs_v4.0_examples/lc
    2136                      .dwattr $C$DW$195, DW_AT_TI_begin_line(0x161)
    2137                      .dwattr $C$DW$195, DW_AT_TI_end_line(0x161)
    2138              $C$DW$196       .dwtag  DW_TAG_TI_loop_range
    2139                      .dwattr $C$DW$196, DW_AT_low_pc($C$DW$L$_delay$3$B)
    2140                      .dwattr $C$DW$196, DW_AT_high_pc($C$DW$L$_delay$3$E)
    2141                      .dwendtag $C$DW$195
    2142              
    2143                      .dwendtag $C$DW$192
    2144              
    2145                      .dwattr $C$DW$186, DW_AT_TI_end_file("../c5535_bsl_revc/ezdsp5535_v1/c55xx_csl/ccs_v4.0_examples/lcd/
    2146                      .dwattr $C$DW$186, DW_AT_TI_end_line(0x163)
    2147                      .dwattr $C$DW$186, DW_AT_TI_end_column(0x01)
    2148                      .dwendentry
    2149                      .dwendtag $C$DW$186
    2150              
    2151 000407               .sect   ".text"
    2152                      .align 4
    2153                      .global _lcdDivFun
    2154              
    2155              $C$DW$197       .dwtag  DW_TAG_subprogram, DW_AT_name("lcdDivFun")
    2156                      .dwattr $C$DW$197, DW_AT_low_pc(_lcdDivFun)
    2157                      .dwattr $C$DW$197, DW_AT_high_pc(0x00)
    2158                      .dwattr $C$DW$197, DW_AT_TI_symbol_name("_lcdDivFun")
    2159                      .dwattr $C$DW$197, DW_AT_external
    2160                      .dwattr $C$DW$197, DW_AT_type(*$C$DW$T$19)
    2161                      .dwattr $C$DW$197, DW_AT_TI_begin_file("../c5535_bsl_revc/ezdsp5535_v1/c55xx_csl/ccs_v4.0_examples/lc
    2162                      .dwattr $C$DW$197, DW_AT_TI_begin_line(0x16c)
    2163                      .dwattr $C$DW$197, DW_AT_TI_begin_column(0x08)
    2164                      .dwattr $C$DW$197, DW_AT_TI_max_frame_size(0x04)
    2165                      .dwpsn  file "../c5535_bsl_revc/ezdsp5535_v1/c55xx_csl/ccs_v4.0_examples/lcd/CSL_LCDC_DiagramExample/
    2166              
    2167                      .dwfde $C$DW$CIE, _lcdDivFun
    2168              $C$DW$198       .dwtag  DW_TAG_formal_parameter, DW_AT_name("Dividend")
    2169                      .dwattr $C$DW$198, DW_AT_TI_symbol_name("_Dividend")
    2170                      .dwattr $C$DW$198, DW_AT_type(*$C$DW$T$19)
    2171                      .dwattr $C$DW$198, DW_AT_location[DW_OP_reg12]
    2172              $C$DW$199       .dwtag  DW_TAG_formal_parameter, DW_AT_name("Divisor")
    2173                      .dwattr $C$DW$199, DW_AT_TI_symbol_name("_Divisor")
    2174                      .dwattr $C$DW$199, DW_AT_type(*$C$DW$T$19)
    2175                      .dwattr $C$DW$199, DW_AT_location[DW_OP_reg13]
    2176              ;*******************************************************************************
    2177              ;* FUNCTION NAME: lcdDivFun                                                    *
    2178              ;*                                                                             *
    2179              ;*   Function Uses Regs : AC0,T0,T1,AR1,AR2,SP,CARRY,TC1,M40,SATA,SATD,RDM,    *
    2180              ;*                        FRCT,SMUL                                            *
    2181              ;*   Stack Frame        : Compact (No Frame Pointer, w/ debug)                 *
    2182              ;*   Total Frame Size   : 4 words                                              *
    2183              ;*                        (1 return address/alignment)                         *
    2184              ;*                        (3 local values)                                     *
    2185              ;*   Min System Stack   : 1 word                                               *
    2186              ;*******************************************************************************
    2187 000408       _lcdDivFun:
    2188                      .dwcfi  cfa_offset, 1
    2189                      .dwcfi  save_reg_to_mem, 91, -1
TMS320C55x Assembler PC v4.4.1 Sat Sep 29 23:09:22 2018

Tools Copyright (c) 1996-2012 Texas Instruments Incorporated
lcdc_panel.asm                                                       PAGE   44

    2190 000408 4EFD          AADD #-3, SP
    2191                      .dwcfi  cfa_offset, 4
    2192              $C$DW$200       .dwtag  DW_TAG_variable, DW_AT_name("Dividend")
    2193                      .dwattr $C$DW$200, DW_AT_TI_symbol_name("_Dividend")
    2194                      .dwattr $C$DW$200, DW_AT_type(*$C$DW$T$19)
    2195                      .dwattr $C$DW$200, DW_AT_location[DW_OP_bregx 0x24 0]
    2196              $C$DW$201       .dwtag  DW_TAG_variable, DW_AT_name("Divisor")
    2197                      .dwattr $C$DW$201, DW_AT_TI_symbol_name("_Divisor")
    2198                      .dwattr $C$DW$201, DW_AT_type(*$C$DW$T$19)
    2199                      .dwattr $C$DW$201, DW_AT_location[DW_OP_bregx 0x24 1]
    2200              $C$DW$202       .dwtag  DW_TAG_variable, DW_AT_name("Quoitient")
    2201                      .dwattr $C$DW$202, DW_AT_TI_symbol_name("_Quoitient")
    2202                      .dwattr $C$DW$202, DW_AT_type(*$C$DW$T$19)
    2203                      .dwattr $C$DW$202, DW_AT_location[DW_OP_bregx 0x24 2]
    2204 00040a C502          MOV T1, *SP(#1) ; |367| 
    2205 00040c C400          MOV T0, *SP(#0) ; |367| 
    2206                      .dwpsn  file "../c5535_bsl_revc/ezdsp5535_v1/c55xx_csl/ccs_v4.0_examples/lcd/CSL_LCDC_DiagramExample/
    2207 00040e E604          MOV #0, *SP(#2) ; |370| 
         000410 00   
    2208                      .dwpsn  file "../c5535_bsl_revc/ezdsp5535_v1/c55xx_csl/ccs_v4.0_examples/lcd/CSL_LCDC_DiagramExample/
    2209 000411 A902          MOV *SP(#1), AR1 ; |372| 
    2210 000413 AA00          MOV *SP(#0), AR2 ; |372| 
    2211 000415 12A4          CMPU AR2 < AR1, TC1 ; |372| 
         000417 94   
    2212 000418 0464          BCC $C$L27,TC1 ; |372| 
         00041a 15   
    2213                                                      ; branchcc occurs ; |372| 
    2214 00041b       $C$L26:    
    2215 00041b       $C$DW$L$_lcdDivFun$2$B:
    2216                      .dwpsn  file "../c5535_bsl_revc/ezdsp5535_v1/c55xx_csl/ccs_v4.0_examples/lcd/CSL_LCDC_DiagramExample/
    2217 00041b F704          ADD #1, *SP(#2) ; |374| 
         00041d 0001 
    2218                      .dwpsn  file "../c5535_bsl_revc/ezdsp5535_v1/c55xx_csl/ccs_v4.0_examples/lcd/CSL_LCDC_DiagramExample/
    2219 00041f A000          MOV *SP(#0), AC0 ; |375| 
    2220 000421 DF02          SUB uns(*SP(#1)), AC0, AC0 ; |375| 
         000423 0F   
    2221 000424 C000          MOV AC0, *SP(#0) ; |375| 
    2222                      .dwpsn  file "../c5535_bsl_revc/ezdsp5535_v1/c55xx_csl/ccs_v4.0_examples/lcd/CSL_LCDC_DiagramExample/
    2223              
    2224 000426 A902          MOV *SP(#1), AR1 ; |372| 
    2225 000428 230A  ||      MOV AC0, AR2 ; |372| 
    2226              
    2227 00042a 12A8          CMPU AR2 >= AR1, TC1 ; |372| 
         00042c 94   
    2228 00042d 0464          BCC $C$L26,TC1 ; |372| 
         00042f EB   
    2229                                                      ; branchcc occurs ; |372| 
    2230 000430       $C$DW$L$_lcdDivFun$2$E:
    2231 000430       $C$L27:    
    2232                      .dwpsn  file "../c5535_bsl_revc/ezdsp5535_v1/c55xx_csl/ccs_v4.0_examples/lcd/CSL_LCDC_DiagramExample/
    2233 000430 A404          MOV *SP(#2), T0 ; |377| 
    2234                      .dwpsn  file "../c5535_bsl_revc/ezdsp5535_v1/c55xx_csl/ccs_v4.0_examples/lcd/CSL_LCDC_DiagramExample/
    2235 000432 4E03          AADD #3, SP
    2236                      .dwcfi  cfa_offset, 1
    2237              $C$DW$203       .dwtag  DW_TAG_TI_branch
TMS320C55x Assembler PC v4.4.1 Sat Sep 29 23:09:22 2018

Tools Copyright (c) 1996-2012 Texas Instruments Incorporated
lcdc_panel.asm                                                       PAGE   45

    2238                      .dwattr $C$DW$203, DW_AT_low_pc(0x00)
    2239                      .dwattr $C$DW$203, DW_AT_TI_return
    2240 000434 4804          RET
    2241                                                      ; return occurs
    2242              
    2243              $C$DW$204       .dwtag  DW_TAG_TI_loop
    2244                      .dwattr $C$DW$204, DW_AT_name("F:\eZdsp_DBG\tmp1\c55x-sim2\foo\Debug\lcdc_panel.asm:$C$L26:1:15382877
    2245                      .dwattr $C$DW$204, DW_AT_TI_begin_file("../c5535_bsl_revc/ezdsp5535_v1/c55xx_csl/ccs_v4.0_examples/lc
    2246                      .dwattr $C$DW$204, DW_AT_TI_begin_line(0x174)
    2247                      .dwattr $C$DW$204, DW_AT_TI_end_line(0x178)
    2248              $C$DW$205       .dwtag  DW_TAG_TI_loop_range
    2249                      .dwattr $C$DW$205, DW_AT_low_pc($C$DW$L$_lcdDivFun$2$B)
    2250                      .dwattr $C$DW$205, DW_AT_high_pc($C$DW$L$_lcdDivFun$2$E)
    2251                      .dwendtag $C$DW$204
    2252              
    2253                      .dwattr $C$DW$197, DW_AT_TI_end_file("../c5535_bsl_revc/ezdsp5535_v1/c55xx_csl/ccs_v4.0_examples/lcd/
    2254                      .dwattr $C$DW$197, DW_AT_TI_end_line(0x17a)
    2255                      .dwattr $C$DW$197, DW_AT_TI_end_column(0x01)
    2256                      .dwendentry
    2257                      .dwendtag $C$DW$197
    2258              
    2259 000436               .sect   ".text"
    2260                      .align 4
    2261                      .global _lcdModuloDivFun
    2262              
    2263              $C$DW$206       .dwtag  DW_TAG_subprogram, DW_AT_name("lcdModuloDivFun")
    2264                      .dwattr $C$DW$206, DW_AT_low_pc(_lcdModuloDivFun)
    2265                      .dwattr $C$DW$206, DW_AT_high_pc(0x00)
    2266                      .dwattr $C$DW$206, DW_AT_TI_symbol_name("_lcdModuloDivFun")
    2267                      .dwattr $C$DW$206, DW_AT_external
    2268                      .dwattr $C$DW$206, DW_AT_type(*$C$DW$T$19)
    2269                      .dwattr $C$DW$206, DW_AT_TI_begin_file("../c5535_bsl_revc/ezdsp5535_v1/c55xx_csl/ccs_v4.0_examples/lc
    2270                      .dwattr $C$DW$206, DW_AT_TI_begin_line(0x185)
    2271                      .dwattr $C$DW$206, DW_AT_TI_begin_column(0x08)
    2272                      .dwattr $C$DW$206, DW_AT_TI_max_frame_size(0x04)
    2273                      .dwpsn  file "../c5535_bsl_revc/ezdsp5535_v1/c55xx_csl/ccs_v4.0_examples/lcd/CSL_LCDC_DiagramExample/
    2274              
    2275                      .dwfde $C$DW$CIE, _lcdModuloDivFun
    2276              $C$DW$207       .dwtag  DW_TAG_formal_parameter, DW_AT_name("Dividend")
    2277                      .dwattr $C$DW$207, DW_AT_TI_symbol_name("_Dividend")
    2278                      .dwattr $C$DW$207, DW_AT_type(*$C$DW$T$19)
    2279                      .dwattr $C$DW$207, DW_AT_location[DW_OP_reg12]
    2280              $C$DW$208       .dwtag  DW_TAG_formal_parameter, DW_AT_name("Divisor")
    2281                      .dwattr $C$DW$208, DW_AT_TI_symbol_name("_Divisor")
    2282                      .dwattr $C$DW$208, DW_AT_type(*$C$DW$T$19)
    2283                      .dwattr $C$DW$208, DW_AT_location[DW_OP_reg13]
    2284              ;*******************************************************************************
    2285              ;* FUNCTION NAME: lcdModuloDivFun                                              *
    2286              ;*                                                                             *
    2287              ;*   Function Uses Regs : AC0,T0,T1,AR1,AR2,SP,CARRY,TC1,M40,SATA,SATD,RDM,    *
    2288              ;*                        FRCT,SMUL                                            *
    2289              ;*   Stack Frame        : Compact (No Frame Pointer, w/ debug)                 *
    2290              ;*   Total Frame Size   : 4 words                                              *
    2291              ;*                        (2 return address/alignment)                         *
    2292              ;*                        (2 local values)                                     *
TMS320C55x Assembler PC v4.4.1 Sat Sep 29 23:09:22 2018

Tools Copyright (c) 1996-2012 Texas Instruments Incorporated
lcdc_panel.asm                                                       PAGE   46

    2293              ;*   Min System Stack   : 1 word                                               *
    2294              ;*******************************************************************************
    2295 000438       _lcdModuloDivFun:
    2296                      .dwcfi  cfa_offset, 1
    2297                      .dwcfi  save_reg_to_mem, 91, -1
    2298 000438 4EFD          AADD #-3, SP
    2299                      .dwcfi  cfa_offset, 4
    2300              $C$DW$209       .dwtag  DW_TAG_variable, DW_AT_name("Dividend")
    2301                      .dwattr $C$DW$209, DW_AT_TI_symbol_name("_Dividend")
    2302                      .dwattr $C$DW$209, DW_AT_type(*$C$DW$T$19)
    2303                      .dwattr $C$DW$209, DW_AT_location[DW_OP_bregx 0x24 0]
    2304              $C$DW$210       .dwtag  DW_TAG_variable, DW_AT_name("Divisor")
    2305                      .dwattr $C$DW$210, DW_AT_TI_symbol_name("_Divisor")
    2306                      .dwattr $C$DW$210, DW_AT_type(*$C$DW$T$19)
    2307                      .dwattr $C$DW$210, DW_AT_location[DW_OP_bregx 0x24 1]
    2308 00043a C502          MOV T1, *SP(#1) ; |392| 
    2309 00043c C400          MOV T0, *SP(#0) ; |392| 
    2310                      .dwpsn  file "../c5535_bsl_revc/ezdsp5535_v1/c55xx_csl/ccs_v4.0_examples/lcd/CSL_LCDC_DiagramExample/
    2311              
    2312 00043e A902          MOV *SP(#1), AR1 ; |393| 
    2313 000440 234A  ||      MOV T0, AR2 ; |393| 
    2314              
    2315 000442 12A4          CMPU AR2 < AR1, TC1 ; |393| 
         000444 94   
    2316 000445 0464          BCC $C$L29,TC1 ; |393| 
         000447 11   
    2317                                                      ; branchcc occurs ; |393| 
    2318 000448       $C$L28:    
    2319 000448       $C$DW$L$_lcdModuloDivFun$2$B:
    2320                      .dwpsn  file "../c5535_bsl_revc/ezdsp5535_v1/c55xx_csl/ccs_v4.0_examples/lcd/CSL_LCDC_DiagramExample/
    2321 000448 22A0          MOV AR2, AC0
    2322 00044a DF02          SUB uns(*SP(#1)), AC0, AC0 ; |395| 
         00044c 0F   
    2323 00044d C000          MOV AC0, *SP(#0) ; |395| 
    2324                      .dwpsn  file "../c5535_bsl_revc/ezdsp5535_v1/c55xx_csl/ccs_v4.0_examples/lcd/CSL_LCDC_DiagramExample/
    2325              
    2326 000451 230A          MOV AC0, AR2 ; |393| 
    2327 00044f A902  ||      MOV *SP(#1), AR1 ; |393| 
    2328              
    2329 000453 12A8          CMPU AR2 >= AR1, TC1 ; |393| 
         000455 94   
    2330 000456 0464          BCC $C$L28,TC1 ; |393| 
         000458 EF   
    2331                                                      ; branchcc occurs ; |393| 
    2332 000459       $C$DW$L$_lcdModuloDivFun$2$E:
    2333 000459       $C$L29:    
    2334                      .dwpsn  file "../c5535_bsl_revc/ezdsp5535_v1/c55xx_csl/ccs_v4.0_examples/lcd/CSL_LCDC_DiagramExample/
    2335 000459 22A4          MOV AR2, T0
    2336                      .dwpsn  file "../c5535_bsl_revc/ezdsp5535_v1/c55xx_csl/ccs_v4.0_examples/lcd/CSL_LCDC_DiagramExample/
    2337 00045b 4E03          AADD #3, SP
    2338                      .dwcfi  cfa_offset, 1
    2339              $C$DW$211       .dwtag  DW_TAG_TI_branch
    2340                      .dwattr $C$DW$211, DW_AT_low_pc(0x00)
    2341                      .dwattr $C$DW$211, DW_AT_TI_return
    2342 00045d 4804          RET
TMS320C55x Assembler PC v4.4.1 Sat Sep 29 23:09:22 2018

Tools Copyright (c) 1996-2012 Texas Instruments Incorporated
lcdc_panel.asm                                                       PAGE   47

    2343                                                      ; return occurs
    2344              
    2345              $C$DW$212       .dwtag  DW_TAG_TI_loop
    2346                      .dwattr $C$DW$212, DW_AT_name("F:\eZdsp_DBG\tmp1\c55x-sim2\foo\Debug\lcdc_panel.asm:$C$L28:1:15382877
    2347                      .dwattr $C$DW$212, DW_AT_TI_begin_file("../c5535_bsl_revc/ezdsp5535_v1/c55xx_csl/ccs_v4.0_examples/lc
    2348                      .dwattr $C$DW$212, DW_AT_TI_begin_line(0x189)
    2349                      .dwattr $C$DW$212, DW_AT_TI_end_line(0x18c)
    2350              $C$DW$213       .dwtag  DW_TAG_TI_loop_range
    2351                      .dwattr $C$DW$213, DW_AT_low_pc($C$DW$L$_lcdModuloDivFun$2$B)
    2352                      .dwattr $C$DW$213, DW_AT_high_pc($C$DW$L$_lcdModuloDivFun$2$E)
    2353                      .dwendtag $C$DW$212
    2354              
    2355                      .dwattr $C$DW$206, DW_AT_TI_end_file("../c5535_bsl_revc/ezdsp5535_v1/c55xx_csl/ccs_v4.0_examples/lcd/
    2356                      .dwattr $C$DW$206, DW_AT_TI_end_line(0x18e)
    2357                      .dwattr $C$DW$206, DW_AT_TI_end_column(0x01)
    2358                      .dwendentry
    2359                      .dwendtag $C$DW$206
    2360              
    2361 00045f               .sect   ".text"
    2362                      .align 4
    2363                      .global _panelSetup
    2364              
    2365              $C$DW$214       .dwtag  DW_TAG_subprogram, DW_AT_name("panelSetup")
    2366                      .dwattr $C$DW$214, DW_AT_low_pc(_panelSetup)
    2367                      .dwattr $C$DW$214, DW_AT_high_pc(0x00)
    2368                      .dwattr $C$DW$214, DW_AT_TI_symbol_name("_panelSetup")
    2369                      .dwattr $C$DW$214, DW_AT_external
    2370                      .dwattr $C$DW$214, DW_AT_TI_begin_file("../c5535_bsl_revc/ezdsp5535_v1/c55xx_csl/ccs_v4.0_examples/lc
    2371                      .dwattr $C$DW$214, DW_AT_TI_begin_line(0x197)
    2372                      .dwattr $C$DW$214, DW_AT_TI_begin_column(0x06)
    2373                      .dwattr $C$DW$214, DW_AT_TI_max_frame_size(0x02)
    2374                      .dwpsn  file "../c5535_bsl_revc/ezdsp5535_v1/c55xx_csl/ccs_v4.0_examples/lcd/CSL_LCDC_DiagramExample/
    2375              
    2376                      .dwfde $C$DW$CIE, _panelSetup
    2377              $C$DW$215       .dwtag  DW_TAG_formal_parameter, DW_AT_name("cs_flag")
    2378                      .dwattr $C$DW$215, DW_AT_TI_symbol_name("_cs_flag")
    2379                      .dwattr $C$DW$215, DW_AT_type(*$C$DW$T$19)
    2380                      .dwattr $C$DW$215, DW_AT_location[DW_OP_reg12]
    2381              ;*******************************************************************************
    2382              ;* FUNCTION NAME: panelSetup                                                   *
    2383              ;*                                                                             *
    2384              ;*   Function Uses Regs : T0,T1,SP,M40,SATA,SATD,RDM,FRCT,SMUL                 *
    2385              ;*   Stack Frame        : Compact (No Frame Pointer, w/ debug)                 *
    2386              ;*   Total Frame Size   : 2 words                                              *
    2387              ;*                        (1 return address/alignment)                         *
    2388              ;*                        (1 local values)                                     *
    2389              ;*   Min System Stack   : 1 word                                               *
    2390              ;*******************************************************************************
    2391 000460       _panelSetup:
    2392                      .dwcfi  cfa_offset, 1
    2393                      .dwcfi  save_reg_to_mem, 91, -1
    2394 000460 4EFF          AADD #-1, SP
    2395                      .dwcfi  cfa_offset, 2
    2396              $C$DW$216       .dwtag  DW_TAG_variable, DW_AT_name("cs_flag")
    2397                      .dwattr $C$DW$216, DW_AT_TI_symbol_name("_cs_flag")
TMS320C55x Assembler PC v4.4.1 Sat Sep 29 23:09:22 2018

Tools Copyright (c) 1996-2012 Texas Instruments Incorporated
lcdc_panel.asm                                                       PAGE   48

    2398                      .dwattr $C$DW$216, DW_AT_type(*$C$DW$T$19)
    2399                      .dwattr $C$DW$216, DW_AT_location[DW_OP_bregx 0x24 0]
    2400 000462 C400          MOV T0, *SP(#0) ; |409| 
    2401                      .dwpsn  file "../c5535_bsl_revc/ezdsp5535_v1/c55xx_csl/ccs_v4.0_examples/lcd/CSL_LCDC_DiagramExample/
    2402 000464 7600          MOV #174, T0 ; |462| 
         000466 AE48 
    2403 000468 A500          MOV *SP(#0), T1 ; |462| 
    2404              $C$DW$217       .dwtag  DW_TAG_TI_branch
    2405                      .dwattr $C$DW$217, DW_AT_low_pc(0x00)
    2406                      .dwattr $C$DW$217, DW_AT_name("_cmdWrite")
    2407                      .dwattr $C$DW$217, DW_AT_TI_call
    2408 00046a 08FE          CALL #_cmdWrite ; |462| 
         00046c 1B   
    2409                                                      ; call occurs [#_cmdWrite] ; |462| 
    2410                      .dwpsn  file "../c5535_bsl_revc/ezdsp5535_v1/c55xx_csl/ccs_v4.0_examples/lcd/CSL_LCDC_DiagramExample/
    2411 00046d 7600          MOV #253, T0 ; |464| 
         00046f FD48 
    2412 000471 A500          MOV *SP(#0), T1 ; |464| 
    2413              $C$DW$218       .dwtag  DW_TAG_TI_branch
    2414                      .dwattr $C$DW$218, DW_AT_low_pc(0x00)
    2415                      .dwattr $C$DW$218, DW_AT_name("_cmdWrite")
    2416                      .dwattr $C$DW$218, DW_AT_TI_call
    2417 000473 08FE          CALL #_cmdWrite ; |464| 
         000475 12   
    2418                                                      ; call occurs [#_cmdWrite] ; |464| 
    2419                      .dwpsn  file "../c5535_bsl_revc/ezdsp5535_v1/c55xx_csl/ccs_v4.0_examples/lcd/CSL_LCDC_DiagramExample/
    2420 000476 7600          MOV #18, T0 ; |465| 
         000478 1248 
    2421 00047a A500          MOV *SP(#0), T1 ; |465| 
    2422              $C$DW$219       .dwtag  DW_TAG_TI_branch
    2423                      .dwattr $C$DW$219, DW_AT_low_pc(0x00)
    2424                      .dwattr $C$DW$219, DW_AT_name("_dataWrite")
    2425                      .dwattr $C$DW$219, DW_AT_TI_call
    2426 00047c 08FE          CALL #_dataWrite ; |465| 
         00047e 21   
    2427                                                      ; call occurs [#_dataWrite] ; |465| 
    2428                      .dwpsn  file "../c5535_bsl_revc/ezdsp5535_v1/c55xx_csl/ccs_v4.0_examples/lcd/CSL_LCDC_DiagramExample/
    2429 00047f 7600          MOV #253, T0 ; |466| 
         000481 FD48 
    2430 000483 A500          MOV *SP(#0), T1 ; |466| 
    2431              $C$DW$220       .dwtag  DW_TAG_TI_branch
    2432                      .dwattr $C$DW$220, DW_AT_low_pc(0x00)
    2433                      .dwattr $C$DW$220, DW_AT_name("_cmdWrite")
    2434                      .dwattr $C$DW$220, DW_AT_TI_call
    2435 000485 08FE          CALL #_cmdWrite ; |466| 
         000487 00   
    2436                                                      ; call occurs [#_cmdWrite] ; |466| 
    2437                      .dwpsn  file "../c5535_bsl_revc/ezdsp5535_v1/c55xx_csl/ccs_v4.0_examples/lcd/CSL_LCDC_DiagramExample/
    2438 000488 7600          MOV #177, T0 ; |467| 
         00048a B148 
    2439 00048c A500          MOV *SP(#0), T1 ; |467| 
    2440              $C$DW$221       .dwtag  DW_TAG_TI_branch
    2441                      .dwattr $C$DW$221, DW_AT_low_pc(0x00)
    2442                      .dwattr $C$DW$221, DW_AT_name("_dataWrite")
    2443                      .dwattr $C$DW$221, DW_AT_TI_call
TMS320C55x Assembler PC v4.4.1 Sat Sep 29 23:09:22 2018

Tools Copyright (c) 1996-2012 Texas Instruments Incorporated
lcdc_panel.asm                                                       PAGE   49

    2444 00048e 08FE          CALL #_dataWrite ; |467| 
         000490 0F   
    2445                                                      ; call occurs [#_dataWrite] ; |467| 
    2446                      .dwpsn  file "../c5535_bsl_revc/ezdsp5535_v1/c55xx_csl/ccs_v4.0_examples/lcd/CSL_LCDC_DiagramExample/
    2447 000491 7600          MOV #174, T0 ; |468| 
         000493 AE48 
    2448 000495 A500          MOV *SP(#0), T1 ; |468| 
    2449              $C$DW$222       .dwtag  DW_TAG_TI_branch
    2450                      .dwattr $C$DW$222, DW_AT_low_pc(0x00)
    2451                      .dwattr $C$DW$222, DW_AT_name("_cmdWrite")
    2452                      .dwattr $C$DW$222, DW_AT_TI_call
    2453 000497 08FD          CALL #_cmdWrite ; |468| 
         000499 EE   
    2454                                                      ; call occurs [#_cmdWrite] ; |468| 
    2455                      .dwpsn  file "../c5535_bsl_revc/ezdsp5535_v1/c55xx_csl/ccs_v4.0_examples/lcd/CSL_LCDC_DiagramExample/
    2456 00049a 7600          MOV #179, T0 ; |469| 
         00049c B348 
    2457 00049e A500          MOV *SP(#0), T1 ; |469| 
    2458              $C$DW$223       .dwtag  DW_TAG_TI_branch
    2459                      .dwattr $C$DW$223, DW_AT_low_pc(0x00)
    2460                      .dwattr $C$DW$223, DW_AT_name("_cmdWrite")
    2461                      .dwattr $C$DW$223, DW_AT_TI_call
    2462 0004a0 08FD          CALL #_cmdWrite ; |469| 
         0004a2 E5   
    2463                                                      ; call occurs [#_cmdWrite] ; |469| 
    2464                      .dwpsn  file "../c5535_bsl_revc/ezdsp5535_v1/c55xx_csl/ccs_v4.0_examples/lcd/CSL_LCDC_DiagramExample/
    2465 0004a3 7600          MOV #241, T0 ; |470| 
         0004a5 F148 
    2466 0004a7 A500          MOV *SP(#0), T1 ; |470| 
    2467              $C$DW$224       .dwtag  DW_TAG_TI_branch
    2468                      .dwattr $C$DW$224, DW_AT_low_pc(0x00)
    2469                      .dwattr $C$DW$224, DW_AT_name("_dataWrite")
    2470                      .dwattr $C$DW$224, DW_AT_TI_call
    2471 0004a9 08FD          CALL #_dataWrite ; |470| 
         0004ab F4   
    2472                                                      ; call occurs [#_dataWrite] ; |470| 
    2473                      .dwpsn  file "../c5535_bsl_revc/ezdsp5535_v1/c55xx_csl/ccs_v4.0_examples/lcd/CSL_LCDC_DiagramExample/
    2474 0004ac 7600          MOV #202, T0 ; |471| 
         0004ae CA48 
    2475 0004b0 A500          MOV *SP(#0), T1 ; |471| 
    2476              $C$DW$225       .dwtag  DW_TAG_TI_branch
    2477                      .dwattr $C$DW$225, DW_AT_low_pc(0x00)
    2478                      .dwattr $C$DW$225, DW_AT_name("_cmdWrite")
    2479                      .dwattr $C$DW$225, DW_AT_TI_call
    2480 0004b2 08FD          CALL #_cmdWrite ; |471| 
         0004b4 D3   
    2481                                                      ; call occurs [#_cmdWrite] ; |471| 
    2482                      .dwpsn  file "../c5535_bsl_revc/ezdsp5535_v1/c55xx_csl/ccs_v4.0_examples/lcd/CSL_LCDC_DiagramExample/
    2483 0004b5 7600          MOV #127, T0 ; |472| 
         0004b7 7F48 
    2484 0004b9 A500          MOV *SP(#0), T1 ; |472| 
    2485              $C$DW$226       .dwtag  DW_TAG_TI_branch
    2486                      .dwattr $C$DW$226, DW_AT_low_pc(0x00)
    2487                      .dwattr $C$DW$226, DW_AT_name("_dataWrite")
    2488                      .dwattr $C$DW$226, DW_AT_TI_call
TMS320C55x Assembler PC v4.4.1 Sat Sep 29 23:09:22 2018

Tools Copyright (c) 1996-2012 Texas Instruments Incorporated
lcdc_panel.asm                                                       PAGE   50

    2489 0004bb 08FD          CALL #_dataWrite ; |472| 
         0004bd E2   
    2490                                                      ; call occurs [#_dataWrite] ; |472| 
    2491                      .dwpsn  file "../c5535_bsl_revc/ezdsp5535_v1/c55xx_csl/ccs_v4.0_examples/lcd/CSL_LCDC_DiagramExample/
    2492 0004be 7600          MOV #162, T0 ; |473| 
         0004c0 A248 
    2493 0004c2 A500          MOV *SP(#0), T1 ; |473| 
    2494              $C$DW$227       .dwtag  DW_TAG_TI_branch
    2495                      .dwattr $C$DW$227, DW_AT_low_pc(0x00)
    2496                      .dwattr $C$DW$227, DW_AT_name("_cmdWrite")
    2497                      .dwattr $C$DW$227, DW_AT_TI_call
    2498 0004c4 08FD          CALL #_cmdWrite ; |473| 
         0004c6 C1   
    2499                                                      ; call occurs [#_cmdWrite] ; |473| 
    2500                      .dwpsn  file "../c5535_bsl_revc/ezdsp5535_v1/c55xx_csl/ccs_v4.0_examples/lcd/CSL_LCDC_DiagramExample/
    2501 0004c7 A500          MOV *SP(#0), T1 ; |474| 
    2502              $C$DW$228       .dwtag  DW_TAG_TI_branch
    2503                      .dwattr $C$DW$228, DW_AT_low_pc(0x00)
    2504                      .dwattr $C$DW$228, DW_AT_name("_dataWrite")
    2505                      .dwattr $C$DW$228, DW_AT_TI_call
    2506              
    2507 0004c9 08FD          CALL #_dataWrite ; |474| 
         0004cb D2   
    2508 0004cc 3D04  ||      MOV #0, T0
    2509              
    2510                                                      ; call occurs [#_dataWrite] ; |474| 
    2511                      .dwpsn  file "../c5535_bsl_revc/ezdsp5535_v1/c55xx_csl/ccs_v4.0_examples/lcd/CSL_LCDC_DiagramExample/
    2512 0004ce 7600          MOV #161, T0 ; |475| 
         0004d0 A148 
    2513 0004d2 A500          MOV *SP(#0), T1 ; |475| 
    2514              $C$DW$229       .dwtag  DW_TAG_TI_branch
    2515                      .dwattr $C$DW$229, DW_AT_low_pc(0x00)
    2516                      .dwattr $C$DW$229, DW_AT_name("_cmdWrite")
    2517                      .dwattr $C$DW$229, DW_AT_TI_call
    2518 0004d4 08FD          CALL #_cmdWrite ; |475| 
         0004d6 B1   
    2519                                                      ; call occurs [#_cmdWrite] ; |475| 
    2520                      .dwpsn  file "../c5535_bsl_revc/ezdsp5535_v1/c55xx_csl/ccs_v4.0_examples/lcd/CSL_LCDC_DiagramExample/
    2521 0004d7 A500          MOV *SP(#0), T1 ; |476| 
    2522              $C$DW$230       .dwtag  DW_TAG_TI_branch
    2523                      .dwattr $C$DW$230, DW_AT_low_pc(0x00)
    2524                      .dwattr $C$DW$230, DW_AT_name("_dataWrite")
    2525                      .dwattr $C$DW$230, DW_AT_TI_call
    2526              
    2527 0004d9 08FD          CALL #_dataWrite ; |476| 
         0004db C2   
    2528 0004dc 3D04  ||      MOV #0, T0
    2529              
    2530                                                      ; call occurs [#_dataWrite] ; |476| 
    2531                      .dwpsn  file "../c5535_bsl_revc/ezdsp5535_v1/c55xx_csl/ccs_v4.0_examples/lcd/CSL_LCDC_DiagramExample/
    2532 0004de 7600          MOV #160, T0 ; |477| 
         0004e0 A048 
    2533 0004e2 A500          MOV *SP(#0), T1 ; |477| 
    2534              $C$DW$231       .dwtag  DW_TAG_TI_branch
    2535                      .dwattr $C$DW$231, DW_AT_low_pc(0x00)
TMS320C55x Assembler PC v4.4.1 Sat Sep 29 23:09:22 2018

Tools Copyright (c) 1996-2012 Texas Instruments Incorporated
lcdc_panel.asm                                                       PAGE   51

    2536                      .dwattr $C$DW$231, DW_AT_name("_cmdWrite")
    2537                      .dwattr $C$DW$231, DW_AT_TI_call
    2538 0004e4 08FD          CALL #_cmdWrite ; |477| 
         0004e6 A1   
    2539                                                      ; call occurs [#_cmdWrite] ; |477| 
    2540                      .dwpsn  file "../c5535_bsl_revc/ezdsp5535_v1/c55xx_csl/ccs_v4.0_examples/lcd/CSL_LCDC_DiagramExample/
    2541 0004e7 7600          MOV #112, T0 ; |481| 
         0004e9 7048 
    2542 0004eb A500          MOV *SP(#0), T1 ; |481| 
    2543              $C$DW$232       .dwtag  DW_TAG_TI_branch
    2544                      .dwattr $C$DW$232, DW_AT_low_pc(0x00)
    2545                      .dwattr $C$DW$232, DW_AT_name("_dataWrite")
    2546                      .dwattr $C$DW$232, DW_AT_TI_call
    2547 0004ed 08FD          CALL #_dataWrite ; |481| 
         0004ef B0   
    2548                                                      ; call occurs [#_dataWrite] ; |481| 
    2549                      .dwpsn  file "../c5535_bsl_revc/ezdsp5535_v1/c55xx_csl/ccs_v4.0_examples/lcd/CSL_LCDC_DiagramExample/
    2550 0004f0 7600          MOV #181, T0 ; |483| 
         0004f2 B548 
    2551 0004f4 A500          MOV *SP(#0), T1 ; |483| 
    2552              $C$DW$233       .dwtag  DW_TAG_TI_branch
    2553                      .dwattr $C$DW$233, DW_AT_low_pc(0x00)
    2554                      .dwattr $C$DW$233, DW_AT_name("_cmdWrite")
    2555                      .dwattr $C$DW$233, DW_AT_TI_call
    2556 0004f6 08FD          CALL #_cmdWrite ; |483| 
         0004f8 8F   
    2557                                                      ; call occurs [#_cmdWrite] ; |483| 
    2558                      .dwpsn  file "../c5535_bsl_revc/ezdsp5535_v1/c55xx_csl/ccs_v4.0_examples/lcd/CSL_LCDC_DiagramExample/
    2559 0004f9 A500          MOV *SP(#0), T1 ; |484| 
    2560              $C$DW$234       .dwtag  DW_TAG_TI_branch
    2561                      .dwattr $C$DW$234, DW_AT_low_pc(0x00)
    2562                      .dwattr $C$DW$234, DW_AT_name("_dataWrite")
    2563                      .dwattr $C$DW$234, DW_AT_TI_call
    2564              
    2565 0004fb 08FD          CALL #_dataWrite ; |484| 
         0004fd A0   
    2566 0004fe 3D04  ||      MOV #0, T0
    2567              
    2568                                                      ; call occurs [#_dataWrite] ; |484| 
    2569                      .dwpsn  file "../c5535_bsl_revc/ezdsp5535_v1/c55xx_csl/ccs_v4.0_examples/lcd/CSL_LCDC_DiagramExample/
    2570 000500 7600          MOV #171, T0 ; |485| 
         000502 AB48 
    2571 000504 A500          MOV *SP(#0), T1 ; |485| 
    2572              $C$DW$235       .dwtag  DW_TAG_TI_branch
    2573                      .dwattr $C$DW$235, DW_AT_low_pc(0x00)
    2574                      .dwattr $C$DW$235, DW_AT_name("_cmdWrite")
    2575                      .dwattr $C$DW$235, DW_AT_TI_call
    2576 000506 08FD          CALL #_cmdWrite ; |485| 
         000508 7F   
    2577                                                      ; call occurs [#_cmdWrite] ; |485| 
    2578                      .dwpsn  file "../c5535_bsl_revc/ezdsp5535_v1/c55xx_csl/ccs_v4.0_examples/lcd/CSL_LCDC_DiagramExample/
    2579 000509 A500          MOV *SP(#0), T1 ; |486| 
    2580              $C$DW$236       .dwtag  DW_TAG_TI_branch
    2581                      .dwattr $C$DW$236, DW_AT_low_pc(0x00)
    2582                      .dwattr $C$DW$236, DW_AT_name("_dataWrite")
TMS320C55x Assembler PC v4.4.1 Sat Sep 29 23:09:22 2018

Tools Copyright (c) 1996-2012 Texas Instruments Incorporated
lcdc_panel.asm                                                       PAGE   52

    2583                      .dwattr $C$DW$236, DW_AT_TI_call
    2584              
    2585 00050b 08FD          CALL #_dataWrite ; |486| 
         00050d 90   
    2586 00050e 3D14  ||      MOV #1, T0
    2587              
    2588                                                      ; call occurs [#_dataWrite] ; |486| 
    2589                      .dwpsn  file "../c5535_bsl_revc/ezdsp5535_v1/c55xx_csl/ccs_v4.0_examples/lcd/CSL_LCDC_DiagramExample/
    2590 000510 7600          MOV #180, T0 ; |487| 
         000512 B448 
    2591 000514 A500          MOV *SP(#0), T1 ; |487| 
    2592              $C$DW$237       .dwtag  DW_TAG_TI_branch
    2593                      .dwattr $C$DW$237, DW_AT_low_pc(0x00)
    2594                      .dwattr $C$DW$237, DW_AT_name("_cmdWrite")
    2595                      .dwattr $C$DW$237, DW_AT_TI_call
    2596 000516 08FD          CALL #_cmdWrite ; |487| 
         000518 6F   
    2597                                                      ; call occurs [#_cmdWrite] ; |487| 
    2598                      .dwpsn  file "../c5535_bsl_revc/ezdsp5535_v1/c55xx_csl/ccs_v4.0_examples/lcd/CSL_LCDC_DiagramExample/
    2599 000519 7600          MOV #160, T0 ; |488| 
         00051b A048 
    2600 00051d A500          MOV *SP(#0), T1 ; |488| 
    2601              $C$DW$238       .dwtag  DW_TAG_TI_branch
    2602                      .dwattr $C$DW$238, DW_AT_low_pc(0x00)
    2603                      .dwattr $C$DW$238, DW_AT_name("_dataWrite")
    2604                      .dwattr $C$DW$238, DW_AT_TI_call
    2605 00051f 08FD          CALL #_dataWrite ; |488| 
         000521 7E   
    2606                                                      ; call occurs [#_dataWrite] ; |488| 
    2607                      .dwpsn  file "../c5535_bsl_revc/ezdsp5535_v1/c55xx_csl/ccs_v4.0_examples/lcd/CSL_LCDC_DiagramExample/
    2608 000522 A500          MOV *SP(#0), T1 ; |489| 
    2609 000524 7600          MOV #181, T0 ; |489| 
         000526 B548 
    2610              $C$DW$239       .dwtag  DW_TAG_TI_branch
    2611                      .dwattr $C$DW$239, DW_AT_low_pc(0x00)
    2612                      .dwattr $C$DW$239, DW_AT_name("_dataWrite")
    2613                      .dwattr $C$DW$239, DW_AT_TI_call
    2614 000528 08FD          CALL #_dataWrite ; |489| 
         00052a 75   
    2615                                                      ; call occurs [#_dataWrite] ; |489| 
    2616                      .dwpsn  file "../c5535_bsl_revc/ezdsp5535_v1/c55xx_csl/ccs_v4.0_examples/lcd/CSL_LCDC_DiagramExample/
    2617 00052b 7600          MOV #85, T0 ; |490| 
         00052d 5548 
    2618 00052f A500          MOV *SP(#0), T1 ; |490| 
    2619              $C$DW$240       .dwtag  DW_TAG_TI_branch
    2620                      .dwattr $C$DW$240, DW_AT_low_pc(0x00)
    2621                      .dwattr $C$DW$240, DW_AT_name("_dataWrite")
    2622                      .dwattr $C$DW$240, DW_AT_TI_call
    2623 000531 08FD          CALL #_dataWrite ; |490| 
         000533 6C   
    2624                                                      ; call occurs [#_dataWrite] ; |490| 
    2625                      .dwpsn  file "../c5535_bsl_revc/ezdsp5535_v1/c55xx_csl/ccs_v4.0_examples/lcd/CSL_LCDC_DiagramExample/
    2626 000534 7600          MOV #193, T0 ; |491| 
         000536 C148 
    2627 000538 A500          MOV *SP(#0), T1 ; |491| 
TMS320C55x Assembler PC v4.4.1 Sat Sep 29 23:09:22 2018

Tools Copyright (c) 1996-2012 Texas Instruments Incorporated
lcdc_panel.asm                                                       PAGE   53

    2628              $C$DW$241       .dwtag  DW_TAG_TI_branch
    2629                      .dwattr $C$DW$241, DW_AT_low_pc(0x00)
    2630                      .dwattr $C$DW$241, DW_AT_name("_cmdWrite")
    2631                      .dwattr $C$DW$241, DW_AT_TI_call
    2632 00053a 08FD          CALL #_cmdWrite ; |491| 
         00053c 4B   
    2633                                                      ; call occurs [#_cmdWrite] ; |491| 
    2634                      .dwpsn  file "../c5535_bsl_revc/ezdsp5535_v1/c55xx_csl/ccs_v4.0_examples/lcd/CSL_LCDC_DiagramExample/
    2635 00053d 7600          MOV #200, T0 ; |492| 
         00053f C848 
    2636 000541 A500          MOV *SP(#0), T1 ; |492| 
    2637              $C$DW$242       .dwtag  DW_TAG_TI_branch
    2638                      .dwattr $C$DW$242, DW_AT_low_pc(0x00)
    2639                      .dwattr $C$DW$242, DW_AT_name("_dataWrite")
    2640                      .dwattr $C$DW$242, DW_AT_TI_call
    2641 000543 08FD          CALL #_dataWrite ; |492| 
         000545 5A   
    2642                                                      ; call occurs [#_dataWrite] ; |492| 
    2643                      .dwpsn  file "../c5535_bsl_revc/ezdsp5535_v1/c55xx_csl/ccs_v4.0_examples/lcd/CSL_LCDC_DiagramExample/
    2644 000546 7600          MOV #128, T0 ; |493| 
         000548 8048 
    2645 00054a A500          MOV *SP(#0), T1 ; |493| 
    2646              $C$DW$243       .dwtag  DW_TAG_TI_branch
    2647                      .dwattr $C$DW$243, DW_AT_low_pc(0x00)
    2648                      .dwattr $C$DW$243, DW_AT_name("_dataWrite")
    2649                      .dwattr $C$DW$243, DW_AT_TI_call
    2650 00054c 08FD          CALL #_dataWrite ; |493| 
         00054e 51   
    2651                                                      ; call occurs [#_dataWrite] ; |493| 
    2652                      .dwpsn  file "../c5535_bsl_revc/ezdsp5535_v1/c55xx_csl/ccs_v4.0_examples/lcd/CSL_LCDC_DiagramExample/
    2653 00054f 7600          MOV #200, T0 ; |494| 
         000551 C848 
    2654 000553 A500          MOV *SP(#0), T1 ; |494| 
    2655              $C$DW$244       .dwtag  DW_TAG_TI_branch
    2656                      .dwattr $C$DW$244, DW_AT_low_pc(0x00)
    2657                      .dwattr $C$DW$244, DW_AT_name("_dataWrite")
    2658                      .dwattr $C$DW$244, DW_AT_TI_call
    2659 000555 08FD          CALL #_dataWrite ; |494| 
         000557 48   
    2660                                                      ; call occurs [#_dataWrite] ; |494| 
    2661                      .dwpsn  file "../c5535_bsl_revc/ezdsp5535_v1/c55xx_csl/ccs_v4.0_examples/lcd/CSL_LCDC_DiagramExample/
    2662 000558 7600          MOV #199, T0 ; |495| 
         00055a C748 
    2663 00055c A500          MOV *SP(#0), T1 ; |495| 
    2664              $C$DW$245       .dwtag  DW_TAG_TI_branch
    2665                      .dwattr $C$DW$245, DW_AT_low_pc(0x00)
    2666                      .dwattr $C$DW$245, DW_AT_name("_cmdWrite")
    2667                      .dwattr $C$DW$245, DW_AT_TI_call
    2668 00055e 08FD          CALL #_cmdWrite ; |495| 
         000560 27   
    2669                                                      ; call occurs [#_cmdWrite] ; |495| 
    2670                      .dwpsn  file "../c5535_bsl_revc/ezdsp5535_v1/c55xx_csl/ccs_v4.0_examples/lcd/CSL_LCDC_DiagramExample/
    2671 000561 A500          MOV *SP(#0), T1 ; |496| 
    2672              $C$DW$246       .dwtag  DW_TAG_TI_branch
    2673                      .dwattr $C$DW$246, DW_AT_low_pc(0x00)
TMS320C55x Assembler PC v4.4.1 Sat Sep 29 23:09:22 2018

Tools Copyright (c) 1996-2012 Texas Instruments Incorporated
lcdc_panel.asm                                                       PAGE   54

    2674                      .dwattr $C$DW$246, DW_AT_name("_dataWrite")
    2675                      .dwattr $C$DW$246, DW_AT_TI_call
    2676              
    2677 000563 08FD          CALL #_dataWrite ; |496| 
         000565 38   
    2678 000566 3DF4  ||      MOV #15, T0
    2679              
    2680                                                      ; call occurs [#_dataWrite] ; |496| 
    2681                      .dwpsn  file "../c5535_bsl_revc/ezdsp5535_v1/c55xx_csl/ccs_v4.0_examples/lcd/CSL_LCDC_DiagramExample/
    2682 000568 7600          MOV #184, T0 ; |497| 
         00056a B848 
    2683 00056c A500          MOV *SP(#0), T1 ; |497| 
    2684              $C$DW$247       .dwtag  DW_TAG_TI_branch
    2685                      .dwattr $C$DW$247, DW_AT_low_pc(0x00)
    2686                      .dwattr $C$DW$247, DW_AT_name("_cmdWrite")
    2687                      .dwattr $C$DW$247, DW_AT_TI_call
    2688 00056e 08FD          CALL #_cmdWrite ; |497| 
         000570 17   
    2689                                                      ; call occurs [#_cmdWrite] ; |497| 
    2690                      .dwpsn  file "../c5535_bsl_revc/ezdsp5535_v1/c55xx_csl/ccs_v4.0_examples/lcd/CSL_LCDC_DiagramExample/
    2691 000571 A500          MOV *SP(#0), T1 ; |498| 
    2692              $C$DW$248       .dwtag  DW_TAG_TI_branch
    2693                      .dwattr $C$DW$248, DW_AT_low_pc(0x00)
    2694                      .dwattr $C$DW$248, DW_AT_name("_dataWrite")
    2695                      .dwattr $C$DW$248, DW_AT_TI_call
    2696              
    2697 000573 08FD          CALL #_dataWrite ; |498| 
         000575 28   
    2698 000576 3D24  ||      MOV #2, T0
    2699              
    2700                                                      ; call occurs [#_dataWrite] ; |498| 
    2701                      .dwpsn  file "../c5535_bsl_revc/ezdsp5535_v1/c55xx_csl/ccs_v4.0_examples/lcd/CSL_LCDC_DiagramExample/
    2702 000578 A500          MOV *SP(#0), T1 ; |499| 
    2703              $C$DW$249       .dwtag  DW_TAG_TI_branch
    2704                      .dwattr $C$DW$249, DW_AT_low_pc(0x00)
    2705                      .dwattr $C$DW$249, DW_AT_name("_dataWrite")
    2706                      .dwattr $C$DW$249, DW_AT_TI_call
    2707              
    2708 00057a 08FD          CALL #_dataWrite ; |499| 
         00057c 21   
    2709 00057d 3D34  ||      MOV #3, T0
    2710              
    2711                                                      ; call occurs [#_dataWrite] ; |499| 
    2712                      .dwpsn  file "../c5535_bsl_revc/ezdsp5535_v1/c55xx_csl/ccs_v4.0_examples/lcd/CSL_LCDC_DiagramExample/
    2713 00057f A500          MOV *SP(#0), T1 ; |500| 
    2714              $C$DW$250       .dwtag  DW_TAG_TI_branch
    2715                      .dwattr $C$DW$250, DW_AT_low_pc(0x00)
    2716                      .dwattr $C$DW$250, DW_AT_name("_dataWrite")
    2717                      .dwattr $C$DW$250, DW_AT_TI_call
    2718              
    2719 000581 08FD          CALL #_dataWrite ; |500| 
         000583 1A   
    2720 000584 3D44  ||      MOV #4, T0
    2721              
    2722                                                      ; call occurs [#_dataWrite] ; |500| 
TMS320C55x Assembler PC v4.4.1 Sat Sep 29 23:09:22 2018

Tools Copyright (c) 1996-2012 Texas Instruments Incorporated
lcdc_panel.asm                                                       PAGE   55

    2723                      .dwpsn  file "../c5535_bsl_revc/ezdsp5535_v1/c55xx_csl/ccs_v4.0_examples/lcd/CSL_LCDC_DiagramExample/
    2724 000586 A500          MOV *SP(#0), T1 ; |501| 
    2725              $C$DW$251       .dwtag  DW_TAG_TI_branch
    2726                      .dwattr $C$DW$251, DW_AT_low_pc(0x00)
    2727                      .dwattr $C$DW$251, DW_AT_name("_dataWrite")
    2728                      .dwattr $C$DW$251, DW_AT_TI_call
    2729              
    2730 000588 08FD          CALL #_dataWrite ; |501| 
         00058a 13   
    2731 00058b 3D54  ||      MOV #5, T0
    2732              
    2733                                                      ; call occurs [#_dataWrite] ; |501| 
    2734                      .dwpsn  file "../c5535_bsl_revc/ezdsp5535_v1/c55xx_csl/ccs_v4.0_examples/lcd/CSL_LCDC_DiagramExample/
    2735 00058d A500          MOV *SP(#0), T1 ; |502| 
    2736              $C$DW$252       .dwtag  DW_TAG_TI_branch
    2737                      .dwattr $C$DW$252, DW_AT_low_pc(0x00)
    2738                      .dwattr $C$DW$252, DW_AT_name("_dataWrite")
    2739                      .dwattr $C$DW$252, DW_AT_TI_call
    2740              
    2741 00058f 08FD          CALL #_dataWrite ; |502| 
         000591 0C   
    2742 000592 3D64  ||      MOV #6, T0
    2743              
    2744                                                      ; call occurs [#_dataWrite] ; |502| 
    2745                      .dwpsn  file "../c5535_bsl_revc/ezdsp5535_v1/c55xx_csl/ccs_v4.0_examples/lcd/CSL_LCDC_DiagramExample/
    2746 000594 A500          MOV *SP(#0), T1 ; |503| 
    2747              $C$DW$253       .dwtag  DW_TAG_TI_branch
    2748                      .dwattr $C$DW$253, DW_AT_low_pc(0x00)
    2749                      .dwattr $C$DW$253, DW_AT_name("_dataWrite")
    2750                      .dwattr $C$DW$253, DW_AT_TI_call
    2751              
    2752 000596 08FD          CALL #_dataWrite ; |503| 
         000598 05   
    2753 000599 3D74  ||      MOV #7, T0
    2754              
    2755                                                      ; call occurs [#_dataWrite] ; |503| 
    2756                      .dwpsn  file "../c5535_bsl_revc/ezdsp5535_v1/c55xx_csl/ccs_v4.0_examples/lcd/CSL_LCDC_DiagramExample/
    2757 00059b A500          MOV *SP(#0), T1 ; |504| 
    2758              $C$DW$254       .dwtag  DW_TAG_TI_branch
    2759                      .dwattr $C$DW$254, DW_AT_low_pc(0x00)
    2760                      .dwattr $C$DW$254, DW_AT_name("_dataWrite")
    2761                      .dwattr $C$DW$254, DW_AT_TI_call
    2762              
    2763 00059d 08FC          CALL #_dataWrite ; |504| 
         00059f FE   
    2764 0005a0 3D84  ||      MOV #8, T0
    2765              
    2766                                                      ; call occurs [#_dataWrite] ; |504| 
    2767                      .dwpsn  file "../c5535_bsl_revc/ezdsp5535_v1/c55xx_csl/ccs_v4.0_examples/lcd/CSL_LCDC_DiagramExample/
    2768 0005a2 A500          MOV *SP(#0), T1 ; |505| 
    2769              $C$DW$255       .dwtag  DW_TAG_TI_branch
    2770                      .dwattr $C$DW$255, DW_AT_low_pc(0x00)
    2771                      .dwattr $C$DW$255, DW_AT_name("_dataWrite")
    2772                      .dwattr $C$DW$255, DW_AT_TI_call
    2773              
TMS320C55x Assembler PC v4.4.1 Sat Sep 29 23:09:22 2018

Tools Copyright (c) 1996-2012 Texas Instruments Incorporated
lcdc_panel.asm                                                       PAGE   56

    2774 0005a4 08FC          CALL #_dataWrite ; |505| 
         0005a6 F7   
    2775 0005a7 3D94  ||      MOV #9, T0
    2776              
    2777                                                      ; call occurs [#_dataWrite] ; |505| 
    2778                      .dwpsn  file "../c5535_bsl_revc/ezdsp5535_v1/c55xx_csl/ccs_v4.0_examples/lcd/CSL_LCDC_DiagramExample/
    2779 0005a9 A500          MOV *SP(#0), T1 ; |506| 
    2780              $C$DW$256       .dwtag  DW_TAG_TI_branch
    2781                      .dwattr $C$DW$256, DW_AT_low_pc(0x00)
    2782                      .dwattr $C$DW$256, DW_AT_name("_dataWrite")
    2783                      .dwattr $C$DW$256, DW_AT_TI_call
    2784              
    2785 0005ab 08FC          CALL #_dataWrite ; |506| 
         0005ad F0   
    2786 0005ae 3DA4  ||      MOV #10, T0
    2787              
    2788                                                      ; call occurs [#_dataWrite] ; |506| 
    2789                      .dwpsn  file "../c5535_bsl_revc/ezdsp5535_v1/c55xx_csl/ccs_v4.0_examples/lcd/CSL_LCDC_DiagramExample/
    2790 0005b0 A500          MOV *SP(#0), T1 ; |507| 
    2791              $C$DW$257       .dwtag  DW_TAG_TI_branch
    2792                      .dwattr $C$DW$257, DW_AT_low_pc(0x00)
    2793                      .dwattr $C$DW$257, DW_AT_name("_dataWrite")
    2794                      .dwattr $C$DW$257, DW_AT_TI_call
    2795              
    2796 0005b2 08FC          CALL #_dataWrite ; |507| 
         0005b4 E9   
    2797 0005b5 3DB4  ||      MOV #11, T0
    2798              
    2799                                                      ; call occurs [#_dataWrite] ; |507| 
    2800                      .dwpsn  file "../c5535_bsl_revc/ezdsp5535_v1/c55xx_csl/ccs_v4.0_examples/lcd/CSL_LCDC_DiagramExample/
    2801 0005b7 A500          MOV *SP(#0), T1 ; |508| 
    2802              $C$DW$258       .dwtag  DW_TAG_TI_branch
    2803                      .dwattr $C$DW$258, DW_AT_low_pc(0x00)
    2804                      .dwattr $C$DW$258, DW_AT_name("_dataWrite")
    2805                      .dwattr $C$DW$258, DW_AT_TI_call
    2806              
    2807 0005b9 08FC          CALL #_dataWrite ; |508| 
         0005bb E2   
    2808 0005bc 3DC4  ||      MOV #12, T0
    2809              
    2810                                                      ; call occurs [#_dataWrite] ; |508| 
    2811                      .dwpsn  file "../c5535_bsl_revc/ezdsp5535_v1/c55xx_csl/ccs_v4.0_examples/lcd/CSL_LCDC_DiagramExample/
    2812 0005be A500          MOV *SP(#0), T1 ; |509| 
    2813              $C$DW$259       .dwtag  DW_TAG_TI_branch
    2814                      .dwattr $C$DW$259, DW_AT_low_pc(0x00)
    2815                      .dwattr $C$DW$259, DW_AT_name("_dataWrite")
    2816                      .dwattr $C$DW$259, DW_AT_TI_call
    2817              
    2818 0005c0 08FC          CALL #_dataWrite ; |509| 
         0005c2 DB   
    2819 0005c3 3DD4  ||      MOV #13, T0
    2820              
    2821                                                      ; call occurs [#_dataWrite] ; |509| 
    2822                      .dwpsn  file "../c5535_bsl_revc/ezdsp5535_v1/c55xx_csl/ccs_v4.0_examples/lcd/CSL_LCDC_DiagramExample/
    2823 0005c5 A500          MOV *SP(#0), T1 ; |510| 
TMS320C55x Assembler PC v4.4.1 Sat Sep 29 23:09:22 2018

Tools Copyright (c) 1996-2012 Texas Instruments Incorporated
lcdc_panel.asm                                                       PAGE   57

    2824              $C$DW$260       .dwtag  DW_TAG_TI_branch
    2825                      .dwattr $C$DW$260, DW_AT_low_pc(0x00)
    2826                      .dwattr $C$DW$260, DW_AT_name("_dataWrite")
    2827                      .dwattr $C$DW$260, DW_AT_TI_call
    2828              
    2829 0005c7 08FC          CALL #_dataWrite ; |510| 
         0005c9 D4   
    2830 0005ca 3DE4  ||      MOV #14, T0
    2831              
    2832                                                      ; call occurs [#_dataWrite] ; |510| 
    2833                      .dwpsn  file "../c5535_bsl_revc/ezdsp5535_v1/c55xx_csl/ccs_v4.0_examples/lcd/CSL_LCDC_DiagramExample/
    2834 0005cc A500          MOV *SP(#0), T1 ; |511| 
    2835              $C$DW$261       .dwtag  DW_TAG_TI_branch
    2836                      .dwattr $C$DW$261, DW_AT_low_pc(0x00)
    2837                      .dwattr $C$DW$261, DW_AT_name("_dataWrite")
    2838                      .dwattr $C$DW$261, DW_AT_TI_call
    2839              
    2840 0005ce 08FC          CALL #_dataWrite ; |511| 
         0005d0 CD   
    2841 0005d1 3DF4  ||      MOV #15, T0
    2842              
    2843                                                      ; call occurs [#_dataWrite] ; |511| 
    2844                      .dwpsn  file "../c5535_bsl_revc/ezdsp5535_v1/c55xx_csl/ccs_v4.0_examples/lcd/CSL_LCDC_DiagramExample/
    2845 0005d3 7600          MOV #16, T0 ; |512| 
         0005d5 1048 
    2846 0005d7 A500          MOV *SP(#0), T1 ; |512| 
    2847              $C$DW$262       .dwtag  DW_TAG_TI_branch
    2848                      .dwattr $C$DW$262, DW_AT_low_pc(0x00)
    2849                      .dwattr $C$DW$262, DW_AT_name("_dataWrite")
    2850                      .dwattr $C$DW$262, DW_AT_TI_call
    2851 0005d9 08FC          CALL #_dataWrite ; |512| 
         0005db C4   
    2852                                                      ; call occurs [#_dataWrite] ; |512| 
    2853                      .dwpsn  file "../c5535_bsl_revc/ezdsp5535_v1/c55xx_csl/ccs_v4.0_examples/lcd/CSL_LCDC_DiagramExample/
    2854 0005dc 7600          MOV #17, T0 ; |513| 
         0005de 1148 
    2855 0005e0 A500          MOV *SP(#0), T1 ; |513| 
    2856              $C$DW$263       .dwtag  DW_TAG_TI_branch
    2857                      .dwattr $C$DW$263, DW_AT_low_pc(0x00)
    2858                      .dwattr $C$DW$263, DW_AT_name("_dataWrite")
    2859                      .dwattr $C$DW$263, DW_AT_TI_call
    2860 0005e2 08FC          CALL #_dataWrite ; |513| 
         0005e4 BB   
    2861                                                      ; call occurs [#_dataWrite] ; |513| 
    2862                      .dwpsn  file "../c5535_bsl_revc/ezdsp5535_v1/c55xx_csl/ccs_v4.0_examples/lcd/CSL_LCDC_DiagramExample/
    2863 0005e5 7600          MOV #18, T0 ; |514| 
         0005e7 1248 
    2864 0005e9 A500          MOV *SP(#0), T1 ; |514| 
    2865              $C$DW$264       .dwtag  DW_TAG_TI_branch
    2866                      .dwattr $C$DW$264, DW_AT_low_pc(0x00)
    2867                      .dwattr $C$DW$264, DW_AT_name("_dataWrite")
    2868                      .dwattr $C$DW$264, DW_AT_TI_call
    2869 0005eb 08FC          CALL #_dataWrite ; |514| 
         0005ed B2   
    2870                                                      ; call occurs [#_dataWrite] ; |514| 
TMS320C55x Assembler PC v4.4.1 Sat Sep 29 23:09:22 2018

Tools Copyright (c) 1996-2012 Texas Instruments Incorporated
lcdc_panel.asm                                                       PAGE   58

    2871                      .dwpsn  file "../c5535_bsl_revc/ezdsp5535_v1/c55xx_csl/ccs_v4.0_examples/lcd/CSL_LCDC_DiagramExample/
    2872 0005ee 7600          MOV #19, T0 ; |515| 
         0005f0 1348 
    2873 0005f2 A500          MOV *SP(#0), T1 ; |515| 
    2874              $C$DW$265       .dwtag  DW_TAG_TI_branch
    2875                      .dwattr $C$DW$265, DW_AT_low_pc(0x00)
    2876                      .dwattr $C$DW$265, DW_AT_name("_dataWrite")
    2877                      .dwattr $C$DW$265, DW_AT_TI_call
    2878 0005f4 08FC          CALL #_dataWrite ; |515| 
         0005f6 A9   
    2879                                                      ; call occurs [#_dataWrite] ; |515| 
    2880                      .dwpsn  file "../c5535_bsl_revc/ezdsp5535_v1/c55xx_csl/ccs_v4.0_examples/lcd/CSL_LCDC_DiagramExample/
    2881 0005f7 7600          MOV #21, T0 ; |516| 
         0005f9 1548 
    2882 0005fb A500          MOV *SP(#0), T1 ; |516| 
    2883              $C$DW$266       .dwtag  DW_TAG_TI_branch
    2884                      .dwattr $C$DW$266, DW_AT_low_pc(0x00)
    2885                      .dwattr $C$DW$266, DW_AT_name("_dataWrite")
    2886                      .dwattr $C$DW$266, DW_AT_TI_call
    2887 0005fd 08FC          CALL #_dataWrite ; |516| 
         0005ff A0   
    2888                                                      ; call occurs [#_dataWrite] ; |516| 
    2889                      .dwpsn  file "../c5535_bsl_revc/ezdsp5535_v1/c55xx_csl/ccs_v4.0_examples/lcd/CSL_LCDC_DiagramExample/
    2890 000600 7600          MOV #23, T0 ; |517| 
         000602 1748 
    2891 000604 A500          MOV *SP(#0), T1 ; |517| 
    2892              $C$DW$267       .dwtag  DW_TAG_TI_branch
    2893                      .dwattr $C$DW$267, DW_AT_low_pc(0x00)
    2894                      .dwattr $C$DW$267, DW_AT_name("_dataWrite")
    2895                      .dwattr $C$DW$267, DW_AT_TI_call
    2896 000606 08FC          CALL #_dataWrite ; |517| 
         000608 97   
    2897                                                      ; call occurs [#_dataWrite] ; |517| 
    2898                      .dwpsn  file "../c5535_bsl_revc/ezdsp5535_v1/c55xx_csl/ccs_v4.0_examples/lcd/CSL_LCDC_DiagramExample/
    2899 000609 7600          MOV #25, T0 ; |518| 
         00060b 1948 
    2900 00060d A500          MOV *SP(#0), T1 ; |518| 
    2901              $C$DW$268       .dwtag  DW_TAG_TI_branch
    2902                      .dwattr $C$DW$268, DW_AT_low_pc(0x00)
    2903                      .dwattr $C$DW$268, DW_AT_name("_dataWrite")
    2904                      .dwattr $C$DW$268, DW_AT_TI_call
    2905 00060f 08FC          CALL #_dataWrite ; |518| 
         000611 8E   
    2906                                                      ; call occurs [#_dataWrite] ; |518| 
    2907                      .dwpsn  file "../c5535_bsl_revc/ezdsp5535_v1/c55xx_csl/ccs_v4.0_examples/lcd/CSL_LCDC_DiagramExample/
    2908 000612 7600          MOV #27, T0 ; |519| 
         000614 1B48 
    2909 000616 A500          MOV *SP(#0), T1 ; |519| 
    2910              $C$DW$269       .dwtag  DW_TAG_TI_branch
    2911                      .dwattr $C$DW$269, DW_AT_low_pc(0x00)
    2912                      .dwattr $C$DW$269, DW_AT_name("_dataWrite")
    2913                      .dwattr $C$DW$269, DW_AT_TI_call
    2914 000618 08FC          CALL #_dataWrite ; |519| 
         00061a 85   
    2915                                                      ; call occurs [#_dataWrite] ; |519| 
TMS320C55x Assembler PC v4.4.1 Sat Sep 29 23:09:22 2018

Tools Copyright (c) 1996-2012 Texas Instruments Incorporated
lcdc_panel.asm                                                       PAGE   59

    2916                      .dwpsn  file "../c5535_bsl_revc/ezdsp5535_v1/c55xx_csl/ccs_v4.0_examples/lcd/CSL_LCDC_DiagramExample/
    2917 00061b 7600          MOV #29, T0 ; |520| 
         00061d 1D48 
    2918 00061f A500          MOV *SP(#0), T1 ; |520| 
    2919              $C$DW$270       .dwtag  DW_TAG_TI_branch
    2920                      .dwattr $C$DW$270, DW_AT_low_pc(0x00)
    2921                      .dwattr $C$DW$270, DW_AT_name("_dataWrite")
    2922                      .dwattr $C$DW$270, DW_AT_TI_call
    2923 000621 08FC          CALL #_dataWrite ; |520| 
         000623 7C   
    2924                                                      ; call occurs [#_dataWrite] ; |520| 
    2925                      .dwpsn  file "../c5535_bsl_revc/ezdsp5535_v1/c55xx_csl/ccs_v4.0_examples/lcd/CSL_LCDC_DiagramExample/
    2926 000624 7600          MOV #31, T0 ; |521| 
         000626 1F48 
    2927 000628 A500          MOV *SP(#0), T1 ; |521| 
    2928              $C$DW$271       .dwtag  DW_TAG_TI_branch
    2929                      .dwattr $C$DW$271, DW_AT_low_pc(0x00)
    2930                      .dwattr $C$DW$271, DW_AT_name("_dataWrite")
    2931                      .dwattr $C$DW$271, DW_AT_TI_call
    2932 00062a 08FC          CALL #_dataWrite ; |521| 
         00062c 73   
    2933                                                      ; call occurs [#_dataWrite] ; |521| 
    2934                      .dwpsn  file "../c5535_bsl_revc/ezdsp5535_v1/c55xx_csl/ccs_v4.0_examples/lcd/CSL_LCDC_DiagramExample/
    2935 00062d A500          MOV *SP(#0), T1 ; |522| 
    2936 00062f 7600          MOV #33, T0 ; |522| 
         000631 2148 
    2937              $C$DW$272       .dwtag  DW_TAG_TI_branch
    2938                      .dwattr $C$DW$272, DW_AT_low_pc(0x00)
    2939                      .dwattr $C$DW$272, DW_AT_name("_dataWrite")
    2940                      .dwattr $C$DW$272, DW_AT_TI_call
    2941 000633 08FC          CALL #_dataWrite ; |522| 
         000635 6A   
    2942                                                      ; call occurs [#_dataWrite] ; |522| 
    2943                      .dwpsn  file "../c5535_bsl_revc/ezdsp5535_v1/c55xx_csl/ccs_v4.0_examples/lcd/CSL_LCDC_DiagramExample/
    2944 000636 7600          MOV #35, T0 ; |523| 
         000638 2348 
    2945 00063a A500          MOV *SP(#0), T1 ; |523| 
    2946              $C$DW$273       .dwtag  DW_TAG_TI_branch
    2947                      .dwattr $C$DW$273, DW_AT_low_pc(0x00)
    2948                      .dwattr $C$DW$273, DW_AT_name("_dataWrite")
    2949                      .dwattr $C$DW$273, DW_AT_TI_call
    2950 00063c 08FC          CALL #_dataWrite ; |523| 
         00063e 61   
    2951                                                      ; call occurs [#_dataWrite] ; |523| 
    2952                      .dwpsn  file "../c5535_bsl_revc/ezdsp5535_v1/c55xx_csl/ccs_v4.0_examples/lcd/CSL_LCDC_DiagramExample/
    2953 00063f 7600          MOV #37, T0 ; |524| 
         000641 2548 
    2954 000643 A500          MOV *SP(#0), T1 ; |524| 
    2955              $C$DW$274       .dwtag  DW_TAG_TI_branch
    2956                      .dwattr $C$DW$274, DW_AT_low_pc(0x00)
    2957                      .dwattr $C$DW$274, DW_AT_name("_dataWrite")
    2958                      .dwattr $C$DW$274, DW_AT_TI_call
    2959 000645 08FC          CALL #_dataWrite ; |524| 
         000647 58   
    2960                                                      ; call occurs [#_dataWrite] ; |524| 
TMS320C55x Assembler PC v4.4.1 Sat Sep 29 23:09:22 2018

Tools Copyright (c) 1996-2012 Texas Instruments Incorporated
lcdc_panel.asm                                                       PAGE   60

    2961                      .dwpsn  file "../c5535_bsl_revc/ezdsp5535_v1/c55xx_csl/ccs_v4.0_examples/lcd/CSL_LCDC_DiagramExample/
    2962 000648 7600          MOV #39, T0 ; |525| 
         00064a 2748 
    2963 00064c A500          MOV *SP(#0), T1 ; |525| 
    2964              $C$DW$275       .dwtag  DW_TAG_TI_branch
    2965                      .dwattr $C$DW$275, DW_AT_low_pc(0x00)
    2966                      .dwattr $C$DW$275, DW_AT_name("_dataWrite")
    2967                      .dwattr $C$DW$275, DW_AT_TI_call
    2968 00064e 08FC          CALL #_dataWrite ; |525| 
         000650 4F   
    2969                                                      ; call occurs [#_dataWrite] ; |525| 
    2970                      .dwpsn  file "../c5535_bsl_revc/ezdsp5535_v1/c55xx_csl/ccs_v4.0_examples/lcd/CSL_LCDC_DiagramExample/
    2971 000651 7600          MOV #42, T0 ; |526| 
         000653 2A48 
    2972 000655 A500          MOV *SP(#0), T1 ; |526| 
    2973              $C$DW$276       .dwtag  DW_TAG_TI_branch
    2974                      .dwattr $C$DW$276, DW_AT_low_pc(0x00)
    2975                      .dwattr $C$DW$276, DW_AT_name("_dataWrite")
    2976                      .dwattr $C$DW$276, DW_AT_TI_call
    2977 000657 08FC          CALL #_dataWrite ; |526| 
         000659 46   
    2978                                                      ; call occurs [#_dataWrite] ; |526| 
    2979                      .dwpsn  file "../c5535_bsl_revc/ezdsp5535_v1/c55xx_csl/ccs_v4.0_examples/lcd/CSL_LCDC_DiagramExample/
    2980 00065a 7600          MOV #45, T0 ; |527| 
         00065c 2D48 
    2981 00065e A500          MOV *SP(#0), T1 ; |527| 
    2982              $C$DW$277       .dwtag  DW_TAG_TI_branch
    2983                      .dwattr $C$DW$277, DW_AT_low_pc(0x00)
    2984                      .dwattr $C$DW$277, DW_AT_name("_dataWrite")
    2985                      .dwattr $C$DW$277, DW_AT_TI_call
    2986 000660 08FC          CALL #_dataWrite ; |527| 
         000662 3D   
    2987                                                      ; call occurs [#_dataWrite] ; |527| 
    2988                      .dwpsn  file "../c5535_bsl_revc/ezdsp5535_v1/c55xx_csl/ccs_v4.0_examples/lcd/CSL_LCDC_DiagramExample/
    2989 000663 7600          MOV #48, T0 ; |528| 
         000665 3048 
    2990 000667 A500          MOV *SP(#0), T1 ; |528| 
    2991              $C$DW$278       .dwtag  DW_TAG_TI_branch
    2992                      .dwattr $C$DW$278, DW_AT_low_pc(0x00)
    2993                      .dwattr $C$DW$278, DW_AT_name("_dataWrite")
    2994                      .dwattr $C$DW$278, DW_AT_TI_call
    2995 000669 08FC          CALL #_dataWrite ; |528| 
         00066b 34   
    2996                                                      ; call occurs [#_dataWrite] ; |528| 
    2997                      .dwpsn  file "../c5535_bsl_revc/ezdsp5535_v1/c55xx_csl/ccs_v4.0_examples/lcd/CSL_LCDC_DiagramExample/
    2998 00066c 7600          MOV #51, T0 ; |529| 
         00066e 3348 
    2999 000670 A500          MOV *SP(#0), T1 ; |529| 
    3000              $C$DW$279       .dwtag  DW_TAG_TI_branch
    3001                      .dwattr $C$DW$279, DW_AT_low_pc(0x00)
    3002                      .dwattr $C$DW$279, DW_AT_name("_dataWrite")
    3003                      .dwattr $C$DW$279, DW_AT_TI_call
    3004 000672 08FC          CALL #_dataWrite ; |529| 
         000674 2B   
    3005                                                      ; call occurs [#_dataWrite] ; |529| 
TMS320C55x Assembler PC v4.4.1 Sat Sep 29 23:09:22 2018

Tools Copyright (c) 1996-2012 Texas Instruments Incorporated
lcdc_panel.asm                                                       PAGE   61

    3006                      .dwpsn  file "../c5535_bsl_revc/ezdsp5535_v1/c55xx_csl/ccs_v4.0_examples/lcd/CSL_LCDC_DiagramExample/
    3007 000675 7600          MOV #54, T0 ; |530| 
         000677 3648 
    3008 000679 A500          MOV *SP(#0), T1 ; |530| 
    3009              $C$DW$280       .dwtag  DW_TAG_TI_branch
    3010                      .dwattr $C$DW$280, DW_AT_low_pc(0x00)
    3011                      .dwattr $C$DW$280, DW_AT_name("_dataWrite")
    3012                      .dwattr $C$DW$280, DW_AT_TI_call
    3013 00067b 08FC          CALL #_dataWrite ; |530| 
         00067d 22   
    3014                                                      ; call occurs [#_dataWrite] ; |530| 
    3015                      .dwpsn  file "../c5535_bsl_revc/ezdsp5535_v1/c55xx_csl/ccs_v4.0_examples/lcd/CSL_LCDC_DiagramExample/
    3016 00067e 7600          MOV #57, T0 ; |531| 
         000680 3948 
    3017 000682 A500          MOV *SP(#0), T1 ; |531| 
    3018              $C$DW$281       .dwtag  DW_TAG_TI_branch
    3019                      .dwattr $C$DW$281, DW_AT_low_pc(0x00)
    3020                      .dwattr $C$DW$281, DW_AT_name("_dataWrite")
    3021                      .dwattr $C$DW$281, DW_AT_TI_call
    3022 000684 08FC          CALL #_dataWrite ; |531| 
         000686 19   
    3023                                                      ; call occurs [#_dataWrite] ; |531| 
    3024                      .dwpsn  file "../c5535_bsl_revc/ezdsp5535_v1/c55xx_csl/ccs_v4.0_examples/lcd/CSL_LCDC_DiagramExample/
    3025 000687 7600          MOV #60, T0 ; |532| 
         000689 3C48 
    3026 00068b A500          MOV *SP(#0), T1 ; |532| 
    3027              $C$DW$282       .dwtag  DW_TAG_TI_branch
    3028                      .dwattr $C$DW$282, DW_AT_low_pc(0x00)
    3029                      .dwattr $C$DW$282, DW_AT_name("_dataWrite")
    3030                      .dwattr $C$DW$282, DW_AT_TI_call
    3031 00068d 08FC          CALL #_dataWrite ; |532| 
         00068f 10   
    3032                                                      ; call occurs [#_dataWrite] ; |532| 
    3033                      .dwpsn  file "../c5535_bsl_revc/ezdsp5535_v1/c55xx_csl/ccs_v4.0_examples/lcd/CSL_LCDC_DiagramExample/
    3034 000690 A500          MOV *SP(#0), T1 ; |533| 
    3035 000692 7600          MOV #63, T0 ; |533| 
         000694 3F48 
    3036              $C$DW$283       .dwtag  DW_TAG_TI_branch
    3037                      .dwattr $C$DW$283, DW_AT_low_pc(0x00)
    3038                      .dwattr $C$DW$283, DW_AT_name("_dataWrite")
    3039                      .dwattr $C$DW$283, DW_AT_TI_call
    3040 000696 08FC          CALL #_dataWrite ; |533| 
         000698 07   
    3041                                                      ; call occurs [#_dataWrite] ; |533| 
    3042                      .dwpsn  file "../c5535_bsl_revc/ezdsp5535_v1/c55xx_csl/ccs_v4.0_examples/lcd/CSL_LCDC_DiagramExample/
    3043 000699 7600          MOV #66, T0 ; |534| 
         00069b 4248 
    3044 00069d A500          MOV *SP(#0), T1 ; |534| 
    3045              $C$DW$284       .dwtag  DW_TAG_TI_branch
    3046                      .dwattr $C$DW$284, DW_AT_low_pc(0x00)
    3047                      .dwattr $C$DW$284, DW_AT_name("_dataWrite")
    3048                      .dwattr $C$DW$284, DW_AT_TI_call
    3049 00069f 08FB          CALL #_dataWrite ; |534| 
         0006a1 FE   
    3050                                                      ; call occurs [#_dataWrite] ; |534| 
TMS320C55x Assembler PC v4.4.1 Sat Sep 29 23:09:22 2018

Tools Copyright (c) 1996-2012 Texas Instruments Incorporated
lcdc_panel.asm                                                       PAGE   62

    3051                      .dwpsn  file "../c5535_bsl_revc/ezdsp5535_v1/c55xx_csl/ccs_v4.0_examples/lcd/CSL_LCDC_DiagramExample/
    3052 0006a2 7600          MOV #69, T0 ; |535| 
         0006a4 4548 
    3053 0006a6 A500          MOV *SP(#0), T1 ; |535| 
    3054              $C$DW$285       .dwtag  DW_TAG_TI_branch
    3055                      .dwattr $C$DW$285, DW_AT_low_pc(0x00)
    3056                      .dwattr $C$DW$285, DW_AT_name("_dataWrite")
    3057                      .dwattr $C$DW$285, DW_AT_TI_call
    3058 0006a8 08FB          CALL #_dataWrite ; |535| 
         0006aa F5   
    3059                                                      ; call occurs [#_dataWrite] ; |535| 
    3060                      .dwpsn  file "../c5535_bsl_revc/ezdsp5535_v1/c55xx_csl/ccs_v4.0_examples/lcd/CSL_LCDC_DiagramExample/
    3061 0006ab 7600          MOV #72, T0 ; |536| 
         0006ad 4848 
    3062 0006af A500          MOV *SP(#0), T1 ; |536| 
    3063              $C$DW$286       .dwtag  DW_TAG_TI_branch
    3064                      .dwattr $C$DW$286, DW_AT_low_pc(0x00)
    3065                      .dwattr $C$DW$286, DW_AT_name("_dataWrite")
    3066                      .dwattr $C$DW$286, DW_AT_TI_call
    3067 0006b1 08FB          CALL #_dataWrite ; |536| 
         0006b3 EC   
    3068                                                      ; call occurs [#_dataWrite] ; |536| 
    3069                      .dwpsn  file "../c5535_bsl_revc/ezdsp5535_v1/c55xx_csl/ccs_v4.0_examples/lcd/CSL_LCDC_DiagramExample/
    3070 0006b4 7600          MOV #76, T0 ; |537| 
         0006b6 4C48 
    3071 0006b8 A500          MOV *SP(#0), T1 ; |537| 
    3072              $C$DW$287       .dwtag  DW_TAG_TI_branch
    3073                      .dwattr $C$DW$287, DW_AT_low_pc(0x00)
    3074                      .dwattr $C$DW$287, DW_AT_name("_dataWrite")
    3075                      .dwattr $C$DW$287, DW_AT_TI_call
    3076 0006ba 08FB          CALL #_dataWrite ; |537| 
         0006bc E3   
    3077                                                      ; call occurs [#_dataWrite] ; |537| 
    3078                      .dwpsn  file "../c5535_bsl_revc/ezdsp5535_v1/c55xx_csl/ccs_v4.0_examples/lcd/CSL_LCDC_DiagramExample/
    3079 0006bd 7600          MOV #80, T0 ; |538| 
         0006bf 5048 
    3080 0006c1 A500          MOV *SP(#0), T1 ; |538| 
    3081              $C$DW$288       .dwtag  DW_TAG_TI_branch
    3082                      .dwattr $C$DW$288, DW_AT_low_pc(0x00)
    3083                      .dwattr $C$DW$288, DW_AT_name("_dataWrite")
    3084                      .dwattr $C$DW$288, DW_AT_TI_call
    3085 0006c3 08FB          CALL #_dataWrite ; |538| 
         0006c5 DA   
    3086                                                      ; call occurs [#_dataWrite] ; |538| 
    3087                      .dwpsn  file "../c5535_bsl_revc/ezdsp5535_v1/c55xx_csl/ccs_v4.0_examples/lcd/CSL_LCDC_DiagramExample/
    3088 0006c6 7600          MOV #84, T0 ; |539| 
         0006c8 5448 
    3089 0006ca A500          MOV *SP(#0), T1 ; |539| 
    3090              $C$DW$289       .dwtag  DW_TAG_TI_branch
    3091                      .dwattr $C$DW$289, DW_AT_low_pc(0x00)
    3092                      .dwattr $C$DW$289, DW_AT_name("_dataWrite")
    3093                      .dwattr $C$DW$289, DW_AT_TI_call
    3094 0006cc 08FB          CALL #_dataWrite ; |539| 
         0006ce D1   
    3095                                                      ; call occurs [#_dataWrite] ; |539| 
TMS320C55x Assembler PC v4.4.1 Sat Sep 29 23:09:22 2018

Tools Copyright (c) 1996-2012 Texas Instruments Incorporated
lcdc_panel.asm                                                       PAGE   63

    3096                      .dwpsn  file "../c5535_bsl_revc/ezdsp5535_v1/c55xx_csl/ccs_v4.0_examples/lcd/CSL_LCDC_DiagramExample/
    3097 0006cf 7600          MOV #88, T0 ; |540| 
         0006d1 5848 
    3098 0006d3 A500          MOV *SP(#0), T1 ; |540| 
    3099              $C$DW$290       .dwtag  DW_TAG_TI_branch
    3100                      .dwattr $C$DW$290, DW_AT_low_pc(0x00)
    3101                      .dwattr $C$DW$290, DW_AT_name("_dataWrite")
    3102                      .dwattr $C$DW$290, DW_AT_TI_call
    3103 0006d5 08FB          CALL #_dataWrite ; |540| 
         0006d7 C8   
    3104                                                      ; call occurs [#_dataWrite] ; |540| 
    3105                      .dwpsn  file "../c5535_bsl_revc/ezdsp5535_v1/c55xx_csl/ccs_v4.0_examples/lcd/CSL_LCDC_DiagramExample/
    3106 0006d8 7600          MOV #92, T0 ; |541| 
         0006da 5C48 
    3107 0006dc A500          MOV *SP(#0), T1 ; |541| 
    3108              $C$DW$291       .dwtag  DW_TAG_TI_branch
    3109                      .dwattr $C$DW$291, DW_AT_low_pc(0x00)
    3110                      .dwattr $C$DW$291, DW_AT_name("_dataWrite")
    3111                      .dwattr $C$DW$291, DW_AT_TI_call
    3112 0006de 08FB          CALL #_dataWrite ; |541| 
         0006e0 BF   
    3113                                                      ; call occurs [#_dataWrite] ; |541| 
    3114                      .dwpsn  file "../c5535_bsl_revc/ezdsp5535_v1/c55xx_csl/ccs_v4.0_examples/lcd/CSL_LCDC_DiagramExample/
    3115 0006e1 7600          MOV #96, T0 ; |542| 
         0006e3 6048 
    3116 0006e5 A500          MOV *SP(#0), T1 ; |542| 
    3117              $C$DW$292       .dwtag  DW_TAG_TI_branch
    3118                      .dwattr $C$DW$292, DW_AT_low_pc(0x00)
    3119                      .dwattr $C$DW$292, DW_AT_name("_dataWrite")
    3120                      .dwattr $C$DW$292, DW_AT_TI_call
    3121 0006e7 08FB          CALL #_dataWrite ; |542| 
         0006e9 B6   
    3122                                                      ; call occurs [#_dataWrite] ; |542| 
    3123                      .dwpsn  file "../c5535_bsl_revc/ezdsp5535_v1/c55xx_csl/ccs_v4.0_examples/lcd/CSL_LCDC_DiagramExample/
    3124 0006ea 7600          MOV #100, T0 ; |543| 
         0006ec 6448 
    3125 0006ee A500          MOV *SP(#0), T1 ; |543| 
    3126              $C$DW$293       .dwtag  DW_TAG_TI_branch
    3127                      .dwattr $C$DW$293, DW_AT_low_pc(0x00)
    3128                      .dwattr $C$DW$293, DW_AT_name("_dataWrite")
    3129                      .dwattr $C$DW$293, DW_AT_TI_call
    3130 0006f0 08FB          CALL #_dataWrite ; |543| 
         0006f2 AD   
    3131                                                      ; call occurs [#_dataWrite] ; |543| 
    3132                      .dwpsn  file "../c5535_bsl_revc/ezdsp5535_v1/c55xx_csl/ccs_v4.0_examples/lcd/CSL_LCDC_DiagramExample/
    3133 0006f3 A500          MOV *SP(#0), T1 ; |544| 
    3134 0006f5 7600          MOV #104, T0 ; |544| 
         0006f7 6848 
    3135              $C$DW$294       .dwtag  DW_TAG_TI_branch
    3136                      .dwattr $C$DW$294, DW_AT_low_pc(0x00)
    3137                      .dwattr $C$DW$294, DW_AT_name("_dataWrite")
    3138                      .dwattr $C$DW$294, DW_AT_TI_call
    3139 0006f9 08FB          CALL #_dataWrite ; |544| 
         0006fb A4   
    3140                                                      ; call occurs [#_dataWrite] ; |544| 
TMS320C55x Assembler PC v4.4.1 Sat Sep 29 23:09:22 2018

Tools Copyright (c) 1996-2012 Texas Instruments Incorporated
lcdc_panel.asm                                                       PAGE   64

    3141                      .dwpsn  file "../c5535_bsl_revc/ezdsp5535_v1/c55xx_csl/ccs_v4.0_examples/lcd/CSL_LCDC_DiagramExample/
    3142 0006fc 7600          MOV #108, T0 ; |545| 
         0006fe 6C48 
    3143 000700 A500          MOV *SP(#0), T1 ; |545| 
    3144              $C$DW$295       .dwtag  DW_TAG_TI_branch
    3145                      .dwattr $C$DW$295, DW_AT_low_pc(0x00)
    3146                      .dwattr $C$DW$295, DW_AT_name("_dataWrite")
    3147                      .dwattr $C$DW$295, DW_AT_TI_call
    3148 000702 08FB          CALL #_dataWrite ; |545| 
