TMS320C55x Assembler PC v4.4.1 Sat Sep 29 23:09:22 2018

Tools Copyright (c) 1996-2012 Texas Instruments Incorporated
lcdc_panel.asm                                                       PAGE    1

    8942              ; Temporary Registers Used: None
       1              ;*******************************************************************************
       2              ;* TMS320C55x C/C++ Codegen                                          PC v4.4.1 *
       3              ;* Date/Time created: Sat Sep 29 23:09:19 2018                                 *
       4              ;*******************************************************************************
       5                      .compiler_opts --hll_source=on --mem_model:code=flat --mem_model:data=large --object_format=coff --si
       6                      .mmregs
       7                      .cpl_on
       8                      .arms_on
       9                      .c54cm_off
      10                      .asg AR6, FP
      11                      .asg XAR6, XFP
      12                      .asg DPH, MDP
      13                      .model call=c55_std
      14                      .model mem=large
      15                      .noremark 5002  ; code respects overwrite rules
      16              ;*******************************************************************************
      17              ;* GLOBAL FILE PARAMETERS                                                      *
      18              ;*                                                                             *
      19              ;*   Architecture       : TMS320C55x                                           *
      20              ;*   Optimizing for     : Speed                                                *
      21              ;*   Memory             : Large Model (23-Bit Data Pointers)                   *
      22              ;*   Calls              : Normal Library ASM calls                             *
      23              ;*   Debug Info         : Standard TI Debug Information                        *
      24              ;*******************************************************************************
      25              
      26              $C$DW$CU        .dwtag  DW_TAG_compile_unit
      27                      .dwattr $C$DW$CU, DW_AT_name("../c5535_bsl_revc/ezdsp5535_v1/c55xx_csl/ccs_v4.0_examples/lcd/CSL_LCDC
      28                      .dwattr $C$DW$CU, DW_AT_producer("TMS320C55x C/C++ Codegen PC v4.4.1 Copyright (c) 1996-2012 Texas In
      29                      .dwattr $C$DW$CU, DW_AT_TI_version(0x01)
      30                      .dwattr $C$DW$CU, DW_AT_comp_dir("F:\eZdsp_DBG\tmp1\c55x-sim2\foo\Debug")
      31              $C$DW$1 .dwtag  DW_TAG_variable, DW_AT_name("hLcdc")
      32                      .dwattr $C$DW$1, DW_AT_TI_symbol_name("_hLcdc")
      33                      .dwattr $C$DW$1, DW_AT_type(*$C$DW$T$40)
      34                      .dwattr $C$DW$1, DW_AT_declaration
      35                      .dwattr $C$DW$1, DW_AT_external
      36              $C$DW$2 .dwtag  DW_TAG_variable, DW_AT_name("ti_logo64")
      37                      .dwattr $C$DW$2, DW_AT_TI_symbol_name("_ti_logo64")
      38                      .dwattr $C$DW$2, DW_AT_type(*$C$DW$T$74)
      39                      .dwattr $C$DW$2, DW_AT_declaration
      40                      .dwattr $C$DW$2, DW_AT_external
      41              $C$DW$3 .dwtag  DW_TAG_variable, DW_AT_name("ti_logo32")
      42                      .dwattr $C$DW$3, DW_AT_TI_symbol_name("_ti_logo32")
      43                      .dwattr $C$DW$3, DW_AT_type(*$C$DW$T$74)
      44                      .dwattr $C$DW$3, DW_AT_declaration
      45                      .dwattr $C$DW$3, DW_AT_external
      46              ;       F:\t\cc5p5\ccsv5\tools\compiler\c5500_4.4.1\bin\acp55.exe -@f:\\AppData\\Local\\Temp\\2848012 
      47 000000               .sect   ".text"
      48                      .align 4
      49              
      50              $C$DW$4 .dwtag  DW_TAG_subprogram, DW_AT_name("CSL_lcdcLiddWriteCsAddr")
      51                      .dwattr $C$DW$4, DW_AT_low_pc(_CSL_lcdcLiddWriteCsAddr)
      52                      .dwattr $C$DW$4, DW_AT_high_pc(0x00)
      53                      .dwattr $C$DW$4, DW_AT_TI_symbol_name("_CSL_lcdcLiddWriteCsAddr")
      54                      .dwattr $C$DW$4, DW_AT_TI_begin_file("F:/eZdsp_DBG/tmp1/c55x-sim2/foo/c5535_bsl_revc/ezdsp5535_v1/c55
TMS320C55x Assembler PC v4.4.1 Sat Sep 29 23:09:22 2018

Tools Copyright (c) 1996-2012 Texas Instruments Incorporated
lcdc_panel.asm                                                       PAGE    2

      55                      .dwattr $C$DW$4, DW_AT_TI_begin_line(0xa9)
      56                      .dwattr $C$DW$4, DW_AT_TI_begin_column(0x06)
      57                      .dwattr $C$DW$4, DW_AT_TI_max_frame_size(0x08)
      58                      .dwpsn  file "F:/eZdsp_DBG/tmp1/c55x-sim2/foo/c5535_bsl_revc/ezdsp5535_v1/c55xx_csl/inc/csl_lcdcAux.h
      59              
      60                      .dwfde $C$DW$CIE, _CSL_lcdcLiddWriteCsAddr
      61              $C$DW$5 .dwtag  DW_TAG_formal_parameter, DW_AT_name("hLcdc")
      62                      .dwattr $C$DW$5, DW_AT_TI_symbol_name("_hLcdc")
      63                      .dwattr $C$DW$5, DW_AT_type(*$C$DW$T$40)
      64                      .dwattr $C$DW$5, DW_AT_location[DW_OP_reg17]
      65              $C$DW$6 .dwtag  DW_TAG_formal_parameter, DW_AT_name("cs0cs1")
      66                      .dwattr $C$DW$6, DW_AT_TI_symbol_name("_cs0cs1")
      67                      .dwattr $C$DW$6, DW_AT_type(*$C$DW$T$33)
      68                      .dwattr $C$DW$6, DW_AT_location[DW_OP_reg12]
      69              $C$DW$7 .dwtag  DW_TAG_formal_parameter, DW_AT_name("arg")
      70                      .dwattr $C$DW$7, DW_AT_TI_symbol_name("_arg")
      71                      .dwattr $C$DW$7, DW_AT_type(*$C$DW$T$41)
      72                      .dwattr $C$DW$7, DW_AT_location[DW_OP_reg0]
      73              ;*******************************************************************************
      74              ;* FUNCTION NAME: CSL_lcdcLiddWriteCsAddr                                      *
      75              ;*                                                                             *
      76              ;*   Function Uses Regs : AC0,AC0,AC1,AC1,T0,AR0,XAR0,AR1,AR2,AR3,XAR3,SP,TC1, *
      77              ;*                        M40,SATA,SATD,RDM,FRCT,SMUL                          *
      78              ;*   Stack Frame        : Compact (No Frame Pointer, w/ debug)                 *
      79              ;*   Total Frame Size   : 8 words                                              *
      80              ;*                        (2 return address/alignment)                         *
      81              ;*                        (6 local values)                                     *
      82              ;*   Min System Stack   : 1 word                                               *
      83              ;*******************************************************************************
      84 000000       _CSL_lcdcLiddWriteCsAddr:
      85                      .dwcfi  cfa_offset, 1
      86                      .dwcfi  save_reg_to_mem, 91, -1
      87 000000 4EF9          AADD #-7, SP
      88                      .dwcfi  cfa_offset, 8
      89              $C$DW$8 .dwtag  DW_TAG_variable, DW_AT_name("hLcdc")
      90                      .dwattr $C$DW$8, DW_AT_TI_symbol_name("_hLcdc")
      91                      .dwattr $C$DW$8, DW_AT_type(*$C$DW$T$40)
      92                      .dwattr $C$DW$8, DW_AT_location[DW_OP_bregx 0x24 0]
      93              $C$DW$9 .dwtag  DW_TAG_variable, DW_AT_name("cs0cs1")
      94                      .dwattr $C$DW$9, DW_AT_TI_symbol_name("_cs0cs1")
      95                      .dwattr $C$DW$9, DW_AT_type(*$C$DW$T$33)
      96                      .dwattr $C$DW$9, DW_AT_location[DW_OP_bregx 0x24 2]
      97              $C$DW$10        .dwtag  DW_TAG_variable, DW_AT_name("arg")
      98                      .dwattr $C$DW$10, DW_AT_TI_symbol_name("_arg")
      99                      .dwattr $C$DW$10, DW_AT_type(*$C$DW$T$41)
     100                      .dwattr $C$DW$10, DW_AT_location[DW_OP_bregx 0x24 4]
     101 000002 EB08          MOV AC0, dbl(*SP(#4)) ; |177| 
         000004 08   
     102 000005 C404          MOV T0, *SP(#2) ; |177| 
     103 000007 EB00          MOV XAR0, dbl(*SP(#0))
         000009 85   
     104                      .dwpsn  file "F:/eZdsp_DBG/tmp1/c55x-sim2/foo/c5535_bsl_revc/ezdsp5535_v1/c55xx_csl/inc/csl_lcdcAux.h
     105              
     106 00000a A904          MOV *SP(#2), AR1 ; |178| 
     107 00000c 3D0A  ||      MOV #0, AR2
TMS320C55x Assembler PC v4.4.1 Sat Sep 29 23:09:22 2018

Tools Copyright (c) 1996-2012 Texas Instruments Incorporated
lcdc_panel.asm                                                       PAGE    3

     108              
     109 00000e 12AC          CMP AR2 != AR1, TC1 ; |178| 
         000010 90   
     110 000011 0464          BCC $C$L1,TC1 ; |178| 
         000013 23   
     111                                                      ; branchcc occurs ; |178| 
     112                      .dwpsn  file "F:/eZdsp_DBG/tmp1/c55x-sim2/foo/c5535_bsl_revc/ezdsp5535_v1/c55xx_csl/inc/csl_lcdcAux.h
     113 000014 ED00          MOV dbl(*SP(#0)), XAR3
         000016 BF   
     114 000017 7600          MOV #20, T0 ; |180| 
         000019 1448 
     115 00001b AB61          MOV *AR3, AR3 ; |180| 
     116 00001d A96B          MOV port(*AR3(T0)), AR1 ; |180| 
         00001f 99   
     117 000020 ED00          MOV dbl(*SP(#0)), XAR3
         000022 BF   
     118 000023 AB61          MOV *AR3, AR3 ; |180| 
     119 000025 ED08          MOV dbl(*SP(#4)), AC0 ; |180| 
         000027 08   
     120 000028 7A00          MOV #0 << #16, AC1 ; |180| 
         00002a 001A 
     121 00002c 7DFF          AND #0xffff, AC0, AC0 ; |180| 
         00002e FF00 
     122 000030 2A10          OR AC1, AC0 ; |180| 
     123 000032 C06B          MOV AC0, port(*AR3(T0)) ; |180| 
         000034 9A   
     124                      .dwpsn  file "F:/eZdsp_DBG/tmp1/c55x-sim2/foo/c5535_bsl_revc/ezdsp5535_v1/c55xx_csl/inc/csl_lcdcAux.h
     125 000035 4A21          B $C$L2   ; |182| 
     126                                                      ; branch occurs ; |182| 
     127 000037       $C$L1:    
     128                      .dwpsn  file "F:/eZdsp_DBG/tmp1/c55x-sim2/foo/c5535_bsl_revc/ezdsp5535_v1/c55xx_csl/inc/csl_lcdcAux.h
     129 000037 ED00          MOV dbl(*SP(#0)), XAR3
         000039 BF   
     130 00003a 7600          MOV #32, T0 ; |185| 
         00003c 2048 
     131 00003e AB61          MOV *AR3, AR3 ; |185| 
     132 000040 A96B          MOV port(*AR3(T0)), AR1 ; |185| 
         000042 99   
     133 000043 ED00          MOV dbl(*SP(#0)), XAR3
         000045 BF   
     134 000046 AB61          MOV *AR3, AR3 ; |185| 
     135 000048 ED08          MOV dbl(*SP(#4)), AC0 ; |185| 
         00004a 08   
     136 00004b 7A00          MOV #0 << #16, AC1 ; |185| 
         00004d 001A 
     137 00004f 7DFF          AND #0xffff, AC0, AC0 ; |185| 
         000051 FF00 
     138 000053 2A10          OR AC1, AC0 ; |185| 
     139 000055 C06B          MOV AC0, port(*AR3(T0)) ; |185| 
         000057 9A   
     140                      .dwpsn  file "F:/eZdsp_DBG/tmp1/c55x-sim2/foo/c5535_bsl_revc/ezdsp5535_v1/c55xx_csl/inc/csl_lcdcAux.h
     141 000058       $C$L2:    
     142 000058 4E07          AADD #7, SP
     143                      .dwcfi  cfa_offset, 1
     144              $C$DW$11        .dwtag  DW_TAG_TI_branch
TMS320C55x Assembler PC v4.4.1 Sat Sep 29 23:09:22 2018

Tools Copyright (c) 1996-2012 Texas Instruments Incorporated
lcdc_panel.asm                                                       PAGE    4

     145                      .dwattr $C$DW$11, DW_AT_low_pc(0x00)
     146                      .dwattr $C$DW$11, DW_AT_TI_return
     147 00005a 4804          RET
     148                                                      ; return occurs
     149                      .dwattr $C$DW$4, DW_AT_TI_end_file("F:/eZdsp_DBG/tmp1/c55x-sim2/foo/c5535_bsl_revc/ezdsp5535_v1/c55xx
     150                      .dwattr $C$DW$4, DW_AT_TI_end_line(0xbc)
     151                      .dwattr $C$DW$4, DW_AT_TI_end_column(0x01)
     152                      .dwendentry
     153                      .dwendtag $C$DW$4
     154              
     155 00005c               .sect   ".text"
     156                      .align 4
     157              
     158              $C$DW$12        .dwtag  DW_TAG_subprogram, DW_AT_name("CSL_lcdcLiddWriteCsData")
     159                      .dwattr $C$DW$12, DW_AT_low_pc(_CSL_lcdcLiddWriteCsData)
     160                      .dwattr $C$DW$12, DW_AT_high_pc(0x00)
     161                      .dwattr $C$DW$12, DW_AT_TI_symbol_name("_CSL_lcdcLiddWriteCsData")
     162                      .dwattr $C$DW$12, DW_AT_TI_begin_file("F:/eZdsp_DBG/tmp1/c55x-sim2/foo/c5535_bsl_revc/ezdsp5535_v1/c5
     163                      .dwattr $C$DW$12, DW_AT_TI_begin_line(0xe2)
     164                      .dwattr $C$DW$12, DW_AT_TI_begin_column(0x06)
     165                      .dwattr $C$DW$12, DW_AT_TI_max_frame_size(0x06)
     166                      .dwpsn  file "F:/eZdsp_DBG/tmp1/c55x-sim2/foo/c5535_bsl_revc/ezdsp5535_v1/c55xx_csl/inc/csl_lcdcAux.h
     167              
     168                      .dwfde $C$DW$CIE, _CSL_lcdcLiddWriteCsData
     169              $C$DW$13        .dwtag  DW_TAG_formal_parameter, DW_AT_name("hLcdc")
     170                      .dwattr $C$DW$13, DW_AT_TI_symbol_name("_hLcdc")
     171                      .dwattr $C$DW$13, DW_AT_type(*$C$DW$T$40)
     172                      .dwattr $C$DW$13, DW_AT_location[DW_OP_reg17]
     173              $C$DW$14        .dwtag  DW_TAG_formal_parameter, DW_AT_name("cs0cs1")
     174                      .dwattr $C$DW$14, DW_AT_TI_symbol_name("_cs0cs1")
     175                      .dwattr $C$DW$14, DW_AT_type(*$C$DW$T$33)
     176                      .dwattr $C$DW$14, DW_AT_location[DW_OP_reg12]
     177              $C$DW$15        .dwtag  DW_TAG_formal_parameter, DW_AT_name("arg")
     178                      .dwattr $C$DW$15, DW_AT_TI_symbol_name("_arg")
     179                      .dwattr $C$DW$15, DW_AT_type(*$C$DW$T$19)
     180                      .dwattr $C$DW$15, DW_AT_location[DW_OP_reg13]
     181              ;*******************************************************************************
     182              ;* FUNCTION NAME: CSL_lcdcLiddWriteCsData                                      *
     183              ;*                                                                             *
     184              ;*   Function Uses Regs : T0,T1,AR0,XAR0,AR1,AR2,AR3,XAR3,SP,TC1,M40,SATA,SATD,*
     185              ;*                        RDM,FRCT,SMUL                                        *
     186              ;*   Stack Frame        : Compact (No Frame Pointer, w/ debug)                 *
     187              ;*   Total Frame Size   : 6 words                                              *
     188              ;*                        (2 return address/alignment)                         *
     189              ;*                        (4 local values)                                     *
     190              ;*   Min System Stack   : 1 word                                               *
     191              ;*******************************************************************************
     192 00005c       _CSL_lcdcLiddWriteCsData:
     193                      .dwcfi  cfa_offset, 1
     194                      .dwcfi  save_reg_to_mem, 91, -1
     195 00005c 4EFB          AADD #-5, SP
     196                      .dwcfi  cfa_offset, 6
     197              $C$DW$16        .dwtag  DW_TAG_variable, DW_AT_name("hLcdc")
     198                      .dwattr $C$DW$16, DW_AT_TI_symbol_name("_hLcdc")
     199                      .dwattr $C$DW$16, DW_AT_type(*$C$DW$T$40)
TMS320C55x Assembler PC v4.4.1 Sat Sep 29 23:09:22 2018

Tools Copyright (c) 1996-2012 Texas Instruments Incorporated
lcdc_panel.asm                                                       PAGE    5

     200                      .dwattr $C$DW$16, DW_AT_location[DW_OP_bregx 0x24 0]
     201              $C$DW$17        .dwtag  DW_TAG_variable, DW_AT_name("cs0cs1")
     202                      .dwattr $C$DW$17, DW_AT_TI_symbol_name("_cs0cs1")
     203                      .dwattr $C$DW$17, DW_AT_type(*$C$DW$T$33)
     204                      .dwattr $C$DW$17, DW_AT_location[DW_OP_bregx 0x24 2]
     205              $C$DW$18        .dwtag  DW_TAG_variable, DW_AT_name("arg")
     206                      .dwattr $C$DW$18, DW_AT_TI_symbol_name("_arg")
     207                      .dwattr $C$DW$18, DW_AT_type(*$C$DW$T$19)
     208                      .dwattr $C$DW$18, DW_AT_location[DW_OP_bregx 0x24 3]
     209 00005e C506          MOV T1, *SP(#3) ; |234| 
     210 000060 C404          MOV T0, *SP(#2) ; |234| 
     211 000062 EB00          MOV XAR0, dbl(*SP(#0))
         000064 85   
     212                      .dwpsn  file "F:/eZdsp_DBG/tmp1/c55x-sim2/foo/c5535_bsl_revc/ezdsp5535_v1/c55xx_csl/inc/csl_lcdcAux.h
     213              
     214 000065 A904          MOV *SP(#2), AR1 ; |235| 
     215 000067 3D0A  ||      MOV #0, AR2
     216              
     217 000069 12AC          CMP AR2 != AR1, TC1 ; |235| 
         00006b 90   
     218 00006c 0464          BCC $C$L3,TC1 ; |235| 
         00006e 1B   
     219                                                      ; branchcc occurs ; |235| 
     220                      .dwpsn  file "F:/eZdsp_DBG/tmp1/c55x-sim2/foo/c5535_bsl_revc/ezdsp5535_v1/c55xx_csl/inc/csl_lcdcAux.h
     221 00006f ED00          MOV dbl(*SP(#0)), XAR3
         000071 BF   
     222 000072 7600          MOV #24, T0 ; |237| 
         000074 1848 
     223 000076 AB61          MOV *AR3, AR3 ; |237| 
     224 000078 A96B          MOV port(*AR3(T0)), AR1 ; |237| 
         00007a 99   
     225 00007b ED00          MOV dbl(*SP(#0)), XAR3
         00007d BF   
     226 00007e AB61          MOV *AR3, AR3 ; |237| 
     227 000080 A906          MOV *SP(#3), AR1 ; |237| 
     228 000082 1A00          OR #0x0000, AR1, AR1 ; |237| 
         000084 99   
     229 000085 C96B          MOV AR1, port(*AR3(T0)) ; |237| 
         000087 9A   
     230                      .dwpsn  file "F:/eZdsp_DBG/tmp1/c55x-sim2/foo/c5535_bsl_revc/ezdsp5535_v1/c55xx_csl/inc/csl_lcdcAux.h
     231 000088 4A19          B $C$L4   ; |239| 
     232                                                      ; branch occurs ; |239| 
     233 00008a       $C$L3:    
     234                      .dwpsn  file "F:/eZdsp_DBG/tmp1/c55x-sim2/foo/c5535_bsl_revc/ezdsp5535_v1/c55xx_csl/inc/csl_lcdcAux.h
     235 00008a ED00          MOV dbl(*SP(#0)), XAR3
         00008c BF   
     236 00008d 7600          MOV #36, T0 ; |242| 
         00008f 2448 
     237 000091 AB61          MOV *AR3, AR3 ; |242| 
     238 000093 A96B          MOV port(*AR3(T0)), AR1 ; |242| 
         000095 99   
     239 000096 ED00          MOV dbl(*SP(#0)), XAR3
         000098 BF   
     240 000099 AB61          MOV *AR3, AR3 ; |242| 
     241 00009b A906          MOV *SP(#3), AR1 ; |242| 
TMS320C55x Assembler PC v4.4.1 Sat Sep 29 23:09:22 2018

Tools Copyright (c) 1996-2012 Texas Instruments Incorporated
lcdc_panel.asm                                                       PAGE    6

     242 00009d 1A00          OR #0x0000, AR1, AR1 ; |242| 
         00009f 99   
     243 0000a0 C96B          MOV AR1, port(*AR3(T0)) ; |242| 
         0000a2 9A   
     244                      .dwpsn  file "F:/eZdsp_DBG/tmp1/c55x-sim2/foo/c5535_bsl_revc/ezdsp5535_v1/c55xx_csl/inc/csl_lcdcAux.h
     245 0000a3       $C$L4:    
     246 0000a3 4E05          AADD #5, SP
     247                      .dwcfi  cfa_offset, 1
     248              $C$DW$19        .dwtag  DW_TAG_TI_branch
     249                      .dwattr $C$DW$19, DW_AT_low_pc(0x00)
     250                      .dwattr $C$DW$19, DW_AT_TI_return
     251 0000a5 4804          RET
     252                                                      ; return occurs
     253                      .dwattr $C$DW$12, DW_AT_TI_end_file("F:/eZdsp_DBG/tmp1/c55x-sim2/foo/c5535_bsl_revc/ezdsp5535_v1/c55x
     254                      .dwattr $C$DW$12, DW_AT_TI_end_line(0xf5)
     255                      .dwattr $C$DW$12, DW_AT_TI_end_column(0x01)
     256                      .dwendentry
     257                      .dwendtag $C$DW$12
     258              
     259 0000a7               .sect   ".text"
     260                      .align 4
     261              
     262              $C$DW$20        .dwtag  DW_TAG_subprogram, DW_AT_name("CSL_lcdcGetLiddCsData")
     263                      .dwattr $C$DW$20, DW_AT_low_pc(_CSL_lcdcGetLiddCsData)
     264                      .dwattr $C$DW$20, DW_AT_high_pc(0x00)
     265                      .dwattr $C$DW$20, DW_AT_TI_symbol_name("_CSL_lcdcGetLiddCsData")
     266                      .dwattr $C$DW$20, DW_AT_type(*$C$DW$T$19)
     267                      .dwattr $C$DW$20, DW_AT_TI_begin_file("F:/eZdsp_DBG/tmp1/c55x-sim2/foo/c5535_bsl_revc/ezdsp5535_v1/c5
     268                      .dwattr $C$DW$20, DW_AT_TI_begin_line(0x11b)
     269                      .dwattr $C$DW$20, DW_AT_TI_begin_column(0x08)
     270                      .dwattr $C$DW$20, DW_AT_TI_max_frame_size(0x04)
     271                      .dwpsn  file "F:/eZdsp_DBG/tmp1/c55x-sim2/foo/c5535_bsl_revc/ezdsp5535_v1/c55xx_csl/inc/csl_lcdcAux.h
     272              
     273                      .dwfde $C$DW$CIE, _CSL_lcdcGetLiddCsData
     274              $C$DW$21        .dwtag  DW_TAG_formal_parameter, DW_AT_name("hLcdc")
     275                      .dwattr $C$DW$21, DW_AT_TI_symbol_name("_hLcdc")
     276                      .dwattr $C$DW$21, DW_AT_type(*$C$DW$T$40)
     277                      .dwattr $C$DW$21, DW_AT_location[DW_OP_reg17]
     278              $C$DW$22        .dwtag  DW_TAG_formal_parameter, DW_AT_name("cs0cs1")
     279                      .dwattr $C$DW$22, DW_AT_TI_symbol_name("_cs0cs1")
     280                      .dwattr $C$DW$22, DW_AT_type(*$C$DW$T$33)
     281                      .dwattr $C$DW$22, DW_AT_location[DW_OP_reg12]
     282              ;*******************************************************************************
     283              ;* FUNCTION NAME: CSL_lcdcGetLiddCsData                                        *
     284              ;*                                                                             *
     285              ;*   Function Uses Regs : T0,AR0,XAR0,AR1,AR2,AR3,XAR3,SP,TC1,M40,SATA,SATD,   *
     286              ;*                        RDM,FRCT,SMUL                                        *
     287              ;*   Stack Frame        : Compact (No Frame Pointer, w/ debug)                 *
     288              ;*   Total Frame Size   : 4 words                                              *
     289              ;*                        (1 return address/alignment)                         *
     290              ;*                        (3 local values)                                     *
     291              ;*   Min System Stack   : 1 word                                               *
     292              ;*******************************************************************************
     293 0000a8       _CSL_lcdcGetLiddCsData:
     294                      .dwcfi  cfa_offset, 1
TMS320C55x Assembler PC v4.4.1 Sat Sep 29 23:09:22 2018

Tools Copyright (c) 1996-2012 Texas Instruments Incorporated
lcdc_panel.asm                                                       PAGE    7

     295                      .dwcfi  save_reg_to_mem, 91, -1
     296 0000a8 4EFD          AADD #-3, SP
     297                      .dwcfi  cfa_offset, 4
     298              $C$DW$23        .dwtag  DW_TAG_variable, DW_AT_name("hLcdc")
     299                      .dwattr $C$DW$23, DW_AT_TI_symbol_name("_hLcdc")
     300                      .dwattr $C$DW$23, DW_AT_type(*$C$DW$T$40)
     301                      .dwattr $C$DW$23, DW_AT_location[DW_OP_bregx 0x24 0]
     302              $C$DW$24        .dwtag  DW_TAG_variable, DW_AT_name("cs0cs1")
     303                      .dwattr $C$DW$24, DW_AT_TI_symbol_name("_cs0cs1")
     304                      .dwattr $C$DW$24, DW_AT_type(*$C$DW$T$33)
     305                      .dwattr $C$DW$24, DW_AT_location[DW_OP_bregx 0x24 2]
     306 0000aa C404          MOV T0, *SP(#2) ; |290| 
     307 0000ac EB00          MOV XAR0, dbl(*SP(#0))
         0000ae 85   
     308                      .dwpsn  file "F:/eZdsp_DBG/tmp1/c55x-sim2/foo/c5535_bsl_revc/ezdsp5535_v1/c55xx_csl/inc/csl_lcdcAux.h
     309              
     310 0000af A904          MOV *SP(#2), AR1 ; |291| 
     311 0000b1 3D0A  ||      MOV #0, AR2
     312              
     313 0000b3 12AC          CMP AR2 != AR1, TC1 ; |291| 
         0000b5 90   
     314 0000b6 6764          BCC $C$L5,TC1 ; |291| 
     315                                                      ; branchcc occurs ; |291| 
     316                      .dwpsn  file "F:/eZdsp_DBG/tmp1/c55x-sim2/foo/c5535_bsl_revc/ezdsp5535_v1/c55xx_csl/inc/csl_lcdcAux.h
     317 0000b8 ED00          MOV dbl(*SP(#0)), XAR3
         0000ba BF   
     318 0000bb 7600          MOV #24, T0 ; |293| 
         0000bd 1848 
     319 0000bf AB61          MOV *AR3, AR3 ; |293| 
     320 0000c1 A46B          MOV port(*AR3(T0)), T0 ; |293| 
         0000c3 99   
     321 0000c4 4A0C          B $C$L6   ; |293| 
     322                                                      ; branch occurs ; |293| 
     323 0000c6       $C$L5:    
     324                      .dwpsn  file "F:/eZdsp_DBG/tmp1/c55x-sim2/foo/c5535_bsl_revc/ezdsp5535_v1/c55xx_csl/inc/csl_lcdcAux.h
     325 0000c6 ED00          MOV dbl(*SP(#0)), XAR3
         0000c8 BF   
     326 0000c9 7600          MOV #36, T0 ; |297| 
         0000cb 2448 
     327 0000cd AB61          MOV *AR3, AR3 ; |297| 
     328 0000cf A46B          MOV port(*AR3(T0)), T0 ; |297| 
         0000d1 99   
     329 0000d2       $C$L6:    
     330                      .dwpsn  file "F:/eZdsp_DBG/tmp1/c55x-sim2/foo/c5535_bsl_revc/ezdsp5535_v1/c55xx_csl/inc/csl_lcdcAux.h
     331 0000d2 4E03          AADD #3, SP
     332                      .dwcfi  cfa_offset, 1
     333              $C$DW$25        .dwtag  DW_TAG_TI_branch
     334                      .dwattr $C$DW$25, DW_AT_low_pc(0x00)
     335                      .dwattr $C$DW$25, DW_AT_TI_return
     336 0000d4 4804          RET
     337                                                      ; return occurs
     338                      .dwattr $C$DW$20, DW_AT_TI_end_file("F:/eZdsp_DBG/tmp1/c55x-sim2/foo/c5535_bsl_revc/ezdsp5535_v1/c55x
     339                      .dwattr $C$DW$20, DW_AT_TI_end_line(0x12b)
     340                      .dwattr $C$DW$20, DW_AT_TI_end_column(0x01)
     341                      .dwendentry
TMS320C55x Assembler PC v4.4.1 Sat Sep 29 23:09:22 2018

Tools Copyright (c) 1996-2012 Texas Instruments Incorporated
lcdc_panel.asm                                                       PAGE    8

     342                      .dwendtag $C$DW$20
     343              
     344 0000d6               .sect   ".text"
     345                      .align 4
     346                      .global _wait
     347              
     348              $C$DW$26        .dwtag  DW_TAG_subprogram, DW_AT_name("wait")
     349                      .dwattr $C$DW$26, DW_AT_low_pc(_wait)
     350                      .dwattr $C$DW$26, DW_AT_high_pc(0x00)
     351                      .dwattr $C$DW$26, DW_AT_TI_symbol_name("_wait")
     352                      .dwattr $C$DW$26, DW_AT_external
     353                      .dwattr $C$DW$26, DW_AT_TI_begin_file("../c5535_bsl_revc/ezdsp5535_v1/c55xx_csl/ccs_v4.0_examples/lcd
     354                      .dwattr $C$DW$26, DW_AT_TI_begin_line(0x1e)
     355                      .dwattr $C$DW$26, DW_AT_TI_begin_column(0x06)
     356                      .dwattr $C$DW$26, DW_AT_TI_max_frame_size(0x04)
     357                      .dwpsn  file "../c5535_bsl_revc/ezdsp5535_v1/c55xx_csl/ccs_v4.0_examples/lcd/CSL_LCDC_DiagramExample/
     358              
     359                      .dwfde $C$DW$CIE, _wait
     360              $C$DW$27        .dwtag  DW_TAG_formal_parameter, DW_AT_name("count")
     361                      .dwattr $C$DW$27, DW_AT_TI_symbol_name("_count")
     362                      .dwattr $C$DW$27, DW_AT_type(*$C$DW$T$41)
     363                      .dwattr $C$DW$27, DW_AT_location[DW_OP_reg0]
     364              ;*******************************************************************************
     365              ;* FUNCTION NAME: wait                                                         *
     366              ;*                                                                             *
     367              ;*   Function Uses Regs : AC0,AC0,AC1,AC1,SP,CARRY,TC1,M40,SATA,SATD,RDM,FRCT, *
     368              ;*                        SMUL                                                 *
     369              ;*   Stack Frame        : Compact (No Frame Pointer, w/ debug)                 *
     370              ;*   Total Frame Size   : 4 words                                              *
     371              ;*                        (1 return address/alignment)                         *
     372              ;*                        (3 local values)                                     *
     373              ;*   Min System Stack   : 1 word                                               *
     374              ;*******************************************************************************
     375 0000d8       _wait:
     376                      .dwcfi  cfa_offset, 1
     377                      .dwcfi  save_reg_to_mem, 91, -1
     378 0000d8 4EFD          AADD #-3, SP
     379                      .dwcfi  cfa_offset, 4
     380              $C$DW$28        .dwtag  DW_TAG_variable, DW_AT_name("count")
     381                      .dwattr $C$DW$28, DW_AT_TI_symbol_name("_count")
     382                      .dwattr $C$DW$28, DW_AT_type(*$C$DW$T$41)
     383                      .dwattr $C$DW$28, DW_AT_location[DW_OP_bregx 0x24 0]
     384              $C$DW$29        .dwtag  DW_TAG_variable, DW_AT_name("i")
     385                      .dwattr $C$DW$29, DW_AT_TI_symbol_name("_i")
     386                      .dwattr $C$DW$29, DW_AT_type(*$C$DW$T$10)
     387                      .dwattr $C$DW$29, DW_AT_location[DW_OP_bregx 0x24 2]
     388 0000da EB00          MOV AC0, dbl(*SP(#0)) ; |31| 
         0000dc 08   
     389                      .dwpsn  file "../c5535_bsl_revc/ezdsp5535_v1/c55xx_csl/ccs_v4.0_examples/lcd/CSL_LCDC_DiagramExample/
     390 0000dd E604          MOV #0, *SP(#2) ; |34| 
         0000df 00   
     391                      .dwpsn  file "../c5535_bsl_revc/ezdsp5535_v1/c55xx_csl/ccs_v4.0_examples/lcd/CSL_LCDC_DiagramExample/
     392 0000e0 A104          MOV *SP(#2), AC1 ; |34| 
     393 0000e2 ED00          MOV dbl(*SP(#0)), AC0 ; |34| 
         0000e4 08   
TMS320C55x Assembler PC v4.4.1 Sat Sep 29 23:09:22 2018

Tools Copyright (c) 1996-2012 Texas Instruments Incorporated
lcdc_panel.asm                                                       PAGE    9

     394 0000e5 1218          CMPU AC1 >= AC0, TC1 ; |34| 
         0000e7 04   
     395 0000e8 0464          BCC $C$L8,TC1 ; |34| 
         0000ea 10   
     396                                                      ; branchcc occurs ; |34| 
     397 0000eb       $C$L7:    
     398 0000eb       $C$DW$L$_wait$2$B:
     399                      .dwpsn  file "../c5535_bsl_revc/ezdsp5535_v1/c55xx_csl/ccs_v4.0_examples/lcd/CSL_LCDC_DiagramExample/
     400 0000eb 20            nop
     401                      .dwpsn  file "../c5535_bsl_revc/ezdsp5535_v1/c55xx_csl/ccs_v4.0_examples/lcd/CSL_LCDC_DiagramExample/
     402 0000ec F704          ADD #1, *SP(#2) ; |34| 
         0000ee 0001 
     403                      .dwpsn  file "../c5535_bsl_revc/ezdsp5535_v1/c55xx_csl/ccs_v4.0_examples/lcd/CSL_LCDC_DiagramExample/
     404 0000f0 ED00          MOV dbl(*SP(#0)), AC0 ; |34| 
         0000f2 08   
     405 0000f3 A104          MOV *SP(#2), AC1 ; |34| 
     406 0000f5 1214          CMPU AC1 < AC0, TC1 ; |34| 
         0000f7 04   
     407 0000f8 0464          BCC $C$L7,TC1 ; |34| 
         0000fa F0   
     408                                                      ; branchcc occurs ; |34| 
     409 0000fb       $C$DW$L$_wait$2$E:
     410                      .dwpsn  file "../c5535_bsl_revc/ezdsp5535_v1/c55xx_csl/ccs_v4.0_examples/lcd/CSL_LCDC_DiagramExample/
     411 0000fb       $C$L8:    
     412 0000fb 4E03          AADD #3, SP
     413                      .dwcfi  cfa_offset, 1
     414              $C$DW$30        .dwtag  DW_TAG_TI_branch
     415                      .dwattr $C$DW$30, DW_AT_low_pc(0x00)
     416                      .dwattr $C$DW$30, DW_AT_TI_return
     417 0000fd 4804          RET
     418                                                      ; return occurs
     419              
     420              $C$DW$31        .dwtag  DW_TAG_TI_loop
     421                      .dwattr $C$DW$31, DW_AT_name("F:\eZdsp_DBG\tmp1\c55x-sim2\foo\Debug\lcdc_panel.asm:$C$L7:1:1538287759
     422                      .dwattr $C$DW$31, DW_AT_TI_begin_file("../c5535_bsl_revc/ezdsp5535_v1/c55xx_csl/ccs_v4.0_examples/lcd
     423                      .dwattr $C$DW$31, DW_AT_TI_begin_line(0x22)
     424                      .dwattr $C$DW$31, DW_AT_TI_end_line(0x23)
     425              $C$DW$32        .dwtag  DW_TAG_TI_loop_range
     426                      .dwattr $C$DW$32, DW_AT_low_pc($C$DW$L$_wait$2$B)
     427                      .dwattr $C$DW$32, DW_AT_high_pc($C$DW$L$_wait$2$E)
     428                      .dwendtag $C$DW$31
     429              
     430                      .dwattr $C$DW$26, DW_AT_TI_end_file("../c5535_bsl_revc/ezdsp5535_v1/c55xx_csl/ccs_v4.0_examples/lcd/C
     431                      .dwattr $C$DW$26, DW_AT_TI_end_line(0x24)
     432                      .dwattr $C$DW$26, DW_AT_TI_end_column(0x01)
     433                      .dwendentry
     434                      .dwendtag $C$DW$26
     435              
     436 0000ff               .sect   ".text"
     437                      .align 4
     438                      .global _DisplayOn
     439              
     440              $C$DW$33        .dwtag  DW_TAG_subprogram, DW_AT_name("DisplayOn")
     441                      .dwattr $C$DW$33, DW_AT_low_pc(_DisplayOn)
     442                      .dwattr $C$DW$33, DW_AT_high_pc(0x00)
TMS320C55x Assembler PC v4.4.1 Sat Sep 29 23:09:22 2018

Tools Copyright (c) 1996-2012 Texas Instruments Incorporated
lcdc_panel.asm                                                       PAGE   10

     443                      .dwattr $C$DW$33, DW_AT_TI_symbol_name("_DisplayOn")
     444                      .dwattr $C$DW$33, DW_AT_external
     445                      .dwattr $C$DW$33, DW_AT_TI_begin_file("../c5535_bsl_revc/ezdsp5535_v1/c55xx_csl/ccs_v4.0_examples/lcd
     446                      .dwattr $C$DW$33, DW_AT_TI_begin_line(0x2d)
     447                      .dwattr $C$DW$33, DW_AT_TI_begin_column(0x06)
     448                      .dwattr $C$DW$33, DW_AT_TI_max_frame_size(0x02)
     449                      .dwpsn  file "../c5535_bsl_revc/ezdsp5535_v1/c55xx_csl/ccs_v4.0_examples/lcd/CSL_LCDC_DiagramExample/
     450              
     451                      .dwfde $C$DW$CIE, _DisplayOn
     452              $C$DW$34        .dwtag  DW_TAG_formal_parameter, DW_AT_name("cs_flag")
     453                      .dwattr $C$DW$34, DW_AT_TI_symbol_name("_cs_flag")
     454                      .dwattr $C$DW$34, DW_AT_type(*$C$DW$T$19)
     455                      .dwattr $C$DW$34, DW_AT_location[DW_OP_reg12]
     456              ;*******************************************************************************
     457              ;* FUNCTION NAME: DisplayOn                                                    *
     458              ;*                                                                             *
     459              ;*   Function Uses Regs : T0,T1,SP,M40,SATA,SATD,RDM,FRCT,SMUL                 *
     460              ;*   Stack Frame        : Compact (No Frame Pointer, w/ debug)                 *
     461              ;*   Total Frame Size   : 2 words                                              *
     462              ;*                        (1 return address/alignment)                         *
     463              ;*                        (1 local values)                                     *
     464              ;*   Min System Stack   : 1 word                                               *
     465              ;*******************************************************************************
     466 000100       _DisplayOn:
     467                      .dwcfi  cfa_offset, 1
     468                      .dwcfi  save_reg_to_mem, 91, -1
     469 000100 4EFF          AADD #-1, SP
     470                      .dwcfi  cfa_offset, 2
     471              $C$DW$35        .dwtag  DW_TAG_variable, DW_AT_name("cs_flag")
     472                      .dwattr $C$DW$35, DW_AT_TI_symbol_name("_cs_flag")
     473                      .dwattr $C$DW$35, DW_AT_type(*$C$DW$T$19)
     474                      .dwattr $C$DW$35, DW_AT_location[DW_OP_bregx 0x24 0]
     475 000102 C400          MOV T0, *SP(#0) ; |47| 
     476                      .dwpsn  file "../c5535_bsl_revc/ezdsp5535_v1/c55xx_csl/ccs_v4.0_examples/lcd/CSL_LCDC_DiagramExample/
     477 000104 7600          MOV #175, T0 ; |48| 
         000106 AF48 
     478 000108 A500          MOV *SP(#0), T1 ; |48| 
     479              $C$DW$36        .dwtag  DW_TAG_TI_branch
     480                      .dwattr $C$DW$36, DW_AT_low_pc(0x00)
     481                      .dwattr $C$DW$36, DW_AT_name("_cmdWrite")
     482                      .dwattr $C$DW$36, DW_AT_TI_call
     483 00010a 0801          CALL #_cmdWrite ; |48| 
         00010c 7B   
     484                                                      ; call occurs [#_cmdWrite] ; |48| 
     485                      .dwpsn  file "../c5535_bsl_revc/ezdsp5535_v1/c55xx_csl/ccs_v4.0_examples/lcd/CSL_LCDC_DiagramExample/
     486 00010d 7600          MOV #166, T0 ; |49| 
         00010f A648 
     487 000111 A500          MOV *SP(#0), T1 ; |49| 
     488              $C$DW$37        .dwtag  DW_TAG_TI_branch
     489                      .dwattr $C$DW$37, DW_AT_low_pc(0x00)
     490                      .dwattr $C$DW$37, DW_AT_name("_cmdWrite")
     491                      .dwattr $C$DW$37, DW_AT_TI_call
     492 000113 0801          CALL #_cmdWrite ; |49| 
         000115 72   
     493                                                      ; call occurs [#_cmdWrite] ; |49| 
TMS320C55x Assembler PC v4.4.1 Sat Sep 29 23:09:22 2018

Tools Copyright (c) 1996-2012 Texas Instruments Incorporated
lcdc_panel.asm                                                       PAGE   11

     494                      .dwpsn  file "../c5535_bsl_revc/ezdsp5535_v1/c55xx_csl/ccs_v4.0_examples/lcd/CSL_LCDC_DiagramExample/
     495 000116 4E01          AADD #1, SP
     496                      .dwcfi  cfa_offset, 1
     497              $C$DW$38        .dwtag  DW_TAG_TI_branch
     498                      .dwattr $C$DW$38, DW_AT_low_pc(0x00)
     499                      .dwattr $C$DW$38, DW_AT_TI_return
     500 000118 4804          RET
     501                                                      ; return occurs
     502                      .dwattr $C$DW$33, DW_AT_TI_end_file("../c5535_bsl_revc/ezdsp5535_v1/c55xx_csl/ccs_v4.0_examples/lcd/C
     503                      .dwattr $C$DW$33, DW_AT_TI_end_line(0x32)
     504                      .dwattr $C$DW$33, DW_AT_TI_end_column(0x01)
     505                      .dwendentry
     506                      .dwendtag $C$DW$33
     507              
     508 00011a               .sect   ".text"
     509                      .align 4
     510                      .global _DisplayOff
     511              
     512              $C$DW$39        .dwtag  DW_TAG_subprogram, DW_AT_name("DisplayOff")
     513                      .dwattr $C$DW$39, DW_AT_low_pc(_DisplayOff)
     514                      .dwattr $C$DW$39, DW_AT_high_pc(0x00)
     515                      .dwattr $C$DW$39, DW_AT_TI_symbol_name("_DisplayOff")
     516                      .dwattr $C$DW$39, DW_AT_external
     517                      .dwattr $C$DW$39, DW_AT_TI_begin_file("../c5535_bsl_revc/ezdsp5535_v1/c55xx_csl/ccs_v4.0_examples/lcd
     518                      .dwattr $C$DW$39, DW_AT_TI_begin_line(0x3a)
     519                      .dwattr $C$DW$39, DW_AT_TI_begin_column(0x06)
     520                      .dwattr $C$DW$39, DW_AT_TI_max_frame_size(0x02)
     521                      .dwpsn  file "../c5535_bsl_revc/ezdsp5535_v1/c55xx_csl/ccs_v4.0_examples/lcd/CSL_LCDC_DiagramExample/
     522              
     523                      .dwfde $C$DW$CIE, _DisplayOff
     524              $C$DW$40        .dwtag  DW_TAG_formal_parameter, DW_AT_name("cs_flag")
     525                      .dwattr $C$DW$40, DW_AT_TI_symbol_name("_cs_flag")
     526                      .dwattr $C$DW$40, DW_AT_type(*$C$DW$T$19)
     527                      .dwattr $C$DW$40, DW_AT_location[DW_OP_reg12]
     528              ;*******************************************************************************
     529              ;* FUNCTION NAME: DisplayOff                                                   *
     530              ;*                                                                             *
     531              ;*   Function Uses Regs : T0,T1,SP,M40,SATA,SATD,RDM,FRCT,SMUL                 *
     532              ;*   Stack Frame        : Compact (No Frame Pointer, w/ debug)                 *
     533              ;*   Total Frame Size   : 2 words                                              *
     534              ;*                        (1 return address/alignment)                         *
     535              ;*                        (1 local values)                                     *
     536              ;*   Min System Stack   : 1 word                                               *
     537              ;*******************************************************************************
     538 00011c       _DisplayOff:
     539                      .dwcfi  cfa_offset, 1
     540                      .dwcfi  save_reg_to_mem, 91, -1
     541 00011c 4EFF          AADD #-1, SP
     542                      .dwcfi  cfa_offset, 2
     543              $C$DW$41        .dwtag  DW_TAG_variable, DW_AT_name("cs_flag")
     544                      .dwattr $C$DW$41, DW_AT_TI_symbol_name("_cs_flag")
     545                      .dwattr $C$DW$41, DW_AT_type(*$C$DW$T$19)
     546                      .dwattr $C$DW$41, DW_AT_location[DW_OP_bregx 0x24 0]
     547 00011e C400          MOV T0, *SP(#0) ; |60| 
     548                      .dwpsn  file "../c5535_bsl_revc/ezdsp5535_v1/c55xx_csl/ccs_v4.0_examples/lcd/CSL_LCDC_DiagramExample/
TMS320C55x Assembler PC v4.4.1 Sat Sep 29 23:09:22 2018

Tools Copyright (c) 1996-2012 Texas Instruments Incorporated
lcdc_panel.asm                                                       PAGE   12

     549 000120 7600          MOV #164, T0 ; |61| 
         000122 A448 
     550 000124 A500          MOV *SP(#0), T1 ; |61| 
     551              $C$DW$42        .dwtag  DW_TAG_TI_branch
     552                      .dwattr $C$DW$42, DW_AT_low_pc(0x00)
     553                      .dwattr $C$DW$42, DW_AT_name("_cmdWrite")
     554                      .dwattr $C$DW$42, DW_AT_TI_call
     555 000126 0801          CALL #_cmdWrite ; |61| 
         000128 5F   
     556                                                      ; call occurs [#_cmdWrite] ; |61| 
     557                      .dwpsn  file "../c5535_bsl_revc/ezdsp5535_v1/c55xx_csl/ccs_v4.0_examples/lcd/CSL_LCDC_DiagramExample/
     558 000129 4E01          AADD #1, SP
     559                      .dwcfi  cfa_offset, 1
     560              $C$DW$43        .dwtag  DW_TAG_TI_branch
     561                      .dwattr $C$DW$43, DW_AT_low_pc(0x00)
     562                      .dwattr $C$DW$43, DW_AT_TI_return
     563 00012b 4804          RET
     564                                                      ; return occurs
     565                      .dwattr $C$DW$39, DW_AT_TI_end_file("../c5535_bsl_revc/ezdsp5535_v1/c55xx_csl/ccs_v4.0_examples/lcd/C
     566                      .dwattr $C$DW$39, DW_AT_TI_end_line(0x3e)
     567                      .dwattr $C$DW$39, DW_AT_TI_end_column(0x01)
     568                      .dwendentry
     569                      .dwendtag $C$DW$39
     570              
     571 00012d               .sect   ".text"
     572                      .align 4
     573                      .global _DisplayColorMode
     574              
     575              $C$DW$44        .dwtag  DW_TAG_subprogram, DW_AT_name("DisplayColorMode")
     576                      .dwattr $C$DW$44, DW_AT_low_pc(_DisplayColorMode)
     577                      .dwattr $C$DW$44, DW_AT_high_pc(0x00)
     578                      .dwattr $C$DW$44, DW_AT_TI_symbol_name("_DisplayColorMode")
     579                      .dwattr $C$DW$44, DW_AT_external
     580                      .dwattr $C$DW$44, DW_AT_TI_begin_file("../c5535_bsl_revc/ezdsp5535_v1/c55xx_csl/ccs_v4.0_examples/lcd
     581                      .dwattr $C$DW$44, DW_AT_TI_begin_line(0x47)
     582                      .dwattr $C$DW$44, DW_AT_TI_begin_column(0x06)
     583                      .dwattr $C$DW$44, DW_AT_TI_max_frame_size(0x04)
     584                      .dwpsn  file "../c5535_bsl_revc/ezdsp5535_v1/c55xx_csl/ccs_v4.0_examples/lcd/CSL_LCDC_DiagramExample/
     585              
     586                      .dwfde $C$DW$CIE, _DisplayColorMode
     587              $C$DW$45        .dwtag  DW_TAG_formal_parameter, DW_AT_name("colorMode")
     588                      .dwattr $C$DW$45, DW_AT_TI_symbol_name("_colorMode")
     589                      .dwattr $C$DW$45, DW_AT_type(*$C$DW$T$35)
     590                      .dwattr $C$DW$45, DW_AT_location[DW_OP_reg12]
     591              $C$DW$46        .dwtag  DW_TAG_formal_parameter, DW_AT_name("cs_flag")
     592                      .dwattr $C$DW$46, DW_AT_TI_symbol_name("_cs_flag")
     593                      .dwattr $C$DW$46, DW_AT_type(*$C$DW$T$19)
     594                      .dwattr $C$DW$46, DW_AT_location[DW_OP_reg13]
     595              ;*******************************************************************************
     596              ;* FUNCTION NAME: DisplayColorMode                                             *
     597              ;*                                                                             *
     598              ;*   Function Uses Regs : T0,T1,AR1,AR2,AR3,SP,CARRY,TC1,M40,SATA,SATD,RDM,    *
     599              ;*                        FRCT,SMUL                                            *
     600              ;*   Stack Frame        : Compact (No Frame Pointer, w/ debug)                 *
     601              ;*   Total Frame Size   : 4 words                                              *
TMS320C55x Assembler PC v4.4.1 Sat Sep 29 23:09:22 2018

Tools Copyright (c) 1996-2012 Texas Instruments Incorporated
lcdc_panel.asm                                                       PAGE   13

     602              ;*                        (1 return address/alignment)                         *
     603              ;*                        (3 local values)                                     *
     604              ;*   Min System Stack   : 1 word                                               *
     605              ;*******************************************************************************
     606 000130       _DisplayColorMode:
     607                      .dwcfi  cfa_offset, 1
     608                      .dwcfi  save_reg_to_mem, 91, -1
     609 000130 4EFD          AADD #-3, SP
     610                      .dwcfi  cfa_offset, 4
     611              $C$DW$47        .dwtag  DW_TAG_variable, DW_AT_name("colorMode")
     612                      .dwattr $C$DW$47, DW_AT_TI_symbol_name("_colorMode")
     613                      .dwattr $C$DW$47, DW_AT_type(*$C$DW$T$35)
     614                      .dwattr $C$DW$47, DW_AT_location[DW_OP_bregx 0x24 0]
     615              $C$DW$48        .dwtag  DW_TAG_variable, DW_AT_name("cs_flag")
     616                      .dwattr $C$DW$48, DW_AT_TI_symbol_name("_cs_flag")
     617                      .dwattr $C$DW$48, DW_AT_type(*$C$DW$T$19)
     618                      .dwattr $C$DW$48, DW_AT_location[DW_OP_bregx 0x24 1]
     619              $C$DW$49        .dwtag  DW_TAG_variable, DW_AT_name("temp")
     620                      .dwattr $C$DW$49, DW_AT_TI_symbol_name("_temp")
     621                      .dwattr $C$DW$49, DW_AT_type(*$C$DW$T$19)
     622                      .dwattr $C$DW$49, DW_AT_location[DW_OP_bregx 0x24 2]
     623 000132 C502          MOV T1, *SP(#1) ; |74| 
     624 000134 C400          MOV T0, *SP(#0) ; |74| 
     625                      .dwpsn  file "../c5535_bsl_revc/ezdsp5535_v1/c55xx_csl/ccs_v4.0_examples/lcd/CSL_LCDC_DiagramExample/
     626 000136 7600          MOV #160, T0 ; |76| 
         000138 A048 
     627 00013a A502          MOV *SP(#1), T1 ; |76| 
     628              $C$DW$50        .dwtag  DW_TAG_TI_branch
     629                      .dwattr $C$DW$50, DW_AT_low_pc(0x00)
     630                      .dwattr $C$DW$50, DW_AT_name("_cmdWrite")
     631                      .dwattr $C$DW$50, DW_AT_TI_call
     632 00013c 0801          CALL #_cmdWrite ; |76| 
         00013e 49   
     633                                                      ; call occurs [#_cmdWrite] ; |76| 
     634                      .dwpsn  file "../c5535_bsl_revc/ezdsp5535_v1/c55xx_csl/ccs_v4.0_examples/lcd/CSL_LCDC_DiagramExample/
     635 00013f F000          CMP *SP(#0) == #3, TC1 ; |77| 
         000141 0003 
     636 000143 65F4          BCC $C$L9,!TC1 ; |77| 
     637                                                      ; branchcc occurs ; |77| 
     638                      .dwpsn  file "../c5535_bsl_revc/ezdsp5535_v1/c55xx_csl/ccs_v4.0_examples/lcd/CSL_LCDC_DiagramExample/
     639 000145 A502          MOV *SP(#1), T1 ; |79| 
     640 000147 7600          MOV #164, T0 ; |79| 
         000149 A448 
     641              $C$DW$51        .dwtag  DW_TAG_TI_branch
     642                      .dwattr $C$DW$51, DW_AT_low_pc(0x00)
     643                      .dwattr $C$DW$51, DW_AT_name("_dataWrite")
     644                      .dwattr $C$DW$51, DW_AT_TI_call
     645 00014b 0801          CALL #_dataWrite ; |79| 
         00014d 52   
     646                                                      ; call occurs [#_dataWrite] ; |79| 
     647                      .dwpsn  file "../c5535_bsl_revc/ezdsp5535_v1/c55xx_csl/ccs_v4.0_examples/lcd/CSL_LCDC_DiagramExample/
     648 00014e 4A3C          B $C$L13  ; |80| 
     649                                                      ; branch occurs ; |80| 
     650 000150       $C$L9:    
     651                      .dwpsn  file "../c5535_bsl_revc/ezdsp5535_v1/c55xx_csl/ccs_v4.0_examples/lcd/CSL_LCDC_DiagramExample/
TMS320C55x Assembler PC v4.4.1 Sat Sep 29 23:09:22 2018

Tools Copyright (c) 1996-2012 Texas Instruments Incorporated
lcdc_panel.asm                                                       PAGE   14

     652 000150 F000          CMP *SP(#0) == #2, TC1 ; |81| 
         000152 0002 
     653 000154 65F4          BCC $C$L10,!TC1 ; |81| 
     654                                                      ; branchcc occurs ; |81| 
     655                      .dwpsn  file "../c5535_bsl_revc/ezdsp5535_v1/c55xx_csl/ccs_v4.0_examples/lcd/CSL_LCDC_DiagramExample/
     656 000156 A502          MOV *SP(#1), T1 ; |83| 
     657 000158 7600          MOV #236, T0 ; |83| 
         00015a EC48 
     658              $C$DW$52        .dwtag  DW_TAG_TI_branch
     659                      .dwattr $C$DW$52, DW_AT_low_pc(0x00)
     660                      .dwattr $C$DW$52, DW_AT_name("_dataWrite")
     661                      .dwattr $C$DW$52, DW_AT_TI_call
     662 00015c 0801          CALL #_dataWrite ; |83| 
         00015e 41   
     663                                                      ; call occurs [#_dataWrite] ; |83| 
     664                      .dwpsn  file "../c5535_bsl_revc/ezdsp5535_v1/c55xx_csl/ccs_v4.0_examples/lcd/CSL_LCDC_DiagramExample/
     665 00015f 4A2B          B $C$L13  ; |84| 
     666                                                      ; branch occurs ; |84| 
     667 000161       $C$L10:    
     668                      .dwpsn  file "../c5535_bsl_revc/ezdsp5535_v1/c55xx_csl/ccs_v4.0_examples/lcd/CSL_LCDC_DiagramExample/
     669 000161 F000          CMP *SP(#0) == #1, TC1 ; |85| 
         000163 0001 
     670 000165 65F4          BCC $C$L11,!TC1 ; |85| 
     671                                                      ; branchcc occurs ; |85| 
     672                      .dwpsn  file "../c5535_bsl_revc/ezdsp5535_v1/c55xx_csl/ccs_v4.0_examples/lcd/CSL_LCDC_DiagramExample/
     673 000167 A502          MOV *SP(#1), T1 ; |87| 
     674 000169 7600          MOV #112, T0 ; |87| 
         00016b 7048 
     675              $C$DW$53        .dwtag  DW_TAG_TI_branch
     676                      .dwattr $C$DW$53, DW_AT_low_pc(0x00)
     677                      .dwattr $C$DW$53, DW_AT_name("_dataWrite")
     678                      .dwattr $C$DW$53, DW_AT_TI_call
     679 00016d 0801          CALL #_dataWrite ; |87| 
         00016f 30   
     680                                                      ; call occurs [#_dataWrite] ; |87| 
     681                      .dwpsn  file "../c5535_bsl_revc/ezdsp5535_v1/c55xx_csl/ccs_v4.0_examples/lcd/CSL_LCDC_DiagramExample/
     682 000170 4A1A          B $C$L13  ; |88| 
     683                                                      ; branch occurs ; |88| 
     684 000172       $C$L11:    
     685                      .dwpsn  file "../c5535_bsl_revc/ezdsp5535_v1/c55xx_csl/ccs_v4.0_examples/lcd/CSL_LCDC_DiagramExample/
     686              
     687 000172 A900          MOV *SP(#0), AR1 ; |91| 
     688 000174 3D4A  ||      MOV #4, AR2
     689              
     690 000176 1298          CMP AR1 >= AR2, TC1 ; |91| 
         000178 A0   
     691              
     692 000179 6164          BCC $C$L12,TC1 ; |91| 
     693 00017b 3D0B  ||      MOV #0, AR3
     694              
     695                                                      ; branchcc occurs ; |91| 
     696 00017d 3C1B          MOV #1, AR3
     697 00017f       $C$L12:    
     698 00017f 7B00          ADD #52, AR3, AR1 ; |91| 
         000181 349B 
TMS320C55x Assembler PC v4.4.1 Sat Sep 29 23:09:22 2018

Tools Copyright (c) 1996-2012 Texas Instruments Incorporated
lcdc_panel.asm                                                       PAGE   15

     699 000183 C904          MOV AR1, *SP(#2) ; |91| 
     700                      .dwpsn  file "../c5535_bsl_revc/ezdsp5535_v1/c55xx_csl/ccs_v4.0_examples/lcd/CSL_LCDC_DiagramExample/
     701 000185 A502          MOV *SP(#1), T1 ; |92| 
     702              $C$DW$54        .dwtag  DW_TAG_TI_branch
     703                      .dwattr $C$DW$54, DW_AT_low_pc(0x00)
     704                      .dwattr $C$DW$54, DW_AT_name("_dataWrite")
     705                      .dwattr $C$DW$54, DW_AT_TI_call
     706              
     707 000187 0801          CALL #_dataWrite ; |92| 
         000189 14   
     708 00018a 2394  ||      MOV AR1, T0
     709              
     710                                                      ; call occurs [#_dataWrite] ; |92| 
     711 00018c       $C$L13:    
     712                      .dwpsn  file "../c5535_bsl_revc/ezdsp5535_v1/c55xx_csl/ccs_v4.0_examples/lcd/CSL_LCDC_DiagramExample/
     713 00018c A502          MOV *SP(#1), T1 ; |94| 
     714 00018e 7600          MOV #166, T0 ; |94| 
         000190 A648 
     715              $C$DW$55        .dwtag  DW_TAG_TI_branch
     716                      .dwattr $C$DW$55, DW_AT_low_pc(0x00)
     717                      .dwattr $C$DW$55, DW_AT_name("_cmdWrite")
     718                      .dwattr $C$DW$55, DW_AT_TI_call
     719 000192 0800          CALL #_cmdWrite ; |94| 
         000194 F3   
     720                                                      ; call occurs [#_cmdWrite] ; |94| 
     721                      .dwpsn  file "../c5535_bsl_revc/ezdsp5535_v1/c55xx_csl/ccs_v4.0_examples/lcd/CSL_LCDC_DiagramExample/
     722 000195 4E03          AADD #3, SP
     723                      .dwcfi  cfa_offset, 1
     724              $C$DW$56        .dwtag  DW_TAG_TI_branch
     725                      .dwattr $C$DW$56, DW_AT_low_pc(0x00)
     726                      .dwattr $C$DW$56, DW_AT_TI_return
     727 000197 4804          RET
     728                                                      ; return occurs
     729                      .dwattr $C$DW$44, DW_AT_TI_end_file("../c5535_bsl_revc/ezdsp5535_v1/c55xx_csl/ccs_v4.0_examples/lcd/C
     730                      .dwattr $C$DW$44, DW_AT_TI_end_line(0x5f)
     731                      .dwattr $C$DW$44, DW_AT_TI_end_column(0x01)
     732                      .dwendentry
     733                      .dwendtag $C$DW$44
     734              
     735 000199               .sect   ".text"
     736                      .align 4
     737                      .global _SetSleep
     738              
     739              $C$DW$57        .dwtag  DW_TAG_subprogram, DW_AT_name("SetSleep")
     740                      .dwattr $C$DW$57, DW_AT_low_pc(_SetSleep)
     741                      .dwattr $C$DW$57, DW_AT_high_pc(0x00)
     742                      .dwattr $C$DW$57, DW_AT_TI_symbol_name("_SetSleep")
     743                      .dwattr $C$DW$57, DW_AT_external
     744                      .dwattr $C$DW$57, DW_AT_TI_begin_file("../c5535_bsl_revc/ezdsp5535_v1/c55xx_csl/ccs_v4.0_examples/lcd
     745                      .dwattr $C$DW$57, DW_AT_TI_begin_line(0x67)
     746                      .dwattr $C$DW$57, DW_AT_TI_begin_column(0x06)
     747                      .dwattr $C$DW$57, DW_AT_TI_max_frame_size(0x02)
     748                      .dwpsn  file "../c5535_bsl_revc/ezdsp5535_v1/c55xx_csl/ccs_v4.0_examples/lcd/CSL_LCDC_DiagramExample/
     749              
     750                      .dwfde $C$DW$CIE, _SetSleep
TMS320C55x Assembler PC v4.4.1 Sat Sep 29 23:09:22 2018

Tools Copyright (c) 1996-2012 Texas Instruments Incorporated
lcdc_panel.asm                                                       PAGE   16

     751              $C$DW$58        .dwtag  DW_TAG_formal_parameter, DW_AT_name("cs_flag")
     752                      .dwattr $C$DW$58, DW_AT_TI_symbol_name("_cs_flag")
     753                      .dwattr $C$DW$58, DW_AT_type(*$C$DW$T$19)
     754                      .dwattr $C$DW$58, DW_AT_location[DW_OP_reg12]
     755              ;*******************************************************************************
     756              ;* FUNCTION NAME: SetSleep                                                     *
     757              ;*                                                                             *
     758              ;*   Function Uses Regs : T0,T1,SP,M40,SATA,SATD,RDM,FRCT,SMUL                 *
     759              ;*   Stack Frame        : Compact (No Frame Pointer, w/ debug)                 *
     760              ;*   Total Frame Size   : 2 words                                              *
     761              ;*                        (1 return address/alignment)                         *
     762              ;*                        (1 local values)                                     *
     763              ;*   Min System Stack   : 1 word                                               *
     764              ;*******************************************************************************
     765 00019c       _SetSleep:
     766                      .dwcfi  cfa_offset, 1
     767                      .dwcfi  save_reg_to_mem, 91, -1
     768 00019c 4EFF          AADD #-1, SP
     769                      .dwcfi  cfa_offset, 2
     770              $C$DW$59        .dwtag  DW_TAG_variable, DW_AT_name("cs_flag")
     771                      .dwattr $C$DW$59, DW_AT_TI_symbol_name("_cs_flag")
     772                      .dwattr $C$DW$59, DW_AT_type(*$C$DW$T$19)
     773                      .dwattr $C$DW$59, DW_AT_location[DW_OP_bregx 0x24 0]
     774 00019e C400          MOV T0, *SP(#0) ; |105| 
     775                      .dwpsn  file "../c5535_bsl_revc/ezdsp5535_v1/c55xx_csl/ccs_v4.0_examples/lcd/CSL_LCDC_DiagramExample/
     776              $C$DW$60        .dwtag  DW_TAG_TI_branch
     777                      .dwattr $C$DW$60, DW_AT_low_pc(0x00)
     778                      .dwattr $C$DW$60, DW_AT_name("_DisplayOff")
     779                      .dwattr $C$DW$60, DW_AT_TI_call
     780 0001a0 08FF          CALL #_DisplayOff ; |107| 
         0001a2 79   
     781                                                      ; call occurs [#_DisplayOff] ; |107| 
     782                      .dwpsn  file "../c5535_bsl_revc/ezdsp5535_v1/c55xx_csl/ccs_v4.0_examples/lcd/CSL_LCDC_DiagramExample/
     783 0001a3 A500          MOV *SP(#0), T1 ; |108| 
     784 0001a5 7600          MOV #174, T0 ; |108| 
         0001a7 AE48 
     785              $C$DW$61        .dwtag  DW_TAG_TI_branch
     786                      .dwattr $C$DW$61, DW_AT_low_pc(0x00)
     787                      .dwattr $C$DW$61, DW_AT_name("_cmdWrite")
     788                      .dwattr $C$DW$61, DW_AT_TI_call
     789 0001a9 0800          CALL #_cmdWrite ; |108| 
         0001ab DC   
     790                                                      ; call occurs [#_cmdWrite] ; |108| 
     791                      .dwpsn  file "../c5535_bsl_revc/ezdsp5535_v1/c55xx_csl/ccs_v4.0_examples/lcd/CSL_LCDC_DiagramExample/
     792 0001ac 4E01          AADD #1, SP
     793                      .dwcfi  cfa_offset, 1
     794              $C$DW$62        .dwtag  DW_TAG_TI_branch
     795                      .dwattr $C$DW$62, DW_AT_low_pc(0x00)
     796                      .dwattr $C$DW$62, DW_AT_TI_return
     797 0001ae 4804          RET
     798                                                      ; return occurs
     799                      .dwattr $C$DW$57, DW_AT_TI_end_file("../c5535_bsl_revc/ezdsp5535_v1/c55xx_csl/ccs_v4.0_examples/lcd/C
     800                      .dwattr $C$DW$57, DW_AT_TI_end_line(0x6d)
     801                      .dwattr $C$DW$57, DW_AT_TI_end_column(0x01)
     802                      .dwendentry
TMS320C55x Assembler PC v4.4.1 Sat Sep 29 23:09:22 2018

Tools Copyright (c) 1996-2012 Texas Instruments Incorporated
lcdc_panel.asm                                                       PAGE   17

     803                      .dwendtag $C$DW$57
     804              
     805 0001b0               .sect   ".text"
     806                      .align 4
     807                      .global _CancelSleep
     808              
     809              $C$DW$63        .dwtag  DW_TAG_subprogram, DW_AT_name("CancelSleep")
     810                      .dwattr $C$DW$63, DW_AT_low_pc(_CancelSleep)
     811                      .dwattr $C$DW$63, DW_AT_high_pc(0x00)
     812                      .dwattr $C$DW$63, DW_AT_TI_symbol_name("_CancelSleep")
     813                      .dwattr $C$DW$63, DW_AT_external
     814                      .dwattr $C$DW$63, DW_AT_TI_begin_file("../c5535_bsl_revc/ezdsp5535_v1/c55xx_csl/ccs_v4.0_examples/lcd
     815                      .dwattr $C$DW$63, DW_AT_TI_begin_line(0x75)
     816                      .dwattr $C$DW$63, DW_AT_TI_begin_column(0x06)
     817                      .dwattr $C$DW$63, DW_AT_TI_max_frame_size(0x02)
     818                      .dwpsn  file "../c5535_bsl_revc/ezdsp5535_v1/c55xx_csl/ccs_v4.0_examples/lcd/CSL_LCDC_DiagramExample/
     819              
     820                      .dwfde $C$DW$CIE, _CancelSleep
     821              $C$DW$64        .dwtag  DW_TAG_formal_parameter, DW_AT_name("cs_flag")
     822                      .dwattr $C$DW$64, DW_AT_TI_symbol_name("_cs_flag")
     823                      .dwattr $C$DW$64, DW_AT_type(*$C$DW$T$19)
     824                      .dwattr $C$DW$64, DW_AT_location[DW_OP_reg12]
     825              ;*******************************************************************************
     826              ;* FUNCTION NAME: CancelSleep                                                  *
     827              ;*                                                                             *
     828              ;*   Function Uses Regs : T0,T1,SP,M40,SATA,SATD,RDM,FRCT,SMUL                 *
     829              ;*   Stack Frame        : Compact (No Frame Pointer, w/ debug)                 *
     830              ;*   Total Frame Size   : 2 words                                              *
     831              ;*                        (1 return address/alignment)                         *
     832              ;*                        (1 local values)                                     *
     833              ;*   Min System Stack   : 1 word                                               *
     834              ;*******************************************************************************
     835 0001b0       _CancelSleep:
     836                      .dwcfi  cfa_offset, 1
     837                      .dwcfi  save_reg_to_mem, 91, -1
     838 0001b0 4EFF          AADD #-1, SP
     839                      .dwcfi  cfa_offset, 2
     840              $C$DW$65        .dwtag  DW_TAG_variable, DW_AT_name("cs_flag")
     841                      .dwattr $C$DW$65, DW_AT_TI_symbol_name("_cs_flag")
     842                      .dwattr $C$DW$65, DW_AT_type(*$C$DW$T$19)
     843                      .dwattr $C$DW$65, DW_AT_location[DW_OP_bregx 0x24 0]
     844 0001b2 C400          MOV T0, *SP(#0) ; |119| 
     845                      .dwpsn  file "../c5535_bsl_revc/ezdsp5535_v1/c55xx_csl/ccs_v4.0_examples/lcd/CSL_LCDC_DiagramExample/
     846 0001b4 7600          MOV #175, T0 ; |120| 
         0001b6 AF48 
     847 0001b8 A500          MOV *SP(#0), T1 ; |120| 
     848              $C$DW$66        .dwtag  DW_TAG_TI_branch
     849                      .dwattr $C$DW$66, DW_AT_low_pc(0x00)
     850                      .dwattr $C$DW$66, DW_AT_name("_cmdWrite")
     851                      .dwattr $C$DW$66, DW_AT_TI_call
     852 0001ba 0800          CALL #_cmdWrite ; |120| 
         0001bc CB   
     853                                                      ; call occurs [#_cmdWrite] ; |120| 
     854                      .dwpsn  file "../c5535_bsl_revc/ezdsp5535_v1/c55xx_csl/ccs_v4.0_examples/lcd/CSL_LCDC_DiagramExample/
     855 0001bd A400          MOV *SP(#0), T0 ; |121| 
TMS320C55x Assembler PC v4.4.1 Sat Sep 29 23:09:22 2018

Tools Copyright (c) 1996-2012 Texas Instruments Incorporated
lcdc_panel.asm                                                       PAGE   18

     856              $C$DW$67        .dwtag  DW_TAG_TI_branch
     857                      .dwattr $C$DW$67, DW_AT_low_pc(0x00)
     858                      .dwattr $C$DW$67, DW_AT_name("_DisplayOn")
     859                      .dwattr $C$DW$67, DW_AT_TI_call
     860 0001bf 08FF          CALL #_DisplayOn ; |121| 
         0001c1 3E   
     861                                                      ; call occurs [#_DisplayOn] ; |121| 
     862                      .dwpsn  file "../c5535_bsl_revc/ezdsp5535_v1/c55xx_csl/ccs_v4.0_examples/lcd/CSL_LCDC_DiagramExample/
     863 0001c2 4E01          AADD #1, SP
     864                      .dwcfi  cfa_offset, 1
     865              $C$DW$68        .dwtag  DW_TAG_TI_branch
     866                      .dwattr $C$DW$68, DW_AT_low_pc(0x00)
     867                      .dwattr $C$DW$68, DW_AT_TI_return
     868 0001c4 4804          RET
     869                                                      ; return occurs
     870                      .dwattr $C$DW$63, DW_AT_TI_end_file("../c5535_bsl_revc/ezdsp5535_v1/c55xx_csl/ccs_v4.0_examples/lcd/C
     871                      .dwattr $C$DW$63, DW_AT_TI_end_line(0x7a)
     872                      .dwattr $C$DW$63, DW_AT_TI_end_column(0x01)
     873                      .dwendentry
     874                      .dwendtag $C$DW$63
     875              
     876 0001c6               .sect   ".text"
     877                      .align 4
     878                      .global _SetPowerMode
     879              
     880              $C$DW$69        .dwtag  DW_TAG_subprogram, DW_AT_name("SetPowerMode")
     881                      .dwattr $C$DW$69, DW_AT_low_pc(_SetPowerMode)
     882                      .dwattr $C$DW$69, DW_AT_high_pc(0x00)
     883                      .dwattr $C$DW$69, DW_AT_TI_symbol_name("_SetPowerMode")
     884                      .dwattr $C$DW$69, DW_AT_external
     885                      .dwattr $C$DW$69, DW_AT_TI_begin_file("../c5535_bsl_revc/ezdsp5535_v1/c55xx_csl/ccs_v4.0_examples/lcd
     886                      .dwattr $C$DW$69, DW_AT_TI_begin_line(0x83)
     887                      .dwattr $C$DW$69, DW_AT_TI_begin_column(0x06)
     888                      .dwattr $C$DW$69, DW_AT_TI_max_frame_size(0x04)
     889                      .dwpsn  file "../c5535_bsl_revc/ezdsp5535_v1/c55xx_csl/ccs_v4.0_examples/lcd/CSL_LCDC_DiagramExample/
     890              
     891                      .dwfde $C$DW$CIE, _SetPowerMode
     892              $C$DW$70        .dwtag  DW_TAG_formal_parameter, DW_AT_name("powerMode")
     893                      .dwattr $C$DW$70, DW_AT_TI_symbol_name("_powerMode")
     894                      .dwattr $C$DW$70, DW_AT_type(*$C$DW$T$37)
     895                      .dwattr $C$DW$70, DW_AT_location[DW_OP_reg12]
     896              $C$DW$71        .dwtag  DW_TAG_formal_parameter, DW_AT_name("cs_flag")
     897                      .dwattr $C$DW$71, DW_AT_TI_symbol_name("_cs_flag")
     898                      .dwattr $C$DW$71, DW_AT_type(*$C$DW$T$19)
     899                      .dwattr $C$DW$71, DW_AT_location[DW_OP_reg13]
     900              ;*******************************************************************************
     901              ;* FUNCTION NAME: SetPowerMode                                                 *
     902              ;*                                                                             *
     903              ;*   Function Uses Regs : T0,T1,SP,M40,SATA,SATD,RDM,FRCT,SMUL                 *
     904              ;*   Stack Frame        : Compact (No Frame Pointer, w/ debug)                 *
     905              ;*   Total Frame Size   : 4 words                                              *
     906              ;*                        (2 return address/alignment)                         *
     907              ;*                        (2 local values)                                     *
     908              ;*   Min System Stack   : 1 word                                               *
     909              ;*******************************************************************************
TMS320C55x Assembler PC v4.4.1 Sat Sep 29 23:09:22 2018

Tools Copyright (c) 1996-2012 Texas Instruments Incorporated
lcdc_panel.asm                                                       PAGE   19

     910 0001c8       _SetPowerMode:
     911                      .dwcfi  cfa_offset, 1
     912                      .dwcfi  save_reg_to_mem, 91, -1
     913 0001c8 4EFD          AADD #-3, SP
     914                      .dwcfi  cfa_offset, 4
     915              $C$DW$72        .dwtag  DW_TAG_variable, DW_AT_name("powerMode")
     916                      .dwattr $C$DW$72, DW_AT_TI_symbol_name("_powerMode")
     917                      .dwattr $C$DW$72, DW_AT_type(*$C$DW$T$37)
     918                      .dwattr $C$DW$72, DW_AT_location[DW_OP_bregx 0x24 0]
     919              $C$DW$73        .dwtag  DW_TAG_variable, DW_AT_name("cs_flag")
     920                      .dwattr $C$DW$73, DW_AT_TI_symbol_name("_cs_flag")
     921                      .dwattr $C$DW$73, DW_AT_type(*$C$DW$T$19)
     922                      .dwattr $C$DW$73, DW_AT_location[DW_OP_bregx 0x24 1]
     923 0001ca C502          MOV T1, *SP(#1) ; |134| 
     924 0001cc C400          MOV T0, *SP(#0) ; |134| 
     925                      .dwpsn  file "../c5535_bsl_revc/ezdsp5535_v1/c55xx_csl/ccs_v4.0_examples/lcd/CSL_LCDC_DiagramExample/
     926 0001ce 7600          MOV #176, T0 ; |135| 
         0001d0 B048 
     927 0001d2 A502          MOV *SP(#1), T1 ; |135| 
     928              $C$DW$74        .dwtag  DW_TAG_TI_branch
     929                      .dwattr $C$DW$74, DW_AT_low_pc(0x00)
     930                      .dwattr $C$DW$74, DW_AT_name("_cmdWrite")
     931                      .dwattr $C$DW$74, DW_AT_TI_call
     932 0001d4 0800          CALL #_cmdWrite ; |135| 
         0001d6 B1   
     933                                                      ; call occurs [#_cmdWrite] ; |135| 
     934                      .dwpsn  file "../c5535_bsl_revc/ezdsp5535_v1/c55xx_csl/ccs_v4.0_examples/lcd/CSL_LCDC_DiagramExample/
     935 0001d7 A400          MOV *SP(#0), T0 ; |136| 
     936 0001d9 A502          MOV *SP(#1), T1 ; |136| 
     937              $C$DW$75        .dwtag  DW_TAG_TI_branch
     938                      .dwattr $C$DW$75, DW_AT_low_pc(0x00)
     939                      .dwattr $C$DW$75, DW_AT_name("_dataWrite")
     940                      .dwattr $C$DW$75, DW_AT_TI_call
     941 0001db 0800          CALL #_dataWrite ; |136| 
         0001dd C2   
     942                                                      ; call occurs [#_dataWrite] ; |136| 
     943                      .dwpsn  file "../c5535_bsl_revc/ezdsp5535_v1/c55xx_csl/ccs_v4.0_examples/lcd/CSL_LCDC_DiagramExample/
     944 0001de 4E03          AADD #3, SP
     945                      .dwcfi  cfa_offset, 1
     946              $C$DW$76        .dwtag  DW_TAG_TI_branch
     947                      .dwattr $C$DW$76, DW_AT_low_pc(0x00)
     948                      .dwattr $C$DW$76, DW_AT_TI_return
     949 0001e0 4804          RET
     950                                                      ; return occurs
     951                      .dwattr $C$DW$69, DW_AT_TI_end_file("../c5535_bsl_revc/ezdsp5535_v1/c55xx_csl/ccs_v4.0_examples/lcd/C
     952                      .dwattr $C$DW$69, DW_AT_TI_end_line(0x89)
     953                      .dwattr $C$DW$69, DW_AT_TI_end_column(0x01)
     954                      .dwendentry
     955                      .dwendtag $C$DW$69
     956              
     957 0001e2               .sect   ".text"
     958                      .align 4
     959                      .global _SetVerticalScrollControl
     960              
     961              $C$DW$77        .dwtag  DW_TAG_subprogram, DW_AT_name("SetVerticalScrollControl")
TMS320C55x Assembler PC v4.4.1 Sat Sep 29 23:09:22 2018

Tools Copyright (c) 1996-2012 Texas Instruments Incorporated
lcdc_panel.asm                                                       PAGE   20

     962                      .dwattr $C$DW$77, DW_AT_low_pc(_SetVerticalScrollControl)
     963                      .dwattr $C$DW$77, DW_AT_high_pc(0x00)
     964                      .dwattr $C$DW$77, DW_AT_TI_symbol_name("_SetVerticalScrollControl")
     965                      .dwattr $C$DW$77, DW_AT_external
     966                      .dwattr $C$DW$77, DW_AT_TI_begin_file("../c5535_bsl_revc/ezdsp5535_v1/c55xx_csl/ccs_v4.0_examples/lcd
     967                      .dwattr $C$DW$77, DW_AT_TI_begin_line(0x92)
     968                      .dwattr $C$DW$77, DW_AT_TI_begin_column(0x06)
     969                      .dwattr $C$DW$77, DW_AT_TI_max_frame_size(0x04)
     970                      .dwpsn  file "../c5535_bsl_revc/ezdsp5535_v1/c55xx_csl/ccs_v4.0_examples/lcd/CSL_LCDC_DiagramExample/
     971              
     972                      .dwfde $C$DW$CIE, _SetVerticalScrollControl
     973              $C$DW$78        .dwtag  DW_TAG_formal_parameter, DW_AT_name("VL")
     974                      .dwattr $C$DW$78, DW_AT_TI_symbol_name("_VL")
     975                      .dwattr $C$DW$78, DW_AT_type(*$C$DW$T$19)
     976                      .dwattr $C$DW$78, DW_AT_location[DW_OP_reg12]
     977              $C$DW$79        .dwtag  DW_TAG_formal_parameter, DW_AT_name("cs_flag")
     978                      .dwattr $C$DW$79, DW_AT_TI_symbol_name("_cs_flag")
     979                      .dwattr $C$DW$79, DW_AT_type(*$C$DW$T$19)
     980                      .dwattr $C$DW$79, DW_AT_location[DW_OP_reg13]
     981              ;*******************************************************************************
     982              ;* FUNCTION NAME: SetVerticalScrollControl                                     *
     983              ;*                                                                             *
     984              ;*   Function Uses Regs : T0,T1,SP,M40,SATA,SATD,RDM,FRCT,SMUL                 *
     985              ;*   Stack Frame        : Compact (No Frame Pointer, w/ debug)                 *
     986              ;*   Total Frame Size   : 4 words                                              *
     987              ;*                        (2 return address/alignment)                         *
     988              ;*                        (2 local values)                                     *
     989              ;*   Min System Stack   : 1 word                                               *
     990              ;*******************************************************************************
     991 0001e4       _SetVerticalScrollControl:
     992                      .dwcfi  cfa_offset, 1
     993                      .dwcfi  save_reg_to_mem, 91, -1
     994 0001e4 4EFD          AADD #-3, SP
     995                      .dwcfi  cfa_offset, 4
     996              $C$DW$80        .dwtag  DW_TAG_variable, DW_AT_name("VL")
     997                      .dwattr $C$DW$80, DW_AT_TI_symbol_name("_VL")
     998                      .dwattr $C$DW$80, DW_AT_type(*$C$DW$T$19)
     999                      .dwattr $C$DW$80, DW_AT_location[DW_OP_bregx 0x24 0]
    1000              $C$DW$81        .dwtag  DW_TAG_variable, DW_AT_name("cs_flag")
    1001                      .dwattr $C$DW$81, DW_AT_TI_symbol_name("_cs_flag")
    1002                      .dwattr $C$DW$81, DW_AT_type(*$C$DW$T$19)
    1003                      .dwattr $C$DW$81, DW_AT_location[DW_OP_bregx 0x24 1]
    1004 0001e6 C502          MOV T1, *SP(#1) ; |149| 
    1005 0001e8 C400          MOV T0, *SP(#0) ; |149| 
    1006                      .dwpsn  file "../c5535_bsl_revc/ezdsp5535_v1/c55xx_csl/ccs_v4.0_examples/lcd/CSL_LCDC_DiagramExample/
    1007 0001ea 7600          MOV #162, T0 ; |150| 
         0001ec A248 
    1008 0001ee A502          MOV *SP(#1), T1 ; |150| 
    1009              $C$DW$82        .dwtag  DW_TAG_TI_branch
    1010                      .dwattr $C$DW$82, DW_AT_low_pc(0x00)
    1011                      .dwattr $C$DW$82, DW_AT_name("_cmdWrite")
    1012                      .dwattr $C$DW$82, DW_AT_TI_call
    1013 0001f0 0800          CALL #_cmdWrite ; |150| 
         0001f2 95   
    1014                                                      ; call occurs [#_cmdWrite] ; |150| 
TMS320C55x Assembler PC v4.4.1 Sat Sep 29 23:09:22 2018

Tools Copyright (c) 1996-2012 Texas Instruments Incorporated
lcdc_panel.asm                                                       PAGE   21

    1015                      .dwpsn  file "../c5535_bsl_revc/ezdsp5535_v1/c55xx_csl/ccs_v4.0_examples/lcd/CSL_LCDC_DiagramExample/
    1016 0001f3 A400          MOV *SP(#0), T0 ; |151| 
    1017 0001f5 A502          MOV *SP(#1), T1 ; |151| 
    1018              $C$DW$83        .dwtag  DW_TAG_TI_branch
    1019                      .dwattr $C$DW$83, DW_AT_low_pc(0x00)
    1020                      .dwattr $C$DW$83, DW_AT_name("_dataWrite")
    1021                      .dwattr $C$DW$83, DW_AT_TI_call
    1022 0001f7 0800          CALL #_dataWrite ; |151| 
         0001f9 A6   
    1023                                                      ; call occurs [#_dataWrite] ; |151| 
    1024                      .dwpsn  file "../c5535_bsl_revc/ezdsp5535_v1/c55xx_csl/ccs_v4.0_examples/lcd/CSL_LCDC_DiagramExample/
    1025 0001fa 4E03          AADD #3, SP
    1026                      .dwcfi  cfa_offset, 1
    1027              $C$DW$84        .dwtag  DW_TAG_TI_branch
    1028                      .dwattr $C$DW$84, DW_AT_low_pc(0x00)
    1029                      .dwattr $C$DW$84, DW_AT_TI_return
    1030 0001fc 4804          RET
    1031                                                      ; return occurs
    1032                      .dwattr $C$DW$77, DW_AT_TI_end_file("../c5535_bsl_revc/ezdsp5535_v1/c55xx_csl/ccs_v4.0_examples/lcd/C
    1033                      .dwattr $C$DW$77, DW_AT_TI_end_line(0x98)
    1034                      .dwattr $C$DW$77, DW_AT_TI_end_column(0x01)
    1035                      .dwendentry
    1036                      .dwendtag $C$DW$77
    1037              
    1038 0001fe               .sect   ".text"
    1039                      .align 4
    1040                      .global _SetHorizontalRAMAddress
    1041              
    1042              $C$DW$85        .dwtag  DW_TAG_subprogram, DW_AT_name("SetHorizontalRAMAddress")
    1043                      .dwattr $C$DW$85, DW_AT_low_pc(_SetHorizontalRAMAddress)
    1044                      .dwattr $C$DW$85, DW_AT_high_pc(0x00)
    1045                      .dwattr $C$DW$85, DW_AT_TI_symbol_name("_SetHorizontalRAMAddress")
    1046                      .dwattr $C$DW$85, DW_AT_external
    1047                      .dwattr $C$DW$85, DW_AT_TI_begin_file("../c5535_bsl_revc/ezdsp5535_v1/c55xx_csl/ccs_v4.0_examples/lcd
    1048                      .dwattr $C$DW$85, DW_AT_TI_begin_line(0xa2)
    1049                      .dwattr $C$DW$85, DW_AT_TI_begin_column(0x06)
    1050                      .dwattr $C$DW$85, DW_AT_TI_max_frame_size(0x04)
    1051                      .dwpsn  file "../c5535_bsl_revc/ezdsp5535_v1/c55xx_csl/ccs_v4.0_examples/lcd/CSL_LCDC_DiagramExample/
    1052              
    1053                      .dwfde $C$DW$CIE, _SetHorizontalRAMAddress
    1054              $C$DW$86        .dwtag  DW_TAG_formal_parameter, DW_AT_name("HStart")
    1055                      .dwattr $C$DW$86, DW_AT_TI_symbol_name("_HStart")
    1056                      .dwattr $C$DW$86, DW_AT_type(*$C$DW$T$19)
    1057                      .dwattr $C$DW$86, DW_AT_location[DW_OP_reg12]
    1058              $C$DW$87        .dwtag  DW_TAG_formal_parameter, DW_AT_name("HEnd")
    1059                      .dwattr $C$DW$87, DW_AT_TI_symbol_name("_HEnd")
    1060                      .dwattr $C$DW$87, DW_AT_type(*$C$DW$T$19)
    1061                      .dwattr $C$DW$87, DW_AT_location[DW_OP_reg13]
    1062              $C$DW$88        .dwtag  DW_TAG_formal_parameter, DW_AT_name("cs_flag")
    1063                      .dwattr $C$DW$88, DW_AT_TI_symbol_name("_cs_flag")
    1064                      .dwattr $C$DW$88, DW_AT_type(*$C$DW$T$19)
    1065                      .dwattr $C$DW$88, DW_AT_location[DW_OP_reg16]
    1066              ;*******************************************************************************
    1067              ;* FUNCTION NAME: SetHorizontalRAMAddress                                      *
    1068              ;*                                                                             *
TMS320C55x Assembler PC v4.4.1 Sat Sep 29 23:09:22 2018

Tools Copyright (c) 1996-2012 Texas Instruments Incorporated
lcdc_panel.asm                                                       PAGE   22

    1069              ;*   Function Uses Regs : T0,T1,AR0,SP,M40,SATA,SATD,RDM,FRCT,SMUL             *
    1070              ;*   Stack Frame        : Compact (No Frame Pointer, w/ debug)                 *
    1071              ;*   Total Frame Size   : 4 words                                              *
    1072              ;*                        (1 return address/alignment)                         *
    1073              ;*                        (3 local values)                                     *
    1074              ;*   Min System Stack   : 1 word                                               *
    1075              ;*******************************************************************************
    1076 000200       _SetHorizontalRAMAddress:
    1077                      .dwcfi  cfa_offset, 1
    1078                      .dwcfi  save_reg_to_mem, 91, -1
    1079 000200 4EFD          AADD #-3, SP
    1080                      .dwcfi  cfa_offset, 4
    1081              $C$DW$89        .dwtag  DW_TAG_variable, DW_AT_name("HStart")
    1082                      .dwattr $C$DW$89, DW_AT_TI_symbol_name("_HStart")
    1083                      .dwattr $C$DW$89, DW_AT_type(*$C$DW$T$19)
    1084                      .dwattr $C$DW$89, DW_AT_location[DW_OP_bregx 0x24 0]
    1085              $C$DW$90        .dwtag  DW_TAG_variable, DW_AT_name("HEnd")
    1086                      .dwattr $C$DW$90, DW_AT_TI_symbol_name("_HEnd")
    1087                      .dwattr $C$DW$90, DW_AT_type(*$C$DW$T$19)
    1088                      .dwattr $C$DW$90, DW_AT_location[DW_OP_bregx 0x24 1]
    1089              $C$DW$91        .dwtag  DW_TAG_variable, DW_AT_name("cs_flag")
    1090                      .dwattr $C$DW$91, DW_AT_TI_symbol_name("_cs_flag")
    1091                      .dwattr $C$DW$91, DW_AT_type(*$C$DW$T$19)
    1092                      .dwattr $C$DW$91, DW_AT_location[DW_OP_bregx 0x24 2]
    1093 000202 C804          MOV AR0, *SP(#2) ; |166| 
    1094 000204 C502          MOV T1, *SP(#1) ; |166| 
    1095 000206 C400          MOV T0, *SP(#0) ; |166| 
    1096                      .dwpsn  file "../c5535_bsl_revc/ezdsp5535_v1/c55xx_csl/ccs_v4.0_examples/lcd/CSL_LCDC_DiagramExample/
    1097 000208 7600          MOV #117, T0 ; |167| 
         00020a 7548 
    1098 00020c A504          MOV *SP(#2), T1 ; |167| 
    1099              $C$DW$92        .dwtag  DW_TAG_TI_branch
    1100                      .dwattr $C$DW$92, DW_AT_low_pc(0x00)
    1101                      .dwattr $C$DW$92, DW_AT_name("_cmdWrite")
    1102                      .dwattr $C$DW$92, DW_AT_TI_call
    1103 00020e 0800          CALL #_cmdWrite ; |167| 
         000210 77   
    1104                                                      ; call occurs [#_cmdWrite] ; |167| 
    1105                      .dwpsn  file "../c5535_bsl_revc/ezdsp5535_v1/c55xx_csl/ccs_v4.0_examples/lcd/CSL_LCDC_DiagramExample/
    1106 000211 A400          MOV *SP(#0), T0 ; |168| 
    1107 000213 A504          MOV *SP(#2), T1 ; |168| 
    1108              $C$DW$93        .dwtag  DW_TAG_TI_branch
    1109                      .dwattr $C$DW$93, DW_AT_low_pc(0x00)
    1110                      .dwattr $C$DW$93, DW_AT_name("_dataWrite")
    1111                      .dwattr $C$DW$93, DW_AT_TI_call
    1112 000215 0800          CALL #_dataWrite ; |168| 
         000217 88   
    1113                                                      ; call occurs [#_dataWrite] ; |168| 
    1114                      .dwpsn  file "../c5535_bsl_revc/ezdsp5535_v1/c55xx_csl/ccs_v4.0_examples/lcd/CSL_LCDC_DiagramExample/
    1115 000218 A402          MOV *SP(#1), T0 ; |169| 
    1116 00021a A504          MOV *SP(#2), T1 ; |169| 
    1117              $C$DW$94        .dwtag  DW_TAG_TI_branch
    1118                      .dwattr $C$DW$94, DW_AT_low_pc(0x00)
    1119                      .dwattr $C$DW$94, DW_AT_name("_dataWrite")
    1120                      .dwattr $C$DW$94, DW_AT_TI_call
TMS320C55x Assembler PC v4.4.1 Sat Sep 29 23:09:22 2018

Tools Copyright (c) 1996-2012 Texas Instruments Incorporated
lcdc_panel.asm                                                       PAGE   23

    1121 00021c 0800          CALL #_dataWrite ; |169| 
         00021e 81   
    1122                                                      ; call occurs [#_dataWrite] ; |169| 
    1123                      .dwpsn  file "../c5535_bsl_revc/ezdsp5535_v1/c55xx_csl/ccs_v4.0_examples/lcd/CSL_LCDC_DiagramExample/
    1124 00021f 4E03          AADD #3, SP
    1125                      .dwcfi  cfa_offset, 1
    1126              $C$DW$95        .dwtag  DW_TAG_TI_branch
    1127                      .dwattr $C$DW$95, DW_AT_low_pc(0x00)
    1128                      .dwattr $C$DW$95, DW_AT_TI_return
    1129 000221 4804          RET
    1130                                                      ; return occurs
    1131                      .dwattr $C$DW$85, DW_AT_TI_end_file("../c5535_bsl_revc/ezdsp5535_v1/c55xx_csl/ccs_v4.0_examples/lcd/C
    1132                      .dwattr $C$DW$85, DW_AT_TI_end_line(0xaa)
    1133                      .dwattr $C$DW$85, DW_AT_TI_end_column(0x01)
    1134                      .dwendentry
    1135                      .dwendtag $C$DW$85
    1136              
    1137 000223               .sect   ".text"
    1138                      .align 4
    1139                      .global _SetVerticalRAMAddress
    1140              
    1141              $C$DW$96        .dwtag  DW_TAG_subprogram, DW_AT_name("SetVerticalRAMAddress")
    1142                      .dwattr $C$DW$96, DW_AT_low_pc(_SetVerticalRAMAddress)
    1143                      .dwattr $C$DW$96, DW_AT_high_pc(0x00)
    1144                      .dwattr $C$DW$96, DW_AT_TI_symbol_name("_SetVerticalRAMAddress")
    1145                      .dwattr $C$DW$96, DW_AT_external
    1146                      .dwattr $C$DW$96, DW_AT_TI_begin_file("../c5535_bsl_revc/ezdsp5535_v1/c55xx_csl/ccs_v4.0_examples/lcd
    1147                      .dwattr $C$DW$96, DW_AT_TI_begin_line(0xb4)
    1148                      .dwattr $C$DW$96, DW_AT_TI_begin_column(0x06)
    1149                      .dwattr $C$DW$96, DW_AT_TI_max_frame_size(0x04)
    1150                      .dwpsn  file "../c5535_bsl_revc/ezdsp5535_v1/c55xx_csl/ccs_v4.0_examples/lcd/CSL_LCDC_DiagramExample/
    1151              
    1152                      .dwfde $C$DW$CIE, _SetVerticalRAMAddress
    1153              $C$DW$97        .dwtag  DW_TAG_formal_parameter, DW_AT_name("VStart")
    1154                      .dwattr $C$DW$97, DW_AT_TI_symbol_name("_VStart")
    1155                      .dwattr $C$DW$97, DW_AT_type(*$C$DW$T$19)
    1156                      .dwattr $C$DW$97, DW_AT_location[DW_OP_reg12]
    1157              $C$DW$98        .dwtag  DW_TAG_formal_parameter, DW_AT_name("VEnd")
    1158                      .dwattr $C$DW$98, DW_AT_TI_symbol_name("_VEnd")
    1159                      .dwattr $C$DW$98, DW_AT_type(*$C$DW$T$19)
    1160                      .dwattr $C$DW$98, DW_AT_location[DW_OP_reg13]
    1161              $C$DW$99        .dwtag  DW_TAG_formal_parameter, DW_AT_name("cs_flag")
    1162                      .dwattr $C$DW$99, DW_AT_TI_symbol_name("_cs_flag")
    1163                      .dwattr $C$DW$99, DW_AT_type(*$C$DW$T$19)
    1164                      .dwattr $C$DW$99, DW_AT_location[DW_OP_reg16]
    1165              ;*******************************************************************************
    1166              ;* FUNCTION NAME: SetVerticalRAMAddress                                        *
    1167              ;*                                                                             *
    1168              ;*   Function Uses Regs : T0,T1,AR0,SP,M40,SATA,SATD,RDM,FRCT,SMUL             *
    1169              ;*   Stack Frame        : Compact (No Frame Pointer, w/ debug)                 *
    1170              ;*   Total Frame Size   : 4 words                                              *
    1171              ;*                        (1 return address/alignment)                         *
    1172              ;*                        (3 local values)                                     *
    1173              ;*   Min System Stack   : 1 word                                               *
    1174              ;*******************************************************************************
TMS320C55x Assembler PC v4.4.1 Sat Sep 29 23:09:22 2018

Tools Copyright (c) 1996-2012 Texas Instruments Incorporated
lcdc_panel.asm                                                       PAGE   24

    1175 000224       _SetVerticalRAMAddress:
    1176                      .dwcfi  cfa_offset, 1
    1177                      .dwcfi  save_reg_to_mem, 91, -1
    1178 000224 4EFD          AADD #-3, SP
    1179                      .dwcfi  cfa_offset, 4
    1180              $C$DW$100       .dwtag  DW_TAG_variable, DW_AT_name("VStart")
    1181                      .dwattr $C$DW$100, DW_AT_TI_symbol_name("_VStart")
    1182                      .dwattr $C$DW$100, DW_AT_type(*$C$DW$T$19)
    1183                      .dwattr $C$DW$100, DW_AT_location[DW_OP_bregx 0x24 0]
    1184              $C$DW$101       .dwtag  DW_TAG_variable, DW_AT_name("VEnd")
    1185                      .dwattr $C$DW$101, DW_AT_TI_symbol_name("_VEnd")
    1186                      .dwattr $C$DW$101, DW_AT_type(*$C$DW$T$19)
    1187                      .dwattr $C$DW$101, DW_AT_location[DW_OP_bregx 0x24 1]
    1188              $C$DW$102       .dwtag  DW_TAG_variable, DW_AT_name("cs_flag")
    1189                      .dwattr $C$DW$102, DW_AT_TI_symbol_name("_cs_flag")
    1190                      .dwattr $C$DW$102, DW_AT_type(*$C$DW$T$19)
    1191                      .dwattr $C$DW$102, DW_AT_location[DW_OP_bregx 0x24 2]
    1192 000226 C804          MOV AR0, *SP(#2) ; |184| 
    1193 000228 C502          MOV T1, *SP(#1) ; |184| 
    1194 00022a C400          MOV T0, *SP(#0) ; |184| 
    1195                      .dwpsn  file "../c5535_bsl_revc/ezdsp5535_v1/c55xx_csl/ccs_v4.0_examples/lcd/CSL_LCDC_DiagramExample/
    1196 00022c 7600          MOV #21, T0 ; |185| 
         00022e 1548 
    1197 000230 A504          MOV *SP(#2), T1 ; |185| 
    1198              $C$DW$103       .dwtag  DW_TAG_TI_branch
    1199                      .dwattr $C$DW$103, DW_AT_low_pc(0x00)
    1200                      .dwattr $C$DW$103, DW_AT_name("_cmdWrite")
    1201                      .dwattr $C$DW$103, DW_AT_TI_call
    1202 000232 0800          CALL #_cmdWrite ; |185| 
         000234 53   
    1203                                                      ; call occurs [#_cmdWrite] ; |185| 
    1204                      .dwpsn  file "../c5535_bsl_revc/ezdsp5535_v1/c55xx_csl/ccs_v4.0_examples/lcd/CSL_LCDC_DiagramExample/
    1205 000235 A400          MOV *SP(#0), T0 ; |186| 
    1206 000237 A504          MOV *SP(#2), T1 ; |186| 
    1207              $C$DW$104       .dwtag  DW_TAG_TI_branch
    1208                      .dwattr $C$DW$104, DW_AT_low_pc(0x00)
    1209                      .dwattr $C$DW$104, DW_AT_name("_dataWrite")
    1210                      .dwattr $C$DW$104, DW_AT_TI_call
    1211 000239 0800          CALL #_dataWrite ; |186| 
         00023b 64   
    1212                                                      ; call occurs [#_dataWrite] ; |186| 
    1213                      .dwpsn  file "../c5535_bsl_revc/ezdsp5535_v1/c55xx_csl/ccs_v4.0_examples/lcd/CSL_LCDC_DiagramExample/
    1214 00023c A402          MOV *SP(#1), T0 ; |187| 
    1215 00023e A504          MOV *SP(#2), T1 ; |187| 
    1216              $C$DW$105       .dwtag  DW_TAG_TI_branch
    1217                      .dwattr $C$DW$105, DW_AT_low_pc(0x00)
    1218                      .dwattr $C$DW$105, DW_AT_name("_dataWrite")
    1219                      .dwattr $C$DW$105, DW_AT_TI_call
    1220 000240 0800          CALL #_dataWrite ; |187| 
         000242 5D   
    1221                                                      ; call occurs [#_dataWrite] ; |187| 
    1222                      .dwpsn  file "../c5535_bsl_revc/ezdsp5535_v1/c55xx_csl/ccs_v4.0_examples/lcd/CSL_LCDC_DiagramExample/
    1223 000243 4E03          AADD #3, SP
    1224                      .dwcfi  cfa_offset, 1
    1225              $C$DW$106       .dwtag  DW_TAG_TI_branch
TMS320C55x Assembler PC v4.4.1 Sat Sep 29 23:09:22 2018

Tools Copyright (c) 1996-2012 Texas Instruments Incorporated
lcdc_panel.asm                                                       PAGE   25

    1226                      .dwattr $C$DW$106, DW_AT_low_pc(0x00)
    1227                      .dwattr $C$DW$106, DW_AT_TI_return
    1228 000245 4804          RET
    1229                                                      ; return occurs
    1230                      .dwattr $C$DW$96, DW_AT_TI_end_file("../c5535_bsl_revc/ezdsp5535_v1/c55xx_csl/ccs_v4.0_examples/lcd/C
    1231                      .dwattr $C$DW$96, DW_AT_TI_end_line(0xbc)
    1232                      .dwattr $C$DW$96, DW_AT_TI_end_column(0x01)
    1233                      .dwendentry
    1234                      .dwendtag $C$DW$96
    1235              
    1236 000247               .sect   ".text"
    1237                      .align 4
    1238                      .global _SetRAMAddress
    1239              
    1240              $C$DW$107       .dwtag  DW_TAG_subprogram, DW_AT_name("SetRAMAddress")
    1241                      .dwattr $C$DW$107, DW_AT_low_pc(_SetRAMAddress)
    1242                      .dwattr $C$DW$107, DW_AT_high_pc(0x00)
    1243                      .dwattr $C$DW$107, DW_AT_TI_symbol_name("_SetRAMAddress")
    1244                      .dwattr $C$DW$107, DW_AT_external
    1245                      .dwattr $C$DW$107, DW_AT_TI_begin_file("../c5535_bsl_revc/ezdsp5535_v1/c55xx_csl/ccs_v4.0_examples/lc
    1246                      .dwattr $C$DW$107, DW_AT_TI_begin_line(0xc8)
    1247                      .dwattr $C$DW$107, DW_AT_TI_begin_column(0x06)
    1248                      .dwattr $C$DW$107, DW_AT_TI_max_frame_size(0x06)
    1249                      .dwpsn  file "../c5535_bsl_revc/ezdsp5535_v1/c55xx_csl/ccs_v4.0_examples/lcd/CSL_LCDC_DiagramExample/
    1250              
    1251                      .dwfde $C$DW$CIE, _SetRAMAddress
    1252              $C$DW$108       .dwtag  DW_TAG_formal_parameter, DW_AT_name("columnStart")
    1253                      .dwattr $C$DW$108, DW_AT_TI_symbol_name("_columnStart")
    1254                      .dwattr $C$DW$108, DW_AT_type(*$C$DW$T$19)
    1255                      .dwattr $C$DW$108, DW_AT_location[DW_OP_reg12]
    1256              $C$DW$109       .dwtag  DW_TAG_formal_parameter, DW_AT_name("columnEnd")
    1257                      .dwattr $C$DW$109, DW_AT_TI_symbol_name("_columnEnd")
    1258                      .dwattr $C$DW$109, DW_AT_type(*$C$DW$T$19)
    1259                      .dwattr $C$DW$109, DW_AT_location[DW_OP_reg13]
    1260              $C$DW$110       .dwtag  DW_TAG_formal_parameter, DW_AT_name("rowStart")
    1261                      .dwattr $C$DW$110, DW_AT_TI_symbol_name("_rowStart")
    1262                      .dwattr $C$DW$110, DW_AT_type(*$C$DW$T$19)
    1263                      .dwattr $C$DW$110, DW_AT_location[DW_OP_reg16]
    1264              $C$DW$111       .dwtag  DW_TAG_formal_parameter, DW_AT_name("rowEnd")
    1265                      .dwattr $C$DW$111, DW_AT_TI_symbol_name("_rowEnd")
    1266                      .dwattr $C$DW$111, DW_AT_type(*$C$DW$T$19)
    1267                      .dwattr $C$DW$111, DW_AT_location[DW_OP_reg18]
    1268              $C$DW$112       .dwtag  DW_TAG_formal_parameter, DW_AT_name("cs_flag")
    1269                      .dwattr $C$DW$112, DW_AT_TI_symbol_name("_cs_flag")
    1270                      .dwattr $C$DW$112, DW_AT_type(*$C$DW$T$19)
    1271                      .dwattr $C$DW$112, DW_AT_location[DW_OP_reg20]
    1272              ;*******************************************************************************
    1273              ;* FUNCTION NAME: SetRAMAddress                                                *
    1274              ;*                                                                             *
    1275              ;*   Function Uses Regs : T0,T1,AR0,AR1,AR2,SP,M40,SATA,SATD,RDM,FRCT,SMUL     *
    1276              ;*   Stack Frame        : Compact (No Frame Pointer, w/ debug)                 *
    1277              ;*   Total Frame Size   : 6 words                                              *
    1278              ;*                        (1 return address/alignment)                         *
    1279              ;*                        (5 local values)                                     *
    1280              ;*   Min System Stack   : 1 word                                               *
TMS320C55x Assembler PC v4.4.1 Sat Sep 29 23:09:22 2018

Tools Copyright (c) 1996-2012 Texas Instruments Incorporated
lcdc_panel.asm                                                       PAGE   26

    1281              ;*******************************************************************************
    1282 000248       _SetRAMAddress:
    1283                      .dwcfi  cfa_offset, 1
    1284                      .dwcfi  save_reg_to_mem, 91, -1
    1285 000248 4EFB          AADD #-5, SP
    1286                      .dwcfi  cfa_offset, 6
    1287              $C$DW$113       .dwtag  DW_TAG_variable, DW_AT_name("columnStart")
    1288                      .dwattr $C$DW$113, DW_AT_TI_symbol_name("_columnStart")
    1289                      .dwattr $C$DW$113, DW_AT_type(*$C$DW$T$19)
    1290                      .dwattr $C$DW$113, DW_AT_location[DW_OP_bregx 0x24 0]
    1291              $C$DW$114       .dwtag  DW_TAG_variable, DW_AT_name("columnEnd")
    1292                      .dwattr $C$DW$114, DW_AT_TI_symbol_name("_columnEnd")
    1293                      .dwattr $C$DW$114, DW_AT_type(*$C$DW$T$19)
    1294                      .dwattr $C$DW$114, DW_AT_location[DW_OP_bregx 0x24 1]
    1295              $C$DW$115       .dwtag  DW_TAG_variable, DW_AT_name("rowStart")
    1296                      .dwattr $C$DW$115, DW_AT_TI_symbol_name("_rowStart")
    1297                      .dwattr $C$DW$115, DW_AT_type(*$C$DW$T$19)
    1298                      .dwattr $C$DW$115, DW_AT_location[DW_OP_bregx 0x24 2]
    1299              $C$DW$116       .dwtag  DW_TAG_variable, DW_AT_name("rowEnd")
    1300                      .dwattr $C$DW$116, DW_AT_TI_symbol_name("_rowEnd")
    1301                      .dwattr $C$DW$116, DW_AT_type(*$C$DW$T$19)
    1302                      .dwattr $C$DW$116, DW_AT_location[DW_OP_bregx 0x24 3]
    1303              $C$DW$117       .dwtag  DW_TAG_variable, DW_AT_name("cs_flag")
    1304                      .dwattr $C$DW$117, DW_AT_TI_symbol_name("_cs_flag")
    1305                      .dwattr $C$DW$117, DW_AT_type(*$C$DW$T$19)
    1306                      .dwattr $C$DW$117, DW_AT_location[DW_OP_bregx 0x24 4]
    1307 00024a CA08          MOV AR2, *SP(#4) ; |206| 
    1308 00024c C906          MOV AR1, *SP(#3) ; |206| 
    1309 00024e C804          MOV AR0, *SP(#2) ; |206| 
    1310 000250 C502          MOV T1, *SP(#1) ; |206| 
    1311 000252 C400          MOV T0, *SP(#0) ; |206| 
    1312                      .dwpsn  file "../c5535_bsl_revc/ezdsp5535_v1/c55xx_csl/ccs_v4.0_examples/lcd/CSL_LCDC_DiagramExample/
    1313 000254 7600          MOV #21, T0 ; |207| 
         000256 1548 
    1314 000258 A508          MOV *SP(#4), T1 ; |207| 
    1315              $C$DW$118       .dwtag  DW_TAG_TI_branch
    1316                      .dwattr $C$DW$118, DW_AT_low_pc(0x00)
    1317                      .dwattr $C$DW$118, DW_AT_name("_cmdWrite")
    1318                      .dwattr $C$DW$118, DW_AT_TI_call
    1319 00025a 0800          CALL #_cmdWrite ; |207| 
         00025c 2B   
    1320                                                      ; call occurs [#_cmdWrite] ; |207| 
    1321                      .dwpsn  file "../c5535_bsl_revc/ezdsp5535_v1/c55xx_csl/ccs_v4.0_examples/lcd/CSL_LCDC_DiagramExample/
    1322 00025d A400          MOV *SP(#0), T0 ; |208| 
    1323 00025f A508          MOV *SP(#4), T1 ; |208| 
    1324              $C$DW$119       .dwtag  DW_TAG_TI_branch
    1325                      .dwattr $C$DW$119, DW_AT_low_pc(0x00)
    1326                      .dwattr $C$DW$119, DW_AT_name("_dataWrite")
    1327                      .dwattr $C$DW$119, DW_AT_TI_call
    1328 000261 0800          CALL #_dataWrite ; |208| 
         000263 3C   
    1329                                                      ; call occurs [#_dataWrite] ; |208| 
    1330                      .dwpsn  file "../c5535_bsl_revc/ezdsp5535_v1/c55xx_csl/ccs_v4.0_examples/lcd/CSL_LCDC_DiagramExample/
    1331 000264 A402          MOV *SP(#1), T0 ; |209| 
    1332 000266 A508          MOV *SP(#4), T1 ; |209| 
TMS320C55x Assembler PC v4.4.1 Sat Sep 29 23:09:22 2018

Tools Copyright (c) 1996-2012 Texas Instruments Incorporated
lcdc_panel.asm                                                       PAGE   27

    1333              $C$DW$120       .dwtag  DW_TAG_TI_branch
    1334                      .dwattr $C$DW$120, DW_AT_low_pc(0x00)
    1335                      .dwattr $C$DW$120, DW_AT_name("_dataWrite")
    1336                      .dwattr $C$DW$120, DW_AT_TI_call
    1337 000268 0800          CALL #_dataWrite ; |209| 
         00026a 35   
    1338                                                      ; call occurs [#_dataWrite] ; |209| 
    1339                      .dwpsn  file "../c5535_bsl_revc/ezdsp5535_v1/c55xx_csl/ccs_v4.0_examples/lcd/CSL_LCDC_DiagramExample/
    1340 00026b 7600          MOV #117, T0 ; |210| 
         00026d 7548 
    1341 00026f A508          MOV *SP(#4), T1 ; |210| 
    1342              $C$DW$121       .dwtag  DW_TAG_TI_branch
    1343                      .dwattr $C$DW$121, DW_AT_low_pc(0x00)
    1344                      .dwattr $C$DW$121, DW_AT_name("_cmdWrite")
    1345                      .dwattr $C$DW$121, DW_AT_TI_call
    1346 000271 0800          CALL #_cmdWrite ; |210| 
         000273 14   
    1347                                                      ; call occurs [#_cmdWrite] ; |210| 
    1348                      .dwpsn  file "../c5535_bsl_revc/ezdsp5535_v1/c55xx_csl/ccs_v4.0_examples/lcd/CSL_LCDC_DiagramExample/
    1349 000274 A404          MOV *SP(#2), T0 ; |211| 
    1350 000276 A508          MOV *SP(#4), T1 ; |211| 
    1351              $C$DW$122       .dwtag  DW_TAG_TI_branch
    1352                      .dwattr $C$DW$122, DW_AT_low_pc(0x00)
    1353                      .dwattr $C$DW$122, DW_AT_name("_dataWrite")
    1354                      .dwattr $C$DW$122, DW_AT_TI_call
    1355 000278 0800          CALL #_dataWrite ; |211| 
         00027a 25   
    1356                                                      ; call occurs [#_dataWrite] ; |211| 
    1357                      .dwpsn  file "../c5535_bsl_revc/ezdsp5535_v1/c55xx_csl/ccs_v4.0_examples/lcd/CSL_LCDC_DiagramExample/
    1358 00027b A406          MOV *SP(#3), T0 ; |212| 
    1359 00027d A508          MOV *SP(#4), T1 ; |212| 
    1360              $C$DW$123       .dwtag  DW_TAG_TI_branch
    1361                      .dwattr $C$DW$123, DW_AT_low_pc(0x00)
    1362                      .dwattr $C$DW$123, DW_AT_name("_dataWrite")
    1363                      .dwattr $C$DW$123, DW_AT_TI_call
    1364 00027f 0800          CALL #_dataWrite ; |212| 
         000281 1E   
    1365                                                      ; call occurs [#_dataWrite] ; |212| 
    1366                      .dwpsn  file "../c5535_bsl_revc/ezdsp5535_v1/c55xx_csl/ccs_v4.0_examples/lcd/CSL_LCDC_DiagramExample/
    1367 000282 4E05          AADD #5, SP
    1368                      .dwcfi  cfa_offset, 1
    1369              $C$DW$124       .dwtag  DW_TAG_TI_branch
    1370                      .dwattr $C$DW$124, DW_AT_low_pc(0x00)
    1371                      .dwattr $C$DW$124, DW_AT_TI_return
    1372 000284 4804          RET
    1373                                                      ; return occurs
    1374                      .dwattr $C$DW$107, DW_AT_TI_end_file("../c5535_bsl_revc/ezdsp5535_v1/c55xx_csl/ccs_v4.0_examples/lcd/
    1375                      .dwattr $C$DW$107, DW_AT_TI_end_line(0xd5)
    1376                      .dwattr $C$DW$107, DW_AT_TI_end_column(0x01)
    1377                      .dwendentry
    1378                      .dwendtag $C$DW$107
    1379              
    1380 000286               .sect   ".text"
    1381                      .align 4
    1382                      .global _cmdWrite
TMS320C55x Assembler PC v4.4.1 Sat Sep 29 23:09:22 2018

Tools Copyright (c) 1996-2012 Texas Instruments Incorporated
lcdc_panel.asm                                                       PAGE   28

    1383              
    1384              $C$DW$125       .dwtag  DW_TAG_subprogram, DW_AT_name("cmdWrite")
    1385                      .dwattr $C$DW$125, DW_AT_low_pc(_cmdWrite)
    1386                      .dwattr $C$DW$125, DW_AT_high_pc(0x00)
    1387                      .dwattr $C$DW$125, DW_AT_TI_symbol_name("_cmdWrite")
    1388                      .dwattr $C$DW$125, DW_AT_external
    1389                      .dwattr $C$DW$125, DW_AT_TI_begin_file("../c5535_bsl_revc/ezdsp5535_v1/c55xx_csl/ccs_v4.0_examples/lc
    1390                      .dwattr $C$DW$125, DW_AT_TI_begin_line(0xde)
    1391                      .dwattr $C$DW$125, DW_AT_TI_begin_column(0x06)
    1392                      .dwattr $C$DW$125, DW_AT_TI_max_frame_size(0x04)
    1393                      .dwpsn  file "../c5535_bsl_revc/ezdsp5535_v1/c55xx_csl/ccs_v4.0_examples/lcd/CSL_LCDC_DiagramExample/
    1394              
    1395                      .dwfde $C$DW$CIE, _cmdWrite
    1396              $C$DW$126       .dwtag  DW_TAG_formal_parameter, DW_AT_name("cmd")
    1397                      .dwattr $C$DW$126, DW_AT_TI_symbol_name("_cmd")
    1398                      .dwattr $C$DW$126, DW_AT_type(*$C$DW$T$19)
    1399                      .dwattr $C$DW$126, DW_AT_location[DW_OP_reg12]
    1400              $C$DW$127       .dwtag  DW_TAG_formal_parameter, DW_AT_name("cs_flag")
    1401                      .dwattr $C$DW$127, DW_AT_TI_symbol_name("_cs_flag")
    1402                      .dwattr $C$DW$127, DW_AT_type(*$C$DW$T$19)
    1403                      .dwattr $C$DW$127, DW_AT_location[DW_OP_reg13]
    1404              ;*******************************************************************************
    1405              ;* FUNCTION NAME: cmdWrite                                                     *
    1406              ;*                                                                             *
    1407              ;*   Function Uses Regs : AC0,AC0,T0,T1,AR0,XAR0,SP,M40,SATA,SATD,RDM,FRCT,    *
    1408              ;*                        SMUL                                                 *
    1409              ;*   Stack Frame        : Compact (No Frame Pointer, w/ debug)                 *
    1410              ;*   Total Frame Size   : 4 words                                              *
    1411              ;*                        (2 return address/alignment)                         *
    1412              ;*                        (2 local values)                                     *
    1413              ;*   Min System Stack   : 1 word                                               *
    1414              ;*******************************************************************************
    1415 000288       _cmdWrite:
    1416                      .dwcfi  cfa_offset, 1
    1417                      .dwcfi  save_reg_to_mem, 91, -1
    1418 000288 4EFD          AADD #-3, SP
    1419                      .dwcfi  cfa_offset, 4
    1420              $C$DW$128       .dwtag  DW_TAG_variable, DW_AT_name("cmd")
    1421                      .dwattr $C$DW$128, DW_AT_TI_symbol_name("_cmd")
    1422                      .dwattr $C$DW$128, DW_AT_type(*$C$DW$T$19)
    1423                      .dwattr $C$DW$128, DW_AT_location[DW_OP_bregx 0x24 0]
    1424              $C$DW$129       .dwtag  DW_TAG_variable, DW_AT_name("cs_flag")
    1425                      .dwattr $C$DW$129, DW_AT_TI_symbol_name("_cs_flag")
    1426                      .dwattr $C$DW$129, DW_AT_type(*$C$DW$T$19)
    1427                      .dwattr $C$DW$129, DW_AT_location[DW_OP_bregx 0x24 1]
    1428 00028a C502          MOV T1, *SP(#1) ; |225| 
    1429 00028c C400          MOV T0, *SP(#0) ; |225| 
    1430                      .dwpsn  file "../c5535_bsl_revc/ezdsp5535_v1/c55xx_csl/ccs_v4.0_examples/lcd/CSL_LCDC_DiagramExample/
    1431 00028e ED31          MOV dbl(*(#_hLcdc)), XAR0
         000290 8F00 
         000292 0000!
    1432 000294 DF00          MOV uns(*SP(#0)), AC0 ; |226| 
         000296 05   
    1433 000297 A402          MOV *SP(#1), T0 ; |226| 
    1434              $C$DW$130       .dwtag  DW_TAG_TI_branch
TMS320C55x Assembler PC v4.4.1 Sat Sep 29 23:09:22 2018

Tools Copyright (c) 1996-2012 Texas Instruments Incorporated
lcdc_panel.asm                                                       PAGE   29

    1435                      .dwattr $C$DW$130, DW_AT_low_pc(0x00)
    1436                      .dwattr $C$DW$130, DW_AT_name("_CSL_lcdcLiddWriteCsAddr")
    1437                      .dwattr $C$DW$130, DW_AT_TI_call
    1438 000299 08FD          CALL #_CSL_lcdcLiddWriteCsAddr ; |226| 
         00029b 64   
    1439                                                      ; call occurs [#_CSL_lcdcLiddWriteCsAddr] ; |226| 
    1440                      .dwpsn  file "../c5535_bsl_revc/ezdsp5535_v1/c55xx_csl/ccs_v4.0_examples/lcd/CSL_LCDC_DiagramExample/
    1441 00029c 4E03          AADD #3, SP
    1442                      .dwcfi  cfa_offset, 1
    1443              $C$DW$131       .dwtag  DW_TAG_TI_branch
    1444                      .dwattr $C$DW$131, DW_AT_low_pc(0x00)
    1445                      .dwattr $C$DW$131, DW_AT_TI_return
    1446 00029e 4804          RET
    1447                                                      ; return occurs
    1448                      .dwattr $C$DW$125, DW_AT_TI_end_file("../c5535_bsl_revc/ezdsp5535_v1/c55xx_csl/ccs_v4.0_examples/lcd/
    1449                      .dwattr $C$DW$125, DW_AT_TI_end_line(0xe3)
    1450                      .dwattr $C$DW$125, DW_AT_TI_end_column(0x01)
    1451                      .dwendentry
    1452                      .dwendtag $C$DW$125
    1453              
    1454 0002a0               .sect   ".text"
    1455                      .align 4
    1456                      .global _dataWrite
    1457              
    1458              $C$DW$132       .dwtag  DW_TAG_subprogram, DW_AT_name("dataWrite")
    1459                      .dwattr $C$DW$132, DW_AT_low_pc(_dataWrite)
    1460                      .dwattr $C$DW$132, DW_AT_high_pc(0x00)
    1461                      .dwattr $C$DW$132, DW_AT_TI_symbol_name("_dataWrite")
    1462                      .dwattr $C$DW$132, DW_AT_external
    1463                      .dwattr $C$DW$132, DW_AT_TI_begin_file("../c5535_bsl_revc/ezdsp5535_v1/c55xx_csl/ccs_v4.0_examples/lc
    1464                      .dwattr $C$DW$132, DW_AT_TI_begin_line(0xf4)
    1465                      .dwattr $C$DW$132, DW_AT_TI_begin_column(0x06)
    1466                      .dwattr $C$DW$132, DW_AT_TI_max_frame_size(0x04)
    1467                      .dwpsn  file "../c5535_bsl_revc/ezdsp5535_v1/c55xx_csl/ccs_v4.0_examples/lcd/CSL_LCDC_DiagramExample/
    1468              
    1469                      .dwfde $C$DW$CIE, _dataWrite
    1470              $C$DW$133       .dwtag  DW_TAG_formal_parameter, DW_AT_name("data")
    1471                      .dwattr $C$DW$133, DW_AT_TI_symbol_name("_data")
    1472                      .dwattr $C$DW$133, DW_AT_type(*$C$DW$T$19)
    1473                      .dwattr $C$DW$133, DW_AT_location[DW_OP_reg12]
    1474              $C$DW$134       .dwtag  DW_TAG_formal_parameter, DW_AT_name("cs_flag")
    1475                      .dwattr $C$DW$134, DW_AT_TI_symbol_name("_cs_flag")
    1476                      .dwattr $C$DW$134, DW_AT_type(*$C$DW$T$19)
    1477                      .dwattr $C$DW$134, DW_AT_location[DW_OP_reg13]
    1478              ;*******************************************************************************
    1479              ;* FUNCTION NAME: dataWrite                                                    *
    1480              ;*                                                                             *
    1481              ;*   Function Uses Regs : T0,T1,AR1,SP,M40,SATA,SATD,RDM,FRCT,SMUL             *
    1482              ;*   Stack Frame        : Compact (No Frame Pointer, w/ debug)                 *
    1483              ;*   Total Frame Size   : 4 words                                              *
    1484              ;*                        (2 return address/alignment)                         *
    1485              ;*                        (2 local values)                                     *
    1486              ;*   Min System Stack   : 1 word                                               *
    1487              ;*******************************************************************************
    1488 0002a0       _dataWrite:
TMS320C55x Assembler PC v4.4.1 Sat Sep 29 23:09:22 2018

Tools Copyright (c) 1996-2012 Texas Instruments Incorporated
lcdc_panel.asm                                                       PAGE   30

    1489                      .dwcfi  cfa_offset, 1
    1490                      .dwcfi  save_reg_to_mem, 91, -1
    1491 0002a0 4EFD          AADD #-3, SP
    1492                      .dwcfi  cfa_offset, 4
    1493              $C$DW$135       .dwtag  DW_TAG_variable, DW_AT_name("data")
    1494                      .dwattr $C$DW$135, DW_AT_TI_symbol_name("_data")
    1495                      .dwattr $C$DW$135, DW_AT_type(*$C$DW$T$19)
    1496                      .dwattr $C$DW$135, DW_AT_location[DW_OP_bregx 0x24 0]
    1497              $C$DW$136       .dwtag  DW_TAG_variable, DW_AT_name("cs_flag")
    1498                      .dwattr $C$DW$136, DW_AT_TI_symbol_name("_cs_flag")
    1499                      .dwattr $C$DW$136, DW_AT_type(*$C$DW$T$19)
    1500                      .dwattr $C$DW$136, DW_AT_location[DW_OP_bregx 0x24 1]
    1501 0002a2 C502          MOV T1, *SP(#1) ; |247| 
    1502 0002a4 C400          MOV T0, *SP(#0) ; |247| 
    1503                      .dwpsn  file "../c5535_bsl_revc/ezdsp5535_v1/c55xx_csl/ccs_v4.0_examples/lcd/CSL_LCDC_DiagramExample/
    1504 0002a6 A902          MOV *SP(#1), AR1 ; |248| 
    1505 0002a8 6419          BCC $C$L14,AR1 != #0 ; |248| 
    1506                                                      ; branchcc occurs ; |248| 
    1507                      .dwpsn  file "../c5535_bsl_revc/ezdsp5535_v1/c55xx_csl/ccs_v4.0_examples/lcd/CSL_LCDC_DiagramExample/
    1508 0002aa 2249          MOV T0, AR1
    1509 0002ac C951          MOV AR1, *port(#11800) ; |249| 
         0002ae 2E18 
    1510                      .dwpsn  file "../c5535_bsl_revc/ezdsp5535_v1/c55xx_csl/ccs_v4.0_examples/lcd/CSL_LCDC_DiagramExample/
    1511 0002b0 4A06          B $C$L15  ; |250| 
    1512                                                      ; branch occurs ; |250| 
    1513 0002b2       $C$L14:    
    1514                      .dwpsn  file "../c5535_bsl_revc/ezdsp5535_v1/c55xx_csl/ccs_v4.0_examples/lcd/CSL_LCDC_DiagramExample/
    1515 0002b2 2249          MOV T0, AR1
    1516 0002b4 C951          MOV AR1, *port(#11812) ; |252| 
         0002b6 2E24 
    1517                      .dwpsn  file "../c5535_bsl_revc/ezdsp5535_v1/c55xx_csl/ccs_v4.0_examples/lcd/CSL_LCDC_DiagramExample/
    1518 0002b8       $C$L15:    
    1519 0002b8 4E03          AADD #3, SP
    1520                      .dwcfi  cfa_offset, 1
    1521              $C$DW$137       .dwtag  DW_TAG_TI_branch
    1522                      .dwattr $C$DW$137, DW_AT_low_pc(0x00)
    1523                      .dwattr $C$DW$137, DW_AT_TI_return
    1524 0002ba 4804          RET
    1525                                                      ; return occurs
    1526                      .dwattr $C$DW$132, DW_AT_TI_end_file("../c5535_bsl_revc/ezdsp5535_v1/c55xx_csl/ccs_v4.0_examples/lcd/
    1527                      .dwattr $C$DW$132, DW_AT_TI_end_line(0xfe)
    1528                      .dwattr $C$DW$132, DW_AT_TI_end_column(0x01)
    1529                      .dwendentry
    1530                      .dwendtag $C$DW$132
    1531              
    1532 0002bc               .sect   ".text"
    1533                      .align 4
    1534                      .global _WriteCmd
    1535              
    1536              $C$DW$138       .dwtag  DW_TAG_subprogram, DW_AT_name("WriteCmd")
    1537                      .dwattr $C$DW$138, DW_AT_low_pc(_WriteCmd)
    1538                      .dwattr $C$DW$138, DW_AT_high_pc(0x00)
    1539                      .dwattr $C$DW$138, DW_AT_TI_symbol_name("_WriteCmd")
    1540                      .dwattr $C$DW$138, DW_AT_external
    1541                      .dwattr $C$DW$138, DW_AT_TI_begin_file("../c5535_bsl_revc/ezdsp5535_v1/c55xx_csl/ccs_v4.0_examples/lc
TMS320C55x Assembler PC v4.4.1 Sat Sep 29 23:09:22 2018

Tools Copyright (c) 1996-2012 Texas Instruments Incorporated
lcdc_panel.asm                                                       PAGE   31

    1542                      .dwattr $C$DW$138, DW_AT_TI_begin_line(0x108)
    1543                      .dwattr $C$DW$138, DW_AT_TI_begin_column(0x06)
    1544                      .dwattr $C$DW$138, DW_AT_TI_max_frame_size(0x04)
    1545                      .dwpsn  file "../c5535_bsl_revc/ezdsp5535_v1/c55xx_csl/ccs_v4.0_examples/lcd/CSL_LCDC_DiagramExample/
    1546              
    1547                      .dwfde $C$DW$CIE, _WriteCmd
    1548              $C$DW$139       .dwtag  DW_TAG_formal_parameter, DW_AT_name("cmd")
    1549                      .dwattr $C$DW$139, DW_AT_TI_symbol_name("_cmd")
    1550                      .dwattr $C$DW$139, DW_AT_type(*$C$DW$T$19)
    1551                      .dwattr $C$DW$139, DW_AT_location[DW_OP_reg12]
    1552              $C$DW$140       .dwtag  DW_TAG_formal_parameter, DW_AT_name("data")
    1553                      .dwattr $C$DW$140, DW_AT_TI_symbol_name("_data")
    1554                      .dwattr $C$DW$140, DW_AT_type(*$C$DW$T$19)
    1555                      .dwattr $C$DW$140, DW_AT_location[DW_OP_reg13]
    1556              $C$DW$141       .dwtag  DW_TAG_formal_parameter, DW_AT_name("cs_flag")
    1557                      .dwattr $C$DW$141, DW_AT_TI_symbol_name("_cs_flag")
    1558                      .dwattr $C$DW$141, DW_AT_type(*$C$DW$T$19)
    1559                      .dwattr $C$DW$141, DW_AT_location[DW_OP_reg16]
    1560              ;*******************************************************************************
    1561              ;* FUNCTION NAME: WriteCmd                                                     *
    1562              ;*                                                                             *
    1563              ;*   Function Uses Regs : AC0,AC0,T0,T1,AR0,XAR0,SP,M40,SATA,SATD,RDM,FRCT,    *
    1564              ;*                        SMUL                                                 *
    1565              ;*   Stack Frame        : Compact (No Frame Pointer, w/ debug)                 *
    1566              ;*   Total Frame Size   : 4 words                                              *
    1567              ;*                        (1 return address/alignment)                         *
    1568              ;*                        (3 local values)                                     *
    1569              ;*   Min System Stack   : 1 word                                               *
    1570              ;*******************************************************************************
    1571 0002bc       _WriteCmd:
    1572                      .dwcfi  cfa_offset, 1
    1573                      .dwcfi  save_reg_to_mem, 91, -1
    1574 0002bc 4EFD          AADD #-3, SP
    1575                      .dwcfi  cfa_offset, 4
    1576              $C$DW$142       .dwtag  DW_TAG_variable, DW_AT_name("cmd")
    1577                      .dwattr $C$DW$142, DW_AT_TI_symbol_name("_cmd")
    1578                      .dwattr $C$DW$142, DW_AT_type(*$C$DW$T$19)
    1579                      .dwattr $C$DW$142, DW_AT_location[DW_OP_bregx 0x24 0]
    1580              $C$DW$143       .dwtag  DW_TAG_variable, DW_AT_name("data")
    1581                      .dwattr $C$DW$143, DW_AT_TI_symbol_name("_data")
    1582                      .dwattr $C$DW$143, DW_AT_type(*$C$DW$T$19)
    1583                      .dwattr $C$DW$143, DW_AT_location[DW_OP_bregx 0x24 1]
    1584              $C$DW$144       .dwtag  DW_TAG_variable, DW_AT_name("cs_flag")
    1585                      .dwattr $C$DW$144, DW_AT_TI_symbol_name("_cs_flag")
    1586                      .dwattr $C$DW$144, DW_AT_type(*$C$DW$T$19)
    1587                      .dwattr $C$DW$144, DW_AT_location[DW_OP_bregx 0x24 2]
    1588 0002be C804          MOV AR0, *SP(#2) ; |268| 
    1589 0002c0 C502          MOV T1, *SP(#1) ; |268| 
    1590 0002c2 C400          MOV T0, *SP(#0) ; |268| 
    1591                      .dwpsn  file "../c5535_bsl_revc/ezdsp5535_v1/c55xx_csl/ccs_v4.0_examples/lcd/CSL_LCDC_DiagramExample/
    1592 0002c4 ED31          MOV dbl(*(#_hLcdc)), XAR0
         0002c6 8F00 
         0002c8 0000!
    1593 0002ca DF00          MOV uns(*SP(#0)), AC0 ; |269| 
         0002cc 05   
TMS320C55x Assembler PC v4.4.1 Sat Sep 29 23:09:22 2018

Tools Copyright (c) 1996-2012 Texas Instruments Incorporated
lcdc_panel.asm                                                       PAGE   32

    1594 0002cd A404          MOV *SP(#2), T0 ; |269| 
    1595              $C$DW$145       .dwtag  DW_TAG_TI_branch
    1596                      .dwattr $C$DW$145, DW_AT_low_pc(0x00)
    1597                      .dwattr $C$DW$145, DW_AT_name("_CSL_lcdcLiddWriteCsAddr")
    1598                      .dwattr $C$DW$145, DW_AT_TI_call
    1599 0002cf 08FD          CALL #_CSL_lcdcLiddWriteCsAddr ; |269| 
         0002d1 2E   
    1600                                                      ; call occurs [#_CSL_lcdcLiddWriteCsAddr] ; |269| 
    1601                      .dwpsn  file "../c5535_bsl_revc/ezdsp5535_v1/c55xx_csl/ccs_v4.0_examples/lcd/CSL_LCDC_DiagramExample/
    1602 0002d2 A502          MOV *SP(#1), T1 ; |270| 
    1603 0002d4 A404          MOV *SP(#2), T0 ; |270| 
    1604 0002d6 ED31          MOV dbl(*(#_hLcdc)), XAR0
         0002d8 8F00 
         0002da 0000!
    1605              $C$DW$146       .dwtag  DW_TAG_TI_branch
    1606                      .dwattr $C$DW$146, DW_AT_low_pc(0x00)
    1607                      .dwattr $C$DW$146, DW_AT_name("_CSL_lcdcLiddWriteCsData")
    1608                      .dwattr $C$DW$146, DW_AT_TI_call
    1609 0002dc 08FD          CALL #_CSL_lcdcLiddWriteCsData ; |270| 
         0002de 7D   
    1610                                                      ; call occurs [#_CSL_lcdcLiddWriteCsData] ; |270| 
    1611                      .dwpsn  file "../c5535_bsl_revc/ezdsp5535_v1/c55xx_csl/ccs_v4.0_examples/lcd/CSL_LCDC_DiagramExample/
    1612 0002df 4E03          AADD #3, SP
    1613                      .dwcfi  cfa_offset, 1
    1614              $C$DW$147       .dwtag  DW_TAG_TI_branch
    1615                      .dwattr $C$DW$147, DW_AT_low_pc(0x00)
    1616                      .dwattr $C$DW$147, DW_AT_TI_return
    1617 0002e1 4804          RET
    1618                                                      ; return occurs
    1619                      .dwattr $C$DW$138, DW_AT_TI_end_file("../c5535_bsl_revc/ezdsp5535_v1/c55xx_csl/ccs_v4.0_examples/lcd/
    1620                      .dwattr $C$DW$138, DW_AT_TI_end_line(0x10f)
    1621                      .dwattr $C$DW$138, DW_AT_TI_end_column(0x01)
    1622                      .dwendentry
    1623                      .dwendtag $C$DW$138
    1624              
    1625 0002e3               .sect   ".text"
    1626                      .align 4
    1627                      .global _WriteData
    1628              
    1629              $C$DW$148       .dwtag  DW_TAG_subprogram, DW_AT_name("WriteData")
    1630                      .dwattr $C$DW$148, DW_AT_low_pc(_WriteData)
    1631                      .dwattr $C$DW$148, DW_AT_high_pc(0x00)
    1632                      .dwattr $C$DW$148, DW_AT_TI_symbol_name("_WriteData")
    1633                      .dwattr $C$DW$148, DW_AT_external
    1634                      .dwattr $C$DW$148, DW_AT_TI_begin_file("../c5535_bsl_revc/ezdsp5535_v1/c55xx_csl/ccs_v4.0_examples/lc
    1635                      .dwattr $C$DW$148, DW_AT_TI_begin_line(0x119)
    1636                      .dwattr $C$DW$148, DW_AT_TI_begin_column(0x06)
    1637                      .dwattr $C$DW$148, DW_AT_TI_max_frame_size(0x06)
    1638                      .dwpsn  file "../c5535_bsl_revc/ezdsp5535_v1/c55xx_csl/ccs_v4.0_examples/lcd/CSL_LCDC_DiagramExample/
    1639              
    1640                      .dwfde $C$DW$CIE, _WriteData
    1641              $C$DW$149       .dwtag  DW_TAG_formal_parameter, DW_AT_name("uByte")
    1642                      .dwattr $C$DW$149, DW_AT_TI_symbol_name("_uByte")
    1643                      .dwattr $C$DW$149, DW_AT_type(*$C$DW$T$19)
    1644                      .dwattr $C$DW$149, DW_AT_location[DW_OP_reg12]
TMS320C55x Assembler PC v4.4.1 Sat Sep 29 23:09:22 2018

Tools Copyright (c) 1996-2012 Texas Instruments Incorporated
lcdc_panel.asm                                                       PAGE   33

    1645              $C$DW$150       .dwtag  DW_TAG_formal_parameter, DW_AT_name("lByte")
    1646                      .dwattr $C$DW$150, DW_AT_TI_symbol_name("_lByte")
    1647                      .dwattr $C$DW$150, DW_AT_type(*$C$DW$T$19)
    1648                      .dwattr $C$DW$150, DW_AT_location[DW_OP_reg13]
    1649              $C$DW$151       .dwtag  DW_TAG_formal_parameter, DW_AT_name("cs_flag")
    1650                      .dwattr $C$DW$151, DW_AT_TI_symbol_name("_cs_flag")
    1651                      .dwattr $C$DW$151, DW_AT_type(*$C$DW$T$19)
    1652                      .dwattr $C$DW$151, DW_AT_location[DW_OP_reg16]
    1653              ;*******************************************************************************
    1654              ;* FUNCTION NAME: WriteData                                                    *
    1655              ;*                                                                             *
    1656              ;*   Function Uses Regs : AC0,AC1,T0,T1,AR0,XAR0,SP,M40,SATA,SATD,RDM,FRCT,    *
    1657              ;*                        SMUL                                                 *
    1658              ;*   Stack Frame        : Compact (No Frame Pointer, w/ debug)                 *
    1659              ;*   Total Frame Size   : 6 words                                              *
    1660              ;*                        (2 return address/alignment)                         *
    1661              ;*                        (4 local values)                                     *
    1662              ;*   Min System Stack   : 1 word                                               *
    1663              ;*******************************************************************************
    1664 0002e4       _WriteData:
    1665                      .dwcfi  cfa_offset, 1
    1666                      .dwcfi  save_reg_to_mem, 91, -1
    1667 0002e4 4EFB          AADD #-5, SP
    1668                      .dwcfi  cfa_offset, 6
    1669              $C$DW$152       .dwtag  DW_TAG_variable, DW_AT_name("uByte")
    1670                      .dwattr $C$DW$152, DW_AT_TI_symbol_name("_uByte")
    1671                      .dwattr $C$DW$152, DW_AT_type(*$C$DW$T$19)
    1672                      .dwattr $C$DW$152, DW_AT_location[DW_OP_bregx 0x24 0]
    1673              $C$DW$153       .dwtag  DW_TAG_variable, DW_AT_name("lByte")
    1674                      .dwattr $C$DW$153, DW_AT_TI_symbol_name("_lByte")
    1675                      .dwattr $C$DW$153, DW_AT_type(*$C$DW$T$19)
    1676                      .dwattr $C$DW$153, DW_AT_location[DW_OP_bregx 0x24 1]
    1677              $C$DW$154       .dwtag  DW_TAG_variable, DW_AT_name("cs_flag")
    1678                      .dwattr $C$DW$154, DW_AT_TI_symbol_name("_cs_flag")
    1679                      .dwattr $C$DW$154, DW_AT_type(*$C$DW$T$19)
    1680                      .dwattr $C$DW$154, DW_AT_location[DW_OP_bregx 0x24 2]
    1681              $C$DW$155       .dwtag  DW_TAG_variable, DW_AT_name("DATA16")
    1682                      .dwattr $C$DW$155, DW_AT_TI_symbol_name("_DATA16")
    1683                      .dwattr $C$DW$155, DW_AT_type(*$C$DW$T$19)
    1684                      .dwattr $C$DW$155, DW_AT_location[DW_OP_bregx 0x24 3]
    1685 0002e6 C804          MOV AR0, *SP(#2) ; |285| 
    1686 0002e8 C502          MOV T1, *SP(#1) ; |285| 
    1687 0002ea C400          MOV T0, *SP(#0) ; |285| 
    1688                      .dwpsn  file "../c5535_bsl_revc/ezdsp5535_v1/c55xx_csl/ccs_v4.0_examples/lcd/CSL_LCDC_DiagramExample/
    1689              
    1690 0002ec A002          MOV *SP(#1), AC0 ; |287| 
    1691 0002ee 2341  ||      MOV T0, AC1
    1692              
    1693 0002f0 1011          OR AC1 << #8, AC0 ; |287| 
         0002f2 08   
    1694 0002f3 C006          MOV AC0, *SP(#3) ; |287| 
    1695                      .dwpsn  file "../c5535_bsl_revc/ezdsp5535_v1/c55xx_csl/ccs_v4.0_examples/lcd/CSL_LCDC_DiagramExample/
    1696 0002f5 ED31          MOV dbl(*(#_hLcdc)), XAR0
         0002f7 8F00 
         0002f9 0000!
TMS320C55x Assembler PC v4.4.1 Sat Sep 29 23:09:22 2018

Tools Copyright (c) 1996-2012 Texas Instruments Incorporated
lcdc_panel.asm                                                       PAGE   34

    1697              
    1698 0002fb A404          MOV *SP(#2), T0 ; |288| 
    1699 0002fd 2305  ||      MOV AC0, T1
    1700              
    1701              $C$DW$156       .dwtag  DW_TAG_TI_branch
    1702                      .dwattr $C$DW$156, DW_AT_low_pc(0x00)
    1703                      .dwattr $C$DW$156, DW_AT_name("_CSL_lcdcLiddWriteCsData")
    1704                      .dwattr $C$DW$156, DW_AT_TI_call
    1705 0002ff 08FD          CALL #_CSL_lcdcLiddWriteCsData ; |288| 
         000301 5A   
    1706                                                      ; call occurs [#_CSL_lcdcLiddWriteCsData] ; |288| 
    1707                      .dwpsn  file "../c5535_bsl_revc/ezdsp5535_v1/c55xx_csl/ccs_v4.0_examples/lcd/CSL_LCDC_DiagramExample/
    1708 000302 4E05          AADD #5, SP
    1709                      .dwcfi  cfa_offset, 1
    1710              $C$DW$157       .dwtag  DW_TAG_TI_branch
    1711                      .dwattr $C$DW$157, DW_AT_low_pc(0x00)
    1712                      .dwattr $C$DW$157, DW_AT_TI_return
    1713 000304 4804          RET
    1714                                                      ; return occurs
    1715                      .dwattr $C$DW$148, DW_AT_TI_end_file("../c5535_bsl_revc/ezdsp5535_v1/c55xx_csl/ccs_v4.0_examples/lcd/
    1716                      .dwattr $C$DW$148, DW_AT_TI_end_line(0x121)
    1717                      .dwattr $C$DW$148, DW_AT_TI_end_column(0x02)
    1718                      .dwendentry
    1719                      .dwendtag $C$DW$148
    1720              
    1721 000306               .sect   ".text"
    1722                      .align 4
    1723                      .global _ReadData
    1724              
    1725              $C$DW$158       .dwtag  DW_TAG_subprogram, DW_AT_name("ReadData")
    1726                      .dwattr $C$DW$158, DW_AT_low_pc(_ReadData)
    1727                      .dwattr $C$DW$158, DW_AT_high_pc(0x00)
    1728                      .dwattr $C$DW$158, DW_AT_TI_symbol_name("_ReadData")
    1729                      .dwattr $C$DW$158, DW_AT_external
    1730                      .dwattr $C$DW$158, DW_AT_TI_begin_file("../c5535_bsl_revc/ezdsp5535_v1/c55xx_csl/ccs_v4.0_examples/lc
    1731                      .dwattr $C$DW$158, DW_AT_TI_begin_line(0x12a)
    1732                      .dwattr $C$DW$158, DW_AT_TI_begin_column(0x06)
    1733                      .dwattr $C$DW$158, DW_AT_TI_max_frame_size(0x04)
    1734                      .dwpsn  file "../c5535_bsl_revc/ezdsp5535_v1/c55xx_csl/ccs_v4.0_examples/lcd/CSL_LCDC_DiagramExample/
    1735              
    1736                      .dwfde $C$DW$CIE, _ReadData
    1737              $C$DW$159       .dwtag  DW_TAG_formal_parameter, DW_AT_name("arg")
    1738                      .dwattr $C$DW$159, DW_AT_TI_symbol_name("_arg")
    1739                      .dwattr $C$DW$159, DW_AT_type(*$C$DW$T$3)
    1740                      .dwattr $C$DW$159, DW_AT_location[DW_OP_reg17]
    1741              $C$DW$160       .dwtag  DW_TAG_formal_parameter, DW_AT_name("cs_flag")
    1742                      .dwattr $C$DW$160, DW_AT_TI_symbol_name("_cs_flag")
    1743                      .dwattr $C$DW$160, DW_AT_type(*$C$DW$T$19)
    1744                      .dwattr $C$DW$160, DW_AT_location[DW_OP_reg12]
    1745              ;*******************************************************************************
    1746              ;* FUNCTION NAME: ReadData                                                     *
    1747              ;*                                                                             *
    1748              ;*   Function Uses Regs : T0,AR0,XAR0,AR3,XAR3,SP,M40,SATA,SATD,RDM,FRCT,SMUL  *
    1749              ;*   Stack Frame        : Compact (No Frame Pointer, w/ debug)                 *
    1750              ;*   Total Frame Size   : 4 words                                              *
TMS320C55x Assembler PC v4.4.1 Sat Sep 29 23:09:22 2018

Tools Copyright (c) 1996-2012 Texas Instruments Incorporated
lcdc_panel.asm                                                       PAGE   35

    1751              ;*                        (1 return address/alignment)                         *
    1752              ;*                        (3 local values)                                     *
    1753              ;*   Min System Stack   : 1 word                                               *
    1754              ;*******************************************************************************
    1755 000308       _ReadData:
    1756                      .dwcfi  cfa_offset, 1
    1757                      .dwcfi  save_reg_to_mem, 91, -1
    1758 000308 4EFD          AADD #-3, SP
    1759                      .dwcfi  cfa_offset, 4
    1760              $C$DW$161       .dwtag  DW_TAG_variable, DW_AT_name("arg")
    1761                      .dwattr $C$DW$161, DW_AT_TI_symbol_name("_arg")
    1762                      .dwattr $C$DW$161, DW_AT_type(*$C$DW$T$3)
    1763                      .dwattr $C$DW$161, DW_AT_location[DW_OP_bregx 0x24 0]
    1764              $C$DW$162       .dwtag  DW_TAG_variable, DW_AT_name("cs_flag")
    1765                      .dwattr $C$DW$162, DW_AT_TI_symbol_name("_cs_flag")
    1766                      .dwattr $C$DW$162, DW_AT_type(*$C$DW$T$19)
    1767                      .dwattr $C$DW$162, DW_AT_location[DW_OP_bregx 0x24 2]
    1768 00030a C404          MOV T0, *SP(#2) ; |301| 
    1769 00030c EB00          MOV XAR0, dbl(*SP(#0))
         00030e 85   
    1770                      .dwpsn  file "../c5535_bsl_revc/ezdsp5535_v1/c55xx_csl/ccs_v4.0_examples/lcd/CSL_LCDC_DiagramExample/
    1771 00030f ED31          MOV dbl(*(#_hLcdc)), XAR0
         000311 8F00 
         000313 0000!
    1772 000315 A404          MOV *SP(#2), T0 ; |302| 
    1773              $C$DW$163       .dwtag  DW_TAG_TI_branch
    1774                      .dwattr $C$DW$163, DW_AT_low_pc(0x00)
    1775                      .dwattr $C$DW$163, DW_AT_name("_CSL_lcdcGetLiddCsData")
    1776                      .dwattr $C$DW$163, DW_AT_TI_call
    1777 000317 08FD          CALL #_CSL_lcdcGetLiddCsData ; |302| 
         000319 8E   
    1778                                                      ; call occurs [#_CSL_lcdcGetLiddCsData] ; |302| 
    1779 00031a ED00          MOV dbl(*SP(#0)), XAR3
         00031c BF   
    1780 00031d C461          MOV T0, *AR3 ; |302| 
    1781                      .dwpsn  file "../c5535_bsl_revc/ezdsp5535_v1/c55xx_csl/ccs_v4.0_examples/lcd/CSL_LCDC_DiagramExample/
    1782 00031f 4E03          AADD #3, SP
    1783                      .dwcfi  cfa_offset, 1
    1784              $C$DW$164       .dwtag  DW_TAG_TI_branch
    1785                      .dwattr $C$DW$164, DW_AT_low_pc(0x00)
    1786                      .dwattr $C$DW$164, DW_AT_TI_return
    1787 000321 4804          RET
    1788                                                      ; return occurs
    1789                      .dwattr $C$DW$158, DW_AT_TI_end_file("../c5535_bsl_revc/ezdsp5535_v1/c55xx_csl/ccs_v4.0_examples/lcd/
    1790                      .dwattr $C$DW$158, DW_AT_TI_end_line(0x12f)
    1791                      .dwattr $C$DW$158, DW_AT_TI_end_column(0x01)
    1792                      .dwendentry
    1793                      .dwendtag $C$DW$158
    1794              
    1795 000323               .sect   ".text"
    1796                      .align 4
    1797                      .global _CreateChessPattern
    1798              
    1799              $C$DW$165       .dwtag  DW_TAG_subprogram, DW_AT_name("CreateChessPattern")
    1800                      .dwattr $C$DW$165, DW_AT_low_pc(_CreateChessPattern)
TMS320C55x Assembler PC v4.4.1 Sat Sep 29 23:09:22 2018

Tools Copyright (c) 1996-2012 Texas Instruments Incorporated
lcdc_panel.asm                                                       PAGE   36

    1801                      .dwattr $C$DW$165, DW_AT_high_pc(0x00)
    1802                      .dwattr $C$DW$165, DW_AT_TI_symbol_name("_CreateChessPattern")
    1803                      .dwattr $C$DW$165, DW_AT_external
    1804                      .dwattr $C$DW$165, DW_AT_TI_begin_file("../c5535_bsl_revc/ezdsp5535_v1/c55xx_csl/ccs_v4.0_examples/lc
    1805                      .dwattr $C$DW$165, DW_AT_TI_begin_line(0x13b)
    1806                      .dwattr $C$DW$165, DW_AT_TI_begin_column(0x06)
    1807                      .dwattr $C$DW$165, DW_AT_TI_max_frame_size(0x0c)
    1808                      .dwpsn  file "../c5535_bsl_revc/ezdsp5535_v1/c55xx_csl/ccs_v4.0_examples/lcd/CSL_LCDC_DiagramExample/
    1809              
    1810                      .dwfde $C$DW$CIE, _CreateChessPattern
    1811              $C$DW$166       .dwtag  DW_TAG_formal_parameter, DW_AT_name("pBuf")
    1812                      .dwattr $C$DW$166, DW_AT_TI_symbol_name("_pBuf")
    1813                      .dwattr $C$DW$166, DW_AT_type(*$C$DW$T$59)
    1814                      .dwattr $C$DW$166, DW_AT_location[DW_OP_reg17]
    1815              $C$DW$167       .dwtag  DW_TAG_formal_parameter, DW_AT_name("Width")
    1816                      .dwattr $C$DW$167, DW_AT_TI_symbol_name("_Width")
    1817                      .dwattr $C$DW$167, DW_AT_type(*$C$DW$T$19)
    1818                      .dwattr $C$DW$167, DW_AT_location[DW_OP_reg12]
    1819              $C$DW$168       .dwtag  DW_TAG_formal_parameter, DW_AT_name("Height")
    1820                      .dwattr $C$DW$168, DW_AT_TI_symbol_name("_Height")
    1821                      .dwattr $C$DW$168, DW_AT_type(*$C$DW$T$19)
    1822                      .dwattr $C$DW$168, DW_AT_location[DW_OP_reg13]
    1823              $C$DW$169       .dwtag  DW_TAG_formal_parameter, DW_AT_name("size")
    1824                      .dwattr $C$DW$169, DW_AT_TI_symbol_name("_size")
    1825                      .dwattr $C$DW$169, DW_AT_type(*$C$DW$T$19)
    1826                      .dwattr $C$DW$169, DW_AT_location[DW_OP_reg18]
    1827              ;*******************************************************************************
    1828              ;* FUNCTION NAME: CreateChessPattern                                           *
    1829              ;*                                                                             *
    1830              ;*   Function Uses Regs : T0,T1,AR0,XAR0,AR1,AR2,AR3,XAR3,SP,CARRY,TC1,M40,    *
    1831              ;*                        SATA,SATD,RDM,FRCT,SMUL                              *
    1832              ;*   Stack Frame        : Compact (No Frame Pointer, w/ debug)                 *
    1833              ;*   Total Frame Size   : 12 words                                             *
    1834              ;*                        (2 return address/alignment)                         *
    1835              ;*                        (10 local values)                                    *
    1836              ;*   Min System Stack   : 1 word                                               *
    1837              ;*******************************************************************************
    1838 000324       _CreateChessPattern:
    1839                      .dwcfi  cfa_offset, 1
    1840                      .dwcfi  save_reg_to_mem, 91, -1
    1841 000324 4EF5          AADD #-11, SP
    1842                      .dwcfi  cfa_offset, 12
    1843              $C$DW$170       .dwtag  DW_TAG_variable, DW_AT_name("pBuf")
    1844                      .dwattr $C$DW$170, DW_AT_TI_symbol_name("_pBuf")
    1845                      .dwattr $C$DW$170, DW_AT_type(*$C$DW$T$59)
    1846                      .dwattr $C$DW$170, DW_AT_location[DW_OP_bregx 0x24 0]
    1847              $C$DW$171       .dwtag  DW_TAG_variable, DW_AT_name("Width")
    1848                      .dwattr $C$DW$171, DW_AT_TI_symbol_name("_Width")
    1849                      .dwattr $C$DW$171, DW_AT_type(*$C$DW$T$19)
    1850                      .dwattr $C$DW$171, DW_AT_location[DW_OP_bregx 0x24 2]
    1851              $C$DW$172       .dwtag  DW_TAG_variable, DW_AT_name("Height")
    1852                      .dwattr $C$DW$172, DW_AT_TI_symbol_name("_Height")
    1853                      .dwattr $C$DW$172, DW_AT_type(*$C$DW$T$19)
    1854                      .dwattr $C$DW$172, DW_AT_location[DW_OP_bregx 0x24 3]
    1855              $C$DW$173       .dwtag  DW_TAG_variable, DW_AT_name("size")
TMS320C55x Assembler PC v4.4.1 Sat Sep 29 23:09:22 2018

Tools Copyright (c) 1996-2012 Texas Instruments Incorporated
lcdc_panel.asm                                                       PAGE   37

    1856                      .dwattr $C$DW$173, DW_AT_TI_symbol_name("_size")
    1857                      .dwattr $C$DW$173, DW_AT_type(*$C$DW$T$19)
    1858                      .dwattr $C$DW$173, DW_AT_location[DW_OP_bregx 0x24 4]
    1859              $C$DW$174       .dwtag  DW_TAG_variable, DW_AT_name("bufPattern")
    1860                      .dwattr $C$DW$174, DW_AT_TI_symbol_name("_bufPattern")
    1861                      .dwattr $C$DW$174, DW_AT_type(*$C$DW$T$59)
    1862                      .dwattr $C$DW$174, DW_AT_location[DW_OP_bregx 0x24 6]
    1863              $C$DW$175       .dwtag  DW_TAG_variable, DW_AT_name("i")
    1864                      .dwattr $C$DW$175, DW_AT_TI_symbol_name("_i")
    1865                      .dwattr $C$DW$175, DW_AT_type(*$C$DW$T$19)
    1866                      .dwattr $C$DW$175, DW_AT_location[DW_OP_bregx 0x24 8]
    1867              $C$DW$176       .dwtag  DW_TAG_variable, DW_AT_name("j")
    1868                      .dwattr $C$DW$176, DW_AT_TI_symbol_name("_j")
    1869                      .dwattr $C$DW$176, DW_AT_type(*$C$DW$T$19)
    1870                      .dwattr $C$DW$176, DW_AT_location[DW_OP_bregx 0x24 9]
    1871 000326 C908          MOV AR1, *SP(#4) ; |320| 
    1872 000328 C506          MOV T1, *SP(#3) ; |320| 
    1873 00032a C404          MOV T0, *SP(#2) ; |320| 
    1874 00032c EB00          MOV XAR0, dbl(*SP(#0))
         00032e 85   
    1875                      .dwpsn  file "../c5535_bsl_revc/ezdsp5535_v1/c55xx_csl/ccs_v4.0_examples/lcd/CSL_LCDC_DiagramExample/
    1876 00032f ED00          MOV dbl(*SP(#0)), XAR3
         000331 BF   
    1877 000332 EB0C          MOV XAR3, dbl(*SP(#6))
         000334 B5   
    1878                      .dwpsn  file "../c5535_bsl_revc/ezdsp5535_v1/c55xx_csl/ccs_v4.0_examples/lcd/CSL_LCDC_DiagramExample/
    1879 000335 E610          MOV #0, *SP(#8) ; |326| 
         000337 00   
    1880                      .dwpsn  file "../c5535_bsl_revc/ezdsp5535_v1/c55xx_csl/ccs_v4.0_examples/lcd/CSL_LCDC_DiagramExample/
    1881 000338 A908          MOV *SP(#4), AR1 ; |326| 
    1882 00033a AA10          MOV *SP(#8), AR2 ; |326| 
    1883 00033c 7C00          SUB #31, AR1, AR1 ; |326| 
         00033e 1F99 
    1884 000340 12A8          CMPU AR2 >= AR1, TC1 ; |326| 
         000342 94   
    1885 000343 0464          BCC $C$L21,TC1 ; |326| 
         000345 5E   
    1886                                                      ; branchcc occurs ; |326| 
    1887 000346       $C$L16:    
    1888 000346       $C$DW$L$_CreateChessPattern$2$B:
    1889                      .dwpsn  file "../c5535_bsl_revc/ezdsp5535_v1/c55xx_csl/ccs_v4.0_examples/lcd/CSL_LCDC_DiagramExample/
    1890 000346 E612          MOV #0, *SP(#9) ; |328| 
         000348 00   
    1891                      .dwpsn  file "../c5535_bsl_revc/ezdsp5535_v1/c55xx_csl/ccs_v4.0_examples/lcd/CSL_LCDC_DiagramExample/
    1892 000349 7600          MOV #16, AR2 ; |328| 
         00034b 10A8 
    1893 00034d A912          MOV *SP(#9), AR1 ; |328| 
    1894 00034f 1298          CMPU AR1 >= AR2, TC1 ; |328| 
         000351 A4   
    1895 000352 0464          BCC $C$L18,TC1 ; |328| 
         000354 1B   
    1896                                                      ; branchcc occurs ; |328| 
    1897 000355       $C$DW$L$_CreateChessPattern$2$E:
    1898 000355       $C$L17:    
    1899 000355       $C$DW$L$_CreateChessPattern$3$B:
TMS320C55x Assembler PC v4.4.1 Sat Sep 29 23:09:22 2018

Tools Copyright (c) 1996-2012 Texas Instruments Incorporated
lcdc_panel.asm                                                       PAGE   38

    1900                      .dwpsn  file "../c5535_bsl_revc/ezdsp5535_v1/c55xx_csl/ccs_v4.0_examples/lcd/CSL_LCDC_DiagramExample/
    1901 000355 A410          MOV *SP(#8), T0 ; |330| 
    1902 000357 7B00          ADD #1, T0, AR1 ; |330| 
         000359 0194 
    1903 00035b C910          MOV AR1, *SP(#8) ; |330| 
    1904 00035d ED0C          MOV dbl(*SP(#6)), XAR3
         00035f BF   
    1905 000360 FB6B          MOV #255, *AR3(T0) ; |330| 
         000362 00FF 
    1906                      .dwpsn  file "../c5535_bsl_revc/ezdsp5535_v1/c55xx_csl/ccs_v4.0_examples/lcd/CSL_LCDC_DiagramExample/
    1907 000364 F712          ADD #1, *SP(#9) ; |328| 
         000366 0001 
    1908                      .dwpsn  file "../c5535_bsl_revc/ezdsp5535_v1/c55xx_csl/ccs_v4.0_examples/lcd/CSL_LCDC_DiagramExample/
    1909 000368 A912          MOV *SP(#9), AR1 ; |328| 
    1910 00036a 1294          CMPU AR1 < AR2, TC1 ; |328| 
         00036c A4   
    1911 00036d 0464          BCC $C$L17,TC1 ; |328| 
         00036f E5   
    1912                                                      ; branchcc occurs ; |328| 
    1913 000370       $C$DW$L$_CreateChessPattern$3$E:
    1914 000370       $C$L18:    
    1915 000370       $C$DW$L$_CreateChessPattern$4$B:
    1916                      .dwpsn  file "../c5535_bsl_revc/ezdsp5535_v1/c55xx_csl/ccs_v4.0_examples/lcd/CSL_LCDC_DiagramExample/
    1917 000370 E612          MOV #0, *SP(#9) ; |332| 
         000372 00   
    1918                      .dwpsn  file "../c5535_bsl_revc/ezdsp5535_v1/c55xx_csl/ccs_v4.0_examples/lcd/CSL_LCDC_DiagramExample/
    1919 000373 A912          MOV *SP(#9), AR1 ; |332| 
    1920 000375 1298          CMPU AR1 >= AR2, TC1 ; |332| 
         000377 A4   
    1921 000378 0464          BCC $C$L20,TC1 ; |332| 
         00037a 1B   
    1922                                                      ; branchcc occurs ; |332| 
    1923 00037b       $C$DW$L$_CreateChessPattern$4$E:
    1924 00037b       $C$L19:    
    1925 00037b       $C$DW$L$_CreateChessPattern$5$B:
    1926                      .dwpsn  file "../c5535_bsl_revc/ezdsp5535_v1/c55xx_csl/ccs_v4.0_examples/lcd/CSL_LCDC_DiagramExample/
    1927 00037b A410          MOV *SP(#8), T0 ; |334| 
    1928 00037d 7B00          ADD #1, T0, AR1 ; |334| 
         00037f 0194 
    1929 000381 C910          MOV AR1, *SP(#8) ; |334| 
    1930 000383 ED0C          MOV dbl(*SP(#6)), XAR3
         000385 BF   
    1931 000386 FB6B          MOV #224, *AR3(T0) ; |334| 
         000388 00E0 
    1932                      .dwpsn  file "../c5535_bsl_revc/ezdsp5535_v1/c55xx_csl/ccs_v4.0_examples/lcd/CSL_LCDC_DiagramExample/
    1933 00038a F712          ADD #1, *SP(#9) ; |332| 
         00038c 0001 
    1934                      .dwpsn  file "../c5535_bsl_revc/ezdsp5535_v1/c55xx_csl/ccs_v4.0_examples/lcd/CSL_LCDC_DiagramExample/
    1935 00038e A912          MOV *SP(#9), AR1 ; |332| 
    1936 000390 1294          CMPU AR1 < AR2, TC1 ; |332| 
         000392 A4   
    1937 000393 0464          BCC $C$L19,TC1 ; |332| 
         000395 E5   
    1938                                                      ; branchcc occurs ; |332| 
    1939 000396       $C$DW$L$_CreateChessPattern$5$E:
TMS320C55x Assembler PC v4.4.1 Sat Sep 29 23:09:22 2018

Tools Copyright (c) 1996-2012 Texas Instruments Incorporated
lcdc_panel.asm                                                       PAGE   39

    1940 000396       $C$L20:    
    1941 000396       $C$DW$L$_CreateChessPattern$6$B:
    1942                      .dwpsn  file "../c5535_bsl_revc/ezdsp5535_v1/c55xx_csl/ccs_v4.0_examples/lcd/CSL_LCDC_DiagramExample/
    1943 000396 A908          MOV *SP(#4), AR1 ; |326| 
    1944 000398 AA10          MOV *SP(#8), AR2 ; |326| 
    1945 00039a 7C00          SUB #31, AR1, AR1 ; |326| 
         00039c 1F99 
    1946 00039e 12A4          CMPU AR2 < AR1, TC1 ; |326| 
         0003a0 94   
    1947 0003a1 0464          BCC $C$L16,TC1 ; |326| 
         0003a3 A2   
    1948                                                      ; branchcc occurs ; |326| 
    1949 0003a4       $C$DW$L$_CreateChessPattern$6$E:
    1950                      .dwpsn  file "../c5535_bsl_revc/ezdsp5535_v1/c55xx_csl/ccs_v4.0_examples/lcd/CSL_LCDC_DiagramExample/
    1951 0003a4       $C$L21:    
    1952 0003a4 4E0B          AADD #11, SP
    1953                      .dwcfi  cfa_offset, 1
    1954              $C$DW$177       .dwtag  DW_TAG_TI_branch
    1955                      .dwattr $C$DW$177, DW_AT_low_pc(0x00)
    1956                      .dwattr $C$DW$177, DW_AT_TI_return
    1957 0003a6 4804          RET
    1958                                                      ; return occurs
    1959              
    1960              $C$DW$178       .dwtag  DW_TAG_TI_loop
    1961                      .dwattr $C$DW$178, DW_AT_name("F:\eZdsp_DBG\tmp1\c55x-sim2\foo\Debug\lcdc_panel.asm:$C$L16:1:15382877
    1962                      .dwattr $C$DW$178, DW_AT_TI_begin_file("../c5535_bsl_revc/ezdsp5535_v1/c55xx_csl/ccs_v4.0_examples/lc
    1963                      .dwattr $C$DW$178, DW_AT_TI_begin_line(0x146)
    1964                      .dwattr $C$DW$178, DW_AT_TI_end_line(0x150)
    1965              $C$DW$179       .dwtag  DW_TAG_TI_loop_range
    1966                      .dwattr $C$DW$179, DW_AT_low_pc($C$DW$L$_CreateChessPattern$2$B)
    1967                      .dwattr $C$DW$179, DW_AT_high_pc($C$DW$L$_CreateChessPattern$2$E)
    1968              $C$DW$180       .dwtag  DW_TAG_TI_loop_range
    1969                      .dwattr $C$DW$180, DW_AT_low_pc($C$DW$L$_CreateChessPattern$4$B)
    1970                      .dwattr $C$DW$180, DW_AT_high_pc($C$DW$L$_CreateChessPattern$4$E)
    1971              $C$DW$181       .dwtag  DW_TAG_TI_loop_range
    1972                      .dwattr $C$DW$181, DW_AT_low_pc($C$DW$L$_CreateChessPattern$6$B)
    1973                      .dwattr $C$DW$181, DW_AT_high_pc($C$DW$L$_CreateChessPattern$6$E)
    1974              
    1975              $C$DW$182       .dwtag  DW_TAG_TI_loop
    1976                      .dwattr $C$DW$182, DW_AT_name("F:\eZdsp_DBG\tmp1\c55x-sim2\foo\Debug\lcdc_panel.asm:$C$L17:2:15382877
    1977                      .dwattr $C$DW$182, DW_AT_TI_begin_file("../c5535_bsl_revc/ezdsp5535_v1/c55xx_csl/ccs_v4.0_examples/lc
    1978                      .dwattr $C$DW$182, DW_AT_TI_begin_line(0x148)
    1979                      .dwattr $C$DW$182, DW_AT_TI_end_line(0x14b)
    1980              $C$DW$183       .dwtag  DW_TAG_TI_loop_range
    1981                      .dwattr $C$DW$183, DW_AT_low_pc($C$DW$L$_CreateChessPattern$3$B)
    1982                      .dwattr $C$DW$183, DW_AT_high_pc($C$DW$L$_CreateChessPattern$3$E)
    1983                      .dwendtag $C$DW$182
    1984              
    1985              
    1986              $C$DW$184       .dwtag  DW_TAG_TI_loop
    1987                      .dwattr $C$DW$184, DW_AT_name("F:\eZdsp_DBG\tmp1\c55x-sim2\foo\Debug\lcdc_panel.asm:$C$L19:2:15382877
    1988                      .dwattr $C$DW$184, DW_AT_TI_begin_file("../c5535_bsl_revc/ezdsp5535_v1/c55xx_csl/ccs_v4.0_examples/lc
    1989                      .dwattr $C$DW$184, DW_AT_TI_begin_line(0x14c)
    1990                      .dwattr $C$DW$184, DW_AT_TI_end_line(0x14f)
    1991              $C$DW$185       .dwtag  DW_TAG_TI_loop_range
TMS320C55x Assembler PC v4.4.1 Sat Sep 29 23:09:22 2018

Tools Copyright (c) 1996-2012 Texas Instruments Incorporated
lcdc_panel.asm                                                       PAGE   40

    1992                      .dwattr $C$DW$185, DW_AT_low_pc($C$DW$L$_CreateChessPattern$5$B)
    1993                      .dwattr $C$DW$185, DW_AT_high_pc($C$DW$L$_CreateChessPattern$5$E)
    1994                      .dwendtag $C$DW$184
    1995              
    1996                      .dwendtag $C$DW$178
    1997              
    1998                      .dwattr $C$DW$165, DW_AT_TI_end_file("../c5535_bsl_revc/ezdsp5535_v1/c55xx_csl/ccs_v4.0_examples/lcd/
    1999                      .dwattr $C$DW$165, DW_AT_TI_end_line(0x151)
    2000                      .dwattr $C$DW$165, DW_AT_TI_end_column(0x01)
    2001                      .dwendentry
    2002                      .dwendtag $C$DW$165
    2003              
    2004 0003a8               .sect   ".text"
    2005                      .align 4
    2006                      .global _delay
    2007              
    2008              $C$DW$186       .dwtag  DW_TAG_subprogram, DW_AT_name("delay")
    2009                      .dwattr $C$DW$186, DW_AT_low_pc(_delay)
    2010                      .dwattr $C$DW$186, DW_AT_high_pc(0x00)
    2011                      .dwattr $C$DW$186, DW_AT_TI_symbol_name("_delay")
    2012                      .dwattr $C$DW$186, DW_AT_external
    2013                      .dwattr $C$DW$186, DW_AT_TI_begin_file("../c5535_bsl_revc/ezdsp5535_v1/c55xx_csl/ccs_v4.0_examples/lc
    2014                      .dwattr $C$DW$186, DW_AT_TI_begin_line(0x159)
    2015                      .dwattr $C$DW$186, DW_AT_TI_begin_column(0x06)
    2016                      .dwattr $C$DW$186, DW_AT_TI_max_frame_size(0x08)
    2017                      .dwpsn  file "../c5535_bsl_revc/ezdsp5535_v1/c55xx_csl/ccs_v4.0_examples/lcd/CSL_LCDC_DiagramExample/
    2018              
    2019                      .dwfde $C$DW$CIE, _delay
    2020              $C$DW$187       .dwtag  DW_TAG_formal_parameter, DW_AT_name("msCount")
    2021                      .dwattr $C$DW$187, DW_AT_TI_symbol_name("_msCount")
    2022                      .dwattr $C$DW$187, DW_AT_type(*$C$DW$T$19)
    2023                      .dwattr $C$DW$187, DW_AT_location[DW_OP_reg12]
    2024              ;*******************************************************************************
    2025              ;* FUNCTION NAME: delay                                                        *
    2026              ;*                                                                             *
    2027              ;*   Function Uses Regs : AC0,AC0,AC1,AC1,T0,SP,CARRY,TC1,M40,SATA,SATD,RDM,   *
    2028              ;*                        FRCT,SMUL                                            *
    2029              ;*   Stack Frame        : Compact (No Frame Pointer, w/ debug)                 *
    2030              ;*   Total Frame Size   : 8 words                                              *
    2031              ;*                        (2 return address/alignment)                         *
    2032              ;*                        (6 local values)                                     *
    2033              ;*   Min System Stack   : 1 word                                               *
    2034              ;*******************************************************************************
    2035 0003a8       _delay:
    2036                      .dwcfi  cfa_offset, 1
    2037                      .dwcfi  save_reg_to_mem, 91, -1
    2038 0003a8 4EF9          AADD #-7, SP
    2039                      .dwcfi  cfa_offset, 8
    2040              $C$DW$188       .dwtag  DW_TAG_variable, DW_AT_name("msCount")
    2041                      .dwattr $C$DW$188, DW_AT_TI_symbol_name("_msCount")
    2042                      .dwattr $C$DW$188, DW_AT_type(*$C$DW$T$19)
    2043                      .dwattr $C$DW$188, DW_AT_location[DW_OP_bregx 0x24 0]
    2044              $C$DW$189       .dwtag  DW_TAG_variable, DW_AT_name("i")
    2045                      .dwattr $C$DW$189, DW_AT_TI_symbol_name("_i")
    2046                      .dwattr $C$DW$189, DW_AT_type(*$C$DW$T$76)
TMS320C55x Assembler PC v4.4.1 Sat Sep 29 23:09:22 2018

Tools Copyright (c) 1996-2012 Texas Instruments Incorporated
lcdc_panel.asm                                                       PAGE   41

    2047                      .dwattr $C$DW$189, DW_AT_location[DW_OP_bregx 0x24 2]
    2048              $C$DW$190       .dwtag  DW_TAG_variable, DW_AT_name("j")
    2049                      .dwattr $C$DW$190, DW_AT_TI_symbol_name("_j")
    2050                      .dwattr $C$DW$190, DW_AT_type(*$C$DW$T$76)
    2051                      .dwattr $C$DW$190, DW_AT_location[DW_OP_bregx 0x24 4]
    2052 0003aa C400          MOV T0, *SP(#0) ; |347| 
    2053                      .dwpsn  file "../c5535_bsl_revc/ezdsp5535_v1/c55xx_csl/ccs_v4.0_examples/lcd/CSL_LCDC_DiagramExample/
    2054 0003ac 3C00          MOV #0, AC0 ; |351| 
    2055 0003ae EB08          MOV AC0, dbl(*SP(#4)) ; |351| 
         0003b0 08   
    2056 0003b1 20            NOP
    2057 0003b2 20            NOP
    2058 0003b3 20            NOP
    2059                      .dwpsn  file "../c5535_bsl_revc/ezdsp5535_v1/c55xx_csl/ccs_v4.0_examples/lcd/CSL_LCDC_DiagramExample/
    2060 0003b4 ED08          MOV dbl(*SP(#4)), AC1 ; |351| 
         0003b6 18   
    2061 0003b7 DF00          MOV uns(*SP(#0)), AC0 ; |351| 
         0003b9 05   
    2062 0003ba 1218          CMPU AC1 >= AC0, TC1 ; |351| 
         0003bc 04   
    2063 0003bd 0464          BCC $C$L25,TC1 ; |351| 
         0003bf 43   
    2064                                                      ; branchcc occurs ; |351| 
    2065 0003c0       $C$L22:    
    2066 0003c0       $C$DW$L$_delay$2$B:
    2067                      .dwpsn  file "../c5535_bsl_revc/ezdsp5535_v1/c55xx_csl/ccs_v4.0_examples/lcd/CSL_LCDC_DiagramExample/
    2068 0003c0 3C00          MOV #0, AC0 ; |353| 
    2069 0003c2 EB04          MOV AC0, dbl(*SP(#2)) ; |353| 
         0003c4 08   
    2070 0003c5 20            NOP
    2071 0003c6 20            NOP
    2072 0003c7 20            NOP
    2073                      .dwpsn  file "../c5535_bsl_revc/ezdsp5535_v1/c55xx_csl/ccs_v4.0_examples/lcd/CSL_LCDC_DiagramExample/
    2074 0003c8 ED04          MOV dbl(*SP(#2)), AC1 ; |353| 
         0003ca 18   
    2075 0003cb 7608          MOV #2048, AC0 ; |353| 
         0003cd 0008 
    2076 0003cf 1218          CMPU AC1 >= AC0, TC1 ; |353| 
         0003d1 04   
    2077 0003d2 0464          BCC $C$L24,TC1 ; |353| 
         0003d4 17   
    2078                                                      ; branchcc occurs ; |353| 
    2079 0003d5       $C$DW$L$_delay$2$E:
    2080 0003d5       $C$L23:    
    2081 0003d5       $C$DW$L$_delay$3$B:
    2082                      .dwpsn  file "../c5535_bsl_revc/ezdsp5535_v1/c55xx_csl/ccs_v4.0_examples/lcd/CSL_LCDC_DiagramExample/
    2083 0003d5 ED04          MOV dbl(*SP(#2)), AC0 ; |353| 
         0003d7 08   
    2084 0003d8 4010          ADD #1, AC0 ; |353| 
    2085 0003da EB04          MOV AC0, dbl(*SP(#2)) ; |353| 
         0003dc 08   
    2086 0003dd 20            NOP
    2087 0003de 20            NOP
    2088                      .dwpsn  file "../c5535_bsl_revc/ezdsp5535_v1/c55xx_csl/ccs_v4.0_examples/lcd/CSL_LCDC_DiagramExample/
    2089 0003df 7608          MOV #2048, AC0 ; |353| 
TMS320C55x Assembler PC v4.4.1 Sat Sep 29 23:09:22 2018

Tools Copyright (c) 1996-2012 Texas Instruments Incorporated
lcdc_panel.asm                                                       PAGE   42

         0003e1 0008 
    2090 0003e3 ED04          MOV dbl(*SP(#2)), AC1 ; |353| 
         0003e5 18   
    2091 0003e6 1214          CMPU AC1 < AC0, TC1 ; |353| 
         0003e8 04   
    2092 0003e9 0464          BCC $C$L23,TC1 ; |353| 
         0003eb E9   
    2093                                                      ; branchcc occurs ; |353| 
    2094 0003ec       $C$DW$L$_delay$3$E:
    2095 0003ec       $C$L24:    
    2096 0003ec       $C$DW$L$_delay$4$B:
    2097                      .dwpsn  file "../c5535_bsl_revc/ezdsp5535_v1/c55xx_csl/ccs_v4.0_examples/lcd/CSL_LCDC_DiagramExample/
    2098 0003ec ED08          MOV dbl(*SP(#4)), AC0 ; |351| 
         0003ee 08   
    2099 0003ef 4010          ADD #1, AC0 ; |351| 
    2100 0003f1 EB08          MOV AC0, dbl(*SP(#4)) ; |351| 
         0003f3 08   
    2101 0003f4 20            NOP
    2102 0003f5 20            NOP
    2103 0003f6 20            NOP
    2104                      .dwpsn  file "../c5535_bsl_revc/ezdsp5535_v1/c55xx_csl/ccs_v4.0_examples/lcd/CSL_LCDC_DiagramExample/
    2105 0003f7 ED08          MOV dbl(*SP(#4)), AC1 ; |351| 
         0003f9 18   
    2106 0003fa DF00          MOV uns(*SP(#0)), AC0 ; |351| 
         0003fc 05   
    2107 0003fd 1214          CMPU AC1 < AC0, TC1 ; |351| 
         0003ff 04   
    2108 000400 0464          BCC $C$L22,TC1 ; |351| 
         000402 BD   
    2109                                                      ; branchcc occurs ; |351| 
    2110 000403       $C$DW$L$_delay$4$E:
    2111                      .dwpsn  file "../c5535_bsl_revc/ezdsp5535_v1/c55xx_csl/ccs_v4.0_examples/lcd/CSL_LCDC_DiagramExample/
    2112 000403       $C$L25:    
    2113 000403 4E07          AADD #7, SP
    2114                      .dwcfi  cfa_offset, 1
    2115              $C$DW$191       .dwtag  DW_TAG_TI_branch
    2116                      .dwattr $C$DW$191, DW_AT_low_pc(0x00)
    2117                      .dwattr $C$DW$191, DW_AT_TI_return
    2118 000405 4804          RET
    2119                                                      ; return occurs
    2120              
    2121              $C$DW$192       .dwtag  DW_TAG_TI_loop
    2122                      .dwattr $C$DW$192, DW_AT_name("F:\eZdsp_DBG\tmp1\c55x-sim2\foo\Debug\lcdc_panel.asm:$C$L22:1:15382877
    2123                      .dwattr $C$DW$192, DW_AT_TI_begin_file("../c5535_bsl_revc/ezdsp5535_v1/c55xx_csl/ccs_v4.0_examples/lc
    2124                      .dwattr $C$DW$192, DW_AT_TI_begin_line(0x15f)
    2125                      .dwattr $C$DW$192, DW_AT_TI_end_line(0x162)
    2126              $C$DW$193       .dwtag  DW_TAG_TI_loop_range
    2127                      .dwattr $C$DW$193, DW_AT_low_pc($C$DW$L$_delay$2$B)
    2128                      .dwattr $C$DW$193, DW_AT_high_pc($C$DW$L$_delay$2$E)
    2129              $C$DW$194       .dwtag  DW_TAG_TI_loop_range
    2130                      .dwattr $C$DW$194, DW_AT_low_pc($C$DW$L$_delay$4$B)
    2131                      .dwattr $C$DW$194, DW_AT_high_pc($C$DW$L$_delay$4$E)
    2132              
    2133              $C$DW$195       .dwtag  DW_TAG_TI_loop
    2134                      .dwattr $C$DW$195, DW_AT_name("F:\eZdsp_DBG\tmp1\c55x-sim2\foo\Debug\lcdc_panel.asm:$C$L23:2:15382877
TMS320C55x Assembler PC v4.4.1 Sat Sep 29 23:09:22 2018

Tools Copyright (c) 1996-2012 Texas Instruments Incorporated
lcdc_panel.asm                                                       PAGE   43

    2135                      .dwattr $C$DW$195, DW_AT_TI_begin_file("../c5535_bsl_revc/ezdsp5535_v1/c55xx_csl/ccs_v4.0_examples/lc
    2136                      .dwattr $C$DW$195, DW_AT_TI_begin_line(0x161)
    2137                      .dwattr $C$DW$195, DW_AT_TI_end_line(0x161)
    2138              $C$DW$196       .dwtag  DW_TAG_TI_loop_range
    2139                      .dwattr $C$DW$196, DW_AT_low_pc($C$DW$L$_delay$3$B)
    2140                      .dwattr $C$DW$196, DW_AT_high_pc($C$DW$L$_delay$3$E)
    2141                      .dwendtag $C$DW$195
    2142              
    2143                      .dwendtag $C$DW$192
    2144              
    2145                      .dwattr $C$DW$186, DW_AT_TI_end_file("../c5535_bsl_revc/ezdsp5535_v1/c55xx_csl/ccs_v4.0_examples/lcd/
    2146                      .dwattr $C$DW$186, DW_AT_TI_end_line(0x163)
    2147                      .dwattr $C$DW$186, DW_AT_TI_end_column(0x01)
    2148                      .dwendentry
    2149                      .dwendtag $C$DW$186
    2150              
    2151 000407               .sect   ".text"
    2152                      .align 4
    2153                      .global _lcdDivFun
    2154              
    2155              $C$DW$197       .dwtag  DW_TAG_subprogram, DW_AT_name("lcdDivFun")
    2156                      .dwattr $C$DW$197, DW_AT_low_pc(_lcdDivFun)
    2157                      .dwattr $C$DW$197, DW_AT_high_pc(0x00)
    2158                      .dwattr $C$DW$197, DW_AT_TI_symbol_name("_lcdDivFun")
    2159                      .dwattr $C$DW$197, DW_AT_external
    2160                      .dwattr $C$DW$197, DW_AT_type(*$C$DW$T$19)
    2161                      .dwattr $C$DW$197, DW_AT_TI_begin_file("../c5535_bsl_revc/ezdsp5535_v1/c55xx_csl/ccs_v4.0_examples/lc
    2162                      .dwattr $C$DW$197, DW_AT_TI_begin_line(0x16c)
    2163                      .dwattr $C$DW$197, DW_AT_TI_begin_column(0x08)
    2164                      .dwattr $C$DW$197, DW_AT_TI_max_frame_size(0x04)
    2165                      .dwpsn  file "../c5535_bsl_revc/ezdsp5535_v1/c55xx_csl/ccs_v4.0_examples/lcd/CSL_LCDC_DiagramExample/
    2166              
    2167                      .dwfde $C$DW$CIE, _lcdDivFun
    2168              $C$DW$198       .dwtag  DW_TAG_formal_parameter, DW_AT_name("Dividend")
    2169                      .dwattr $C$DW$198, DW_AT_TI_symbol_name("_Dividend")
    2170                      .dwattr $C$DW$198, DW_AT_type(*$C$DW$T$19)
    2171                      .dwattr $C$DW$198, DW_AT_location[DW_OP_reg12]
    2172              $C$DW$199       .dwtag  DW_TAG_formal_parameter, DW_AT_name("Divisor")
    2173                      .dwattr $C$DW$199, DW_AT_TI_symbol_name("_Divisor")
    2174                      .dwattr $C$DW$199, DW_AT_type(*$C$DW$T$19)
    2175                      .dwattr $C$DW$199, DW_AT_location[DW_OP_reg13]
    2176              ;*******************************************************************************
    2177              ;* FUNCTION NAME: lcdDivFun                                                    *
    2178              ;*                                                                             *
    2179              ;*   Function Uses Regs : AC0,T0,T1,AR1,AR2,SP,CARRY,TC1,M40,SATA,SATD,RDM,    *
    2180              ;*                        FRCT,SMUL                                            *
    2181              ;*   Stack Frame        : Compact (No Frame Pointer, w/ debug)                 *
    2182              ;*   Total Frame Size   : 4 words                                              *
    2183              ;*                        (1 return address/alignment)                         *
    2184              ;*                        (3 local values)                                     *
    2185              ;*   Min System Stack   : 1 word                                               *
    2186              ;*******************************************************************************
    2187 000408       _lcdDivFun:
    2188                      .dwcfi  cfa_offset, 1
    2189                      .dwcfi  save_reg_to_mem, 91, -1
TMS320C55x Assembler PC v4.4.1 Sat Sep 29 23:09:22 2018

Tools Copyright (c) 1996-2012 Texas Instruments Incorporated
lcdc_panel.asm                                                       PAGE   44

    2190 000408 4EFD          AADD #-3, SP
    2191                      .dwcfi  cfa_offset, 4
    2192              $C$DW$200       .dwtag  DW_TAG_variable, DW_AT_name("Dividend")
    2193                      .dwattr $C$DW$200, DW_AT_TI_symbol_name("_Dividend")
    2194                      .dwattr $C$DW$200, DW_AT_type(*$C$DW$T$19)
    2195                      .dwattr $C$DW$200, DW_AT_location[DW_OP_bregx 0x24 0]
    2196              $C$DW$201       .dwtag  DW_TAG_variable, DW_AT_name("Divisor")
    2197                      .dwattr $C$DW$201, DW_AT_TI_symbol_name("_Divisor")
    2198                      .dwattr $C$DW$201, DW_AT_type(*$C$DW$T$19)
    2199                      .dwattr $C$DW$201, DW_AT_location[DW_OP_bregx 0x24 1]
    2200              $C$DW$202       .dwtag  DW_TAG_variable, DW_AT_name("Quoitient")
    2201                      .dwattr $C$DW$202, DW_AT_TI_symbol_name("_Quoitient")
    2202                      .dwattr $C$DW$202, DW_AT_type(*$C$DW$T$19)
    2203                      .dwattr $C$DW$202, DW_AT_location[DW_OP_bregx 0x24 2]
    2204 00040a C502          MOV T1, *SP(#1) ; |367| 
    2205 00040c C400          MOV T0, *SP(#0) ; |367| 
    2206                      .dwpsn  file "../c5535_bsl_revc/ezdsp5535_v1/c55xx_csl/ccs_v4.0_examples/lcd/CSL_LCDC_DiagramExample/
    2207 00040e E604          MOV #0, *SP(#2) ; |370| 
         000410 00   
    2208                      .dwpsn  file "../c5535_bsl_revc/ezdsp5535_v1/c55xx_csl/ccs_v4.0_examples/lcd/CSL_LCDC_DiagramExample/
    2209 000411 A902          MOV *SP(#1), AR1 ; |372| 
    2210 000413 AA00          MOV *SP(#0), AR2 ; |372| 
    2211 000415 12A4          CMPU AR2 < AR1, TC1 ; |372| 
         000417 94   
    2212 000418 0464          BCC $C$L27,TC1 ; |372| 
         00041a 15   
    2213                                                      ; branchcc occurs ; |372| 
    2214 00041b       $C$L26:    
    2215 00041b       $C$DW$L$_lcdDivFun$2$B:
    2216                      .dwpsn  file "../c5535_bsl_revc/ezdsp5535_v1/c55xx_csl/ccs_v4.0_examples/lcd/CSL_LCDC_DiagramExample/
    2217 00041b F704          ADD #1, *SP(#2) ; |374| 
         00041d 0001 
    2218                      .dwpsn  file "../c5535_bsl_revc/ezdsp5535_v1/c55xx_csl/ccs_v4.0_examples/lcd/CSL_LCDC_DiagramExample/
    2219 00041f A000          MOV *SP(#0), AC0 ; |375| 
    2220 000421 DF02          SUB uns(*SP(#1)), AC0, AC0 ; |375| 
         000423 0F   
    2221 000424 C000          MOV AC0, *SP(#0) ; |375| 
    2222                      .dwpsn  file "../c5535_bsl_revc/ezdsp5535_v1/c55xx_csl/ccs_v4.0_examples/lcd/CSL_LCDC_DiagramExample/
    2223              
    2224 000426 A902          MOV *SP(#1), AR1 ; |372| 
    2225 000428 230A  ||      MOV AC0, AR2 ; |372| 
    2226              
    2227 00042a 12A8          CMPU AR2 >= AR1, TC1 ; |372| 
         00042c 94   
    2228 00042d 0464          BCC $C$L26,TC1 ; |372| 
         00042f EB   
    2229                                                      ; branchcc occurs ; |372| 
    2230 000430       $C$DW$L$_lcdDivFun$2$E:
    2231 000430       $C$L27:    
    2232                      .dwpsn  file "../c5535_bsl_revc/ezdsp5535_v1/c55xx_csl/ccs_v4.0_examples/lcd/CSL_LCDC_DiagramExample/
    2233 000430 A404          MOV *SP(#2), T0 ; |377| 
    2234                      .dwpsn  file "../c5535_bsl_revc/ezdsp5535_v1/c55xx_csl/ccs_v4.0_examples/lcd/CSL_LCDC_DiagramExample/
    2235 000432 4E03          AADD #3, SP
    2236                      .dwcfi  cfa_offset, 1
    2237              $C$DW$203       .dwtag  DW_TAG_TI_branch
TMS320C55x Assembler PC v4.4.1 Sat Sep 29 23:09:22 2018

Tools Copyright (c) 1996-2012 Texas Instruments Incorporated
lcdc_panel.asm                                                       PAGE   45

    2238                      .dwattr $C$DW$203, DW_AT_low_pc(0x00)
    2239                      .dwattr $C$DW$203, DW_AT_TI_return
    2240 000434 4804          RET
    2241                                                      ; return occurs
    2242              
    2243              $C$DW$204       .dwtag  DW_TAG_TI_loop
    2244                      .dwattr $C$DW$204, DW_AT_name("F:\eZdsp_DBG\tmp1\c55x-sim2\foo\Debug\lcdc_panel.asm:$C$L26:1:15382877
    2245                      .dwattr $C$DW$204, DW_AT_TI_begin_file("../c5535_bsl_revc/ezdsp5535_v1/c55xx_csl/ccs_v4.0_examples/lc
    2246                      .dwattr $C$DW$204, DW_AT_TI_begin_line(0x174)
    2247                      .dwattr $C$DW$204, DW_AT_TI_end_line(0x178)
    2248              $C$DW$205       .dwtag  DW_TAG_TI_loop_range
    2249                      .dwattr $C$DW$205, DW_AT_low_pc($C$DW$L$_lcdDivFun$2$B)
    2250                      .dwattr $C$DW$205, DW_AT_high_pc($C$DW$L$_lcdDivFun$2$E)
    2251                      .dwendtag $C$DW$204
    2252              
    2253                      .dwattr $C$DW$197, DW_AT_TI_end_file("../c5535_bsl_revc/ezdsp5535_v1/c55xx_csl/ccs_v4.0_examples/lcd/
    2254                      .dwattr $C$DW$197, DW_AT_TI_end_line(0x17a)
    2255                      .dwattr $C$DW$197, DW_AT_TI_end_column(0x01)
    2256                      .dwendentry
    2257                      .dwendtag $C$DW$197
    2258              
    2259 000436               .sect   ".text"
    2260                      .align 4
    2261                      .global _lcdModuloDivFun
    2262              
    2263              $C$DW$206       .dwtag  DW_TAG_subprogram, DW_AT_name("lcdModuloDivFun")
    2264                      .dwattr $C$DW$206, DW_AT_low_pc(_lcdModuloDivFun)
    2265                      .dwattr $C$DW$206, DW_AT_high_pc(0x00)
    2266                      .dwattr $C$DW$206, DW_AT_TI_symbol_name("_lcdModuloDivFun")
    2267                      .dwattr $C$DW$206, DW_AT_external
    2268                      .dwattr $C$DW$206, DW_AT_type(*$C$DW$T$19)
    2269                      .dwattr $C$DW$206, DW_AT_TI_begin_file("../c5535_bsl_revc/ezdsp5535_v1/c55xx_csl/ccs_v4.0_examples/lc
    2270                      .dwattr $C$DW$206, DW_AT_TI_begin_line(0x185)
    2271                      .dwattr $C$DW$206, DW_AT_TI_begin_column(0x08)
    2272                      .dwattr $C$DW$206, DW_AT_TI_max_frame_size(0x04)
    2273                      .dwpsn  file "../c5535_bsl_revc/ezdsp5535_v1/c55xx_csl/ccs_v4.0_examples/lcd/CSL_LCDC_DiagramExample/
    2274              
    2275                      .dwfde $C$DW$CIE, _lcdModuloDivFun
    2276              $C$DW$207       .dwtag  DW_TAG_formal_parameter, DW_AT_name("Dividend")
    2277                      .dwattr $C$DW$207, DW_AT_TI_symbol_name("_Dividend")
    2278                      .dwattr $C$DW$207, DW_AT_type(*$C$DW$T$19)
    2279                      .dwattr $C$DW$207, DW_AT_location[DW_OP_reg12]
    2280              $C$DW$208       .dwtag  DW_TAG_formal_parameter, DW_AT_name("Divisor")
    2281                      .dwattr $C$DW$208, DW_AT_TI_symbol_name("_Divisor")
    2282                      .dwattr $C$DW$208, DW_AT_type(*$C$DW$T$19)
    2283                      .dwattr $C$DW$208, DW_AT_location[DW_OP_reg13]
    2284              ;*******************************************************************************
    2285              ;* FUNCTION NAME: lcdModuloDivFun                                              *
    2286              ;*                                                                             *
    2287              ;*   Function Uses Regs : AC0,T0,T1,AR1,AR2,SP,CARRY,TC1,M40,SATA,SATD,RDM,    *
    2288              ;*                        FRCT,SMUL                                            *
    2289              ;*   Stack Frame        : Compact (No Frame Pointer, w/ debug)                 *
    2290              ;*   Total Frame Size   : 4 words                                              *
    2291              ;*                        (2 return address/alignment)                         *
    2292              ;*                        (2 local values)                                     *
TMS320C55x Assembler PC v4.4.1 Sat Sep 29 23:09:22 2018

Tools Copyright (c) 1996-2012 Texas Instruments Incorporated
lcdc_panel.asm                                                       PAGE   46

    2293              ;*   Min System Stack   : 1 word                                               *
    2294              ;*******************************************************************************
    2295 000438       _lcdModuloDivFun:
    2296                      .dwcfi  cfa_offset, 1
    2297                      .dwcfi  save_reg_to_mem, 91, -1
    2298 000438 4EFD          AADD #-3, SP
    2299                      .dwcfi  cfa_offset, 4
    2300              $C$DW$209       .dwtag  DW_TAG_variable, DW_AT_name("Dividend")
    2301                      .dwattr $C$DW$209, DW_AT_TI_symbol_name("_Dividend")
    2302                      .dwattr $C$DW$209, DW_AT_type(*$C$DW$T$19)
    2303                      .dwattr $C$DW$209, DW_AT_location[DW_OP_bregx 0x24 0]
    2304              $C$DW$210       .dwtag  DW_TAG_variable, DW_AT_name("Divisor")
    2305                      .dwattr $C$DW$210, DW_AT_TI_symbol_name("_Divisor")
    2306                      .dwattr $C$DW$210, DW_AT_type(*$C$DW$T$19)
    2307                      .dwattr $C$DW$210, DW_AT_location[DW_OP_bregx 0x24 1]
    2308 00043a C502          MOV T1, *SP(#1) ; |392| 
    2309 00043c C400          MOV T0, *SP(#0) ; |392| 
    2310                      .dwpsn  file "../c5535_bsl_revc/ezdsp5535_v1/c55xx_csl/ccs_v4.0_examples/lcd/CSL_LCDC_DiagramExample/
    2311              
    2312 00043e A902          MOV *SP(#1), AR1 ; |393| 
    2313 000440 234A  ||      MOV T0, AR2 ; |393| 
    2314              
    2315 000442 12A4          CMPU AR2 < AR1, TC1 ; |393| 
         000444 94   
    2316 000445 0464          BCC $C$L29,TC1 ; |393| 
         000447 11   
    2317                                                      ; branchcc occurs ; |393| 
    2318 000448       $C$L28:    
    2319 000448       $C$DW$L$_lcdModuloDivFun$2$B:
    2320                      .dwpsn  file "../c5535_bsl_revc/ezdsp5535_v1/c55xx_csl/ccs_v4.0_examples/lcd/CSL_LCDC_DiagramExample/
    2321 000448 22A0          MOV AR2, AC0
    2322 00044a DF02          SUB uns(*SP(#1)), AC0, AC0 ; |395| 
         00044c 0F   
    2323 00044d C000          MOV AC0, *SP(#0) ; |395| 
    2324                      .dwpsn  file "../c5535_bsl_revc/ezdsp5535_v1/c55xx_csl/ccs_v4.0_examples/lcd/CSL_LCDC_DiagramExample/
    2325              
    2326 000451 230A          MOV AC0, AR2 ; |393| 
    2327 00044f A902  ||      MOV *SP(#1), AR1 ; |393| 
    2328              
    2329 000453 12A8          CMPU AR2 >= AR1, TC1 ; |393| 
         000455 94   
    2330 000456 0464          BCC $C$L28,TC1 ; |393| 
         000458 EF   
    2331                                                      ; branchcc occurs ; |393| 
    2332 000459       $C$DW$L$_lcdModuloDivFun$2$E:
    2333 000459       $C$L29:    
    2334                      .dwpsn  file "../c5535_bsl_revc/ezdsp5535_v1/c55xx_csl/ccs_v4.0_examples/lcd/CSL_LCDC_DiagramExample/
    2335 000459 22A4          MOV AR2, T0
    2336                      .dwpsn  file "../c5535_bsl_revc/ezdsp5535_v1/c55xx_csl/ccs_v4.0_examples/lcd/CSL_LCDC_DiagramExample/
    2337 00045b 4E03          AADD #3, SP
    2338                      .dwcfi  cfa_offset, 1
    2339              $C$DW$211       .dwtag  DW_TAG_TI_branch
    2340                      .dwattr $C$DW$211, DW_AT_low_pc(0x00)
    2341                      .dwattr $C$DW$211, DW_AT_TI_return
    2342 00045d 4804          RET
TMS320C55x Assembler PC v4.4.1 Sat Sep 29 23:09:22 2018

Tools Copyright (c) 1996-2012 Texas Instruments Incorporated
lcdc_panel.asm                                                       PAGE   47

    2343                                                      ; return occurs
    2344              
    2345              $C$DW$212       .dwtag  DW_TAG_TI_loop
    2346                      .dwattr $C$DW$212, DW_AT_name("F:\eZdsp_DBG\tmp1\c55x-sim2\foo\Debug\lcdc_panel.asm:$C$L28:1:15382877
    2347                      .dwattr $C$DW$212, DW_AT_TI_begin_file("../c5535_bsl_revc/ezdsp5535_v1/c55xx_csl/ccs_v4.0_examples/lc
    2348                      .dwattr $C$DW$212, DW_AT_TI_begin_line(0x189)
    2349                      .dwattr $C$DW$212, DW_AT_TI_end_line(0x18c)
    2350              $C$DW$213       .dwtag  DW_TAG_TI_loop_range
    2351                      .dwattr $C$DW$213, DW_AT_low_pc($C$DW$L$_lcdModuloDivFun$2$B)
    2352                      .dwattr $C$DW$213, DW_AT_high_pc($C$DW$L$_lcdModuloDivFun$2$E)
    2353                      .dwendtag $C$DW$212
    2354              
    2355                      .dwattr $C$DW$206, DW_AT_TI_end_file("../c5535_bsl_revc/ezdsp5535_v1/c55xx_csl/ccs_v4.0_examples/lcd/
    2356                      .dwattr $C$DW$206, DW_AT_TI_end_line(0x18e)
    2357                      .dwattr $C$DW$206, DW_AT_TI_end_column(0x01)
    2358                      .dwendentry
    2359                      .dwendtag $C$DW$206
    2360              
    2361 00045f               .sect   ".text"
    2362                      .align 4
    2363                      .global _panelSetup
    2364              
    2365              $C$DW$214       .dwtag  DW_TAG_subprogram, DW_AT_name("panelSetup")
    2366                      .dwattr $C$DW$214, DW_AT_low_pc(_panelSetup)
    2367                      .dwattr $C$DW$214, DW_AT_high_pc(0x00)
    2368                      .dwattr $C$DW$214, DW_AT_TI_symbol_name("_panelSetup")
    2369                      .dwattr $C$DW$214, DW_AT_external
    2370                      .dwattr $C$DW$214, DW_AT_TI_begin_file("../c5535_bsl_revc/ezdsp5535_v1/c55xx_csl/ccs_v4.0_examples/lc
    2371                      .dwattr $C$DW$214, DW_AT_TI_begin_line(0x197)
    2372                      .dwattr $C$DW$214, DW_AT_TI_begin_column(0x06)
    2373                      .dwattr $C$DW$214, DW_AT_TI_max_frame_size(0x02)
    2374                      .dwpsn  file "../c5535_bsl_revc/ezdsp5535_v1/c55xx_csl/ccs_v4.0_examples/lcd/CSL_LCDC_DiagramExample/
    2375              
    2376                      .dwfde $C$DW$CIE, _panelSetup
    2377              $C$DW$215       .dwtag  DW_TAG_formal_parameter, DW_AT_name("cs_flag")
    2378                      .dwattr $C$DW$215, DW_AT_TI_symbol_name("_cs_flag")
    2379                      .dwattr $C$DW$215, DW_AT_type(*$C$DW$T$19)
    2380                      .dwattr $C$DW$215, DW_AT_location[DW_OP_reg12]
    2381              ;*******************************************************************************
    2382              ;* FUNCTION NAME: panelSetup                                                   *
    2383              ;*                                                                             *
    2384              ;*   Function Uses Regs : T0,T1,SP,M40,SATA,SATD,RDM,FRCT,SMUL                 *
    2385              ;*   Stack Frame        : Compact (No Frame Pointer, w/ debug)                 *
    2386              ;*   Total Frame Size   : 2 words                                              *
    2387              ;*                        (1 return address/alignment)                         *
    2388              ;*                        (1 local values)                                     *
    2389              ;*   Min System Stack   : 1 word                                               *
    2390              ;*******************************************************************************
    2391 000460       _panelSetup:
    2392                      .dwcfi  cfa_offset, 1
    2393                      .dwcfi  save_reg_to_mem, 91, -1
    2394 000460 4EFF          AADD #-1, SP
    2395                      .dwcfi  cfa_offset, 2
    2396              $C$DW$216       .dwtag  DW_TAG_variable, DW_AT_name("cs_flag")
    2397                      .dwattr $C$DW$216, DW_AT_TI_symbol_name("_cs_flag")
TMS320C55x Assembler PC v4.4.1 Sat Sep 29 23:09:22 2018

Tools Copyright (c) 1996-2012 Texas Instruments Incorporated
lcdc_panel.asm                                                       PAGE   48

    2398                      .dwattr $C$DW$216, DW_AT_type(*$C$DW$T$19)
    2399                      .dwattr $C$DW$216, DW_AT_location[DW_OP_bregx 0x24 0]
    2400 000462 C400          MOV T0, *SP(#0) ; |409| 
    2401                      .dwpsn  file "../c5535_bsl_revc/ezdsp5535_v1/c55xx_csl/ccs_v4.0_examples/lcd/CSL_LCDC_DiagramExample/
    2402 000464 7600          MOV #174, T0 ; |462| 
         000466 AE48 
    2403 000468 A500          MOV *SP(#0), T1 ; |462| 
    2404              $C$DW$217       .dwtag  DW_TAG_TI_branch
    2405                      .dwattr $C$DW$217, DW_AT_low_pc(0x00)
    2406                      .dwattr $C$DW$217, DW_AT_name("_cmdWrite")
    2407                      .dwattr $C$DW$217, DW_AT_TI_call
    2408 00046a 08FE          CALL #_cmdWrite ; |462| 
         00046c 1B   
    2409                                                      ; call occurs [#_cmdWrite] ; |462| 
    2410                      .dwpsn  file "../c5535_bsl_revc/ezdsp5535_v1/c55xx_csl/ccs_v4.0_examples/lcd/CSL_LCDC_DiagramExample/
    2411 00046d 7600          MOV #253, T0 ; |464| 
         00046f FD48 
    2412 000471 A500          MOV *SP(#0), T1 ; |464| 
    2413              $C$DW$218       .dwtag  DW_TAG_TI_branch
    2414                      .dwattr $C$DW$218, DW_AT_low_pc(0x00)
    2415                      .dwattr $C$DW$218, DW_AT_name("_cmdWrite")
    2416                      .dwattr $C$DW$218, DW_AT_TI_call
    2417 000473 08FE          CALL #_cmdWrite ; |464| 
         000475 12   
    2418                                                      ; call occurs [#_cmdWrite] ; |464| 
    2419                      .dwpsn  file "../c5535_bsl_revc/ezdsp5535_v1/c55xx_csl/ccs_v4.0_examples/lcd/CSL_LCDC_DiagramExample/
    2420 000476 7600          MOV #18, T0 ; |465| 
         000478 1248 
    2421 00047a A500          MOV *SP(#0), T1 ; |465| 
    2422              $C$DW$219       .dwtag  DW_TAG_TI_branch
    2423                      .dwattr $C$DW$219, DW_AT_low_pc(0x00)
    2424                      .dwattr $C$DW$219, DW_AT_name("_dataWrite")
    2425                      .dwattr $C$DW$219, DW_AT_TI_call
    2426 00047c 08FE          CALL #_dataWrite ; |465| 
         00047e 21   
    2427                                                      ; call occurs [#_dataWrite] ; |465| 
    2428                      .dwpsn  file "../c5535_bsl_revc/ezdsp5535_v1/c55xx_csl/ccs_v4.0_examples/lcd/CSL_LCDC_DiagramExample/
    2429 00047f 7600          MOV #253, T0 ; |466| 
         000481 FD48 
    2430 000483 A500          MOV *SP(#0), T1 ; |466| 
    2431              $C$DW$220       .dwtag  DW_TAG_TI_branch
    2432                      .dwattr $C$DW$220, DW_AT_low_pc(0x00)
    2433                      .dwattr $C$DW$220, DW_AT_name("_cmdWrite")
    2434                      .dwattr $C$DW$220, DW_AT_TI_call
    2435 000485 08FE          CALL #_cmdWrite ; |466| 
         000487 00   
    2436                                                      ; call occurs [#_cmdWrite] ; |466| 
    2437                      .dwpsn  file "../c5535_bsl_revc/ezdsp5535_v1/c55xx_csl/ccs_v4.0_examples/lcd/CSL_LCDC_DiagramExample/
    2438 000488 7600          MOV #177, T0 ; |467| 
         00048a B148 
    2439 00048c A500          MOV *SP(#0), T1 ; |467| 
    2440              $C$DW$221       .dwtag  DW_TAG_TI_branch
    2441                      .dwattr $C$DW$221, DW_AT_low_pc(0x00)
    2442                      .dwattr $C$DW$221, DW_AT_name("_dataWrite")
    2443                      .dwattr $C$DW$221, DW_AT_TI_call
TMS320C55x Assembler PC v4.4.1 Sat Sep 29 23:09:22 2018

Tools Copyright (c) 1996-2012 Texas Instruments Incorporated
lcdc_panel.asm                                                       PAGE   49

    2444 00048e 08FE          CALL #_dataWrite ; |467| 
         000490 0F   
    2445                                                      ; call occurs [#_dataWrite] ; |467| 
    2446                      .dwpsn  file "../c5535_bsl_revc/ezdsp5535_v1/c55xx_csl/ccs_v4.0_examples/lcd/CSL_LCDC_DiagramExample/
    2447 000491 7600          MOV #174, T0 ; |468| 
         000493 AE48 
    2448 000495 A500          MOV *SP(#0), T1 ; |468| 
    2449              $C$DW$222       .dwtag  DW_TAG_TI_branch
    2450                      .dwattr $C$DW$222, DW_AT_low_pc(0x00)
    2451                      .dwattr $C$DW$222, DW_AT_name("_cmdWrite")
    2452                      .dwattr $C$DW$222, DW_AT_TI_call
    2453 000497 08FD          CALL #_cmdWrite ; |468| 
         000499 EE   
    2454                                                      ; call occurs [#_cmdWrite] ; |468| 
    2455                      .dwpsn  file "../c5535_bsl_revc/ezdsp5535_v1/c55xx_csl/ccs_v4.0_examples/lcd/CSL_LCDC_DiagramExample/
    2456 00049a 7600          MOV #179, T0 ; |469| 
         00049c B348 
    2457 00049e A500          MOV *SP(#0), T1 ; |469| 
    2458              $C$DW$223       .dwtag  DW_TAG_TI_branch
    2459                      .dwattr $C$DW$223, DW_AT_low_pc(0x00)
    2460                      .dwattr $C$DW$223, DW_AT_name("_cmdWrite")
    2461                      .dwattr $C$DW$223, DW_AT_TI_call
    2462 0004a0 08FD          CALL #_cmdWrite ; |469| 
         0004a2 E5   
    2463                                                      ; call occurs [#_cmdWrite] ; |469| 
    2464                      .dwpsn  file "../c5535_bsl_revc/ezdsp5535_v1/c55xx_csl/ccs_v4.0_examples/lcd/CSL_LCDC_DiagramExample/
    2465 0004a3 7600          MOV #241, T0 ; |470| 
         0004a5 F148 
    2466 0004a7 A500          MOV *SP(#0), T1 ; |470| 
    2467              $C$DW$224       .dwtag  DW_TAG_TI_branch
    2468                      .dwattr $C$DW$224, DW_AT_low_pc(0x00)
    2469                      .dwattr $C$DW$224, DW_AT_name("_dataWrite")
    2470                      .dwattr $C$DW$224, DW_AT_TI_call
    2471 0004a9 08FD          CALL #_dataWrite ; |470| 
         0004ab F4   
    2472                                                      ; call occurs [#_dataWrite] ; |470| 
    2473                      .dwpsn  file "../c5535_bsl_revc/ezdsp5535_v1/c55xx_csl/ccs_v4.0_examples/lcd/CSL_LCDC_DiagramExample/
    2474 0004ac 7600          MOV #202, T0 ; |471| 
         0004ae CA48 
    2475 0004b0 A500          MOV *SP(#0), T1 ; |471| 
    2476              $C$DW$225       .dwtag  DW_TAG_TI_branch
    2477                      .dwattr $C$DW$225, DW_AT_low_pc(0x00)
    2478                      .dwattr $C$DW$225, DW_AT_name("_cmdWrite")
    2479                      .dwattr $C$DW$225, DW_AT_TI_call
    2480 0004b2 08FD          CALL #_cmdWrite ; |471| 
         0004b4 D3   
    2481                                                      ; call occurs [#_cmdWrite] ; |471| 
    2482                      .dwpsn  file "../c5535_bsl_revc/ezdsp5535_v1/c55xx_csl/ccs_v4.0_examples/lcd/CSL_LCDC_DiagramExample/
    2483 0004b5 7600          MOV #127, T0 ; |472| 
         0004b7 7F48 
    2484 0004b9 A500          MOV *SP(#0), T1 ; |472| 
    2485              $C$DW$226       .dwtag  DW_TAG_TI_branch
    2486                      .dwattr $C$DW$226, DW_AT_low_pc(0x00)
    2487                      .dwattr $C$DW$226, DW_AT_name("_dataWrite")
    2488                      .dwattr $C$DW$226, DW_AT_TI_call
TMS320C55x Assembler PC v4.4.1 Sat Sep 29 23:09:22 2018

Tools Copyright (c) 1996-2012 Texas Instruments Incorporated
lcdc_panel.asm                                                       PAGE   50

    2489 0004bb 08FD          CALL #_dataWrite ; |472| 
         0004bd E2   
    2490                                                      ; call occurs [#_dataWrite] ; |472| 
    2491                      .dwpsn  file "../c5535_bsl_revc/ezdsp5535_v1/c55xx_csl/ccs_v4.0_examples/lcd/CSL_LCDC_DiagramExample/
    2492 0004be 7600          MOV #162, T0 ; |473| 
         0004c0 A248 
    2493 0004c2 A500          MOV *SP(#0), T1 ; |473| 
    2494              $C$DW$227       .dwtag  DW_TAG_TI_branch
    2495                      .dwattr $C$DW$227, DW_AT_low_pc(0x00)
    2496                      .dwattr $C$DW$227, DW_AT_name("_cmdWrite")
    2497                      .dwattr $C$DW$227, DW_AT_TI_call
    2498 0004c4 08FD          CALL #_cmdWrite ; |473| 
         0004c6 C1   
    2499                                                      ; call occurs [#_cmdWrite] ; |473| 
    2500                      .dwpsn  file "../c5535_bsl_revc/ezdsp5535_v1/c55xx_csl/ccs_v4.0_examples/lcd/CSL_LCDC_DiagramExample/
    2501 0004c7 A500          MOV *SP(#0), T1 ; |474| 
    2502              $C$DW$228       .dwtag  DW_TAG_TI_branch
    2503                      .dwattr $C$DW$228, DW_AT_low_pc(0x00)
    2504                      .dwattr $C$DW$228, DW_AT_name("_dataWrite")
    2505                      .dwattr $C$DW$228, DW_AT_TI_call
    2506              
    2507 0004c9 08FD          CALL #_dataWrite ; |474| 
         0004cb D2   
    2508 0004cc 3D04  ||      MOV #0, T0
    2509              
    2510                                                      ; call occurs [#_dataWrite] ; |474| 
    2511                      .dwpsn  file "../c5535_bsl_revc/ezdsp5535_v1/c55xx_csl/ccs_v4.0_examples/lcd/CSL_LCDC_DiagramExample/
    2512 0004ce 7600          MOV #161, T0 ; |475| 
         0004d0 A148 
    2513 0004d2 A500          MOV *SP(#0), T1 ; |475| 
    2514              $C$DW$229       .dwtag  DW_TAG_TI_branch
    2515                      .dwattr $C$DW$229, DW_AT_low_pc(0x00)
    2516                      .dwattr $C$DW$229, DW_AT_name("_cmdWrite")
    2517                      .dwattr $C$DW$229, DW_AT_TI_call
    2518 0004d4 08FD          CALL #_cmdWrite ; |475| 
         0004d6 B1   
    2519                                                      ; call occurs [#_cmdWrite] ; |475| 
    2520                      .dwpsn  file "../c5535_bsl_revc/ezdsp5535_v1/c55xx_csl/ccs_v4.0_examples/lcd/CSL_LCDC_DiagramExample/
    2521 0004d7 A500          MOV *SP(#0), T1 ; |476| 
    2522              $C$DW$230       .dwtag  DW_TAG_TI_branch
    2523                      .dwattr $C$DW$230, DW_AT_low_pc(0x00)
    2524                      .dwattr $C$DW$230, DW_AT_name("_dataWrite")
    2525                      .dwattr $C$DW$230, DW_AT_TI_call
    2526              
    2527 0004d9 08FD          CALL #_dataWrite ; |476| 
         0004db C2   
    2528 0004dc 3D04  ||      MOV #0, T0
    2529              
    2530                                                      ; call occurs [#_dataWrite] ; |476| 
    2531                      .dwpsn  file "../c5535_bsl_revc/ezdsp5535_v1/c55xx_csl/ccs_v4.0_examples/lcd/CSL_LCDC_DiagramExample/
    2532 0004de 7600          MOV #160, T0 ; |477| 
         0004e0 A048 
    2533 0004e2 A500          MOV *SP(#0), T1 ; |477| 
    2534              $C$DW$231       .dwtag  DW_TAG_TI_branch
    2535                      .dwattr $C$DW$231, DW_AT_low_pc(0x00)
TMS320C55x Assembler PC v4.4.1 Sat Sep 29 23:09:22 2018

Tools Copyright (c) 1996-2012 Texas Instruments Incorporated
lcdc_panel.asm                                                       PAGE   51

    2536                      .dwattr $C$DW$231, DW_AT_name("_cmdWrite")
    2537                      .dwattr $C$DW$231, DW_AT_TI_call
    2538 0004e4 08FD          CALL #_cmdWrite ; |477| 
         0004e6 A1   
    2539                                                      ; call occurs [#_cmdWrite] ; |477| 
    2540                      .dwpsn  file "../c5535_bsl_revc/ezdsp5535_v1/c55xx_csl/ccs_v4.0_examples/lcd/CSL_LCDC_DiagramExample/
    2541 0004e7 7600          MOV #112, T0 ; |481| 
         0004e9 7048 
    2542 0004eb A500          MOV *SP(#0), T1 ; |481| 
    2543              $C$DW$232       .dwtag  DW_TAG_TI_branch
    2544                      .dwattr $C$DW$232, DW_AT_low_pc(0x00)
    2545                      .dwattr $C$DW$232, DW_AT_name("_dataWrite")
    2546                      .dwattr $C$DW$232, DW_AT_TI_call
    2547 0004ed 08FD          CALL #_dataWrite ; |481| 
         0004ef B0   
    2548                                                      ; call occurs [#_dataWrite] ; |481| 
    2549                      .dwpsn  file "../c5535_bsl_revc/ezdsp5535_v1/c55xx_csl/ccs_v4.0_examples/lcd/CSL_LCDC_DiagramExample/
    2550 0004f0 7600          MOV #181, T0 ; |483| 
         0004f2 B548 
    2551 0004f4 A500          MOV *SP(#0), T1 ; |483| 
    2552              $C$DW$233       .dwtag  DW_TAG_TI_branch
    2553                      .dwattr $C$DW$233, DW_AT_low_pc(0x00)
    2554                      .dwattr $C$DW$233, DW_AT_name("_cmdWrite")
    2555                      .dwattr $C$DW$233, DW_AT_TI_call
    2556 0004f6 08FD          CALL #_cmdWrite ; |483| 
         0004f8 8F   
    2557                                                      ; call occurs [#_cmdWrite] ; |483| 
    2558                      .dwpsn  file "../c5535_bsl_revc/ezdsp5535_v1/c55xx_csl/ccs_v4.0_examples/lcd/CSL_LCDC_DiagramExample/
    2559 0004f9 A500          MOV *SP(#0), T1 ; |484| 
    2560              $C$DW$234       .dwtag  DW_TAG_TI_branch
    2561                      .dwattr $C$DW$234, DW_AT_low_pc(0x00)
    2562                      .dwattr $C$DW$234, DW_AT_name("_dataWrite")
    2563                      .dwattr $C$DW$234, DW_AT_TI_call
    2564              
    2565 0004fb 08FD          CALL #_dataWrite ; |484| 
         0004fd A0   
    2566 0004fe 3D04  ||      MOV #0, T0
    2567              
    2568                                                      ; call occurs [#_dataWrite] ; |484| 
    2569                      .dwpsn  file "../c5535_bsl_revc/ezdsp5535_v1/c55xx_csl/ccs_v4.0_examples/lcd/CSL_LCDC_DiagramExample/
    2570 000500 7600          MOV #171, T0 ; |485| 
         000502 AB48 
    2571 000504 A500          MOV *SP(#0), T1 ; |485| 
    2572              $C$DW$235       .dwtag  DW_TAG_TI_branch
    2573                      .dwattr $C$DW$235, DW_AT_low_pc(0x00)
    2574                      .dwattr $C$DW$235, DW_AT_name("_cmdWrite")
    2575                      .dwattr $C$DW$235, DW_AT_TI_call
    2576 000506 08FD          CALL #_cmdWrite ; |485| 
         000508 7F   
    2577                                                      ; call occurs [#_cmdWrite] ; |485| 
    2578                      .dwpsn  file "../c5535_bsl_revc/ezdsp5535_v1/c55xx_csl/ccs_v4.0_examples/lcd/CSL_LCDC_DiagramExample/
    2579 000509 A500          MOV *SP(#0), T1 ; |486| 
    2580              $C$DW$236       .dwtag  DW_TAG_TI_branch
    2581                      .dwattr $C$DW$236, DW_AT_low_pc(0x00)
    2582                      .dwattr $C$DW$236, DW_AT_name("_dataWrite")
TMS320C55x Assembler PC v4.4.1 Sat Sep 29 23:09:22 2018

Tools Copyright (c) 1996-2012 Texas Instruments Incorporated
lcdc_panel.asm                                                       PAGE   52

    2583                      .dwattr $C$DW$236, DW_AT_TI_call
    2584              
    2585 00050b 08FD          CALL #_dataWrite ; |486| 
         00050d 90   
    2586 00050e 3D14  ||      MOV #1, T0
    2587              
    2588                                                      ; call occurs [#_dataWrite] ; |486| 
    2589                      .dwpsn  file "../c5535_bsl_revc/ezdsp5535_v1/c55xx_csl/ccs_v4.0_examples/lcd/CSL_LCDC_DiagramExample/
    2590 000510 7600          MOV #180, T0 ; |487| 
         000512 B448 
    2591 000514 A500          MOV *SP(#0), T1 ; |487| 
    2592              $C$DW$237       .dwtag  DW_TAG_TI_branch
    2593                      .dwattr $C$DW$237, DW_AT_low_pc(0x00)
    2594                      .dwattr $C$DW$237, DW_AT_name("_cmdWrite")
    2595                      .dwattr $C$DW$237, DW_AT_TI_call
    2596 000516 08FD          CALL #_cmdWrite ; |487| 
         000518 6F   
    2597                                                      ; call occurs [#_cmdWrite] ; |487| 
    2598                      .dwpsn  file "../c5535_bsl_revc/ezdsp5535_v1/c55xx_csl/ccs_v4.0_examples/lcd/CSL_LCDC_DiagramExample/
    2599 000519 7600          MOV #160, T0 ; |488| 
         00051b A048 
    2600 00051d A500          MOV *SP(#0), T1 ; |488| 
    2601              $C$DW$238       .dwtag  DW_TAG_TI_branch
    2602                      .dwattr $C$DW$238, DW_AT_low_pc(0x00)
    2603                      .dwattr $C$DW$238, DW_AT_name("_dataWrite")
    2604                      .dwattr $C$DW$238, DW_AT_TI_call
    2605 00051f 08FD          CALL #_dataWrite ; |488| 
         000521 7E   
    2606                                                      ; call occurs [#_dataWrite] ; |488| 
    2607                      .dwpsn  file "../c5535_bsl_revc/ezdsp5535_v1/c55xx_csl/ccs_v4.0_examples/lcd/CSL_LCDC_DiagramExample/
    2608 000522 A500          MOV *SP(#0), T1 ; |489| 
    2609 000524 7600          MOV #181, T0 ; |489| 
         000526 B548 
    2610              $C$DW$239       .dwtag  DW_TAG_TI_branch
    2611                      .dwattr $C$DW$239, DW_AT_low_pc(0x00)
    2612                      .dwattr $C$DW$239, DW_AT_name("_dataWrite")
    2613                      .dwattr $C$DW$239, DW_AT_TI_call
    2614 000528 08FD          CALL #_dataWrite ; |489| 
         00052a 75   
    2615                                                      ; call occurs [#_dataWrite] ; |489| 
    2616                      .dwpsn  file "../c5535_bsl_revc/ezdsp5535_v1/c55xx_csl/ccs_v4.0_examples/lcd/CSL_LCDC_DiagramExample/
    2617 00052b 7600          MOV #85, T0 ; |490| 
         00052d 5548 
    2618 00052f A500          MOV *SP(#0), T1 ; |490| 
    2619              $C$DW$240       .dwtag  DW_TAG_TI_branch
    2620                      .dwattr $C$DW$240, DW_AT_low_pc(0x00)
    2621                      .dwattr $C$DW$240, DW_AT_name("_dataWrite")
    2622                      .dwattr $C$DW$240, DW_AT_TI_call
    2623 000531 08FD          CALL #_dataWrite ; |490| 
         000533 6C   
    2624                                                      ; call occurs [#_dataWrite] ; |490| 
    2625                      .dwpsn  file "../c5535_bsl_revc/ezdsp5535_v1/c55xx_csl/ccs_v4.0_examples/lcd/CSL_LCDC_DiagramExample/
    2626 000534 7600          MOV #193, T0 ; |491| 
         000536 C148 
    2627 000538 A500          MOV *SP(#0), T1 ; |491| 
TMS320C55x Assembler PC v4.4.1 Sat Sep 29 23:09:22 2018

Tools Copyright (c) 1996-2012 Texas Instruments Incorporated
lcdc_panel.asm                                                       PAGE   53

    2628              $C$DW$241       .dwtag  DW_TAG_TI_branch
    2629                      .dwattr $C$DW$241, DW_AT_low_pc(0x00)
    2630                      .dwattr $C$DW$241, DW_AT_name("_cmdWrite")
    2631                      .dwattr $C$DW$241, DW_AT_TI_call
    2632 00053a 08FD          CALL #_cmdWrite ; |491| 
         00053c 4B   
    2633                                                      ; call occurs [#_cmdWrite] ; |491| 
    2634                      .dwpsn  file "../c5535_bsl_revc/ezdsp5535_v1/c55xx_csl/ccs_v4.0_examples/lcd/CSL_LCDC_DiagramExample/
    2635 00053d 7600          MOV #200, T0 ; |492| 
         00053f C848 
    2636 000541 A500          MOV *SP(#0), T1 ; |492| 
    2637              $C$DW$242       .dwtag  DW_TAG_TI_branch
    2638                      .dwattr $C$DW$242, DW_AT_low_pc(0x00)
    2639                      .dwattr $C$DW$242, DW_AT_name("_dataWrite")
    2640                      .dwattr $C$DW$242, DW_AT_TI_call
    2641 000543 08FD          CALL #_dataWrite ; |492| 
         000545 5A   
    2642                                                      ; call occurs [#_dataWrite] ; |492| 
    2643                      .dwpsn  file "../c5535_bsl_revc/ezdsp5535_v1/c55xx_csl/ccs_v4.0_examples/lcd/CSL_LCDC_DiagramExample/
    2644 000546 7600          MOV #128, T0 ; |493| 
         000548 8048 
    2645 00054a A500          MOV *SP(#0), T1 ; |493| 
    2646              $C$DW$243       .dwtag  DW_TAG_TI_branch
    2647                      .dwattr $C$DW$243, DW_AT_low_pc(0x00)
    2648                      .dwattr $C$DW$243, DW_AT_name("_dataWrite")
    2649                      .dwattr $C$DW$243, DW_AT_TI_call
    2650 00054c 08FD          CALL #_dataWrite ; |493| 
         00054e 51   
    2651                                                      ; call occurs [#_dataWrite] ; |493| 
    2652                      .dwpsn  file "../c5535_bsl_revc/ezdsp5535_v1/c55xx_csl/ccs_v4.0_examples/lcd/CSL_LCDC_DiagramExample/
    2653 00054f 7600          MOV #200, T0 ; |494| 
         000551 C848 
    2654 000553 A500          MOV *SP(#0), T1 ; |494| 
    2655              $C$DW$244       .dwtag  DW_TAG_TI_branch
    2656                      .dwattr $C$DW$244, DW_AT_low_pc(0x00)
    2657                      .dwattr $C$DW$244, DW_AT_name("_dataWrite")
    2658                      .dwattr $C$DW$244, DW_AT_TI_call
    2659 000555 08FD          CALL #_dataWrite ; |494| 
         000557 48   
    2660                                                      ; call occurs [#_dataWrite] ; |494| 
    2661                      .dwpsn  file "../c5535_bsl_revc/ezdsp5535_v1/c55xx_csl/ccs_v4.0_examples/lcd/CSL_LCDC_DiagramExample/
    2662 000558 7600          MOV #199, T0 ; |495| 
         00055a C748 
    2663 00055c A500          MOV *SP(#0), T1 ; |495| 
    2664              $C$DW$245       .dwtag  DW_TAG_TI_branch
    2665                      .dwattr $C$DW$245, DW_AT_low_pc(0x00)
    2666                      .dwattr $C$DW$245, DW_AT_name("_cmdWrite")
    2667                      .dwattr $C$DW$245, DW_AT_TI_call
    2668 00055e 08FD          CALL #_cmdWrite ; |495| 
         000560 27   
    2669                                                      ; call occurs [#_cmdWrite] ; |495| 
    2670                      .dwpsn  file "../c5535_bsl_revc/ezdsp5535_v1/c55xx_csl/ccs_v4.0_examples/lcd/CSL_LCDC_DiagramExample/
    2671 000561 A500          MOV *SP(#0), T1 ; |496| 
    2672              $C$DW$246       .dwtag  DW_TAG_TI_branch
    2673                      .dwattr $C$DW$246, DW_AT_low_pc(0x00)
TMS320C55x Assembler PC v4.4.1 Sat Sep 29 23:09:22 2018

Tools Copyright (c) 1996-2012 Texas Instruments Incorporated
lcdc_panel.asm                                                       PAGE   54

    2674                      .dwattr $C$DW$246, DW_AT_name("_dataWrite")
    2675                      .dwattr $C$DW$246, DW_AT_TI_call
    2676              
    2677 000563 08FD          CALL #_dataWrite ; |496| 
         000565 38   
    2678 000566 3DF4  ||      MOV #15, T0
    2679              
    2680                                                      ; call occurs [#_dataWrite] ; |496| 
    2681                      .dwpsn  file "../c5535_bsl_revc/ezdsp5535_v1/c55xx_csl/ccs_v4.0_examples/lcd/CSL_LCDC_DiagramExample/
    2682 000568 7600          MOV #184, T0 ; |497| 
         00056a B848 
    2683 00056c A500          MOV *SP(#0), T1 ; |497| 
    2684              $C$DW$247       .dwtag  DW_TAG_TI_branch
    2685                      .dwattr $C$DW$247, DW_AT_low_pc(0x00)
    2686                      .dwattr $C$DW$247, DW_AT_name("_cmdWrite")
    2687                      .dwattr $C$DW$247, DW_AT_TI_call
    2688 00056e 08FD          CALL #_cmdWrite ; |497| 
         000570 17   
    2689                                                      ; call occurs [#_cmdWrite] ; |497| 
    2690                      .dwpsn  file "../c5535_bsl_revc/ezdsp5535_v1/c55xx_csl/ccs_v4.0_examples/lcd/CSL_LCDC_DiagramExample/
    2691 000571 A500          MOV *SP(#0), T1 ; |498| 
    2692              $C$DW$248       .dwtag  DW_TAG_TI_branch
    2693                      .dwattr $C$DW$248, DW_AT_low_pc(0x00)
    2694                      .dwattr $C$DW$248, DW_AT_name("_dataWrite")
    2695                      .dwattr $C$DW$248, DW_AT_TI_call
    2696              
    2697 000573 08FD          CALL #_dataWrite ; |498| 
         000575 28   
    2698 000576 3D24  ||      MOV #2, T0
    2699              
    2700                                                      ; call occurs [#_dataWrite] ; |498| 
    2701                      .dwpsn  file "../c5535_bsl_revc/ezdsp5535_v1/c55xx_csl/ccs_v4.0_examples/lcd/CSL_LCDC_DiagramExample/
    2702 000578 A500          MOV *SP(#0), T1 ; |499| 
    2703              $C$DW$249       .dwtag  DW_TAG_TI_branch
    2704                      .dwattr $C$DW$249, DW_AT_low_pc(0x00)
    2705                      .dwattr $C$DW$249, DW_AT_name("_dataWrite")
    2706                      .dwattr $C$DW$249, DW_AT_TI_call
    2707              
    2708 00057a 08FD          CALL #_dataWrite ; |499| 
         00057c 21   
    2709 00057d 3D34  ||      MOV #3, T0
    2710              
    2711                                                      ; call occurs [#_dataWrite] ; |499| 
    2712                      .dwpsn  file "../c5535_bsl_revc/ezdsp5535_v1/c55xx_csl/ccs_v4.0_examples/lcd/CSL_LCDC_DiagramExample/
    2713 00057f A500          MOV *SP(#0), T1 ; |500| 
    2714              $C$DW$250       .dwtag  DW_TAG_TI_branch
    2715                      .dwattr $C$DW$250, DW_AT_low_pc(0x00)
    2716                      .dwattr $C$DW$250, DW_AT_name("_dataWrite")
    2717                      .dwattr $C$DW$250, DW_AT_TI_call
    2718              
    2719 000581 08FD          CALL #_dataWrite ; |500| 
         000583 1A   
    2720 000584 3D44  ||      MOV #4, T0
    2721              
    2722                                                      ; call occurs [#_dataWrite] ; |500| 
TMS320C55x Assembler PC v4.4.1 Sat Sep 29 23:09:22 2018

Tools Copyright (c) 1996-2012 Texas Instruments Incorporated
lcdc_panel.asm                                                       PAGE   55

    2723                      .dwpsn  file "../c5535_bsl_revc/ezdsp5535_v1/c55xx_csl/ccs_v4.0_examples/lcd/CSL_LCDC_DiagramExample/
    2724 000586 A500          MOV *SP(#0), T1 ; |501| 
    2725              $C$DW$251       .dwtag  DW_TAG_TI_branch
    2726                      .dwattr $C$DW$251, DW_AT_low_pc(0x00)
    2727                      .dwattr $C$DW$251, DW_AT_name("_dataWrite")
    2728                      .dwattr $C$DW$251, DW_AT_TI_call
    2729              
    2730 000588 08FD          CALL #_dataWrite ; |501| 
         00058a 13   
    2731 00058b 3D54  ||      MOV #5, T0
    2732              
    2733                                                      ; call occurs [#_dataWrite] ; |501| 
    2734                      .dwpsn  file "../c5535_bsl_revc/ezdsp5535_v1/c55xx_csl/ccs_v4.0_examples/lcd/CSL_LCDC_DiagramExample/
    2735 00058d A500          MOV *SP(#0), T1 ; |502| 
    2736              $C$DW$252       .dwtag  DW_TAG_TI_branch
    2737                      .dwattr $C$DW$252, DW_AT_low_pc(0x00)
    2738                      .dwattr $C$DW$252, DW_AT_name("_dataWrite")
    2739                      .dwattr $C$DW$252, DW_AT_TI_call
    2740              
    2741 00058f 08FD          CALL #_dataWrite ; |502| 
         000591 0C   
    2742 000592 3D64  ||      MOV #6, T0
    2743              
    2744                                                      ; call occurs [#_dataWrite] ; |502| 
    2745                      .dwpsn  file "../c5535_bsl_revc/ezdsp5535_v1/c55xx_csl/ccs_v4.0_examples/lcd/CSL_LCDC_DiagramExample/
    2746 000594 A500          MOV *SP(#0), T1 ; |503| 
    2747              $C$DW$253       .dwtag  DW_TAG_TI_branch
    2748                      .dwattr $C$DW$253, DW_AT_low_pc(0x00)
    2749                      .dwattr $C$DW$253, DW_AT_name("_dataWrite")
    2750                      .dwattr $C$DW$253, DW_AT_TI_call
    2751              
    2752 000596 08FD          CALL #_dataWrite ; |503| 
         000598 05   
    2753 000599 3D74  ||      MOV #7, T0
    2754              
    2755                                                      ; call occurs [#_dataWrite] ; |503| 
    2756                      .dwpsn  file "../c5535_bsl_revc/ezdsp5535_v1/c55xx_csl/ccs_v4.0_examples/lcd/CSL_LCDC_DiagramExample/
    2757 00059b A500          MOV *SP(#0), T1 ; |504| 
    2758              $C$DW$254       .dwtag  DW_TAG_TI_branch
    2759                      .dwattr $C$DW$254, DW_AT_low_pc(0x00)
    2760                      .dwattr $C$DW$254, DW_AT_name("_dataWrite")
    2761                      .dwattr $C$DW$254, DW_AT_TI_call
    2762              
    2763 00059d 08FC          CALL #_dataWrite ; |504| 
         00059f FE   
    2764 0005a0 3D84  ||      MOV #8, T0
    2765              
    2766                                                      ; call occurs [#_dataWrite] ; |504| 
    2767                      .dwpsn  file "../c5535_bsl_revc/ezdsp5535_v1/c55xx_csl/ccs_v4.0_examples/lcd/CSL_LCDC_DiagramExample/
    2768 0005a2 A500          MOV *SP(#0), T1 ; |505| 
    2769              $C$DW$255       .dwtag  DW_TAG_TI_branch
    2770                      .dwattr $C$DW$255, DW_AT_low_pc(0x00)
    2771                      .dwattr $C$DW$255, DW_AT_name("_dataWrite")
    2772                      .dwattr $C$DW$255, DW_AT_TI_call
    2773              
TMS320C55x Assembler PC v4.4.1 Sat Sep 29 23:09:22 2018

Tools Copyright (c) 1996-2012 Texas Instruments Incorporated
lcdc_panel.asm                                                       PAGE   56

    2774 0005a4 08FC          CALL #_dataWrite ; |505| 
         0005a6 F7   
    2775 0005a7 3D94  ||      MOV #9, T0
    2776              
    2777                                                      ; call occurs [#_dataWrite] ; |505| 
    2778                      .dwpsn  file "../c5535_bsl_revc/ezdsp5535_v1/c55xx_csl/ccs_v4.0_examples/lcd/CSL_LCDC_DiagramExample/
    2779 0005a9 A500          MOV *SP(#0), T1 ; |506| 
    2780              $C$DW$256       .dwtag  DW_TAG_TI_branch
    2781                      .dwattr $C$DW$256, DW_AT_low_pc(0x00)
    2782                      .dwattr $C$DW$256, DW_AT_name("_dataWrite")
    2783                      .dwattr $C$DW$256, DW_AT_TI_call
    2784              
    2785 0005ab 08FC          CALL #_dataWrite ; |506| 
         0005ad F0   
    2786 0005ae 3DA4  ||      MOV #10, T0
    2787              
    2788                                                      ; call occurs [#_dataWrite] ; |506| 
    2789                      .dwpsn  file "../c5535_bsl_revc/ezdsp5535_v1/c55xx_csl/ccs_v4.0_examples/lcd/CSL_LCDC_DiagramExample/
    2790 0005b0 A500          MOV *SP(#0), T1 ; |507| 
    2791              $C$DW$257       .dwtag  DW_TAG_TI_branch
    2792                      .dwattr $C$DW$257, DW_AT_low_pc(0x00)
    2793                      .dwattr $C$DW$257, DW_AT_name("_dataWrite")
    2794                      .dwattr $C$DW$257, DW_AT_TI_call
    2795              
    2796 0005b2 08FC          CALL #_dataWrite ; |507| 
         0005b4 E9   
    2797 0005b5 3DB4  ||      MOV #11, T0
    2798              
    2799                                                      ; call occurs [#_dataWrite] ; |507| 
    2800                      .dwpsn  file "../c5535_bsl_revc/ezdsp5535_v1/c55xx_csl/ccs_v4.0_examples/lcd/CSL_LCDC_DiagramExample/
    2801 0005b7 A500          MOV *SP(#0), T1 ; |508| 
    2802              $C$DW$258       .dwtag  DW_TAG_TI_branch
    2803                      .dwattr $C$DW$258, DW_AT_low_pc(0x00)
    2804                      .dwattr $C$DW$258, DW_AT_name("_dataWrite")
    2805                      .dwattr $C$DW$258, DW_AT_TI_call
    2806              
    2807 0005b9 08FC          CALL #_dataWrite ; |508| 
         0005bb E2   
    2808 0005bc 3DC4  ||      MOV #12, T0
    2809              
    2810                                                      ; call occurs [#_dataWrite] ; |508| 
    2811                      .dwpsn  file "../c5535_bsl_revc/ezdsp5535_v1/c55xx_csl/ccs_v4.0_examples/lcd/CSL_LCDC_DiagramExample/
    2812 0005be A500          MOV *SP(#0), T1 ; |509| 
    2813              $C$DW$259       .dwtag  DW_TAG_TI_branch
    2814                      .dwattr $C$DW$259, DW_AT_low_pc(0x00)
    2815                      .dwattr $C$DW$259, DW_AT_name("_dataWrite")
    2816                      .dwattr $C$DW$259, DW_AT_TI_call
    2817              
    2818 0005c0 08FC          CALL #_dataWrite ; |509| 
         0005c2 DB   
    2819 0005c3 3DD4  ||      MOV #13, T0
    2820              
    2821                                                      ; call occurs [#_dataWrite] ; |509| 
    2822                      .dwpsn  file "../c5535_bsl_revc/ezdsp5535_v1/c55xx_csl/ccs_v4.0_examples/lcd/CSL_LCDC_DiagramExample/
    2823 0005c5 A500          MOV *SP(#0), T1 ; |510| 
TMS320C55x Assembler PC v4.4.1 Sat Sep 29 23:09:22 2018

Tools Copyright (c) 1996-2012 Texas Instruments Incorporated
lcdc_panel.asm                                                       PAGE   57

    2824              $C$DW$260       .dwtag  DW_TAG_TI_branch
    2825                      .dwattr $C$DW$260, DW_AT_low_pc(0x00)
    2826                      .dwattr $C$DW$260, DW_AT_name("_dataWrite")
    2827                      .dwattr $C$DW$260, DW_AT_TI_call
    2828              
    2829 0005c7 08FC          CALL #_dataWrite ; |510| 
         0005c9 D4   
    2830 0005ca 3DE4  ||      MOV #14, T0
    2831              
    2832                                                      ; call occurs [#_dataWrite] ; |510| 
    2833                      .dwpsn  file "../c5535_bsl_revc/ezdsp5535_v1/c55xx_csl/ccs_v4.0_examples/lcd/CSL_LCDC_DiagramExample/
    2834 0005cc A500          MOV *SP(#0), T1 ; |511| 
    2835              $C$DW$261       .dwtag  DW_TAG_TI_branch
    2836                      .dwattr $C$DW$261, DW_AT_low_pc(0x00)
    2837                      .dwattr $C$DW$261, DW_AT_name("_dataWrite")
    2838                      .dwattr $C$DW$261, DW_AT_TI_call
    2839              
    2840 0005ce 08FC          CALL #_dataWrite ; |511| 
         0005d0 CD   
    2841 0005d1 3DF4  ||      MOV #15, T0
    2842              
    2843                                                      ; call occurs [#_dataWrite] ; |511| 
    2844                      .dwpsn  file "../c5535_bsl_revc/ezdsp5535_v1/c55xx_csl/ccs_v4.0_examples/lcd/CSL_LCDC_DiagramExample/
    2845 0005d3 7600          MOV #16, T0 ; |512| 
         0005d5 1048 
    2846 0005d7 A500          MOV *SP(#0), T1 ; |512| 
    2847              $C$DW$262       .dwtag  DW_TAG_TI_branch
    2848                      .dwattr $C$DW$262, DW_AT_low_pc(0x00)
    2849                      .dwattr $C$DW$262, DW_AT_name("_dataWrite")
    2850                      .dwattr $C$DW$262, DW_AT_TI_call
    2851 0005d9 08FC          CALL #_dataWrite ; |512| 
         0005db C4   
    2852                                                      ; call occurs [#_dataWrite] ; |512| 
    2853                      .dwpsn  file "../c5535_bsl_revc/ezdsp5535_v1/c55xx_csl/ccs_v4.0_examples/lcd/CSL_LCDC_DiagramExample/
    2854 0005dc 7600          MOV #17, T0 ; |513| 
         0005de 1148 
    2855 0005e0 A500          MOV *SP(#0), T1 ; |513| 
    2856              $C$DW$263       .dwtag  DW_TAG_TI_branch
    2857                      .dwattr $C$DW$263, DW_AT_low_pc(0x00)
    2858                      .dwattr $C$DW$263, DW_AT_name("_dataWrite")
    2859                      .dwattr $C$DW$263, DW_AT_TI_call
    2860 0005e2 08FC          CALL #_dataWrite ; |513| 
         0005e4 BB   
    2861                                                      ; call occurs [#_dataWrite] ; |513| 
    2862                      .dwpsn  file "../c5535_bsl_revc/ezdsp5535_v1/c55xx_csl/ccs_v4.0_examples/lcd/CSL_LCDC_DiagramExample/
    2863 0005e5 7600          MOV #18, T0 ; |514| 
         0005e7 1248 
    2864 0005e9 A500          MOV *SP(#0), T1 ; |514| 
    2865              $C$DW$264       .dwtag  DW_TAG_TI_branch
    2866                      .dwattr $C$DW$264, DW_AT_low_pc(0x00)
    2867                      .dwattr $C$DW$264, DW_AT_name("_dataWrite")
    2868                      .dwattr $C$DW$264, DW_AT_TI_call
    2869 0005eb 08FC          CALL #_dataWrite ; |514| 
         0005ed B2   
    2870                                                      ; call occurs [#_dataWrite] ; |514| 
TMS320C55x Assembler PC v4.4.1 Sat Sep 29 23:09:22 2018

Tools Copyright (c) 1996-2012 Texas Instruments Incorporated
lcdc_panel.asm                                                       PAGE   58

    2871                      .dwpsn  file "../c5535_bsl_revc/ezdsp5535_v1/c55xx_csl/ccs_v4.0_examples/lcd/CSL_LCDC_DiagramExample/
    2872 0005ee 7600          MOV #19, T0 ; |515| 
         0005f0 1348 
    2873 0005f2 A500          MOV *SP(#0), T1 ; |515| 
    2874              $C$DW$265       .dwtag  DW_TAG_TI_branch
    2875                      .dwattr $C$DW$265, DW_AT_low_pc(0x00)
    2876                      .dwattr $C$DW$265, DW_AT_name("_dataWrite")
    2877                      .dwattr $C$DW$265, DW_AT_TI_call
    2878 0005f4 08FC          CALL #_dataWrite ; |515| 
         0005f6 A9   
    2879                                                      ; call occurs [#_dataWrite] ; |515| 
    2880                      .dwpsn  file "../c5535_bsl_revc/ezdsp5535_v1/c55xx_csl/ccs_v4.0_examples/lcd/CSL_LCDC_DiagramExample/
    2881 0005f7 7600          MOV #21, T0 ; |516| 
         0005f9 1548 
    2882 0005fb A500          MOV *SP(#0), T1 ; |516| 
    2883              $C$DW$266       .dwtag  DW_TAG_TI_branch
    2884                      .dwattr $C$DW$266, DW_AT_low_pc(0x00)
    2885                      .dwattr $C$DW$266, DW_AT_name("_dataWrite")
    2886                      .dwattr $C$DW$266, DW_AT_TI_call
    2887 0005fd 08FC          CALL #_dataWrite ; |516| 
         0005ff A0   
    2888                                                      ; call occurs [#_dataWrite] ; |516| 
    2889                      .dwpsn  file "../c5535_bsl_revc/ezdsp5535_v1/c55xx_csl/ccs_v4.0_examples/lcd/CSL_LCDC_DiagramExample/
    2890 000600 7600          MOV #23, T0 ; |517| 
         000602 1748 
    2891 000604 A500          MOV *SP(#0), T1 ; |517| 
    2892              $C$DW$267       .dwtag  DW_TAG_TI_branch
    2893                      .dwattr $C$DW$267, DW_AT_low_pc(0x00)
    2894                      .dwattr $C$DW$267, DW_AT_name("_dataWrite")
    2895                      .dwattr $C$DW$267, DW_AT_TI_call
    2896 000606 08FC          CALL #_dataWrite ; |517| 
         000608 97   
    2897                                                      ; call occurs [#_dataWrite] ; |517| 
    2898                      .dwpsn  file "../c5535_bsl_revc/ezdsp5535_v1/c55xx_csl/ccs_v4.0_examples/lcd/CSL_LCDC_DiagramExample/
    2899 000609 7600          MOV #25, T0 ; |518| 
         00060b 1948 
    2900 00060d A500          MOV *SP(#0), T1 ; |518| 
    2901              $C$DW$268       .dwtag  DW_TAG_TI_branch
    2902                      .dwattr $C$DW$268, DW_AT_low_pc(0x00)
    2903                      .dwattr $C$DW$268, DW_AT_name("_dataWrite")
    2904                      .dwattr $C$DW$268, DW_AT_TI_call
    2905 00060f 08FC          CALL #_dataWrite ; |518| 
         000611 8E   
    2906                                                      ; call occurs [#_dataWrite] ; |518| 
    2907                      .dwpsn  file "../c5535_bsl_revc/ezdsp5535_v1/c55xx_csl/ccs_v4.0_examples/lcd/CSL_LCDC_DiagramExample/
    2908 000612 7600          MOV #27, T0 ; |519| 
         000614 1B48 
    2909 000616 A500          MOV *SP(#0), T1 ; |519| 
    2910              $C$DW$269       .dwtag  DW_TAG_TI_branch
    2911                      .dwattr $C$DW$269, DW_AT_low_pc(0x00)
    2912                      .dwattr $C$DW$269, DW_AT_name("_dataWrite")
    2913                      .dwattr $C$DW$269, DW_AT_TI_call
    2914 000618 08FC          CALL #_dataWrite ; |519| 
         00061a 85   
    2915                                                      ; call occurs [#_dataWrite] ; |519| 
TMS320C55x Assembler PC v4.4.1 Sat Sep 29 23:09:22 2018

Tools Copyright (c) 1996-2012 Texas Instruments Incorporated
lcdc_panel.asm                                                       PAGE   59

    2916                      .dwpsn  file "../c5535_bsl_revc/ezdsp5535_v1/c55xx_csl/ccs_v4.0_examples/lcd/CSL_LCDC_DiagramExample/
    2917 00061b 7600          MOV #29, T0 ; |520| 
         00061d 1D48 
    2918 00061f A500          MOV *SP(#0), T1 ; |520| 
    2919              $C$DW$270       .dwtag  DW_TAG_TI_branch
    2920                      .dwattr $C$DW$270, DW_AT_low_pc(0x00)
    2921                      .dwattr $C$DW$270, DW_AT_name("_dataWrite")
    2922                      .dwattr $C$DW$270, DW_AT_TI_call
    2923 000621 08FC          CALL #_dataWrite ; |520| 
         000623 7C   
    2924                                                      ; call occurs [#_dataWrite] ; |520| 
    2925                      .dwpsn  file "../c5535_bsl_revc/ezdsp5535_v1/c55xx_csl/ccs_v4.0_examples/lcd/CSL_LCDC_DiagramExample/
    2926 000624 7600          MOV #31, T0 ; |521| 
         000626 1F48 
    2927 000628 A500          MOV *SP(#0), T1 ; |521| 
    2928              $C$DW$271       .dwtag  DW_TAG_TI_branch
    2929                      .dwattr $C$DW$271, DW_AT_low_pc(0x00)
    2930                      .dwattr $C$DW$271, DW_AT_name("_dataWrite")
    2931                      .dwattr $C$DW$271, DW_AT_TI_call
    2932 00062a 08FC          CALL #_dataWrite ; |521| 
         00062c 73   
    2933                                                      ; call occurs [#_dataWrite] ; |521| 
    2934                      .dwpsn  file "../c5535_bsl_revc/ezdsp5535_v1/c55xx_csl/ccs_v4.0_examples/lcd/CSL_LCDC_DiagramExample/
    2935 00062d A500          MOV *SP(#0), T1 ; |522| 
    2936 00062f 7600          MOV #33, T0 ; |522| 
         000631 2148 
    2937              $C$DW$272       .dwtag  DW_TAG_TI_branch
    2938                      .dwattr $C$DW$272, DW_AT_low_pc(0x00)
    2939                      .dwattr $C$DW$272, DW_AT_name("_dataWrite")
    2940                      .dwattr $C$DW$272, DW_AT_TI_call
    2941 000633 08FC          CALL #_dataWrite ; |522| 
         000635 6A   
    2942                                                      ; call occurs [#_dataWrite] ; |522| 
    2943                      .dwpsn  file "../c5535_bsl_revc/ezdsp5535_v1/c55xx_csl/ccs_v4.0_examples/lcd/CSL_LCDC_DiagramExample/
    2944 000636 7600          MOV #35, T0 ; |523| 
         000638 2348 
    2945 00063a A500          MOV *SP(#0), T1 ; |523| 
    2946              $C$DW$273       .dwtag  DW_TAG_TI_branch
    2947                      .dwattr $C$DW$273, DW_AT_low_pc(0x00)
    2948                      .dwattr $C$DW$273, DW_AT_name("_dataWrite")
    2949                      .dwattr $C$DW$273, DW_AT_TI_call
    2950 00063c 08FC          CALL #_dataWrite ; |523| 
         00063e 61   
    2951                                                      ; call occurs [#_dataWrite] ; |523| 
    2952                      .dwpsn  file "../c5535_bsl_revc/ezdsp5535_v1/c55xx_csl/ccs_v4.0_examples/lcd/CSL_LCDC_DiagramExample/
    2953 00063f 7600          MOV #37, T0 ; |524| 
         000641 2548 
    2954 000643 A500          MOV *SP(#0), T1 ; |524| 
    2955              $C$DW$274       .dwtag  DW_TAG_TI_branch
    2956                      .dwattr $C$DW$274, DW_AT_low_pc(0x00)
    2957                      .dwattr $C$DW$274, DW_AT_name("_dataWrite")
    2958                      .dwattr $C$DW$274, DW_AT_TI_call
    2959 000645 08FC          CALL #_dataWrite ; |524| 
         000647 58   
    2960                                                      ; call occurs [#_dataWrite] ; |524| 
TMS320C55x Assembler PC v4.4.1 Sat Sep 29 23:09:22 2018

Tools Copyright (c) 1996-2012 Texas Instruments Incorporated
lcdc_panel.asm                                                       PAGE   60

    2961                      .dwpsn  file "../c5535_bsl_revc/ezdsp5535_v1/c55xx_csl/ccs_v4.0_examples/lcd/CSL_LCDC_DiagramExample/
    2962 000648 7600          MOV #39, T0 ; |525| 
         00064a 2748 
    2963 00064c A500          MOV *SP(#0), T1 ; |525| 
    2964              $C$DW$275       .dwtag  DW_TAG_TI_branch
    2965                      .dwattr $C$DW$275, DW_AT_low_pc(0x00)
    2966                      .dwattr $C$DW$275, DW_AT_name("_dataWrite")
    2967                      .dwattr $C$DW$275, DW_AT_TI_call
    2968 00064e 08FC          CALL #_dataWrite ; |525| 
         000650 4F   
    2969                                                      ; call occurs [#_dataWrite] ; |525| 
    2970                      .dwpsn  file "../c5535_bsl_revc/ezdsp5535_v1/c55xx_csl/ccs_v4.0_examples/lcd/CSL_LCDC_DiagramExample/
    2971 000651 7600          MOV #42, T0 ; |526| 
         000653 2A48 
    2972 000655 A500          MOV *SP(#0), T1 ; |526| 
    2973              $C$DW$276       .dwtag  DW_TAG_TI_branch
    2974                      .dwattr $C$DW$276, DW_AT_low_pc(0x00)
    2975                      .dwattr $C$DW$276, DW_AT_name("_dataWrite")
    2976                      .dwattr $C$DW$276, DW_AT_TI_call
    2977 000657 08FC          CALL #_dataWrite ; |526| 
         000659 46   
    2978                                                      ; call occurs [#_dataWrite] ; |526| 
    2979                      .dwpsn  file "../c5535_bsl_revc/ezdsp5535_v1/c55xx_csl/ccs_v4.0_examples/lcd/CSL_LCDC_DiagramExample/
    2980 00065a 7600          MOV #45, T0 ; |527| 
         00065c 2D48 
    2981 00065e A500          MOV *SP(#0), T1 ; |527| 
    2982              $C$DW$277       .dwtag  DW_TAG_TI_branch
    2983                      .dwattr $C$DW$277, DW_AT_low_pc(0x00)
    2984                      .dwattr $C$DW$277, DW_AT_name("_dataWrite")
    2985                      .dwattr $C$DW$277, DW_AT_TI_call
    2986 000660 08FC          CALL #_dataWrite ; |527| 
         000662 3D   
    2987                                                      ; call occurs [#_dataWrite] ; |527| 
    2988                      .dwpsn  file "../c5535_bsl_revc/ezdsp5535_v1/c55xx_csl/ccs_v4.0_examples/lcd/CSL_LCDC_DiagramExample/
    2989 000663 7600          MOV #48, T0 ; |528| 
         000665 3048 
    2990 000667 A500          MOV *SP(#0), T1 ; |528| 
    2991              $C$DW$278       .dwtag  DW_TAG_TI_branch
    2992                      .dwattr $C$DW$278, DW_AT_low_pc(0x00)
    2993                      .dwattr $C$DW$278, DW_AT_name("_dataWrite")
    2994                      .dwattr $C$DW$278, DW_AT_TI_call
    2995 000669 08FC          CALL #_dataWrite ; |528| 
         00066b 34   
    2996                                                      ; call occurs [#_dataWrite] ; |528| 
    2997                      .dwpsn  file "../c5535_bsl_revc/ezdsp5535_v1/c55xx_csl/ccs_v4.0_examples/lcd/CSL_LCDC_DiagramExample/
    2998 00066c 7600          MOV #51, T0 ; |529| 
         00066e 3348 
    2999 000670 A500          MOV *SP(#0), T1 ; |529| 
    3000              $C$DW$279       .dwtag  DW_TAG_TI_branch
    3001                      .dwattr $C$DW$279, DW_AT_low_pc(0x00)
    3002                      .dwattr $C$DW$279, DW_AT_name("_dataWrite")
    3003                      .dwattr $C$DW$279, DW_AT_TI_call
    3004 000672 08FC          CALL #_dataWrite ; |529| 
         000674 2B   
    3005                                                      ; call occurs [#_dataWrite] ; |529| 
TMS320C55x Assembler PC v4.4.1 Sat Sep 29 23:09:22 2018

Tools Copyright (c) 1996-2012 Texas Instruments Incorporated
lcdc_panel.asm                                                       PAGE   61

    3006                      .dwpsn  file "../c5535_bsl_revc/ezdsp5535_v1/c55xx_csl/ccs_v4.0_examples/lcd/CSL_LCDC_DiagramExample/
    3007 000675 7600          MOV #54, T0 ; |530| 
         000677 3648 
    3008 000679 A500          MOV *SP(#0), T1 ; |530| 
    3009              $C$DW$280       .dwtag  DW_TAG_TI_branch
    3010                      .dwattr $C$DW$280, DW_AT_low_pc(0x00)
    3011                      .dwattr $C$DW$280, DW_AT_name("_dataWrite")
    3012                      .dwattr $C$DW$280, DW_AT_TI_call
    3013 00067b 08FC          CALL #_dataWrite ; |530| 
         00067d 22   
    3014                                                      ; call occurs [#_dataWrite] ; |530| 
    3015                      .dwpsn  file "../c5535_bsl_revc/ezdsp5535_v1/c55xx_csl/ccs_v4.0_examples/lcd/CSL_LCDC_DiagramExample/
    3016 00067e 7600          MOV #57, T0 ; |531| 
         000680 3948 
    3017 000682 A500          MOV *SP(#0), T1 ; |531| 
    3018              $C$DW$281       .dwtag  DW_TAG_TI_branch
    3019                      .dwattr $C$DW$281, DW_AT_low_pc(0x00)
    3020                      .dwattr $C$DW$281, DW_AT_name("_dataWrite")
    3021                      .dwattr $C$DW$281, DW_AT_TI_call
    3022 000684 08FC          CALL #_dataWrite ; |531| 
         000686 19   
    3023                                                      ; call occurs [#_dataWrite] ; |531| 
    3024                      .dwpsn  file "../c5535_bsl_revc/ezdsp5535_v1/c55xx_csl/ccs_v4.0_examples/lcd/CSL_LCDC_DiagramExample/
    3025 000687 7600          MOV #60, T0 ; |532| 
         000689 3C48 
    3026 00068b A500          MOV *SP(#0), T1 ; |532| 
    3027              $C$DW$282       .dwtag  DW_TAG_TI_branch
    3028                      .dwattr $C$DW$282, DW_AT_low_pc(0x00)
    3029                      .dwattr $C$DW$282, DW_AT_name("_dataWrite")
    3030                      .dwattr $C$DW$282, DW_AT_TI_call
    3031 00068d 08FC          CALL #_dataWrite ; |532| 
         00068f 10   
    3032                                                      ; call occurs [#_dataWrite] ; |532| 
    3033                      .dwpsn  file "../c5535_bsl_revc/ezdsp5535_v1/c55xx_csl/ccs_v4.0_examples/lcd/CSL_LCDC_DiagramExample/
    3034 000690 A500          MOV *SP(#0), T1 ; |533| 
    3035 000692 7600          MOV #63, T0 ; |533| 
         000694 3F48 
    3036              $C$DW$283       .dwtag  DW_TAG_TI_branch
    3037                      .dwattr $C$DW$283, DW_AT_low_pc(0x00)
    3038                      .dwattr $C$DW$283, DW_AT_name("_dataWrite")
    3039                      .dwattr $C$DW$283, DW_AT_TI_call
    3040 000696 08FC          CALL #_dataWrite ; |533| 
         000698 07   
    3041                                                      ; call occurs [#_dataWrite] ; |533| 
    3042                      .dwpsn  file "../c5535_bsl_revc/ezdsp5535_v1/c55xx_csl/ccs_v4.0_examples/lcd/CSL_LCDC_DiagramExample/
    3043 000699 7600          MOV #66, T0 ; |534| 
         00069b 4248 
    3044 00069d A500          MOV *SP(#0), T1 ; |534| 
    3045              $C$DW$284       .dwtag  DW_TAG_TI_branch
    3046                      .dwattr $C$DW$284, DW_AT_low_pc(0x00)
    3047                      .dwattr $C$DW$284, DW_AT_name("_dataWrite")
    3048                      .dwattr $C$DW$284, DW_AT_TI_call
    3049 00069f 08FB          CALL #_dataWrite ; |534| 
         0006a1 FE   
    3050                                                      ; call occurs [#_dataWrite] ; |534| 
TMS320C55x Assembler PC v4.4.1 Sat Sep 29 23:09:22 2018

Tools Copyright (c) 1996-2012 Texas Instruments Incorporated
lcdc_panel.asm                                                       PAGE   62

    3051                      .dwpsn  file "../c5535_bsl_revc/ezdsp5535_v1/c55xx_csl/ccs_v4.0_examples/lcd/CSL_LCDC_DiagramExample/
    3052 0006a2 7600          MOV #69, T0 ; |535| 
         0006a4 4548 
    3053 0006a6 A500          MOV *SP(#0), T1 ; |535| 
    3054              $C$DW$285       .dwtag  DW_TAG_TI_branch
    3055                      .dwattr $C$DW$285, DW_AT_low_pc(0x00)
    3056                      .dwattr $C$DW$285, DW_AT_name("_dataWrite")
    3057                      .dwattr $C$DW$285, DW_AT_TI_call
    3058 0006a8 08FB          CALL #_dataWrite ; |535| 
         0006aa F5   
    3059                                                      ; call occurs [#_dataWrite] ; |535| 
    3060                      .dwpsn  file "../c5535_bsl_revc/ezdsp5535_v1/c55xx_csl/ccs_v4.0_examples/lcd/CSL_LCDC_DiagramExample/
    3061 0006ab 7600          MOV #72, T0 ; |536| 
         0006ad 4848 
    3062 0006af A500          MOV *SP(#0), T1 ; |536| 
    3063              $C$DW$286       .dwtag  DW_TAG_TI_branch
    3064                      .dwattr $C$DW$286, DW_AT_low_pc(0x00)
    3065                      .dwattr $C$DW$286, DW_AT_name("_dataWrite")
    3066                      .dwattr $C$DW$286, DW_AT_TI_call
    3067 0006b1 08FB          CALL #_dataWrite ; |536| 
         0006b3 EC   
    3068                                                      ; call occurs [#_dataWrite] ; |536| 
    3069                      .dwpsn  file "../c5535_bsl_revc/ezdsp5535_v1/c55xx_csl/ccs_v4.0_examples/lcd/CSL_LCDC_DiagramExample/
    3070 0006b4 7600          MOV #76, T0 ; |537| 
         0006b6 4C48 
    3071 0006b8 A500          MOV *SP(#0), T1 ; |537| 
    3072              $C$DW$287       .dwtag  DW_TAG_TI_branch
    3073                      .dwattr $C$DW$287, DW_AT_low_pc(0x00)
    3074                      .dwattr $C$DW$287, DW_AT_name("_dataWrite")
    3075                      .dwattr $C$DW$287, DW_AT_TI_call
    3076 0006ba 08FB          CALL #_dataWrite ; |537| 
         0006bc E3   
    3077                                                      ; call occurs [#_dataWrite] ; |537| 
    3078                      .dwpsn  file "../c5535_bsl_revc/ezdsp5535_v1/c55xx_csl/ccs_v4.0_examples/lcd/CSL_LCDC_DiagramExample/
    3079 0006bd 7600          MOV #80, T0 ; |538| 
         0006bf 5048 
    3080 0006c1 A500          MOV *SP(#0), T1 ; |538| 
    3081              $C$DW$288       .dwtag  DW_TAG_TI_branch
    3082                      .dwattr $C$DW$288, DW_AT_low_pc(0x00)
    3083                      .dwattr $C$DW$288, DW_AT_name("_dataWrite")
    3084                      .dwattr $C$DW$288, DW_AT_TI_call
    3085 0006c3 08FB          CALL #_dataWrite ; |538| 
         0006c5 DA   
    3086                                                      ; call occurs [#_dataWrite] ; |538| 
    3087                      .dwpsn  file "../c5535_bsl_revc/ezdsp5535_v1/c55xx_csl/ccs_v4.0_examples/lcd/CSL_LCDC_DiagramExample/
    3088 0006c6 7600          MOV #84, T0 ; |539| 
         0006c8 5448 
    3089 0006ca A500          MOV *SP(#0), T1 ; |539| 
    3090              $C$DW$289       .dwtag  DW_TAG_TI_branch
    3091                      .dwattr $C$DW$289, DW_AT_low_pc(0x00)
    3092                      .dwattr $C$DW$289, DW_AT_name("_dataWrite")
    3093                      .dwattr $C$DW$289, DW_AT_TI_call
    3094 0006cc 08FB          CALL #_dataWrite ; |539| 
         0006ce D1   
    3095                                                      ; call occurs [#_dataWrite] ; |539| 
TMS320C55x Assembler PC v4.4.1 Sat Sep 29 23:09:22 2018

Tools Copyright (c) 1996-2012 Texas Instruments Incorporated
lcdc_panel.asm                                                       PAGE   63

    3096                      .dwpsn  file "../c5535_bsl_revc/ezdsp5535_v1/c55xx_csl/ccs_v4.0_examples/lcd/CSL_LCDC_DiagramExample/
    3097 0006cf 7600          MOV #88, T0 ; |540| 
         0006d1 5848 
    3098 0006d3 A500          MOV *SP(#0), T1 ; |540| 
    3099              $C$DW$290       .dwtag  DW_TAG_TI_branch
    3100                      .dwattr $C$DW$290, DW_AT_low_pc(0x00)
    3101                      .dwattr $C$DW$290, DW_AT_name("_dataWrite")
    3102                      .dwattr $C$DW$290, DW_AT_TI_call
    3103 0006d5 08FB          CALL #_dataWrite ; |540| 
         0006d7 C8   
    3104                                                      ; call occurs [#_dataWrite] ; |540| 
    3105                      .dwpsn  file "../c5535_bsl_revc/ezdsp5535_v1/c55xx_csl/ccs_v4.0_examples/lcd/CSL_LCDC_DiagramExample/
    3106 0006d8 7600          MOV #92, T0 ; |541| 
         0006da 5C48 
    3107 0006dc A500          MOV *SP(#0), T1 ; |541| 
    3108              $C$DW$291       .dwtag  DW_TAG_TI_branch
    3109                      .dwattr $C$DW$291, DW_AT_low_pc(0x00)
    3110                      .dwattr $C$DW$291, DW_AT_name("_dataWrite")
    3111                      .dwattr $C$DW$291, DW_AT_TI_call
    3112 0006de 08FB          CALL #_dataWrite ; |541| 
         0006e0 BF   
    3113                                                      ; call occurs [#_dataWrite] ; |541| 
    3114                      .dwpsn  file "../c5535_bsl_revc/ezdsp5535_v1/c55xx_csl/ccs_v4.0_examples/lcd/CSL_LCDC_DiagramExample/
    3115 0006e1 7600          MOV #96, T0 ; |542| 
         0006e3 6048 
    3116 0006e5 A500          MOV *SP(#0), T1 ; |542| 
    3117              $C$DW$292       .dwtag  DW_TAG_TI_branch
    3118                      .dwattr $C$DW$292, DW_AT_low_pc(0x00)
    3119                      .dwattr $C$DW$292, DW_AT_name("_dataWrite")
    3120                      .dwattr $C$DW$292, DW_AT_TI_call
    3121 0006e7 08FB          CALL #_dataWrite ; |542| 
         0006e9 B6   
    3122                                                      ; call occurs [#_dataWrite] ; |542| 
    3123                      .dwpsn  file "../c5535_bsl_revc/ezdsp5535_v1/c55xx_csl/ccs_v4.0_examples/lcd/CSL_LCDC_DiagramExample/
    3124 0006ea 7600          MOV #100, T0 ; |543| 
         0006ec 6448 
    3125 0006ee A500          MOV *SP(#0), T1 ; |543| 
    3126              $C$DW$293       .dwtag  DW_TAG_TI_branch
    3127                      .dwattr $C$DW$293, DW_AT_low_pc(0x00)
    3128                      .dwattr $C$DW$293, DW_AT_name("_dataWrite")
    3129                      .dwattr $C$DW$293, DW_AT_TI_call
    3130 0006f0 08FB          CALL #_dataWrite ; |543| 
         0006f2 AD   
    3131                                                      ; call occurs [#_dataWrite] ; |543| 
    3132                      .dwpsn  file "../c5535_bsl_revc/ezdsp5535_v1/c55xx_csl/ccs_v4.0_examples/lcd/CSL_LCDC_DiagramExample/
    3133 0006f3 A500          MOV *SP(#0), T1 ; |544| 
    3134 0006f5 7600          MOV #104, T0 ; |544| 
         0006f7 6848 
    3135              $C$DW$294       .dwtag  DW_TAG_TI_branch
    3136                      .dwattr $C$DW$294, DW_AT_low_pc(0x00)
    3137                      .dwattr $C$DW$294, DW_AT_name("_dataWrite")
    3138                      .dwattr $C$DW$294, DW_AT_TI_call
    3139 0006f9 08FB          CALL #_dataWrite ; |544| 
         0006fb A4   
    3140                                                      ; call occurs [#_dataWrite] ; |544| 
TMS320C55x Assembler PC v4.4.1 Sat Sep 29 23:09:22 2018

Tools Copyright (c) 1996-2012 Texas Instruments Incorporated
lcdc_panel.asm                                                       PAGE   64

    3141                      .dwpsn  file "../c5535_bsl_revc/ezdsp5535_v1/c55xx_csl/ccs_v4.0_examples/lcd/CSL_LCDC_DiagramExample/
    3142 0006fc 7600          MOV #108, T0 ; |545| 
         0006fe 6C48 
    3143 000700 A500          MOV *SP(#0), T1 ; |545| 
    3144              $C$DW$295       .dwtag  DW_TAG_TI_branch
    3145                      .dwattr $C$DW$295, DW_AT_low_pc(0x00)
    3146                      .dwattr $C$DW$295, DW_AT_name("_dataWrite")
    3147                      .dwattr $C$DW$295, DW_AT_TI_call
    3148 000702 08FB          CALL #_dataWrite ; |545| 
         000704 9B   
    3149                                                      ; call occurs [#_dataWrite] ; |545| 
    3150                      .dwpsn  file "../c5535_bsl_revc/ezdsp5535_v1/c55xx_csl/ccs_v4.0_examples/lcd/CSL_LCDC_DiagramExample/
    3151 000705 7600          MOV #112, T0 ; |546| 
         000707 7048 
    3152 000709 A500          MOV *SP(#0), T1 ; |546| 
    3153              $C$DW$296       .dwtag  DW_TAG_TI_branch
    3154                      .dwattr $C$DW$296, DW_AT_low_pc(0x00)
    3155                      .dwattr $C$DW$296, DW_AT_name("_dataWrite")
    3156                      .dwattr $C$DW$296, DW_AT_TI_call
    3157 00070b 08FB          CALL #_dataWrite ; |546| 
         00070d 92   
    3158                                                      ; call occurs [#_dataWrite] ; |546| 
    3159                      .dwpsn  file "../c5535_bsl_revc/ezdsp5535_v1/c55xx_csl/ccs_v4.0_examples/lcd/CSL_LCDC_DiagramExample/
    3160 00070e 7600          MOV #116, T0 ; |547| 
         000710 7448 
    3161 000712 A500          MOV *SP(#0), T1 ; |547| 
    3162              $C$DW$297       .dwtag  DW_TAG_TI_branch
    3163                      .dwattr $C$DW$297, DW_AT_low_pc(0x00)
    3164                      .dwattr $C$DW$297, DW_AT_name("_dataWrite")
    3165                      .dwattr $C$DW$297, DW_AT_TI_call
    3166 000714 08FB          CALL #_dataWrite ; |547| 
         000716 89   
    3167                                                      ; call occurs [#_dataWrite] ; |547| 
    3168                      .dwpsn  file "../c5535_bsl_revc/ezdsp5535_v1/c55xx_csl/ccs_v4.0_examples/lcd/CSL_LCDC_DiagramExample/
    3169 000717 7600          MOV #120, T0 ; |548| 
         000719 7848 
    3170 00071b A500          MOV *SP(#0), T1 ; |548| 
    3171              $C$DW$298       .dwtag  DW_TAG_TI_branch
    3172                      .dwattr $C$DW$298, DW_AT_low_pc(0x00)
    3173                      .dwattr $C$DW$298, DW_AT_name("_dataWrite")
    3174                      .dwattr $C$DW$298, DW_AT_TI_call
    3175 00071d 08FB          CALL #_dataWrite ; |548| 
         00071f 80   
    3176                                                      ; call occurs [#_dataWrite] ; |548| 
    3177                      .dwpsn  file "../c5535_bsl_revc/ezdsp5535_v1/c55xx_csl/ccs_v4.0_examples/lcd/CSL_LCDC_DiagramExample/
    3178 000720 7600          MOV #125, T0 ; |549| 
         000722 7D48 
    3179 000724 A500          MOV *SP(#0), T1 ; |549| 
    3180              $C$DW$299       .dwtag  DW_TAG_TI_branch
    3181                      .dwattr $C$DW$299, DW_AT_low_pc(0x00)
    3182                      .dwattr $C$DW$299, DW_AT_name("_dataWrite")
    3183                      .dwattr $C$DW$299, DW_AT_TI_call
    3184 000726 08FB          CALL #_dataWrite ; |549| 
         000728 77   
    3185                                                      ; call occurs [#_dataWrite] ; |549| 
TMS320C55x Assembler PC v4.4.1 Sat Sep 29 23:09:22 2018

Tools Copyright (c) 1996-2012 Texas Instruments Incorporated
lcdc_panel.asm                                                       PAGE   65

    3186                      .dwpsn  file "../c5535_bsl_revc/ezdsp5535_v1/c55xx_csl/ccs_v4.0_examples/lcd/CSL_LCDC_DiagramExample/
    3187 000729 7600          MOV #130, T0 ; |550| 
         00072b 8248 
    3188 00072d A500          MOV *SP(#0), T1 ; |550| 
    3189              $C$DW$300       .dwtag  DW_TAG_TI_branch
    3190                      .dwattr $C$DW$300, DW_AT_low_pc(0x00)
    3191                      .dwattr $C$DW$300, DW_AT_name("_dataWrite")
    3192                      .dwattr $C$DW$300, DW_AT_TI_call
    3193 00072f 08FB          CALL #_dataWrite ; |550| 
         000731 6E   
    3194                                                      ; call occurs [#_dataWrite] ; |550| 
    3195                      .dwpsn  file "../c5535_bsl_revc/ezdsp5535_v1/c55xx_csl/ccs_v4.0_examples/lcd/CSL_LCDC_DiagramExample/
    3196 000732 7600          MOV #135, T0 ; |551| 
         000734 8748 
    3197 000736 A500          MOV *SP(#0), T1 ; |551| 
    3198              $C$DW$301       .dwtag  DW_TAG_TI_branch
    3199                      .dwattr $C$DW$301, DW_AT_low_pc(0x00)
    3200                      .dwattr $C$DW$301, DW_AT_name("_dataWrite")
    3201                      .dwattr $C$DW$301, DW_AT_TI_call
    3202 000738 08FB          CALL #_dataWrite ; |551| 
         00073a 65   
    3203                                                      ; call occurs [#_dataWrite] ; |551| 
    3204                      .dwpsn  file "../c5535_bsl_revc/ezdsp5535_v1/c55xx_csl/ccs_v4.0_examples/lcd/CSL_LCDC_DiagramExample/
    3205 00073b 7600          MOV #140, T0 ; |552| 
         00073d 8C48 
    3206 00073f A500          MOV *SP(#0), T1 ; |552| 
    3207              $C$DW$302       .dwtag  DW_TAG_TI_branch
    3208                      .dwattr $C$DW$302, DW_AT_low_pc(0x00)
    3209                      .dwattr $C$DW$302, DW_AT_name("_dataWrite")
    3210                      .dwattr $C$DW$302, DW_AT_TI_call
    3211 000741 08FB          CALL #_dataWrite ; |552| 
         000743 5C   
    3212                                                      ; call occurs [#_dataWrite] ; |552| 
    3213                      .dwpsn  file "../c5535_bsl_revc/ezdsp5535_v1/c55xx_csl/ccs_v4.0_examples/lcd/CSL_LCDC_DiagramExample/
    3214 000744 7600          MOV #145, T0 ; |553| 
         000746 9148 
    3215 000748 A500          MOV *SP(#0), T1 ; |553| 
    3216              $C$DW$303       .dwtag  DW_TAG_TI_branch
    3217                      .dwattr $C$DW$303, DW_AT_low_pc(0x00)
    3218                      .dwattr $C$DW$303, DW_AT_name("_dataWrite")
    3219                      .dwattr $C$DW$303, DW_AT_TI_call
    3220 00074a 08FB          CALL #_dataWrite ; |553| 
         00074c 53   
    3221                                                      ; call occurs [#_dataWrite] ; |553| 
    3222                      .dwpsn  file "../c5535_bsl_revc/ezdsp5535_v1/c55xx_csl/ccs_v4.0_examples/lcd/CSL_LCDC_DiagramExample/
    3223 00074d 7600          MOV #150, T0 ; |554| 
         00074f 9648 
    3224 000751 A500          MOV *SP(#0), T1 ; |554| 
    3225              $C$DW$304       .dwtag  DW_TAG_TI_branch
    3226                      .dwattr $C$DW$304, DW_AT_low_pc(0x00)
    3227                      .dwattr $C$DW$304, DW_AT_name("_dataWrite")
    3228                      .dwattr $C$DW$304, DW_AT_TI_call
    3229 000753 08FB          CALL #_dataWrite ; |554| 
         000755 4A   
    3230                                                      ; call occurs [#_dataWrite] ; |554| 
TMS320C55x Assembler PC v4.4.1 Sat Sep 29 23:09:22 2018

Tools Copyright (c) 1996-2012 Texas Instruments Incorporated
lcdc_panel.asm                                                       PAGE   66

    3231                      .dwpsn  file "../c5535_bsl_revc/ezdsp5535_v1/c55xx_csl/ccs_v4.0_examples/lcd/CSL_LCDC_DiagramExample/
    3232 000756 A500          MOV *SP(#0), T1 ; |555| 
    3233 000758 7600          MOV #155, T0 ; |555| 
         00075a 9B48 
    3234              $C$DW$305       .dwtag  DW_TAG_TI_branch
    3235                      .dwattr $C$DW$305, DW_AT_low_pc(0x00)
    3236                      .dwattr $C$DW$305, DW_AT_name("_dataWrite")
    3237                      .dwattr $C$DW$305, DW_AT_TI_call
    3238 00075c 08FB          CALL #_dataWrite ; |555| 
         00075e 41   
    3239                                                      ; call occurs [#_dataWrite] ; |555| 
    3240                      .dwpsn  file "../c5535_bsl_revc/ezdsp5535_v1/c55xx_csl/ccs_v4.0_examples/lcd/CSL_LCDC_DiagramExample/
    3241 00075f 7600          MOV #160, T0 ; |556| 
         000761 A048 
    3242 000763 A500          MOV *SP(#0), T1 ; |556| 
    3243              $C$DW$306       .dwtag  DW_TAG_TI_branch
    3244                      .dwattr $C$DW$306, DW_AT_low_pc(0x00)
    3245                      .dwattr $C$DW$306, DW_AT_name("_dataWrite")
    3246                      .dwattr $C$DW$306, DW_AT_TI_call
    3247 000765 08FB          CALL #_dataWrite ; |556| 
         000767 38   
    3248                                                      ; call occurs [#_dataWrite] ; |556| 
    3249                      .dwpsn  file "../c5535_bsl_revc/ezdsp5535_v1/c55xx_csl/ccs_v4.0_examples/lcd/CSL_LCDC_DiagramExample/
    3250 000768 7600          MOV #165, T0 ; |557| 
         00076a A548 
    3251 00076c A500          MOV *SP(#0), T1 ; |557| 
    3252              $C$DW$307       .dwtag  DW_TAG_TI_branch
    3253                      .dwattr $C$DW$307, DW_AT_low_pc(0x00)
    3254                      .dwattr $C$DW$307, DW_AT_name("_dataWrite")
    3255                      .dwattr $C$DW$307, DW_AT_TI_call
    3256 00076e 08FB          CALL #_dataWrite ; |557| 
         000770 2F   
    3257                                                      ; call occurs [#_dataWrite] ; |557| 
    3258                      .dwpsn  file "../c5535_bsl_revc/ezdsp5535_v1/c55xx_csl/ccs_v4.0_examples/lcd/CSL_LCDC_DiagramExample/
    3259 000771 7600          MOV #170, T0 ; |558| 
         000773 AA48 
    3260 000775 A500          MOV *SP(#0), T1 ; |558| 
    3261              $C$DW$308       .dwtag  DW_TAG_TI_branch
    3262                      .dwattr $C$DW$308, DW_AT_low_pc(0x00)
    3263                      .dwattr $C$DW$308, DW_AT_name("_dataWrite")
    3264                      .dwattr $C$DW$308, DW_AT_TI_call
    3265 000777 08FB          CALL #_dataWrite ; |558| 
         000779 26   
    3266                                                      ; call occurs [#_dataWrite] ; |558| 
    3267                      .dwpsn  file "../c5535_bsl_revc/ezdsp5535_v1/c55xx_csl/ccs_v4.0_examples/lcd/CSL_LCDC_DiagramExample/
    3268 00077a 7600          MOV #175, T0 ; |559| 
         00077c AF48 
    3269 00077e A500          MOV *SP(#0), T1 ; |559| 
    3270              $C$DW$309       .dwtag  DW_TAG_TI_branch
    3271                      .dwattr $C$DW$309, DW_AT_low_pc(0x00)
    3272                      .dwattr $C$DW$309, DW_AT_name("_dataWrite")
    3273                      .dwattr $C$DW$309, DW_AT_TI_call
    3274 000780 08FB          CALL #_dataWrite ; |559| 
         000782 1D   
    3275                                                      ; call occurs [#_dataWrite] ; |559| 
TMS320C55x Assembler PC v4.4.1 Sat Sep 29 23:09:22 2018

Tools Copyright (c) 1996-2012 Texas Instruments Incorporated
lcdc_panel.asm                                                       PAGE   67

    3276                      .dwpsn  file "../c5535_bsl_revc/ezdsp5535_v1/c55xx_csl/ccs_v4.0_examples/lcd/CSL_LCDC_DiagramExample/
    3277 000783 7600          MOV #180, T0 ; |560| 
         000785 B448 
    3278 000787 A500          MOV *SP(#0), T1 ; |560| 
    3279              $C$DW$310       .dwtag  DW_TAG_TI_branch
    3280                      .dwattr $C$DW$310, DW_AT_low_pc(0x00)
    3281                      .dwattr $C$DW$310, DW_AT_name("_dataWrite")
    3282                      .dwattr $C$DW$310, DW_AT_TI_call
    3283 000789 08FB          CALL #_dataWrite ; |560| 
         00078b 14   
    3284                                                      ; call occurs [#_dataWrite] ; |560| 
    3285                      .dwpsn  file "../c5535_bsl_revc/ezdsp5535_v1/c55xx_csl/ccs_v4.0_examples/lcd/CSL_LCDC_DiagramExample/
    3286 00078c 7600          MOV #177, T0 ; |563| 
         00078e B148 
    3287 000790 A500          MOV *SP(#0), T1 ; |563| 
    3288              $C$DW$311       .dwtag  DW_TAG_TI_branch
    3289                      .dwattr $C$DW$311, DW_AT_low_pc(0x00)
    3290                      .dwattr $C$DW$311, DW_AT_name("_cmdWrite")
    3291                      .dwattr $C$DW$311, DW_AT_TI_call
    3292 000792 08FA          CALL #_cmdWrite ; |563| 
         000794 F3   
    3293                                                      ; call occurs [#_cmdWrite] ; |563| 
    3294                      .dwpsn  file "../c5535_bsl_revc/ezdsp5535_v1/c55xx_csl/ccs_v4.0_examples/lcd/CSL_LCDC_DiagramExample/
    3295 000795 7600          MOV #50, T0 ; |564| 
         000797 3248 
    3296 000799 A500          MOV *SP(#0), T1 ; |564| 
    3297              $C$DW$312       .dwtag  DW_TAG_TI_branch
    3298                      .dwattr $C$DW$312, DW_AT_low_pc(0x00)
    3299                      .dwattr $C$DW$312, DW_AT_name("_dataWrite")
    3300                      .dwattr $C$DW$312, DW_AT_TI_call
    3301 00079b 08FB          CALL #_dataWrite ; |564| 
         00079d 02   
    3302                                                      ; call occurs [#_dataWrite] ; |564| 
    3303                      .dwpsn  file "../c5535_bsl_revc/ezdsp5535_v1/c55xx_csl/ccs_v4.0_examples/lcd/CSL_LCDC_DiagramExample/
    3304 00079e 7600          MOV #178, T0 ; |565| 
         0007a0 B248 
    3305 0007a2 A500          MOV *SP(#0), T1 ; |565| 
    3306              $C$DW$313       .dwtag  DW_TAG_TI_branch
    3307                      .dwattr $C$DW$313, DW_AT_low_pc(0x00)
    3308                      .dwattr $C$DW$313, DW_AT_name("_cmdWrite")
    3309                      .dwattr $C$DW$313, DW_AT_TI_call
    3310 0007a4 08FA          CALL #_cmdWrite ; |565| 
         0007a6 E1   
    3311                                                      ; call occurs [#_cmdWrite] ; |565| 
    3312                      .dwpsn  file "../c5535_bsl_revc/ezdsp5535_v1/c55xx_csl/ccs_v4.0_examples/lcd/CSL_LCDC_DiagramExample/
    3313 0007a7 7600          MOV #164, T0 ; |566| 
         0007a9 A448 
    3314 0007ab A500          MOV *SP(#0), T1 ; |566| 
    3315              $C$DW$314       .dwtag  DW_TAG_TI_branch
    3316                      .dwattr $C$DW$314, DW_AT_low_pc(0x00)
    3317                      .dwattr $C$DW$314, DW_AT_name("_dataWrite")
    3318                      .dwattr $C$DW$314, DW_AT_TI_call
    3319 0007ad 08FA          CALL #_dataWrite ; |566| 
         0007af F0   
    3320                                                      ; call occurs [#_dataWrite] ; |566| 
TMS320C55x Assembler PC v4.4.1 Sat Sep 29 23:09:22 2018

Tools Copyright (c) 1996-2012 Texas Instruments Incorporated
lcdc_panel.asm                                                       PAGE   68

    3321                      .dwpsn  file "../c5535_bsl_revc/ezdsp5535_v1/c55xx_csl/ccs_v4.0_examples/lcd/CSL_LCDC_DiagramExample/
    3322 0007b0 A500          MOV *SP(#0), T1 ; |567| 
    3323              $C$DW$315       .dwtag  DW_TAG_TI_branch
    3324                      .dwattr $C$DW$315, DW_AT_low_pc(0x00)
    3325                      .dwattr $C$DW$315, DW_AT_name("_dataWrite")
    3326                      .dwattr $C$DW$315, DW_AT_TI_call
    3327              
    3328 0007b2 08FA          CALL #_dataWrite ; |567| 
         0007b4 E9   
    3329 0007b5 3D04  ||      MOV #0, T0
    3330              
    3331                                                      ; call occurs [#_dataWrite] ; |567| 
    3332                      .dwpsn  file "../c5535_bsl_revc/ezdsp5535_v1/c55xx_csl/ccs_v4.0_examples/lcd/CSL_LCDC_DiagramExample/
    3333 0007b7 A500          MOV *SP(#0), T1 ; |568| 
    3334              $C$DW$316       .dwtag  DW_TAG_TI_branch
    3335                      .dwattr $C$DW$316, DW_AT_low_pc(0x00)
    3336                      .dwattr $C$DW$316, DW_AT_name("_dataWrite")
    3337                      .dwattr $C$DW$316, DW_AT_TI_call
    3338 0007b9 08FA          CALL #_dataWrite ; |568| 
         0007bb E4   
    3339                                                      ; call occurs [#_dataWrite] ; |568| 
    3340                      .dwpsn  file "../c5535_bsl_revc/ezdsp5535_v1/c55xx_csl/ccs_v4.0_examples/lcd/CSL_LCDC_DiagramExample/
    3341 0007bc 7600          MOV #187, T0 ; |569| 
         0007be BB48 
    3342 0007c0 A500          MOV *SP(#0), T1 ; |569| 
    3343              $C$DW$317       .dwtag  DW_TAG_TI_branch
    3344                      .dwattr $C$DW$317, DW_AT_low_pc(0x00)
    3345                      .dwattr $C$DW$317, DW_AT_name("_cmdWrite")
    3346                      .dwattr $C$DW$317, DW_AT_TI_call
    3347 0007c2 08FA          CALL #_cmdWrite ; |569| 
         0007c4 C3   
    3348                                                      ; call occurs [#_cmdWrite] ; |569| 
    3349                      .dwpsn  file "../c5535_bsl_revc/ezdsp5535_v1/c55xx_csl/ccs_v4.0_examples/lcd/CSL_LCDC_DiagramExample/
    3350 0007c5 7600          MOV #23, T0 ; |570| 
         0007c7 1748 
    3351 0007c9 A500          MOV *SP(#0), T1 ; |570| 
    3352              $C$DW$318       .dwtag  DW_TAG_TI_branch
    3353                      .dwattr $C$DW$318, DW_AT_low_pc(0x00)
    3354                      .dwattr $C$DW$318, DW_AT_name("_dataWrite")
    3355                      .dwattr $C$DW$318, DW_AT_TI_call
    3356 0007cb 08FA          CALL #_dataWrite ; |570| 
         0007cd D2   
    3357                                                      ; call occurs [#_dataWrite] ; |570| 
    3358                      .dwpsn  file "../c5535_bsl_revc/ezdsp5535_v1/c55xx_csl/ccs_v4.0_examples/lcd/CSL_LCDC_DiagramExample/
    3359 0007ce 7600          MOV #182, T0 ; |571| 
         0007d0 B648 
    3360 0007d2 A500          MOV *SP(#0), T1 ; |571| 
    3361              $C$DW$319       .dwtag  DW_TAG_TI_branch
    3362                      .dwattr $C$DW$319, DW_AT_low_pc(0x00)
    3363                      .dwattr $C$DW$319, DW_AT_name("_cmdWrite")
    3364                      .dwattr $C$DW$319, DW_AT_TI_call
    3365 0007d4 08FA          CALL #_cmdWrite ; |571| 
         0007d6 B1   
    3366                                                      ; call occurs [#_cmdWrite] ; |571| 
    3367                      .dwpsn  file "../c5535_bsl_revc/ezdsp5535_v1/c55xx_csl/ccs_v4.0_examples/lcd/CSL_LCDC_DiagramExample/
TMS320C55x Assembler PC v4.4.1 Sat Sep 29 23:09:22 2018

Tools Copyright (c) 1996-2012 Texas Instruments Incorporated
lcdc_panel.asm                                                       PAGE   69

    3368 0007d7 A500          MOV *SP(#0), T1 ; |572| 
    3369              $C$DW$320       .dwtag  DW_TAG_TI_branch
    3370                      .dwattr $C$DW$320, DW_AT_low_pc(0x00)
    3371                      .dwattr $C$DW$320, DW_AT_name("_dataWrite")
    3372                      .dwattr $C$DW$320, DW_AT_TI_call
    3373              
    3374 0007d9 08FA          CALL #_dataWrite ; |572| 
         0007db C2   
    3375 0007dc 3D14  ||      MOV #1, T0
    3376              
    3377                                                      ; call occurs [#_dataWrite] ; |572| 
    3378                      .dwpsn  file "../c5535_bsl_revc/ezdsp5535_v1/c55xx_csl/ccs_v4.0_examples/lcd/CSL_LCDC_DiagramExample/
    3379 0007de 7600          MOV #190, T0 ; |573| 
         0007e0 BE48 
    3380 0007e2 A500          MOV *SP(#0), T1 ; |573| 
    3381              $C$DW$321       .dwtag  DW_TAG_TI_branch
    3382                      .dwattr $C$DW$321, DW_AT_low_pc(0x00)
    3383                      .dwattr $C$DW$321, DW_AT_name("_cmdWrite")
    3384                      .dwattr $C$DW$321, DW_AT_TI_call
    3385 0007e4 08FA          CALL #_cmdWrite ; |573| 
         0007e6 A1   
    3386                                                      ; call occurs [#_cmdWrite] ; |573| 
    3387                      .dwpsn  file "../c5535_bsl_revc/ezdsp5535_v1/c55xx_csl/ccs_v4.0_examples/lcd/CSL_LCDC_DiagramExample/
    3388 0007e7 A500          MOV *SP(#0), T1 ; |574| 
    3389              $C$DW$322       .dwtag  DW_TAG_TI_branch
    3390                      .dwattr $C$DW$322, DW_AT_low_pc(0x00)
    3391                      .dwattr $C$DW$322, DW_AT_name("_dataWrite")
    3392                      .dwattr $C$DW$322, DW_AT_TI_call
    3393              
    3394 0007e9 08FA          CALL #_dataWrite ; |574| 
         0007eb B2   
    3395 0007ec 3D54  ||      MOV #5, T0
    3396              
    3397                                                      ; call occurs [#_dataWrite] ; |574| 
    3398                      .dwpsn  file "../c5535_bsl_revc/ezdsp5535_v1/c55xx_csl/ccs_v4.0_examples/lcd/CSL_LCDC_DiagramExample/
    3399 0007ee 7600          MOV #166, T0 ; |575| 
         0007f0 A648 
    3400 0007f2 A500          MOV *SP(#0), T1 ; |575| 
    3401              $C$DW$323       .dwtag  DW_TAG_TI_branch
    3402                      .dwattr $C$DW$323, DW_AT_low_pc(0x00)
    3403                      .dwattr $C$DW$323, DW_AT_name("_cmdWrite")
    3404                      .dwattr $C$DW$323, DW_AT_TI_call
    3405 0007f4 08FA          CALL #_cmdWrite ; |575| 
         0007f6 91   
    3406                                                      ; call occurs [#_cmdWrite] ; |575| 
    3407                      .dwpsn  file "../c5535_bsl_revc/ezdsp5535_v1/c55xx_csl/ccs_v4.0_examples/lcd/CSL_LCDC_DiagramExample/
    3408 0007f7 7600          MOV #175, T0 ; |578| 
         0007f9 AF48 
    3409 0007fb A500          MOV *SP(#0), T1 ; |578| 
    3410              $C$DW$324       .dwtag  DW_TAG_TI_branch
    3411                      .dwattr $C$DW$324, DW_AT_low_pc(0x00)
    3412                      .dwattr $C$DW$324, DW_AT_name("_cmdWrite")
    3413                      .dwattr $C$DW$324, DW_AT_TI_call
    3414 0007fd 08FA          CALL #_cmdWrite ; |578| 
         0007ff 88   
TMS320C55x Assembler PC v4.4.1 Sat Sep 29 23:09:22 2018

Tools Copyright (c) 1996-2012 Texas Instruments Incorporated
lcdc_panel.asm                                                       PAGE   70

    3415                                                      ; call occurs [#_cmdWrite] ; |578| 
    3416                      .dwpsn  file "../c5535_bsl_revc/ezdsp5535_v1/c55xx_csl/ccs_v4.0_examples/lcd/CSL_LCDC_DiagramExample/
    3417 000800 A400          MOV *SP(#0), T0 ; |580| 
    3418              $C$DW$325       .dwtag  DW_TAG_TI_branch
    3419                      .dwattr $C$DW$325, DW_AT_low_pc(0x00)
    3420                      .dwattr $C$DW$325, DW_AT_name("_lcdClearPanel")
    3421                      .dwattr $C$DW$325, DW_AT_TI_call
    3422 000802 0800          CALL #_lcdClearPanel ; |580| 
         000804 27   
    3423                                                      ; call occurs [#_lcdClearPanel] ; |580| 
    3424                      .dwpsn  file "../c5535_bsl_revc/ezdsp5535_v1/c55xx_csl/ccs_v4.0_examples/lcd/CSL_LCDC_DiagramExample/
    3425 000805 4E01          AADD #1, SP
    3426                      .dwcfi  cfa_offset, 1
    3427              $C$DW$326       .dwtag  DW_TAG_TI_branch
    3428                      .dwattr $C$DW$326, DW_AT_low_pc(0x00)
    3429                      .dwattr $C$DW$326, DW_AT_TI_return
    3430 000807 4804          RET
    3431                                                      ; return occurs
    3432                      .dwattr $C$DW$214, DW_AT_TI_end_file("../c5535_bsl_revc/ezdsp5535_v1/c55xx_csl/ccs_v4.0_examples/lcd/
    3433                      .dwattr $C$DW$214, DW_AT_TI_end_line(0x246)
    3434                      .dwattr $C$DW$214, DW_AT_TI_end_column(0x01)
    3435                      .dwendentry
    3436                      .dwendtag $C$DW$214
    3437              
    3438 000809               .sect   ".text"
    3439                      .align 4
    3440                      .global _lcdPanelBlank
    3441              
    3442              $C$DW$327       .dwtag  DW_TAG_subprogram, DW_AT_name("lcdPanelBlank")
    3443                      .dwattr $C$DW$327, DW_AT_low_pc(_lcdPanelBlank)
    3444                      .dwattr $C$DW$327, DW_AT_high_pc(0x00)
    3445                      .dwattr $C$DW$327, DW_AT_TI_symbol_name("_lcdPanelBlank")
    3446                      .dwattr $C$DW$327, DW_AT_external
    3447                      .dwattr $C$DW$327, DW_AT_TI_begin_file("../c5535_bsl_revc/ezdsp5535_v1/c55xx_csl/ccs_v4.0_examples/lc
    3448                      .dwattr $C$DW$327, DW_AT_TI_begin_line(0x250)
    3449                      .dwattr $C$DW$327, DW_AT_TI_begin_column(0x06)
    3450                      .dwattr $C$DW$327, DW_AT_TI_max_frame_size(0x04)
    3451                      .dwpsn  file "../c5535_bsl_revc/ezdsp5535_v1/c55xx_csl/ccs_v4.0_examples/lcd/CSL_LCDC_DiagramExample/
    3452              
    3453                      .dwfde $C$DW$CIE, _lcdPanelBlank
    3454              $C$DW$328       .dwtag  DW_TAG_formal_parameter, DW_AT_name("color")
    3455                      .dwattr $C$DW$328, DW_AT_TI_symbol_name("_color")
    3456                      .dwattr $C$DW$328, DW_AT_type(*$C$DW$T$19)
    3457                      .dwattr $C$DW$328, DW_AT_location[DW_OP_reg12]
    3458              $C$DW$329       .dwtag  DW_TAG_formal_parameter, DW_AT_name("cs_flag")
    3459                      .dwattr $C$DW$329, DW_AT_TI_symbol_name("_cs_flag")
    3460                      .dwattr $C$DW$329, DW_AT_type(*$C$DW$T$19)
    3461                      .dwattr $C$DW$329, DW_AT_location[DW_OP_reg13]
    3462              ;*******************************************************************************
    3463              ;* FUNCTION NAME: lcdPanelBlank                                                *
    3464              ;*                                                                             *
    3465              ;*   Function Uses Regs : T0,T1,AR0,AR1,AR2,AR3,AR4,SP,M40,SATA,SATD,RDM,FRCT, *
    3466              ;*                        SMUL                                                 *
    3467              ;*   Stack Frame        : Compact (No Frame Pointer, w/ debug)                 *
    3468              ;*   Total Frame Size   : 4 words                                              *
TMS320C55x Assembler PC v4.4.1 Sat Sep 29 23:09:22 2018

Tools Copyright (c) 1996-2012 Texas Instruments Incorporated
lcdc_panel.asm                                                       PAGE   71

    3469              ;*                        (2 return address/alignment)                         *
    3470              ;*                        (2 local values)                                     *
    3471              ;*   Min System Stack   : 1 word                                               *
    3472              ;*******************************************************************************
    3473 00080c       _lcdPanelBlank:
    3474                      .dwcfi  cfa_offset, 1
    3475                      .dwcfi  save_reg_to_mem, 91, -1
    3476 00080c 4EFD          AADD #-3, SP
    3477                      .dwcfi  cfa_offset, 4
    3478              $C$DW$330       .dwtag  DW_TAG_variable, DW_AT_name("color")
    3479                      .dwattr $C$DW$330, DW_AT_TI_symbol_name("_color")
    3480                      .dwattr $C$DW$330, DW_AT_type(*$C$DW$T$19)
    3481                      .dwattr $C$DW$330, DW_AT_location[DW_OP_bregx 0x24 0]
    3482              $C$DW$331       .dwtag  DW_TAG_variable, DW_AT_name("cs_flag")
    3483                      .dwattr $C$DW$331, DW_AT_TI_symbol_name("_cs_flag")
    3484                      .dwattr $C$DW$331, DW_AT_type(*$C$DW$T$19)
    3485                      .dwattr $C$DW$331, DW_AT_location[DW_OP_bregx 0x24 1]
    3486 00080e C502          MOV T1, *SP(#1) ; |595| 
    3487 000810 C400          MOV T0, *SP(#0) ; |595| 
    3488                      .dwpsn  file "../c5535_bsl_revc/ezdsp5535_v1/c55xx_csl/ccs_v4.0_examples/lcd/CSL_LCDC_DiagramExample/
    3489 000812 7600          MOV #131, AR1 ; |596| 
         000814 8398 
    3490              
    3491 000816 7600          MOV #131, AR0 ; |596| 
         000818 8388 
    3492 00081a 3D0A  ||      MOV #0, AR2
    3493              
    3494 00081c AB00          MOV *SP(#0), AR3 ; |596| 
    3495 00081e 3D04  ||      MOV #0, T0
    3496              
    3497 000820 AC02          MOV *SP(#1), AR4 ; |596| 
    3498 000822 3D05  ||      MOV #0, T1
    3499              
    3500              $C$DW$332       .dwtag  DW_TAG_TI_branch
    3501                      .dwattr $C$DW$332, DW_AT_low_pc(0x00)
    3502                      .dwattr $C$DW$332, DW_AT_name("_drawRectangle")
    3503                      .dwattr $C$DW$332, DW_AT_TI_call
    3504 000824 0801          CALL #_drawRectangle ; |596| 
         000826 E5   
    3505                                                      ; call occurs [#_drawRectangle] ; |596| 
    3506                      .dwpsn  file "../c5535_bsl_revc/ezdsp5535_v1/c55xx_csl/ccs_v4.0_examples/lcd/CSL_LCDC_DiagramExample/
    3507 000827 4E03          AADD #3, SP
    3508                      .dwcfi  cfa_offset, 1
    3509              $C$DW$333       .dwtag  DW_TAG_TI_branch
    3510                      .dwattr $C$DW$333, DW_AT_low_pc(0x00)
    3511                      .dwattr $C$DW$333, DW_AT_TI_return
    3512 000829 4804          RET
    3513                                                      ; return occurs
    3514                      .dwattr $C$DW$327, DW_AT_TI_end_file("../c5535_bsl_revc/ezdsp5535_v1/c55xx_csl/ccs_v4.0_examples/lcd/
    3515                      .dwattr $C$DW$327, DW_AT_TI_end_line(0x255)
    3516                      .dwattr $C$DW$327, DW_AT_TI_end_column(0x01)
    3517                      .dwendentry
    3518                      .dwendtag $C$DW$327
    3519              
    3520 00082b               .sect   ".text"
TMS320C55x Assembler PC v4.4.1 Sat Sep 29 23:09:22 2018

Tools Copyright (c) 1996-2012 Texas Instruments Incorporated
lcdc_panel.asm                                                       PAGE   72

    3521                      .align 4
    3522                      .global _lcdClearPanel
    3523              
    3524              $C$DW$334       .dwtag  DW_TAG_subprogram, DW_AT_name("lcdClearPanel")
    3525                      .dwattr $C$DW$334, DW_AT_low_pc(_lcdClearPanel)
    3526                      .dwattr $C$DW$334, DW_AT_high_pc(0x00)
    3527                      .dwattr $C$DW$334, DW_AT_TI_symbol_name("_lcdClearPanel")
    3528                      .dwattr $C$DW$334, DW_AT_external
    3529                      .dwattr $C$DW$334, DW_AT_TI_begin_file("../c5535_bsl_revc/ezdsp5535_v1/c55xx_csl/ccs_v4.0_examples/lc
    3530                      .dwattr $C$DW$334, DW_AT_TI_begin_line(0x25d)
    3531                      .dwattr $C$DW$334, DW_AT_TI_begin_column(0x06)
    3532                      .dwattr $C$DW$334, DW_AT_TI_max_frame_size(0x04)
    3533                      .dwpsn  file "../c5535_bsl_revc/ezdsp5535_v1/c55xx_csl/ccs_v4.0_examples/lcd/CSL_LCDC_DiagramExample/
    3534              
    3535                      .dwfde $C$DW$CIE, _lcdClearPanel
    3536              $C$DW$335       .dwtag  DW_TAG_formal_parameter, DW_AT_name("cs_flag")
    3537                      .dwattr $C$DW$335, DW_AT_TI_symbol_name("_cs_flag")
    3538                      .dwattr $C$DW$335, DW_AT_type(*$C$DW$T$19)
    3539                      .dwattr $C$DW$335, DW_AT_location[DW_OP_reg12]
    3540              ;*******************************************************************************
    3541              ;* FUNCTION NAME: lcdClearPanel                                                *
    3542              ;*                                                                             *
    3543              ;*   Function Uses Regs : AC0,AC0,T0,T1,AR1,AR2,SP,CARRY,TC1,M40,SATA,SATD,RDM,*
    3544              ;*                        FRCT,SMUL                                            *
    3545              ;*   Stack Frame        : Compact (No Frame Pointer, w/ debug)                 *
    3546              ;*   Total Frame Size   : 4 words                                              *
    3547              ;*                        (1 return address/alignment)                         *
    3548              ;*                        (3 local values)                                     *
    3549              ;*   Min System Stack   : 1 word                                               *
    3550              ;*******************************************************************************
    3551 00082c       _lcdClearPanel:
    3552                      .dwcfi  cfa_offset, 1
    3553                      .dwcfi  save_reg_to_mem, 91, -1
    3554 00082c 4EFD          AADD #-3, SP
    3555                      .dwcfi  cfa_offset, 4
    3556              $C$DW$336       .dwtag  DW_TAG_variable, DW_AT_name("cs_flag")
    3557                      .dwattr $C$DW$336, DW_AT_TI_symbol_name("_cs_flag")
    3558                      .dwattr $C$DW$336, DW_AT_type(*$C$DW$T$19)
    3559                      .dwattr $C$DW$336, DW_AT_location[DW_OP_bregx 0x24 0]
    3560              $C$DW$337       .dwtag  DW_TAG_variable, DW_AT_name("i")
    3561                      .dwattr $C$DW$337, DW_AT_TI_symbol_name("_i")
    3562                      .dwattr $C$DW$337, DW_AT_type(*$C$DW$T$10)
    3563                      .dwattr $C$DW$337, DW_AT_location[DW_OP_bregx 0x24 1]
    3564              $C$DW$338       .dwtag  DW_TAG_variable, DW_AT_name("j")
    3565                      .dwattr $C$DW$338, DW_AT_TI_symbol_name("_j")
    3566                      .dwattr $C$DW$338, DW_AT_type(*$C$DW$T$10)
    3567                      .dwattr $C$DW$338, DW_AT_location[DW_OP_bregx 0x24 2]
    3568 00082e C400          MOV T0, *SP(#0) ; |606| 
    3569                      .dwpsn  file "../c5535_bsl_revc/ezdsp5535_v1/c55xx_csl/ccs_v4.0_examples/lcd/CSL_LCDC_DiagramExample/
    3570 000830 7600          MOV #21, T0 ; |618| 
         000832 1548 
    3571 000834 A500          MOV *SP(#0), T1 ; |618| 
    3572              $C$DW$339       .dwtag  DW_TAG_TI_branch
    3573                      .dwattr $C$DW$339, DW_AT_low_pc(0x00)
    3574                      .dwattr $C$DW$339, DW_AT_name("_cmdWrite")
TMS320C55x Assembler PC v4.4.1 Sat Sep 29 23:09:22 2018

Tools Copyright (c) 1996-2012 Texas Instruments Incorporated
lcdc_panel.asm                                                       PAGE   73

    3575                      .dwattr $C$DW$339, DW_AT_TI_call
    3576 000836 08FA          CALL #_cmdWrite ; |618| 
         000838 4F   
    3577                                                      ; call occurs [#_cmdWrite] ; |618| 
    3578                      .dwpsn  file "../c5535_bsl_revc/ezdsp5535_v1/c55xx_csl/ccs_v4.0_examples/lcd/CSL_LCDC_DiagramExample/
    3579 000839 A500          MOV *SP(#0), T1 ; |619| 
    3580              $C$DW$340       .dwtag  DW_TAG_TI_branch
    3581                      .dwattr $C$DW$340, DW_AT_low_pc(0x00)
    3582                      .dwattr $C$DW$340, DW_AT_name("_dataWrite")
    3583                      .dwattr $C$DW$340, DW_AT_TI_call
    3584              
    3585 00083b 08FA          CALL #_dataWrite ; |619| 
         00083d 60   
    3586 00083e 3D04  ||      MOV #0, T0
    3587              
    3588                                                      ; call occurs [#_dataWrite] ; |619| 
    3589                      .dwpsn  file "../c5535_bsl_revc/ezdsp5535_v1/c55xx_csl/ccs_v4.0_examples/lcd/CSL_LCDC_DiagramExample/
    3590 000840 7600          MOV #127, T0 ; |620| 
         000842 7F48 
    3591 000844 A500          MOV *SP(#0), T1 ; |620| 
    3592              $C$DW$341       .dwtag  DW_TAG_TI_branch
    3593                      .dwattr $C$DW$341, DW_AT_low_pc(0x00)
    3594                      .dwattr $C$DW$341, DW_AT_name("_dataWrite")
    3595                      .dwattr $C$DW$341, DW_AT_TI_call
    3596 000846 08FA          CALL #_dataWrite ; |620| 
         000848 57   
    3597                                                      ; call occurs [#_dataWrite] ; |620| 
    3598                      .dwpsn  file "../c5535_bsl_revc/ezdsp5535_v1/c55xx_csl/ccs_v4.0_examples/lcd/CSL_LCDC_DiagramExample/
    3599              $C$DW$342       .dwtag  DW_TAG_TI_branch
    3600                      .dwattr $C$DW$342, DW_AT_low_pc(0x00)
    3601                      .dwattr $C$DW$342, DW_AT_name("_wait")
    3602                      .dwattr $C$DW$342, DW_AT_TI_call
    3603              
    3604 000849 08F8          CALL #_wait ; |621| 
         00084b 8A   
    3605 00084c 3DA0  ||      MOV #10, AC0 ; |621| 
    3606              
    3607                                                      ; call occurs [#_wait] ; |621| 
    3608                      .dwpsn  file "../c5535_bsl_revc/ezdsp5535_v1/c55xx_csl/ccs_v4.0_examples/lcd/CSL_LCDC_DiagramExample/
    3609 00084e 7600          MOV #117, T0 ; |623| 
         000850 7548 
    3610 000852 A500          MOV *SP(#0), T1 ; |623| 
    3611              $C$DW$343       .dwtag  DW_TAG_TI_branch
    3612                      .dwattr $C$DW$343, DW_AT_low_pc(0x00)
    3613                      .dwattr $C$DW$343, DW_AT_name("_cmdWrite")
    3614                      .dwattr $C$DW$343, DW_AT_TI_call
    3615 000854 08FA          CALL #_cmdWrite ; |623| 
         000856 31   
    3616                                                      ; call occurs [#_cmdWrite] ; |623| 
    3617                      .dwpsn  file "../c5535_bsl_revc/ezdsp5535_v1/c55xx_csl/ccs_v4.0_examples/lcd/CSL_LCDC_DiagramExample/
    3618 000857 A500          MOV *SP(#0), T1 ; |624| 
    3619              $C$DW$344       .dwtag  DW_TAG_TI_branch
    3620                      .dwattr $C$DW$344, DW_AT_low_pc(0x00)
    3621                      .dwattr $C$DW$344, DW_AT_name("_dataWrite")
    3622                      .dwattr $C$DW$344, DW_AT_TI_call
TMS320C55x Assembler PC v4.4.1 Sat Sep 29 23:09:22 2018

Tools Copyright (c) 1996-2012 Texas Instruments Incorporated
lcdc_panel.asm                                                       PAGE   74

    3623              
    3624 000859 08FA          CALL #_dataWrite ; |624| 
         00085b 42   
    3625 00085c 3D04  ||      MOV #0, T0
    3626              
    3627                                                      ; call occurs [#_dataWrite] ; |624| 
    3628                      .dwpsn  file "../c5535_bsl_revc/ezdsp5535_v1/c55xx_csl/ccs_v4.0_examples/lcd/CSL_LCDC_DiagramExample/
    3629 00085e 7600          MOV #127, T0 ; |625| 
         000860 7F48 
    3630 000862 A500          MOV *SP(#0), T1 ; |625| 
    3631              $C$DW$345       .dwtag  DW_TAG_TI_branch
    3632                      .dwattr $C$DW$345, DW_AT_low_pc(0x00)
    3633                      .dwattr $C$DW$345, DW_AT_name("_dataWrite")
    3634                      .dwattr $C$DW$345, DW_AT_TI_call
    3635 000864 08FA          CALL #_dataWrite ; |625| 
         000866 39   
    3636                                                      ; call occurs [#_dataWrite] ; |625| 
    3637                      .dwpsn  file "../c5535_bsl_revc/ezdsp5535_v1/c55xx_csl/ccs_v4.0_examples/lcd/CSL_LCDC_DiagramExample/
    3638              $C$DW$346       .dwtag  DW_TAG_TI_branch
    3639                      .dwattr $C$DW$346, DW_AT_low_pc(0x00)
    3640                      .dwattr $C$DW$346, DW_AT_name("_wait")
    3641                      .dwattr $C$DW$346, DW_AT_TI_call
    3642              
    3643 000867 08F8          CALL #_wait ; |626| 
         000869 6C   
    3644 00086a 3DA0  ||      MOV #10, AC0 ; |626| 
    3645              
    3646                                                      ; call occurs [#_wait] ; |626| 
    3647                      .dwpsn  file "../c5535_bsl_revc/ezdsp5535_v1/c55xx_csl/ccs_v4.0_examples/lcd/CSL_LCDC_DiagramExample/
    3648 00086c 7600          MOV #92, T0 ; |628| 
         00086e 5C48 
    3649 000870 A500          MOV *SP(#0), T1 ; |628| 
    3650              $C$DW$347       .dwtag  DW_TAG_TI_branch
    3651                      .dwattr $C$DW$347, DW_AT_low_pc(0x00)
    3652                      .dwattr $C$DW$347, DW_AT_name("_cmdWrite")
    3653                      .dwattr $C$DW$347, DW_AT_TI_call
    3654 000872 08FA          CALL #_cmdWrite ; |628| 
         000874 13   
    3655                                                      ; call occurs [#_cmdWrite] ; |628| 
    3656                      .dwpsn  file "../c5535_bsl_revc/ezdsp5535_v1/c55xx_csl/ccs_v4.0_examples/lcd/CSL_LCDC_DiagramExample/
    3657 000875 E602          MOV #0, *SP(#1) ; |629| 
         000877 00   
    3658                      .dwpsn  file "../c5535_bsl_revc/ezdsp5535_v1/c55xx_csl/ccs_v4.0_examples/lcd/CSL_LCDC_DiagramExample/
    3659 000878 7600          MOV #128, AR2 ; |629| 
         00087a 80A8 
    3660 00087c A902          MOV *SP(#1), AR1 ; |629| 
    3661 00087e 1298          CMP AR1 >= AR2, TC1 ; |629| 
         000880 A0   
    3662 000881 0464          BCC $C$L33,TC1 ; |629| 
         000883 34   
    3663                                                      ; branchcc occurs ; |629| 
    3664 000884       $C$L30:    
    3665 000884       $C$DW$L$_lcdClearPanel$2$B:
    3666                      .dwpsn  file "../c5535_bsl_revc/ezdsp5535_v1/c55xx_csl/ccs_v4.0_examples/lcd/CSL_LCDC_DiagramExample/
    3667 000884 E604          MOV #0, *SP(#2) ; |631| 
TMS320C55x Assembler PC v4.4.1 Sat Sep 29 23:09:22 2018

Tools Copyright (c) 1996-2012 Texas Instruments Incorporated
lcdc_panel.asm                                                       PAGE   75

         000886 00   
    3668                      .dwpsn  file "../c5535_bsl_revc/ezdsp5535_v1/c55xx_csl/ccs_v4.0_examples/lcd/CSL_LCDC_DiagramExample/
    3669 000887 A904          MOV *SP(#2), AR1 ; |631| 
    3670 000889 1298          CMP AR1 >= AR2, TC1 ; |631| 
         00088b A0   
    3671 00088c 0464          BCC $C$L32,TC1 ; |631| 
         00088e 1D   
    3672                                                      ; branchcc occurs ; |631| 
    3673 00088f       $C$DW$L$_lcdClearPanel$2$E:
    3674 00088f       $C$L31:    
    3675 00088f       $C$DW$L$_lcdClearPanel$3$B:
    3676                      .dwpsn  file "../c5535_bsl_revc/ezdsp5535_v1/c55xx_csl/ccs_v4.0_examples/lcd/CSL_LCDC_DiagramExample/
    3677 00088f A500          MOV *SP(#0), T1 ; |633| 
    3678              $C$DW$348       .dwtag  DW_TAG_TI_branch
    3679                      .dwattr $C$DW$348, DW_AT_low_pc(0x00)
    3680                      .dwattr $C$DW$348, DW_AT_name("_dataWrite")
    3681                      .dwattr $C$DW$348, DW_AT_TI_call
    3682              
    3683 000891 08FA          CALL #_dataWrite ; |633| 
         000893 0A   
    3684 000894 3D04  ||      MOV #0, T0
    3685              
    3686                                                      ; call occurs [#_dataWrite] ; |633| 
    3687                      .dwpsn  file "../c5535_bsl_revc/ezdsp5535_v1/c55xx_csl/ccs_v4.0_examples/lcd/CSL_LCDC_DiagramExample/
    3688 000896 A500          MOV *SP(#0), T1 ; |634| 
    3689              $C$DW$349       .dwtag  DW_TAG_TI_branch
    3690                      .dwattr $C$DW$349, DW_AT_low_pc(0x00)
    3691                      .dwattr $C$DW$349, DW_AT_name("_dataWrite")
    3692                      .dwattr $C$DW$349, DW_AT_TI_call
    3693 000898 08FA          CALL #_dataWrite ; |634| 
         00089a 05   
    3694                                                      ; call occurs [#_dataWrite] ; |634| 
    3695                      .dwpsn  file "../c5535_bsl_revc/ezdsp5535_v1/c55xx_csl/ccs_v4.0_examples/lcd/CSL_LCDC_DiagramExample/
    3696 00089b A500          MOV *SP(#0), T1 ; |635| 
    3697              $C$DW$350       .dwtag  DW_TAG_TI_branch
    3698                      .dwattr $C$DW$350, DW_AT_low_pc(0x00)
    3699                      .dwattr $C$DW$350, DW_AT_name("_dataWrite")
    3700                      .dwattr $C$DW$350, DW_AT_TI_call
    3701 00089d 08FA          CALL #_dataWrite ; |635| 
         00089f 00   
    3702                                                      ; call occurs [#_dataWrite] ; |635| 
    3703                      .dwpsn  file "../c5535_bsl_revc/ezdsp5535_v1/c55xx_csl/ccs_v4.0_examples/lcd/CSL_LCDC_DiagramExample/
    3704 0008a0 F704          ADD #1, *SP(#2) ; |631| 
         0008a2 0001 
    3705                      .dwpsn  file "../c5535_bsl_revc/ezdsp5535_v1/c55xx_csl/ccs_v4.0_examples/lcd/CSL_LCDC_DiagramExample/
    3706 0008a4 A904          MOV *SP(#2), AR1 ; |631| 
    3707 0008a6 1294          CMP AR1 < AR2, TC1 ; |631| 
         0008a8 A0   
    3708 0008a9 0464          BCC $C$L31,TC1 ; |631| 
         0008ab E3   
    3709                                                      ; branchcc occurs ; |631| 
    3710 0008ac       $C$DW$L$_lcdClearPanel$3$E:
    3711 0008ac       $C$L32:    
    3712 0008ac       $C$DW$L$_lcdClearPanel$4$B:
    3713                      .dwpsn  file "../c5535_bsl_revc/ezdsp5535_v1/c55xx_csl/ccs_v4.0_examples/lcd/CSL_LCDC_DiagramExample/
TMS320C55x Assembler PC v4.4.1 Sat Sep 29 23:09:22 2018

Tools Copyright (c) 1996-2012 Texas Instruments Incorporated
lcdc_panel.asm                                                       PAGE   76

    3714 0008ac F702          ADD #1, *SP(#1) ; |629| 
         0008ae 0001 
    3715                      .dwpsn  file "../c5535_bsl_revc/ezdsp5535_v1/c55xx_csl/ccs_v4.0_examples/lcd/CSL_LCDC_DiagramExample/
    3716 0008b0 A902          MOV *SP(#1), AR1 ; |629| 
    3717 0008b2 1294          CMP AR1 < AR2, TC1 ; |629| 
         0008b4 A0   
    3718 0008b5 0464          BCC $C$L30,TC1 ; |629| 
         0008b7 CC   
    3719                                                      ; branchcc occurs ; |629| 
    3720 0008b8       $C$DW$L$_lcdClearPanel$4$E:
    3721                      .dwpsn  file "../c5535_bsl_revc/ezdsp5535_v1/c55xx_csl/ccs_v4.0_examples/lcd/CSL_LCDC_DiagramExample/
    3722 0008b8       $C$L33:    
    3723 0008b8 4E03          AADD #3, SP
    3724                      .dwcfi  cfa_offset, 1
    3725              $C$DW$351       .dwtag  DW_TAG_TI_branch
    3726                      .dwattr $C$DW$351, DW_AT_low_pc(0x00)
    3727                      .dwattr $C$DW$351, DW_AT_TI_return
    3728 0008ba 4804          RET
    3729                                                      ; return occurs
    3730              
    3731              $C$DW$352       .dwtag  DW_TAG_TI_loop
    3732                      .dwattr $C$DW$352, DW_AT_name("F:\eZdsp_DBG\tmp1\c55x-sim2\foo\Debug\lcdc_panel.asm:$C$L30:1:15382877
    3733                      .dwattr $C$DW$352, DW_AT_TI_begin_file("../c5535_bsl_revc/ezdsp5535_v1/c55xx_csl/ccs_v4.0_examples/lc
    3734                      .dwattr $C$DW$352, DW_AT_TI_begin_line(0x275)
    3735                      .dwattr $C$DW$352, DW_AT_TI_end_line(0x27d)
    3736              $C$DW$353       .dwtag  DW_TAG_TI_loop_range
    3737                      .dwattr $C$DW$353, DW_AT_low_pc($C$DW$L$_lcdClearPanel$2$B)
    3738                      .dwattr $C$DW$353, DW_AT_high_pc($C$DW$L$_lcdClearPanel$2$E)
    3739              $C$DW$354       .dwtag  DW_TAG_TI_loop_range
    3740                      .dwattr $C$DW$354, DW_AT_low_pc($C$DW$L$_lcdClearPanel$4$B)
    3741                      .dwattr $C$DW$354, DW_AT_high_pc($C$DW$L$_lcdClearPanel$4$E)
    3742              
    3743              $C$DW$355       .dwtag  DW_TAG_TI_loop
    3744                      .dwattr $C$DW$355, DW_AT_name("F:\eZdsp_DBG\tmp1\c55x-sim2\foo\Debug\lcdc_panel.asm:$C$L31:2:15382877
    3745                      .dwattr $C$DW$355, DW_AT_TI_begin_file("../c5535_bsl_revc/ezdsp5535_v1/c55xx_csl/ccs_v4.0_examples/lc
    3746                      .dwattr $C$DW$355, DW_AT_TI_begin_line(0x277)
    3747                      .dwattr $C$DW$355, DW_AT_TI_end_line(0x27c)
    3748              $C$DW$356       .dwtag  DW_TAG_TI_loop_range
    3749                      .dwattr $C$DW$356, DW_AT_low_pc($C$DW$L$_lcdClearPanel$3$B)
    3750                      .dwattr $C$DW$356, DW_AT_high_pc($C$DW$L$_lcdClearPanel$3$E)
    3751                      .dwendtag $C$DW$355
    3752              
    3753                      .dwendtag $C$DW$352
    3754              
    3755                      .dwattr $C$DW$334, DW_AT_TI_end_file("../c5535_bsl_revc/ezdsp5535_v1/c55xx_csl/ccs_v4.0_examples/lcd/
    3756                      .dwattr $C$DW$334, DW_AT_TI_end_line(0x27f)
    3757                      .dwattr $C$DW$334, DW_AT_TI_end_column(0x01)
    3758                      .dwendentry
    3759                      .dwendtag $C$DW$334
    3760              
    3761 0008bc               .sect   ".text"
    3762                      .align 4
    3763                      .global _drawLine
    3764              
    3765              $C$DW$357       .dwtag  DW_TAG_subprogram, DW_AT_name("drawLine")
TMS320C55x Assembler PC v4.4.1 Sat Sep 29 23:09:22 2018

Tools Copyright (c) 1996-2012 Texas Instruments Incorporated
lcdc_panel.asm                                                       PAGE   77

    3766                      .dwattr $C$DW$357, DW_AT_low_pc(_drawLine)
    3767                      .dwattr $C$DW$357, DW_AT_high_pc(0x00)
    3768                      .dwattr $C$DW$357, DW_AT_TI_symbol_name("_drawLine")
    3769                      .dwattr $C$DW$357, DW_AT_external
    3770                      .dwattr $C$DW$357, DW_AT_type(*$C$DW$T$29)
    3771                      .dwattr $C$DW$357, DW_AT_TI_begin_file("../c5535_bsl_revc/ezdsp5535_v1/c55xx_csl/ccs_v4.0_examples/lc
    3772                      .dwattr $C$DW$357, DW_AT_TI_begin_line(0x2d2)
    3773                      .dwattr $C$DW$357, DW_AT_TI_begin_column(0x07)
    3774                      .dwattr $C$DW$357, DW_AT_TI_max_frame_size(0x14)
    3775                      .dwpsn  file "../c5535_bsl_revc/ezdsp5535_v1/c55xx_csl/ccs_v4.0_examples/lcd/CSL_LCDC_DiagramExample/
    3776              
    3777                      .dwfde $C$DW$CIE, _drawLine
    3778              $C$DW$358       .dwtag  DW_TAG_formal_parameter, DW_AT_name("colStart")
    3779                      .dwattr $C$DW$358, DW_AT_TI_symbol_name("_colStart")
    3780                      .dwattr $C$DW$358, DW_AT_type(*$C$DW$T$19)
    3781                      .dwattr $C$DW$358, DW_AT_location[DW_OP_reg12]
    3782              $C$DW$359       .dwtag  DW_TAG_formal_parameter, DW_AT_name("rowStart")
    3783                      .dwattr $C$DW$359, DW_AT_TI_symbol_name("_rowStart")
    3784                      .dwattr $C$DW$359, DW_AT_type(*$C$DW$T$19)
    3785                      .dwattr $C$DW$359, DW_AT_location[DW_OP_reg13]
    3786              $C$DW$360       .dwtag  DW_TAG_formal_parameter, DW_AT_name("colEnd")
    3787                      .dwattr $C$DW$360, DW_AT_TI_symbol_name("_colEnd")
    3788                      .dwattr $C$DW$360, DW_AT_type(*$C$DW$T$19)
    3789                      .dwattr $C$DW$360, DW_AT_location[DW_OP_reg16]
    3790              $C$DW$361       .dwtag  DW_TAG_formal_parameter, DW_AT_name("rowEnd")
    3791                      .dwattr $C$DW$361, DW_AT_TI_symbol_name("_rowEnd")
    3792                      .dwattr $C$DW$361, DW_AT_type(*$C$DW$T$19)
    3793                      .dwattr $C$DW$361, DW_AT_location[DW_OP_reg18]
    3794              $C$DW$362       .dwtag  DW_TAG_formal_parameter, DW_AT_name("color")
    3795                      .dwattr $C$DW$362, DW_AT_TI_symbol_name("_color")
    3796                      .dwattr $C$DW$362, DW_AT_type(*$C$DW$T$41)
    3797                      .dwattr $C$DW$362, DW_AT_location[DW_OP_reg0]
    3798              $C$DW$363       .dwtag  DW_TAG_formal_parameter, DW_AT_name("cs_flag")
    3799                      .dwattr $C$DW$363, DW_AT_TI_symbol_name("_cs_flag")
    3800                      .dwattr $C$DW$363, DW_AT_type(*$C$DW$T$19)
    3801                      .dwattr $C$DW$363, DW_AT_location[DW_OP_reg20]
    3802              ;*******************************************************************************
    3803              ;* FUNCTION NAME: drawLine                                                     *
    3804              ;*                                                                             *
    3805              ;*   Function Uses Regs : AC0,AC0,AC1,AC1,T0,T1,AR0,AR1,AR2,SP,CARRY,TC1,M40,  *
    3806              ;*                        SATA,SATD,RDM,FRCT,SMUL                              *
    3807              ;*   Stack Frame        : Compact (No Frame Pointer, w/ debug)                 *
    3808              ;*   Total Frame Size   : 20 words                                             *
    3809              ;*                        (2 return address/alignment)                         *
    3810              ;*                        (18 local values)                                    *
    3811              ;*   Min System Stack   : 1 word                                               *
    3812              ;*******************************************************************************
    3813 0008bc       _drawLine:
    3814                      .dwcfi  cfa_offset, 1
    3815                      .dwcfi  save_reg_to_mem, 91, -1
    3816 0008bc 4EED          AADD #-19, SP
    3817                      .dwcfi  cfa_offset, 20
    3818              $C$DW$364       .dwtag  DW_TAG_variable, DW_AT_name("colStart")
    3819                      .dwattr $C$DW$364, DW_AT_TI_symbol_name("_colStart")
    3820                      .dwattr $C$DW$364, DW_AT_type(*$C$DW$T$19)
TMS320C55x Assembler PC v4.4.1 Sat Sep 29 23:09:22 2018

Tools Copyright (c) 1996-2012 Texas Instruments Incorporated
lcdc_panel.asm                                                       PAGE   78

    3821                      .dwattr $C$DW$364, DW_AT_location[DW_OP_bregx 0x24 0]
    3822              $C$DW$365       .dwtag  DW_TAG_variable, DW_AT_name("rowStart")
    3823                      .dwattr $C$DW$365, DW_AT_TI_symbol_name("_rowStart")
    3824                      .dwattr $C$DW$365, DW_AT_type(*$C$DW$T$19)
    3825                      .dwattr $C$DW$365, DW_AT_location[DW_OP_bregx 0x24 1]
    3826              $C$DW$366       .dwtag  DW_TAG_variable, DW_AT_name("colEnd")
    3827                      .dwattr $C$DW$366, DW_AT_TI_symbol_name("_colEnd")
    3828                      .dwattr $C$DW$366, DW_AT_type(*$C$DW$T$19)
    3829                      .dwattr $C$DW$366, DW_AT_location[DW_OP_bregx 0x24 2]
    3830              $C$DW$367       .dwtag  DW_TAG_variable, DW_AT_name("rowEnd")
    3831                      .dwattr $C$DW$367, DW_AT_TI_symbol_name("_rowEnd")
    3832                      .dwattr $C$DW$367, DW_AT_type(*$C$DW$T$19)
    3833                      .dwattr $C$DW$367, DW_AT_location[DW_OP_bregx 0x24 3]
    3834              $C$DW$368       .dwtag  DW_TAG_variable, DW_AT_name("color")
    3835                      .dwattr $C$DW$368, DW_AT_TI_symbol_name("_color")
    3836                      .dwattr $C$DW$368, DW_AT_type(*$C$DW$T$41)
    3837                      .dwattr $C$DW$368, DW_AT_location[DW_OP_bregx 0x24 4]
    3838              $C$DW$369       .dwtag  DW_TAG_variable, DW_AT_name("cs_flag")
    3839                      .dwattr $C$DW$369, DW_AT_TI_symbol_name("_cs_flag")
    3840                      .dwattr $C$DW$369, DW_AT_type(*$C$DW$T$19)
    3841                      .dwattr $C$DW$369, DW_AT_location[DW_OP_bregx 0x24 6]
    3842              $C$DW$370       .dwtag  DW_TAG_variable, DW_AT_name("Red")
    3843                      .dwattr $C$DW$370, DW_AT_TI_symbol_name("_Red")
    3844                      .dwattr $C$DW$370, DW_AT_type(*$C$DW$T$19)
    3845                      .dwattr $C$DW$370, DW_AT_location[DW_OP_bregx 0x24 7]
    3846              $C$DW$371       .dwtag  DW_TAG_variable, DW_AT_name("Green")
    3847                      .dwattr $C$DW$371, DW_AT_TI_symbol_name("_Green")
    3848                      .dwattr $C$DW$371, DW_AT_type(*$C$DW$T$19)
    3849                      .dwattr $C$DW$371, DW_AT_location[DW_OP_bregx 0x24 8]
    3850              $C$DW$372       .dwtag  DW_TAG_variable, DW_AT_name("Width")
    3851                      .dwattr $C$DW$372, DW_AT_TI_symbol_name("_Width")
    3852                      .dwattr $C$DW$372, DW_AT_type(*$C$DW$T$10)
    3853                      .dwattr $C$DW$372, DW_AT_location[DW_OP_bregx 0x24 9]
    3854              $C$DW$373       .dwtag  DW_TAG_variable, DW_AT_name("Height")
    3855                      .dwattr $C$DW$373, DW_AT_TI_symbol_name("_Height")
    3856                      .dwattr $C$DW$373, DW_AT_type(*$C$DW$T$10)
    3857                      .dwattr $C$DW$373, DW_AT_location[DW_OP_bregx 0x24 10]
    3858              $C$DW$374       .dwtag  DW_TAG_variable, DW_AT_name("dx")
    3859                      .dwattr $C$DW$374, DW_AT_TI_symbol_name("_dx")
    3860                      .dwattr $C$DW$374, DW_AT_type(*$C$DW$T$10)
    3861                      .dwattr $C$DW$374, DW_AT_location[DW_OP_bregx 0x24 11]
    3862              $C$DW$375       .dwtag  DW_TAG_variable, DW_AT_name("m")
    3863                      .dwattr $C$DW$375, DW_AT_TI_symbol_name("_m")
    3864                      .dwattr $C$DW$375, DW_AT_type(*$C$DW$T$16)
    3865                      .dwattr $C$DW$375, DW_AT_location[DW_OP_bregx 0x24 12]
    3866              $C$DW$376       .dwtag  DW_TAG_variable, DW_AT_name("b")
    3867                      .dwattr $C$DW$376, DW_AT_TI_symbol_name("_b")
    3868                      .dwattr $C$DW$376, DW_AT_type(*$C$DW$T$16)
    3869                      .dwattr $C$DW$376, DW_AT_location[DW_OP_bregx 0x24 14]
    3870 0008be CA0C          MOV AR2, *SP(#6) ; |729| 
    3871 0008c0 EB08          MOV AC0, dbl(*SP(#4)) ; |729| 
         0008c2 08   
    3872 0008c3 C906          MOV AR1, *SP(#3) ; |729| 
    3873 0008c5 C804          MOV AR0, *SP(#2) ; |729| 
    3874 0008c7 C502          MOV T1, *SP(#1) ; |729| 
TMS320C55x Assembler PC v4.4.1 Sat Sep 29 23:09:22 2018

Tools Copyright (c) 1996-2012 Texas Instruments Incorporated
lcdc_panel.asm                                                       PAGE   79

    3875 0008c9 C400          MOV T0, *SP(#0) ; |729| 
    3876                      .dwpsn  file "../c5535_bsl_revc/ezdsp5535_v1/c55xx_csl/ccs_v4.0_examples/lcd/CSL_LCDC_DiagramExample/
    3877              
    3878 0008cf 2349          MOV T0, AR1 ; |734| 
    3879 0008cb 7600  ||      MOV #131, AR2 ; |734| 
         0008cd 83A8 
    3880              
    3881 0008d1 12A8          CMPU AR1 <= AR2, TC1 ; |734| 
         0008d3 94   
    3882 0008d4 62E4          BCC $C$L34,TC1 ; |734| 
    3883                                                      ; branchcc occurs ; |734| 
    3884                      .dwpsn  file "../c5535_bsl_revc/ezdsp5535_v1/c55xx_csl/ccs_v4.0_examples/lcd/CSL_LCDC_DiagramExample/
    3885 0008d6 3E14          MOV #-1, T0
    3886 0008d8 0601          B $C$L44  ; |735| 
         0008da 2D   
    3887                                                      ; branch occurs ; |735| 
    3888 0008db       $C$L34:    
    3889                      .dwpsn  file "../c5535_bsl_revc/ezdsp5535_v1/c55xx_csl/ccs_v4.0_examples/lcd/CSL_LCDC_DiagramExample/
    3890 0008db A902          MOV *SP(#1), AR1 ; |736| 
    3891 0008dd 12A8          CMPU AR1 <= AR2, TC1 ; |736| 
         0008df 94   
    3892 0008e0 62E4          BCC $C$L35,TC1 ; |736| 
    3893                                                      ; branchcc occurs ; |736| 
    3894                      .dwpsn  file "../c5535_bsl_revc/ezdsp5535_v1/c55xx_csl/ccs_v4.0_examples/lcd/CSL_LCDC_DiagramExample/
    3895 0008e2 3E14          MOV #-1, T0
    3896 0008e4 0601          B $C$L44  ; |737| 
         0008e6 21   
    3897                                                      ; branch occurs ; |737| 
    3898 0008e7       $C$L35:    
    3899                      .dwpsn  file "../c5535_bsl_revc/ezdsp5535_v1/c55xx_csl/ccs_v4.0_examples/lcd/CSL_LCDC_DiagramExample/
    3900 0008e7 A904          MOV *SP(#2), AR1 ; |738| 
    3901 0008e9 12A8          CMPU AR1 <= AR2, TC1 ; |738| 
         0008eb 94   
    3902 0008ec 62E4          BCC $C$L36,TC1 ; |738| 
    3903                                                      ; branchcc occurs ; |738| 
    3904                      .dwpsn  file "../c5535_bsl_revc/ezdsp5535_v1/c55xx_csl/ccs_v4.0_examples/lcd/CSL_LCDC_DiagramExample/
    3905 0008ee 3E14          MOV #-1, T0
    3906 0008f0 0601          B $C$L44  ; |739| 
         0008f2 15   
    3907                                                      ; branch occurs ; |739| 
    3908 0008f3       $C$L36:    
    3909                      .dwpsn  file "../c5535_bsl_revc/ezdsp5535_v1/c55xx_csl/ccs_v4.0_examples/lcd/CSL_LCDC_DiagramExample/
    3910 0008f3 A906          MOV *SP(#3), AR1 ; |740| 
    3911 0008f5 12A8          CMPU AR1 <= AR2, TC1 ; |740| 
         0008f7 94   
    3912 0008f8 62E4          BCC $C$L37,TC1 ; |740| 
    3913                                                      ; branchcc occurs ; |740| 
    3914                      .dwpsn  file "../c5535_bsl_revc/ezdsp5535_v1/c55xx_csl/ccs_v4.0_examples/lcd/CSL_LCDC_DiagramExample/
    3915 0008fa 3E14          MOV #-1, T0
    3916 0008fc 0601          B $C$L44  ; |741| 
         0008fe 09   
    3917                                                      ; branch occurs ; |741| 
    3918 0008ff       $C$L37:    
    3919                      .dwpsn  file "../c5535_bsl_revc/ezdsp5535_v1/c55xx_csl/ccs_v4.0_examples/lcd/CSL_LCDC_DiagramExample/
    3920 0008ff ED08          MOV dbl(*SP(#4)), AC0 ; |748| 
TMS320C55x Assembler PC v4.4.1 Sat Sep 29 23:09:22 2018

Tools Copyright (c) 1996-2012 Texas Instruments Incorporated
lcdc_panel.asm                                                       PAGE   80

         000901 08   
    3921 000902 1007          SFTL AC0, #-8, AC0 ; |748| 
         000904 38   
    3922 000905 C010          MOV AC0, *SP(#8) ; |748| 
    3923                      .dwpsn  file "../c5535_bsl_revc/ezdsp5535_v1/c55xx_csl/ccs_v4.0_examples/lcd/CSL_LCDC_DiagramExample/
    3924 000907 ED08          MOV dbl(*SP(#4)), AC0 ; |749| 
         000909 08   
    3925 00090a 18FF          AND #0x00ff, AC0, AC0 ; |749| 
         00090c 00   
    3926 00090d C00E          MOV AC0, *SP(#7) ; |749| 
    3927                      .dwpsn  file "../c5535_bsl_revc/ezdsp5535_v1/c55xx_csl/ccs_v4.0_examples/lcd/CSL_LCDC_DiagramExample/
    3928 00090f A004          MOV *SP(#2), AC0 ; |751| 
    3929 000911 DF00          SUB uns(*SP(#0)), AC0, AC0 ; |751| 
         000913 0F   
    3930 000914 4010          ADD #1, AC0 ; |751| 
    3931 000916 C012          MOV AC0, *SP(#9) ; |751| 
    3932                      .dwpsn  file "../c5535_bsl_revc/ezdsp5535_v1/c55xx_csl/ccs_v4.0_examples/lcd/CSL_LCDC_DiagramExample/
    3933 000918 A006          MOV *SP(#3), AC0 ; |752| 
    3934 00091a DF02          SUB uns(*SP(#1)), AC0, AC0 ; |752| 
         00091c 0F   
    3935 00091d 4010          ADD #1, AC0 ; |752| 
    3936 00091f C014          MOV AC0, *SP(#10) ; |752| 
    3937                      .dwpsn  file "../c5535_bsl_revc/ezdsp5535_v1/c55xx_csl/ccs_v4.0_examples/lcd/CSL_LCDC_DiagramExample/
    3938 000921 2209          MOV AC0, AR1
    3939 000923 7C00          SUB #1, AR1, T0 ; |754| 
         000925 0149 
    3940              $C$DW$377       .dwtag  DW_TAG_TI_branch
    3941                      .dwattr $C$DW$377, DW_AT_low_pc(0x00)
    3942                      .dwattr $C$DW$377, DW_AT_name("__fltid")
    3943                      .dwattr $C$DW$377, DW_AT_TI_call
    3944 000927 6C00          CALL #__fltid ; |754| 
         000929 0000!
    3945                                                      ; call occurs [#__fltid] ; |754| 
    3946 00092b A912          MOV *SP(#9), AR1 ; |754| 
    3947 00092d EB20          MOV AC0, dbl(*SP(#16)) ; |754| 
         00092f 08   
    3948 000930 7C00          SUB #1, AR1, T0 ; |754| 
         000932 0149 
    3949              $C$DW$378       .dwtag  DW_TAG_TI_branch
    3950                      .dwattr $C$DW$378, DW_AT_low_pc(0x00)
    3951                      .dwattr $C$DW$378, DW_AT_name("__fltid")
    3952                      .dwattr $C$DW$378, DW_AT_TI_call
    3953 000934 6C00          CALL #__fltid ; |754| 
         000936 0000!
    3954                                                      ; call occurs [#__fltid] ; |754| 
    3955              
    3956 000938 ED20          MOV dbl(*SP(#16)), AC0 ; |754| 
         00093a 08   
    3957 00093b 1B00  ||      OR #0, AC0, AC1
         00093d 10   
    3958              
    3959              $C$DW$379       .dwtag  DW_TAG_TI_branch
    3960                      .dwattr $C$DW$379, DW_AT_low_pc(0x00)
    3961                      .dwattr $C$DW$379, DW_AT_name("__divd")
    3962                      .dwattr $C$DW$379, DW_AT_TI_call
TMS320C55x Assembler PC v4.4.1 Sat Sep 29 23:09:22 2018

Tools Copyright (c) 1996-2012 Texas Instruments Incorporated
lcdc_panel.asm                                                       PAGE   81

    3963 00093e 6C00          CALL #__divd ; |754| 
         000940 0000!
    3964                                                      ; call occurs [#__divd] ; |754| 
    3965 000942 EB18          MOV AC0, dbl(*SP(#12)) ; |754| 
         000944 08   
    3966                      .dwpsn  file "../c5535_bsl_revc/ezdsp5535_v1/c55xx_csl/ccs_v4.0_examples/lcd/CSL_LCDC_DiagramExample/
    3967 000945 A402          MOV *SP(#1), T0 ; |755| 
    3968              $C$DW$380       .dwtag  DW_TAG_TI_branch
    3969                      .dwattr $C$DW$380, DW_AT_low_pc(0x00)
    3970                      .dwattr $C$DW$380, DW_AT_name("__fltud")
    3971                      .dwattr $C$DW$380, DW_AT_TI_call
    3972 000947 6C00          CALL #__fltud ; |755| 
         000949 0000!
    3973                                                      ; call occurs [#__fltud] ; |755| 
    3974 00094b EB20          MOV AC0, dbl(*SP(#16)) ; |755| 
         00094d 08   
    3975 00094e A400          MOV *SP(#0), T0 ; |755| 
    3976              $C$DW$381       .dwtag  DW_TAG_TI_branch
    3977                      .dwattr $C$DW$381, DW_AT_low_pc(0x00)
    3978                      .dwattr $C$DW$381, DW_AT_name("__fltud")
    3979                      .dwattr $C$DW$381, DW_AT_TI_call
    3980 000950 6C00          CALL #__fltud ; |755| 
         000952 0000!
    3981                                                      ; call occurs [#__fltud] ; |755| 
    3982              
    3983 000954 ED18          MOV dbl(*SP(#12)), AC0 ; |755| 
         000956 08   
    3984 000957 1B00  ||      OR #0, AC0, AC1
         000959 10   
    3985              
    3986              $C$DW$382       .dwtag  DW_TAG_TI_branch
    3987                      .dwattr $C$DW$382, DW_AT_low_pc(0x00)
    3988                      .dwattr $C$DW$382, DW_AT_name("__mpyd")
    3989                      .dwattr $C$DW$382, DW_AT_TI_call
    3990 00095a 6C00          CALL #__mpyd ; |755| 
         00095c 0000!
    3991                                                      ; call occurs [#__mpyd] ; |755| 
    3992              
    3993 00095e ED20          MOV dbl(*SP(#16)), AC0 ; |755| 
         000960 08   
    3994 000961 1B00  ||      OR #0, AC0, AC1
         000963 10   
    3995              
    3996              $C$DW$383       .dwtag  DW_TAG_TI_branch
    3997                      .dwattr $C$DW$383, DW_AT_low_pc(0x00)
    3998                      .dwattr $C$DW$383, DW_AT_name("__subd")
    3999                      .dwattr $C$DW$383, DW_AT_TI_call
    4000 000964 6C00          CALL #__subd ; |755| 
         000966 0000!
    4001                                                      ; call occurs [#__subd] ; |755| 
    4002 000968 EB1C          MOV AC0, dbl(*SP(#14)) ; |755| 
         00096a 08   
    4003                      .dwpsn  file "../c5535_bsl_revc/ezdsp5535_v1/c55xx_csl/ccs_v4.0_examples/lcd/CSL_LCDC_DiagramExample/
    4004 00096b A900          MOV *SP(#0), AR1 ; |756| 
    4005 00096d AA04          MOV *SP(#2), AR2 ; |756| 
TMS320C55x Assembler PC v4.4.1 Sat Sep 29 23:09:22 2018

Tools Copyright (c) 1996-2012 Texas Instruments Incorporated
lcdc_panel.asm                                                       PAGE   82

    4006 00096f 1298          CMPU AR2 <= AR1, TC1 ; |756| 
         000971 A4   
    4007 000972 6264          BCC $C$L38,TC1 ; |756| 
    4008                                                      ; branchcc occurs ; |756| 
    4009              
    4010 000974 4A02          B $C$L39  ; |756| 
    4011 000976 3D19  ||      MOV #1, AR1
    4012              
    4013                                                      ; branch occurs ; |756| 
    4014 000978       $C$L38:    
    4015 000978 3E19          MOV #-1, AR1
    4016 00097a       $C$L39:    
    4017 00097a C916          MOV AR1, *SP(#11) ; |756| 
    4018                      .dwpsn  file "../c5535_bsl_revc/ezdsp5535_v1/c55xx_csl/ccs_v4.0_examples/lcd/CSL_LCDC_DiagramExample/
    4019 00097c A912          MOV *SP(#9), AR1 ; |758| 
    4020 00097e 6229          BCC $C$L40,AR1 < #0 ; |758| 
    4021                                                      ; branchcc occurs ; |758| 
    4022 000980 A914          MOV *SP(#10), AR1 ; |758| 
    4023 000982 62D9          BCC $C$L41,AR1 >= #0 ; |758| 
    4024                                                      ; branchcc occurs ; |758| 
    4025 000984       $C$L40:    
    4026                      .dwpsn  file "../c5535_bsl_revc/ezdsp5535_v1/c55xx_csl/ccs_v4.0_examples/lcd/CSL_LCDC_DiagramExample/
    4027 000984 3E14          MOV #-1, T0
    4028 000986 0600          B $C$L44  ; |759| 
         000988 7F   
    4029                                                      ; branch occurs ; |759| 
    4030 000989       $C$L41:    
    4031                      .dwpsn  file "../c5535_bsl_revc/ezdsp5535_v1/c55xx_csl/ccs_v4.0_examples/lcd/CSL_LCDC_DiagramExample/
    4032 000989 A904          MOV *SP(#2), AR1 ; |760| 
    4033 00098b AA00          MOV *SP(#0), AR2 ; |760| 
    4034 00098d 12A0          CMPU AR2 == AR1, TC1 ; |760| 
         00098f 94   
    4035 000990 0464          BCC $C$L43,TC1 ; |760| 
         000992 73   
    4036                                                      ; branchcc occurs ; |760| 
    4037 000993       $C$L42:    
    4038 000993       $C$DW$L$_drawLine$16$B:
    4039                      .dwpsn  file "../c5535_bsl_revc/ezdsp5535_v1/c55xx_csl/ccs_v4.0_examples/lcd/CSL_LCDC_DiagramExample/
    4040 000993 A916          MOV *SP(#11), AR1 ; |761| 
    4041 000995 D600          ADD *SP(#0), AR1, AR1 ; |761| 
         000997 99   
    4042 000998 C900          MOV AR1, *SP(#0) ; |761| 
    4043                      .dwpsn  file "../c5535_bsl_revc/ezdsp5535_v1/c55xx_csl/ccs_v4.0_examples/lcd/CSL_LCDC_DiagramExample/
    4044              $C$DW$384       .dwtag  DW_TAG_TI_branch
    4045                      .dwattr $C$DW$384, DW_AT_low_pc(0x00)
    4046                      .dwattr $C$DW$384, DW_AT_name("__fltud")
    4047                      .dwattr $C$DW$384, DW_AT_TI_call
    4048              
    4049 00099a 6C00          CALL #__fltud ; |762| 
         00099c 0000!
    4050 00099e 2394  ||      MOV AR1, T0
    4051              
    4052                                                      ; call occurs [#__fltud] ; |762| 
    4053              
    4054 0009a0 ED18          MOV dbl(*SP(#12)), AC0 ; |762| 
TMS320C55x Assembler PC v4.4.1 Sat Sep 29 23:09:22 2018

Tools Copyright (c) 1996-2012 Texas Instruments Incorporated
lcdc_panel.asm                                                       PAGE   83

         0009a2 08   
    4055 0009a3 1B00  ||      OR #0, AC0, AC1
         0009a5 10   
    4056              
    4057              $C$DW$385       .dwtag  DW_TAG_TI_branch
    4058                      .dwattr $C$DW$385, DW_AT_low_pc(0x00)
    4059                      .dwattr $C$DW$385, DW_AT_name("__mpyd")
    4060                      .dwattr $C$DW$385, DW_AT_TI_call
    4061 0009a6 6C00          CALL #__mpyd ; |762| 
         0009a8 0000!
    4062                                                      ; call occurs [#__mpyd] ; |762| 
    4063 0009aa ED1C          MOV dbl(*SP(#14)), AC1 ; |762| 
         0009ac 18   
    4064              $C$DW$386       .dwtag  DW_TAG_TI_branch
    4065                      .dwattr $C$DW$386, DW_AT_low_pc(0x00)
    4066                      .dwattr $C$DW$386, DW_AT_name("__addd")
    4067                      .dwattr $C$DW$386, DW_AT_TI_call
    4068 0009ad 6C00          CALL #__addd ; |762| 
         0009af 0000!
    4069                                                      ; call occurs [#__addd] ; |762| 
    4070              $C$DW$387       .dwtag  DW_TAG_TI_branch
    4071                      .dwattr $C$DW$387, DW_AT_low_pc(0x00)
    4072                      .dwattr $C$DW$387, DW_AT_name("__fixdu")
    4073                      .dwattr $C$DW$387, DW_AT_TI_call
    4074 0009b1 6C00          CALL #__fixdu ; |762| 
         0009b3 0000!
    4075                                                      ; call occurs [#__fixdu] ; |762| 
    4076 0009b5 C402          MOV T0, *SP(#1) ; |762| 
    4077                      .dwpsn  file "../c5535_bsl_revc/ezdsp5535_v1/c55xx_csl/ccs_v4.0_examples/lcd/CSL_LCDC_DiagramExample/
    4078 0009b7 7600          MOV #21, T0 ; |763| 
         0009b9 1548 
    4079 0009bb A50C          MOV *SP(#6), T1 ; |763| 
    4080              $C$DW$388       .dwtag  DW_TAG_TI_branch
    4081                      .dwattr $C$DW$388, DW_AT_low_pc(0x00)
    4082                      .dwattr $C$DW$388, DW_AT_name("_cmdWrite")
    4083                      .dwattr $C$DW$388, DW_AT_TI_call
    4084 0009bd 08F8          CALL #_cmdWrite ; |763| 
         0009bf C8   
    4085                                                      ; call occurs [#_cmdWrite] ; |763| 
    4086                      .dwpsn  file "../c5535_bsl_revc/ezdsp5535_v1/c55xx_csl/ccs_v4.0_examples/lcd/CSL_LCDC_DiagramExample/
    4087 0009c0 A400          MOV *SP(#0), T0 ; |764| 
    4088 0009c2 A50C          MOV *SP(#6), T1 ; |764| 
    4089              $C$DW$389       .dwtag  DW_TAG_TI_branch
    4090                      .dwattr $C$DW$389, DW_AT_low_pc(0x00)
    4091                      .dwattr $C$DW$389, DW_AT_name("_dataWrite")
    4092                      .dwattr $C$DW$389, DW_AT_TI_call
    4093 0009c4 08F8          CALL #_dataWrite ; |764| 
         0009c6 D9   
    4094                                                      ; call occurs [#_dataWrite] ; |764| 
    4095                      .dwpsn  file "../c5535_bsl_revc/ezdsp5535_v1/c55xx_csl/ccs_v4.0_examples/lcd/CSL_LCDC_DiagramExample/
    4096 0009c7 A400          MOV *SP(#0), T0 ; |765| 
    4097 0009c9 A50C          MOV *SP(#6), T1 ; |765| 
    4098              $C$DW$390       .dwtag  DW_TAG_TI_branch
    4099                      .dwattr $C$DW$390, DW_AT_low_pc(0x00)
    4100                      .dwattr $C$DW$390, DW_AT_name("_dataWrite")
TMS320C55x Assembler PC v4.4.1 Sat Sep 29 23:09:22 2018

Tools Copyright (c) 1996-2012 Texas Instruments Incorporated
lcdc_panel.asm                                                       PAGE   84

    4101                      .dwattr $C$DW$390, DW_AT_TI_call
    4102 0009cb 08F8          CALL #_dataWrite ; |765| 
         0009cd D2   
    4103                                                      ; call occurs [#_dataWrite] ; |765| 
    4104                      .dwpsn  file "../c5535_bsl_revc/ezdsp5535_v1/c55xx_csl/ccs_v4.0_examples/lcd/CSL_LCDC_DiagramExample/
    4105 0009ce 7600          MOV #117, T0 ; |767| 
         0009d0 7548 
    4106 0009d2 A50C          MOV *SP(#6), T1 ; |767| 
    4107              $C$DW$391       .dwtag  DW_TAG_TI_branch
    4108                      .dwattr $C$DW$391, DW_AT_low_pc(0x00)
    4109                      .dwattr $C$DW$391, DW_AT_name("_cmdWrite")
    4110                      .dwattr $C$DW$391, DW_AT_TI_call
    4111 0009d4 08F8          CALL #_cmdWrite ; |767| 
         0009d6 B1   
    4112                                                      ; call occurs [#_cmdWrite] ; |767| 
    4113                      .dwpsn  file "../c5535_bsl_revc/ezdsp5535_v1/c55xx_csl/ccs_v4.0_examples/lcd/CSL_LCDC_DiagramExample/
    4114 0009d7 A402          MOV *SP(#1), T0 ; |768| 
    4115 0009d9 A50C          MOV *SP(#6), T1 ; |768| 
    4116              $C$DW$392       .dwtag  DW_TAG_TI_branch
    4117                      .dwattr $C$DW$392, DW_AT_low_pc(0x00)
    4118                      .dwattr $C$DW$392, DW_AT_name("_dataWrite")
    4119                      .dwattr $C$DW$392, DW_AT_TI_call
    4120 0009db 08F8          CALL #_dataWrite ; |768| 
         0009dd C2   
    4121                                                      ; call occurs [#_dataWrite] ; |768| 
    4122                      .dwpsn  file "../c5535_bsl_revc/ezdsp5535_v1/c55xx_csl/ccs_v4.0_examples/lcd/CSL_LCDC_DiagramExample/
    4123 0009de A402          MOV *SP(#1), T0 ; |769| 
    4124 0009e0 A50C          MOV *SP(#6), T1 ; |769| 
    4125              $C$DW$393       .dwtag  DW_TAG_TI_branch
    4126                      .dwattr $C$DW$393, DW_AT_low_pc(0x00)
    4127                      .dwattr $C$DW$393, DW_AT_name("_dataWrite")
    4128                      .dwattr $C$DW$393, DW_AT_TI_call
    4129 0009e2 08F8          CALL #_dataWrite ; |769| 
         0009e4 BB   
    4130                                                      ; call occurs [#_dataWrite] ; |769| 
    4131                      .dwpsn  file "../c5535_bsl_revc/ezdsp5535_v1/c55xx_csl/ccs_v4.0_examples/lcd/CSL_LCDC_DiagramExample/
    4132 0009e5 7600          MOV #92, T0 ; |771| 
         0009e7 5C48 
    4133 0009e9 A50C          MOV *SP(#6), T1 ; |771| 
    4134              $C$DW$394       .dwtag  DW_TAG_TI_branch
    4135                      .dwattr $C$DW$394, DW_AT_low_pc(0x00)
    4136                      .dwattr $C$DW$394, DW_AT_name("_cmdWrite")
    4137                      .dwattr $C$DW$394, DW_AT_TI_call
    4138 0009eb 08F8          CALL #_cmdWrite ; |771| 
         0009ed 9A   
    4139                                                      ; call occurs [#_cmdWrite] ; |771| 
    4140 0009ee       $C$DW$L$_drawLine$16$E:
    4141 0009ee       $C$DW$L$_drawLine$17$B:
    4142                      .dwpsn  file "../c5535_bsl_revc/ezdsp5535_v1/c55xx_csl/ccs_v4.0_examples/lcd/CSL_LCDC_DiagramExample/
    4143 0009ee A410          MOV *SP(#8), T0 ; |777| 
    4144 0009f0 A50C          MOV *SP(#6), T1 ; |777| 
    4145              $C$DW$395       .dwtag  DW_TAG_TI_branch
    4146                      .dwattr $C$DW$395, DW_AT_low_pc(0x00)
    4147                      .dwattr $C$DW$395, DW_AT_name("_dataWrite")
    4148                      .dwattr $C$DW$395, DW_AT_TI_call
TMS320C55x Assembler PC v4.4.1 Sat Sep 29 23:09:22 2018

Tools Copyright (c) 1996-2012 Texas Instruments Incorporated
lcdc_panel.asm                                                       PAGE   85

    4149 0009f2 08F8          CALL #_dataWrite ; |777| 
         0009f4 AB   
    4150                                                      ; call occurs [#_dataWrite] ; |777| 
    4151                      .dwpsn  file "../c5535_bsl_revc/ezdsp5535_v1/c55xx_csl/ccs_v4.0_examples/lcd/CSL_LCDC_DiagramExample/
    4152 0009f5 A40E          MOV *SP(#7), T0 ; |778| 
    4153 0009f7 A50C          MOV *SP(#6), T1 ; |778| 
    4154              $C$DW$396       .dwtag  DW_TAG_TI_branch
    4155                      .dwattr $C$DW$396, DW_AT_low_pc(0x00)
    4156                      .dwattr $C$DW$396, DW_AT_name("_dataWrite")
    4157                      .dwattr $C$DW$396, DW_AT_TI_call
    4158 0009f9 08F8          CALL #_dataWrite ; |778| 
         0009fb A4   
    4159                                                      ; call occurs [#_dataWrite] ; |778| 
    4160                      .dwpsn  file "../c5535_bsl_revc/ezdsp5535_v1/c55xx_csl/ccs_v4.0_examples/lcd/CSL_LCDC_DiagramExample/
    4161 0009fc AA00          MOV *SP(#0), AR2 ; |760| 
    4162 0009fe A904          MOV *SP(#2), AR1 ; |760| 
    4163 000a00 12AC          CMPU AR2 != AR1, TC1 ; |760| 
         000a02 94   
    4164 000a03 0464          BCC $C$L42,TC1 ; |760| 
         000a05 8D   
    4165                                                      ; branchcc occurs ; |760| 
    4166 000a06       $C$DW$L$_drawLine$17$E:
    4167 000a06       $C$L43:    
    4168                      .dwpsn  file "../c5535_bsl_revc/ezdsp5535_v1/c55xx_csl/ccs_v4.0_examples/lcd/CSL_LCDC_DiagramExample/
    4169 000a06 3C04          MOV #0, T0
    4170 000a08       $C$L44:    
    4171                      .dwpsn  file "../c5535_bsl_revc/ezdsp5535_v1/c55xx_csl/ccs_v4.0_examples/lcd/CSL_LCDC_DiagramExample/
    4172 000a08 4E13          AADD #19, SP
    4173                      .dwcfi  cfa_offset, 1
    4174              $C$DW$397       .dwtag  DW_TAG_TI_branch
    4175                      .dwattr $C$DW$397, DW_AT_low_pc(0x00)
    4176                      .dwattr $C$DW$397, DW_AT_TI_return
    4177 000a0a 4804          RET
    4178                                                      ; return occurs
    4179              
    4180              $C$DW$398       .dwtag  DW_TAG_TI_loop
    4181                      .dwattr $C$DW$398, DW_AT_name("F:\eZdsp_DBG\tmp1\c55x-sim2\foo\Debug\lcdc_panel.asm:$C$L42:1:15382877
    4182                      .dwattr $C$DW$398, DW_AT_TI_begin_file("../c5535_bsl_revc/ezdsp5535_v1/c55xx_csl/ccs_v4.0_examples/lc
    4183                      .dwattr $C$DW$398, DW_AT_TI_begin_line(0x2f8)
    4184                      .dwattr $C$DW$398, DW_AT_TI_end_line(0x30c)
    4185              $C$DW$399       .dwtag  DW_TAG_TI_loop_range
    4186                      .dwattr $C$DW$399, DW_AT_low_pc($C$DW$L$_drawLine$16$B)
    4187                      .dwattr $C$DW$399, DW_AT_high_pc($C$DW$L$_drawLine$16$E)
    4188              $C$DW$400       .dwtag  DW_TAG_TI_loop_range
    4189                      .dwattr $C$DW$400, DW_AT_low_pc($C$DW$L$_drawLine$17$B)
    4190                      .dwattr $C$DW$400, DW_AT_high_pc($C$DW$L$_drawLine$17$E)
    4191                      .dwendtag $C$DW$398
    4192              
    4193                      .dwattr $C$DW$357, DW_AT_TI_end_file("../c5535_bsl_revc/ezdsp5535_v1/c55xx_csl/ccs_v4.0_examples/lcd/
    4194                      .dwattr $C$DW$357, DW_AT_TI_end_line(0x30e)
    4195                      .dwattr $C$DW$357, DW_AT_TI_end_column(0x01)
    4196                      .dwendentry
    4197                      .dwendtag $C$DW$357
    4198              
    4199 000a0c               .sect   ".text"
TMS320C55x Assembler PC v4.4.1 Sat Sep 29 23:09:22 2018

Tools Copyright (c) 1996-2012 Texas Instruments Incorporated
lcdc_panel.asm                                                       PAGE   86

    4200                      .align 4
    4201                      .global _drawRectangle
    4202              
    4203              $C$DW$401       .dwtag  DW_TAG_subprogram, DW_AT_name("drawRectangle")
    4204                      .dwattr $C$DW$401, DW_AT_low_pc(_drawRectangle)
    4205                      .dwattr $C$DW$401, DW_AT_high_pc(0x00)
    4206                      .dwattr $C$DW$401, DW_AT_TI_symbol_name("_drawRectangle")
    4207                      .dwattr $C$DW$401, DW_AT_external
    4208                      .dwattr $C$DW$401, DW_AT_type(*$C$DW$T$29)
    4209                      .dwattr $C$DW$401, DW_AT_TI_begin_file("../c5535_bsl_revc/ezdsp5535_v1/c55xx_csl/ccs_v4.0_examples/lc
    4210                      .dwattr $C$DW$401, DW_AT_TI_begin_line(0x31c)
    4211                      .dwattr $C$DW$401, DW_AT_TI_begin_column(0x07)
    4212                      .dwattr $C$DW$401, DW_AT_TI_max_frame_size(0x0a)
    4213                      .dwpsn  file "../c5535_bsl_revc/ezdsp5535_v1/c55xx_csl/ccs_v4.0_examples/lcd/CSL_LCDC_DiagramExample/
    4214              
    4215                      .dwfde $C$DW$CIE, _drawRectangle
    4216              $C$DW$402       .dwtag  DW_TAG_formal_parameter, DW_AT_name("colStart")
    4217                      .dwattr $C$DW$402, DW_AT_TI_symbol_name("_colStart")
    4218                      .dwattr $C$DW$402, DW_AT_type(*$C$DW$T$19)
    4219                      .dwattr $C$DW$402, DW_AT_location[DW_OP_reg12]
    4220              $C$DW$403       .dwtag  DW_TAG_formal_parameter, DW_AT_name("rowStart")
    4221                      .dwattr $C$DW$403, DW_AT_TI_symbol_name("_rowStart")
    4222                      .dwattr $C$DW$403, DW_AT_type(*$C$DW$T$19)
    4223                      .dwattr $C$DW$403, DW_AT_location[DW_OP_reg13]
    4224              $C$DW$404       .dwtag  DW_TAG_formal_parameter, DW_AT_name("colEnd")
    4225                      .dwattr $C$DW$404, DW_AT_TI_symbol_name("_colEnd")
    4226                      .dwattr $C$DW$404, DW_AT_type(*$C$DW$T$19)
    4227                      .dwattr $C$DW$404, DW_AT_location[DW_OP_reg16]
    4228              $C$DW$405       .dwtag  DW_TAG_formal_parameter, DW_AT_name("rowEnd")
    4229                      .dwattr $C$DW$405, DW_AT_TI_symbol_name("_rowEnd")
    4230                      .dwattr $C$DW$405, DW_AT_type(*$C$DW$T$19)
    4231                      .dwattr $C$DW$405, DW_AT_location[DW_OP_reg18]
    4232              $C$DW$406       .dwtag  DW_TAG_formal_parameter, DW_AT_name("outColor")
    4233                      .dwattr $C$DW$406, DW_AT_TI_symbol_name("_outColor")
    4234                      .dwattr $C$DW$406, DW_AT_type(*$C$DW$T$19)
    4235                      .dwattr $C$DW$406, DW_AT_location[DW_OP_reg20]
    4236              $C$DW$407       .dwtag  DW_TAG_formal_parameter, DW_AT_name("fillColor")
    4237                      .dwattr $C$DW$407, DW_AT_TI_symbol_name("_fillColor")
    4238                      .dwattr $C$DW$407, DW_AT_type(*$C$DW$T$19)
    4239                      .dwattr $C$DW$407, DW_AT_location[DW_OP_reg22]
    4240              $C$DW$408       .dwtag  DW_TAG_formal_parameter, DW_AT_name("cs_flag")
    4241                      .dwattr $C$DW$408, DW_AT_TI_symbol_name("_cs_flag")
    4242                      .dwattr $C$DW$408, DW_AT_type(*$C$DW$T$19)
    4243                      .dwattr $C$DW$408, DW_AT_location[DW_OP_reg24]
    4244              ;*******************************************************************************
    4245              ;* FUNCTION NAME: drawRectangle                                                *
    4246              ;*                                                                             *
    4247              ;*   Function Uses Regs : AC0,AC0,T0,T1,AR0,AR1,AR2,AR3,AR4,SP,TC1,M40,SATA,   *
    4248              ;*                        SATD,RDM,FRCT,SMUL                                   *
    4249              ;*   Stack Frame        : Compact (No Frame Pointer, w/ debug)                 *
    4250              ;*   Total Frame Size   : 10 words                                             *
    4251              ;*                        (1 return address/alignment)                         *
    4252              ;*                        (9 local values)                                     *
    4253              ;*   Min System Stack   : 1 word                                               *
    4254              ;*******************************************************************************
TMS320C55x Assembler PC v4.4.1 Sat Sep 29 23:09:22 2018

Tools Copyright (c) 1996-2012 Texas Instruments Incorporated
lcdc_panel.asm                                                       PAGE   87

    4255 000a0c       _drawRectangle:
    4256                      .dwcfi  cfa_offset, 1
    4257                      .dwcfi  save_reg_to_mem, 91, -1
    4258 000a0c 4EF7          AADD #-9, SP
    4259                      .dwcfi  cfa_offset, 10
    4260              $C$DW$409       .dwtag  DW_TAG_variable, DW_AT_name("colStart")
    4261                      .dwattr $C$DW$409, DW_AT_TI_symbol_name("_colStart")
    4262                      .dwattr $C$DW$409, DW_AT_type(*$C$DW$T$19)
    4263                      .dwattr $C$DW$409, DW_AT_location[DW_OP_bregx 0x24 0]
    4264              $C$DW$410       .dwtag  DW_TAG_variable, DW_AT_name("rowStart")
    4265                      .dwattr $C$DW$410, DW_AT_TI_symbol_name("_rowStart")
    4266                      .dwattr $C$DW$410, DW_AT_type(*$C$DW$T$19)
    4267                      .dwattr $C$DW$410, DW_AT_location[DW_OP_bregx 0x24 1]
    4268              $C$DW$411       .dwtag  DW_TAG_variable, DW_AT_name("colEnd")
    4269                      .dwattr $C$DW$411, DW_AT_TI_symbol_name("_colEnd")
    4270                      .dwattr $C$DW$411, DW_AT_type(*$C$DW$T$19)
    4271                      .dwattr $C$DW$411, DW_AT_location[DW_OP_bregx 0x24 2]
    4272              $C$DW$412       .dwtag  DW_TAG_variable, DW_AT_name("rowEnd")
    4273                      .dwattr $C$DW$412, DW_AT_TI_symbol_name("_rowEnd")
    4274                      .dwattr $C$DW$412, DW_AT_type(*$C$DW$T$19)
    4275                      .dwattr $C$DW$412, DW_AT_location[DW_OP_bregx 0x24 3]
    4276              $C$DW$413       .dwtag  DW_TAG_variable, DW_AT_name("outColor")
    4277                      .dwattr $C$DW$413, DW_AT_TI_symbol_name("_outColor")
    4278                      .dwattr $C$DW$413, DW_AT_type(*$C$DW$T$19)
    4279                      .dwattr $C$DW$413, DW_AT_location[DW_OP_bregx 0x24 4]
    4280              $C$DW$414       .dwtag  DW_TAG_variable, DW_AT_name("fillColor")
    4281                      .dwattr $C$DW$414, DW_AT_TI_symbol_name("_fillColor")
    4282                      .dwattr $C$DW$414, DW_AT_type(*$C$DW$T$19)
    4283                      .dwattr $C$DW$414, DW_AT_location[DW_OP_bregx 0x24 5]
    4284              $C$DW$415       .dwtag  DW_TAG_variable, DW_AT_name("cs_flag")
    4285                      .dwattr $C$DW$415, DW_AT_TI_symbol_name("_cs_flag")
    4286                      .dwattr $C$DW$415, DW_AT_type(*$C$DW$T$19)
    4287                      .dwattr $C$DW$415, DW_AT_location[DW_OP_bregx 0x24 6]
    4288              $C$DW$416       .dwtag  DW_TAG_variable, DW_AT_name("tempLSB")
    4289                      .dwattr $C$DW$416, DW_AT_TI_symbol_name("_tempLSB")
    4290                      .dwattr $C$DW$416, DW_AT_type(*$C$DW$T$61)
    4291                      .dwattr $C$DW$416, DW_AT_location[DW_OP_bregx 0x24 7]
    4292              $C$DW$417       .dwtag  DW_TAG_variable, DW_AT_name("tempMSB")
    4293                      .dwattr $C$DW$417, DW_AT_TI_symbol_name("_tempMSB")
    4294                      .dwattr $C$DW$417, DW_AT_type(*$C$DW$T$61)
    4295                      .dwattr $C$DW$417, DW_AT_location[DW_OP_bregx 0x24 8]
    4296 000a0e CC0C          MOV AR4, *SP(#6) ; |804| 
    4297 000a10 CB0A          MOV AR3, *SP(#5) ; |804| 
    4298 000a12 CA08          MOV AR2, *SP(#4) ; |804| 
    4299 000a14 C906          MOV AR1, *SP(#3) ; |804| 
    4300 000a16 C804          MOV AR0, *SP(#2) ; |804| 
    4301 000a18 C502          MOV T1, *SP(#1) ; |804| 
    4302 000a1a C400          MOV T0, *SP(#0) ; |804| 
    4303                      .dwpsn  file "../c5535_bsl_revc/ezdsp5535_v1/c55xx_csl/ccs_v4.0_examples/lcd/CSL_LCDC_DiagramExample/
    4304              
    4305 000a20 2349          MOV T0, AR1 ; |808| 
    4306 000a1c 7600  ||      MOV #131, AR2 ; |808| 
         000a1e 83A8 
    4307              
    4308 000a22 12A8          CMPU AR1 <= AR2, TC1 ; |808| 
TMS320C55x Assembler PC v4.4.1 Sat Sep 29 23:09:22 2018

Tools Copyright (c) 1996-2012 Texas Instruments Incorporated
lcdc_panel.asm                                                       PAGE   88

         000a24 94   
    4309 000a25 62E4          BCC $C$L45,TC1 ; |808| 
    4310                                                      ; branchcc occurs ; |808| 
    4311                      .dwpsn  file "../c5535_bsl_revc/ezdsp5535_v1/c55xx_csl/ccs_v4.0_examples/lcd/CSL_LCDC_DiagramExample/
    4312 000a27 3E14          MOV #-1, T0
    4313 000a29 0600          B $C$L51  ; |809| 
         000a2b A4   
    4314                                                      ; branch occurs ; |809| 
    4315 000a2c       $C$L45:    
    4316                      .dwpsn  file "../c5535_bsl_revc/ezdsp5535_v1/c55xx_csl/ccs_v4.0_examples/lcd/CSL_LCDC_DiagramExample/
    4317 000a2c A902          MOV *SP(#1), AR1 ; |810| 
    4318 000a2e 12A8          CMPU AR1 <= AR2, TC1 ; |810| 
         000a30 94   
    4319 000a31 62E4          BCC $C$L46,TC1 ; |810| 
    4320                                                      ; branchcc occurs ; |810| 
    4321                      .dwpsn  file "../c5535_bsl_revc/ezdsp5535_v1/c55xx_csl/ccs_v4.0_examples/lcd/CSL_LCDC_DiagramExample/
    4322 000a33 3E14          MOV #-1, T0
    4323 000a35 0600          B $C$L51  ; |811| 
         000a37 98   
    4324                                                      ; branch occurs ; |811| 
    4325 000a38       $C$L46:    
    4326                      .dwpsn  file "../c5535_bsl_revc/ezdsp5535_v1/c55xx_csl/ccs_v4.0_examples/lcd/CSL_LCDC_DiagramExample/
    4327 000a38 A904          MOV *SP(#2), AR1 ; |812| 
    4328 000a3a 12A8          CMPU AR1 <= AR2, TC1 ; |812| 
         000a3c 94   
    4329 000a3d 62E4          BCC $C$L47,TC1 ; |812| 
    4330                                                      ; branchcc occurs ; |812| 
    4331                      .dwpsn  file "../c5535_bsl_revc/ezdsp5535_v1/c55xx_csl/ccs_v4.0_examples/lcd/CSL_LCDC_DiagramExample/
    4332 000a3f 3E14          MOV #-1, T0
    4333 000a41 0600          B $C$L51  ; |813| 
         000a43 8C   
    4334                                                      ; branch occurs ; |813| 
    4335 000a44       $C$L47:    
    4336                      .dwpsn  file "../c5535_bsl_revc/ezdsp5535_v1/c55xx_csl/ccs_v4.0_examples/lcd/CSL_LCDC_DiagramExample/
    4337 000a44 A906          MOV *SP(#3), AR1 ; |814| 
    4338 000a46 12A8          CMPU AR1 <= AR2, TC1 ; |814| 
         000a48 94   
    4339 000a49 62E4          BCC $C$L48,TC1 ; |814| 
    4340                                                      ; branchcc occurs ; |814| 
    4341                      .dwpsn  file "../c5535_bsl_revc/ezdsp5535_v1/c55xx_csl/ccs_v4.0_examples/lcd/CSL_LCDC_DiagramExample/
    4342 000a4b 3E14          MOV #-1, T0
    4343 000a4d 0600          B $C$L51  ; |815| 
         000a4f 80   
    4344                                                      ; branch occurs ; |815| 
    4345 000a50       $C$L48:    
    4346                      .dwpsn  file "../c5535_bsl_revc/ezdsp5535_v1/c55xx_csl/ccs_v4.0_examples/lcd/CSL_LCDC_DiagramExample/
    4347              
    4348 000a50 AA04          MOV *SP(#2), AR2 ; |816| 
    4349 000a52 2349  ||      MOV T0, AR1
    4350              
    4351 000a54 12A4          CMPU AR2 < AR1, TC1 ; |816| 
         000a56 94   
    4352 000a57 64E4          BCC $C$L49,TC1 ; |816| 
    4353                                                      ; branchcc occurs ; |816| 
    4354 000a59 A902          MOV *SP(#1), AR1 ; |816| 
TMS320C55x Assembler PC v4.4.1 Sat Sep 29 23:09:22 2018

Tools Copyright (c) 1996-2012 Texas Instruments Incorporated
lcdc_panel.asm                                                       PAGE   89

    4355 000a5b AA06          MOV *SP(#3), AR2 ; |816| 
    4356 000a5d 12A8          CMPU AR2 >= AR1, TC1 ; |816| 
         000a5f 94   
    4357 000a60 62E4          BCC $C$L50,TC1 ; |816| 
    4358                                                      ; branchcc occurs ; |816| 
    4359 000a62       $C$L49:    
    4360                      .dwpsn  file "../c5535_bsl_revc/ezdsp5535_v1/c55xx_csl/ccs_v4.0_examples/lcd/CSL_LCDC_DiagramExample/
    4361 000a62 3E14          MOV #-1, T0
    4362 000a64 0600          B $C$L51  ; |817| 
         000a66 69   
    4363                                                      ; branch occurs ; |817| 
    4364 000a67       $C$L50:    
    4365                      .dwpsn  file "../c5535_bsl_revc/ezdsp5535_v1/c55xx_csl/ccs_v4.0_examples/lcd/CSL_LCDC_DiagramExample/
    4366 000a67 A50C          MOV *SP(#6), T1 ; |820| 
    4367 000a69 7600          MOV #146, T0 ; |820| 
         000a6b 9248 
    4368              $C$DW$418       .dwtag  DW_TAG_TI_branch
    4369                      .dwattr $C$DW$418, DW_AT_low_pc(0x00)
    4370                      .dwattr $C$DW$418, DW_AT_name("_cmdWrite")
    4371                      .dwattr $C$DW$418, DW_AT_TI_call
    4372 000a6d 08F8          CALL #_cmdWrite ; |820| 
         000a6f 18   
    4373                                                      ; call occurs [#_cmdWrite] ; |820| 
    4374                      .dwpsn  file "../c5535_bsl_revc/ezdsp5535_v1/c55xx_csl/ccs_v4.0_examples/lcd/CSL_LCDC_DiagramExample/
    4375 000a70 A50C          MOV *SP(#6), T1 ; |821| 
    4376              $C$DW$419       .dwtag  DW_TAG_TI_branch
    4377                      .dwattr $C$DW$419, DW_AT_low_pc(0x00)
    4378                      .dwattr $C$DW$419, DW_AT_name("_dataWrite")
    4379                      .dwattr $C$DW$419, DW_AT_TI_call
    4380              
    4381 000a72 08F8          CALL #_dataWrite ; |821| 
         000a74 29   
    4382 000a75 3D14  ||      MOV #1, T0
    4383              
    4384                                                      ; call occurs [#_dataWrite] ; |821| 
    4385                      .dwpsn  file "../c5535_bsl_revc/ezdsp5535_v1/c55xx_csl/ccs_v4.0_examples/lcd/CSL_LCDC_DiagramExample/
    4386 000a77 7600          MOV #132, T0 ; |823| 
         000a79 8448 
    4387 000a7b A50C          MOV *SP(#6), T1 ; |823| 
    4388              $C$DW$420       .dwtag  DW_TAG_TI_branch
    4389                      .dwattr $C$DW$420, DW_AT_low_pc(0x00)
    4390                      .dwattr $C$DW$420, DW_AT_name("_cmdWrite")
    4391                      .dwattr $C$DW$420, DW_AT_TI_call
    4392 000a7d 08F8          CALL #_cmdWrite ; |823| 
         000a7f 08   
    4393                                                      ; call occurs [#_cmdWrite] ; |823| 
    4394                      .dwpsn  file "../c5535_bsl_revc/ezdsp5535_v1/c55xx_csl/ccs_v4.0_examples/lcd/CSL_LCDC_DiagramExample/
    4395 000a80 A400          MOV *SP(#0), T0 ; |824| 
    4396 000a82 A50C          MOV *SP(#6), T1 ; |824| 
    4397              $C$DW$421       .dwtag  DW_TAG_TI_branch
    4398                      .dwattr $C$DW$421, DW_AT_low_pc(0x00)
    4399                      .dwattr $C$DW$421, DW_AT_name("_dataWrite")
    4400                      .dwattr $C$DW$421, DW_AT_TI_call
    4401 000a84 08F8          CALL #_dataWrite ; |824| 
         000a86 19   
TMS320C55x Assembler PC v4.4.1 Sat Sep 29 23:09:22 2018

Tools Copyright (c) 1996-2012 Texas Instruments Incorporated
lcdc_panel.asm                                                       PAGE   90

    4402                                                      ; call occurs [#_dataWrite] ; |824| 
    4403                      .dwpsn  file "../c5535_bsl_revc/ezdsp5535_v1/c55xx_csl/ccs_v4.0_examples/lcd/CSL_LCDC_DiagramExample/
    4404 000a87 A402          MOV *SP(#1), T0 ; |825| 
    4405 000a89 A50C          MOV *SP(#6), T1 ; |825| 
    4406              $C$DW$422       .dwtag  DW_TAG_TI_branch
    4407                      .dwattr $C$DW$422, DW_AT_low_pc(0x00)
    4408                      .dwattr $C$DW$422, DW_AT_name("_dataWrite")
    4409                      .dwattr $C$DW$422, DW_AT_TI_call
    4410 000a8b 08F8          CALL #_dataWrite ; |825| 
         000a8d 12   
    4411                                                      ; call occurs [#_dataWrite] ; |825| 
    4412                      .dwpsn  file "../c5535_bsl_revc/ezdsp5535_v1/c55xx_csl/ccs_v4.0_examples/lcd/CSL_LCDC_DiagramExample/
    4413 000a8e A404          MOV *SP(#2), T0 ; |826| 
    4414 000a90 A50C          MOV *SP(#6), T1 ; |826| 
    4415              $C$DW$423       .dwtag  DW_TAG_TI_branch
    4416                      .dwattr $C$DW$423, DW_AT_low_pc(0x00)
    4417                      .dwattr $C$DW$423, DW_AT_name("_dataWrite")
    4418                      .dwattr $C$DW$423, DW_AT_TI_call
    4419 000a92 08F8          CALL #_dataWrite ; |826| 
         000a94 0B   
    4420                                                      ; call occurs [#_dataWrite] ; |826| 
    4421                      .dwpsn  file "../c5535_bsl_revc/ezdsp5535_v1/c55xx_csl/ccs_v4.0_examples/lcd/CSL_LCDC_DiagramExample/
    4422 000a95 A406          MOV *SP(#3), T0 ; |827| 
    4423 000a97 A50C          MOV *SP(#6), T1 ; |827| 
    4424              $C$DW$424       .dwtag  DW_TAG_TI_branch
    4425                      .dwattr $C$DW$424, DW_AT_low_pc(0x00)
    4426                      .dwattr $C$DW$424, DW_AT_name("_dataWrite")
    4427                      .dwattr $C$DW$424, DW_AT_TI_call
    4428 000a99 08F8          CALL #_dataWrite ; |827| 
         000a9b 04   
    4429                                                      ; call occurs [#_dataWrite] ; |827| 
    4430                      .dwpsn  file "../c5535_bsl_revc/ezdsp5535_v1/c55xx_csl/ccs_v4.0_examples/lcd/CSL_LCDC_DiagramExample/
    4431 000a9c A908          MOV *SP(#4), AR1 ; |829| 
    4432 000a9e C90E          MOV AR1, *SP(#7) ; |829| 
    4433                      .dwpsn  file "../c5535_bsl_revc/ezdsp5535_v1/c55xx_csl/ccs_v4.0_examples/lcd/CSL_LCDC_DiagramExample/
    4434 000aa0 DF08          MOV uns(high_byte(*SP(#4))), AR1 ; |830| 
         000aa2 91   
    4435 000aa3 C910          MOV AR1, *SP(#8) ; |830| 
    4436                      .dwpsn  file "../c5535_bsl_revc/ezdsp5535_v1/c55xx_csl/ccs_v4.0_examples/lcd/CSL_LCDC_DiagramExample/
    4437 000aa5 A40E          MOV *SP(#7), T0 ; |831| 
    4438 000aa7 A50C          MOV *SP(#6), T1 ; |831| 
    4439              $C$DW$425       .dwtag  DW_TAG_TI_branch
    4440                      .dwattr $C$DW$425, DW_AT_low_pc(0x00)
    4441                      .dwattr $C$DW$425, DW_AT_name("_dataWrite")
    4442                      .dwattr $C$DW$425, DW_AT_TI_call
    4443 000aa9 08F7          CALL #_dataWrite ; |831| 
         000aab F4   
    4444                                                      ; call occurs [#_dataWrite] ; |831| 
    4445                      .dwpsn  file "../c5535_bsl_revc/ezdsp5535_v1/c55xx_csl/ccs_v4.0_examples/lcd/CSL_LCDC_DiagramExample/
    4446 000aac A410          MOV *SP(#8), T0 ; |832| 
    4447 000aae A50C          MOV *SP(#6), T1 ; |832| 
    4448              $C$DW$426       .dwtag  DW_TAG_TI_branch
    4449                      .dwattr $C$DW$426, DW_AT_low_pc(0x00)
    4450                      .dwattr $C$DW$426, DW_AT_name("_dataWrite")
    4451                      .dwattr $C$DW$426, DW_AT_TI_call
TMS320C55x Assembler PC v4.4.1 Sat Sep 29 23:09:22 2018

Tools Copyright (c) 1996-2012 Texas Instruments Incorporated
lcdc_panel.asm                                                       PAGE   91

    4452 000ab0 08F7          CALL #_dataWrite ; |832| 
         000ab2 ED   
    4453                                                      ; call occurs [#_dataWrite] ; |832| 
    4454                      .dwpsn  file "../c5535_bsl_revc/ezdsp5535_v1/c55xx_csl/ccs_v4.0_examples/lcd/CSL_LCDC_DiagramExample/
    4455 000ab3 DF0A          MOV uns(low_byte(*SP(#5))), AR1 ; |833| 
         000ab5 93   
    4456 000ab6 C90E          MOV AR1, *SP(#7) ; |833| 
    4457                      .dwpsn  file "../c5535_bsl_revc/ezdsp5535_v1/c55xx_csl/ccs_v4.0_examples/lcd/CSL_LCDC_DiagramExample/
    4458 000ab8 DF0A          MOV uns(high_byte(*SP(#5))), AR1 ; |834| 
         000aba 91   
    4459 000abb 18FF          AND #0x00ff, AR1, AC0 ; |834| 
         000abd 09   
    4460 000abe C010          MOV AC0, *SP(#8) ; |834| 
    4461                      .dwpsn  file "../c5535_bsl_revc/ezdsp5535_v1/c55xx_csl/ccs_v4.0_examples/lcd/CSL_LCDC_DiagramExample/
    4462 000ac0 A40E          MOV *SP(#7), T0 ; |835| 
    4463 000ac2 A50C          MOV *SP(#6), T1 ; |835| 
    4464              $C$DW$427       .dwtag  DW_TAG_TI_branch
    4465                      .dwattr $C$DW$427, DW_AT_low_pc(0x00)
    4466                      .dwattr $C$DW$427, DW_AT_name("_dataWrite")
    4467                      .dwattr $C$DW$427, DW_AT_TI_call
    4468 000ac4 08F7          CALL #_dataWrite ; |835| 
         000ac6 D9   
    4469                                                      ; call occurs [#_dataWrite] ; |835| 
    4470                      .dwpsn  file "../c5535_bsl_revc/ezdsp5535_v1/c55xx_csl/ccs_v4.0_examples/lcd/CSL_LCDC_DiagramExample/
    4471 000ac7 A410          MOV *SP(#8), T0 ; |836| 
    4472 000ac9 A50C          MOV *SP(#6), T1 ; |836| 
    4473              $C$DW$428       .dwtag  DW_TAG_TI_branch
    4474                      .dwattr $C$DW$428, DW_AT_low_pc(0x00)
    4475                      .dwattr $C$DW$428, DW_AT_name("_dataWrite")
    4476                      .dwattr $C$DW$428, DW_AT_TI_call
    4477 000acb 08F7          CALL #_dataWrite ; |836| 
         000acd D2   
    4478                                                      ; call occurs [#_dataWrite] ; |836| 
    4479                      .dwpsn  file "../c5535_bsl_revc/ezdsp5535_v1/c55xx_csl/ccs_v4.0_examples/lcd/CSL_LCDC_DiagramExample/
    4480 000ace 3C04          MOV #0, T0
    4481 000ad0       $C$L51:    
    4482                      .dwpsn  file "../c5535_bsl_revc/ezdsp5535_v1/c55xx_csl/ccs_v4.0_examples/lcd/CSL_LCDC_DiagramExample/
    4483 000ad0 4E09          AADD #9, SP
    4484                      .dwcfi  cfa_offset, 1
    4485              $C$DW$429       .dwtag  DW_TAG_TI_branch
    4486                      .dwattr $C$DW$429, DW_AT_low_pc(0x00)
    4487                      .dwattr $C$DW$429, DW_AT_TI_return
    4488 000ad2 4804          RET
    4489                                                      ; return occurs
    4490                      .dwattr $C$DW$401, DW_AT_TI_end_file("../c5535_bsl_revc/ezdsp5535_v1/c55xx_csl/ccs_v4.0_examples/lcd/
    4491                      .dwattr $C$DW$401, DW_AT_TI_end_line(0x347)
    4492                      .dwattr $C$DW$401, DW_AT_TI_end_column(0x01)
    4493                      .dwendentry
    4494                      .dwendtag $C$DW$401
    4495              
    4496 000ad4               .sect   ".text"
    4497                      .align 4
    4498                      .global _drawCircle
    4499              
    4500              $C$DW$430       .dwtag  DW_TAG_subprogram, DW_AT_name("drawCircle")
TMS320C55x Assembler PC v4.4.1 Sat Sep 29 23:09:22 2018

Tools Copyright (c) 1996-2012 Texas Instruments Incorporated
lcdc_panel.asm                                                       PAGE   92

    4501                      .dwattr $C$DW$430, DW_AT_low_pc(_drawCircle)
    4502                      .dwattr $C$DW$430, DW_AT_high_pc(0x00)
    4503                      .dwattr $C$DW$430, DW_AT_TI_symbol_name("_drawCircle")
    4504                      .dwattr $C$DW$430, DW_AT_external
    4505                      .dwattr $C$DW$430, DW_AT_type(*$C$DW$T$29)
    4506                      .dwattr $C$DW$430, DW_AT_TI_begin_file("../c5535_bsl_revc/ezdsp5535_v1/c55xx_csl/ccs_v4.0_examples/lc
    4507                      .dwattr $C$DW$430, DW_AT_TI_begin_line(0x354)
    4508                      .dwattr $C$DW$430, DW_AT_TI_begin_column(0x07)
    4509                      .dwattr $C$DW$430, DW_AT_TI_max_frame_size(0x0a)
    4510                      .dwpsn  file "../c5535_bsl_revc/ezdsp5535_v1/c55xx_csl/ccs_v4.0_examples/lcd/CSL_LCDC_DiagramExample/
    4511              
    4512                      .dwfde $C$DW$CIE, _drawCircle
    4513              $C$DW$431       .dwtag  DW_TAG_formal_parameter, DW_AT_name("colCenter")
    4514                      .dwattr $C$DW$431, DW_AT_TI_symbol_name("_colCenter")
    4515                      .dwattr $C$DW$431, DW_AT_type(*$C$DW$T$19)
    4516                      .dwattr $C$DW$431, DW_AT_location[DW_OP_reg12]
    4517              $C$DW$432       .dwtag  DW_TAG_formal_parameter, DW_AT_name("rowCenter")
    4518                      .dwattr $C$DW$432, DW_AT_TI_symbol_name("_rowCenter")
    4519                      .dwattr $C$DW$432, DW_AT_type(*$C$DW$T$19)
    4520                      .dwattr $C$DW$432, DW_AT_location[DW_OP_reg13]
    4521              $C$DW$433       .dwtag  DW_TAG_formal_parameter, DW_AT_name("radius")
    4522                      .dwattr $C$DW$433, DW_AT_TI_symbol_name("_radius")
    4523                      .dwattr $C$DW$433, DW_AT_type(*$C$DW$T$19)
    4524                      .dwattr $C$DW$433, DW_AT_location[DW_OP_reg16]
    4525              $C$DW$434       .dwtag  DW_TAG_formal_parameter, DW_AT_name("outColor")
    4526                      .dwattr $C$DW$434, DW_AT_TI_symbol_name("_outColor")
    4527                      .dwattr $C$DW$434, DW_AT_type(*$C$DW$T$19)
    4528                      .dwattr $C$DW$434, DW_AT_location[DW_OP_reg18]
    4529              $C$DW$435       .dwtag  DW_TAG_formal_parameter, DW_AT_name("fillColor")
    4530                      .dwattr $C$DW$435, DW_AT_TI_symbol_name("_fillColor")
    4531                      .dwattr $C$DW$435, DW_AT_type(*$C$DW$T$19)
    4532                      .dwattr $C$DW$435, DW_AT_location[DW_OP_reg20]
    4533              $C$DW$436       .dwtag  DW_TAG_formal_parameter, DW_AT_name("cs_flag")
    4534                      .dwattr $C$DW$436, DW_AT_TI_symbol_name("_cs_flag")
    4535                      .dwattr $C$DW$436, DW_AT_type(*$C$DW$T$19)
    4536                      .dwattr $C$DW$436, DW_AT_location[DW_OP_reg22]
    4537              ;*******************************************************************************
    4538              ;* FUNCTION NAME: drawCircle                                                   *
    4539              ;*                                                                             *
    4540              ;*   Function Uses Regs : T0,T1,AR0,AR1,AR2,AR3,SP,TC1,M40,SATA,SATD,RDM,FRCT, *
    4541              ;*                        SMUL                                                 *
    4542              ;*   Stack Frame        : Compact (No Frame Pointer, w/ debug)                 *
    4543              ;*   Total Frame Size   : 10 words                                             *
    4544              ;*                        (2 return address/alignment)                         *
    4545              ;*                        (8 local values)                                     *
    4546              ;*   Min System Stack   : 1 word                                               *
    4547              ;*******************************************************************************
    4548 000ad4       _drawCircle:
    4549                      .dwcfi  cfa_offset, 1
    4550                      .dwcfi  save_reg_to_mem, 91, -1
    4551 000ad4 4EF7          AADD #-9, SP
    4552                      .dwcfi  cfa_offset, 10
    4553              $C$DW$437       .dwtag  DW_TAG_variable, DW_AT_name("colCenter")
    4554                      .dwattr $C$DW$437, DW_AT_TI_symbol_name("_colCenter")
    4555                      .dwattr $C$DW$437, DW_AT_type(*$C$DW$T$19)
TMS320C55x Assembler PC v4.4.1 Sat Sep 29 23:09:22 2018

Tools Copyright (c) 1996-2012 Texas Instruments Incorporated
lcdc_panel.asm                                                       PAGE   93

    4556                      .dwattr $C$DW$437, DW_AT_location[DW_OP_bregx 0x24 0]
    4557              $C$DW$438       .dwtag  DW_TAG_variable, DW_AT_name("rowCenter")
    4558                      .dwattr $C$DW$438, DW_AT_TI_symbol_name("_rowCenter")
    4559                      .dwattr $C$DW$438, DW_AT_type(*$C$DW$T$19)
    4560                      .dwattr $C$DW$438, DW_AT_location[DW_OP_bregx 0x24 1]
    4561              $C$DW$439       .dwtag  DW_TAG_variable, DW_AT_name("radius")
    4562                      .dwattr $C$DW$439, DW_AT_TI_symbol_name("_radius")
    4563                      .dwattr $C$DW$439, DW_AT_type(*$C$DW$T$19)
    4564                      .dwattr $C$DW$439, DW_AT_location[DW_OP_bregx 0x24 2]
    4565              $C$DW$440       .dwtag  DW_TAG_variable, DW_AT_name("outColor")
    4566                      .dwattr $C$DW$440, DW_AT_TI_symbol_name("_outColor")
    4567                      .dwattr $C$DW$440, DW_AT_type(*$C$DW$T$19)
    4568                      .dwattr $C$DW$440, DW_AT_location[DW_OP_bregx 0x24 3]
    4569              $C$DW$441       .dwtag  DW_TAG_variable, DW_AT_name("fillColor")
    4570                      .dwattr $C$DW$441, DW_AT_TI_symbol_name("_fillColor")
    4571                      .dwattr $C$DW$441, DW_AT_type(*$C$DW$T$19)
    4572                      .dwattr $C$DW$441, DW_AT_location[DW_OP_bregx 0x24 4]
    4573              $C$DW$442       .dwtag  DW_TAG_variable, DW_AT_name("cs_flag")
    4574                      .dwattr $C$DW$442, DW_AT_TI_symbol_name("_cs_flag")
    4575                      .dwattr $C$DW$442, DW_AT_type(*$C$DW$T$19)
    4576                      .dwattr $C$DW$442, DW_AT_location[DW_OP_bregx 0x24 5]
    4577              $C$DW$443       .dwtag  DW_TAG_variable, DW_AT_name("tempLSB")
    4578                      .dwattr $C$DW$443, DW_AT_TI_symbol_name("_tempLSB")
    4579                      .dwattr $C$DW$443, DW_AT_type(*$C$DW$T$61)
    4580                      .dwattr $C$DW$443, DW_AT_location[DW_OP_bregx 0x24 6]
    4581              $C$DW$444       .dwtag  DW_TAG_variable, DW_AT_name("tempMSB")
    4582                      .dwattr $C$DW$444, DW_AT_TI_symbol_name("_tempMSB")
    4583                      .dwattr $C$DW$444, DW_AT_type(*$C$DW$T$61)
    4584                      .dwattr $C$DW$444, DW_AT_location[DW_OP_bregx 0x24 7]
    4585 000ad6 CB0A          MOV AR3, *SP(#5) ; |859| 
    4586 000ad8 CA08          MOV AR2, *SP(#4) ; |859| 
    4587 000ada C906          MOV AR1, *SP(#3) ; |859| 
    4588 000adc C804          MOV AR0, *SP(#2) ; |859| 
    4589 000ade C502          MOV T1, *SP(#1) ; |859| 
    4590 000ae0 C400          MOV T0, *SP(#0) ; |859| 
    4591                      .dwpsn  file "../c5535_bsl_revc/ezdsp5535_v1/c55xx_csl/ccs_v4.0_examples/lcd/CSL_LCDC_DiagramExample/
    4592              
    4593 000ae6 2349          MOV T0, AR1 ; |863| 
    4594 000ae2 7600  ||      MOV #131, AR2 ; |863| 
         000ae4 83A8 
    4595              
    4596 000ae8 12A8          CMPU AR1 <= AR2, TC1 ; |863| 
         000aea 94   
    4597 000aeb 62E4          BCC $C$L52,TC1 ; |863| 
    4598                                                      ; branchcc occurs ; |863| 
    4599                      .dwpsn  file "../c5535_bsl_revc/ezdsp5535_v1/c55xx_csl/ccs_v4.0_examples/lcd/CSL_LCDC_DiagramExample/
    4600 000aed 3E14          MOV #-1, T0
    4601 000aef 0600          B $C$L56  ; |864| 
         000af1 78   
    4602                                                      ; branch occurs ; |864| 
    4603 000af2       $C$L52:    
    4604                      .dwpsn  file "../c5535_bsl_revc/ezdsp5535_v1/c55xx_csl/ccs_v4.0_examples/lcd/CSL_LCDC_DiagramExample/
    4605 000af2 A902          MOV *SP(#1), AR1 ; |865| 
    4606 000af4 12A8          CMPU AR1 <= AR2, TC1 ; |865| 
         000af6 94   
TMS320C55x Assembler PC v4.4.1 Sat Sep 29 23:09:22 2018

Tools Copyright (c) 1996-2012 Texas Instruments Incorporated
lcdc_panel.asm                                                       PAGE   94

    4607 000af7 62E4          BCC $C$L53,TC1 ; |865| 
    4608                                                      ; branchcc occurs ; |865| 
    4609                      .dwpsn  file "../c5535_bsl_revc/ezdsp5535_v1/c55xx_csl/ccs_v4.0_examples/lcd/CSL_LCDC_DiagramExample/
    4610 000af9 3E14          MOV #-1, T0
    4611 000afb 0600          B $C$L56  ; |866| 
         000afd 6C   
    4612                                                      ; branch occurs ; |866| 
    4613 000afe       $C$L53:    
    4614                      .dwpsn  file "../c5535_bsl_revc/ezdsp5535_v1/c55xx_csl/ccs_v4.0_examples/lcd/CSL_LCDC_DiagramExample/
    4615 000afe A904          MOV *SP(#2), AR1 ; |867| 
    4616 000b00 6289          BCC $C$L54,AR1 == #0 ; |867| 
    4617                                                      ; branchcc occurs ; |867| 
    4618 000b02 12A8          CMPU AR1 <= AR2, TC1 ; |867| 
         000b04 94   
    4619 000b05 62E4          BCC $C$L55,TC1 ; |867| 
    4620                                                      ; branchcc occurs ; |867| 
    4621 000b07       $C$L54:    
    4622                      .dwpsn  file "../c5535_bsl_revc/ezdsp5535_v1/c55xx_csl/ccs_v4.0_examples/lcd/CSL_LCDC_DiagramExample/
    4623 000b07 3E14          MOV #-1, T0
    4624 000b09 0600          B $C$L56  ; |868| 
         000b0b 5E   
    4625                                                      ; branch occurs ; |868| 
    4626 000b0c       $C$L55:    
    4627                      .dwpsn  file "../c5535_bsl_revc/ezdsp5535_v1/c55xx_csl/ccs_v4.0_examples/lcd/CSL_LCDC_DiagramExample/
    4628 000b0c A50A          MOV *SP(#5), T1 ; |871| 
    4629 000b0e 7600          MOV #146, T0 ; |871| 
         000b10 9248 
    4630              $C$DW$445       .dwtag  DW_TAG_TI_branch
    4631                      .dwattr $C$DW$445, DW_AT_low_pc(0x00)
    4632                      .dwattr $C$DW$445, DW_AT_name("_cmdWrite")
    4633                      .dwattr $C$DW$445, DW_AT_TI_call
    4634 000b12 08F7          CALL #_cmdWrite ; |871| 
         000b14 73   
    4635                                                      ; call occurs [#_cmdWrite] ; |871| 
    4636                      .dwpsn  file "../c5535_bsl_revc/ezdsp5535_v1/c55xx_csl/ccs_v4.0_examples/lcd/CSL_LCDC_DiagramExample/
    4637 000b15 A50A          MOV *SP(#5), T1 ; |872| 
    4638              $C$DW$446       .dwtag  DW_TAG_TI_branch
    4639                      .dwattr $C$DW$446, DW_AT_low_pc(0x00)
    4640                      .dwattr $C$DW$446, DW_AT_name("_dataWrite")
    4641                      .dwattr $C$DW$446, DW_AT_TI_call
    4642              
    4643 000b17 08F7          CALL #_dataWrite ; |872| 
         000b19 84   
    4644 000b1a 3D14  ||      MOV #1, T0
    4645              
    4646                                                      ; call occurs [#_dataWrite] ; |872| 
    4647                      .dwpsn  file "../c5535_bsl_revc/ezdsp5535_v1/c55xx_csl/ccs_v4.0_examples/lcd/CSL_LCDC_DiagramExample/
    4648 000b1c 7600          MOV #134, T0 ; |874| 
         000b1e 8648 
    4649 000b20 A50A          MOV *SP(#5), T1 ; |874| 
    4650              $C$DW$447       .dwtag  DW_TAG_TI_branch
    4651                      .dwattr $C$DW$447, DW_AT_low_pc(0x00)
    4652                      .dwattr $C$DW$447, DW_AT_name("_cmdWrite")
    4653                      .dwattr $C$DW$447, DW_AT_TI_call
    4654 000b22 08F7          CALL #_cmdWrite ; |874| 
TMS320C55x Assembler PC v4.4.1 Sat Sep 29 23:09:22 2018

Tools Copyright (c) 1996-2012 Texas Instruments Incorporated
lcdc_panel.asm                                                       PAGE   95

         000b24 63   
    4655                                                      ; call occurs [#_cmdWrite] ; |874| 
    4656                      .dwpsn  file "../c5535_bsl_revc/ezdsp5535_v1/c55xx_csl/ccs_v4.0_examples/lcd/CSL_LCDC_DiagramExample/
    4657 000b25 A400          MOV *SP(#0), T0 ; |875| 
    4658 000b27 A50A          MOV *SP(#5), T1 ; |875| 
    4659              $C$DW$448       .dwtag  DW_TAG_TI_branch
    4660                      .dwattr $C$DW$448, DW_AT_low_pc(0x00)
    4661                      .dwattr $C$DW$448, DW_AT_name("_dataWrite")
    4662                      .dwattr $C$DW$448, DW_AT_TI_call
    4663 000b29 08F7          CALL #_dataWrite ; |875| 
         000b2b 74   
    4664                                                      ; call occurs [#_dataWrite] ; |875| 
    4665                      .dwpsn  file "../c5535_bsl_revc/ezdsp5535_v1/c55xx_csl/ccs_v4.0_examples/lcd/CSL_LCDC_DiagramExample/
    4666 000b2c A402          MOV *SP(#1), T0 ; |876| 
    4667 000b2e A50A          MOV *SP(#5), T1 ; |876| 
    4668              $C$DW$449       .dwtag  DW_TAG_TI_branch
    4669                      .dwattr $C$DW$449, DW_AT_low_pc(0x00)
    4670                      .dwattr $C$DW$449, DW_AT_name("_dataWrite")
    4671                      .dwattr $C$DW$449, DW_AT_TI_call
    4672 000b30 08F7          CALL #_dataWrite ; |876| 
         000b32 6D   
    4673                                                      ; call occurs [#_dataWrite] ; |876| 
    4674                      .dwpsn  file "../c5535_bsl_revc/ezdsp5535_v1/c55xx_csl/ccs_v4.0_examples/lcd/CSL_LCDC_DiagramExample/
    4675 000b33 A404          MOV *SP(#2), T0 ; |877| 
    4676 000b35 A50A          MOV *SP(#5), T1 ; |877| 
    4677              $C$DW$450       .dwtag  DW_TAG_TI_branch
    4678                      .dwattr $C$DW$450, DW_AT_low_pc(0x00)
    4679                      .dwattr $C$DW$450, DW_AT_name("_dataWrite")
    4680                      .dwattr $C$DW$450, DW_AT_TI_call
    4681 000b37 08F7          CALL #_dataWrite ; |877| 
         000b39 66   
    4682                                                      ; call occurs [#_dataWrite] ; |877| 
    4683                      .dwpsn  file "../c5535_bsl_revc/ezdsp5535_v1/c55xx_csl/ccs_v4.0_examples/lcd/CSL_LCDC_DiagramExample/
    4684 000b3a A906          MOV *SP(#3), AR1 ; |879| 
    4685 000b3c C90C          MOV AR1, *SP(#6) ; |879| 
    4686                      .dwpsn  file "../c5535_bsl_revc/ezdsp5535_v1/c55xx_csl/ccs_v4.0_examples/lcd/CSL_LCDC_DiagramExample/
    4687 000b3e DF06          MOV uns(high_byte(*SP(#3))), AR1 ; |880| 
         000b40 91   
    4688 000b41 C90E          MOV AR1, *SP(#7) ; |880| 
    4689                      .dwpsn  file "../c5535_bsl_revc/ezdsp5535_v1/c55xx_csl/ccs_v4.0_examples/lcd/CSL_LCDC_DiagramExample/
    4690 000b43 A40C          MOV *SP(#6), T0 ; |881| 
    4691 000b45 A50A          MOV *SP(#5), T1 ; |881| 
    4692              $C$DW$451       .dwtag  DW_TAG_TI_branch
    4693                      .dwattr $C$DW$451, DW_AT_low_pc(0x00)
    4694                      .dwattr $C$DW$451, DW_AT_name("_dataWrite")
    4695                      .dwattr $C$DW$451, DW_AT_TI_call
    4696 000b47 08F7          CALL #_dataWrite ; |881| 
         000b49 56   
    4697                                                      ; call occurs [#_dataWrite] ; |881| 
    4698                      .dwpsn  file "../c5535_bsl_revc/ezdsp5535_v1/c55xx_csl/ccs_v4.0_examples/lcd/CSL_LCDC_DiagramExample/
    4699 000b4a A40E          MOV *SP(#7), T0 ; |882| 
    4700 000b4c A50A          MOV *SP(#5), T1 ; |882| 
    4701              $C$DW$452       .dwtag  DW_TAG_TI_branch
    4702                      .dwattr $C$DW$452, DW_AT_low_pc(0x00)
    4703                      .dwattr $C$DW$452, DW_AT_name("_dataWrite")
TMS320C55x Assembler PC v4.4.1 Sat Sep 29 23:09:22 2018

Tools Copyright (c) 1996-2012 Texas Instruments Incorporated
lcdc_panel.asm                                                       PAGE   96

    4704                      .dwattr $C$DW$452, DW_AT_TI_call
    4705 000b4e 08F7          CALL #_dataWrite ; |882| 
         000b50 4F   
    4706                                                      ; call occurs [#_dataWrite] ; |882| 
    4707                      .dwpsn  file "../c5535_bsl_revc/ezdsp5535_v1/c55xx_csl/ccs_v4.0_examples/lcd/CSL_LCDC_DiagramExample/
    4708 000b51 A908          MOV *SP(#4), AR1 ; |883| 
    4709 000b53 C90C          MOV AR1, *SP(#6) ; |883| 
    4710                      .dwpsn  file "../c5535_bsl_revc/ezdsp5535_v1/c55xx_csl/ccs_v4.0_examples/lcd/CSL_LCDC_DiagramExample/
    4711 000b55 DF08          MOV uns(high_byte(*SP(#4))), AR1 ; |884| 
         000b57 91   
    4712 000b58 C90E          MOV AR1, *SP(#7) ; |884| 
    4713                      .dwpsn  file "../c5535_bsl_revc/ezdsp5535_v1/c55xx_csl/ccs_v4.0_examples/lcd/CSL_LCDC_DiagramExample/
    4714 000b5a A40C          MOV *SP(#6), T0 ; |885| 
    4715 000b5c A50A          MOV *SP(#5), T1 ; |885| 
    4716              $C$DW$453       .dwtag  DW_TAG_TI_branch
    4717                      .dwattr $C$DW$453, DW_AT_low_pc(0x00)
    4718                      .dwattr $C$DW$453, DW_AT_name("_dataWrite")
    4719                      .dwattr $C$DW$453, DW_AT_TI_call
    4720 000b5e 08F7          CALL #_dataWrite ; |885| 
         000b60 3F   
    4721                                                      ; call occurs [#_dataWrite] ; |885| 
    4722                      .dwpsn  file "../c5535_bsl_revc/ezdsp5535_v1/c55xx_csl/ccs_v4.0_examples/lcd/CSL_LCDC_DiagramExample/
    4723 000b61 A40E          MOV *SP(#7), T0 ; |886| 
    4724 000b63 A50A          MOV *SP(#5), T1 ; |886| 
    4725              $C$DW$454       .dwtag  DW_TAG_TI_branch
    4726                      .dwattr $C$DW$454, DW_AT_low_pc(0x00)
    4727                      .dwattr $C$DW$454, DW_AT_name("_dataWrite")
    4728                      .dwattr $C$DW$454, DW_AT_TI_call
    4729 000b65 08F7          CALL #_dataWrite ; |886| 
         000b67 38   
    4730                                                      ; call occurs [#_dataWrite] ; |886| 
    4731                      .dwpsn  file "../c5535_bsl_revc/ezdsp5535_v1/c55xx_csl/ccs_v4.0_examples/lcd/CSL_LCDC_DiagramExample/
    4732 000b68 3C04          MOV #0, T0
    4733 000b6a       $C$L56:    
    4734                      .dwpsn  file "../c5535_bsl_revc/ezdsp5535_v1/c55xx_csl/ccs_v4.0_examples/lcd/CSL_LCDC_DiagramExample/
    4735 000b6a 4E09          AADD #9, SP
    4736                      .dwcfi  cfa_offset, 1
    4737              $C$DW$455       .dwtag  DW_TAG_TI_branch
    4738                      .dwattr $C$DW$455, DW_AT_low_pc(0x00)
    4739                      .dwattr $C$DW$455, DW_AT_TI_return
    4740 000b6c 4804          RET
    4741                                                      ; return occurs
    4742                      .dwattr $C$DW$430, DW_AT_TI_end_file("../c5535_bsl_revc/ezdsp5535_v1/c55xx_csl/ccs_v4.0_examples/lcd/
    4743                      .dwattr $C$DW$430, DW_AT_TI_end_line(0x379)
    4744                      .dwattr $C$DW$430, DW_AT_TI_end_column(0x01)
    4745                      .dwendentry
    4746                      .dwendtag $C$DW$430
    4747              
    4748 000b6e               .sect   ".text"
    4749                      .align 4
    4750                      .global _iconCopy
    4751              
    4752              $C$DW$456       .dwtag  DW_TAG_subprogram, DW_AT_name("iconCopy")
    4753                      .dwattr $C$DW$456, DW_AT_low_pc(_iconCopy)
    4754                      .dwattr $C$DW$456, DW_AT_high_pc(0x00)
TMS320C55x Assembler PC v4.4.1 Sat Sep 29 23:09:22 2018

Tools Copyright (c) 1996-2012 Texas Instruments Incorporated
lcdc_panel.asm                                                       PAGE   97

    4755                      .dwattr $C$DW$456, DW_AT_TI_symbol_name("_iconCopy")
    4756                      .dwattr $C$DW$456, DW_AT_external
    4757                      .dwattr $C$DW$456, DW_AT_type(*$C$DW$T$29)
    4758                      .dwattr $C$DW$456, DW_AT_TI_begin_file("../c5535_bsl_revc/ezdsp5535_v1/c55xx_csl/ccs_v4.0_examples/lc
    4759                      .dwattr $C$DW$456, DW_AT_TI_begin_line(0x387)
    4760                      .dwattr $C$DW$456, DW_AT_TI_begin_column(0x07)
    4761                      .dwattr $C$DW$456, DW_AT_TI_max_frame_size(0x08)
    4762                      .dwpsn  file "../c5535_bsl_revc/ezdsp5535_v1/c55xx_csl/ccs_v4.0_examples/lcd/CSL_LCDC_DiagramExample/
    4763              
    4764                      .dwfde $C$DW$CIE, _iconCopy
    4765              $C$DW$457       .dwtag  DW_TAG_formal_parameter, DW_AT_name("colStart")
    4766                      .dwattr $C$DW$457, DW_AT_TI_symbol_name("_colStart")
    4767                      .dwattr $C$DW$457, DW_AT_type(*$C$DW$T$19)
    4768                      .dwattr $C$DW$457, DW_AT_location[DW_OP_reg12]
    4769              $C$DW$458       .dwtag  DW_TAG_formal_parameter, DW_AT_name("rowStart")
    4770                      .dwattr $C$DW$458, DW_AT_TI_symbol_name("_rowStart")
    4771                      .dwattr $C$DW$458, DW_AT_type(*$C$DW$T$19)
    4772                      .dwattr $C$DW$458, DW_AT_location[DW_OP_reg13]
    4773              $C$DW$459       .dwtag  DW_TAG_formal_parameter, DW_AT_name("colEnd")
    4774                      .dwattr $C$DW$459, DW_AT_TI_symbol_name("_colEnd")
    4775                      .dwattr $C$DW$459, DW_AT_type(*$C$DW$T$19)
    4776                      .dwattr $C$DW$459, DW_AT_location[DW_OP_reg16]
    4777              $C$DW$460       .dwtag  DW_TAG_formal_parameter, DW_AT_name("rowEnd")
    4778                      .dwattr $C$DW$460, DW_AT_TI_symbol_name("_rowEnd")
    4779                      .dwattr $C$DW$460, DW_AT_type(*$C$DW$T$19)
    4780                      .dwattr $C$DW$460, DW_AT_location[DW_OP_reg18]
    4781              $C$DW$461       .dwtag  DW_TAG_formal_parameter, DW_AT_name("newColStart")
    4782                      .dwattr $C$DW$461, DW_AT_TI_symbol_name("_newColStart")
    4783                      .dwattr $C$DW$461, DW_AT_type(*$C$DW$T$19)
    4784                      .dwattr $C$DW$461, DW_AT_location[DW_OP_reg20]
    4785              $C$DW$462       .dwtag  DW_TAG_formal_parameter, DW_AT_name("newRowStart")
    4786                      .dwattr $C$DW$462, DW_AT_TI_symbol_name("_newRowStart")
    4787                      .dwattr $C$DW$462, DW_AT_type(*$C$DW$T$19)
    4788                      .dwattr $C$DW$462, DW_AT_location[DW_OP_reg22]
    4789              $C$DW$463       .dwtag  DW_TAG_formal_parameter, DW_AT_name("cs_flag")
    4790                      .dwattr $C$DW$463, DW_AT_TI_symbol_name("_cs_flag")
    4791                      .dwattr $C$DW$463, DW_AT_type(*$C$DW$T$19)
    4792                      .dwattr $C$DW$463, DW_AT_location[DW_OP_reg24]
    4793              ;*******************************************************************************
    4794              ;* FUNCTION NAME: iconCopy                                                     *
    4795              ;*                                                                             *
    4796              ;*   Function Uses Regs : T0,T1,AR0,AR1,AR2,AR3,AR4,SP,TC1,M40,SATA,SATD,RDM,  *
    4797              ;*                        FRCT,SMUL                                            *
    4798              ;*   Stack Frame        : Compact (No Frame Pointer, w/ debug)                 *
    4799              ;*   Total Frame Size   : 8 words                                              *
    4800              ;*                        (1 return address/alignment)                         *
    4801              ;*                        (7 local values)                                     *
    4802              ;*   Min System Stack   : 1 word                                               *
    4803              ;*******************************************************************************
    4804 000b70       _iconCopy:
    4805                      .dwcfi  cfa_offset, 1
    4806                      .dwcfi  save_reg_to_mem, 91, -1
    4807 000b70 4EF9          AADD #-7, SP
    4808                      .dwcfi  cfa_offset, 8
    4809              $C$DW$464       .dwtag  DW_TAG_variable, DW_AT_name("colStart")
TMS320C55x Assembler PC v4.4.1 Sat Sep 29 23:09:22 2018

Tools Copyright (c) 1996-2012 Texas Instruments Incorporated
lcdc_panel.asm                                                       PAGE   98

    4810                      .dwattr $C$DW$464, DW_AT_TI_symbol_name("_colStart")
    4811                      .dwattr $C$DW$464, DW_AT_type(*$C$DW$T$19)
    4812                      .dwattr $C$DW$464, DW_AT_location[DW_OP_bregx 0x24 0]
    4813              $C$DW$465       .dwtag  DW_TAG_variable, DW_AT_name("rowStart")
    4814                      .dwattr $C$DW$465, DW_AT_TI_symbol_name("_rowStart")
    4815                      .dwattr $C$DW$465, DW_AT_type(*$C$DW$T$19)
    4816                      .dwattr $C$DW$465, DW_AT_location[DW_OP_bregx 0x24 1]
    4817              $C$DW$466       .dwtag  DW_TAG_variable, DW_AT_name("colEnd")
    4818                      .dwattr $C$DW$466, DW_AT_TI_symbol_name("_colEnd")
    4819                      .dwattr $C$DW$466, DW_AT_type(*$C$DW$T$19)
    4820                      .dwattr $C$DW$466, DW_AT_location[DW_OP_bregx 0x24 2]
    4821              $C$DW$467       .dwtag  DW_TAG_variable, DW_AT_name("rowEnd")
    4822                      .dwattr $C$DW$467, DW_AT_TI_symbol_name("_rowEnd")
    4823                      .dwattr $C$DW$467, DW_AT_type(*$C$DW$T$19)
    4824                      .dwattr $C$DW$467, DW_AT_location[DW_OP_bregx 0x24 3]
    4825              $C$DW$468       .dwtag  DW_TAG_variable, DW_AT_name("newColStart")
    4826                      .dwattr $C$DW$468, DW_AT_TI_symbol_name("_newColStart")
    4827                      .dwattr $C$DW$468, DW_AT_type(*$C$DW$T$19)
    4828                      .dwattr $C$DW$468, DW_AT_location[DW_OP_bregx 0x24 4]
    4829              $C$DW$469       .dwtag  DW_TAG_variable, DW_AT_name("newRowStart")
    4830                      .dwattr $C$DW$469, DW_AT_TI_symbol_name("_newRowStart")
    4831                      .dwattr $C$DW$469, DW_AT_type(*$C$DW$T$19)
    4832                      .dwattr $C$DW$469, DW_AT_location[DW_OP_bregx 0x24 5]
    4833              $C$DW$470       .dwtag  DW_TAG_variable, DW_AT_name("cs_flag")
    4834                      .dwattr $C$DW$470, DW_AT_TI_symbol_name("_cs_flag")
    4835                      .dwattr $C$DW$470, DW_AT_type(*$C$DW$T$19)
    4836                      .dwattr $C$DW$470, DW_AT_location[DW_OP_bregx 0x24 6]
    4837 000b72 CC0C          MOV AR4, *SP(#6) ; |911| 
    4838 000b74 CB0A          MOV AR3, *SP(#5) ; |911| 
    4839 000b76 CA08          MOV AR2, *SP(#4) ; |911| 
    4840 000b78 C906          MOV AR1, *SP(#3) ; |911| 
    4841 000b7a C804          MOV AR0, *SP(#2) ; |911| 
    4842 000b7c C502          MOV T1, *SP(#1) ; |911| 
    4843 000b7e C400          MOV T0, *SP(#0) ; |911| 
    4844                      .dwpsn  file "../c5535_bsl_revc/ezdsp5535_v1/c55xx_csl/ccs_v4.0_examples/lcd/CSL_LCDC_DiagramExample/
    4845              
    4846 000b84 2349          MOV T0, AR1 ; |912| 
    4847 000b80 7600  ||      MOV #131, AR2 ; |912| 
         000b82 83A8 
    4848              
    4849 000b86 12A8          CMPU AR1 <= AR2, TC1 ; |912| 
         000b88 94   
    4850 000b89 62E4          BCC $C$L57,TC1 ; |912| 
    4851                                                      ; branchcc occurs ; |912| 
    4852                      .dwpsn  file "../c5535_bsl_revc/ezdsp5535_v1/c55xx_csl/ccs_v4.0_examples/lcd/CSL_LCDC_DiagramExample/
    4853 000b8b 3E14          MOV #-1, T0
    4854 000b8d 0600          B $C$L65  ; |913| 
         000b8f 9C   
    4855                                                      ; branch occurs ; |913| 
    4856 000b90       $C$L57:    
    4857                      .dwpsn  file "../c5535_bsl_revc/ezdsp5535_v1/c55xx_csl/ccs_v4.0_examples/lcd/CSL_LCDC_DiagramExample/
    4858 000b90 A902          MOV *SP(#1), AR1 ; |914| 
    4859 000b92 12A8          CMPU AR1 <= AR2, TC1 ; |914| 
         000b94 94   
    4860 000b95 62E4          BCC $C$L58,TC1 ; |914| 
TMS320C55x Assembler PC v4.4.1 Sat Sep 29 23:09:22 2018

Tools Copyright (c) 1996-2012 Texas Instruments Incorporated
lcdc_panel.asm                                                       PAGE   99

    4861                                                      ; branchcc occurs ; |914| 
    4862                      .dwpsn  file "../c5535_bsl_revc/ezdsp5535_v1/c55xx_csl/ccs_v4.0_examples/lcd/CSL_LCDC_DiagramExample/
    4863 000b97 3E14          MOV #-1, T0
    4864 000b99 0600          B $C$L65  ; |915| 
         000b9b 90   
    4865                                                      ; branch occurs ; |915| 
    4866 000b9c       $C$L58:    
    4867                      .dwpsn  file "../c5535_bsl_revc/ezdsp5535_v1/c55xx_csl/ccs_v4.0_examples/lcd/CSL_LCDC_DiagramExample/
    4868 000b9c A904          MOV *SP(#2), AR1 ; |916| 
    4869 000b9e 12A8          CMPU AR1 <= AR2, TC1 ; |916| 
         000ba0 94   
    4870 000ba1 62E4          BCC $C$L59,TC1 ; |916| 
    4871                                                      ; branchcc occurs ; |916| 
    4872                      .dwpsn  file "../c5535_bsl_revc/ezdsp5535_v1/c55xx_csl/ccs_v4.0_examples/lcd/CSL_LCDC_DiagramExample/
    4873 000ba3 3E14          MOV #-1, T0
    4874 000ba5 0600          B $C$L65  ; |917| 
         000ba7 84   
    4875                                                      ; branch occurs ; |917| 
    4876 000ba8       $C$L59:    
    4877                      .dwpsn  file "../c5535_bsl_revc/ezdsp5535_v1/c55xx_csl/ccs_v4.0_examples/lcd/CSL_LCDC_DiagramExample/
    4878 000ba8 A906          MOV *SP(#3), AR1 ; |918| 
    4879 000baa 12A8          CMPU AR1 <= AR2, TC1 ; |918| 
         000bac 94   
    4880 000bad 62E4          BCC $C$L60,TC1 ; |918| 
    4881                                                      ; branchcc occurs ; |918| 
    4882                      .dwpsn  file "../c5535_bsl_revc/ezdsp5535_v1/c55xx_csl/ccs_v4.0_examples/lcd/CSL_LCDC_DiagramExample/
    4883 000baf 3E14          MOV #-1, T0
    4884 000bb1 0600          B $C$L65  ; |919| 
         000bb3 78   
    4885                                                      ; branch occurs ; |919| 
    4886 000bb4       $C$L60:    
    4887                      .dwpsn  file "../c5535_bsl_revc/ezdsp5535_v1/c55xx_csl/ccs_v4.0_examples/lcd/CSL_LCDC_DiagramExample/
    4888              
    4889 000bb4 AA04          MOV *SP(#2), AR2 ; |920| 
    4890 000bb6 2349  ||      MOV T0, AR1
    4891              
    4892 000bb8 12A4          CMPU AR2 < AR1, TC1 ; |920| 
         000bba 94   
    4893 000bbb 64E4          BCC $C$L61,TC1 ; |920| 
    4894                                                      ; branchcc occurs ; |920| 
    4895 000bbd A902          MOV *SP(#1), AR1 ; |920| 
    4896 000bbf AA06          MOV *SP(#3), AR2 ; |920| 
    4897 000bc1 12A8          CMPU AR2 >= AR1, TC1 ; |920| 
         000bc3 94   
    4898 000bc4 62E4          BCC $C$L62,TC1 ; |920| 
    4899                                                      ; branchcc occurs ; |920| 
    4900 000bc6       $C$L61:    
    4901                      .dwpsn  file "../c5535_bsl_revc/ezdsp5535_v1/c55xx_csl/ccs_v4.0_examples/lcd/CSL_LCDC_DiagramExample/
    4902 000bc6 3E14          MOV #-1, T0
    4903 000bc8 0600          B $C$L65  ; |921| 
         000bca 61   
    4904                                                      ; branch occurs ; |921| 
    4905 000bcb       $C$L62:    
    4906                      .dwpsn  file "../c5535_bsl_revc/ezdsp5535_v1/c55xx_csl/ccs_v4.0_examples/lcd/CSL_LCDC_DiagramExample/
    4907 000bcb 7600          MOV #131, AR2 ; |922| 
TMS320C55x Assembler PC v4.4.1 Sat Sep 29 23:09:22 2018

Tools Copyright (c) 1996-2012 Texas Instruments Incorporated
lcdc_panel.asm                                                       PAGE  100

         000bcd 83A8 
    4908 000bcf A908          MOV *SP(#4), AR1 ; |922| 
    4909 000bd1 12A8          CMPU AR1 <= AR2, TC1 ; |922| 
         000bd3 94   
    4910 000bd4 62E4          BCC $C$L63,TC1 ; |922| 
    4911                                                      ; branchcc occurs ; |922| 
    4912                      .dwpsn  file "../c5535_bsl_revc/ezdsp5535_v1/c55xx_csl/ccs_v4.0_examples/lcd/CSL_LCDC_DiagramExample/
    4913 000bd6 3E14          MOV #-1, T0
    4914 000bd8 0600          B $C$L65  ; |923| 
         000bda 51   
    4915                                                      ; branch occurs ; |923| 
    4916 000bdb       $C$L63:    
    4917                      .dwpsn  file "../c5535_bsl_revc/ezdsp5535_v1/c55xx_csl/ccs_v4.0_examples/lcd/CSL_LCDC_DiagramExample/
    4918 000bdb A90A          MOV *SP(#5), AR1 ; |924| 
    4919 000bdd 12A8          CMPU AR1 <= AR2, TC1 ; |924| 
         000bdf 94   
    4920 000be0 62E4          BCC $C$L64,TC1 ; |924| 
    4921                                                      ; branchcc occurs ; |924| 
    4922                      .dwpsn  file "../c5535_bsl_revc/ezdsp5535_v1/c55xx_csl/ccs_v4.0_examples/lcd/CSL_LCDC_DiagramExample/
    4923 000be2 3E14          MOV #-1, T0
    4924 000be4 0600          B $C$L65  ; |925| 
         000be6 45   
    4925                                                      ; branch occurs ; |925| 
    4926 000be7       $C$L64:    
    4927                      .dwpsn  file "../c5535_bsl_revc/ezdsp5535_v1/c55xx_csl/ccs_v4.0_examples/lcd/CSL_LCDC_DiagramExample/
    4928 000be7 A50C          MOV *SP(#6), T1 ; |927| 
    4929 000be9 7600          MOV #138, T0 ; |927| 
         000beb 8A48 
    4930              $C$DW$471       .dwtag  DW_TAG_TI_branch
    4931                      .dwattr $C$DW$471, DW_AT_low_pc(0x00)
    4932                      .dwattr $C$DW$471, DW_AT_name("_cmdWrite")
    4933                      .dwattr $C$DW$471, DW_AT_TI_call
    4934 000bed 08F6          CALL #_cmdWrite ; |927| 
         000bef 98   
    4935                                                      ; call occurs [#_cmdWrite] ; |927| 
    4936                      .dwpsn  file "../c5535_bsl_revc/ezdsp5535_v1/c55xx_csl/ccs_v4.0_examples/lcd/CSL_LCDC_DiagramExample/
    4937 000bf0 A400          MOV *SP(#0), T0 ; |928| 
    4938 000bf2 A50C          MOV *SP(#6), T1 ; |928| 
    4939              $C$DW$472       .dwtag  DW_TAG_TI_branch
    4940                      .dwattr $C$DW$472, DW_AT_low_pc(0x00)
    4941                      .dwattr $C$DW$472, DW_AT_name("_dataWrite")
    4942                      .dwattr $C$DW$472, DW_AT_TI_call
    4943 000bf4 08F6          CALL #_dataWrite ; |928| 
         000bf6 A9   
    4944                                                      ; call occurs [#_dataWrite] ; |928| 
    4945                      .dwpsn  file "../c5535_bsl_revc/ezdsp5535_v1/c55xx_csl/ccs_v4.0_examples/lcd/CSL_LCDC_DiagramExample/
    4946 000bf7 A402          MOV *SP(#1), T0 ; |929| 
    4947 000bf9 A50C          MOV *SP(#6), T1 ; |929| 
    4948              $C$DW$473       .dwtag  DW_TAG_TI_branch
    4949                      .dwattr $C$DW$473, DW_AT_low_pc(0x00)
    4950                      .dwattr $C$DW$473, DW_AT_name("_dataWrite")
    4951                      .dwattr $C$DW$473, DW_AT_TI_call
    4952 000bfb 08F6          CALL #_dataWrite ; |929| 
         000bfd A2   
    4953                                                      ; call occurs [#_dataWrite] ; |929| 
TMS320C55x Assembler PC v4.4.1 Sat Sep 29 23:09:22 2018

Tools Copyright (c) 1996-2012 Texas Instruments Incorporated
lcdc_panel.asm                                                       PAGE  101

    4954                      .dwpsn  file "../c5535_bsl_revc/ezdsp5535_v1/c55xx_csl/ccs_v4.0_examples/lcd/CSL_LCDC_DiagramExample/
    4955 000bfe A404          MOV *SP(#2), T0 ; |930| 
    4956 000c00 A50C          MOV *SP(#6), T1 ; |930| 
    4957              $C$DW$474       .dwtag  DW_TAG_TI_branch
    4958                      .dwattr $C$DW$474, DW_AT_low_pc(0x00)
    4959                      .dwattr $C$DW$474, DW_AT_name("_dataWrite")
    4960                      .dwattr $C$DW$474, DW_AT_TI_call
    4961 000c02 08F6          CALL #_dataWrite ; |930| 
         000c04 9B   
    4962                                                      ; call occurs [#_dataWrite] ; |930| 
    4963                      .dwpsn  file "../c5535_bsl_revc/ezdsp5535_v1/c55xx_csl/ccs_v4.0_examples/lcd/CSL_LCDC_DiagramExample/
    4964 000c05 A406          MOV *SP(#3), T0 ; |931| 
    4965 000c07 A50C          MOV *SP(#6), T1 ; |931| 
    4966              $C$DW$475       .dwtag  DW_TAG_TI_branch
    4967                      .dwattr $C$DW$475, DW_AT_low_pc(0x00)
    4968                      .dwattr $C$DW$475, DW_AT_name("_dataWrite")
    4969                      .dwattr $C$DW$475, DW_AT_TI_call
    4970 000c09 08F6          CALL #_dataWrite ; |931| 
         000c0b 94   
    4971                                                      ; call occurs [#_dataWrite] ; |931| 
    4972                      .dwpsn  file "../c5535_bsl_revc/ezdsp5535_v1/c55xx_csl/ccs_v4.0_examples/lcd/CSL_LCDC_DiagramExample/
    4973 000c0c A408          MOV *SP(#4), T0 ; |932| 
    4974 000c0e A50C          MOV *SP(#6), T1 ; |932| 
    4975              $C$DW$476       .dwtag  DW_TAG_TI_branch
    4976                      .dwattr $C$DW$476, DW_AT_low_pc(0x00)
    4977                      .dwattr $C$DW$476, DW_AT_name("_dataWrite")
    4978                      .dwattr $C$DW$476, DW_AT_TI_call
    4979 000c10 08F6          CALL #_dataWrite ; |932| 
         000c12 8D   
    4980                                                      ; call occurs [#_dataWrite] ; |932| 
    4981                      .dwpsn  file "../c5535_bsl_revc/ezdsp5535_v1/c55xx_csl/ccs_v4.0_examples/lcd/CSL_LCDC_DiagramExample/
    4982 000c13 A40A          MOV *SP(#5), T0 ; |933| 
    4983 000c15 A50C          MOV *SP(#6), T1 ; |933| 
    4984              $C$DW$477       .dwtag  DW_TAG_TI_branch
    4985                      .dwattr $C$DW$477, DW_AT_low_pc(0x00)
    4986                      .dwattr $C$DW$477, DW_AT_name("_dataWrite")
    4987                      .dwattr $C$DW$477, DW_AT_TI_call
    4988 000c17 08F6          CALL #_dataWrite ; |933| 
         000c19 86   
    4989                                                      ; call occurs [#_dataWrite] ; |933| 
    4990                      .dwpsn  file "../c5535_bsl_revc/ezdsp5535_v1/c55xx_csl/ccs_v4.0_examples/lcd/CSL_LCDC_DiagramExample/
    4991 000c1a 7600          MOV #146, T0 ; |935| 
         000c1c 9248 
    4992 000c1e A50C          MOV *SP(#6), T1 ; |935| 
    4993              $C$DW$478       .dwtag  DW_TAG_TI_branch
    4994                      .dwattr $C$DW$478, DW_AT_low_pc(0x00)
    4995                      .dwattr $C$DW$478, DW_AT_name("_cmdWrite")
    4996                      .dwattr $C$DW$478, DW_AT_TI_call
    4997 000c20 08F6          CALL #_cmdWrite ; |935| 
         000c22 65   
    4998                                                      ; call occurs [#_cmdWrite] ; |935| 
    4999                      .dwpsn  file "../c5535_bsl_revc/ezdsp5535_v1/c55xx_csl/ccs_v4.0_examples/lcd/CSL_LCDC_DiagramExample/
    5000 000c23 A50C          MOV *SP(#6), T1 ; |936| 
    5001              $C$DW$479       .dwtag  DW_TAG_TI_branch
    5002                      .dwattr $C$DW$479, DW_AT_low_pc(0x00)
TMS320C55x Assembler PC v4.4.1 Sat Sep 29 23:09:22 2018

Tools Copyright (c) 1996-2012 Texas Instruments Incorporated
lcdc_panel.asm                                                       PAGE  102

    5003                      .dwattr $C$DW$479, DW_AT_name("_dataWrite")
    5004                      .dwattr $C$DW$479, DW_AT_TI_call
    5005              
    5006 000c25 08F6          CALL #_dataWrite ; |936| 
         000c27 76   
    5007 000c28 3D14  ||      MOV #1, T0
    5008              
    5009                                                      ; call occurs [#_dataWrite] ; |936| 
    5010                      .dwpsn  file "../c5535_bsl_revc/ezdsp5535_v1/c55xx_csl/ccs_v4.0_examples/lcd/CSL_LCDC_DiagramExample/
    5011 000c2a 3C04          MOV #0, T0
    5012 000c2c       $C$L65:    
    5013                      .dwpsn  file "../c5535_bsl_revc/ezdsp5535_v1/c55xx_csl/ccs_v4.0_examples/lcd/CSL_LCDC_DiagramExample/
    5014 000c2c 4E07          AADD #7, SP
    5015                      .dwcfi  cfa_offset, 1
    5016              $C$DW$480       .dwtag  DW_TAG_TI_branch
    5017                      .dwattr $C$DW$480, DW_AT_low_pc(0x00)
    5018                      .dwattr $C$DW$480, DW_AT_TI_return
    5019 000c2e 4804          RET
    5020                                                      ; return occurs
    5021                      .dwattr $C$DW$456, DW_AT_TI_end_file("../c5535_bsl_revc/ezdsp5535_v1/c55xx_csl/ccs_v4.0_examples/lcd/
    5022                      .dwattr $C$DW$456, DW_AT_TI_end_line(0x3aa)
    5023                      .dwattr $C$DW$456, DW_AT_TI_end_column(0x01)
    5024                      .dwendentry
    5025                      .dwendtag $C$DW$456
    5026              
    5027 000c30               .sect   ".text"
    5028                      .align 4
    5029                      .global _iconMove
    5030              
    5031              $C$DW$481       .dwtag  DW_TAG_subprogram, DW_AT_name("iconMove")
    5032                      .dwattr $C$DW$481, DW_AT_low_pc(_iconMove)
    5033                      .dwattr $C$DW$481, DW_AT_high_pc(0x00)
    5034                      .dwattr $C$DW$481, DW_AT_TI_symbol_name("_iconMove")
    5035                      .dwattr $C$DW$481, DW_AT_external
    5036                      .dwattr $C$DW$481, DW_AT_type(*$C$DW$T$29)
    5037                      .dwattr $C$DW$481, DW_AT_TI_begin_file("../c5535_bsl_revc/ezdsp5535_v1/c55xx_csl/ccs_v4.0_examples/lc
    5038                      .dwattr $C$DW$481, DW_AT_TI_begin_line(0x3b8)
    5039                      .dwattr $C$DW$481, DW_AT_TI_begin_column(0x07)
    5040                      .dwattr $C$DW$481, DW_AT_TI_max_frame_size(0x08)
    5041                      .dwpsn  file "../c5535_bsl_revc/ezdsp5535_v1/c55xx_csl/ccs_v4.0_examples/lcd/CSL_LCDC_DiagramExample/
    5042              
    5043                      .dwfde $C$DW$CIE, _iconMove
    5044              $C$DW$482       .dwtag  DW_TAG_formal_parameter, DW_AT_name("colStart")
    5045                      .dwattr $C$DW$482, DW_AT_TI_symbol_name("_colStart")
    5046                      .dwattr $C$DW$482, DW_AT_type(*$C$DW$T$19)
    5047                      .dwattr $C$DW$482, DW_AT_location[DW_OP_reg12]
    5048              $C$DW$483       .dwtag  DW_TAG_formal_parameter, DW_AT_name("rowStart")
    5049                      .dwattr $C$DW$483, DW_AT_TI_symbol_name("_rowStart")
    5050                      .dwattr $C$DW$483, DW_AT_type(*$C$DW$T$19)
    5051                      .dwattr $C$DW$483, DW_AT_location[DW_OP_reg13]
    5052              $C$DW$484       .dwtag  DW_TAG_formal_parameter, DW_AT_name("colEnd")
    5053                      .dwattr $C$DW$484, DW_AT_TI_symbol_name("_colEnd")
    5054                      .dwattr $C$DW$484, DW_AT_type(*$C$DW$T$19)
    5055                      .dwattr $C$DW$484, DW_AT_location[DW_OP_reg16]
    5056              $C$DW$485       .dwtag  DW_TAG_formal_parameter, DW_AT_name("rowEnd")
TMS320C55x Assembler PC v4.4.1 Sat Sep 29 23:09:22 2018

Tools Copyright (c) 1996-2012 Texas Instruments Incorporated
lcdc_panel.asm                                                       PAGE  103

    5057                      .dwattr $C$DW$485, DW_AT_TI_symbol_name("_rowEnd")
    5058                      .dwattr $C$DW$485, DW_AT_type(*$C$DW$T$19)
    5059                      .dwattr $C$DW$485, DW_AT_location[DW_OP_reg18]
    5060              $C$DW$486       .dwtag  DW_TAG_formal_parameter, DW_AT_name("newColStart")
    5061                      .dwattr $C$DW$486, DW_AT_TI_symbol_name("_newColStart")
    5062                      .dwattr $C$DW$486, DW_AT_type(*$C$DW$T$19)
    5063                      .dwattr $C$DW$486, DW_AT_location[DW_OP_reg20]
    5064              $C$DW$487       .dwtag  DW_TAG_formal_parameter, DW_AT_name("newRowStart")
    5065                      .dwattr $C$DW$487, DW_AT_TI_symbol_name("_newRowStart")
    5066                      .dwattr $C$DW$487, DW_AT_type(*$C$DW$T$19)
    5067                      .dwattr $C$DW$487, DW_AT_location[DW_OP_reg22]
    5068              $C$DW$488       .dwtag  DW_TAG_formal_parameter, DW_AT_name("cs_flag")
    5069                      .dwattr $C$DW$488, DW_AT_TI_symbol_name("_cs_flag")
    5070                      .dwattr $C$DW$488, DW_AT_type(*$C$DW$T$19)
    5071                      .dwattr $C$DW$488, DW_AT_location[DW_OP_reg24]
    5072              ;*******************************************************************************
    5073              ;* FUNCTION NAME: iconMove                                                     *
    5074              ;*                                                                             *
    5075              ;*   Function Uses Regs : T0,T1,AR0,AR1,AR2,AR3,AR4,SP,TC1,M40,SATA,SATD,RDM,  *
    5076              ;*                        FRCT,SMUL                                            *
    5077              ;*   Stack Frame        : Compact (No Frame Pointer, w/ debug)                 *
    5078              ;*   Total Frame Size   : 8 words                                              *
    5079              ;*                        (1 return address/alignment)                         *
    5080              ;*                        (7 local values)                                     *
    5081              ;*   Min System Stack   : 1 word                                               *
    5082              ;*******************************************************************************
    5083 000c30       _iconMove:
    5084                      .dwcfi  cfa_offset, 1
    5085                      .dwcfi  save_reg_to_mem, 91, -1
    5086 000c30 4EF9          AADD #-7, SP
    5087                      .dwcfi  cfa_offset, 8
    5088              $C$DW$489       .dwtag  DW_TAG_variable, DW_AT_name("colStart")
    5089                      .dwattr $C$DW$489, DW_AT_TI_symbol_name("_colStart")
    5090                      .dwattr $C$DW$489, DW_AT_type(*$C$DW$T$19)
    5091                      .dwattr $C$DW$489, DW_AT_location[DW_OP_bregx 0x24 0]
    5092              $C$DW$490       .dwtag  DW_TAG_variable, DW_AT_name("rowStart")
    5093                      .dwattr $C$DW$490, DW_AT_TI_symbol_name("_rowStart")
    5094                      .dwattr $C$DW$490, DW_AT_type(*$C$DW$T$19)
    5095                      .dwattr $C$DW$490, DW_AT_location[DW_OP_bregx 0x24 1]
    5096              $C$DW$491       .dwtag  DW_TAG_variable, DW_AT_name("colEnd")
    5097                      .dwattr $C$DW$491, DW_AT_TI_symbol_name("_colEnd")
    5098                      .dwattr $C$DW$491, DW_AT_type(*$C$DW$T$19)
    5099                      .dwattr $C$DW$491, DW_AT_location[DW_OP_bregx 0x24 2]
    5100              $C$DW$492       .dwtag  DW_TAG_variable, DW_AT_name("rowEnd")
    5101                      .dwattr $C$DW$492, DW_AT_TI_symbol_name("_rowEnd")
    5102                      .dwattr $C$DW$492, DW_AT_type(*$C$DW$T$19)
    5103                      .dwattr $C$DW$492, DW_AT_location[DW_OP_bregx 0x24 3]
    5104              $C$DW$493       .dwtag  DW_TAG_variable, DW_AT_name("newColStart")
    5105                      .dwattr $C$DW$493, DW_AT_TI_symbol_name("_newColStart")
    5106                      .dwattr $C$DW$493, DW_AT_type(*$C$DW$T$19)
    5107                      .dwattr $C$DW$493, DW_AT_location[DW_OP_bregx 0x24 4]
    5108              $C$DW$494       .dwtag  DW_TAG_variable, DW_AT_name("newRowStart")
    5109                      .dwattr $C$DW$494, DW_AT_TI_symbol_name("_newRowStart")
    5110                      .dwattr $C$DW$494, DW_AT_type(*$C$DW$T$19)
    5111                      .dwattr $C$DW$494, DW_AT_location[DW_OP_bregx 0x24 5]
TMS320C55x Assembler PC v4.4.1 Sat Sep 29 23:09:22 2018

Tools Copyright (c) 1996-2012 Texas Instruments Incorporated
lcdc_panel.asm                                                       PAGE  104

    5112              $C$DW$495       .dwtag  DW_TAG_variable, DW_AT_name("cs_flag")
    5113                      .dwattr $C$DW$495, DW_AT_TI_symbol_name("_cs_flag")
    5114                      .dwattr $C$DW$495, DW_AT_type(*$C$DW$T$19)
    5115                      .dwattr $C$DW$495, DW_AT_location[DW_OP_bregx 0x24 6]
    5116 000c32 CC0C          MOV AR4, *SP(#6) ; |960| 
    5117 000c34 CB0A          MOV AR3, *SP(#5) ; |960| 
    5118 000c36 CA08          MOV AR2, *SP(#4) ; |960| 
    5119 000c38 C906          MOV AR1, *SP(#3) ; |960| 
    5120 000c3a C804          MOV AR0, *SP(#2) ; |960| 
    5121 000c3c C502          MOV T1, *SP(#1) ; |960| 
    5122 000c3e C400          MOV T0, *SP(#0) ; |960| 
    5123                      .dwpsn  file "../c5535_bsl_revc/ezdsp5535_v1/c55xx_csl/ccs_v4.0_examples/lcd/CSL_LCDC_DiagramExample/
    5124              
    5125 000c44 2349          MOV T0, AR1 ; |961| 
    5126 000c40 7600  ||      MOV #131, AR2 ; |961| 
         000c42 83A8 
    5127              
    5128 000c46 12A8          CMPU AR1 <= AR2, TC1 ; |961| 
         000c48 94   
    5129 000c49 62E4          BCC $C$L66,TC1 ; |961| 
    5130                                                      ; branchcc occurs ; |961| 
    5131                      .dwpsn  file "../c5535_bsl_revc/ezdsp5535_v1/c55xx_csl/ccs_v4.0_examples/lcd/CSL_LCDC_DiagramExample/
    5132 000c4b 3E14          MOV #-1, T0
    5133 000c4d 0600          B $C$L74  ; |962| 
         000c4f C8   
    5134                                                      ; branch occurs ; |962| 
    5135 000c50       $C$L66:    
    5136                      .dwpsn  file "../c5535_bsl_revc/ezdsp5535_v1/c55xx_csl/ccs_v4.0_examples/lcd/CSL_LCDC_DiagramExample/
    5137 000c50 A902          MOV *SP(#1), AR1 ; |963| 
    5138 000c52 12A8          CMPU AR1 <= AR2, TC1 ; |963| 
         000c54 94   
    5139 000c55 62E4          BCC $C$L67,TC1 ; |963| 
    5140                                                      ; branchcc occurs ; |963| 
    5141                      .dwpsn  file "../c5535_bsl_revc/ezdsp5535_v1/c55xx_csl/ccs_v4.0_examples/lcd/CSL_LCDC_DiagramExample/
    5142 000c57 3E14          MOV #-1, T0
    5143 000c59 0600          B $C$L74  ; |964| 
         000c5b BC   
    5144                                                      ; branch occurs ; |964| 
    5145 000c5c       $C$L67:    
    5146                      .dwpsn  file "../c5535_bsl_revc/ezdsp5535_v1/c55xx_csl/ccs_v4.0_examples/lcd/CSL_LCDC_DiagramExample/
    5147 000c5c A904          MOV *SP(#2), AR1 ; |965| 
    5148 000c5e 12A8          CMPU AR1 <= AR2, TC1 ; |965| 
         000c60 94   
    5149 000c61 62E4          BCC $C$L68,TC1 ; |965| 
    5150                                                      ; branchcc occurs ; |965| 
    5151                      .dwpsn  file "../c5535_bsl_revc/ezdsp5535_v1/c55xx_csl/ccs_v4.0_examples/lcd/CSL_LCDC_DiagramExample/
    5152 000c63 3E14          MOV #-1, T0
    5153 000c65 0600          B $C$L74  ; |966| 
         000c67 B0   
    5154                                                      ; branch occurs ; |966| 
    5155 000c68       $C$L68:    
    5156                      .dwpsn  file "../c5535_bsl_revc/ezdsp5535_v1/c55xx_csl/ccs_v4.0_examples/lcd/CSL_LCDC_DiagramExample/
    5157 000c68 A906          MOV *SP(#3), AR1 ; |967| 
    5158 000c6a 12A8          CMPU AR1 <= AR2, TC1 ; |967| 
         000c6c 94   
TMS320C55x Assembler PC v4.4.1 Sat Sep 29 23:09:22 2018

Tools Copyright (c) 1996-2012 Texas Instruments Incorporated
lcdc_panel.asm                                                       PAGE  105

    5159 000c6d 62E4          BCC $C$L69,TC1 ; |967| 
    5160                                                      ; branchcc occurs ; |967| 
    5161                      .dwpsn  file "../c5535_bsl_revc/ezdsp5535_v1/c55xx_csl/ccs_v4.0_examples/lcd/CSL_LCDC_DiagramExample/
    5162 000c6f 3E14          MOV #-1, T0
    5163 000c71 0600          B $C$L74  ; |968| 
         000c73 A4   
    5164                                                      ; branch occurs ; |968| 
    5165 000c74       $C$L69:    
    5166                      .dwpsn  file "../c5535_bsl_revc/ezdsp5535_v1/c55xx_csl/ccs_v4.0_examples/lcd/CSL_LCDC_DiagramExample/
    5167              
    5168 000c74 AA04          MOV *SP(#2), AR2 ; |969| 
    5169 000c76 2349  ||      MOV T0, AR1
    5170              
    5171 000c78 12A4          CMPU AR2 < AR1, TC1 ; |969| 
         000c7a 94   
    5172 000c7b 64E4          BCC $C$L70,TC1 ; |969| 
    5173                                                      ; branchcc occurs ; |969| 
    5174 000c7d A902          MOV *SP(#1), AR1 ; |969| 
    5175 000c7f AA06          MOV *SP(#3), AR2 ; |969| 
    5176 000c81 12A8          CMPU AR2 >= AR1, TC1 ; |969| 
         000c83 94   
    5177 000c84 62E4          BCC $C$L71,TC1 ; |969| 
    5178                                                      ; branchcc occurs ; |969| 
    5179 000c86       $C$L70:    
    5180                      .dwpsn  file "../c5535_bsl_revc/ezdsp5535_v1/c55xx_csl/ccs_v4.0_examples/lcd/CSL_LCDC_DiagramExample/
    5181 000c86 3E14          MOV #-1, T0
    5182 000c88 0600          B $C$L74  ; |970| 
         000c8a 8D   
    5183                                                      ; branch occurs ; |970| 
    5184 000c8b       $C$L71:    
    5185                      .dwpsn  file "../c5535_bsl_revc/ezdsp5535_v1/c55xx_csl/ccs_v4.0_examples/lcd/CSL_LCDC_DiagramExample/
    5186 000c8b 7600          MOV #131, AR2 ; |971| 
         000c8d 83A8 
    5187 000c8f A908          MOV *SP(#4), AR1 ; |971| 
    5188 000c91 12A8          CMPU AR1 <= AR2, TC1 ; |971| 
         000c93 94   
    5189 000c94 62E4          BCC $C$L72,TC1 ; |971| 
    5190                                                      ; branchcc occurs ; |971| 
    5191                      .dwpsn  file "../c5535_bsl_revc/ezdsp5535_v1/c55xx_csl/ccs_v4.0_examples/lcd/CSL_LCDC_DiagramExample/
    5192 000c96 3E14          MOV #-1, T0
    5193 000c98 0600          B $C$L74  ; |972| 
         000c9a 7D   
    5194                                                      ; branch occurs ; |972| 
    5195 000c9b       $C$L72:    
    5196                      .dwpsn  file "../c5535_bsl_revc/ezdsp5535_v1/c55xx_csl/ccs_v4.0_examples/lcd/CSL_LCDC_DiagramExample/
    5197 000c9b A90A          MOV *SP(#5), AR1 ; |973| 
    5198 000c9d 12A8          CMPU AR1 <= AR2, TC1 ; |973| 
         000c9f 94   
    5199 000ca0 62E4          BCC $C$L73,TC1 ; |973| 
    5200                                                      ; branchcc occurs ; |973| 
    5201                      .dwpsn  file "../c5535_bsl_revc/ezdsp5535_v1/c55xx_csl/ccs_v4.0_examples/lcd/CSL_LCDC_DiagramExample/
    5202 000ca2 3E14          MOV #-1, T0
    5203 000ca4 0600          B $C$L74  ; |974| 
         000ca6 71   
    5204                                                      ; branch occurs ; |974| 
TMS320C55x Assembler PC v4.4.1 Sat Sep 29 23:09:22 2018

Tools Copyright (c) 1996-2012 Texas Instruments Incorporated
lcdc_panel.asm                                                       PAGE  106

    5205 000ca7       $C$L73:    
    5206                      .dwpsn  file "../c5535_bsl_revc/ezdsp5535_v1/c55xx_csl/ccs_v4.0_examples/lcd/CSL_LCDC_DiagramExample/
    5207 000ca7 A50C          MOV *SP(#6), T1 ; |976| 
    5208 000ca9 7600          MOV #138, T0 ; |976| 
         000cab 8A48 
    5209              $C$DW$496       .dwtag  DW_TAG_TI_branch
    5210                      .dwattr $C$DW$496, DW_AT_low_pc(0x00)
    5211                      .dwattr $C$DW$496, DW_AT_name("_cmdWrite")
    5212                      .dwattr $C$DW$496, DW_AT_TI_call
    5213 000cad 08F5          CALL #_cmdWrite ; |976| 
         000caf D8   
    5214                                                      ; call occurs [#_cmdWrite] ; |976| 
    5215                      .dwpsn  file "../c5535_bsl_revc/ezdsp5535_v1/c55xx_csl/ccs_v4.0_examples/lcd/CSL_LCDC_DiagramExample/
    5216 000cb0 A400          MOV *SP(#0), T0 ; |977| 
    5217 000cb2 A50C          MOV *SP(#6), T1 ; |977| 
    5218              $C$DW$497       .dwtag  DW_TAG_TI_branch
    5219                      .dwattr $C$DW$497, DW_AT_low_pc(0x00)
    5220                      .dwattr $C$DW$497, DW_AT_name("_dataWrite")
    5221                      .dwattr $C$DW$497, DW_AT_TI_call
    5222 000cb4 08F5          CALL #_dataWrite ; |977| 
         000cb6 E9   
    5223                                                      ; call occurs [#_dataWrite] ; |977| 
    5224                      .dwpsn  file "../c5535_bsl_revc/ezdsp5535_v1/c55xx_csl/ccs_v4.0_examples/lcd/CSL_LCDC_DiagramExample/
    5225 000cb7 A402          MOV *SP(#1), T0 ; |978| 
    5226 000cb9 A50C          MOV *SP(#6), T1 ; |978| 
    5227              $C$DW$498       .dwtag  DW_TAG_TI_branch
    5228                      .dwattr $C$DW$498, DW_AT_low_pc(0x00)
    5229                      .dwattr $C$DW$498, DW_AT_name("_dataWrite")
    5230                      .dwattr $C$DW$498, DW_AT_TI_call
    5231 000cbb 08F5          CALL #_dataWrite ; |978| 
         000cbd E2   
    5232                                                      ; call occurs [#_dataWrite] ; |978| 
    5233                      .dwpsn  file "../c5535_bsl_revc/ezdsp5535_v1/c55xx_csl/ccs_v4.0_examples/lcd/CSL_LCDC_DiagramExample/
    5234 000cbe A404          MOV *SP(#2), T0 ; |979| 
    5235 000cc0 A50C          MOV *SP(#6), T1 ; |979| 
    5236              $C$DW$499       .dwtag  DW_TAG_TI_branch
    5237                      .dwattr $C$DW$499, DW_AT_low_pc(0x00)
    5238                      .dwattr $C$DW$499, DW_AT_name("_dataWrite")
    5239                      .dwattr $C$DW$499, DW_AT_TI_call
    5240 000cc2 08F5          CALL #_dataWrite ; |979| 
         000cc4 DB   
    5241                                                      ; call occurs [#_dataWrite] ; |979| 
    5242                      .dwpsn  file "../c5535_bsl_revc/ezdsp5535_v1/c55xx_csl/ccs_v4.0_examples/lcd/CSL_LCDC_DiagramExample/
    5243 000cc5 A406          MOV *SP(#3), T0 ; |980| 
    5244 000cc7 A50C          MOV *SP(#6), T1 ; |980| 
    5245              $C$DW$500       .dwtag  DW_TAG_TI_branch
    5246                      .dwattr $C$DW$500, DW_AT_low_pc(0x00)
    5247                      .dwattr $C$DW$500, DW_AT_name("_dataWrite")
    5248                      .dwattr $C$DW$500, DW_AT_TI_call
    5249 000cc9 08F5          CALL #_dataWrite ; |980| 
         000ccb D4   
    5250                                                      ; call occurs [#_dataWrite] ; |980| 
    5251                      .dwpsn  file "../c5535_bsl_revc/ezdsp5535_v1/c55xx_csl/ccs_v4.0_examples/lcd/CSL_LCDC_DiagramExample/
    5252 000ccc A408          MOV *SP(#4), T0 ; |981| 
    5253 000cce A50C          MOV *SP(#6), T1 ; |981| 
TMS320C55x Assembler PC v4.4.1 Sat Sep 29 23:09:22 2018

Tools Copyright (c) 1996-2012 Texas Instruments Incorporated
lcdc_panel.asm                                                       PAGE  107

    5254              $C$DW$501       .dwtag  DW_TAG_TI_branch
    5255                      .dwattr $C$DW$501, DW_AT_low_pc(0x00)
    5256                      .dwattr $C$DW$501, DW_AT_name("_dataWrite")
    5257                      .dwattr $C$DW$501, DW_AT_TI_call
    5258 000cd0 08F5          CALL #_dataWrite ; |981| 
         000cd2 CD   
    5259                                                      ; call occurs [#_dataWrite] ; |981| 
    5260                      .dwpsn  file "../c5535_bsl_revc/ezdsp5535_v1/c55xx_csl/ccs_v4.0_examples/lcd/CSL_LCDC_DiagramExample/
    5261 000cd3 A40A          MOV *SP(#5), T0 ; |982| 
    5262 000cd5 A50C          MOV *SP(#6), T1 ; |982| 
    5263              $C$DW$502       .dwtag  DW_TAG_TI_branch
    5264                      .dwattr $C$DW$502, DW_AT_low_pc(0x00)
    5265                      .dwattr $C$DW$502, DW_AT_name("_dataWrite")
    5266                      .dwattr $C$DW$502, DW_AT_TI_call
    5267 000cd7 08F5          CALL #_dataWrite ; |982| 
         000cd9 C6   
    5268                                                      ; call occurs [#_dataWrite] ; |982| 
    5269                      .dwpsn  file "../c5535_bsl_revc/ezdsp5535_v1/c55xx_csl/ccs_v4.0_examples/lcd/CSL_LCDC_DiagramExample/
    5270 000cda 7600          MOV #146, T0 ; |984| 
         000cdc 9248 
    5271 000cde A50C          MOV *SP(#6), T1 ; |984| 
    5272              $C$DW$503       .dwtag  DW_TAG_TI_branch
    5273                      .dwattr $C$DW$503, DW_AT_low_pc(0x00)
    5274                      .dwattr $C$DW$503, DW_AT_name("_cmdWrite")
    5275                      .dwattr $C$DW$503, DW_AT_TI_call
    5276 000ce0 08F5          CALL #_cmdWrite ; |984| 
         000ce2 A5   
    5277                                                      ; call occurs [#_cmdWrite] ; |984| 
    5278                      .dwpsn  file "../c5535_bsl_revc/ezdsp5535_v1/c55xx_csl/ccs_v4.0_examples/lcd/CSL_LCDC_DiagramExample/
    5279 000ce3 A50C          MOV *SP(#6), T1 ; |985| 
    5280              $C$DW$504       .dwtag  DW_TAG_TI_branch
    5281                      .dwattr $C$DW$504, DW_AT_low_pc(0x00)
    5282                      .dwattr $C$DW$504, DW_AT_name("_dataWrite")
    5283                      .dwattr $C$DW$504, DW_AT_TI_call
    5284              
    5285 000ce5 08F5          CALL #_dataWrite ; |985| 
         000ce7 B6   
    5286 000ce8 3D14  ||      MOV #1, T0
    5287              
    5288                                                      ; call occurs [#_dataWrite] ; |985| 
    5289                      .dwpsn  file "../c5535_bsl_revc/ezdsp5535_v1/c55xx_csl/ccs_v4.0_examples/lcd/CSL_LCDC_DiagramExample/
    5290 000cea 7600          MOV #100, T0 ; |986| 
         000cec 6448 
    5291              $C$DW$505       .dwtag  DW_TAG_TI_branch
    5292                      .dwattr $C$DW$505, DW_AT_low_pc(0x00)
    5293                      .dwattr $C$DW$505, DW_AT_name("_delay")
    5294                      .dwattr $C$DW$505, DW_AT_TI_call
    5295 000cee 08F6          CALL #_delay ; |986| 
         000cf0 B7   
    5296                                                      ; call occurs [#_delay] ; |986| 
    5297                      .dwpsn  file "../c5535_bsl_revc/ezdsp5535_v1/c55xx_csl/ccs_v4.0_examples/lcd/CSL_LCDC_DiagramExample/
    5298 000cf1 7600          MOV #142, T0 ; |987| 
         000cf3 8E48 
    5299 000cf5 A50C          MOV *SP(#6), T1 ; |987| 
    5300              $C$DW$506       .dwtag  DW_TAG_TI_branch
TMS320C55x Assembler PC v4.4.1 Sat Sep 29 23:09:22 2018

Tools Copyright (c) 1996-2012 Texas Instruments Incorporated
lcdc_panel.asm                                                       PAGE  108

    5301                      .dwattr $C$DW$506, DW_AT_low_pc(0x00)
    5302                      .dwattr $C$DW$506, DW_AT_name("_cmdWrite")
    5303                      .dwattr $C$DW$506, DW_AT_TI_call
    5304 000cf7 08F5          CALL #_cmdWrite ; |987| 
         000cf9 8E   
    5305                                                      ; call occurs [#_cmdWrite] ; |987| 
    5306                      .dwpsn  file "../c5535_bsl_revc/ezdsp5535_v1/c55xx_csl/ccs_v4.0_examples/lcd/CSL_LCDC_DiagramExample/
    5307 000cfa A400          MOV *SP(#0), T0 ; |988| 
    5308 000cfc A50C          MOV *SP(#6), T1 ; |988| 
    5309              $C$DW$507       .dwtag  DW_TAG_TI_branch
    5310                      .dwattr $C$DW$507, DW_AT_low_pc(0x00)
    5311                      .dwattr $C$DW$507, DW_AT_name("_dataWrite")
    5312                      .dwattr $C$DW$507, DW_AT_TI_call
    5313 000cfe 08F5          CALL #_dataWrite ; |988| 
         000d00 9F   
    5314                                                      ; call occurs [#_dataWrite] ; |988| 
    5315                      .dwpsn  file "../c5535_bsl_revc/ezdsp5535_v1/c55xx_csl/ccs_v4.0_examples/lcd/CSL_LCDC_DiagramExample/
    5316 000d01 A402          MOV *SP(#1), T0 ; |989| 
    5317 000d03 A50C          MOV *SP(#6), T1 ; |989| 
    5318              $C$DW$508       .dwtag  DW_TAG_TI_branch
    5319                      .dwattr $C$DW$508, DW_AT_low_pc(0x00)
    5320                      .dwattr $C$DW$508, DW_AT_name("_dataWrite")
    5321                      .dwattr $C$DW$508, DW_AT_TI_call
    5322 000d05 08F5          CALL #_dataWrite ; |989| 
         000d07 98   
    5323                                                      ; call occurs [#_dataWrite] ; |989| 
    5324                      .dwpsn  file "../c5535_bsl_revc/ezdsp5535_v1/c55xx_csl/ccs_v4.0_examples/lcd/CSL_LCDC_DiagramExample/
    5325 000d08 A404          MOV *SP(#2), T0 ; |990| 
    5326 000d0a A50C          MOV *SP(#6), T1 ; |990| 
    5327              $C$DW$509       .dwtag  DW_TAG_TI_branch
    5328                      .dwattr $C$DW$509, DW_AT_low_pc(0x00)
    5329                      .dwattr $C$DW$509, DW_AT_name("_dataWrite")
    5330                      .dwattr $C$DW$509, DW_AT_TI_call
    5331 000d0c 08F5          CALL #_dataWrite ; |990| 
         000d0e 91   
    5332                                                      ; call occurs [#_dataWrite] ; |990| 
    5333                      .dwpsn  file "../c5535_bsl_revc/ezdsp5535_v1/c55xx_csl/ccs_v4.0_examples/lcd/CSL_LCDC_DiagramExample/
    5334 000d0f A406          MOV *SP(#3), T0 ; |991| 
    5335 000d11 A50C          MOV *SP(#6), T1 ; |991| 
    5336              $C$DW$510       .dwtag  DW_TAG_TI_branch
    5337                      .dwattr $C$DW$510, DW_AT_low_pc(0x00)
    5338                      .dwattr $C$DW$510, DW_AT_name("_dataWrite")
    5339                      .dwattr $C$DW$510, DW_AT_TI_call
    5340 000d13 08F5          CALL #_dataWrite ; |991| 
         000d15 8A   
    5341                                                      ; call occurs [#_dataWrite] ; |991| 
    5342                      .dwpsn  file "../c5535_bsl_revc/ezdsp5535_v1/c55xx_csl/ccs_v4.0_examples/lcd/CSL_LCDC_DiagramExample/
    5343 000d16 3C04          MOV #0, T0
    5344 000d18       $C$L74:    
    5345                      .dwpsn  file "../c5535_bsl_revc/ezdsp5535_v1/c55xx_csl/ccs_v4.0_examples/lcd/CSL_LCDC_DiagramExample/
    5346 000d18 4E07          AADD #7, SP
    5347                      .dwcfi  cfa_offset, 1
    5348              $C$DW$511       .dwtag  DW_TAG_TI_branch
    5349                      .dwattr $C$DW$511, DW_AT_low_pc(0x00)
    5350                      .dwattr $C$DW$511, DW_AT_TI_return
TMS320C55x Assembler PC v4.4.1 Sat Sep 29 23:09:22 2018

Tools Copyright (c) 1996-2012 Texas Instruments Incorporated
lcdc_panel.asm                                                       PAGE  109

    5351 000d1a 4804          RET
    5352                                                      ; return occurs
    5353                      .dwattr $C$DW$481, DW_AT_TI_end_file("../c5535_bsl_revc/ezdsp5535_v1/c55xx_csl/ccs_v4.0_examples/lcd/
    5354                      .dwattr $C$DW$481, DW_AT_TI_end_line(0x3e2)
    5355                      .dwattr $C$DW$481, DW_AT_TI_end_column(0x01)
    5356                      .dwendentry
    5357                      .dwendtag $C$DW$481
    5358              
    5359 000d1c               .sect   ".text"
    5360                      .align 4
    5361                      .global _windowSetup
    5362              
    5363              $C$DW$512       .dwtag  DW_TAG_subprogram, DW_AT_name("windowSetup")
    5364                      .dwattr $C$DW$512, DW_AT_low_pc(_windowSetup)
    5365                      .dwattr $C$DW$512, DW_AT_high_pc(0x00)
    5366                      .dwattr $C$DW$512, DW_AT_TI_symbol_name("_windowSetup")
    5367                      .dwattr $C$DW$512, DW_AT_external
    5368                      .dwattr $C$DW$512, DW_AT_type(*$C$DW$T$29)
    5369                      .dwattr $C$DW$512, DW_AT_TI_begin_file("../c5535_bsl_revc/ezdsp5535_v1/c55xx_csl/ccs_v4.0_examples/lc
    5370                      .dwattr $C$DW$512, DW_AT_TI_begin_line(0x3f1)
    5371                      .dwattr $C$DW$512, DW_AT_TI_begin_column(0x07)
    5372                      .dwattr $C$DW$512, DW_AT_TI_max_frame_size(0x06)
    5373                      .dwpsn  file "../c5535_bsl_revc/ezdsp5535_v1/c55xx_csl/ccs_v4.0_examples/lcd/CSL_LCDC_DiagramExample/
    5374              
    5375                      .dwfde $C$DW$CIE, _windowSetup
    5376              $C$DW$513       .dwtag  DW_TAG_formal_parameter, DW_AT_name("rowStart")
    5377                      .dwattr $C$DW$513, DW_AT_TI_symbol_name("_rowStart")
    5378                      .dwattr $C$DW$513, DW_AT_type(*$C$DW$T$19)
    5379                      .dwattr $C$DW$513, DW_AT_location[DW_OP_reg12]
    5380              $C$DW$514       .dwtag  DW_TAG_formal_parameter, DW_AT_name("colStart")
    5381                      .dwattr $C$DW$514, DW_AT_TI_symbol_name("_colStart")
    5382                      .dwattr $C$DW$514, DW_AT_type(*$C$DW$T$19)
    5383                      .dwattr $C$DW$514, DW_AT_location[DW_OP_reg13]
    5384              $C$DW$515       .dwtag  DW_TAG_formal_parameter, DW_AT_name("rowEnd")
    5385                      .dwattr $C$DW$515, DW_AT_TI_symbol_name("_rowEnd")
    5386                      .dwattr $C$DW$515, DW_AT_type(*$C$DW$T$19)
    5387                      .dwattr $C$DW$515, DW_AT_location[DW_OP_reg16]
    5388              $C$DW$516       .dwtag  DW_TAG_formal_parameter, DW_AT_name("colEnd")
    5389                      .dwattr $C$DW$516, DW_AT_TI_symbol_name("_colEnd")
    5390                      .dwattr $C$DW$516, DW_AT_type(*$C$DW$T$19)
    5391                      .dwattr $C$DW$516, DW_AT_location[DW_OP_reg18]
    5392              $C$DW$517       .dwtag  DW_TAG_formal_parameter, DW_AT_name("cs_flag")
    5393                      .dwattr $C$DW$517, DW_AT_TI_symbol_name("_cs_flag")
    5394                      .dwattr $C$DW$517, DW_AT_type(*$C$DW$T$19)
    5395                      .dwattr $C$DW$517, DW_AT_location[DW_OP_reg20]
    5396              ;*******************************************************************************
    5397              ;* FUNCTION NAME: windowSetup                                                  *
    5398              ;*                                                                             *
    5399              ;*   Function Uses Regs : T0,T1,AR0,AR1,AR2,SP,TC1,M40,SATA,SATD,RDM,FRCT,SMUL *
    5400              ;*   Stack Frame        : Compact (No Frame Pointer, w/ debug)                 *
    5401              ;*   Total Frame Size   : 6 words                                              *
    5402              ;*                        (1 return address/alignment)                         *
    5403              ;*                        (5 local values)                                     *
    5404              ;*   Min System Stack   : 1 word                                               *
    5405              ;*******************************************************************************
TMS320C55x Assembler PC v4.4.1 Sat Sep 29 23:09:22 2018

Tools Copyright (c) 1996-2012 Texas Instruments Incorporated
lcdc_panel.asm                                                       PAGE  110

    5406 000d1c       _windowSetup:
    5407                      .dwcfi  cfa_offset, 1
    5408                      .dwcfi  save_reg_to_mem, 91, -1
    5409 000d1c 4EFB          AADD #-5, SP
    5410                      .dwcfi  cfa_offset, 6
    5411              $C$DW$518       .dwtag  DW_TAG_variable, DW_AT_name("rowStart")
    5412                      .dwattr $C$DW$518, DW_AT_TI_symbol_name("_rowStart")
    5413                      .dwattr $C$DW$518, DW_AT_type(*$C$DW$T$19)
    5414                      .dwattr $C$DW$518, DW_AT_location[DW_OP_bregx 0x24 0]
    5415              $C$DW$519       .dwtag  DW_TAG_variable, DW_AT_name("colStart")
    5416                      .dwattr $C$DW$519, DW_AT_TI_symbol_name("_colStart")
    5417                      .dwattr $C$DW$519, DW_AT_type(*$C$DW$T$19)
    5418                      .dwattr $C$DW$519, DW_AT_location[DW_OP_bregx 0x24 1]
    5419              $C$DW$520       .dwtag  DW_TAG_variable, DW_AT_name("rowEnd")
    5420                      .dwattr $C$DW$520, DW_AT_TI_symbol_name("_rowEnd")
    5421                      .dwattr $C$DW$520, DW_AT_type(*$C$DW$T$19)
    5422                      .dwattr $C$DW$520, DW_AT_location[DW_OP_bregx 0x24 2]
    5423              $C$DW$521       .dwtag  DW_TAG_variable, DW_AT_name("colEnd")
    5424                      .dwattr $C$DW$521, DW_AT_TI_symbol_name("_colEnd")
    5425                      .dwattr $C$DW$521, DW_AT_type(*$C$DW$T$19)
    5426                      .dwattr $C$DW$521, DW_AT_location[DW_OP_bregx 0x24 3]
    5427              $C$DW$522       .dwtag  DW_TAG_variable, DW_AT_name("cs_flag")
    5428                      .dwattr $C$DW$522, DW_AT_TI_symbol_name("_cs_flag")
    5429                      .dwattr $C$DW$522, DW_AT_type(*$C$DW$T$19)
    5430                      .dwattr $C$DW$522, DW_AT_location[DW_OP_bregx 0x24 4]
    5431 000d1e CA08          MOV AR2, *SP(#4) ; |1015| 
    5432 000d20 C906          MOV AR1, *SP(#3) ; |1015| 
    5433 000d22 C804          MOV AR0, *SP(#2) ; |1015| 
    5434 000d24 C502          MOV T1, *SP(#1) ; |1015| 
    5435 000d26 C400          MOV T0, *SP(#0) ; |1015| 
    5436                      .dwpsn  file "../c5535_bsl_revc/ezdsp5535_v1/c55xx_csl/ccs_v4.0_examples/lcd/CSL_LCDC_DiagramExample/
    5437              
    5438 000d2c 2349          MOV T0, AR1 ; |1016| 
    5439 000d28 7600  ||      MOV #131, AR2 ; |1016| 
         000d2a 83A8 
    5440              
    5441 000d2e 12A8          CMPU AR1 <= AR2, TC1 ; |1016| 
         000d30 94   
    5442 000d31 62E4          BCC $C$L75,TC1 ; |1016| 
    5443                                                      ; branchcc occurs ; |1016| 
    5444                      .dwpsn  file "../c5535_bsl_revc/ezdsp5535_v1/c55xx_csl/ccs_v4.0_examples/lcd/CSL_LCDC_DiagramExample/
    5445 000d33 3E14          MOV #-1, T0
    5446 000d35 0600          B $C$L81  ; |1017| 
         000d37 59   
    5447                                                      ; branch occurs ; |1017| 
    5448 000d38       $C$L75:    
    5449                      .dwpsn  file "../c5535_bsl_revc/ezdsp5535_v1/c55xx_csl/ccs_v4.0_examples/lcd/CSL_LCDC_DiagramExample/
    5450 000d38 A902          MOV *SP(#1), AR1 ; |1018| 
    5451 000d3a 12A8          CMPU AR1 <= AR2, TC1 ; |1018| 
         000d3c 94   
    5452 000d3d 62E4          BCC $C$L76,TC1 ; |1018| 
    5453                                                      ; branchcc occurs ; |1018| 
    5454                      .dwpsn  file "../c5535_bsl_revc/ezdsp5535_v1/c55xx_csl/ccs_v4.0_examples/lcd/CSL_LCDC_DiagramExample/
    5455 000d3f 3E14          MOV #-1, T0
    5456 000d41 0600          B $C$L81  ; |1019| 
TMS320C55x Assembler PC v4.4.1 Sat Sep 29 23:09:22 2018

Tools Copyright (c) 1996-2012 Texas Instruments Incorporated
lcdc_panel.asm                                                       PAGE  111

         000d43 4D   
    5457                                                      ; branch occurs ; |1019| 
    5458 000d44       $C$L76:    
    5459                      .dwpsn  file "../c5535_bsl_revc/ezdsp5535_v1/c55xx_csl/ccs_v4.0_examples/lcd/CSL_LCDC_DiagramExample/
    5460 000d44 A904          MOV *SP(#2), AR1 ; |1020| 
    5461 000d46 12A8          CMPU AR1 <= AR2, TC1 ; |1020| 
         000d48 94   
    5462 000d49 62E4          BCC $C$L77,TC1 ; |1020| 
    5463                                                      ; branchcc occurs ; |1020| 
    5464                      .dwpsn  file "../c5535_bsl_revc/ezdsp5535_v1/c55xx_csl/ccs_v4.0_examples/lcd/CSL_LCDC_DiagramExample/
    5465 000d4b 3E14          MOV #-1, T0
    5466 000d4d 0600          B $C$L81  ; |1021| 
         000d4f 41   
    5467                                                      ; branch occurs ; |1021| 
    5468 000d50       $C$L77:    
    5469                      .dwpsn  file "../c5535_bsl_revc/ezdsp5535_v1/c55xx_csl/ccs_v4.0_examples/lcd/CSL_LCDC_DiagramExample/
    5470 000d50 A906          MOV *SP(#3), AR1 ; |1022| 
    5471 000d52 12A8          CMPU AR1 <= AR2, TC1 ; |1022| 
         000d54 94   
    5472 000d55 6264          BCC $C$L78,TC1 ; |1022| 
    5473                                                      ; branchcc occurs ; |1022| 
    5474                      .dwpsn  file "../c5535_bsl_revc/ezdsp5535_v1/c55xx_csl/ccs_v4.0_examples/lcd/CSL_LCDC_DiagramExample/
    5475 000d57 3E14          MOV #-1, T0
    5476 000d59 4A36          B $C$L81  ; |1023| 
    5477                                                      ; branch occurs ; |1023| 
    5478 000d5b       $C$L78:    
    5479                      .dwpsn  file "../c5535_bsl_revc/ezdsp5535_v1/c55xx_csl/ccs_v4.0_examples/lcd/CSL_LCDC_DiagramExample/
    5480              
    5481 000d5b AA04          MOV *SP(#2), AR2 ; |1024| 
    5482 000d5d 2349  ||      MOV T0, AR1
    5483              
    5484 000d5f 1298          CMPU AR2 <= AR1, TC1 ; |1024| 
         000d61 A4   
    5485 000d62 64E4          BCC $C$L79,TC1 ; |1024| 
    5486                                                      ; branchcc occurs ; |1024| 
    5487 000d64 A902          MOV *SP(#1), AR1 ; |1024| 
    5488 000d66 AA06          MOV *SP(#3), AR2 ; |1024| 
    5489 000d68 1294          CMPU AR2 > AR1, TC1 ; |1024| 
         000d6a A4   
    5490 000d6b 6264          BCC $C$L80,TC1 ; |1024| 
    5491                                                      ; branchcc occurs ; |1024| 
    5492 000d6d       $C$L79:    
    5493                      .dwpsn  file "../c5535_bsl_revc/ezdsp5535_v1/c55xx_csl/ccs_v4.0_examples/lcd/CSL_LCDC_DiagramExample/
    5494 000d6d 3E14          MOV #-1, T0
    5495 000d6f 4A20          B $C$L81  ; |1025| 
    5496                                                      ; branch occurs ; |1025| 
    5497 000d71       $C$L80:    
    5498                      .dwpsn  file "../c5535_bsl_revc/ezdsp5535_v1/c55xx_csl/ccs_v4.0_examples/lcd/CSL_LCDC_DiagramExample/
    5499 000d71 A408          MOV *SP(#4), T0 ; |1027| 
    5500              $C$DW$523       .dwtag  DW_TAG_TI_branch
    5501                      .dwattr $C$DW$523, DW_AT_low_pc(0x00)
    5502                      .dwattr $C$DW$523, DW_AT_name("_DisplayOn")
    5503                      .dwattr $C$DW$523, DW_AT_TI_call
    5504 000d73 08F3          CALL #_DisplayOn ; |1027| 
         000d75 8A   
TMS320C55x Assembler PC v4.4.1 Sat Sep 29 23:09:22 2018

Tools Copyright (c) 1996-2012 Texas Instruments Incorporated
lcdc_panel.asm                                                       PAGE  112

    5505                                                      ; call occurs [#_DisplayOn] ; |1027| 
    5506                      .dwpsn  file "../c5535_bsl_revc/ezdsp5535_v1/c55xx_csl/ccs_v4.0_examples/lcd/CSL_LCDC_DiagramExample/
    5507 000d76 A508          MOV *SP(#4), T1 ; |1040| 
    5508              $C$DW$524       .dwtag  DW_TAG_TI_branch
    5509                      .dwattr $C$DW$524, DW_AT_low_pc(0x00)
    5510                      .dwattr $C$DW$524, DW_AT_name("_DisplayColorMode")
    5511                      .dwattr $C$DW$524, DW_AT_TI_call
    5512              
    5513 000d78 08F3          CALL #_DisplayColorMode ; |1040| 
         000d7a B3   
    5514 000d7b 3D04  ||      MOV #0, T0
    5515              
    5516                                                      ; call occurs [#_DisplayColorMode] ; |1040| 
    5517                      .dwpsn  file "../c5535_bsl_revc/ezdsp5535_v1/c55xx_csl/ccs_v4.0_examples/lcd/CSL_LCDC_DiagramExample/
    5518 000d7d A402          MOV *SP(#1), T0 ; |1045| 
    5519 000d7f A506          MOV *SP(#3), T1 ; |1045| 
    5520 000d81 A808          MOV *SP(#4), AR0 ; |1045| 
    5521              $C$DW$525       .dwtag  DW_TAG_TI_branch
    5522                      .dwattr $C$DW$525, DW_AT_low_pc(0x00)
    5523                      .dwattr $C$DW$525, DW_AT_name("_SetVerticalRAMAddress")
    5524                      .dwattr $C$DW$525, DW_AT_TI_call
    5525 000d83 08F4          CALL #_SetVerticalRAMAddress ; |1045| 
         000d85 9E   
    5526                                                      ; call occurs [#_SetVerticalRAMAddress] ; |1045| 
    5527                      .dwpsn  file "../c5535_bsl_revc/ezdsp5535_v1/c55xx_csl/ccs_v4.0_examples/lcd/CSL_LCDC_DiagramExample/
    5528 000d86 A400          MOV *SP(#0), T0 ; |1052| 
    5529 000d88 A504          MOV *SP(#2), T1 ; |1052| 
    5530 000d8a A808          MOV *SP(#4), AR0 ; |1052| 
    5531              $C$DW$526       .dwtag  DW_TAG_TI_branch
    5532                      .dwattr $C$DW$526, DW_AT_low_pc(0x00)
    5533                      .dwattr $C$DW$526, DW_AT_name("_SetHorizontalRAMAddress")
    5534                      .dwattr $C$DW$526, DW_AT_TI_call
    5535 000d8c 08F4          CALL #_SetHorizontalRAMAddress ; |1052| 
         000d8e 71   
    5536                                                      ; call occurs [#_SetHorizontalRAMAddress] ; |1052| 
    5537                      .dwpsn  file "../c5535_bsl_revc/ezdsp5535_v1/c55xx_csl/ccs_v4.0_examples/lcd/CSL_LCDC_DiagramExample/
    5538 000d8f 3C04          MOV #0, T0
    5539 000d91       $C$L81:    
    5540                      .dwpsn  file "../c5535_bsl_revc/ezdsp5535_v1/c55xx_csl/ccs_v4.0_examples/lcd/CSL_LCDC_DiagramExample/
    5541 000d91 4E05          AADD #5, SP
    5542                      .dwcfi  cfa_offset, 1
    5543              $C$DW$527       .dwtag  DW_TAG_TI_branch
    5544                      .dwattr $C$DW$527, DW_AT_low_pc(0x00)
    5545                      .dwattr $C$DW$527, DW_AT_TI_return
    5546 000d93 4804          RET
    5547                                                      ; return occurs
    5548                      .dwattr $C$DW$512, DW_AT_TI_end_file("../c5535_bsl_revc/ezdsp5535_v1/c55xx_csl/ccs_v4.0_examples/lcd/
    5549                      .dwattr $C$DW$512, DW_AT_TI_end_line(0x423)
    5550                      .dwattr $C$DW$512, DW_AT_TI_end_column(0x01)
    5551                      .dwendentry
    5552                      .dwendtag $C$DW$512
    5553              
    5554 000d95               .sect   ".text"
    5555                      .align 4
    5556                      .global _draw_262K_colorbar
TMS320C55x Assembler PC v4.4.1 Sat Sep 29 23:09:22 2018

Tools Copyright (c) 1996-2012 Texas Instruments Incorporated
lcdc_panel.asm                                                       PAGE  113

    5557              
    5558              $C$DW$528       .dwtag  DW_TAG_subprogram, DW_AT_name("draw_262K_colorbar")
    5559                      .dwattr $C$DW$528, DW_AT_low_pc(_draw_262K_colorbar)
    5560                      .dwattr $C$DW$528, DW_AT_high_pc(0x00)
    5561                      .dwattr $C$DW$528, DW_AT_TI_symbol_name("_draw_262K_colorbar")
    5562                      .dwattr $C$DW$528, DW_AT_external
    5563                      .dwattr $C$DW$528, DW_AT_type(*$C$DW$T$29)
    5564                      .dwattr $C$DW$528, DW_AT_TI_begin_file("../c5535_bsl_revc/ezdsp5535_v1/c55xx_csl/ccs_v4.0_examples/lc
    5565                      .dwattr $C$DW$528, DW_AT_TI_begin_line(0x42b)
    5566                      .dwattr $C$DW$528, DW_AT_TI_begin_column(0x07)
    5567                      .dwattr $C$DW$528, DW_AT_TI_max_frame_size(0x04)
    5568                      .dwpsn  file "../c5535_bsl_revc/ezdsp5535_v1/c55xx_csl/ccs_v4.0_examples/lcd/CSL_LCDC_DiagramExample/
    5569              
    5570                      .dwfde $C$DW$CIE, _draw_262K_colorbar
    5571              $C$DW$529       .dwtag  DW_TAG_formal_parameter, DW_AT_name("cs_flag")
    5572                      .dwattr $C$DW$529, DW_AT_TI_symbol_name("_cs_flag")
    5573                      .dwattr $C$DW$529, DW_AT_type(*$C$DW$T$19)
    5574                      .dwattr $C$DW$529, DW_AT_location[DW_OP_reg12]
    5575              ;*******************************************************************************
    5576              ;* FUNCTION NAME: draw_262K_colorbar                                           *
    5577              ;*                                                                             *
    5578              ;*   Function Uses Regs : AC0,AC0,T0,T1,AR1,AR2,SP,CARRY,TC1,M40,SATA,SATD,RDM,*
    5579              ;*                        FRCT,SMUL                                            *
    5580              ;*   Stack Frame        : Compact (No Frame Pointer, w/ debug)                 *
    5581              ;*   Total Frame Size   : 4 words                                              *
    5582              ;*                        (1 return address/alignment)                         *
    5583              ;*                        (3 local values)                                     *
    5584              ;*   Min System Stack   : 1 word                                               *
    5585              ;*******************************************************************************
    5586 000d98       _draw_262K_colorbar:
    5587                      .dwcfi  cfa_offset, 1
    5588                      .dwcfi  save_reg_to_mem, 91, -1
    5589 000d98 4EFD          AADD #-3, SP
    5590                      .dwcfi  cfa_offset, 4
    5591              $C$DW$530       .dwtag  DW_TAG_variable, DW_AT_name("cs_flag")
    5592                      .dwattr $C$DW$530, DW_AT_TI_symbol_name("_cs_flag")
    5593                      .dwattr $C$DW$530, DW_AT_type(*$C$DW$T$19)
    5594                      .dwattr $C$DW$530, DW_AT_location[DW_OP_bregx 0x24 0]
    5595              $C$DW$531       .dwtag  DW_TAG_variable, DW_AT_name("i")
    5596                      .dwattr $C$DW$531, DW_AT_TI_symbol_name("_i")
    5597                      .dwattr $C$DW$531, DW_AT_type(*$C$DW$T$19)
    5598                      .dwattr $C$DW$531, DW_AT_location[DW_OP_bregx 0x24 1]
    5599              $C$DW$532       .dwtag  DW_TAG_variable, DW_AT_name("j")
    5600                      .dwattr $C$DW$532, DW_AT_TI_symbol_name("_j")
    5601                      .dwattr $C$DW$532, DW_AT_type(*$C$DW$T$19)
    5602                      .dwattr $C$DW$532, DW_AT_location[DW_OP_bregx 0x24 2]
    5603 000d9a C400          MOV T0, *SP(#0) ; |1068| 
    5604                      .dwpsn  file "../c5535_bsl_revc/ezdsp5535_v1/c55xx_csl/ccs_v4.0_examples/lcd/CSL_LCDC_DiagramExample/
    5605 000d9c 7600          MOV #21, T0 ; |1074| 
         000d9e 1548 
    5606 000da0 A500          MOV *SP(#0), T1 ; |1074| 
    5607              $C$DW$533       .dwtag  DW_TAG_TI_branch
    5608                      .dwattr $C$DW$533, DW_AT_low_pc(0x00)
    5609                      .dwattr $C$DW$533, DW_AT_name("_cmdWrite")
    5610                      .dwattr $C$DW$533, DW_AT_TI_call
TMS320C55x Assembler PC v4.4.1 Sat Sep 29 23:09:22 2018

Tools Copyright (c) 1996-2012 Texas Instruments Incorporated
lcdc_panel.asm                                                       PAGE  114

    5611 000da2 08F4          CALL #_cmdWrite ; |1074| 
         000da4 E3   
    5612                                                      ; call occurs [#_cmdWrite] ; |1074| 
    5613                      .dwpsn  file "../c5535_bsl_revc/ezdsp5535_v1/c55xx_csl/ccs_v4.0_examples/lcd/CSL_LCDC_DiagramExample/
    5614 000da5 A500          MOV *SP(#0), T1 ; |1075| 
    5615              $C$DW$534       .dwtag  DW_TAG_TI_branch
    5616                      .dwattr $C$DW$534, DW_AT_low_pc(0x00)
    5617                      .dwattr $C$DW$534, DW_AT_name("_dataWrite")
    5618                      .dwattr $C$DW$534, DW_AT_TI_call
    5619              
    5620 000da7 08F4          CALL #_dataWrite ; |1075| 
         000da9 F4   
    5621 000daa 3D04  ||      MOV #0, T0
    5622              
    5623                                                      ; call occurs [#_dataWrite] ; |1075| 
    5624                      .dwpsn  file "../c5535_bsl_revc/ezdsp5535_v1/c55xx_csl/ccs_v4.0_examples/lcd/CSL_LCDC_DiagramExample/
    5625 000dac A500          MOV *SP(#0), T1 ; |1076| 
    5626              $C$DW$535       .dwtag  DW_TAG_TI_branch
    5627                      .dwattr $C$DW$535, DW_AT_low_pc(0x00)
    5628                      .dwattr $C$DW$535, DW_AT_name("_dataWrite")
    5629                      .dwattr $C$DW$535, DW_AT_TI_call
    5630              
    5631 000dae 08F4          CALL #_dataWrite ; |1076| 
         000db0 ED   
    5632 000db1 3DF4  ||      MOV #15, T0
    5633              
    5634                                                      ; call occurs [#_dataWrite] ; |1076| 
    5635                      .dwpsn  file "../c5535_bsl_revc/ezdsp5535_v1/c55xx_csl/ccs_v4.0_examples/lcd/CSL_LCDC_DiagramExample/
    5636              $C$DW$536       .dwtag  DW_TAG_TI_branch
    5637                      .dwattr $C$DW$536, DW_AT_low_pc(0x00)
    5638                      .dwattr $C$DW$536, DW_AT_name("_wait")
    5639                      .dwattr $C$DW$536, DW_AT_TI_call
    5640              
    5641 000db3 08F3          CALL #_wait ; |1077| 
         000db5 20   
    5642 000db6 3DA0  ||      MOV #10, AC0 ; |1077| 
    5643              
    5644                                                      ; call occurs [#_wait] ; |1077| 
    5645                      .dwpsn  file "../c5535_bsl_revc/ezdsp5535_v1/c55xx_csl/ccs_v4.0_examples/lcd/CSL_LCDC_DiagramExample/
    5646 000db8 7600          MOV #117, T0 ; |1078| 
         000dba 7548 
    5647 000dbc A500          MOV *SP(#0), T1 ; |1078| 
    5648              $C$DW$537       .dwtag  DW_TAG_TI_branch
    5649                      .dwattr $C$DW$537, DW_AT_low_pc(0x00)
    5650                      .dwattr $C$DW$537, DW_AT_name("_cmdWrite")
    5651                      .dwattr $C$DW$537, DW_AT_TI_call
    5652 000dbe 08F4          CALL #_cmdWrite ; |1078| 
         000dc0 C7   
    5653                                                      ; call occurs [#_cmdWrite] ; |1078| 
    5654                      .dwpsn  file "../c5535_bsl_revc/ezdsp5535_v1/c55xx_csl/ccs_v4.0_examples/lcd/CSL_LCDC_DiagramExample/
    5655 000dc1 A500          MOV *SP(#0), T1 ; |1079| 
    5656              $C$DW$538       .dwtag  DW_TAG_TI_branch
    5657                      .dwattr $C$DW$538, DW_AT_low_pc(0x00)
    5658                      .dwattr $C$DW$538, DW_AT_name("_dataWrite")
    5659                      .dwattr $C$DW$538, DW_AT_TI_call
TMS320C55x Assembler PC v4.4.1 Sat Sep 29 23:09:22 2018

Tools Copyright (c) 1996-2012 Texas Instruments Incorporated
lcdc_panel.asm                                                       PAGE  115

    5660              
    5661 000dc3 08F4          CALL #_dataWrite ; |1079| 
         000dc5 D8   
    5662 000dc6 3D04  ||      MOV #0, T0
    5663              
    5664                                                      ; call occurs [#_dataWrite] ; |1079| 
    5665                      .dwpsn  file "../c5535_bsl_revc/ezdsp5535_v1/c55xx_csl/ccs_v4.0_examples/lcd/CSL_LCDC_DiagramExample/
    5666 000dc8 7600          MOV #127, T0 ; |1080| 
         000dca 7F48 
    5667 000dcc A500          MOV *SP(#0), T1 ; |1080| 
    5668              $C$DW$539       .dwtag  DW_TAG_TI_branch
    5669                      .dwattr $C$DW$539, DW_AT_low_pc(0x00)
    5670                      .dwattr $C$DW$539, DW_AT_name("_dataWrite")
    5671                      .dwattr $C$DW$539, DW_AT_TI_call
    5672 000dce 08F4          CALL #_dataWrite ; |1080| 
         000dd0 CF   
    5673                                                      ; call occurs [#_dataWrite] ; |1080| 
    5674                      .dwpsn  file "../c5535_bsl_revc/ezdsp5535_v1/c55xx_csl/ccs_v4.0_examples/lcd/CSL_LCDC_DiagramExample/
    5675              $C$DW$540       .dwtag  DW_TAG_TI_branch
    5676                      .dwattr $C$DW$540, DW_AT_low_pc(0x00)
    5677                      .dwattr $C$DW$540, DW_AT_name("_wait")
    5678                      .dwattr $C$DW$540, DW_AT_TI_call
    5679              
    5680 000dd1 08F3          CALL #_wait ; |1081| 
         000dd3 02   
    5681 000dd4 3DA0  ||      MOV #10, AC0 ; |1081| 
    5682              
    5683                                                      ; call occurs [#_wait] ; |1081| 
    5684                      .dwpsn  file "../c5535_bsl_revc/ezdsp5535_v1/c55xx_csl/ccs_v4.0_examples/lcd/CSL_LCDC_DiagramExample/
    5685 000dd6 7600          MOV #92, T0 ; |1082| 
         000dd8 5C48 
    5686 000dda A500          MOV *SP(#0), T1 ; |1082| 
    5687              $C$DW$541       .dwtag  DW_TAG_TI_branch
    5688                      .dwattr $C$DW$541, DW_AT_low_pc(0x00)
    5689                      .dwattr $C$DW$541, DW_AT_name("_cmdWrite")
    5690                      .dwattr $C$DW$541, DW_AT_TI_call
    5691 000ddc 08F4          CALL #_cmdWrite ; |1082| 
         000dde A9   
    5692                                                      ; call occurs [#_cmdWrite] ; |1082| 
    5693                      .dwpsn  file "../c5535_bsl_revc/ezdsp5535_v1/c55xx_csl/ccs_v4.0_examples/lcd/CSL_LCDC_DiagramExample/
    5694 000ddf E602          MOV #0, *SP(#1) ; |1084| 
         000de1 00   
    5695                      .dwpsn  file "../c5535_bsl_revc/ezdsp5535_v1/c55xx_csl/ccs_v4.0_examples/lcd/CSL_LCDC_DiagramExample/
    5696 000de2 7600          MOV #32, AR2 ; |1084| 
         000de4 20A8 
    5697 000de6 A902          MOV *SP(#1), AR1 ; |1084| 
    5698 000de8 1298          CMPU AR1 >= AR2, TC1 ; |1084| 
         000dea A4   
    5699 000deb 0464          BCC $C$L85,TC1 ; |1084| 
         000ded 3C   
    5700                                                      ; branchcc occurs ; |1084| 
    5701 000dee       $C$L82:    
    5702 000dee       $C$DW$L$_draw_262K_colorbar$2$B:
    5703                      .dwpsn  file "../c5535_bsl_revc/ezdsp5535_v1/c55xx_csl/ccs_v4.0_examples/lcd/CSL_LCDC_DiagramExample/
    5704 000dee E604          MOV #0, *SP(#2) ; |1086| 
TMS320C55x Assembler PC v4.4.1 Sat Sep 29 23:09:22 2018

Tools Copyright (c) 1996-2012 Texas Instruments Incorporated
lcdc_panel.asm                                                       PAGE  116

         000df0 00   
    5705                      .dwpsn  file "../c5535_bsl_revc/ezdsp5535_v1/c55xx_csl/ccs_v4.0_examples/lcd/CSL_LCDC_DiagramExample/
    5706 000df1 7600          MOV #128, AR2 ; |1086| 
         000df3 80A8 
    5707 000df5 A904          MOV *SP(#2), AR1 ; |1086| 
    5708 000df7 1298          CMPU AR1 >= AR2, TC1 ; |1086| 
         000df9 A4   
    5709 000dfa 0464          BCC $C$L84,TC1 ; |1086| 
         000dfc 1D   
    5710                                                      ; branchcc occurs ; |1086| 
    5711 000dfd       $C$DW$L$_draw_262K_colorbar$2$E:
    5712 000dfd       $C$L83:    
    5713 000dfd       $C$DW$L$_draw_262K_colorbar$3$B:
    5714                      .dwpsn  file "../c5535_bsl_revc/ezdsp5535_v1/c55xx_csl/ccs_v4.0_examples/lcd/CSL_LCDC_DiagramExample/
    5715 000dfd A500          MOV *SP(#0), T1 ; |1088| 
    5716              $C$DW$542       .dwtag  DW_TAG_TI_branch
    5717                      .dwattr $C$DW$542, DW_AT_low_pc(0x00)
    5718                      .dwattr $C$DW$542, DW_AT_name("_dataWrite")
    5719                      .dwattr $C$DW$542, DW_AT_TI_call
    5720              
    5721 000dff 08F4          CALL #_dataWrite ; |1088| 
         000e01 9C   
    5722 000e02 3D04  ||      MOV #0, T0
    5723              
    5724                                                      ; call occurs [#_dataWrite] ; |1088| 
    5725                      .dwpsn  file "../c5535_bsl_revc/ezdsp5535_v1/c55xx_csl/ccs_v4.0_examples/lcd/CSL_LCDC_DiagramExample/
    5726 000e04 A500          MOV *SP(#0), T1 ; |1089| 
    5727              $C$DW$543       .dwtag  DW_TAG_TI_branch
    5728                      .dwattr $C$DW$543, DW_AT_low_pc(0x00)
    5729                      .dwattr $C$DW$543, DW_AT_name("_dataWrite")
    5730                      .dwattr $C$DW$543, DW_AT_TI_call
    5731 000e06 08F4          CALL #_dataWrite ; |1089| 
         000e08 97   
    5732                                                      ; call occurs [#_dataWrite] ; |1089| 
    5733                      .dwpsn  file "../c5535_bsl_revc/ezdsp5535_v1/c55xx_csl/ccs_v4.0_examples/lcd/CSL_LCDC_DiagramExample/
    5734 000e09 A500          MOV *SP(#0), T1 ; |1090| 
    5735              $C$DW$544       .dwtag  DW_TAG_TI_branch
    5736                      .dwattr $C$DW$544, DW_AT_low_pc(0x00)
    5737                      .dwattr $C$DW$544, DW_AT_name("_dataWrite")
    5738                      .dwattr $C$DW$544, DW_AT_TI_call
    5739 000e0b 08F4          CALL #_dataWrite ; |1090| 
         000e0d 92   
    5740                                                      ; call occurs [#_dataWrite] ; |1090| 
    5741                      .dwpsn  file "../c5535_bsl_revc/ezdsp5535_v1/c55xx_csl/ccs_v4.0_examples/lcd/CSL_LCDC_DiagramExample/
    5742 000e0e F704          ADD #1, *SP(#2) ; |1086| 
         000e10 0001 
    5743                      .dwpsn  file "../c5535_bsl_revc/ezdsp5535_v1/c55xx_csl/ccs_v4.0_examples/lcd/CSL_LCDC_DiagramExample/
    5744 000e12 A904          MOV *SP(#2), AR1 ; |1086| 
    5745 000e14 1294          CMPU AR1 < AR2, TC1 ; |1086| 
         000e16 A4   
    5746 000e17 0464          BCC $C$L83,TC1 ; |1086| 
         000e19 E3   
    5747                                                      ; branchcc occurs ; |1086| 
    5748 000e1a       $C$DW$L$_draw_262K_colorbar$3$E:
    5749 000e1a       $C$L84:    
TMS320C55x Assembler PC v4.4.1 Sat Sep 29 23:09:22 2018

Tools Copyright (c) 1996-2012 Texas Instruments Incorporated
lcdc_panel.asm                                                       PAGE  117

    5750 000e1a       $C$DW$L$_draw_262K_colorbar$4$B:
    5751                      .dwpsn  file "../c5535_bsl_revc/ezdsp5535_v1/c55xx_csl/ccs_v4.0_examples/lcd/CSL_LCDC_DiagramExample/
    5752 000e1a F702          ADD #1, *SP(#1) ; |1084| 
         000e1c 0001 
    5753                      .dwpsn  file "../c5535_bsl_revc/ezdsp5535_v1/c55xx_csl/ccs_v4.0_examples/lcd/CSL_LCDC_DiagramExample/
    5754 000e1e 7600          MOV #32, AR2 ; |1084| 
         000e20 20A8 
    5755 000e22 A902          MOV *SP(#1), AR1 ; |1084| 
    5756 000e24 1294          CMPU AR1 < AR2, TC1 ; |1084| 
         000e26 A4   
    5757 000e27 0464          BCC $C$L82,TC1 ; |1084| 
         000e29 C4   
    5758                                                      ; branchcc occurs ; |1084| 
    5759 000e2a       $C$DW$L$_draw_262K_colorbar$4$E:
    5760 000e2a       $C$L85:    
    5761                      .dwpsn  file "../c5535_bsl_revc/ezdsp5535_v1/c55xx_csl/ccs_v4.0_examples/lcd/CSL_LCDC_DiagramExample/
    5762 000e2a A500          MOV *SP(#0), T1 ; |1095| 
    5763 000e2c 7600          MOV #21, T0 ; |1095| 
         000e2e 1548 
    5764              $C$DW$545       .dwtag  DW_TAG_TI_branch
    5765                      .dwattr $C$DW$545, DW_AT_low_pc(0x00)
    5766                      .dwattr $C$DW$545, DW_AT_name("_cmdWrite")
    5767                      .dwattr $C$DW$545, DW_AT_TI_call
    5768 000e30 08F4          CALL #_cmdWrite ; |1095| 
         000e32 55   
    5769                                                      ; call occurs [#_cmdWrite] ; |1095| 
    5770                      .dwpsn  file "../c5535_bsl_revc/ezdsp5535_v1/c55xx_csl/ccs_v4.0_examples/lcd/CSL_LCDC_DiagramExample/
    5771 000e33 7600          MOV #16, T0 ; |1096| 
         000e35 1048 
    5772 000e37 A500          MOV *SP(#0), T1 ; |1096| 
    5773              $C$DW$546       .dwtag  DW_TAG_TI_branch
    5774                      .dwattr $C$DW$546, DW_AT_low_pc(0x00)
    5775                      .dwattr $C$DW$546, DW_AT_name("_dataWrite")
    5776                      .dwattr $C$DW$546, DW_AT_TI_call
    5777 000e39 08F4          CALL #_dataWrite ; |1096| 
         000e3b 64   
    5778                                                      ; call occurs [#_dataWrite] ; |1096| 
    5779                      .dwpsn  file "../c5535_bsl_revc/ezdsp5535_v1/c55xx_csl/ccs_v4.0_examples/lcd/CSL_LCDC_DiagramExample/
    5780 000e3c 7600          MOV #31, T0 ; |1097| 
         000e3e 1F48 
    5781 000e40 A500          MOV *SP(#0), T1 ; |1097| 
    5782              $C$DW$547       .dwtag  DW_TAG_TI_branch
    5783                      .dwattr $C$DW$547, DW_AT_low_pc(0x00)
    5784                      .dwattr $C$DW$547, DW_AT_name("_dataWrite")
    5785                      .dwattr $C$DW$547, DW_AT_TI_call
    5786 000e42 08F4          CALL #_dataWrite ; |1097| 
         000e44 5B   
    5787                                                      ; call occurs [#_dataWrite] ; |1097| 
    5788                      .dwpsn  file "../c5535_bsl_revc/ezdsp5535_v1/c55xx_csl/ccs_v4.0_examples/lcd/CSL_LCDC_DiagramExample/
    5789              $C$DW$548       .dwtag  DW_TAG_TI_branch
    5790                      .dwattr $C$DW$548, DW_AT_low_pc(0x00)
    5791                      .dwattr $C$DW$548, DW_AT_name("_wait")
    5792                      .dwattr $C$DW$548, DW_AT_TI_call
    5793              
    5794 000e45 08F2          CALL #_wait ; |1098| 
TMS320C55x Assembler PC v4.4.1 Sat Sep 29 23:09:22 2018

Tools Copyright (c) 1996-2012 Texas Instruments Incorporated
lcdc_panel.asm                                                       PAGE  118

         000e47 8E   
    5795 000e48 3DA0  ||      MOV #10, AC0 ; |1098| 
    5796              
    5797                                                      ; call occurs [#_wait] ; |1098| 
    5798                      .dwpsn  file "../c5535_bsl_revc/ezdsp5535_v1/c55xx_csl/ccs_v4.0_examples/lcd/CSL_LCDC_DiagramExample/
    5799 000e4a 7600          MOV #117, T0 ; |1099| 
         000e4c 7548 
    5800 000e4e A500          MOV *SP(#0), T1 ; |1099| 
    5801              $C$DW$549       .dwtag  DW_TAG_TI_branch
    5802                      .dwattr $C$DW$549, DW_AT_low_pc(0x00)
    5803                      .dwattr $C$DW$549, DW_AT_name("_cmdWrite")
    5804                      .dwattr $C$DW$549, DW_AT_TI_call
    5805 000e50 08F4          CALL #_cmdWrite ; |1099| 
         000e52 35   
    5806                                                      ; call occurs [#_cmdWrite] ; |1099| 
    5807                      .dwpsn  file "../c5535_bsl_revc/ezdsp5535_v1/c55xx_csl/ccs_v4.0_examples/lcd/CSL_LCDC_DiagramExample/
    5808 000e53 A500          MOV *SP(#0), T1 ; |1100| 
    5809              $C$DW$550       .dwtag  DW_TAG_TI_branch
    5810                      .dwattr $C$DW$550, DW_AT_low_pc(0x00)
    5811                      .dwattr $C$DW$550, DW_AT_name("_dataWrite")
    5812                      .dwattr $C$DW$550, DW_AT_TI_call
    5813              
    5814 000e55 08F4          CALL #_dataWrite ; |1100| 
         000e57 46   
    5815 000e58 3D04  ||      MOV #0, T0
    5816              
    5817                                                      ; call occurs [#_dataWrite] ; |1100| 
    5818                      .dwpsn  file "../c5535_bsl_revc/ezdsp5535_v1/c55xx_csl/ccs_v4.0_examples/lcd/CSL_LCDC_DiagramExample/
    5819 000e5a 7600          MOV #127, T0 ; |1101| 
         000e5c 7F48 
    5820 000e5e A500          MOV *SP(#0), T1 ; |1101| 
    5821              $C$DW$551       .dwtag  DW_TAG_TI_branch
    5822                      .dwattr $C$DW$551, DW_AT_low_pc(0x00)
    5823                      .dwattr $C$DW$551, DW_AT_name("_dataWrite")
    5824                      .dwattr $C$DW$551, DW_AT_TI_call
    5825 000e60 08F4          CALL #_dataWrite ; |1101| 
         000e62 3D   
    5826                                                      ; call occurs [#_dataWrite] ; |1101| 
    5827                      .dwpsn  file "../c5535_bsl_revc/ezdsp5535_v1/c55xx_csl/ccs_v4.0_examples/lcd/CSL_LCDC_DiagramExample/
    5828              $C$DW$552       .dwtag  DW_TAG_TI_branch
    5829                      .dwattr $C$DW$552, DW_AT_low_pc(0x00)
    5830                      .dwattr $C$DW$552, DW_AT_name("_wait")
    5831                      .dwattr $C$DW$552, DW_AT_TI_call
    5832              
    5833 000e63 08F2          CALL #_wait ; |1102| 
         000e65 70   
    5834 000e66 3DA0  ||      MOV #10, AC0 ; |1102| 
    5835              
    5836                                                      ; call occurs [#_wait] ; |1102| 
    5837                      .dwpsn  file "../c5535_bsl_revc/ezdsp5535_v1/c55xx_csl/ccs_v4.0_examples/lcd/CSL_LCDC_DiagramExample/
    5838 000e68 7600          MOV #92, T0 ; |1103| 
         000e6a 5C48 
    5839 000e6c A500          MOV *SP(#0), T1 ; |1103| 
    5840              $C$DW$553       .dwtag  DW_TAG_TI_branch
    5841                      .dwattr $C$DW$553, DW_AT_low_pc(0x00)
TMS320C55x Assembler PC v4.4.1 Sat Sep 29 23:09:22 2018

Tools Copyright (c) 1996-2012 Texas Instruments Incorporated
lcdc_panel.asm                                                       PAGE  119

    5842                      .dwattr $C$DW$553, DW_AT_name("_cmdWrite")
    5843                      .dwattr $C$DW$553, DW_AT_TI_call
    5844 000e6e 08F4          CALL #_cmdWrite ; |1103| 
         000e70 17   
    5845                                                      ; call occurs [#_cmdWrite] ; |1103| 
    5846                      .dwpsn  file "../c5535_bsl_revc/ezdsp5535_v1/c55xx_csl/ccs_v4.0_examples/lcd/CSL_LCDC_DiagramExample/
    5847 000e71 E602          MOV #0, *SP(#1) ; |1105| 
         000e73 00   
    5848                      .dwpsn  file "../c5535_bsl_revc/ezdsp5535_v1/c55xx_csl/ccs_v4.0_examples/lcd/CSL_LCDC_DiagramExample/
    5849 000e74 7600          MOV #32, AR2 ; |1105| 
         000e76 20A8 
    5850 000e78 A902          MOV *SP(#1), AR1 ; |1105| 
    5851 000e7a 1298          CMPU AR1 >= AR2, TC1 ; |1105| 
         000e7c A4   
    5852 000e7d 0464          BCC $C$L89,TC1 ; |1105| 
         000e7f 42   
    5853                                                      ; branchcc occurs ; |1105| 
    5854 000e80       $C$L86:    
    5855 000e80       $C$DW$L$_draw_262K_colorbar$6$B:
    5856                      .dwpsn  file "../c5535_bsl_revc/ezdsp5535_v1/c55xx_csl/ccs_v4.0_examples/lcd/CSL_LCDC_DiagramExample/
    5857 000e80 E604          MOV #0, *SP(#2) ; |1107| 
         000e82 00   
    5858                      .dwpsn  file "../c5535_bsl_revc/ezdsp5535_v1/c55xx_csl/ccs_v4.0_examples/lcd/CSL_LCDC_DiagramExample/
    5859 000e83 7600          MOV #128, AR2 ; |1107| 
         000e85 80A8 
    5860 000e87 A904          MOV *SP(#2), AR1 ; |1107| 
    5861 000e89 1298          CMPU AR1 >= AR2, TC1 ; |1107| 
         000e8b A4   
    5862 000e8c 0464          BCC $C$L88,TC1 ; |1107| 
         000e8e 23   
    5863                                                      ; branchcc occurs ; |1107| 
    5864 000e8f       $C$DW$L$_draw_262K_colorbar$6$E:
    5865 000e8f       $C$L87:    
    5866 000e8f       $C$DW$L$_draw_262K_colorbar$7$B:
    5867                      .dwpsn  file "../c5535_bsl_revc/ezdsp5535_v1/c55xx_csl/ccs_v4.0_examples/lcd/CSL_LCDC_DiagramExample/
    5868 000e8f A500          MOV *SP(#0), T1 ; |1109| 
    5869              $C$DW$554       .dwtag  DW_TAG_TI_branch
    5870                      .dwattr $C$DW$554, DW_AT_low_pc(0x00)
    5871                      .dwattr $C$DW$554, DW_AT_name("_dataWrite")
    5872                      .dwattr $C$DW$554, DW_AT_TI_call
    5873              
    5874 000e91 08F4          CALL #_dataWrite ; |1109| 
         000e93 0A   
    5875 000e94 3D04  ||      MOV #0, T0
    5876              
    5877                                                      ; call occurs [#_dataWrite] ; |1109| 
    5878                      .dwpsn  file "../c5535_bsl_revc/ezdsp5535_v1/c55xx_csl/ccs_v4.0_examples/lcd/CSL_LCDC_DiagramExample/
    5879 000e96 A500          MOV *SP(#0), T1 ; |1110| 
    5880              $C$DW$555       .dwtag  DW_TAG_TI_branch
    5881                      .dwattr $C$DW$555, DW_AT_low_pc(0x00)
    5882                      .dwattr $C$DW$555, DW_AT_name("_dataWrite")
    5883                      .dwattr $C$DW$555, DW_AT_TI_call
    5884 000e98 08F4          CALL #_dataWrite ; |1110| 
         000e9a 05   
    5885                                                      ; call occurs [#_dataWrite] ; |1110| 
TMS320C55x Assembler PC v4.4.1 Sat Sep 29 23:09:22 2018

Tools Copyright (c) 1996-2012 Texas Instruments Incorporated
lcdc_panel.asm                                                       PAGE  120

    5886                      .dwpsn  file "../c5535_bsl_revc/ezdsp5535_v1/c55xx_csl/ccs_v4.0_examples/lcd/CSL_LCDC_DiagramExample/
    5887 000e9b A004          MOV *SP(#2), AC0 ; |1111| 
    5888 000e9d A500          MOV *SP(#0), T1 ; |1111| 
    5889 000e9f 76FF          BFXTR #0xfffe, AC0, T0 ; |1111| 
         000ea1 FE40 
    5890              $C$DW$556       .dwtag  DW_TAG_TI_branch
    5891                      .dwattr $C$DW$556, DW_AT_low_pc(0x00)
    5892                      .dwattr $C$DW$556, DW_AT_name("_dataWrite")
    5893                      .dwattr $C$DW$556, DW_AT_TI_call
    5894 000ea3 08F3          CALL #_dataWrite ; |1111| 
         000ea5 FA   
    5895                                                      ; call occurs [#_dataWrite] ; |1111| 
    5896                      .dwpsn  file "../c5535_bsl_revc/ezdsp5535_v1/c55xx_csl/ccs_v4.0_examples/lcd/CSL_LCDC_DiagramExample/
    5897 000ea6 F704          ADD #1, *SP(#2) ; |1107| 
         000ea8 0001 
    5898                      .dwpsn  file "../c5535_bsl_revc/ezdsp5535_v1/c55xx_csl/ccs_v4.0_examples/lcd/CSL_LCDC_DiagramExample/
    5899 000eaa A904          MOV *SP(#2), AR1 ; |1107| 
    5900 000eac 1294          CMPU AR1 < AR2, TC1 ; |1107| 
         000eae A4   
    5901 000eaf 0464          BCC $C$L87,TC1 ; |1107| 
         000eb1 DD   
    5902                                                      ; branchcc occurs ; |1107| 
    5903 000eb2       $C$DW$L$_draw_262K_colorbar$7$E:
    5904 000eb2       $C$L88:    
    5905 000eb2       $C$DW$L$_draw_262K_colorbar$8$B:
    5906                      .dwpsn  file "../c5535_bsl_revc/ezdsp5535_v1/c55xx_csl/ccs_v4.0_examples/lcd/CSL_LCDC_DiagramExample/
    5907 000eb2 F702          ADD #1, *SP(#1) ; |1105| 
         000eb4 0001 
    5908                      .dwpsn  file "../c5535_bsl_revc/ezdsp5535_v1/c55xx_csl/ccs_v4.0_examples/lcd/CSL_LCDC_DiagramExample/
    5909 000eb6 7600          MOV #32, AR2 ; |1105| 
         000eb8 20A8 
    5910 000eba A902          MOV *SP(#1), AR1 ; |1105| 
    5911 000ebc 1294          CMPU AR1 < AR2, TC1 ; |1105| 
         000ebe A4   
    5912 000ebf 0464          BCC $C$L86,TC1 ; |1105| 
         000ec1 BE   
    5913                                                      ; branchcc occurs ; |1105| 
    5914 000ec2       $C$DW$L$_draw_262K_colorbar$8$E:
    5915 000ec2       $C$L89:    
    5916                      .dwpsn  file "../c5535_bsl_revc/ezdsp5535_v1/c55xx_csl/ccs_v4.0_examples/lcd/CSL_LCDC_DiagramExample/
    5917 000ec2 A500          MOV *SP(#0), T1 ; |1116| 
    5918 000ec4 7600          MOV #21, T0 ; |1116| 
         000ec6 1548 
    5919              $C$DW$557       .dwtag  DW_TAG_TI_branch
    5920                      .dwattr $C$DW$557, DW_AT_low_pc(0x00)
    5921                      .dwattr $C$DW$557, DW_AT_name("_cmdWrite")
    5922                      .dwattr $C$DW$557, DW_AT_TI_call
    5923 000ec8 08F3          CALL #_cmdWrite ; |1116| 
         000eca BD   
    5924                                                      ; call occurs [#_cmdWrite] ; |1116| 
    5925                      .dwpsn  file "../c5535_bsl_revc/ezdsp5535_v1/c55xx_csl/ccs_v4.0_examples/lcd/CSL_LCDC_DiagramExample/
    5926 000ecb 7600          MOV #32, T0 ; |1117| 
         000ecd 2048 
    5927 000ecf A500          MOV *SP(#0), T1 ; |1117| 
    5928              $C$DW$558       .dwtag  DW_TAG_TI_branch
TMS320C55x Assembler PC v4.4.1 Sat Sep 29 23:09:22 2018

Tools Copyright (c) 1996-2012 Texas Instruments Incorporated
lcdc_panel.asm                                                       PAGE  121

    5929                      .dwattr $C$DW$558, DW_AT_low_pc(0x00)
    5930                      .dwattr $C$DW$558, DW_AT_name("_dataWrite")
    5931                      .dwattr $C$DW$558, DW_AT_TI_call
    5932 000ed1 08F3          CALL #_dataWrite ; |1117| 
         000ed3 CC   
    5933                                                      ; call occurs [#_dataWrite] ; |1117| 
    5934                      .dwpsn  file "../c5535_bsl_revc/ezdsp5535_v1/c55xx_csl/ccs_v4.0_examples/lcd/CSL_LCDC_DiagramExample/
    5935 000ed4 7600          MOV #47, T0 ; |1118| 
         000ed6 2F48 
    5936 000ed8 A500          MOV *SP(#0), T1 ; |1118| 
    5937              $C$DW$559       .dwtag  DW_TAG_TI_branch
    5938                      .dwattr $C$DW$559, DW_AT_low_pc(0x00)
    5939                      .dwattr $C$DW$559, DW_AT_name("_dataWrite")
    5940                      .dwattr $C$DW$559, DW_AT_TI_call
    5941 000eda 08F3          CALL #_dataWrite ; |1118| 
         000edc C3   
    5942                                                      ; call occurs [#_dataWrite] ; |1118| 
    5943                      .dwpsn  file "../c5535_bsl_revc/ezdsp5535_v1/c55xx_csl/ccs_v4.0_examples/lcd/CSL_LCDC_DiagramExample/
    5944              $C$DW$560       .dwtag  DW_TAG_TI_branch
    5945                      .dwattr $C$DW$560, DW_AT_low_pc(0x00)
    5946                      .dwattr $C$DW$560, DW_AT_name("_wait")
    5947                      .dwattr $C$DW$560, DW_AT_TI_call
    5948              
    5949 000edd 08F1          CALL #_wait ; |1119| 
         000edf F6   
    5950 000ee0 3DA0  ||      MOV #10, AC0 ; |1119| 
    5951              
    5952                                                      ; call occurs [#_wait] ; |1119| 
    5953                      .dwpsn  file "../c5535_bsl_revc/ezdsp5535_v1/c55xx_csl/ccs_v4.0_examples/lcd/CSL_LCDC_DiagramExample/
    5954 000ee2 7600          MOV #117, T0 ; |1120| 
         000ee4 7548 
    5955 000ee6 A500          MOV *SP(#0), T1 ; |1120| 
    5956              $C$DW$561       .dwtag  DW_TAG_TI_branch
    5957                      .dwattr $C$DW$561, DW_AT_low_pc(0x00)
    5958                      .dwattr $C$DW$561, DW_AT_name("_cmdWrite")
    5959                      .dwattr $C$DW$561, DW_AT_TI_call
    5960 000ee8 08F3          CALL #_cmdWrite ; |1120| 
         000eea 9D   
    5961                                                      ; call occurs [#_cmdWrite] ; |1120| 
    5962                      .dwpsn  file "../c5535_bsl_revc/ezdsp5535_v1/c55xx_csl/ccs_v4.0_examples/lcd/CSL_LCDC_DiagramExample/
    5963 000eeb A500          MOV *SP(#0), T1 ; |1121| 
    5964              $C$DW$562       .dwtag  DW_TAG_TI_branch
    5965                      .dwattr $C$DW$562, DW_AT_low_pc(0x00)
    5966                      .dwattr $C$DW$562, DW_AT_name("_dataWrite")
    5967                      .dwattr $C$DW$562, DW_AT_TI_call
    5968              
    5969 000eed 08F3          CALL #_dataWrite ; |1121| 
         000eef AE   
    5970 000ef0 3D04  ||      MOV #0, T0
    5971              
    5972                                                      ; call occurs [#_dataWrite] ; |1121| 
    5973                      .dwpsn  file "../c5535_bsl_revc/ezdsp5535_v1/c55xx_csl/ccs_v4.0_examples/lcd/CSL_LCDC_DiagramExample/
    5974 000ef2 7600          MOV #127, T0 ; |1122| 
         000ef4 7F48 
    5975 000ef6 A500          MOV *SP(#0), T1 ; |1122| 
TMS320C55x Assembler PC v4.4.1 Sat Sep 29 23:09:22 2018

Tools Copyright (c) 1996-2012 Texas Instruments Incorporated
lcdc_panel.asm                                                       PAGE  122

    5976              $C$DW$563       .dwtag  DW_TAG_TI_branch
    5977                      .dwattr $C$DW$563, DW_AT_low_pc(0x00)
    5978                      .dwattr $C$DW$563, DW_AT_name("_dataWrite")
    5979                      .dwattr $C$DW$563, DW_AT_TI_call
    5980 000ef8 08F3          CALL #_dataWrite ; |1122| 
         000efa A5   
    5981                                                      ; call occurs [#_dataWrite] ; |1122| 
    5982                      .dwpsn  file "../c5535_bsl_revc/ezdsp5535_v1/c55xx_csl/ccs_v4.0_examples/lcd/CSL_LCDC_DiagramExample/
    5983              $C$DW$564       .dwtag  DW_TAG_TI_branch
    5984                      .dwattr $C$DW$564, DW_AT_low_pc(0x00)
    5985                      .dwattr $C$DW$564, DW_AT_name("_wait")
    5986                      .dwattr $C$DW$564, DW_AT_TI_call
    5987              
    5988 000efb 08F1          CALL #_wait ; |1123| 
         000efd D8   
    5989 000efe 3DA0  ||      MOV #10, AC0 ; |1123| 
    5990              
    5991                                                      ; call occurs [#_wait] ; |1123| 
    5992                      .dwpsn  file "../c5535_bsl_revc/ezdsp5535_v1/c55xx_csl/ccs_v4.0_examples/lcd/CSL_LCDC_DiagramExample/
    5993 000f00 7600          MOV #92, T0 ; |1124| 
         000f02 5C48 
    5994 000f04 A500          MOV *SP(#0), T1 ; |1124| 
    5995              $C$DW$565       .dwtag  DW_TAG_TI_branch
    5996                      .dwattr $C$DW$565, DW_AT_low_pc(0x00)
    5997                      .dwattr $C$DW$565, DW_AT_name("_cmdWrite")
    5998                      .dwattr $C$DW$565, DW_AT_TI_call
    5999 000f06 08F3          CALL #_cmdWrite ; |1124| 
         000f08 7F   
    6000                                                      ; call occurs [#_cmdWrite] ; |1124| 
    6001                      .dwpsn  file "../c5535_bsl_revc/ezdsp5535_v1/c55xx_csl/ccs_v4.0_examples/lcd/CSL_LCDC_DiagramExample/
    6002 000f09 E602          MOV #0, *SP(#1) ; |1126| 
         000f0b 00   
    6003                      .dwpsn  file "../c5535_bsl_revc/ezdsp5535_v1/c55xx_csl/ccs_v4.0_examples/lcd/CSL_LCDC_DiagramExample/
    6004 000f0c 7600          MOV #32, AR2 ; |1126| 
         000f0e 20A8 
    6005 000f10 A902          MOV *SP(#1), AR1 ; |1126| 
    6006 000f12 1298          CMPU AR1 >= AR2, TC1 ; |1126| 
         000f14 A4   
    6007 000f15 0464          BCC $C$L93,TC1 ; |1126| 
         000f17 42   
    6008                                                      ; branchcc occurs ; |1126| 
    6009 000f18       $C$L90:    
    6010 000f18       $C$DW$L$_draw_262K_colorbar$10$B:
    6011                      .dwpsn  file "../c5535_bsl_revc/ezdsp5535_v1/c55xx_csl/ccs_v4.0_examples/lcd/CSL_LCDC_DiagramExample/
    6012 000f18 E604          MOV #0, *SP(#2) ; |1128| 
         000f1a 00   
    6013                      .dwpsn  file "../c5535_bsl_revc/ezdsp5535_v1/c55xx_csl/ccs_v4.0_examples/lcd/CSL_LCDC_DiagramExample/
    6014 000f1b 7600          MOV #128, AR2 ; |1128| 
         000f1d 80A8 
    6015 000f1f A904          MOV *SP(#2), AR1 ; |1128| 
    6016 000f21 1298          CMPU AR1 >= AR2, TC1 ; |1128| 
         000f23 A4   
    6017 000f24 0464          BCC $C$L92,TC1 ; |1128| 
         000f26 23   
    6018                                                      ; branchcc occurs ; |1128| 
TMS320C55x Assembler PC v4.4.1 Sat Sep 29 23:09:22 2018

Tools Copyright (c) 1996-2012 Texas Instruments Incorporated
lcdc_panel.asm                                                       PAGE  123

    6019 000f27       $C$DW$L$_draw_262K_colorbar$10$E:
    6020 000f27       $C$L91:    
    6021 000f27       $C$DW$L$_draw_262K_colorbar$11$B:
    6022                      .dwpsn  file "../c5535_bsl_revc/ezdsp5535_v1/c55xx_csl/ccs_v4.0_examples/lcd/CSL_LCDC_DiagramExample/
    6023              
    6024 000f27 A500          MOV *SP(#0), T1 ; |1130| 
    6025 000f29 2390  ||      MOV AR1, AC0
    6026              
    6027 000f2b 76FF          BFXTR #0xfffe, AC0, T0 ; |1130| 
         000f2d FE40 
    6028              $C$DW$566       .dwtag  DW_TAG_TI_branch
    6029                      .dwattr $C$DW$566, DW_AT_low_pc(0x00)
    6030                      .dwattr $C$DW$566, DW_AT_name("_dataWrite")
    6031                      .dwattr $C$DW$566, DW_AT_TI_call
    6032 000f2f 08F3          CALL #_dataWrite ; |1130| 
         000f31 6E   
    6033                                                      ; call occurs [#_dataWrite] ; |1130| 
    6034                      .dwpsn  file "../c5535_bsl_revc/ezdsp5535_v1/c55xx_csl/ccs_v4.0_examples/lcd/CSL_LCDC_DiagramExample/
    6035 000f32 A500          MOV *SP(#0), T1 ; |1131| 
    6036              $C$DW$567       .dwtag  DW_TAG_TI_branch
    6037                      .dwattr $C$DW$567, DW_AT_low_pc(0x00)
    6038                      .dwattr $C$DW$567, DW_AT_name("_dataWrite")
    6039                      .dwattr $C$DW$567, DW_AT_TI_call
    6040              
    6041 000f34 08F3          CALL #_dataWrite ; |1131| 
         000f36 67   
    6042 000f37 3D04  ||      MOV #0, T0
    6043              
    6044                                                      ; call occurs [#_dataWrite] ; |1131| 
    6045                      .dwpsn  file "../c5535_bsl_revc/ezdsp5535_v1/c55xx_csl/ccs_v4.0_examples/lcd/CSL_LCDC_DiagramExample/
    6046 000f39 A500          MOV *SP(#0), T1 ; |1132| 
    6047              $C$DW$568       .dwtag  DW_TAG_TI_branch
    6048                      .dwattr $C$DW$568, DW_AT_low_pc(0x00)
    6049                      .dwattr $C$DW$568, DW_AT_name("_dataWrite")
    6050                      .dwattr $C$DW$568, DW_AT_TI_call
    6051 000f3b 08F3          CALL #_dataWrite ; |1132| 
         000f3d 62   
    6052                                                      ; call occurs [#_dataWrite] ; |1132| 
    6053                      .dwpsn  file "../c5535_bsl_revc/ezdsp5535_v1/c55xx_csl/ccs_v4.0_examples/lcd/CSL_LCDC_DiagramExample/
    6054 000f3e F704          ADD #1, *SP(#2) ; |1128| 
         000f40 0001 
    6055                      .dwpsn  file "../c5535_bsl_revc/ezdsp5535_v1/c55xx_csl/ccs_v4.0_examples/lcd/CSL_LCDC_DiagramExample/
    6056 000f42 A904          MOV *SP(#2), AR1 ; |1128| 
    6057 000f44 1294          CMPU AR1 < AR2, TC1 ; |1128| 
         000f46 A4   
    6058 000f47 0464          BCC $C$L91,TC1 ; |1128| 
         000f49 DD   
    6059                                                      ; branchcc occurs ; |1128| 
    6060 000f4a       $C$DW$L$_draw_262K_colorbar$11$E:
    6061 000f4a       $C$L92:    
    6062 000f4a       $C$DW$L$_draw_262K_colorbar$12$B:
    6063                      .dwpsn  file "../c5535_bsl_revc/ezdsp5535_v1/c55xx_csl/ccs_v4.0_examples/lcd/CSL_LCDC_DiagramExample/
    6064 000f4a F702          ADD #1, *SP(#1) ; |1126| 
         000f4c 0001 
    6065                      .dwpsn  file "../c5535_bsl_revc/ezdsp5535_v1/c55xx_csl/ccs_v4.0_examples/lcd/CSL_LCDC_DiagramExample/
TMS320C55x Assembler PC v4.4.1 Sat Sep 29 23:09:22 2018

Tools Copyright (c) 1996-2012 Texas Instruments Incorporated
lcdc_panel.asm                                                       PAGE  124

    6066 000f4e 7600          MOV #32, AR2 ; |1126| 
         000f50 20A8 
    6067 000f52 A902          MOV *SP(#1), AR1 ; |1126| 
    6068 000f54 1294          CMPU AR1 < AR2, TC1 ; |1126| 
         000f56 A4   
    6069 000f57 0464          BCC $C$L90,TC1 ; |1126| 
         000f59 BE   
    6070                                                      ; branchcc occurs ; |1126| 
    6071 000f5a       $C$DW$L$_draw_262K_colorbar$12$E:
    6072 000f5a       $C$L93:    
    6073                      .dwpsn  file "../c5535_bsl_revc/ezdsp5535_v1/c55xx_csl/ccs_v4.0_examples/lcd/CSL_LCDC_DiagramExample/
    6074 000f5a A500          MOV *SP(#0), T1 ; |1137| 
    6075 000f5c 7600          MOV #21, T0 ; |1137| 
         000f5e 1548 
    6076              $C$DW$569       .dwtag  DW_TAG_TI_branch
    6077                      .dwattr $C$DW$569, DW_AT_low_pc(0x00)
    6078                      .dwattr $C$DW$569, DW_AT_name("_cmdWrite")
    6079                      .dwattr $C$DW$569, DW_AT_TI_call
    6080 000f60 08F3          CALL #_cmdWrite ; |1137| 
         000f62 25   
    6081                                                      ; call occurs [#_cmdWrite] ; |1137| 
    6082                      .dwpsn  file "../c5535_bsl_revc/ezdsp5535_v1/c55xx_csl/ccs_v4.0_examples/lcd/CSL_LCDC_DiagramExample/
    6083 000f63 7600          MOV #48, T0 ; |1138| 
         000f65 3048 
    6084 000f67 A500          MOV *SP(#0), T1 ; |1138| 
    6085              $C$DW$570       .dwtag  DW_TAG_TI_branch
    6086                      .dwattr $C$DW$570, DW_AT_low_pc(0x00)
    6087                      .dwattr $C$DW$570, DW_AT_name("_dataWrite")
    6088                      .dwattr $C$DW$570, DW_AT_TI_call
    6089 000f69 08F3          CALL #_dataWrite ; |1138| 
         000f6b 34   
    6090                                                      ; call occurs [#_dataWrite] ; |1138| 
    6091                      .dwpsn  file "../c5535_bsl_revc/ezdsp5535_v1/c55xx_csl/ccs_v4.0_examples/lcd/CSL_LCDC_DiagramExample/
    6092 000f6c 7600          MOV #63, T0 ; |1139| 
         000f6e 3F48 
    6093 000f70 A500          MOV *SP(#0), T1 ; |1139| 
    6094              $C$DW$571       .dwtag  DW_TAG_TI_branch
    6095                      .dwattr $C$DW$571, DW_AT_low_pc(0x00)
    6096                      .dwattr $C$DW$571, DW_AT_name("_dataWrite")
    6097                      .dwattr $C$DW$571, DW_AT_TI_call
    6098 000f72 08F3          CALL #_dataWrite ; |1139| 
         000f74 2B   
    6099                                                      ; call occurs [#_dataWrite] ; |1139| 
    6100                      .dwpsn  file "../c5535_bsl_revc/ezdsp5535_v1/c55xx_csl/ccs_v4.0_examples/lcd/CSL_LCDC_DiagramExample/
    6101              $C$DW$572       .dwtag  DW_TAG_TI_branch
    6102                      .dwattr $C$DW$572, DW_AT_low_pc(0x00)
    6103                      .dwattr $C$DW$572, DW_AT_name("_wait")
    6104                      .dwattr $C$DW$572, DW_AT_TI_call
    6105              
    6106 000f75 08F1          CALL #_wait ; |1140| 
         000f77 5E   
    6107 000f78 3DA0  ||      MOV #10, AC0 ; |1140| 
    6108              
    6109                                                      ; call occurs [#_wait] ; |1140| 
    6110                      .dwpsn  file "../c5535_bsl_revc/ezdsp5535_v1/c55xx_csl/ccs_v4.0_examples/lcd/CSL_LCDC_DiagramExample/
TMS320C55x Assembler PC v4.4.1 Sat Sep 29 23:09:22 2018

Tools Copyright (c) 1996-2012 Texas Instruments Incorporated
lcdc_panel.asm                                                       PAGE  125

    6111 000f7a 7600          MOV #117, T0 ; |1141| 
         000f7c 7548 
    6112 000f7e A500          MOV *SP(#0), T1 ; |1141| 
    6113              $C$DW$573       .dwtag  DW_TAG_TI_branch
    6114                      .dwattr $C$DW$573, DW_AT_low_pc(0x00)
    6115                      .dwattr $C$DW$573, DW_AT_name("_cmdWrite")
    6116                      .dwattr $C$DW$573, DW_AT_TI_call
    6117 000f80 08F3          CALL #_cmdWrite ; |1141| 
         000f82 05   
    6118                                                      ; call occurs [#_cmdWrite] ; |1141| 
    6119                      .dwpsn  file "../c5535_bsl_revc/ezdsp5535_v1/c55xx_csl/ccs_v4.0_examples/lcd/CSL_LCDC_DiagramExample/
    6120 000f83 A500          MOV *SP(#0), T1 ; |1142| 
    6121              $C$DW$574       .dwtag  DW_TAG_TI_branch
    6122                      .dwattr $C$DW$574, DW_AT_low_pc(0x00)
    6123                      .dwattr $C$DW$574, DW_AT_name("_dataWrite")
    6124                      .dwattr $C$DW$574, DW_AT_TI_call
    6125              
    6126 000f85 08F3          CALL #_dataWrite ; |1142| 
         000f87 16   
    6127 000f88 3D04  ||      MOV #0, T0
    6128              
    6129                                                      ; call occurs [#_dataWrite] ; |1142| 
    6130                      .dwpsn  file "../c5535_bsl_revc/ezdsp5535_v1/c55xx_csl/ccs_v4.0_examples/lcd/CSL_LCDC_DiagramExample/
    6131 000f8a 7600          MOV #127, T0 ; |1143| 
         000f8c 7F48 
    6132 000f8e A500          MOV *SP(#0), T1 ; |1143| 
    6133              $C$DW$575       .dwtag  DW_TAG_TI_branch
    6134                      .dwattr $C$DW$575, DW_AT_low_pc(0x00)
    6135                      .dwattr $C$DW$575, DW_AT_name("_dataWrite")
    6136                      .dwattr $C$DW$575, DW_AT_TI_call
    6137 000f90 08F3          CALL #_dataWrite ; |1143| 
         000f92 0D   
    6138                                                      ; call occurs [#_dataWrite] ; |1143| 
    6139                      .dwpsn  file "../c5535_bsl_revc/ezdsp5535_v1/c55xx_csl/ccs_v4.0_examples/lcd/CSL_LCDC_DiagramExample/
    6140              $C$DW$576       .dwtag  DW_TAG_TI_branch
    6141                      .dwattr $C$DW$576, DW_AT_low_pc(0x00)
    6142                      .dwattr $C$DW$576, DW_AT_name("_wait")
    6143                      .dwattr $C$DW$576, DW_AT_TI_call
    6144              
    6145 000f93 08F1          CALL #_wait ; |1144| 
         000f95 40   
    6146 000f96 3DA0  ||      MOV #10, AC0 ; |1144| 
    6147              
    6148                                                      ; call occurs [#_wait] ; |1144| 
    6149                      .dwpsn  file "../c5535_bsl_revc/ezdsp5535_v1/c55xx_csl/ccs_v4.0_examples/lcd/CSL_LCDC_DiagramExample/
    6150 000f98 7600          MOV #92, T0 ; |1145| 
         000f9a 5C48 
    6151 000f9c A500          MOV *SP(#0), T1 ; |1145| 
    6152              $C$DW$577       .dwtag  DW_TAG_TI_branch
    6153                      .dwattr $C$DW$577, DW_AT_low_pc(0x00)
    6154                      .dwattr $C$DW$577, DW_AT_name("_cmdWrite")
    6155                      .dwattr $C$DW$577, DW_AT_TI_call
    6156 000f9e 08F2          CALL #_cmdWrite ; |1145| 
         000fa0 E7   
    6157                                                      ; call occurs [#_cmdWrite] ; |1145| 
TMS320C55x Assembler PC v4.4.1 Sat Sep 29 23:09:22 2018

Tools Copyright (c) 1996-2012 Texas Instruments Incorporated
lcdc_panel.asm                                                       PAGE  126

    6158                      .dwpsn  file "../c5535_bsl_revc/ezdsp5535_v1/c55xx_csl/ccs_v4.0_examples/lcd/CSL_LCDC_DiagramExample/
    6159 000fa1 E602          MOV #0, *SP(#1) ; |1147| 
         000fa3 00   
    6160                      .dwpsn  file "../c5535_bsl_revc/ezdsp5535_v1/c55xx_csl/ccs_v4.0_examples/lcd/CSL_LCDC_DiagramExample/
    6161 000fa4 7600          MOV #32, AR2 ; |1147| 
         000fa6 20A8 
    6162 000fa8 A902          MOV *SP(#1), AR1 ; |1147| 
    6163 000faa 1298          CMPU AR1 >= AR2, TC1 ; |1147| 
         000fac A4   
    6164 000fad 0464          BCC $C$L97,TC1 ; |1147| 
         000faf 48   
    6165                                                      ; branchcc occurs ; |1147| 
    6166 000fb0       $C$L94:    
    6167 000fb0       $C$DW$L$_draw_262K_colorbar$14$B:
    6168                      .dwpsn  file "../c5535_bsl_revc/ezdsp5535_v1/c55xx_csl/ccs_v4.0_examples/lcd/CSL_LCDC_DiagramExample/
    6169 000fb0 E604          MOV #0, *SP(#2) ; |1149| 
         000fb2 00   
    6170                      .dwpsn  file "../c5535_bsl_revc/ezdsp5535_v1/c55xx_csl/ccs_v4.0_examples/lcd/CSL_LCDC_DiagramExample/
    6171 000fb3 7600          MOV #128, AR2 ; |1149| 
         000fb5 80A8 
    6172 000fb7 A904          MOV *SP(#2), AR1 ; |1149| 
    6173 000fb9 1298          CMPU AR1 >= AR2, TC1 ; |1149| 
         000fbb A4   
    6174 000fbc 0464          BCC $C$L96,TC1 ; |1149| 
         000fbe 29   
    6175                                                      ; branchcc occurs ; |1149| 
    6176 000fbf       $C$DW$L$_draw_262K_colorbar$14$E:
    6177 000fbf       $C$L95:    
    6178 000fbf       $C$DW$L$_draw_262K_colorbar$15$B:
    6179                      .dwpsn  file "../c5535_bsl_revc/ezdsp5535_v1/c55xx_csl/ccs_v4.0_examples/lcd/CSL_LCDC_DiagramExample/
    6180              
    6181 000fbf A500          MOV *SP(#0), T1 ; |1151| 
    6182 000fc1 2390  ||      MOV AR1, AC0
    6183              
    6184 000fc3 76FF          BFXTR #0xfffe, AC0, T0 ; |1151| 
         000fc5 FE40 
    6185              $C$DW$578       .dwtag  DW_TAG_TI_branch
    6186                      .dwattr $C$DW$578, DW_AT_low_pc(0x00)
    6187                      .dwattr $C$DW$578, DW_AT_name("_dataWrite")
    6188                      .dwattr $C$DW$578, DW_AT_TI_call
    6189 000fc7 08F2          CALL #_dataWrite ; |1151| 
         000fc9 D6   
    6190                                                      ; call occurs [#_dataWrite] ; |1151| 
    6191                      .dwpsn  file "../c5535_bsl_revc/ezdsp5535_v1/c55xx_csl/ccs_v4.0_examples/lcd/CSL_LCDC_DiagramExample/
    6192 000fca A500          MOV *SP(#0), T1 ; |1152| 
    6193              $C$DW$579       .dwtag  DW_TAG_TI_branch
    6194                      .dwattr $C$DW$579, DW_AT_low_pc(0x00)
    6195                      .dwattr $C$DW$579, DW_AT_name("_dataWrite")
    6196                      .dwattr $C$DW$579, DW_AT_TI_call
    6197              
    6198 000fcc 08F2          CALL #_dataWrite ; |1152| 
         000fce CF   
    6199 000fcf 3D04  ||      MOV #0, T0
    6200              
    6201                                                      ; call occurs [#_dataWrite] ; |1152| 
TMS320C55x Assembler PC v4.4.1 Sat Sep 29 23:09:22 2018

Tools Copyright (c) 1996-2012 Texas Instruments Incorporated
lcdc_panel.asm                                                       PAGE  127

    6202                      .dwpsn  file "../c5535_bsl_revc/ezdsp5535_v1/c55xx_csl/ccs_v4.0_examples/lcd/CSL_LCDC_DiagramExample/
    6203 000fd1 A004          MOV *SP(#2), AC0 ; |1153| 
    6204 000fd3 A500          MOV *SP(#0), T1 ; |1153| 
    6205 000fd5 76FF          BFXTR #0xfffe, AC0, T0 ; |1153| 
         000fd7 FE40 
    6206              $C$DW$580       .dwtag  DW_TAG_TI_branch
    6207                      .dwattr $C$DW$580, DW_AT_low_pc(0x00)
    6208                      .dwattr $C$DW$580, DW_AT_name("_dataWrite")
    6209                      .dwattr $C$DW$580, DW_AT_TI_call
    6210 000fd9 08F2          CALL #_dataWrite ; |1153| 
         000fdb C4   
    6211                                                      ; call occurs [#_dataWrite] ; |1153| 
    6212                      .dwpsn  file "../c5535_bsl_revc/ezdsp5535_v1/c55xx_csl/ccs_v4.0_examples/lcd/CSL_LCDC_DiagramExample/
    6213 000fdc F704          ADD #1, *SP(#2) ; |1149| 
         000fde 0001 
    6214                      .dwpsn  file "../c5535_bsl_revc/ezdsp5535_v1/c55xx_csl/ccs_v4.0_examples/lcd/CSL_LCDC_DiagramExample/
    6215 000fe0 A904          MOV *SP(#2), AR1 ; |1149| 
    6216 000fe2 1294          CMPU AR1 < AR2, TC1 ; |1149| 
         000fe4 A4   
    6217 000fe5 0464          BCC $C$L95,TC1 ; |1149| 
         000fe7 D7   
    6218                                                      ; branchcc occurs ; |1149| 
    6219 000fe8       $C$DW$L$_draw_262K_colorbar$15$E:
    6220 000fe8       $C$L96:    
    6221 000fe8       $C$DW$L$_draw_262K_colorbar$16$B:
    6222                      .dwpsn  file "../c5535_bsl_revc/ezdsp5535_v1/c55xx_csl/ccs_v4.0_examples/lcd/CSL_LCDC_DiagramExample/
    6223 000fe8 F702          ADD #1, *SP(#1) ; |1147| 
         000fea 0001 
    6224                      .dwpsn  file "../c5535_bsl_revc/ezdsp5535_v1/c55xx_csl/ccs_v4.0_examples/lcd/CSL_LCDC_DiagramExample/
    6225 000fec 7600          MOV #32, AR2 ; |1147| 
         000fee 20A8 
    6226 000ff0 A902          MOV *SP(#1), AR1 ; |1147| 
    6227 000ff2 1294          CMPU AR1 < AR2, TC1 ; |1147| 
         000ff4 A4   
    6228 000ff5 0464          BCC $C$L94,TC1 ; |1147| 
         000ff7 B8   
    6229                                                      ; branchcc occurs ; |1147| 
    6230 000ff8       $C$DW$L$_draw_262K_colorbar$16$E:
    6231 000ff8       $C$L97:    
    6232                      .dwpsn  file "../c5535_bsl_revc/ezdsp5535_v1/c55xx_csl/ccs_v4.0_examples/lcd/CSL_LCDC_DiagramExample/
    6233 000ff8 A500          MOV *SP(#0), T1 ; |1158| 
    6234 000ffa 7600          MOV #21, T0 ; |1158| 
         000ffc 1548 
    6235              $C$DW$581       .dwtag  DW_TAG_TI_branch
    6236                      .dwattr $C$DW$581, DW_AT_low_pc(0x00)
    6237                      .dwattr $C$DW$581, DW_AT_name("_cmdWrite")
    6238                      .dwattr $C$DW$581, DW_AT_TI_call
    6239 000ffe 08F2          CALL #_cmdWrite ; |1158| 
         001000 87   
    6240                                                      ; call occurs [#_cmdWrite] ; |1158| 
    6241                      .dwpsn  file "../c5535_bsl_revc/ezdsp5535_v1/c55xx_csl/ccs_v4.0_examples/lcd/CSL_LCDC_DiagramExample/
    6242 001001 7600          MOV #64, T0 ; |1159| 
         001003 4048 
    6243 001005 A500          MOV *SP(#0), T1 ; |1159| 
    6244              $C$DW$582       .dwtag  DW_TAG_TI_branch
TMS320C55x Assembler PC v4.4.1 Sat Sep 29 23:09:22 2018

Tools Copyright (c) 1996-2012 Texas Instruments Incorporated
lcdc_panel.asm                                                       PAGE  128

    6245                      .dwattr $C$DW$582, DW_AT_low_pc(0x00)
    6246                      .dwattr $C$DW$582, DW_AT_name("_dataWrite")
    6247                      .dwattr $C$DW$582, DW_AT_TI_call
    6248 001007 08F2          CALL #_dataWrite ; |1159| 
         001009 96   
    6249                                                      ; call occurs [#_dataWrite] ; |1159| 
    6250                      .dwpsn  file "../c5535_bsl_revc/ezdsp5535_v1/c55xx_csl/ccs_v4.0_examples/lcd/CSL_LCDC_DiagramExample/
    6251 00100a 7600          MOV #79, T0 ; |1160| 
         00100c 4F48 
    6252 00100e A500          MOV *SP(#0), T1 ; |1160| 
    6253              $C$DW$583       .dwtag  DW_TAG_TI_branch
    6254                      .dwattr $C$DW$583, DW_AT_low_pc(0x00)
    6255                      .dwattr $C$DW$583, DW_AT_name("_dataWrite")
    6256                      .dwattr $C$DW$583, DW_AT_TI_call
    6257 001010 08F2          CALL #_dataWrite ; |1160| 
         001012 8D   
    6258                                                      ; call occurs [#_dataWrite] ; |1160| 
    6259                      .dwpsn  file "../c5535_bsl_revc/ezdsp5535_v1/c55xx_csl/ccs_v4.0_examples/lcd/CSL_LCDC_DiagramExample/
    6260              $C$DW$584       .dwtag  DW_TAG_TI_branch
    6261                      .dwattr $C$DW$584, DW_AT_low_pc(0x00)
    6262                      .dwattr $C$DW$584, DW_AT_name("_wait")
    6263                      .dwattr $C$DW$584, DW_AT_TI_call
    6264              
    6265 001013 08F0          CALL #_wait ; |1161| 
         001015 C0   
    6266 001016 3DA0  ||      MOV #10, AC0 ; |1161| 
    6267              
    6268                                                      ; call occurs [#_wait] ; |1161| 
    6269                      .dwpsn  file "../c5535_bsl_revc/ezdsp5535_v1/c55xx_csl/ccs_v4.0_examples/lcd/CSL_LCDC_DiagramExample/
    6270 001018 7600          MOV #117, T0 ; |1162| 
         00101a 7548 
    6271 00101c A500          MOV *SP(#0), T1 ; |1162| 
    6272              $C$DW$585       .dwtag  DW_TAG_TI_branch
    6273                      .dwattr $C$DW$585, DW_AT_low_pc(0x00)
    6274                      .dwattr $C$DW$585, DW_AT_name("_cmdWrite")
    6275                      .dwattr $C$DW$585, DW_AT_TI_call
    6276 00101e 08F2          CALL #_cmdWrite ; |1162| 
         001020 67   
    6277                                                      ; call occurs [#_cmdWrite] ; |1162| 
    6278                      .dwpsn  file "../c5535_bsl_revc/ezdsp5535_v1/c55xx_csl/ccs_v4.0_examples/lcd/CSL_LCDC_DiagramExample/
    6279 001021 A500          MOV *SP(#0), T1 ; |1163| 
    6280              $C$DW$586       .dwtag  DW_TAG_TI_branch
    6281                      .dwattr $C$DW$586, DW_AT_low_pc(0x00)
    6282                      .dwattr $C$DW$586, DW_AT_name("_dataWrite")
    6283                      .dwattr $C$DW$586, DW_AT_TI_call
    6284              
    6285 001023 08F2          CALL #_dataWrite ; |1163| 
         001025 78   
    6286 001026 3D04  ||      MOV #0, T0
    6287              
    6288                                                      ; call occurs [#_dataWrite] ; |1163| 
    6289                      .dwpsn  file "../c5535_bsl_revc/ezdsp5535_v1/c55xx_csl/ccs_v4.0_examples/lcd/CSL_LCDC_DiagramExample/
    6290 001028 7600          MOV #127, T0 ; |1164| 
         00102a 7F48 
    6291 00102c A500          MOV *SP(#0), T1 ; |1164| 
TMS320C55x Assembler PC v4.4.1 Sat Sep 29 23:09:22 2018

Tools Copyright (c) 1996-2012 Texas Instruments Incorporated
lcdc_panel.asm                                                       PAGE  129

    6292              $C$DW$587       .dwtag  DW_TAG_TI_branch
    6293                      .dwattr $C$DW$587, DW_AT_low_pc(0x00)
    6294                      .dwattr $C$DW$587, DW_AT_name("_dataWrite")
    6295                      .dwattr $C$DW$587, DW_AT_TI_call
    6296 00102e 08F2          CALL #_dataWrite ; |1164| 
         001030 6F   
    6297                                                      ; call occurs [#_dataWrite] ; |1164| 
    6298                      .dwpsn  file "../c5535_bsl_revc/ezdsp5535_v1/c55xx_csl/ccs_v4.0_examples/lcd/CSL_LCDC_DiagramExample/
    6299              $C$DW$588       .dwtag  DW_TAG_TI_branch
    6300                      .dwattr $C$DW$588, DW_AT_low_pc(0x00)
    6301                      .dwattr $C$DW$588, DW_AT_name("_wait")
    6302                      .dwattr $C$DW$588, DW_AT_TI_call
    6303              
    6304 001031 08F0          CALL #_wait ; |1165| 
         001033 A2   
    6305 001034 3DA0  ||      MOV #10, AC0 ; |1165| 
    6306              
    6307                                                      ; call occurs [#_wait] ; |1165| 
    6308                      .dwpsn  file "../c5535_bsl_revc/ezdsp5535_v1/c55xx_csl/ccs_v4.0_examples/lcd/CSL_LCDC_DiagramExample/
    6309 001036 7600          MOV #92, T0 ; |1166| 
         001038 5C48 
    6310 00103a A500          MOV *SP(#0), T1 ; |1166| 
    6311              $C$DW$589       .dwtag  DW_TAG_TI_branch
    6312                      .dwattr $C$DW$589, DW_AT_low_pc(0x00)
    6313                      .dwattr $C$DW$589, DW_AT_name("_cmdWrite")
    6314                      .dwattr $C$DW$589, DW_AT_TI_call
    6315 00103c 08F2          CALL #_cmdWrite ; |1166| 
         00103e 49   
    6316                                                      ; call occurs [#_cmdWrite] ; |1166| 
    6317                      .dwpsn  file "../c5535_bsl_revc/ezdsp5535_v1/c55xx_csl/ccs_v4.0_examples/lcd/CSL_LCDC_DiagramExample/
    6318 00103f E602          MOV #0, *SP(#1) ; |1168| 
         001041 00   
    6319                      .dwpsn  file "../c5535_bsl_revc/ezdsp5535_v1/c55xx_csl/ccs_v4.0_examples/lcd/CSL_LCDC_DiagramExample/
    6320 001042 7600          MOV #32, AR2 ; |1168| 
         001044 20A8 
    6321 001046 A902          MOV *SP(#1), AR1 ; |1168| 
    6322 001048 1298          CMPU AR1 >= AR2, TC1 ; |1168| 
         00104a A4   
    6323 00104b 0464          BCC $C$L101,TC1 ; |1168| 
         00104d 44   
    6324                                                      ; branchcc occurs ; |1168| 
    6325 00104e       $C$L98:    
    6326 00104e       $C$DW$L$_draw_262K_colorbar$18$B:
    6327                      .dwpsn  file "../c5535_bsl_revc/ezdsp5535_v1/c55xx_csl/ccs_v4.0_examples/lcd/CSL_LCDC_DiagramExample/
    6328 00104e E604          MOV #0, *SP(#2) ; |1170| 
         001050 00   
    6329                      .dwpsn  file "../c5535_bsl_revc/ezdsp5535_v1/c55xx_csl/ccs_v4.0_examples/lcd/CSL_LCDC_DiagramExample/
    6330 001051 7600          MOV #128, AR2 ; |1170| 
         001053 80A8 
    6331 001055 A904          MOV *SP(#2), AR1 ; |1170| 
    6332 001057 1298          CMPU AR1 >= AR2, TC1 ; |1170| 
         001059 A4   
    6333 00105a 0464          BCC $C$L100,TC1 ; |1170| 
         00105c 25   
    6334                                                      ; branchcc occurs ; |1170| 
TMS320C55x Assembler PC v4.4.1 Sat Sep 29 23:09:22 2018

Tools Copyright (c) 1996-2012 Texas Instruments Incorporated
lcdc_panel.asm                                                       PAGE  130

    6335 00105d       $C$DW$L$_draw_262K_colorbar$18$E:
    6336 00105d       $C$L99:    
    6337 00105d       $C$DW$L$_draw_262K_colorbar$19$B:
    6338                      .dwpsn  file "../c5535_bsl_revc/ezdsp5535_v1/c55xx_csl/ccs_v4.0_examples/lcd/CSL_LCDC_DiagramExample/
    6339 00105d A500          MOV *SP(#0), T1 ; |1172| 
    6340              $C$DW$590       .dwtag  DW_TAG_TI_branch
    6341                      .dwattr $C$DW$590, DW_AT_low_pc(0x00)
    6342                      .dwattr $C$DW$590, DW_AT_name("_dataWrite")
    6343                      .dwattr $C$DW$590, DW_AT_TI_call
    6344              
    6345 00105f 08F2          CALL #_dataWrite ; |1172| 
         001061 3C   
    6346 001062 3D04  ||      MOV #0, T0
    6347              
    6348                                                      ; call occurs [#_dataWrite] ; |1172| 
    6349                      .dwpsn  file "../c5535_bsl_revc/ezdsp5535_v1/c55xx_csl/ccs_v4.0_examples/lcd/CSL_LCDC_DiagramExample/
    6350 001064 A004          MOV *SP(#2), AC0 ; |1173| 
    6351 001066 A500          MOV *SP(#0), T1 ; |1173| 
    6352 001068 76FF          BFXTR #0xfffe, AC0, T0 ; |1173| 
         00106a FE40 
    6353              $C$DW$591       .dwtag  DW_TAG_TI_branch
    6354                      .dwattr $C$DW$591, DW_AT_low_pc(0x00)
    6355                      .dwattr $C$DW$591, DW_AT_name("_dataWrite")
    6356                      .dwattr $C$DW$591, DW_AT_TI_call
    6357 00106c 08F2          CALL #_dataWrite ; |1173| 
         00106e 31   
    6358                                                      ; call occurs [#_dataWrite] ; |1173| 
    6359                      .dwpsn  file "../c5535_bsl_revc/ezdsp5535_v1/c55xx_csl/ccs_v4.0_examples/lcd/CSL_LCDC_DiagramExample/
    6360 00106f A500          MOV *SP(#0), T1 ; |1174| 
    6361              $C$DW$592       .dwtag  DW_TAG_TI_branch
    6362                      .dwattr $C$DW$592, DW_AT_low_pc(0x00)
    6363                      .dwattr $C$DW$592, DW_AT_name("_dataWrite")
    6364                      .dwattr $C$DW$592, DW_AT_TI_call
    6365              
    6366 001071 08F2          CALL #_dataWrite ; |1174| 
         001073 2A   
    6367 001074 3D04  ||      MOV #0, T0
    6368              
    6369                                                      ; call occurs [#_dataWrite] ; |1174| 
    6370                      .dwpsn  file "../c5535_bsl_revc/ezdsp5535_v1/c55xx_csl/ccs_v4.0_examples/lcd/CSL_LCDC_DiagramExample/
    6371 001076 F704          ADD #1, *SP(#2) ; |1170| 
         001078 0001 
    6372                      .dwpsn  file "../c5535_bsl_revc/ezdsp5535_v1/c55xx_csl/ccs_v4.0_examples/lcd/CSL_LCDC_DiagramExample/
    6373 00107a A904          MOV *SP(#2), AR1 ; |1170| 
    6374 00107c 1294          CMPU AR1 < AR2, TC1 ; |1170| 
         00107e A4   
    6375 00107f 0464          BCC $C$L99,TC1 ; |1170| 
         001081 DB   
    6376                                                      ; branchcc occurs ; |1170| 
    6377 001082       $C$DW$L$_draw_262K_colorbar$19$E:
    6378 001082       $C$L100:    
    6379 001082       $C$DW$L$_draw_262K_colorbar$20$B:
    6380                      .dwpsn  file "../c5535_bsl_revc/ezdsp5535_v1/c55xx_csl/ccs_v4.0_examples/lcd/CSL_LCDC_DiagramExample/
    6381 001082 F702          ADD #1, *SP(#1) ; |1168| 
         001084 0001 
TMS320C55x Assembler PC v4.4.1 Sat Sep 29 23:09:22 2018

Tools Copyright (c) 1996-2012 Texas Instruments Incorporated
lcdc_panel.asm                                                       PAGE  131

    6382                      .dwpsn  file "../c5535_bsl_revc/ezdsp5535_v1/c55xx_csl/ccs_v4.0_examples/lcd/CSL_LCDC_DiagramExample/
    6383 001086 7600          MOV #32, AR2 ; |1168| 
         001088 20A8 
    6384 00108a A902          MOV *SP(#1), AR1 ; |1168| 
    6385 00108c 1294          CMPU AR1 < AR2, TC1 ; |1168| 
         00108e A4   
    6386 00108f 0464          BCC $C$L98,TC1 ; |1168| 
         001091 BC   
    6387                                                      ; branchcc occurs ; |1168| 
    6388 001092       $C$DW$L$_draw_262K_colorbar$20$E:
    6389 001092       $C$L101:    
    6390                      .dwpsn  file "../c5535_bsl_revc/ezdsp5535_v1/c55xx_csl/ccs_v4.0_examples/lcd/CSL_LCDC_DiagramExample/
    6391 001092 A500          MOV *SP(#0), T1 ; |1179| 
    6392 001094 7600          MOV #21, T0 ; |1179| 
         001096 1548 
    6393              $C$DW$593       .dwtag  DW_TAG_TI_branch
    6394                      .dwattr $C$DW$593, DW_AT_low_pc(0x00)
    6395                      .dwattr $C$DW$593, DW_AT_name("_cmdWrite")
    6396                      .dwattr $C$DW$593, DW_AT_TI_call
    6397 001098 08F1          CALL #_cmdWrite ; |1179| 
         00109a ED   
    6398                                                      ; call occurs [#_cmdWrite] ; |1179| 
    6399                      .dwpsn  file "../c5535_bsl_revc/ezdsp5535_v1/c55xx_csl/ccs_v4.0_examples/lcd/CSL_LCDC_DiagramExample/
    6400 00109b 7600          MOV #80, T0 ; |1180| 
         00109d 5048 
    6401 00109f A500          MOV *SP(#0), T1 ; |1180| 
    6402              $C$DW$594       .dwtag  DW_TAG_TI_branch
    6403                      .dwattr $C$DW$594, DW_AT_low_pc(0x00)
    6404                      .dwattr $C$DW$594, DW_AT_name("_dataWrite")
    6405                      .dwattr $C$DW$594, DW_AT_TI_call
    6406 0010a1 08F1          CALL #_dataWrite ; |1180| 
         0010a3 FC   
    6407                                                      ; call occurs [#_dataWrite] ; |1180| 
    6408                      .dwpsn  file "../c5535_bsl_revc/ezdsp5535_v1/c55xx_csl/ccs_v4.0_examples/lcd/CSL_LCDC_DiagramExample/
    6409 0010a4 7600          MOV #95, T0 ; |1181| 
         0010a6 5F48 
    6410 0010a8 A500          MOV *SP(#0), T1 ; |1181| 
    6411              $C$DW$595       .dwtag  DW_TAG_TI_branch
    6412                      .dwattr $C$DW$595, DW_AT_low_pc(0x00)
    6413                      .dwattr $C$DW$595, DW_AT_name("_dataWrite")
    6414                      .dwattr $C$DW$595, DW_AT_TI_call
    6415 0010aa 08F1          CALL #_dataWrite ; |1181| 
         0010ac F3   
    6416                                                      ; call occurs [#_dataWrite] ; |1181| 
    6417                      .dwpsn  file "../c5535_bsl_revc/ezdsp5535_v1/c55xx_csl/ccs_v4.0_examples/lcd/CSL_LCDC_DiagramExample/
    6418              $C$DW$596       .dwtag  DW_TAG_TI_branch
    6419                      .dwattr $C$DW$596, DW_AT_low_pc(0x00)
    6420                      .dwattr $C$DW$596, DW_AT_name("_wait")
    6421                      .dwattr $C$DW$596, DW_AT_TI_call
    6422              
    6423 0010ad 08F0          CALL #_wait ; |1182| 
         0010af 26   
    6424 0010b0 3DA0  ||      MOV #10, AC0 ; |1182| 
    6425              
    6426                                                      ; call occurs [#_wait] ; |1182| 
TMS320C55x Assembler PC v4.4.1 Sat Sep 29 23:09:22 2018

Tools Copyright (c) 1996-2012 Texas Instruments Incorporated
lcdc_panel.asm                                                       PAGE  132

    6427                      .dwpsn  file "../c5535_bsl_revc/ezdsp5535_v1/c55xx_csl/ccs_v4.0_examples/lcd/CSL_LCDC_DiagramExample/
    6428 0010b2 7600          MOV #117, T0 ; |1183| 
         0010b4 7548 
    6429 0010b6 A500          MOV *SP(#0), T1 ; |1183| 
    6430              $C$DW$597       .dwtag  DW_TAG_TI_branch
    6431                      .dwattr $C$DW$597, DW_AT_low_pc(0x00)
    6432                      .dwattr $C$DW$597, DW_AT_name("_cmdWrite")
    6433                      .dwattr $C$DW$597, DW_AT_TI_call
    6434 0010b8 08F1          CALL #_cmdWrite ; |1183| 
         0010ba CD   
    6435                                                      ; call occurs [#_cmdWrite] ; |1183| 
    6436                      .dwpsn  file "../c5535_bsl_revc/ezdsp5535_v1/c55xx_csl/ccs_v4.0_examples/lcd/CSL_LCDC_DiagramExample/
    6437 0010bb A500          MOV *SP(#0), T1 ; |1184| 
    6438              $C$DW$598       .dwtag  DW_TAG_TI_branch
    6439                      .dwattr $C$DW$598, DW_AT_low_pc(0x00)
    6440                      .dwattr $C$DW$598, DW_AT_name("_dataWrite")
    6441                      .dwattr $C$DW$598, DW_AT_TI_call
    6442              
    6443 0010bd 08F1          CALL #_dataWrite ; |1184| 
         0010bf DE   
    6444 0010c0 3D04  ||      MOV #0, T0
    6445              
    6446                                                      ; call occurs [#_dataWrite] ; |1184| 
    6447                      .dwpsn  file "../c5535_bsl_revc/ezdsp5535_v1/c55xx_csl/ccs_v4.0_examples/lcd/CSL_LCDC_DiagramExample/
    6448 0010c2 7600          MOV #127, T0 ; |1185| 
         0010c4 7F48 
    6449 0010c6 A500          MOV *SP(#0), T1 ; |1185| 
    6450              $C$DW$599       .dwtag  DW_TAG_TI_branch
    6451                      .dwattr $C$DW$599, DW_AT_low_pc(0x00)
    6452                      .dwattr $C$DW$599, DW_AT_name("_dataWrite")
    6453                      .dwattr $C$DW$599, DW_AT_TI_call
    6454 0010c8 08F1          CALL #_dataWrite ; |1185| 
         0010ca D5   
    6455                                                      ; call occurs [#_dataWrite] ; |1185| 
    6456                      .dwpsn  file "../c5535_bsl_revc/ezdsp5535_v1/c55xx_csl/ccs_v4.0_examples/lcd/CSL_LCDC_DiagramExample/
    6457              $C$DW$600       .dwtag  DW_TAG_TI_branch
    6458                      .dwattr $C$DW$600, DW_AT_low_pc(0x00)
    6459                      .dwattr $C$DW$600, DW_AT_name("_wait")
    6460                      .dwattr $C$DW$600, DW_AT_TI_call
    6461              
    6462 0010cb 08F0          CALL #_wait ; |1186| 
         0010cd 08   
    6463 0010ce 3DA0  ||      MOV #10, AC0 ; |1186| 
    6464              
    6465                                                      ; call occurs [#_wait] ; |1186| 
    6466                      .dwpsn  file "../c5535_bsl_revc/ezdsp5535_v1/c55xx_csl/ccs_v4.0_examples/lcd/CSL_LCDC_DiagramExample/
    6467 0010d0 7600          MOV #92, T0 ; |1187| 
         0010d2 5C48 
    6468 0010d4 A500          MOV *SP(#0), T1 ; |1187| 
    6469              $C$DW$601       .dwtag  DW_TAG_TI_branch
    6470                      .dwattr $C$DW$601, DW_AT_low_pc(0x00)
    6471                      .dwattr $C$DW$601, DW_AT_name("_cmdWrite")
    6472                      .dwattr $C$DW$601, DW_AT_TI_call
    6473 0010d6 08F1          CALL #_cmdWrite ; |1187| 
         0010d8 AF   
TMS320C55x Assembler PC v4.4.1 Sat Sep 29 23:09:22 2018

Tools Copyright (c) 1996-2012 Texas Instruments Incorporated
lcdc_panel.asm                                                       PAGE  133

    6474                                                      ; call occurs [#_cmdWrite] ; |1187| 
    6475                      .dwpsn  file "../c5535_bsl_revc/ezdsp5535_v1/c55xx_csl/ccs_v4.0_examples/lcd/CSL_LCDC_DiagramExample/
    6476 0010d9 E602          MOV #0, *SP(#1) ; |1189| 
         0010db 00   
    6477                      .dwpsn  file "../c5535_bsl_revc/ezdsp5535_v1/c55xx_csl/ccs_v4.0_examples/lcd/CSL_LCDC_DiagramExample/
    6478 0010dc 7600          MOV #32, AR2 ; |1189| 
         0010de 20A8 
    6479 0010e0 A902          MOV *SP(#1), AR1 ; |1189| 
    6480 0010e2 1298          CMPU AR1 >= AR2, TC1 ; |1189| 
         0010e4 A4   
    6481 0010e5 0464          BCC $C$L105,TC1 ; |1189| 
         0010e7 48   
    6482                                                      ; branchcc occurs ; |1189| 
    6483 0010e8       $C$L102:    
    6484 0010e8       $C$DW$L$_draw_262K_colorbar$22$B:
    6485                      .dwpsn  file "../c5535_bsl_revc/ezdsp5535_v1/c55xx_csl/ccs_v4.0_examples/lcd/CSL_LCDC_DiagramExample/
    6486 0010e8 E604          MOV #0, *SP(#2) ; |1191| 
         0010ea 00   
    6487                      .dwpsn  file "../c5535_bsl_revc/ezdsp5535_v1/c55xx_csl/ccs_v4.0_examples/lcd/CSL_LCDC_DiagramExample/
    6488 0010eb 7600          MOV #128, AR2 ; |1191| 
         0010ed 80A8 
    6489 0010ef A904          MOV *SP(#2), AR1 ; |1191| 
    6490 0010f1 1298          CMPU AR1 >= AR2, TC1 ; |1191| 
         0010f3 A4   
    6491 0010f4 0464          BCC $C$L104,TC1 ; |1191| 
         0010f6 29   
    6492                                                      ; branchcc occurs ; |1191| 
    6493 0010f7       $C$DW$L$_draw_262K_colorbar$22$E:
    6494 0010f7       $C$L103:    
    6495 0010f7       $C$DW$L$_draw_262K_colorbar$23$B:
    6496                      .dwpsn  file "../c5535_bsl_revc/ezdsp5535_v1/c55xx_csl/ccs_v4.0_examples/lcd/CSL_LCDC_DiagramExample/
    6497 0010f7 A500          MOV *SP(#0), T1 ; |1193| 
    6498              $C$DW$602       .dwtag  DW_TAG_TI_branch
    6499                      .dwattr $C$DW$602, DW_AT_low_pc(0x00)
    6500                      .dwattr $C$DW$602, DW_AT_name("_dataWrite")
    6501                      .dwattr $C$DW$602, DW_AT_TI_call
    6502              
    6503 0010f9 08F1          CALL #_dataWrite ; |1193| 
         0010fb A2   
    6504 0010fc 3D04  ||      MOV #0, T0
    6505              
    6506                                                      ; call occurs [#_dataWrite] ; |1193| 
    6507                      .dwpsn  file "../c5535_bsl_revc/ezdsp5535_v1/c55xx_csl/ccs_v4.0_examples/lcd/CSL_LCDC_DiagramExample/
    6508 0010fe A004          MOV *SP(#2), AC0 ; |1194| 
    6509 001100 A500          MOV *SP(#0), T1 ; |1194| 
    6510 001102 76FF          BFXTR #0xfffe, AC0, T0 ; |1194| 
         001104 FE40 
    6511              $C$DW$603       .dwtag  DW_TAG_TI_branch
    6512                      .dwattr $C$DW$603, DW_AT_low_pc(0x00)
    6513                      .dwattr $C$DW$603, DW_AT_name("_dataWrite")
    6514                      .dwattr $C$DW$603, DW_AT_TI_call
    6515 001106 08F1          CALL #_dataWrite ; |1194| 
         001108 97   
    6516                                                      ; call occurs [#_dataWrite] ; |1194| 
    6517                      .dwpsn  file "../c5535_bsl_revc/ezdsp5535_v1/c55xx_csl/ccs_v4.0_examples/lcd/CSL_LCDC_DiagramExample/
TMS320C55x Assembler PC v4.4.1 Sat Sep 29 23:09:22 2018

Tools Copyright (c) 1996-2012 Texas Instruments Incorporated
lcdc_panel.asm                                                       PAGE  134

    6518 001109 A004          MOV *SP(#2), AC0 ; |1195| 
    6519 00110b A500          MOV *SP(#0), T1 ; |1195| 
    6520 00110d 76FF          BFXTR #0xfffe, AC0, T0 ; |1195| 
         00110f FE40 
    6521              $C$DW$604       .dwtag  DW_TAG_TI_branch
    6522                      .dwattr $C$DW$604, DW_AT_low_pc(0x00)
    6523                      .dwattr $C$DW$604, DW_AT_name("_dataWrite")
    6524                      .dwattr $C$DW$604, DW_AT_TI_call
    6525 001111 08F1          CALL #_dataWrite ; |1195| 
         001113 8C   
    6526                                                      ; call occurs [#_dataWrite] ; |1195| 
    6527                      .dwpsn  file "../c5535_bsl_revc/ezdsp5535_v1/c55xx_csl/ccs_v4.0_examples/lcd/CSL_LCDC_DiagramExample/
    6528 001114 F704          ADD #1, *SP(#2) ; |1191| 
         001116 0001 
    6529                      .dwpsn  file "../c5535_bsl_revc/ezdsp5535_v1/c55xx_csl/ccs_v4.0_examples/lcd/CSL_LCDC_DiagramExample/
    6530 001118 A904          MOV *SP(#2), AR1 ; |1191| 
    6531 00111a 1294          CMPU AR1 < AR2, TC1 ; |1191| 
         00111c A4   
    6532 00111d 0464          BCC $C$L103,TC1 ; |1191| 
         00111f D7   
    6533                                                      ; branchcc occurs ; |1191| 
    6534 001120       $C$DW$L$_draw_262K_colorbar$23$E:
    6535 001120       $C$L104:    
    6536 001120       $C$DW$L$_draw_262K_colorbar$24$B:
    6537                      .dwpsn  file "../c5535_bsl_revc/ezdsp5535_v1/c55xx_csl/ccs_v4.0_examples/lcd/CSL_LCDC_DiagramExample/
    6538 001120 F702          ADD #1, *SP(#1) ; |1189| 
         001122 0001 
    6539                      .dwpsn  file "../c5535_bsl_revc/ezdsp5535_v1/c55xx_csl/ccs_v4.0_examples/lcd/CSL_LCDC_DiagramExample/
    6540 001124 7600          MOV #32, AR2 ; |1189| 
         001126 20A8 
    6541 001128 A902          MOV *SP(#1), AR1 ; |1189| 
    6542 00112a 1294          CMPU AR1 < AR2, TC1 ; |1189| 
         00112c A4   
    6543 00112d 0464          BCC $C$L102,TC1 ; |1189| 
         00112f B8   
    6544                                                      ; branchcc occurs ; |1189| 
    6545 001130       $C$DW$L$_draw_262K_colorbar$24$E:
    6546 001130       $C$L105:    
    6547                      .dwpsn  file "../c5535_bsl_revc/ezdsp5535_v1/c55xx_csl/ccs_v4.0_examples/lcd/CSL_LCDC_DiagramExample/
    6548 001130 A500          MOV *SP(#0), T1 ; |1200| 
    6549 001132 7600          MOV #21, T0 ; |1200| 
         001134 1548 
    6550              $C$DW$605       .dwtag  DW_TAG_TI_branch
    6551                      .dwattr $C$DW$605, DW_AT_low_pc(0x00)
    6552                      .dwattr $C$DW$605, DW_AT_name("_cmdWrite")
    6553                      .dwattr $C$DW$605, DW_AT_TI_call
    6554 001136 08F1          CALL #_cmdWrite ; |1200| 
         001138 4F   
    6555                                                      ; call occurs [#_cmdWrite] ; |1200| 
    6556                      .dwpsn  file "../c5535_bsl_revc/ezdsp5535_v1/c55xx_csl/ccs_v4.0_examples/lcd/CSL_LCDC_DiagramExample/
    6557 001139 7600          MOV #96, T0 ; |1201| 
         00113b 6048 
    6558 00113d A500          MOV *SP(#0), T1 ; |1201| 
    6559              $C$DW$606       .dwtag  DW_TAG_TI_branch
    6560                      .dwattr $C$DW$606, DW_AT_low_pc(0x00)
TMS320C55x Assembler PC v4.4.1 Sat Sep 29 23:09:22 2018

Tools Copyright (c) 1996-2012 Texas Instruments Incorporated
lcdc_panel.asm                                                       PAGE  135

    6561                      .dwattr $C$DW$606, DW_AT_name("_dataWrite")
    6562                      .dwattr $C$DW$606, DW_AT_TI_call
    6563 00113f 08F1          CALL #_dataWrite ; |1201| 
         001141 5E   
    6564                                                      ; call occurs [#_dataWrite] ; |1201| 
    6565                      .dwpsn  file "../c5535_bsl_revc/ezdsp5535_v1/c55xx_csl/ccs_v4.0_examples/lcd/CSL_LCDC_DiagramExample/
    6566 001142 7600          MOV #111, T0 ; |1202| 
         001144 6F48 
    6567 001146 A500          MOV *SP(#0), T1 ; |1202| 
    6568              $C$DW$607       .dwtag  DW_TAG_TI_branch
    6569                      .dwattr $C$DW$607, DW_AT_low_pc(0x00)
    6570                      .dwattr $C$DW$607, DW_AT_name("_dataWrite")
    6571                      .dwattr $C$DW$607, DW_AT_TI_call
    6572 001148 08F1          CALL #_dataWrite ; |1202| 
         00114a 55   
    6573                                                      ; call occurs [#_dataWrite] ; |1202| 
    6574                      .dwpsn  file "../c5535_bsl_revc/ezdsp5535_v1/c55xx_csl/ccs_v4.0_examples/lcd/CSL_LCDC_DiagramExample/
    6575              $C$DW$608       .dwtag  DW_TAG_TI_branch
    6576                      .dwattr $C$DW$608, DW_AT_low_pc(0x00)
    6577                      .dwattr $C$DW$608, DW_AT_name("_wait")
    6578                      .dwattr $C$DW$608, DW_AT_TI_call
    6579              
    6580 00114b 08EF          CALL #_wait ; |1203| 
         00114d 88   
    6581 00114e 3DA0  ||      MOV #10, AC0 ; |1203| 
    6582              
    6583                                                      ; call occurs [#_wait] ; |1203| 
    6584                      .dwpsn  file "../c5535_bsl_revc/ezdsp5535_v1/c55xx_csl/ccs_v4.0_examples/lcd/CSL_LCDC_DiagramExample/
    6585 001150 7600          MOV #117, T0 ; |1204| 
         001152 7548 
    6586 001154 A500          MOV *SP(#0), T1 ; |1204| 
    6587              $C$DW$609       .dwtag  DW_TAG_TI_branch
    6588                      .dwattr $C$DW$609, DW_AT_low_pc(0x00)
    6589                      .dwattr $C$DW$609, DW_AT_name("_cmdWrite")
    6590                      .dwattr $C$DW$609, DW_AT_TI_call
    6591 001156 08F1          CALL #_cmdWrite ; |1204| 
         001158 2F   
    6592                                                      ; call occurs [#_cmdWrite] ; |1204| 
    6593                      .dwpsn  file "../c5535_bsl_revc/ezdsp5535_v1/c55xx_csl/ccs_v4.0_examples/lcd/CSL_LCDC_DiagramExample/
    6594 001159 A500          MOV *SP(#0), T1 ; |1205| 
    6595              $C$DW$610       .dwtag  DW_TAG_TI_branch
    6596                      .dwattr $C$DW$610, DW_AT_low_pc(0x00)
    6597                      .dwattr $C$DW$610, DW_AT_name("_dataWrite")
    6598                      .dwattr $C$DW$610, DW_AT_TI_call
    6599              
    6600 00115b 08F1          CALL #_dataWrite ; |1205| 
         00115d 40   
    6601 00115e 3D04  ||      MOV #0, T0
    6602              
    6603                                                      ; call occurs [#_dataWrite] ; |1205| 
    6604                      .dwpsn  file "../c5535_bsl_revc/ezdsp5535_v1/c55xx_csl/ccs_v4.0_examples/lcd/CSL_LCDC_DiagramExample/
    6605 001160 7600          MOV #127, T0 ; |1206| 
         001162 7F48 
    6606 001164 A500          MOV *SP(#0), T1 ; |1206| 
    6607              $C$DW$611       .dwtag  DW_TAG_TI_branch
TMS320C55x Assembler PC v4.4.1 Sat Sep 29 23:09:22 2018

Tools Copyright (c) 1996-2012 Texas Instruments Incorporated
lcdc_panel.asm                                                       PAGE  136

    6608                      .dwattr $C$DW$611, DW_AT_low_pc(0x00)
    6609                      .dwattr $C$DW$611, DW_AT_name("_dataWrite")
    6610                      .dwattr $C$DW$611, DW_AT_TI_call
    6611 001166 08F1          CALL #_dataWrite ; |1206| 
         001168 37   
    6612                                                      ; call occurs [#_dataWrite] ; |1206| 
    6613                      .dwpsn  file "../c5535_bsl_revc/ezdsp5535_v1/c55xx_csl/ccs_v4.0_examples/lcd/CSL_LCDC_DiagramExample/
    6614              $C$DW$612       .dwtag  DW_TAG_TI_branch
    6615                      .dwattr $C$DW$612, DW_AT_low_pc(0x00)
    6616                      .dwattr $C$DW$612, DW_AT_name("_wait")
    6617                      .dwattr $C$DW$612, DW_AT_TI_call
    6618              
    6619 001169 08EF          CALL #_wait ; |1207| 
         00116b 6A   
    6620 00116c 3DA0  ||      MOV #10, AC0 ; |1207| 
    6621              
    6622                                                      ; call occurs [#_wait] ; |1207| 
    6623                      .dwpsn  file "../c5535_bsl_revc/ezdsp5535_v1/c55xx_csl/ccs_v4.0_examples/lcd/CSL_LCDC_DiagramExample/
    6624 00116e 7600          MOV #92, T0 ; |1208| 
         001170 5C48 
    6625 001172 A500          MOV *SP(#0), T1 ; |1208| 
    6626              $C$DW$613       .dwtag  DW_TAG_TI_branch
    6627                      .dwattr $C$DW$613, DW_AT_low_pc(0x00)
    6628                      .dwattr $C$DW$613, DW_AT_name("_cmdWrite")
    6629                      .dwattr $C$DW$613, DW_AT_TI_call
    6630 001174 08F1          CALL #_cmdWrite ; |1208| 
         001176 11   
    6631                                                      ; call occurs [#_cmdWrite] ; |1208| 
    6632                      .dwpsn  file "../c5535_bsl_revc/ezdsp5535_v1/c55xx_csl/ccs_v4.0_examples/lcd/CSL_LCDC_DiagramExample/
    6633 001177 E602          MOV #0, *SP(#1) ; |1210| 
         001179 00   
    6634                      .dwpsn  file "../c5535_bsl_revc/ezdsp5535_v1/c55xx_csl/ccs_v4.0_examples/lcd/CSL_LCDC_DiagramExample/
    6635 00117a 7600          MOV #32, AR2 ; |1210| 
         00117c 20A8 
    6636 00117e A902          MOV *SP(#1), AR1 ; |1210| 
    6637 001180 1298          CMPU AR1 >= AR2, TC1 ; |1210| 
         001182 A4   
    6638 001183 0464          BCC $C$L109,TC1 ; |1210| 
         001185 48   
    6639                                                      ; branchcc occurs ; |1210| 
    6640 001186       $C$L106:    
    6641 001186       $C$DW$L$_draw_262K_colorbar$26$B:
    6642                      .dwpsn  file "../c5535_bsl_revc/ezdsp5535_v1/c55xx_csl/ccs_v4.0_examples/lcd/CSL_LCDC_DiagramExample/
    6643 001186 E604          MOV #0, *SP(#2) ; |1212| 
         001188 00   
    6644                      .dwpsn  file "../c5535_bsl_revc/ezdsp5535_v1/c55xx_csl/ccs_v4.0_examples/lcd/CSL_LCDC_DiagramExample/
    6645 001189 7600          MOV #128, AR2 ; |1212| 
         00118b 80A8 
    6646 00118d A904          MOV *SP(#2), AR1 ; |1212| 
    6647 00118f 1298          CMPU AR1 >= AR2, TC1 ; |1212| 
         001191 A4   
    6648 001192 0464          BCC $C$L108,TC1 ; |1212| 
         001194 29   
    6649                                                      ; branchcc occurs ; |1212| 
    6650 001195       $C$DW$L$_draw_262K_colorbar$26$E:
TMS320C55x Assembler PC v4.4.1 Sat Sep 29 23:09:22 2018

Tools Copyright (c) 1996-2012 Texas Instruments Incorporated
lcdc_panel.asm                                                       PAGE  137

    6651 001195       $C$L107:    
    6652 001195       $C$DW$L$_draw_262K_colorbar$27$B:
    6653                      .dwpsn  file "../c5535_bsl_revc/ezdsp5535_v1/c55xx_csl/ccs_v4.0_examples/lcd/CSL_LCDC_DiagramExample/
    6654              
    6655 001195 A500          MOV *SP(#0), T1 ; |1214| 
    6656 001197 2390  ||      MOV AR1, AC0
    6657              
    6658 001199 76FF          BFXTR #0xfffe, AC0, T0 ; |1214| 
         00119b FE40 
    6659              $C$DW$614       .dwtag  DW_TAG_TI_branch
    6660                      .dwattr $C$DW$614, DW_AT_low_pc(0x00)
    6661                      .dwattr $C$DW$614, DW_AT_name("_dataWrite")
    6662                      .dwattr $C$DW$614, DW_AT_TI_call
    6663 00119d 08F1          CALL #_dataWrite ; |1214| 
         00119f 00   
    6664                                                      ; call occurs [#_dataWrite] ; |1214| 
    6665                      .dwpsn  file "../c5535_bsl_revc/ezdsp5535_v1/c55xx_csl/ccs_v4.0_examples/lcd/CSL_LCDC_DiagramExample/
    6666 0011a0 A004          MOV *SP(#2), AC0 ; |1215| 
    6667 0011a2 A500          MOV *SP(#0), T1 ; |1215| 
    6668 0011a4 76FF          BFXTR #0xfffe, AC0, T0 ; |1215| 
         0011a6 FE40 
    6669              $C$DW$615       .dwtag  DW_TAG_TI_branch
    6670                      .dwattr $C$DW$615, DW_AT_low_pc(0x00)
    6671                      .dwattr $C$DW$615, DW_AT_name("_dataWrite")
    6672                      .dwattr $C$DW$615, DW_AT_TI_call
    6673 0011a8 08F0          CALL #_dataWrite ; |1215| 
         0011aa F5   
    6674                                                      ; call occurs [#_dataWrite] ; |1215| 
    6675                      .dwpsn  file "../c5535_bsl_revc/ezdsp5535_v1/c55xx_csl/ccs_v4.0_examples/lcd/CSL_LCDC_DiagramExample/
    6676 0011ab A500          MOV *SP(#0), T1 ; |1216| 
    6677              $C$DW$616       .dwtag  DW_TAG_TI_branch
    6678                      .dwattr $C$DW$616, DW_AT_low_pc(0x00)
    6679                      .dwattr $C$DW$616, DW_AT_name("_dataWrite")
    6680                      .dwattr $C$DW$616, DW_AT_TI_call
    6681              
    6682 0011ad 08F0          CALL #_dataWrite ; |1216| 
         0011af EE   
    6683 0011b0 3D04  ||      MOV #0, T0
    6684              
    6685                                                      ; call occurs [#_dataWrite] ; |1216| 
    6686                      .dwpsn  file "../c5535_bsl_revc/ezdsp5535_v1/c55xx_csl/ccs_v4.0_examples/lcd/CSL_LCDC_DiagramExample/
    6687 0011b2 F704          ADD #1, *SP(#2) ; |1212| 
         0011b4 0001 
    6688                      .dwpsn  file "../c5535_bsl_revc/ezdsp5535_v1/c55xx_csl/ccs_v4.0_examples/lcd/CSL_LCDC_DiagramExample/
    6689 0011b6 A904          MOV *SP(#2), AR1 ; |1212| 
    6690 0011b8 1294          CMPU AR1 < AR2, TC1 ; |1212| 
         0011ba A4   
    6691 0011bb 0464          BCC $C$L107,TC1 ; |1212| 
         0011bd D7   
    6692                                                      ; branchcc occurs ; |1212| 
    6693 0011be       $C$DW$L$_draw_262K_colorbar$27$E:
    6694 0011be       $C$L108:    
    6695 0011be       $C$DW$L$_draw_262K_colorbar$28$B:
    6696                      .dwpsn  file "../c5535_bsl_revc/ezdsp5535_v1/c55xx_csl/ccs_v4.0_examples/lcd/CSL_LCDC_DiagramExample/
    6697 0011be F702          ADD #1, *SP(#1) ; |1210| 
TMS320C55x Assembler PC v4.4.1 Sat Sep 29 23:09:22 2018

Tools Copyright (c) 1996-2012 Texas Instruments Incorporated
lcdc_panel.asm                                                       PAGE  138

         0011c0 0001 
    6698                      .dwpsn  file "../c5535_bsl_revc/ezdsp5535_v1/c55xx_csl/ccs_v4.0_examples/lcd/CSL_LCDC_DiagramExample/
    6699 0011c2 7600          MOV #32, AR2 ; |1210| 
         0011c4 20A8 
    6700 0011c6 A902          MOV *SP(#1), AR1 ; |1210| 
    6701 0011c8 1294          CMPU AR1 < AR2, TC1 ; |1210| 
         0011ca A4   
    6702 0011cb 0464          BCC $C$L106,TC1 ; |1210| 
         0011cd B8   
    6703                                                      ; branchcc occurs ; |1210| 
    6704 0011ce       $C$DW$L$_draw_262K_colorbar$28$E:
    6705 0011ce       $C$L109:    
    6706                      .dwpsn  file "../c5535_bsl_revc/ezdsp5535_v1/c55xx_csl/ccs_v4.0_examples/lcd/CSL_LCDC_DiagramExample/
    6707 0011ce A500          MOV *SP(#0), T1 ; |1221| 
    6708 0011d0 7600          MOV #21, T0 ; |1221| 
         0011d2 1548 
    6709              $C$DW$617       .dwtag  DW_TAG_TI_branch
    6710                      .dwattr $C$DW$617, DW_AT_low_pc(0x00)
    6711                      .dwattr $C$DW$617, DW_AT_name("_cmdWrite")
    6712                      .dwattr $C$DW$617, DW_AT_TI_call
    6713 0011d4 08F0          CALL #_cmdWrite ; |1221| 
         0011d6 B1   
    6714                                                      ; call occurs [#_cmdWrite] ; |1221| 
    6715                      .dwpsn  file "../c5535_bsl_revc/ezdsp5535_v1/c55xx_csl/ccs_v4.0_examples/lcd/CSL_LCDC_DiagramExample/
    6716 0011d7 7600          MOV #112, T0 ; |1222| 
         0011d9 7048 
    6717 0011db A500          MOV *SP(#0), T1 ; |1222| 
    6718              $C$DW$618       .dwtag  DW_TAG_TI_branch
    6719                      .dwattr $C$DW$618, DW_AT_low_pc(0x00)
    6720                      .dwattr $C$DW$618, DW_AT_name("_dataWrite")
    6721                      .dwattr $C$DW$618, DW_AT_TI_call
    6722 0011dd 08F0          CALL #_dataWrite ; |1222| 
         0011df C0   
    6723                                                      ; call occurs [#_dataWrite] ; |1222| 
    6724                      .dwpsn  file "../c5535_bsl_revc/ezdsp5535_v1/c55xx_csl/ccs_v4.0_examples/lcd/CSL_LCDC_DiagramExample/
    6725 0011e0 7600          MOV #127, T0 ; |1223| 
         0011e2 7F48 
    6726 0011e4 A500          MOV *SP(#0), T1 ; |1223| 
    6727              $C$DW$619       .dwtag  DW_TAG_TI_branch
    6728                      .dwattr $C$DW$619, DW_AT_low_pc(0x00)
    6729                      .dwattr $C$DW$619, DW_AT_name("_dataWrite")
    6730                      .dwattr $C$DW$619, DW_AT_TI_call
    6731 0011e6 08F0          CALL #_dataWrite ; |1223| 
         0011e8 B7   
    6732                                                      ; call occurs [#_dataWrite] ; |1223| 
    6733                      .dwpsn  file "../c5535_bsl_revc/ezdsp5535_v1/c55xx_csl/ccs_v4.0_examples/lcd/CSL_LCDC_DiagramExample/
    6734              $C$DW$620       .dwtag  DW_TAG_TI_branch
    6735                      .dwattr $C$DW$620, DW_AT_low_pc(0x00)
    6736                      .dwattr $C$DW$620, DW_AT_name("_wait")
    6737                      .dwattr $C$DW$620, DW_AT_TI_call
    6738              
    6739 0011e9 08EE          CALL #_wait ; |1224| 
         0011eb EA   
    6740 0011ec 3DA0  ||      MOV #10, AC0 ; |1224| 
    6741              
TMS320C55x Assembler PC v4.4.1 Sat Sep 29 23:09:22 2018

Tools Copyright (c) 1996-2012 Texas Instruments Incorporated
lcdc_panel.asm                                                       PAGE  139

    6742                                                      ; call occurs [#_wait] ; |1224| 
    6743                      .dwpsn  file "../c5535_bsl_revc/ezdsp5535_v1/c55xx_csl/ccs_v4.0_examples/lcd/CSL_LCDC_DiagramExample/
    6744 0011ee 7600          MOV #117, T0 ; |1225| 
         0011f0 7548 
    6745 0011f2 A500          MOV *SP(#0), T1 ; |1225| 
    6746              $C$DW$621       .dwtag  DW_TAG_TI_branch
    6747                      .dwattr $C$DW$621, DW_AT_low_pc(0x00)
    6748                      .dwattr $C$DW$621, DW_AT_name("_cmdWrite")
    6749                      .dwattr $C$DW$621, DW_AT_TI_call
    6750 0011f4 08F0          CALL #_cmdWrite ; |1225| 
         0011f6 91   
    6751                                                      ; call occurs [#_cmdWrite] ; |1225| 
    6752                      .dwpsn  file "../c5535_bsl_revc/ezdsp5535_v1/c55xx_csl/ccs_v4.0_examples/lcd/CSL_LCDC_DiagramExample/
    6753 0011f7 A500          MOV *SP(#0), T1 ; |1226| 
    6754              $C$DW$622       .dwtag  DW_TAG_TI_branch
    6755                      .dwattr $C$DW$622, DW_AT_low_pc(0x00)
    6756                      .dwattr $C$DW$622, DW_AT_name("_dataWrite")
    6757                      .dwattr $C$DW$622, DW_AT_TI_call
    6758              
    6759 0011f9 08F0          CALL #_dataWrite ; |1226| 
         0011fb A2   
    6760 0011fc 3D04  ||      MOV #0, T0
    6761              
    6762                                                      ; call occurs [#_dataWrite] ; |1226| 
    6763                      .dwpsn  file "../c5535_bsl_revc/ezdsp5535_v1/c55xx_csl/ccs_v4.0_examples/lcd/CSL_LCDC_DiagramExample/
    6764 0011fe 7600          MOV #127, T0 ; |1227| 
         001200 7F48 
    6765 001202 A500          MOV *SP(#0), T1 ; |1227| 
    6766              $C$DW$623       .dwtag  DW_TAG_TI_branch
    6767                      .dwattr $C$DW$623, DW_AT_low_pc(0x00)
    6768                      .dwattr $C$DW$623, DW_AT_name("_dataWrite")
    6769                      .dwattr $C$DW$623, DW_AT_TI_call
    6770 001204 08F0          CALL #_dataWrite ; |1227| 
         001206 99   
    6771                                                      ; call occurs [#_dataWrite] ; |1227| 
    6772                      .dwpsn  file "../c5535_bsl_revc/ezdsp5535_v1/c55xx_csl/ccs_v4.0_examples/lcd/CSL_LCDC_DiagramExample/
    6773              $C$DW$624       .dwtag  DW_TAG_TI_branch
    6774                      .dwattr $C$DW$624, DW_AT_low_pc(0x00)
    6775                      .dwattr $C$DW$624, DW_AT_name("_wait")
    6776                      .dwattr $C$DW$624, DW_AT_TI_call
    6777              
    6778 001207 08EE          CALL #_wait ; |1228| 
         001209 CC   
    6779 00120a 3DA0  ||      MOV #10, AC0 ; |1228| 
    6780              
    6781                                                      ; call occurs [#_wait] ; |1228| 
    6782                      .dwpsn  file "../c5535_bsl_revc/ezdsp5535_v1/c55xx_csl/ccs_v4.0_examples/lcd/CSL_LCDC_DiagramExample/
    6783 00120c 7600          MOV #92, T0 ; |1229| 
         00120e 5C48 
    6784 001210 A500          MOV *SP(#0), T1 ; |1229| 
    6785              $C$DW$625       .dwtag  DW_TAG_TI_branch
    6786                      .dwattr $C$DW$625, DW_AT_low_pc(0x00)
    6787                      .dwattr $C$DW$625, DW_AT_name("_cmdWrite")
    6788                      .dwattr $C$DW$625, DW_AT_TI_call
    6789 001212 08F0          CALL #_cmdWrite ; |1229| 
TMS320C55x Assembler PC v4.4.1 Sat Sep 29 23:09:22 2018

Tools Copyright (c) 1996-2012 Texas Instruments Incorporated
lcdc_panel.asm                                                       PAGE  140

         001214 73   
    6790                                                      ; call occurs [#_cmdWrite] ; |1229| 
    6791                      .dwpsn  file "../c5535_bsl_revc/ezdsp5535_v1/c55xx_csl/ccs_v4.0_examples/lcd/CSL_LCDC_DiagramExample/
    6792 001215 E602          MOV #0, *SP(#1) ; |1231| 
         001217 00   
    6793                      .dwpsn  file "../c5535_bsl_revc/ezdsp5535_v1/c55xx_csl/ccs_v4.0_examples/lcd/CSL_LCDC_DiagramExample/
    6794 001218 7600          MOV #32, AR2 ; |1231| 
         00121a 20A8 
    6795 00121c A902          MOV *SP(#1), AR1 ; |1231| 
    6796 00121e 1298          CMPU AR1 >= AR2, TC1 ; |1231| 
         001220 A4   
    6797 001221 0464          BCC $C$L113,TC1 ; |1231| 
         001223 4C   
    6798                                                      ; branchcc occurs ; |1231| 
    6799 001224       $C$L110:    
    6800 001224       $C$DW$L$_draw_262K_colorbar$30$B:
    6801                      .dwpsn  file "../c5535_bsl_revc/ezdsp5535_v1/c55xx_csl/ccs_v4.0_examples/lcd/CSL_LCDC_DiagramExample/
    6802 001224 E604          MOV #0, *SP(#2) ; |1233| 
         001226 00   
    6803                      .dwpsn  file "../c5535_bsl_revc/ezdsp5535_v1/c55xx_csl/ccs_v4.0_examples/lcd/CSL_LCDC_DiagramExample/
    6804 001227 7600          MOV #128, AR2 ; |1233| 
         001229 80A8 
    6805 00122b A904          MOV *SP(#2), AR1 ; |1233| 
    6806 00122d 1298          CMPU AR1 >= AR2, TC1 ; |1233| 
         00122f A4   
    6807 001230 0464          BCC $C$L112,TC1 ; |1233| 
         001232 2D   
    6808                                                      ; branchcc occurs ; |1233| 
    6809 001233       $C$DW$L$_draw_262K_colorbar$30$E:
    6810 001233       $C$L111:    
    6811 001233       $C$DW$L$_draw_262K_colorbar$31$B:
    6812                      .dwpsn  file "../c5535_bsl_revc/ezdsp5535_v1/c55xx_csl/ccs_v4.0_examples/lcd/CSL_LCDC_DiagramExample/
    6813              
    6814 001233 A500          MOV *SP(#0), T1 ; |1235| 
    6815 001235 2390  ||      MOV AR1, AC0
    6816              
    6817 001237 76FF          BFXTR #0xfffe, AC0, T0 ; |1235| 
         001239 FE40 
    6818              $C$DW$626       .dwtag  DW_TAG_TI_branch
    6819                      .dwattr $C$DW$626, DW_AT_low_pc(0x00)
    6820                      .dwattr $C$DW$626, DW_AT_name("_dataWrite")
    6821                      .dwattr $C$DW$626, DW_AT_TI_call
    6822 00123b 08F0          CALL #_dataWrite ; |1235| 
         00123d 62   
    6823                                                      ; call occurs [#_dataWrite] ; |1235| 
    6824                      .dwpsn  file "../c5535_bsl_revc/ezdsp5535_v1/c55xx_csl/ccs_v4.0_examples/lcd/CSL_LCDC_DiagramExample/
    6825 00123e A004          MOV *SP(#2), AC0 ; |1236| 
    6826 001240 A500          MOV *SP(#0), T1 ; |1236| 
    6827 001242 76FF          BFXTR #0xfffe, AC0, T0 ; |1236| 
         001244 FE40 
    6828              $C$DW$627       .dwtag  DW_TAG_TI_branch
    6829                      .dwattr $C$DW$627, DW_AT_low_pc(0x00)
    6830                      .dwattr $C$DW$627, DW_AT_name("_dataWrite")
    6831                      .dwattr $C$DW$627, DW_AT_TI_call
    6832 001246 08F0          CALL #_dataWrite ; |1236| 
TMS320C55x Assembler PC v4.4.1 Sat Sep 29 23:09:22 2018

Tools Copyright (c) 1996-2012 Texas Instruments Incorporated
lcdc_panel.asm                                                       PAGE  141

         001248 57   
    6833                                                      ; call occurs [#_dataWrite] ; |1236| 
    6834                      .dwpsn  file "../c5535_bsl_revc/ezdsp5535_v1/c55xx_csl/ccs_v4.0_examples/lcd/CSL_LCDC_DiagramExample/
    6835 001249 A004          MOV *SP(#2), AC0 ; |1237| 
    6836 00124b A500          MOV *SP(#0), T1 ; |1237| 
    6837 00124d 76FF          BFXTR #0xfffe, AC0, T0 ; |1237| 
         00124f FE40 
    6838              $C$DW$628       .dwtag  DW_TAG_TI_branch
    6839                      .dwattr $C$DW$628, DW_AT_low_pc(0x00)
    6840                      .dwattr $C$DW$628, DW_AT_name("_dataWrite")
    6841                      .dwattr $C$DW$628, DW_AT_TI_call
    6842 001251 08F0          CALL #_dataWrite ; |1237| 
         001253 4C   
    6843                                                      ; call occurs [#_dataWrite] ; |1237| 
    6844                      .dwpsn  file "../c5535_bsl_revc/ezdsp5535_v1/c55xx_csl/ccs_v4.0_examples/lcd/CSL_LCDC_DiagramExample/
    6845 001254 F704          ADD #1, *SP(#2) ; |1233| 
         001256 0001 
    6846                      .dwpsn  file "../c5535_bsl_revc/ezdsp5535_v1/c55xx_csl/ccs_v4.0_examples/lcd/CSL_LCDC_DiagramExample/
    6847 001258 A904          MOV *SP(#2), AR1 ; |1233| 
    6848 00125a 1294          CMPU AR1 < AR2, TC1 ; |1233| 
         00125c A4   
    6849 00125d 0464          BCC $C$L111,TC1 ; |1233| 
         00125f D3   
    6850                                                      ; branchcc occurs ; |1233| 
    6851 001260       $C$DW$L$_draw_262K_colorbar$31$E:
    6852 001260       $C$L112:    
    6853 001260       $C$DW$L$_draw_262K_colorbar$32$B:
    6854                      .dwpsn  file "../c5535_bsl_revc/ezdsp5535_v1/c55xx_csl/ccs_v4.0_examples/lcd/CSL_LCDC_DiagramExample/
    6855 001260 F702          ADD #1, *SP(#1) ; |1231| 
         001262 0001 
    6856                      .dwpsn  file "../c5535_bsl_revc/ezdsp5535_v1/c55xx_csl/ccs_v4.0_examples/lcd/CSL_LCDC_DiagramExample/
    6857 001264 7600          MOV #32, AR2 ; |1231| 
         001266 20A8 
    6858 001268 A902          MOV *SP(#1), AR1 ; |1231| 
    6859 00126a 1294          CMPU AR1 < AR2, TC1 ; |1231| 
         00126c A4   
    6860 00126d 0464          BCC $C$L110,TC1 ; |1231| 
         00126f B4   
    6861                                                      ; branchcc occurs ; |1231| 
    6862 001270       $C$DW$L$_draw_262K_colorbar$32$E:
    6863 001270       $C$L113:    
    6864                      .dwpsn  file "../c5535_bsl_revc/ezdsp5535_v1/c55xx_csl/ccs_v4.0_examples/lcd/CSL_LCDC_DiagramExample/
    6865 001270 3C04          MOV #0, T0
    6866                      .dwpsn  file "../c5535_bsl_revc/ezdsp5535_v1/c55xx_csl/ccs_v4.0_examples/lcd/CSL_LCDC_DiagramExample/
    6867 001272 4E03          AADD #3, SP
    6868                      .dwcfi  cfa_offset, 1
    6869              $C$DW$629       .dwtag  DW_TAG_TI_branch
    6870                      .dwattr $C$DW$629, DW_AT_low_pc(0x00)
    6871                      .dwattr $C$DW$629, DW_AT_TI_return
    6872 001274 4804          RET
    6873                                                      ; return occurs
    6874              
    6875              $C$DW$630       .dwtag  DW_TAG_TI_loop
    6876                      .dwattr $C$DW$630, DW_AT_name("F:\eZdsp_DBG\tmp1\c55x-sim2\foo\Debug\lcdc_panel.asm:$C$L110:1:1538287
    6877                      .dwattr $C$DW$630, DW_AT_TI_begin_file("../c5535_bsl_revc/ezdsp5535_v1/c55xx_csl/ccs_v4.0_examples/lc
TMS320C55x Assembler PC v4.4.1 Sat Sep 29 23:09:22 2018

Tools Copyright (c) 1996-2012 Texas Instruments Incorporated
lcdc_panel.asm                                                       PAGE  142

    6878                      .dwattr $C$DW$630, DW_AT_TI_begin_line(0x4cf)
    6879                      .dwattr $C$DW$630, DW_AT_TI_end_line(0x4d7)
    6880              $C$DW$631       .dwtag  DW_TAG_TI_loop_range
    6881                      .dwattr $C$DW$631, DW_AT_low_pc($C$DW$L$_draw_262K_colorbar$30$B)
    6882                      .dwattr $C$DW$631, DW_AT_high_pc($C$DW$L$_draw_262K_colorbar$30$E)
    6883              $C$DW$632       .dwtag  DW_TAG_TI_loop_range
    6884                      .dwattr $C$DW$632, DW_AT_low_pc($C$DW$L$_draw_262K_colorbar$32$B)
    6885                      .dwattr $C$DW$632, DW_AT_high_pc($C$DW$L$_draw_262K_colorbar$32$E)
    6886              
    6887              $C$DW$633       .dwtag  DW_TAG_TI_loop
    6888                      .dwattr $C$DW$633, DW_AT_name("F:\eZdsp_DBG\tmp1\c55x-sim2\foo\Debug\lcdc_panel.asm:$C$L111:2:1538287
    6889                      .dwattr $C$DW$633, DW_AT_TI_begin_file("../c5535_bsl_revc/ezdsp5535_v1/c55xx_csl/ccs_v4.0_examples/lc
    6890                      .dwattr $C$DW$633, DW_AT_TI_begin_line(0x4d1)
    6891                      .dwattr $C$DW$633, DW_AT_TI_end_line(0x4d6)
    6892              $C$DW$634       .dwtag  DW_TAG_TI_loop_range
    6893                      .dwattr $C$DW$634, DW_AT_low_pc($C$DW$L$_draw_262K_colorbar$31$B)
    6894                      .dwattr $C$DW$634, DW_AT_high_pc($C$DW$L$_draw_262K_colorbar$31$E)
    6895                      .dwendtag $C$DW$633
    6896              
    6897                      .dwendtag $C$DW$630
    6898              
    6899              
    6900              $C$DW$635       .dwtag  DW_TAG_TI_loop
    6901                      .dwattr $C$DW$635, DW_AT_name("F:\eZdsp_DBG\tmp1\c55x-sim2\foo\Debug\lcdc_panel.asm:$C$L106:1:1538287
    6902                      .dwattr $C$DW$635, DW_AT_TI_begin_file("../c5535_bsl_revc/ezdsp5535_v1/c55xx_csl/ccs_v4.0_examples/lc
    6903                      .dwattr $C$DW$635, DW_AT_TI_begin_line(0x4ba)
    6904                      .dwattr $C$DW$635, DW_AT_TI_end_line(0x4c2)
    6905              $C$DW$636       .dwtag  DW_TAG_TI_loop_range
    6906                      .dwattr $C$DW$636, DW_AT_low_pc($C$DW$L$_draw_262K_colorbar$26$B)
    6907                      .dwattr $C$DW$636, DW_AT_high_pc($C$DW$L$_draw_262K_colorbar$26$E)
    6908              $C$DW$637       .dwtag  DW_TAG_TI_loop_range
    6909                      .dwattr $C$DW$637, DW_AT_low_pc($C$DW$L$_draw_262K_colorbar$28$B)
    6910                      .dwattr $C$DW$637, DW_AT_high_pc($C$DW$L$_draw_262K_colorbar$28$E)
    6911              
    6912              $C$DW$638       .dwtag  DW_TAG_TI_loop
    6913                      .dwattr $C$DW$638, DW_AT_name("F:\eZdsp_DBG\tmp1\c55x-sim2\foo\Debug\lcdc_panel.asm:$C$L107:2:1538287
    6914                      .dwattr $C$DW$638, DW_AT_TI_begin_file("../c5535_bsl_revc/ezdsp5535_v1/c55xx_csl/ccs_v4.0_examples/lc
    6915                      .dwattr $C$DW$638, DW_AT_TI_begin_line(0x4bc)
    6916                      .dwattr $C$DW$638, DW_AT_TI_end_line(0x4c1)
    6917              $C$DW$639       .dwtag  DW_TAG_TI_loop_range
    6918                      .dwattr $C$DW$639, DW_AT_low_pc($C$DW$L$_draw_262K_colorbar$27$B)
    6919                      .dwattr $C$DW$639, DW_AT_high_pc($C$DW$L$_draw_262K_colorbar$27$E)
    6920                      .dwendtag $C$DW$638
    6921              
    6922                      .dwendtag $C$DW$635
    6923              
    6924              
    6925              $C$DW$640       .dwtag  DW_TAG_TI_loop
    6926                      .dwattr $C$DW$640, DW_AT_name("F:\eZdsp_DBG\tmp1\c55x-sim2\foo\Debug\lcdc_panel.asm:$C$L102:1:1538287
    6927                      .dwattr $C$DW$640, DW_AT_TI_begin_file("../c5535_bsl_revc/ezdsp5535_v1/c55xx_csl/ccs_v4.0_examples/lc
    6928                      .dwattr $C$DW$640, DW_AT_TI_begin_line(0x4a5)
    6929                      .dwattr $C$DW$640, DW_AT_TI_end_line(0x4ad)
    6930              $C$DW$641       .dwtag  DW_TAG_TI_loop_range
    6931                      .dwattr $C$DW$641, DW_AT_low_pc($C$DW$L$_draw_262K_colorbar$22$B)
    6932                      .dwattr $C$DW$641, DW_AT_high_pc($C$DW$L$_draw_262K_colorbar$22$E)
TMS320C55x Assembler PC v4.4.1 Sat Sep 29 23:09:22 2018

Tools Copyright (c) 1996-2012 Texas Instruments Incorporated
lcdc_panel.asm                                                       PAGE  143

    6933              $C$DW$642       .dwtag  DW_TAG_TI_loop_range
    6934                      .dwattr $C$DW$642, DW_AT_low_pc($C$DW$L$_draw_262K_colorbar$24$B)
    6935                      .dwattr $C$DW$642, DW_AT_high_pc($C$DW$L$_draw_262K_colorbar$24$E)
    6936              
    6937              $C$DW$643       .dwtag  DW_TAG_TI_loop
    6938                      .dwattr $C$DW$643, DW_AT_name("F:\eZdsp_DBG\tmp1\c55x-sim2\foo\Debug\lcdc_panel.asm:$C$L103:2:1538287
    6939                      .dwattr $C$DW$643, DW_AT_TI_begin_file("../c5535_bsl_revc/ezdsp5535_v1/c55xx_csl/ccs_v4.0_examples/lc
    6940                      .dwattr $C$DW$643, DW_AT_TI_begin_line(0x4a7)
    6941                      .dwattr $C$DW$643, DW_AT_TI_end_line(0x4ac)
    6942              $C$DW$644       .dwtag  DW_TAG_TI_loop_range
    6943                      .dwattr $C$DW$644, DW_AT_low_pc($C$DW$L$_draw_262K_colorbar$23$B)
    6944                      .dwattr $C$DW$644, DW_AT_high_pc($C$DW$L$_draw_262K_colorbar$23$E)
    6945                      .dwendtag $C$DW$643
    6946              
    6947                      .dwendtag $C$DW$640
    6948              
    6949              
    6950              $C$DW$645       .dwtag  DW_TAG_TI_loop
    6951                      .dwattr $C$DW$645, DW_AT_name("F:\eZdsp_DBG\tmp1\c55x-sim2\foo\Debug\lcdc_panel.asm:$C$L98:1:15382877
    6952                      .dwattr $C$DW$645, DW_AT_TI_begin_file("../c5535_bsl_revc/ezdsp5535_v1/c55xx_csl/ccs_v4.0_examples/lc
    6953                      .dwattr $C$DW$645, DW_AT_TI_begin_line(0x490)
    6954                      .dwattr $C$DW$645, DW_AT_TI_end_line(0x498)
    6955              $C$DW$646       .dwtag  DW_TAG_TI_loop_range
    6956                      .dwattr $C$DW$646, DW_AT_low_pc($C$DW$L$_draw_262K_colorbar$18$B)
    6957                      .dwattr $C$DW$646, DW_AT_high_pc($C$DW$L$_draw_262K_colorbar$18$E)
    6958              $C$DW$647       .dwtag  DW_TAG_TI_loop_range
    6959                      .dwattr $C$DW$647, DW_AT_low_pc($C$DW$L$_draw_262K_colorbar$20$B)
    6960                      .dwattr $C$DW$647, DW_AT_high_pc($C$DW$L$_draw_262K_colorbar$20$E)
    6961              
    6962              $C$DW$648       .dwtag  DW_TAG_TI_loop
    6963                      .dwattr $C$DW$648, DW_AT_name("F:\eZdsp_DBG\tmp1\c55x-sim2\foo\Debug\lcdc_panel.asm:$C$L99:2:15382877
    6964                      .dwattr $C$DW$648, DW_AT_TI_begin_file("../c5535_bsl_revc/ezdsp5535_v1/c55xx_csl/ccs_v4.0_examples/lc
    6965                      .dwattr $C$DW$648, DW_AT_TI_begin_line(0x492)
    6966                      .dwattr $C$DW$648, DW_AT_TI_end_line(0x497)
    6967              $C$DW$649       .dwtag  DW_TAG_TI_loop_range
    6968                      .dwattr $C$DW$649, DW_AT_low_pc($C$DW$L$_draw_262K_colorbar$19$B)
    6969                      .dwattr $C$DW$649, DW_AT_high_pc($C$DW$L$_draw_262K_colorbar$19$E)
    6970                      .dwendtag $C$DW$648
    6971              
    6972                      .dwendtag $C$DW$645
    6973              
    6974              
    6975              $C$DW$650       .dwtag  DW_TAG_TI_loop
    6976                      .dwattr $C$DW$650, DW_AT_name("F:\eZdsp_DBG\tmp1\c55x-sim2\foo\Debug\lcdc_panel.asm:$C$L94:1:15382877
    6977                      .dwattr $C$DW$650, DW_AT_TI_begin_file("../c5535_bsl_revc/ezdsp5535_v1/c55xx_csl/ccs_v4.0_examples/lc
    6978                      .dwattr $C$DW$650, DW_AT_TI_begin_line(0x47b)
    6979                      .dwattr $C$DW$650, DW_AT_TI_end_line(0x483)
    6980              $C$DW$651       .dwtag  DW_TAG_TI_loop_range
    6981                      .dwattr $C$DW$651, DW_AT_low_pc($C$DW$L$_draw_262K_colorbar$14$B)
    6982                      .dwattr $C$DW$651, DW_AT_high_pc($C$DW$L$_draw_262K_colorbar$14$E)
    6983              $C$DW$652       .dwtag  DW_TAG_TI_loop_range
    6984                      .dwattr $C$DW$652, DW_AT_low_pc($C$DW$L$_draw_262K_colorbar$16$B)
    6985                      .dwattr $C$DW$652, DW_AT_high_pc($C$DW$L$_draw_262K_colorbar$16$E)
    6986              
    6987              $C$DW$653       .dwtag  DW_TAG_TI_loop
TMS320C55x Assembler PC v4.4.1 Sat Sep 29 23:09:22 2018

Tools Copyright (c) 1996-2012 Texas Instruments Incorporated
lcdc_panel.asm                                                       PAGE  144

    6988                      .dwattr $C$DW$653, DW_AT_name("F:\eZdsp_DBG\tmp1\c55x-sim2\foo\Debug\lcdc_panel.asm:$C$L95:2:15382877
    6989                      .dwattr $C$DW$653, DW_AT_TI_begin_file("../c5535_bsl_revc/ezdsp5535_v1/c55xx_csl/ccs_v4.0_examples/lc
    6990                      .dwattr $C$DW$653, DW_AT_TI_begin_line(0x47d)
    6991                      .dwattr $C$DW$653, DW_AT_TI_end_line(0x482)
    6992              $C$DW$654       .dwtag  DW_TAG_TI_loop_range
    6993                      .dwattr $C$DW$654, DW_AT_low_pc($C$DW$L$_draw_262K_colorbar$15$B)
    6994                      .dwattr $C$DW$654, DW_AT_high_pc($C$DW$L$_draw_262K_colorbar$15$E)
    6995                      .dwendtag $C$DW$653
    6996              
    6997                      .dwendtag $C$DW$650
    6998              
    6999              
    7000              $C$DW$655       .dwtag  DW_TAG_TI_loop
    7001                      .dwattr $C$DW$655, DW_AT_name("F:\eZdsp_DBG\tmp1\c55x-sim2\foo\Debug\lcdc_panel.asm:$C$L90:1:15382877
    7002                      .dwattr $C$DW$655, DW_AT_TI_begin_file("../c5535_bsl_revc/ezdsp5535_v1/c55xx_csl/ccs_v4.0_examples/lc
    7003                      .dwattr $C$DW$655, DW_AT_TI_begin_line(0x466)
    7004                      .dwattr $C$DW$655, DW_AT_TI_end_line(0x46e)
    7005              $C$DW$656       .dwtag  DW_TAG_TI_loop_range
    7006                      .dwattr $C$DW$656, DW_AT_low_pc($C$DW$L$_draw_262K_colorbar$10$B)
    7007                      .dwattr $C$DW$656, DW_AT_high_pc($C$DW$L$_draw_262K_colorbar$10$E)
    7008              $C$DW$657       .dwtag  DW_TAG_TI_loop_range
    7009                      .dwattr $C$DW$657, DW_AT_low_pc($C$DW$L$_draw_262K_colorbar$12$B)
    7010                      .dwattr $C$DW$657, DW_AT_high_pc($C$DW$L$_draw_262K_colorbar$12$E)
    7011              
    7012              $C$DW$658       .dwtag  DW_TAG_TI_loop
    7013                      .dwattr $C$DW$658, DW_AT_name("F:\eZdsp_DBG\tmp1\c55x-sim2\foo\Debug\lcdc_panel.asm:$C$L91:2:15382877
    7014                      .dwattr $C$DW$658, DW_AT_TI_begin_file("../c5535_bsl_revc/ezdsp5535_v1/c55xx_csl/ccs_v4.0_examples/lc
    7015                      .dwattr $C$DW$658, DW_AT_TI_begin_line(0x468)
    7016                      .dwattr $C$DW$658, DW_AT_TI_end_line(0x46d)
    7017              $C$DW$659       .dwtag  DW_TAG_TI_loop_range
    7018                      .dwattr $C$DW$659, DW_AT_low_pc($C$DW$L$_draw_262K_colorbar$11$B)
    7019                      .dwattr $C$DW$659, DW_AT_high_pc($C$DW$L$_draw_262K_colorbar$11$E)
    7020                      .dwendtag $C$DW$658
    7021              
    7022                      .dwendtag $C$DW$655
    7023              
    7024              
    7025              $C$DW$660       .dwtag  DW_TAG_TI_loop
    7026                      .dwattr $C$DW$660, DW_AT_name("F:\eZdsp_DBG\tmp1\c55x-sim2\foo\Debug\lcdc_panel.asm:$C$L86:1:15382877
    7027                      .dwattr $C$DW$660, DW_AT_TI_begin_file("../c5535_bsl_revc/ezdsp5535_v1/c55xx_csl/ccs_v4.0_examples/lc
    7028                      .dwattr $C$DW$660, DW_AT_TI_begin_line(0x451)
    7029                      .dwattr $C$DW$660, DW_AT_TI_end_line(0x459)
    7030              $C$DW$661       .dwtag  DW_TAG_TI_loop_range
    7031                      .dwattr $C$DW$661, DW_AT_low_pc($C$DW$L$_draw_262K_colorbar$6$B)
    7032                      .dwattr $C$DW$661, DW_AT_high_pc($C$DW$L$_draw_262K_colorbar$6$E)
    7033              $C$DW$662       .dwtag  DW_TAG_TI_loop_range
    7034                      .dwattr $C$DW$662, DW_AT_low_pc($C$DW$L$_draw_262K_colorbar$8$B)
    7035                      .dwattr $C$DW$662, DW_AT_high_pc($C$DW$L$_draw_262K_colorbar$8$E)
    7036              
    7037              $C$DW$663       .dwtag  DW_TAG_TI_loop
    7038                      .dwattr $C$DW$663, DW_AT_name("F:\eZdsp_DBG\tmp1\c55x-sim2\foo\Debug\lcdc_panel.asm:$C$L87:2:15382877
    7039                      .dwattr $C$DW$663, DW_AT_TI_begin_file("../c5535_bsl_revc/ezdsp5535_v1/c55xx_csl/ccs_v4.0_examples/lc
    7040                      .dwattr $C$DW$663, DW_AT_TI_begin_line(0x453)
    7041                      .dwattr $C$DW$663, DW_AT_TI_end_line(0x458)
    7042              $C$DW$664       .dwtag  DW_TAG_TI_loop_range
TMS320C55x Assembler PC v4.4.1 Sat Sep 29 23:09:22 2018

Tools Copyright (c) 1996-2012 Texas Instruments Incorporated
lcdc_panel.asm                                                       PAGE  145

    7043                      .dwattr $C$DW$664, DW_AT_low_pc($C$DW$L$_draw_262K_colorbar$7$B)
    7044                      .dwattr $C$DW$664, DW_AT_high_pc($C$DW$L$_draw_262K_colorbar$7$E)
    7045                      .dwendtag $C$DW$663
    7046              
    7047                      .dwendtag $C$DW$660
    7048              
    7049              
    7050              $C$DW$665       .dwtag  DW_TAG_TI_loop
    7051                      .dwattr $C$DW$665, DW_AT_name("F:\eZdsp_DBG\tmp1\c55x-sim2\foo\Debug\lcdc_panel.asm:$C$L82:1:15382877
    7052                      .dwattr $C$DW$665, DW_AT_TI_begin_file("../c5535_bsl_revc/ezdsp5535_v1/c55xx_csl/ccs_v4.0_examples/lc
    7053                      .dwattr $C$DW$665, DW_AT_TI_begin_line(0x43c)
    7054                      .dwattr $C$DW$665, DW_AT_TI_end_line(0x444)
    7055              $C$DW$666       .dwtag  DW_TAG_TI_loop_range
    7056                      .dwattr $C$DW$666, DW_AT_low_pc($C$DW$L$_draw_262K_colorbar$2$B)
    7057                      .dwattr $C$DW$666, DW_AT_high_pc($C$DW$L$_draw_262K_colorbar$2$E)
    7058              $C$DW$667       .dwtag  DW_TAG_TI_loop_range
    7059                      .dwattr $C$DW$667, DW_AT_low_pc($C$DW$L$_draw_262K_colorbar$4$B)
    7060                      .dwattr $C$DW$667, DW_AT_high_pc($C$DW$L$_draw_262K_colorbar$4$E)
    7061              
    7062              $C$DW$668       .dwtag  DW_TAG_TI_loop
    7063                      .dwattr $C$DW$668, DW_AT_name("F:\eZdsp_DBG\tmp1\c55x-sim2\foo\Debug\lcdc_panel.asm:$C$L83:2:15382877
    7064                      .dwattr $C$DW$668, DW_AT_TI_begin_file("../c5535_bsl_revc/ezdsp5535_v1/c55xx_csl/ccs_v4.0_examples/lc
    7065                      .dwattr $C$DW$668, DW_AT_TI_begin_line(0x43e)
    7066                      .dwattr $C$DW$668, DW_AT_TI_end_line(0x443)
    7067              $C$DW$669       .dwtag  DW_TAG_TI_loop_range
    7068                      .dwattr $C$DW$669, DW_AT_low_pc($C$DW$L$_draw_262K_colorbar$3$B)
    7069                      .dwattr $C$DW$669, DW_AT_high_pc($C$DW$L$_draw_262K_colorbar$3$E)
    7070                      .dwendtag $C$DW$668
    7071              
    7072                      .dwendtag $C$DW$665
    7073              
    7074                      .dwattr $C$DW$528, DW_AT_TI_end_file("../c5535_bsl_revc/ezdsp5535_v1/c55xx_csl/ccs_v4.0_examples/lcd/
    7075                      .dwattr $C$DW$528, DW_AT_TI_end_line(0x4d9)
    7076                      .dwattr $C$DW$528, DW_AT_TI_end_column(0x01)
    7077                      .dwendentry
    7078                      .dwendtag $C$DW$528
    7079              
    7080 001276               .sect   ".text"
    7081                      .align 4
    7082                      .global _draw_65K_colorbar
    7083              
    7084              $C$DW$670       .dwtag  DW_TAG_subprogram, DW_AT_name("draw_65K_colorbar")
    7085                      .dwattr $C$DW$670, DW_AT_low_pc(_draw_65K_colorbar)
    7086                      .dwattr $C$DW$670, DW_AT_high_pc(0x00)
    7087                      .dwattr $C$DW$670, DW_AT_TI_symbol_name("_draw_65K_colorbar")
    7088                      .dwattr $C$DW$670, DW_AT_external
    7089                      .dwattr $C$DW$670, DW_AT_type(*$C$DW$T$29)
    7090                      .dwattr $C$DW$670, DW_AT_TI_begin_file("../c5535_bsl_revc/ezdsp5535_v1/c55xx_csl/ccs_v4.0_examples/lc
    7091                      .dwattr $C$DW$670, DW_AT_TI_begin_line(0x4e1)
    7092                      .dwattr $C$DW$670, DW_AT_TI_begin_column(0x07)
    7093                      .dwattr $C$DW$670, DW_AT_TI_max_frame_size(0x04)
    7094                      .dwpsn  file "../c5535_bsl_revc/ezdsp5535_v1/c55xx_csl/ccs_v4.0_examples/lcd/CSL_LCDC_DiagramExample/
    7095              
    7096                      .dwfde $C$DW$CIE, _draw_65K_colorbar
    7097              $C$DW$671       .dwtag  DW_TAG_formal_parameter, DW_AT_name("cs_flag")
TMS320C55x Assembler PC v4.4.1 Sat Sep 29 23:09:22 2018

Tools Copyright (c) 1996-2012 Texas Instruments Incorporated
lcdc_panel.asm                                                       PAGE  146

    7098                      .dwattr $C$DW$671, DW_AT_TI_symbol_name("_cs_flag")
    7099                      .dwattr $C$DW$671, DW_AT_type(*$C$DW$T$19)
    7100                      .dwattr $C$DW$671, DW_AT_location[DW_OP_reg12]
    7101              ;*******************************************************************************
    7102              ;* FUNCTION NAME: draw_65K_colorbar                                            *
    7103              ;*                                                                             *
    7104              ;*   Function Uses Regs : T0,T1,AR1,AR2,SP,CARRY,TC1,M40,SATA,SATD,RDM,FRCT,   *
    7105              ;*                        SMUL                                                 *
    7106              ;*   Stack Frame        : Compact (No Frame Pointer, w/ debug)                 *
    7107              ;*   Total Frame Size   : 4 words                                              *
    7108              ;*                        (1 return address/alignment)                         *
    7109              ;*                        (3 local values)                                     *
    7110              ;*   Min System Stack   : 1 word                                               *
    7111              ;*******************************************************************************
    7112 001278       _draw_65K_colorbar:
    7113                      .dwcfi  cfa_offset, 1
    7114                      .dwcfi  save_reg_to_mem, 91, -1
    7115 001278 4EFD          AADD #-3, SP
    7116                      .dwcfi  cfa_offset, 4
    7117              $C$DW$672       .dwtag  DW_TAG_variable, DW_AT_name("cs_flag")
    7118                      .dwattr $C$DW$672, DW_AT_TI_symbol_name("_cs_flag")
    7119                      .dwattr $C$DW$672, DW_AT_type(*$C$DW$T$19)
    7120                      .dwattr $C$DW$672, DW_AT_location[DW_OP_bregx 0x24 0]
    7121              $C$DW$673       .dwtag  DW_TAG_variable, DW_AT_name("i")
    7122                      .dwattr $C$DW$673, DW_AT_TI_symbol_name("_i")
    7123                      .dwattr $C$DW$673, DW_AT_type(*$C$DW$T$19)
    7124                      .dwattr $C$DW$673, DW_AT_location[DW_OP_bregx 0x24 1]
    7125              $C$DW$674       .dwtag  DW_TAG_variable, DW_AT_name("j")
    7126                      .dwattr $C$DW$674, DW_AT_TI_symbol_name("_j")
    7127                      .dwattr $C$DW$674, DW_AT_type(*$C$DW$T$19)
    7128                      .dwattr $C$DW$674, DW_AT_location[DW_OP_bregx 0x24 2]
    7129 00127a C400          MOV T0, *SP(#0) ; |1250| 
    7130                      .dwpsn  file "../c5535_bsl_revc/ezdsp5535_v1/c55xx_csl/ccs_v4.0_examples/lcd/CSL_LCDC_DiagramExample/
    7131 00127c 7600          MOV #21, T0 ; |1256| 
         00127e 1548 
    7132 001280 A500          MOV *SP(#0), T1 ; |1256| 
    7133              $C$DW$675       .dwtag  DW_TAG_TI_branch
    7134                      .dwattr $C$DW$675, DW_AT_low_pc(0x00)
    7135                      .dwattr $C$DW$675, DW_AT_name("_cmdWrite")
    7136                      .dwattr $C$DW$675, DW_AT_TI_call
    7137 001282 08F0          CALL #_cmdWrite ; |1256| 
         001284 03   
    7138                                                      ; call occurs [#_cmdWrite] ; |1256| 
    7139                      .dwpsn  file "../c5535_bsl_revc/ezdsp5535_v1/c55xx_csl/ccs_v4.0_examples/lcd/CSL_LCDC_DiagramExample/
    7140 001285 A500          MOV *SP(#0), T1 ; |1257| 
    7141              $C$DW$676       .dwtag  DW_TAG_TI_branch
    7142                      .dwattr $C$DW$676, DW_AT_low_pc(0x00)
    7143                      .dwattr $C$DW$676, DW_AT_name("_dataWrite")
    7144                      .dwattr $C$DW$676, DW_AT_TI_call
    7145              
    7146 001287 08F0          CALL #_dataWrite ; |1257| 
         001289 14   
    7147 00128a 3D04  ||      MOV #0, T0
    7148              
    7149                                                      ; call occurs [#_dataWrite] ; |1257| 
TMS320C55x Assembler PC v4.4.1 Sat Sep 29 23:09:22 2018

Tools Copyright (c) 1996-2012 Texas Instruments Incorporated
lcdc_panel.asm                                                       PAGE  147

    7150                      .dwpsn  file "../c5535_bsl_revc/ezdsp5535_v1/c55xx_csl/ccs_v4.0_examples/lcd/CSL_LCDC_DiagramExample/
    7151 00128c 7600          MOV #31, T0 ; |1258| 
         00128e 1F48 
    7152 001290 A500          MOV *SP(#0), T1 ; |1258| 
    7153              $C$DW$677       .dwtag  DW_TAG_TI_branch
    7154                      .dwattr $C$DW$677, DW_AT_low_pc(0x00)
    7155                      .dwattr $C$DW$677, DW_AT_name("_dataWrite")
    7156                      .dwattr $C$DW$677, DW_AT_TI_call
    7157 001292 08F0          CALL #_dataWrite ; |1258| 
         001294 0B   
    7158                                                      ; call occurs [#_dataWrite] ; |1258| 
    7159                      .dwpsn  file "../c5535_bsl_revc/ezdsp5535_v1/c55xx_csl/ccs_v4.0_examples/lcd/CSL_LCDC_DiagramExample/
    7160 001295 7600          MOV #117, T0 ; |1260| 
         001297 7548 
    7161 001299 A500          MOV *SP(#0), T1 ; |1260| 
    7162              $C$DW$678       .dwtag  DW_TAG_TI_branch
    7163                      .dwattr $C$DW$678, DW_AT_low_pc(0x00)
    7164                      .dwattr $C$DW$678, DW_AT_name("_cmdWrite")
    7165                      .dwattr $C$DW$678, DW_AT_TI_call
    7166 00129b 08EF          CALL #_cmdWrite ; |1260| 
         00129d EA   
    7167                                                      ; call occurs [#_cmdWrite] ; |1260| 
    7168                      .dwpsn  file "../c5535_bsl_revc/ezdsp5535_v1/c55xx_csl/ccs_v4.0_examples/lcd/CSL_LCDC_DiagramExample/
    7169 00129e A500          MOV *SP(#0), T1 ; |1261| 
    7170              $C$DW$679       .dwtag  DW_TAG_TI_branch
    7171                      .dwattr $C$DW$679, DW_AT_low_pc(0x00)
    7172                      .dwattr $C$DW$679, DW_AT_name("_dataWrite")
    7173                      .dwattr $C$DW$679, DW_AT_TI_call
    7174              
    7175 0012a0 08EF          CALL #_dataWrite ; |1261| 
         0012a2 FB   
    7176 0012a3 3D04  ||      MOV #0, T0
    7177              
    7178                                                      ; call occurs [#_dataWrite] ; |1261| 
    7179                      .dwpsn  file "../c5535_bsl_revc/ezdsp5535_v1/c55xx_csl/ccs_v4.0_examples/lcd/CSL_LCDC_DiagramExample/
    7180 0012a5 7600          MOV #127, T0 ; |1262| 
         0012a7 7F48 
    7181 0012a9 A500          MOV *SP(#0), T1 ; |1262| 
    7182              $C$DW$680       .dwtag  DW_TAG_TI_branch
    7183                      .dwattr $C$DW$680, DW_AT_low_pc(0x00)
    7184                      .dwattr $C$DW$680, DW_AT_name("_dataWrite")
    7185                      .dwattr $C$DW$680, DW_AT_TI_call
    7186 0012ab 08EF          CALL #_dataWrite ; |1262| 
         0012ad F2   
    7187                                                      ; call occurs [#_dataWrite] ; |1262| 
    7188                      .dwpsn  file "../c5535_bsl_revc/ezdsp5535_v1/c55xx_csl/ccs_v4.0_examples/lcd/CSL_LCDC_DiagramExample/
    7189 0012ae 7600          MOV #92, T0 ; |1264| 
         0012b0 5C48 
    7190 0012b2 A500          MOV *SP(#0), T1 ; |1264| 
    7191              $C$DW$681       .dwtag  DW_TAG_TI_branch
    7192                      .dwattr $C$DW$681, DW_AT_low_pc(0x00)
    7193                      .dwattr $C$DW$681, DW_AT_name("_cmdWrite")
    7194                      .dwattr $C$DW$681, DW_AT_TI_call
    7195 0012b4 08EF          CALL #_cmdWrite ; |1264| 
         0012b6 D1   
TMS320C55x Assembler PC v4.4.1 Sat Sep 29 23:09:22 2018

Tools Copyright (c) 1996-2012 Texas Instruments Incorporated
lcdc_panel.asm                                                       PAGE  148

    7196                                                      ; call occurs [#_cmdWrite] ; |1264| 
    7197                      .dwpsn  file "../c5535_bsl_revc/ezdsp5535_v1/c55xx_csl/ccs_v4.0_examples/lcd/CSL_LCDC_DiagramExample/
    7198 0012b7 E602          MOV #0, *SP(#1) ; |1266| 
         0012b9 00   
    7199                      .dwpsn  file "../c5535_bsl_revc/ezdsp5535_v1/c55xx_csl/ccs_v4.0_examples/lcd/CSL_LCDC_DiagramExample/
    7200 0012ba 7600          MOV #32, AR2 ; |1266| 
         0012bc 20A8 
    7201 0012be A902          MOV *SP(#1), AR1 ; |1266| 
    7202 0012c0 1298          CMPU AR1 >= AR2, TC1 ; |1266| 
         0012c2 A4   
    7203 0012c3 0464          BCC $C$L117,TC1 ; |1266| 
         0012c5 39   
    7204                                                      ; branchcc occurs ; |1266| 
    7205 0012c6       $C$L114:    
    7206 0012c6       $C$DW$L$_draw_65K_colorbar$2$B:
    7207                      .dwpsn  file "../c5535_bsl_revc/ezdsp5535_v1/c55xx_csl/ccs_v4.0_examples/lcd/CSL_LCDC_DiagramExample/
    7208 0012c6 E604          MOV #0, *SP(#2) ; |1268| 
         0012c8 00   
    7209                      .dwpsn  file "../c5535_bsl_revc/ezdsp5535_v1/c55xx_csl/ccs_v4.0_examples/lcd/CSL_LCDC_DiagramExample/
    7210 0012c9 7600          MOV #128, AR2 ; |1268| 
         0012cb 80A8 
    7211 0012cd A904          MOV *SP(#2), AR1 ; |1268| 
    7212 0012cf 1298          CMPU AR1 >= AR2, TC1 ; |1268| 
         0012d1 A4   
    7213 0012d2 0464          BCC $C$L116,TC1 ; |1268| 
         0012d4 1A   
    7214                                                      ; branchcc occurs ; |1268| 
    7215 0012d5       $C$DW$L$_draw_65K_colorbar$2$E:
    7216 0012d5       $C$L115:    
    7217 0012d5       $C$DW$L$_draw_65K_colorbar$3$B:
    7218                      .dwpsn  file "../c5535_bsl_revc/ezdsp5535_v1/c55xx_csl/ccs_v4.0_examples/lcd/CSL_LCDC_DiagramExample/
    7219 0012d5 A500          MOV *SP(#0), T1 ; |1270| 
    7220 0012d7 7600          MOV #255, T0 ; |1270| 
         0012d9 FF48 
    7221              $C$DW$682       .dwtag  DW_TAG_TI_branch
    7222                      .dwattr $C$DW$682, DW_AT_low_pc(0x00)
    7223                      .dwattr $C$DW$682, DW_AT_name("_dataWrite")
    7224                      .dwattr $C$DW$682, DW_AT_TI_call
    7225 0012db 08EF          CALL #_dataWrite ; |1270| 
         0012dd C2   
    7226                                                      ; call occurs [#_dataWrite] ; |1270| 
    7227                      .dwpsn  file "../c5535_bsl_revc/ezdsp5535_v1/c55xx_csl/ccs_v4.0_examples/lcd/CSL_LCDC_DiagramExample/
    7228 0012de A500          MOV *SP(#0), T1 ; |1271| 
    7229              $C$DW$683       .dwtag  DW_TAG_TI_branch
    7230                      .dwattr $C$DW$683, DW_AT_low_pc(0x00)
    7231                      .dwattr $C$DW$683, DW_AT_name("_dataWrite")
    7232                      .dwattr $C$DW$683, DW_AT_TI_call
    7233 0012e0 08EF          CALL #_dataWrite ; |1271| 
         0012e2 BD   
    7234                                                      ; call occurs [#_dataWrite] ; |1271| 
    7235                      .dwpsn  file "../c5535_bsl_revc/ezdsp5535_v1/c55xx_csl/ccs_v4.0_examples/lcd/CSL_LCDC_DiagramExample/
    7236 0012e3 F704          ADD #1, *SP(#2) ; |1268| 
         0012e5 0001 
    7237                      .dwpsn  file "../c5535_bsl_revc/ezdsp5535_v1/c55xx_csl/ccs_v4.0_examples/lcd/CSL_LCDC_DiagramExample/
    7238 0012e7 A904          MOV *SP(#2), AR1 ; |1268| 
TMS320C55x Assembler PC v4.4.1 Sat Sep 29 23:09:22 2018

Tools Copyright (c) 1996-2012 Texas Instruments Incorporated
lcdc_panel.asm                                                       PAGE  149

    7239 0012e9 1294          CMPU AR1 < AR2, TC1 ; |1268| 
         0012eb A4   
    7240 0012ec 0464          BCC $C$L115,TC1 ; |1268| 
         0012ee E6   
    7241                                                      ; branchcc occurs ; |1268| 
    7242 0012ef       $C$DW$L$_draw_65K_colorbar$3$E:
    7243 0012ef       $C$L116:    
    7244 0012ef       $C$DW$L$_draw_65K_colorbar$4$B:
    7245                      .dwpsn  file "../c5535_bsl_revc/ezdsp5535_v1/c55xx_csl/ccs_v4.0_examples/lcd/CSL_LCDC_DiagramExample/
    7246 0012ef F702          ADD #1, *SP(#1) ; |1266| 
         0012f1 0001 
    7247                      .dwpsn  file "../c5535_bsl_revc/ezdsp5535_v1/c55xx_csl/ccs_v4.0_examples/lcd/CSL_LCDC_DiagramExample/
    7248 0012f3 7600          MOV #32, AR2 ; |1266| 
         0012f5 20A8 
    7249 0012f7 A902          MOV *SP(#1), AR1 ; |1266| 
    7250 0012f9 1294          CMPU AR1 < AR2, TC1 ; |1266| 
         0012fb A4   
    7251 0012fc 0464          BCC $C$L114,TC1 ; |1266| 
         0012fe C7   
    7252                                                      ; branchcc occurs ; |1266| 
    7253 0012ff       $C$DW$L$_draw_65K_colorbar$4$E:
    7254 0012ff       $C$L117:    
    7255                      .dwpsn  file "../c5535_bsl_revc/ezdsp5535_v1/c55xx_csl/ccs_v4.0_examples/lcd/CSL_LCDC_DiagramExample/
    7256 0012ff A500          MOV *SP(#0), T1 ; |1275| 
    7257 001301 7600          MOV #21, T0 ; |1275| 
         001303 1548 
    7258              $C$DW$684       .dwtag  DW_TAG_TI_branch
    7259                      .dwattr $C$DW$684, DW_AT_low_pc(0x00)
    7260                      .dwattr $C$DW$684, DW_AT_name("_cmdWrite")
    7261                      .dwattr $C$DW$684, DW_AT_TI_call
    7262 001305 08EF          CALL #_cmdWrite ; |1275| 
         001307 80   
    7263                                                      ; call occurs [#_cmdWrite] ; |1275| 
    7264                      .dwpsn  file "../c5535_bsl_revc/ezdsp5535_v1/c55xx_csl/ccs_v4.0_examples/lcd/CSL_LCDC_DiagramExample/
    7265 001308 7600          MOV #32, T0 ; |1276| 
         00130a 2048 
    7266 00130c A500          MOV *SP(#0), T1 ; |1276| 
    7267              $C$DW$685       .dwtag  DW_TAG_TI_branch
    7268                      .dwattr $C$DW$685, DW_AT_low_pc(0x00)
    7269                      .dwattr $C$DW$685, DW_AT_name("_dataWrite")
    7270                      .dwattr $C$DW$685, DW_AT_TI_call
    7271 00130e 08EF          CALL #_dataWrite ; |1276| 
         001310 8F   
    7272                                                      ; call occurs [#_dataWrite] ; |1276| 
    7273                      .dwpsn  file "../c5535_bsl_revc/ezdsp5535_v1/c55xx_csl/ccs_v4.0_examples/lcd/CSL_LCDC_DiagramExample/
    7274 001311 7600          MOV #63, T0 ; |1277| 
         001313 3F48 
    7275 001315 A500          MOV *SP(#0), T1 ; |1277| 
    7276              $C$DW$686       .dwtag  DW_TAG_TI_branch
    7277                      .dwattr $C$DW$686, DW_AT_low_pc(0x00)
    7278                      .dwattr $C$DW$686, DW_AT_name("_dataWrite")
    7279                      .dwattr $C$DW$686, DW_AT_TI_call
    7280 001317 08EF          CALL #_dataWrite ; |1277| 
         001319 86   
    7281                                                      ; call occurs [#_dataWrite] ; |1277| 
TMS320C55x Assembler PC v4.4.1 Sat Sep 29 23:09:22 2018

Tools Copyright (c) 1996-2012 Texas Instruments Incorporated
lcdc_panel.asm                                                       PAGE  150

    7282                      .dwpsn  file "../c5535_bsl_revc/ezdsp5535_v1/c55xx_csl/ccs_v4.0_examples/lcd/CSL_LCDC_DiagramExample/
    7283 00131a 7600          MOV #117, T0 ; |1279| 
         00131c 7548 
    7284 00131e A500          MOV *SP(#0), T1 ; |1279| 
    7285              $C$DW$687       .dwtag  DW_TAG_TI_branch
    7286                      .dwattr $C$DW$687, DW_AT_low_pc(0x00)
    7287                      .dwattr $C$DW$687, DW_AT_name("_cmdWrite")
    7288                      .dwattr $C$DW$687, DW_AT_TI_call
    7289 001320 08EF          CALL #_cmdWrite ; |1279| 
         001322 65   
    7290                                                      ; call occurs [#_cmdWrite] ; |1279| 
    7291                      .dwpsn  file "../c5535_bsl_revc/ezdsp5535_v1/c55xx_csl/ccs_v4.0_examples/lcd/CSL_LCDC_DiagramExample/
    7292 001323 A500          MOV *SP(#0), T1 ; |1280| 
    7293              $C$DW$688       .dwtag  DW_TAG_TI_branch
    7294                      .dwattr $C$DW$688, DW_AT_low_pc(0x00)
    7295                      .dwattr $C$DW$688, DW_AT_name("_dataWrite")
    7296                      .dwattr $C$DW$688, DW_AT_TI_call
    7297              
    7298 001325 08EF          CALL #_dataWrite ; |1280| 
         001327 76   
    7299 001328 3D04  ||      MOV #0, T0
    7300              
    7301                                                      ; call occurs [#_dataWrite] ; |1280| 
    7302                      .dwpsn  file "../c5535_bsl_revc/ezdsp5535_v1/c55xx_csl/ccs_v4.0_examples/lcd/CSL_LCDC_DiagramExample/
    7303 00132a 7600          MOV #127, T0 ; |1281| 
         00132c 7F48 
    7304 00132e A500          MOV *SP(#0), T1 ; |1281| 
    7305              $C$DW$689       .dwtag  DW_TAG_TI_branch
    7306                      .dwattr $C$DW$689, DW_AT_low_pc(0x00)
    7307                      .dwattr $C$DW$689, DW_AT_name("_dataWrite")
    7308                      .dwattr $C$DW$689, DW_AT_TI_call
    7309 001330 08EF          CALL #_dataWrite ; |1281| 
         001332 6D   
    7310                                                      ; call occurs [#_dataWrite] ; |1281| 
    7311                      .dwpsn  file "../c5535_bsl_revc/ezdsp5535_v1/c55xx_csl/ccs_v4.0_examples/lcd/CSL_LCDC_DiagramExample/
    7312 001333 7600          MOV #92, T0 ; |1283| 
         001335 5C48 
    7313 001337 A500          MOV *SP(#0), T1 ; |1283| 
    7314              $C$DW$690       .dwtag  DW_TAG_TI_branch
    7315                      .dwattr $C$DW$690, DW_AT_low_pc(0x00)
    7316                      .dwattr $C$DW$690, DW_AT_name("_cmdWrite")
    7317                      .dwattr $C$DW$690, DW_AT_TI_call
    7318 001339 08EF          CALL #_cmdWrite ; |1283| 
         00133b 4C   
    7319                                                      ; call occurs [#_cmdWrite] ; |1283| 
    7320                      .dwpsn  file "../c5535_bsl_revc/ezdsp5535_v1/c55xx_csl/ccs_v4.0_examples/lcd/CSL_LCDC_DiagramExample/
    7321 00133c E602          MOV #0, *SP(#1) ; |1285| 
         00133e 00   
    7322                      .dwpsn  file "../c5535_bsl_revc/ezdsp5535_v1/c55xx_csl/ccs_v4.0_examples/lcd/CSL_LCDC_DiagramExample/
    7323 00133f 7600          MOV #32, AR2 ; |1285| 
         001341 20A8 
    7324 001343 A902          MOV *SP(#1), AR1 ; |1285| 
    7325 001345 1298          CMPU AR1 >= AR2, TC1 ; |1285| 
         001347 A4   
    7326 001348 0464          BCC $C$L121,TC1 ; |1285| 
TMS320C55x Assembler PC v4.4.1 Sat Sep 29 23:09:22 2018

Tools Copyright (c) 1996-2012 Texas Instruments Incorporated
lcdc_panel.asm                                                       PAGE  151

         00134a 3B   
    7327                                                      ; branchcc occurs ; |1285| 
    7328 00134b       $C$L118:    
    7329 00134b       $C$DW$L$_draw_65K_colorbar$6$B:
    7330                      .dwpsn  file "../c5535_bsl_revc/ezdsp5535_v1/c55xx_csl/ccs_v4.0_examples/lcd/CSL_LCDC_DiagramExample/
    7331 00134b E604          MOV #0, *SP(#2) ; |1287| 
         00134d 00   
    7332                      .dwpsn  file "../c5535_bsl_revc/ezdsp5535_v1/c55xx_csl/ccs_v4.0_examples/lcd/CSL_LCDC_DiagramExample/
    7333 00134e 7600          MOV #128, AR2 ; |1287| 
         001350 80A8 
    7334 001352 A904          MOV *SP(#2), AR1 ; |1287| 
    7335 001354 1298          CMPU AR1 >= AR2, TC1 ; |1287| 
         001356 A4   
    7336 001357 0464          BCC $C$L120,TC1 ; |1287| 
         001359 1C   
    7337                                                      ; branchcc occurs ; |1287| 
    7338 00135a       $C$DW$L$_draw_65K_colorbar$6$E:
    7339 00135a       $C$L119:    
    7340 00135a       $C$DW$L$_draw_65K_colorbar$7$B:
    7341                      .dwpsn  file "../c5535_bsl_revc/ezdsp5535_v1/c55xx_csl/ccs_v4.0_examples/lcd/CSL_LCDC_DiagramExample/
    7342 00135a A500          MOV *SP(#0), T1 ; |1289| 
    7343              $C$DW$691       .dwtag  DW_TAG_TI_branch
    7344                      .dwattr $C$DW$691, DW_AT_low_pc(0x00)
    7345                      .dwattr $C$DW$691, DW_AT_name("_dataWrite")
    7346                      .dwattr $C$DW$691, DW_AT_TI_call
    7347              
    7348 00135c 08EF          CALL #_dataWrite ; |1289| 
         00135e 3F   
    7349 00135f 3D04  ||      MOV #0, T0
    7350              
    7351                                                      ; call occurs [#_dataWrite] ; |1289| 
    7352                      .dwpsn  file "../c5535_bsl_revc/ezdsp5535_v1/c55xx_csl/ccs_v4.0_examples/lcd/CSL_LCDC_DiagramExample/
    7353 001361 7600          MOV #31, T0 ; |1290| 
         001363 1F48 
    7354 001365 A500          MOV *SP(#0), T1 ; |1290| 
    7355              $C$DW$692       .dwtag  DW_TAG_TI_branch
    7356                      .dwattr $C$DW$692, DW_AT_low_pc(0x00)
    7357                      .dwattr $C$DW$692, DW_AT_name("_dataWrite")
    7358                      .dwattr $C$DW$692, DW_AT_TI_call
    7359 001367 08EF          CALL #_dataWrite ; |1290| 
         001369 36   
    7360                                                      ; call occurs [#_dataWrite] ; |1290| 
    7361                      .dwpsn  file "../c5535_bsl_revc/ezdsp5535_v1/c55xx_csl/ccs_v4.0_examples/lcd/CSL_LCDC_DiagramExample/
    7362 00136a F704          ADD #1, *SP(#2) ; |1287| 
         00136c 0001 
    7363                      .dwpsn  file "../c5535_bsl_revc/ezdsp5535_v1/c55xx_csl/ccs_v4.0_examples/lcd/CSL_LCDC_DiagramExample/
    7364 00136e A904          MOV *SP(#2), AR1 ; |1287| 
    7365 001370 1294          CMPU AR1 < AR2, TC1 ; |1287| 
         001372 A4   
    7366 001373 0464          BCC $C$L119,TC1 ; |1287| 
         001375 E4   
    7367                                                      ; branchcc occurs ; |1287| 
    7368 001376       $C$DW$L$_draw_65K_colorbar$7$E:
    7369 001376       $C$L120:    
    7370 001376       $C$DW$L$_draw_65K_colorbar$8$B:
TMS320C55x Assembler PC v4.4.1 Sat Sep 29 23:09:22 2018

Tools Copyright (c) 1996-2012 Texas Instruments Incorporated
lcdc_panel.asm                                                       PAGE  152

    7371                      .dwpsn  file "../c5535_bsl_revc/ezdsp5535_v1/c55xx_csl/ccs_v4.0_examples/lcd/CSL_LCDC_DiagramExample/
    7372 001376 F702          ADD #1, *SP(#1) ; |1285| 
         001378 0001 
    7373                      .dwpsn  file "../c5535_bsl_revc/ezdsp5535_v1/c55xx_csl/ccs_v4.0_examples/lcd/CSL_LCDC_DiagramExample/
    7374 00137a 7600          MOV #32, AR2 ; |1285| 
         00137c 20A8 
    7375 00137e A902          MOV *SP(#1), AR1 ; |1285| 
    7376 001380 1294          CMPU AR1 < AR2, TC1 ; |1285| 
         001382 A4   
    7377 001383 0464          BCC $C$L118,TC1 ; |1285| 
         001385 C5   
    7378                                                      ; branchcc occurs ; |1285| 
    7379 001386       $C$DW$L$_draw_65K_colorbar$8$E:
    7380 001386       $C$L121:    
    7381                      .dwpsn  file "../c5535_bsl_revc/ezdsp5535_v1/c55xx_csl/ccs_v4.0_examples/lcd/CSL_LCDC_DiagramExample/
    7382 001386 A500          MOV *SP(#0), T1 ; |1295| 
    7383 001388 7600          MOV #21, T0 ; |1295| 
         00138a 1548 
    7384              $C$DW$693       .dwtag  DW_TAG_TI_branch
    7385                      .dwattr $C$DW$693, DW_AT_low_pc(0x00)
    7386                      .dwattr $C$DW$693, DW_AT_name("_cmdWrite")
    7387                      .dwattr $C$DW$693, DW_AT_TI_call
    7388 00138c 08EE          CALL #_cmdWrite ; |1295| 
         00138e F9   
    7389                                                      ; call occurs [#_cmdWrite] ; |1295| 
    7390                      .dwpsn  file "../c5535_bsl_revc/ezdsp5535_v1/c55xx_csl/ccs_v4.0_examples/lcd/CSL_LCDC_DiagramExample/
    7391 00138f 7600          MOV #64, T0 ; |1296| 
         001391 4048 
    7392 001393 A500          MOV *SP(#0), T1 ; |1296| 
    7393              $C$DW$694       .dwtag  DW_TAG_TI_branch
    7394                      .dwattr $C$DW$694, DW_AT_low_pc(0x00)
    7395                      .dwattr $C$DW$694, DW_AT_name("_dataWrite")
    7396                      .dwattr $C$DW$694, DW_AT_TI_call
    7397 001395 08EF          CALL #_dataWrite ; |1296| 
         001397 08   
    7398                                                      ; call occurs [#_dataWrite] ; |1296| 
    7399                      .dwpsn  file "../c5535_bsl_revc/ezdsp5535_v1/c55xx_csl/ccs_v4.0_examples/lcd/CSL_LCDC_DiagramExample/
    7400 001398 7600          MOV #95, T0 ; |1297| 
         00139a 5F48 
    7401 00139c A500          MOV *SP(#0), T1 ; |1297| 
    7402              $C$DW$695       .dwtag  DW_TAG_TI_branch
    7403                      .dwattr $C$DW$695, DW_AT_low_pc(0x00)
    7404                      .dwattr $C$DW$695, DW_AT_name("_dataWrite")
    7405                      .dwattr $C$DW$695, DW_AT_TI_call
    7406 00139e 08EE          CALL #_dataWrite ; |1297| 
         0013a0 FF   
    7407                                                      ; call occurs [#_dataWrite] ; |1297| 
    7408                      .dwpsn  file "../c5535_bsl_revc/ezdsp5535_v1/c55xx_csl/ccs_v4.0_examples/lcd/CSL_LCDC_DiagramExample/
    7409 0013a1 7600          MOV #117, T0 ; |1299| 
         0013a3 7548 
    7410 0013a5 A500          MOV *SP(#0), T1 ; |1299| 
    7411              $C$DW$696       .dwtag  DW_TAG_TI_branch
    7412                      .dwattr $C$DW$696, DW_AT_low_pc(0x00)
    7413                      .dwattr $C$DW$696, DW_AT_name("_cmdWrite")
    7414                      .dwattr $C$DW$696, DW_AT_TI_call
TMS320C55x Assembler PC v4.4.1 Sat Sep 29 23:09:22 2018

Tools Copyright (c) 1996-2012 Texas Instruments Incorporated
lcdc_panel.asm                                                       PAGE  153

    7415 0013a7 08EE          CALL #_cmdWrite ; |1299| 
         0013a9 DE   
    7416                                                      ; call occurs [#_cmdWrite] ; |1299| 
    7417                      .dwpsn  file "../c5535_bsl_revc/ezdsp5535_v1/c55xx_csl/ccs_v4.0_examples/lcd/CSL_LCDC_DiagramExample/
    7418 0013aa A500          MOV *SP(#0), T1 ; |1300| 
    7419              $C$DW$697       .dwtag  DW_TAG_TI_branch
    7420                      .dwattr $C$DW$697, DW_AT_low_pc(0x00)
    7421                      .dwattr $C$DW$697, DW_AT_name("_dataWrite")
    7422                      .dwattr $C$DW$697, DW_AT_TI_call
    7423              
    7424 0013ac 08EE          CALL #_dataWrite ; |1300| 
         0013ae EF   
    7425 0013af 3D04  ||      MOV #0, T0
    7426              
    7427                                                      ; call occurs [#_dataWrite] ; |1300| 
    7428                      .dwpsn  file "../c5535_bsl_revc/ezdsp5535_v1/c55xx_csl/ccs_v4.0_examples/lcd/CSL_LCDC_DiagramExample/
    7429 0013b1 7600          MOV #127, T0 ; |1301| 
         0013b3 7F48 
    7430 0013b5 A500          MOV *SP(#0), T1 ; |1301| 
    7431              $C$DW$698       .dwtag  DW_TAG_TI_branch
    7432                      .dwattr $C$DW$698, DW_AT_low_pc(0x00)
    7433                      .dwattr $C$DW$698, DW_AT_name("_dataWrite")
    7434                      .dwattr $C$DW$698, DW_AT_TI_call
    7435 0013b7 08EE          CALL #_dataWrite ; |1301| 
         0013b9 E6   
    7436                                                      ; call occurs [#_dataWrite] ; |1301| 
    7437                      .dwpsn  file "../c5535_bsl_revc/ezdsp5535_v1/c55xx_csl/ccs_v4.0_examples/lcd/CSL_LCDC_DiagramExample/
    7438 0013ba 7600          MOV #92, T0 ; |1303| 
         0013bc 5C48 
    7439 0013be A500          MOV *SP(#0), T1 ; |1303| 
    7440              $C$DW$699       .dwtag  DW_TAG_TI_branch
    7441                      .dwattr $C$DW$699, DW_AT_low_pc(0x00)
    7442                      .dwattr $C$DW$699, DW_AT_name("_cmdWrite")
    7443                      .dwattr $C$DW$699, DW_AT_TI_call
    7444 0013c0 08EE          CALL #_cmdWrite ; |1303| 
         0013c2 C5   
    7445                                                      ; call occurs [#_cmdWrite] ; |1303| 
    7446                      .dwpsn  file "../c5535_bsl_revc/ezdsp5535_v1/c55xx_csl/ccs_v4.0_examples/lcd/CSL_LCDC_DiagramExample/
    7447 0013c3 E602          MOV #0, *SP(#1) ; |1305| 
         0013c5 00   
    7448                      .dwpsn  file "../c5535_bsl_revc/ezdsp5535_v1/c55xx_csl/ccs_v4.0_examples/lcd/CSL_LCDC_DiagramExample/
    7449 0013c6 7600          MOV #32, AR2 ; |1305| 
         0013c8 20A8 
    7450 0013ca A902          MOV *SP(#1), AR1 ; |1305| 
    7451 0013cc 1298          CMPU AR1 >= AR2, TC1 ; |1305| 
         0013ce A4   
    7452 0013cf 0464          BCC $C$L125,TC1 ; |1305| 
         0013d1 3B   
    7453                                                      ; branchcc occurs ; |1305| 
    7454 0013d2       $C$L122:    
    7455 0013d2       $C$DW$L$_draw_65K_colorbar$10$B:
    7456                      .dwpsn  file "../c5535_bsl_revc/ezdsp5535_v1/c55xx_csl/ccs_v4.0_examples/lcd/CSL_LCDC_DiagramExample/
    7457 0013d2 E604          MOV #0, *SP(#2) ; |1307| 
         0013d4 00   
    7458                      .dwpsn  file "../c5535_bsl_revc/ezdsp5535_v1/c55xx_csl/ccs_v4.0_examples/lcd/CSL_LCDC_DiagramExample/
TMS320C55x Assembler PC v4.4.1 Sat Sep 29 23:09:22 2018

Tools Copyright (c) 1996-2012 Texas Instruments Incorporated
lcdc_panel.asm                                                       PAGE  154

    7459 0013d5 7600          MOV #128, AR2 ; |1307| 
         0013d7 80A8 
    7460 0013d9 A904          MOV *SP(#2), AR1 ; |1307| 
    7461 0013db 1298          CMPU AR1 >= AR2, TC1 ; |1307| 
         0013dd A4   
    7462 0013de 0464          BCC $C$L124,TC1 ; |1307| 
         0013e0 1C   
    7463                                                      ; branchcc occurs ; |1307| 
    7464 0013e1       $C$DW$L$_draw_65K_colorbar$10$E:
    7465 0013e1       $C$L123:    
    7466 0013e1       $C$DW$L$_draw_65K_colorbar$11$B:
    7467                      .dwpsn  file "../c5535_bsl_revc/ezdsp5535_v1/c55xx_csl/ccs_v4.0_examples/lcd/CSL_LCDC_DiagramExample/
    7468 0013e1 A500          MOV *SP(#0), T1 ; |1309| 
    7469 0013e3 7600          MOV #248, T0 ; |1309| 
         0013e5 F848 
    7470              $C$DW$700       .dwtag  DW_TAG_TI_branch
    7471                      .dwattr $C$DW$700, DW_AT_low_pc(0x00)
    7472                      .dwattr $C$DW$700, DW_AT_name("_dataWrite")
    7473                      .dwattr $C$DW$700, DW_AT_TI_call
    7474 0013e7 08EE          CALL #_dataWrite ; |1309| 
         0013e9 B6   
    7475                                                      ; call occurs [#_dataWrite] ; |1309| 
    7476                      .dwpsn  file "../c5535_bsl_revc/ezdsp5535_v1/c55xx_csl/ccs_v4.0_examples/lcd/CSL_LCDC_DiagramExample/
    7477 0013ea A500          MOV *SP(#0), T1 ; |1310| 
    7478              $C$DW$701       .dwtag  DW_TAG_TI_branch
    7479                      .dwattr $C$DW$701, DW_AT_low_pc(0x00)
    7480                      .dwattr $C$DW$701, DW_AT_name("_dataWrite")
    7481                      .dwattr $C$DW$701, DW_AT_TI_call
    7482              
    7483 0013ec 08EE          CALL #_dataWrite ; |1310| 
         0013ee AF   
    7484 0013ef 3D04  ||      MOV #0, T0
    7485              
    7486                                                      ; call occurs [#_dataWrite] ; |1310| 
    7487                      .dwpsn  file "../c5535_bsl_revc/ezdsp5535_v1/c55xx_csl/ccs_v4.0_examples/lcd/CSL_LCDC_DiagramExample/
    7488 0013f1 F704          ADD #1, *SP(#2) ; |1307| 
         0013f3 0001 
    7489                      .dwpsn  file "../c5535_bsl_revc/ezdsp5535_v1/c55xx_csl/ccs_v4.0_examples/lcd/CSL_LCDC_DiagramExample/
    7490 0013f5 A904          MOV *SP(#2), AR1 ; |1307| 
    7491 0013f7 1294          CMPU AR1 < AR2, TC1 ; |1307| 
         0013f9 A4   
    7492 0013fa 0464          BCC $C$L123,TC1 ; |1307| 
         0013fc E4   
    7493                                                      ; branchcc occurs ; |1307| 
    7494 0013fd       $C$DW$L$_draw_65K_colorbar$11$E:
    7495 0013fd       $C$L124:    
    7496 0013fd       $C$DW$L$_draw_65K_colorbar$12$B:
    7497                      .dwpsn  file "../c5535_bsl_revc/ezdsp5535_v1/c55xx_csl/ccs_v4.0_examples/lcd/CSL_LCDC_DiagramExample/
    7498 0013fd F702          ADD #1, *SP(#1) ; |1305| 
         0013ff 0001 
    7499                      .dwpsn  file "../c5535_bsl_revc/ezdsp5535_v1/c55xx_csl/ccs_v4.0_examples/lcd/CSL_LCDC_DiagramExample/
    7500 001401 7600          MOV #32, AR2 ; |1305| 
         001403 20A8 
    7501 001405 A902          MOV *SP(#1), AR1 ; |1305| 
    7502 001407 1294          CMPU AR1 < AR2, TC1 ; |1305| 
TMS320C55x Assembler PC v4.4.1 Sat Sep 29 23:09:22 2018

Tools Copyright (c) 1996-2012 Texas Instruments Incorporated
lcdc_panel.asm                                                       PAGE  155

         001409 A4   
    7503 00140a 0464          BCC $C$L122,TC1 ; |1305| 
         00140c C5   
    7504                                                      ; branchcc occurs ; |1305| 
    7505 00140d       $C$DW$L$_draw_65K_colorbar$12$E:
    7506 00140d       $C$L125:    
    7507                      .dwpsn  file "../c5535_bsl_revc/ezdsp5535_v1/c55xx_csl/ccs_v4.0_examples/lcd/CSL_LCDC_DiagramExample/
    7508 00140d A500          MOV *SP(#0), T1 ; |1315| 
    7509 00140f 7600          MOV #21, T0 ; |1315| 
         001411 1548 
    7510              $C$DW$702       .dwtag  DW_TAG_TI_branch
    7511                      .dwattr $C$DW$702, DW_AT_low_pc(0x00)
    7512                      .dwattr $C$DW$702, DW_AT_name("_cmdWrite")
    7513                      .dwattr $C$DW$702, DW_AT_TI_call
    7514 001413 08EE          CALL #_cmdWrite ; |1315| 
         001415 72   
    7515                                                      ; call occurs [#_cmdWrite] ; |1315| 
    7516                      .dwpsn  file "../c5535_bsl_revc/ezdsp5535_v1/c55xx_csl/ccs_v4.0_examples/lcd/CSL_LCDC_DiagramExample/
    7517 001416 7600          MOV #96, T0 ; |1316| 
         001418 6048 
    7518 00141a A500          MOV *SP(#0), T1 ; |1316| 
    7519              $C$DW$703       .dwtag  DW_TAG_TI_branch
    7520                      .dwattr $C$DW$703, DW_AT_low_pc(0x00)
    7521                      .dwattr $C$DW$703, DW_AT_name("_dataWrite")
    7522                      .dwattr $C$DW$703, DW_AT_TI_call
    7523 00141c 08EE          CALL #_dataWrite ; |1316| 
         00141e 81   
    7524                                                      ; call occurs [#_dataWrite] ; |1316| 
    7525                      .dwpsn  file "../c5535_bsl_revc/ezdsp5535_v1/c55xx_csl/ccs_v4.0_examples/lcd/CSL_LCDC_DiagramExample/
    7526 00141f 7600          MOV #127, T0 ; |1317| 
         001421 7F48 
    7527 001423 A500          MOV *SP(#0), T1 ; |1317| 
    7528              $C$DW$704       .dwtag  DW_TAG_TI_branch
    7529                      .dwattr $C$DW$704, DW_AT_low_pc(0x00)
    7530                      .dwattr $C$DW$704, DW_AT_name("_dataWrite")
    7531                      .dwattr $C$DW$704, DW_AT_TI_call
    7532 001425 08EE          CALL #_dataWrite ; |1317| 
         001427 78   
    7533                                                      ; call occurs [#_dataWrite] ; |1317| 
    7534                      .dwpsn  file "../c5535_bsl_revc/ezdsp5535_v1/c55xx_csl/ccs_v4.0_examples/lcd/CSL_LCDC_DiagramExample/
    7535 001428 7600          MOV #117, T0 ; |1319| 
         00142a 7548 
    7536 00142c A500          MOV *SP(#0), T1 ; |1319| 
    7537              $C$DW$705       .dwtag  DW_TAG_TI_branch
    7538                      .dwattr $C$DW$705, DW_AT_low_pc(0x00)
    7539                      .dwattr $C$DW$705, DW_AT_name("_cmdWrite")
    7540                      .dwattr $C$DW$705, DW_AT_TI_call
    7541 00142e 08EE          CALL #_cmdWrite ; |1319| 
         001430 57   
    7542                                                      ; call occurs [#_cmdWrite] ; |1319| 
    7543                      .dwpsn  file "../c5535_bsl_revc/ezdsp5535_v1/c55xx_csl/ccs_v4.0_examples/lcd/CSL_LCDC_DiagramExample/
    7544 001431 A500          MOV *SP(#0), T1 ; |1320| 
    7545              $C$DW$706       .dwtag  DW_TAG_TI_branch
    7546                      .dwattr $C$DW$706, DW_AT_low_pc(0x00)
    7547                      .dwattr $C$DW$706, DW_AT_name("_dataWrite")
TMS320C55x Assembler PC v4.4.1 Sat Sep 29 23:09:22 2018

Tools Copyright (c) 1996-2012 Texas Instruments Incorporated
lcdc_panel.asm                                                       PAGE  156

    7548                      .dwattr $C$DW$706, DW_AT_TI_call
    7549              
    7550 001433 08EE          CALL #_dataWrite ; |1320| 
         001435 68   
    7551 001436 3D04  ||      MOV #0, T0
    7552              
    7553                                                      ; call occurs [#_dataWrite] ; |1320| 
    7554                      .dwpsn  file "../c5535_bsl_revc/ezdsp5535_v1/c55xx_csl/ccs_v4.0_examples/lcd/CSL_LCDC_DiagramExample/
    7555 001438 7600          MOV #127, T0 ; |1321| 
         00143a 7F48 
    7556 00143c A500          MOV *SP(#0), T1 ; |1321| 
    7557              $C$DW$707       .dwtag  DW_TAG_TI_branch
    7558                      .dwattr $C$DW$707, DW_AT_low_pc(0x00)
    7559                      .dwattr $C$DW$707, DW_AT_name("_dataWrite")
    7560                      .dwattr $C$DW$707, DW_AT_TI_call
    7561 00143e 08EE          CALL #_dataWrite ; |1321| 
         001440 5F   
    7562                                                      ; call occurs [#_dataWrite] ; |1321| 
    7563                      .dwpsn  file "../c5535_bsl_revc/ezdsp5535_v1/c55xx_csl/ccs_v4.0_examples/lcd/CSL_LCDC_DiagramExample/
    7564 001441 7600          MOV #92, T0 ; |1323| 
         001443 5C48 
    7565 001445 A500          MOV *SP(#0), T1 ; |1323| 
    7566              $C$DW$708       .dwtag  DW_TAG_TI_branch
    7567                      .dwattr $C$DW$708, DW_AT_low_pc(0x00)
    7568                      .dwattr $C$DW$708, DW_AT_name("_cmdWrite")
    7569                      .dwattr $C$DW$708, DW_AT_TI_call
    7570 001447 08EE          CALL #_cmdWrite ; |1323| 
         001449 3E   
    7571                                                      ; call occurs [#_cmdWrite] ; |1323| 
    7572                      .dwpsn  file "../c5535_bsl_revc/ezdsp5535_v1/c55xx_csl/ccs_v4.0_examples/lcd/CSL_LCDC_DiagramExample/
    7573 00144a E602          MOV #0, *SP(#1) ; |1325| 
         00144c 00   
    7574                      .dwpsn  file "../c5535_bsl_revc/ezdsp5535_v1/c55xx_csl/ccs_v4.0_examples/lcd/CSL_LCDC_DiagramExample/
    7575 00144d 7600          MOV #32, AR2 ; |1325| 
         00144f 20A8 
    7576 001451 A902          MOV *SP(#1), AR1 ; |1325| 
    7577 001453 1298          CMPU AR1 >= AR2, TC1 ; |1325| 
         001455 A4   
    7578 001456 0464          BCC $C$L129,TC1 ; |1325| 
         001458 3B   
    7579                                                      ; branchcc occurs ; |1325| 
    7580 001459       $C$L126:    
    7581 001459       $C$DW$L$_draw_65K_colorbar$14$B:
    7582                      .dwpsn  file "../c5535_bsl_revc/ezdsp5535_v1/c55xx_csl/ccs_v4.0_examples/lcd/CSL_LCDC_DiagramExample/
    7583 001459 E604          MOV #0, *SP(#2) ; |1327| 
         00145b 00   
    7584                      .dwpsn  file "../c5535_bsl_revc/ezdsp5535_v1/c55xx_csl/ccs_v4.0_examples/lcd/CSL_LCDC_DiagramExample/
    7585 00145c 7600          MOV #128, AR2 ; |1327| 
         00145e 80A8 
    7586 001460 A904          MOV *SP(#2), AR1 ; |1327| 
    7587 001462 1298          CMPU AR1 >= AR2, TC1 ; |1327| 
         001464 A4   
    7588 001465 0464          BCC $C$L128,TC1 ; |1327| 
         001467 1C   
    7589                                                      ; branchcc occurs ; |1327| 
TMS320C55x Assembler PC v4.4.1 Sat Sep 29 23:09:22 2018

Tools Copyright (c) 1996-2012 Texas Instruments Incorporated
lcdc_panel.asm                                                       PAGE  157

    7590 001468       $C$DW$L$_draw_65K_colorbar$14$E:
    7591 001468       $C$L127:    
    7592 001468       $C$DW$L$_draw_65K_colorbar$15$B:
    7593                      .dwpsn  file "../c5535_bsl_revc/ezdsp5535_v1/c55xx_csl/ccs_v4.0_examples/lcd/CSL_LCDC_DiagramExample/
    7594 001468 A500          MOV *SP(#0), T1 ; |1329| 
    7595              $C$DW$709       .dwtag  DW_TAG_TI_branch
    7596                      .dwattr $C$DW$709, DW_AT_low_pc(0x00)
    7597                      .dwattr $C$DW$709, DW_AT_name("_dataWrite")
    7598                      .dwattr $C$DW$709, DW_AT_TI_call
    7599              
    7600 00146a 08EE          CALL #_dataWrite ; |1329| 
         00146c 31   
    7601 00146d 3D74  ||      MOV #7, T0
    7602              
    7603                                                      ; call occurs [#_dataWrite] ; |1329| 
    7604                      .dwpsn  file "../c5535_bsl_revc/ezdsp5535_v1/c55xx_csl/ccs_v4.0_examples/lcd/CSL_LCDC_DiagramExample/
    7605 00146f 7600          MOV #224, T0 ; |1330| 
         001471 E048 
    7606 001473 A500          MOV *SP(#0), T1 ; |1330| 
    7607              $C$DW$710       .dwtag  DW_TAG_TI_branch
    7608                      .dwattr $C$DW$710, DW_AT_low_pc(0x00)
    7609                      .dwattr $C$DW$710, DW_AT_name("_dataWrite")
    7610                      .dwattr $C$DW$710, DW_AT_TI_call
    7611 001475 08EE          CALL #_dataWrite ; |1330| 
         001477 28   
    7612                                                      ; call occurs [#_dataWrite] ; |1330| 
    7613                      .dwpsn  file "../c5535_bsl_revc/ezdsp5535_v1/c55xx_csl/ccs_v4.0_examples/lcd/CSL_LCDC_DiagramExample/
    7614 001478 F704          ADD #1, *SP(#2) ; |1327| 
         00147a 0001 
    7615                      .dwpsn  file "../c5535_bsl_revc/ezdsp5535_v1/c55xx_csl/ccs_v4.0_examples/lcd/CSL_LCDC_DiagramExample/
    7616 00147c A904          MOV *SP(#2), AR1 ; |1327| 
    7617 00147e 1294          CMPU AR1 < AR2, TC1 ; |1327| 
         001480 A4   
    7618 001481 0464          BCC $C$L127,TC1 ; |1327| 
         001483 E4   
    7619                                                      ; branchcc occurs ; |1327| 
    7620 001484       $C$DW$L$_draw_65K_colorbar$15$E:
    7621 001484       $C$L128:    
    7622 001484       $C$DW$L$_draw_65K_colorbar$16$B:
    7623                      .dwpsn  file "../c5535_bsl_revc/ezdsp5535_v1/c55xx_csl/ccs_v4.0_examples/lcd/CSL_LCDC_DiagramExample/
    7624 001484 F702          ADD #1, *SP(#1) ; |1325| 
         001486 0001 
    7625                      .dwpsn  file "../c5535_bsl_revc/ezdsp5535_v1/c55xx_csl/ccs_v4.0_examples/lcd/CSL_LCDC_DiagramExample/
    7626 001488 7600          MOV #32, AR2 ; |1325| 
         00148a 20A8 
    7627 00148c A902          MOV *SP(#1), AR1 ; |1325| 
    7628 00148e 1294          CMPU AR1 < AR2, TC1 ; |1325| 
         001490 A4   
    7629 001491 0464          BCC $C$L126,TC1 ; |1325| 
         001493 C5   
    7630                                                      ; branchcc occurs ; |1325| 
    7631 001494       $C$DW$L$_draw_65K_colorbar$16$E:
    7632 001494       $C$L129:    
    7633                      .dwpsn  file "../c5535_bsl_revc/ezdsp5535_v1/c55xx_csl/ccs_v4.0_examples/lcd/CSL_LCDC_DiagramExample/
    7634 001494 3C04          MOV #0, T0
TMS320C55x Assembler PC v4.4.1 Sat Sep 29 23:09:22 2018

Tools Copyright (c) 1996-2012 Texas Instruments Incorporated
lcdc_panel.asm                                                       PAGE  158

    7635                      .dwpsn  file "../c5535_bsl_revc/ezdsp5535_v1/c55xx_csl/ccs_v4.0_examples/lcd/CSL_LCDC_DiagramExample/
    7636 001496 4E03          AADD #3, SP
    7637                      .dwcfi  cfa_offset, 1
    7638              $C$DW$711       .dwtag  DW_TAG_TI_branch
    7639                      .dwattr $C$DW$711, DW_AT_low_pc(0x00)
    7640                      .dwattr $C$DW$711, DW_AT_TI_return
    7641 001498 4804          RET
    7642                                                      ; return occurs
    7643              
    7644              $C$DW$712       .dwtag  DW_TAG_TI_loop
    7645                      .dwattr $C$DW$712, DW_AT_name("F:\eZdsp_DBG\tmp1\c55x-sim2\foo\Debug\lcdc_panel.asm:$C$L126:1:1538287
    7646                      .dwattr $C$DW$712, DW_AT_TI_begin_file("../c5535_bsl_revc/ezdsp5535_v1/c55xx_csl/ccs_v4.0_examples/lc
    7647                      .dwattr $C$DW$712, DW_AT_TI_begin_line(0x52d)
    7648                      .dwattr $C$DW$712, DW_AT_TI_end_line(0x534)
    7649              $C$DW$713       .dwtag  DW_TAG_TI_loop_range
    7650                      .dwattr $C$DW$713, DW_AT_low_pc($C$DW$L$_draw_65K_colorbar$14$B)
    7651                      .dwattr $C$DW$713, DW_AT_high_pc($C$DW$L$_draw_65K_colorbar$14$E)
    7652              $C$DW$714       .dwtag  DW_TAG_TI_loop_range
    7653                      .dwattr $C$DW$714, DW_AT_low_pc($C$DW$L$_draw_65K_colorbar$16$B)
    7654                      .dwattr $C$DW$714, DW_AT_high_pc($C$DW$L$_draw_65K_colorbar$16$E)
    7655              
    7656              $C$DW$715       .dwtag  DW_TAG_TI_loop
    7657                      .dwattr $C$DW$715, DW_AT_name("F:\eZdsp_DBG\tmp1\c55x-sim2\foo\Debug\lcdc_panel.asm:$C$L127:2:1538287
    7658                      .dwattr $C$DW$715, DW_AT_TI_begin_file("../c5535_bsl_revc/ezdsp5535_v1/c55xx_csl/ccs_v4.0_examples/lc
    7659                      .dwattr $C$DW$715, DW_AT_TI_begin_line(0x52f)
    7660                      .dwattr $C$DW$715, DW_AT_TI_end_line(0x533)
    7661              $C$DW$716       .dwtag  DW_TAG_TI_loop_range
    7662                      .dwattr $C$DW$716, DW_AT_low_pc($C$DW$L$_draw_65K_colorbar$15$B)
    7663                      .dwattr $C$DW$716, DW_AT_high_pc($C$DW$L$_draw_65K_colorbar$15$E)
    7664                      .dwendtag $C$DW$715
    7665              
    7666                      .dwendtag $C$DW$712
    7667              
    7668              
    7669              $C$DW$717       .dwtag  DW_TAG_TI_loop
    7670                      .dwattr $C$DW$717, DW_AT_name("F:\eZdsp_DBG\tmp1\c55x-sim2\foo\Debug\lcdc_panel.asm:$C$L122:1:1538287
    7671                      .dwattr $C$DW$717, DW_AT_TI_begin_file("../c5535_bsl_revc/ezdsp5535_v1/c55xx_csl/ccs_v4.0_examples/lc
    7672                      .dwattr $C$DW$717, DW_AT_TI_begin_line(0x519)
    7673                      .dwattr $C$DW$717, DW_AT_TI_end_line(0x520)
    7674              $C$DW$718       .dwtag  DW_TAG_TI_loop_range
    7675                      .dwattr $C$DW$718, DW_AT_low_pc($C$DW$L$_draw_65K_colorbar$10$B)
    7676                      .dwattr $C$DW$718, DW_AT_high_pc($C$DW$L$_draw_65K_colorbar$10$E)
    7677              $C$DW$719       .dwtag  DW_TAG_TI_loop_range
    7678                      .dwattr $C$DW$719, DW_AT_low_pc($C$DW$L$_draw_65K_colorbar$12$B)
    7679                      .dwattr $C$DW$719, DW_AT_high_pc($C$DW$L$_draw_65K_colorbar$12$E)
    7680              
    7681              $C$DW$720       .dwtag  DW_TAG_TI_loop
    7682                      .dwattr $C$DW$720, DW_AT_name("F:\eZdsp_DBG\tmp1\c55x-sim2\foo\Debug\lcdc_panel.asm:$C$L123:2:1538287
    7683                      .dwattr $C$DW$720, DW_AT_TI_begin_file("../c5535_bsl_revc/ezdsp5535_v1/c55xx_csl/ccs_v4.0_examples/lc
    7684                      .dwattr $C$DW$720, DW_AT_TI_begin_line(0x51b)
    7685                      .dwattr $C$DW$720, DW_AT_TI_end_line(0x51f)
    7686              $C$DW$721       .dwtag  DW_TAG_TI_loop_range
    7687                      .dwattr $C$DW$721, DW_AT_low_pc($C$DW$L$_draw_65K_colorbar$11$B)
    7688                      .dwattr $C$DW$721, DW_AT_high_pc($C$DW$L$_draw_65K_colorbar$11$E)
    7689                      .dwendtag $C$DW$720
TMS320C55x Assembler PC v4.4.1 Sat Sep 29 23:09:22 2018

Tools Copyright (c) 1996-2012 Texas Instruments Incorporated
lcdc_panel.asm                                                       PAGE  159

    7690              
    7691                      .dwendtag $C$DW$717
    7692              
    7693              
    7694              $C$DW$722       .dwtag  DW_TAG_TI_loop
    7695                      .dwattr $C$DW$722, DW_AT_name("F:\eZdsp_DBG\tmp1\c55x-sim2\foo\Debug\lcdc_panel.asm:$C$L118:1:1538287
    7696                      .dwattr $C$DW$722, DW_AT_TI_begin_file("../c5535_bsl_revc/ezdsp5535_v1/c55xx_csl/ccs_v4.0_examples/lc
    7697                      .dwattr $C$DW$722, DW_AT_TI_begin_line(0x505)
    7698                      .dwattr $C$DW$722, DW_AT_TI_end_line(0x50c)
    7699              $C$DW$723       .dwtag  DW_TAG_TI_loop_range
    7700                      .dwattr $C$DW$723, DW_AT_low_pc($C$DW$L$_draw_65K_colorbar$6$B)
    7701                      .dwattr $C$DW$723, DW_AT_high_pc($C$DW$L$_draw_65K_colorbar$6$E)
    7702              $C$DW$724       .dwtag  DW_TAG_TI_loop_range
    7703                      .dwattr $C$DW$724, DW_AT_low_pc($C$DW$L$_draw_65K_colorbar$8$B)
    7704                      .dwattr $C$DW$724, DW_AT_high_pc($C$DW$L$_draw_65K_colorbar$8$E)
    7705              
    7706              $C$DW$725       .dwtag  DW_TAG_TI_loop
    7707                      .dwattr $C$DW$725, DW_AT_name("F:\eZdsp_DBG\tmp1\c55x-sim2\foo\Debug\lcdc_panel.asm:$C$L119:2:1538287
    7708                      .dwattr $C$DW$725, DW_AT_TI_begin_file("../c5535_bsl_revc/ezdsp5535_v1/c55xx_csl/ccs_v4.0_examples/lc
    7709                      .dwattr $C$DW$725, DW_AT_TI_begin_line(0x507)
    7710                      .dwattr $C$DW$725, DW_AT_TI_end_line(0x50b)
    7711              $C$DW$726       .dwtag  DW_TAG_TI_loop_range
    7712                      .dwattr $C$DW$726, DW_AT_low_pc($C$DW$L$_draw_65K_colorbar$7$B)
    7713                      .dwattr $C$DW$726, DW_AT_high_pc($C$DW$L$_draw_65K_colorbar$7$E)
    7714                      .dwendtag $C$DW$725
    7715              
    7716                      .dwendtag $C$DW$722
    7717              
    7718              
    7719              $C$DW$727       .dwtag  DW_TAG_TI_loop
    7720                      .dwattr $C$DW$727, DW_AT_name("F:\eZdsp_DBG\tmp1\c55x-sim2\foo\Debug\lcdc_panel.asm:$C$L114:1:1538287
    7721                      .dwattr $C$DW$727, DW_AT_TI_begin_file("../c5535_bsl_revc/ezdsp5535_v1/c55xx_csl/ccs_v4.0_examples/lc
    7722                      .dwattr $C$DW$727, DW_AT_TI_begin_line(0x4f2)
    7723                      .dwattr $C$DW$727, DW_AT_TI_end_line(0x4f9)
    7724              $C$DW$728       .dwtag  DW_TAG_TI_loop_range
    7725                      .dwattr $C$DW$728, DW_AT_low_pc($C$DW$L$_draw_65K_colorbar$2$B)
    7726                      .dwattr $C$DW$728, DW_AT_high_pc($C$DW$L$_draw_65K_colorbar$2$E)
    7727              $C$DW$729       .dwtag  DW_TAG_TI_loop_range
    7728                      .dwattr $C$DW$729, DW_AT_low_pc($C$DW$L$_draw_65K_colorbar$4$B)
    7729                      .dwattr $C$DW$729, DW_AT_high_pc($C$DW$L$_draw_65K_colorbar$4$E)
    7730              
    7731              $C$DW$730       .dwtag  DW_TAG_TI_loop
    7732                      .dwattr $C$DW$730, DW_AT_name("F:\eZdsp_DBG\tmp1\c55x-sim2\foo\Debug\lcdc_panel.asm:$C$L115:2:1538287
    7733                      .dwattr $C$DW$730, DW_AT_TI_begin_file("../c5535_bsl_revc/ezdsp5535_v1/c55xx_csl/ccs_v4.0_examples/lc
    7734                      .dwattr $C$DW$730, DW_AT_TI_begin_line(0x4f4)
    7735                      .dwattr $C$DW$730, DW_AT_TI_end_line(0x4f8)
    7736              $C$DW$731       .dwtag  DW_TAG_TI_loop_range
    7737                      .dwattr $C$DW$731, DW_AT_low_pc($C$DW$L$_draw_65K_colorbar$3$B)
    7738                      .dwattr $C$DW$731, DW_AT_high_pc($C$DW$L$_draw_65K_colorbar$3$E)
    7739                      .dwendtag $C$DW$730
    7740              
    7741                      .dwendtag $C$DW$727
    7742              
    7743                      .dwattr $C$DW$670, DW_AT_TI_end_file("../c5535_bsl_revc/ezdsp5535_v1/c55xx_csl/ccs_v4.0_examples/lcd/
    7744                      .dwattr $C$DW$670, DW_AT_TI_end_line(0x537)
TMS320C55x Assembler PC v4.4.1 Sat Sep 29 23:09:22 2018

Tools Copyright (c) 1996-2012 Texas Instruments Incorporated
lcdc_panel.asm                                                       PAGE  160

    7745                      .dwattr $C$DW$670, DW_AT_TI_end_column(0x01)
    7746                      .dwendentry
    7747                      .dwendtag $C$DW$670
    7748              
    7749 00149a               .sect   ".text"
    7750                      .align 4
    7751                      .global _draw_ti_logo
    7752              
    7753              $C$DW$732       .dwtag  DW_TAG_subprogram, DW_AT_name("draw_ti_logo")
    7754                      .dwattr $C$DW$732, DW_AT_low_pc(_draw_ti_logo)
    7755                      .dwattr $C$DW$732, DW_AT_high_pc(0x00)
    7756                      .dwattr $C$DW$732, DW_AT_TI_symbol_name("_draw_ti_logo")
    7757                      .dwattr $C$DW$732, DW_AT_external
    7758                      .dwattr $C$DW$732, DW_AT_type(*$C$DW$T$29)
    7759                      .dwattr $C$DW$732, DW_AT_TI_begin_file("../c5535_bsl_revc/ezdsp5535_v1/c55xx_csl/ccs_v4.0_examples/lc
    7760                      .dwattr $C$DW$732, DW_AT_TI_begin_line(0x542)
    7761                      .dwattr $C$DW$732, DW_AT_TI_begin_column(0x07)
    7762                      .dwattr $C$DW$732, DW_AT_TI_max_frame_size(0x04)
    7763                      .dwpsn  file "../c5535_bsl_revc/ezdsp5535_v1/c55xx_csl/ccs_v4.0_examples/lcd/CSL_LCDC_DiagramExample/
    7764              
    7765                      .dwfde $C$DW$CIE, _draw_ti_logo
    7766              $C$DW$733       .dwtag  DW_TAG_formal_parameter, DW_AT_name("cs_flag")
    7767                      .dwattr $C$DW$733, DW_AT_TI_symbol_name("_cs_flag")
    7768                      .dwattr $C$DW$733, DW_AT_type(*$C$DW$T$19)
    7769                      .dwattr $C$DW$733, DW_AT_location[DW_OP_reg12]
    7770              ;*******************************************************************************
    7771              ;* FUNCTION NAME: draw_ti_logo                                                 *
    7772              ;*                                                                             *
    7773              ;*   Function Uses Regs : AC0,T0,T1,AR1,AR2,AR3,XAR3,SP,CARRY,TC1,M40,SATA,    *
    7774              ;*                        SATD,RDM,FRCT,SMUL                                   *
    7775              ;*   Stack Frame        : Compact (No Frame Pointer, w/ debug)                 *
    7776              ;*   Total Frame Size   : 4 words                                              *
    7777              ;*                        (1 return address/alignment)                         *
    7778              ;*                        (3 local values)                                     *
    7779              ;*   Min System Stack   : 1 word                                               *
    7780              ;*******************************************************************************
    7781 00149c       _draw_ti_logo:
    7782                      .dwcfi  cfa_offset, 1
    7783                      .dwcfi  save_reg_to_mem, 91, -1
    7784 00149c 4EFD          AADD #-3, SP
    7785                      .dwcfi  cfa_offset, 4
    7786              $C$DW$734       .dwtag  DW_TAG_variable, DW_AT_name("cs_flag")
    7787                      .dwattr $C$DW$734, DW_AT_TI_symbol_name("_cs_flag")
    7788                      .dwattr $C$DW$734, DW_AT_type(*$C$DW$T$19)
    7789                      .dwattr $C$DW$734, DW_AT_location[DW_OP_bregx 0x24 0]
    7790              $C$DW$735       .dwtag  DW_TAG_variable, DW_AT_name("i")
    7791                      .dwattr $C$DW$735, DW_AT_TI_symbol_name("_i")
    7792                      .dwattr $C$DW$735, DW_AT_type(*$C$DW$T$19)
    7793                      .dwattr $C$DW$735, DW_AT_location[DW_OP_bregx 0x24 1]
    7794              $C$DW$736       .dwtag  DW_TAG_variable, DW_AT_name("j")
    7795                      .dwattr $C$DW$736, DW_AT_TI_symbol_name("_j")
    7796                      .dwattr $C$DW$736, DW_AT_type(*$C$DW$T$19)
    7797                      .dwattr $C$DW$736, DW_AT_location[DW_OP_bregx 0x24 2]
    7798 00149e C400          MOV T0, *SP(#0) ; |1347| 
    7799                      .dwpsn  file "../c5535_bsl_revc/ezdsp5535_v1/c55xx_csl/ccs_v4.0_examples/lcd/CSL_LCDC_DiagramExample/
TMS320C55x Assembler PC v4.4.1 Sat Sep 29 23:09:22 2018

Tools Copyright (c) 1996-2012 Texas Instruments Incorporated
lcdc_panel.asm                                                       PAGE  161

    7800 0014a0 7600          MOV #21, T0 ; |1354| 
         0014a2 1548 
    7801 0014a4 A500          MOV *SP(#0), T1 ; |1354| 
    7802              $C$DW$737       .dwtag  DW_TAG_TI_branch
    7803                      .dwattr $C$DW$737, DW_AT_low_pc(0x00)
    7804                      .dwattr $C$DW$737, DW_AT_name("_cmdWrite")
    7805                      .dwattr $C$DW$737, DW_AT_TI_call
    7806 0014a6 08ED          CALL #_cmdWrite ; |1354| 
         0014a8 DF   
    7807                                                      ; call occurs [#_cmdWrite] ; |1354| 
    7808                      .dwpsn  file "../c5535_bsl_revc/ezdsp5535_v1/c55xx_csl/ccs_v4.0_examples/lcd/CSL_LCDC_DiagramExample/
    7809 0014a9 A500          MOV *SP(#0), T1 ; |1355| 
    7810              $C$DW$738       .dwtag  DW_TAG_TI_branch
    7811                      .dwattr $C$DW$738, DW_AT_low_pc(0x00)
    7812                      .dwattr $C$DW$738, DW_AT_name("_dataWrite")
    7813                      .dwattr $C$DW$738, DW_AT_TI_call
    7814              
    7815 0014ab 08ED          CALL #_dataWrite ; |1355| 
         0014ad F0   
    7816 0014ae 3D04  ||      MOV #0, T0
    7817              
    7818                                                      ; call occurs [#_dataWrite] ; |1355| 
    7819                      .dwpsn  file "../c5535_bsl_revc/ezdsp5535_v1/c55xx_csl/ccs_v4.0_examples/lcd/CSL_LCDC_DiagramExample/
    7820 0014b0 7600          MOV #63, T0 ; |1356| 
         0014b2 3F48 
    7821 0014b4 A500          MOV *SP(#0), T1 ; |1356| 
    7822              $C$DW$739       .dwtag  DW_TAG_TI_branch
    7823                      .dwattr $C$DW$739, DW_AT_low_pc(0x00)
    7824                      .dwattr $C$DW$739, DW_AT_name("_dataWrite")
    7825                      .dwattr $C$DW$739, DW_AT_TI_call
    7826 0014b6 08ED          CALL #_dataWrite ; |1356| 
         0014b8 E7   
    7827                                                      ; call occurs [#_dataWrite] ; |1356| 
    7828                      .dwpsn  file "../c5535_bsl_revc/ezdsp5535_v1/c55xx_csl/ccs_v4.0_examples/lcd/CSL_LCDC_DiagramExample/
    7829 0014b9 7600          MOV #117, T0 ; |1358| 
         0014bb 7548 
    7830 0014bd A500          MOV *SP(#0), T1 ; |1358| 
    7831              $C$DW$740       .dwtag  DW_TAG_TI_branch
    7832                      .dwattr $C$DW$740, DW_AT_low_pc(0x00)
    7833                      .dwattr $C$DW$740, DW_AT_name("_cmdWrite")
    7834                      .dwattr $C$DW$740, DW_AT_TI_call
    7835 0014bf 08ED          CALL #_cmdWrite ; |1358| 
         0014c1 C6   
    7836                                                      ; call occurs [#_cmdWrite] ; |1358| 
    7837                      .dwpsn  file "../c5535_bsl_revc/ezdsp5535_v1/c55xx_csl/ccs_v4.0_examples/lcd/CSL_LCDC_DiagramExample/
    7838 0014c2 A500          MOV *SP(#0), T1 ; |1359| 
    7839              $C$DW$741       .dwtag  DW_TAG_TI_branch
    7840                      .dwattr $C$DW$741, DW_AT_low_pc(0x00)
    7841                      .dwattr $C$DW$741, DW_AT_name("_dataWrite")
    7842                      .dwattr $C$DW$741, DW_AT_TI_call
    7843              
    7844 0014c4 08ED          CALL #_dataWrite ; |1359| 
         0014c6 D7   
    7845 0014c7 3D04  ||      MOV #0, T0
    7846              
TMS320C55x Assembler PC v4.4.1 Sat Sep 29 23:09:22 2018

Tools Copyright (c) 1996-2012 Texas Instruments Incorporated
lcdc_panel.asm                                                       PAGE  162

    7847                                                      ; call occurs [#_dataWrite] ; |1359| 
    7848                      .dwpsn  file "../c5535_bsl_revc/ezdsp5535_v1/c55xx_csl/ccs_v4.0_examples/lcd/CSL_LCDC_DiagramExample/
    7849 0014c9 7600          MOV #127, T0 ; |1360| 
         0014cb 7F48 
    7850 0014cd A500          MOV *SP(#0), T1 ; |1360| 
    7851              $C$DW$742       .dwtag  DW_TAG_TI_branch
    7852                      .dwattr $C$DW$742, DW_AT_low_pc(0x00)
    7853                      .dwattr $C$DW$742, DW_AT_name("_dataWrite")
    7854                      .dwattr $C$DW$742, DW_AT_TI_call
    7855 0014cf 08ED          CALL #_dataWrite ; |1360| 
         0014d1 CE   
    7856                                                      ; call occurs [#_dataWrite] ; |1360| 
    7857                      .dwpsn  file "../c5535_bsl_revc/ezdsp5535_v1/c55xx_csl/ccs_v4.0_examples/lcd/CSL_LCDC_DiagramExample/
    7858 0014d2 7600          MOV #92, T0 ; |1362| 
         0014d4 5C48 
    7859 0014d6 A500          MOV *SP(#0), T1 ; |1362| 
    7860              $C$DW$743       .dwtag  DW_TAG_TI_branch
    7861                      .dwattr $C$DW$743, DW_AT_low_pc(0x00)
    7862                      .dwattr $C$DW$743, DW_AT_name("_cmdWrite")
    7863                      .dwattr $C$DW$743, DW_AT_TI_call
    7864 0014d8 08ED          CALL #_cmdWrite ; |1362| 
         0014da AD   
    7865                                                      ; call occurs [#_cmdWrite] ; |1362| 
    7866                      .dwpsn  file "../c5535_bsl_revc/ezdsp5535_v1/c55xx_csl/ccs_v4.0_examples/lcd/CSL_LCDC_DiagramExample/
    7867 0014db E602          MOV #0, *SP(#1) ; |1364| 
         0014dd 00   
    7868                      .dwpsn  file "../c5535_bsl_revc/ezdsp5535_v1/c55xx_csl/ccs_v4.0_examples/lcd/CSL_LCDC_DiagramExample/
    7869 0014de 7600          MOV #64, AR2 ; |1364| 
         0014e0 40A8 
    7870 0014e2 A902          MOV *SP(#1), AR1 ; |1364| 
    7871 0014e4 1298          CMPU AR1 >= AR2, TC1 ; |1364| 
         0014e6 A4   
    7872 0014e7 0464          BCC $C$L135,TC1 ; |1364| 
         0014e9 56   
    7873                                                      ; branchcc occurs ; |1364| 
    7874 0014ea       $C$L130:    
    7875 0014ea       $C$DW$L$_draw_ti_logo$2$B:
    7876                      .dwpsn  file "../c5535_bsl_revc/ezdsp5535_v1/c55xx_csl/ccs_v4.0_examples/lcd/CSL_LCDC_DiagramExample/
    7877 0014ea E604          MOV #0, *SP(#2) ; |1366| 
         0014ec 00   
    7878                      .dwpsn  file "../c5535_bsl_revc/ezdsp5535_v1/c55xx_csl/ccs_v4.0_examples/lcd/CSL_LCDC_DiagramExample/
    7879 0014ed A904          MOV *SP(#2), AR1 ; |1366| 
    7880 0014ef 1298          CMPU AR1 >= AR2, TC1 ; |1366| 
         0014f1 A4   
    7881 0014f2 0464          BCC $C$L134,TC1 ; |1366| 
         0014f4 3F   
    7882                                                      ; branchcc occurs ; |1366| 
    7883 0014f5       $C$DW$L$_draw_ti_logo$2$E:
    7884 0014f5       $C$L131:    
    7885 0014f5       $C$DW$L$_draw_ti_logo$3$B:
    7886                      .dwpsn  file "../c5535_bsl_revc/ezdsp5535_v1/c55xx_csl/ccs_v4.0_examples/lcd/CSL_LCDC_DiagramExample/
    7887 0014f5 A002          MOV *SP(#1), AC0 ; |1368| 
    7888 0014f7 1007          SFTL AC0, #6, AC0 ; |1368| 
         0014f9 06   
    7889 0014fa D604          ADD *SP(#2), AC0, T0 ; |1368| 
TMS320C55x Assembler PC v4.4.1 Sat Sep 29 23:09:22 2018

Tools Copyright (c) 1996-2012 Texas Instruments Incorporated
lcdc_panel.asm                                                       PAGE  163

         0014fc 40   
    7890 0014fd EC31          AMOV #_ti_logo64, XAR3 ; |1368| 
         0014ff BE00 
         001501 0000!
    7891 001503 F06B          CMP *AR3(T0) == #1, TC1 ; |1368| 
         001505 0001 
    7892 001507 0474          BCC $C$L132,!TC1 ; |1368| 
         001509 12   
    7893                                                      ; branchcc occurs ; |1368| 
    7894 00150a       $C$DW$L$_draw_ti_logo$3$E:
    7895 00150a       $C$DW$L$_draw_ti_logo$4$B:
    7896                      .dwpsn  file "../c5535_bsl_revc/ezdsp5535_v1/c55xx_csl/ccs_v4.0_examples/lcd/CSL_LCDC_DiagramExample/
    7897 00150a A500          MOV *SP(#0), T1 ; |1369| 
    7898              $C$DW$744       .dwtag  DW_TAG_TI_branch
    7899                      .dwattr $C$DW$744, DW_AT_low_pc(0x00)
    7900                      .dwattr $C$DW$744, DW_AT_name("_dataWrite")
    7901                      .dwattr $C$DW$744, DW_AT_TI_call
    7902              
    7903 00150c 08ED          CALL #_dataWrite ; |1369| 
         00150e 8F   
    7904 00150f 3D04  ||      MOV #0, T0
    7905              
    7906                                                      ; call occurs [#_dataWrite] ; |1369| 
    7907                      .dwpsn  file "../c5535_bsl_revc/ezdsp5535_v1/c55xx_csl/ccs_v4.0_examples/lcd/CSL_LCDC_DiagramExample/
    7908 001511 7600          MOV #31, T0 ; |1370| 
         001513 1F48 
    7909 001515 A500          MOV *SP(#0), T1 ; |1370| 
    7910              $C$DW$745       .dwtag  DW_TAG_TI_branch
    7911                      .dwattr $C$DW$745, DW_AT_low_pc(0x00)
    7912                      .dwattr $C$DW$745, DW_AT_name("_dataWrite")
    7913                      .dwattr $C$DW$745, DW_AT_TI_call
    7914 001517 08ED          CALL #_dataWrite ; |1370| 
         001519 86   
    7915                                                      ; call occurs [#_dataWrite] ; |1370| 
    7916                      .dwpsn  file "../c5535_bsl_revc/ezdsp5535_v1/c55xx_csl/ccs_v4.0_examples/lcd/CSL_LCDC_DiagramExample/
    7917 00151a 4A0C          B $C$L133 ; |1371| 
    7918                                                      ; branch occurs ; |1371| 
    7919 00151c       $C$DW$L$_draw_ti_logo$4$E:
    7920 00151c       $C$L132:    
    7921 00151c       $C$DW$L$_draw_ti_logo$5$B:
    7922                      .dwpsn  file "../c5535_bsl_revc/ezdsp5535_v1/c55xx_csl/ccs_v4.0_examples/lcd/CSL_LCDC_DiagramExample/
    7923 00151c A500          MOV *SP(#0), T1 ; |1373| 
    7924              $C$DW$746       .dwtag  DW_TAG_TI_branch
    7925                      .dwattr $C$DW$746, DW_AT_low_pc(0x00)
    7926                      .dwattr $C$DW$746, DW_AT_name("_dataWrite")
    7927                      .dwattr $C$DW$746, DW_AT_TI_call
    7928              
    7929 00151e 08ED          CALL #_dataWrite ; |1373| 
         001520 7D   
    7930 001521 3D04  ||      MOV #0, T0
    7931              
    7932                                                      ; call occurs [#_dataWrite] ; |1373| 
    7933                      .dwpsn  file "../c5535_bsl_revc/ezdsp5535_v1/c55xx_csl/ccs_v4.0_examples/lcd/CSL_LCDC_DiagramExample/
    7934 001523 A500          MOV *SP(#0), T1 ; |1374| 
    7935              $C$DW$747       .dwtag  DW_TAG_TI_branch
TMS320C55x Assembler PC v4.4.1 Sat Sep 29 23:09:22 2018

Tools Copyright (c) 1996-2012 Texas Instruments Incorporated
lcdc_panel.asm                                                       PAGE  164

    7936                      .dwattr $C$DW$747, DW_AT_low_pc(0x00)
    7937                      .dwattr $C$DW$747, DW_AT_name("_dataWrite")
    7938                      .dwattr $C$DW$747, DW_AT_TI_call
    7939 001525 08ED          CALL #_dataWrite ; |1374| 
         001527 78   
    7940                                                      ; call occurs [#_dataWrite] ; |1374| 
    7941 001528       $C$DW$L$_draw_ti_logo$5$E:
    7942 001528       $C$L133:    
    7943 001528       $C$DW$L$_draw_ti_logo$6$B:
    7944                      .dwpsn  file "../c5535_bsl_revc/ezdsp5535_v1/c55xx_csl/ccs_v4.0_examples/lcd/CSL_LCDC_DiagramExample/
    7945 001528 F704          ADD #1, *SP(#2) ; |1366| 
         00152a 0001 
    7946                      .dwpsn  file "../c5535_bsl_revc/ezdsp5535_v1/c55xx_csl/ccs_v4.0_examples/lcd/CSL_LCDC_DiagramExample/
    7947 00152c A904          MOV *SP(#2), AR1 ; |1366| 
    7948 00152e 1294          CMPU AR1 < AR2, TC1 ; |1366| 
         001530 A4   
    7949 001531 0464          BCC $C$L131,TC1 ; |1366| 
         001533 C1   
    7950                                                      ; branchcc occurs ; |1366| 
    7951 001534       $C$DW$L$_draw_ti_logo$6$E:
    7952 001534       $C$L134:    
    7953 001534       $C$DW$L$_draw_ti_logo$7$B:
    7954                      .dwpsn  file "../c5535_bsl_revc/ezdsp5535_v1/c55xx_csl/ccs_v4.0_examples/lcd/CSL_LCDC_DiagramExample/
    7955 001534 F702          ADD #1, *SP(#1) ; |1364| 
         001536 0001 
    7956                      .dwpsn  file "../c5535_bsl_revc/ezdsp5535_v1/c55xx_csl/ccs_v4.0_examples/lcd/CSL_LCDC_DiagramExample/
    7957 001538 A902          MOV *SP(#1), AR1 ; |1364| 
    7958 00153a 1294          CMPU AR1 < AR2, TC1 ; |1364| 
         00153c A4   
    7959 00153d 0464          BCC $C$L130,TC1 ; |1364| 
         00153f AA   
    7960                                                      ; branchcc occurs ; |1364| 
    7961 001540       $C$DW$L$_draw_ti_logo$7$E:
    7962 001540       $C$L135:    
    7963                      .dwpsn  file "../c5535_bsl_revc/ezdsp5535_v1/c55xx_csl/ccs_v4.0_examples/lcd/CSL_LCDC_DiagramExample/
    7964 001540 A500          MOV *SP(#0), T1 ; |1380| 
    7965 001542 7600          MOV #21, T0 ; |1380| 
         001544 1548 
    7966              $C$DW$748       .dwtag  DW_TAG_TI_branch
    7967                      .dwattr $C$DW$748, DW_AT_low_pc(0x00)
    7968                      .dwattr $C$DW$748, DW_AT_name("_cmdWrite")
    7969                      .dwattr $C$DW$748, DW_AT_TI_call
    7970 001546 08ED          CALL #_cmdWrite ; |1380| 
         001548 3F   
    7971                                                      ; call occurs [#_cmdWrite] ; |1380| 
    7972                      .dwpsn  file "../c5535_bsl_revc/ezdsp5535_v1/c55xx_csl/ccs_v4.0_examples/lcd/CSL_LCDC_DiagramExample/
    7973 001549 7600          MOV #80, T0 ; |1381| 
         00154b 5048 
    7974 00154d A500          MOV *SP(#0), T1 ; |1381| 
    7975              $C$DW$749       .dwtag  DW_TAG_TI_branch
    7976                      .dwattr $C$DW$749, DW_AT_low_pc(0x00)
    7977                      .dwattr $C$DW$749, DW_AT_name("_dataWrite")
    7978                      .dwattr $C$DW$749, DW_AT_TI_call
    7979 00154f 08ED          CALL #_dataWrite ; |1381| 
         001551 4E   
TMS320C55x Assembler PC v4.4.1 Sat Sep 29 23:09:22 2018

Tools Copyright (c) 1996-2012 Texas Instruments Incorporated
lcdc_panel.asm                                                       PAGE  165

    7980                                                      ; call occurs [#_dataWrite] ; |1381| 
    7981                      .dwpsn  file "../c5535_bsl_revc/ezdsp5535_v1/c55xx_csl/ccs_v4.0_examples/lcd/CSL_LCDC_DiagramExample/
    7982 001552 7600          MOV #111, T0 ; |1382| 
         001554 6F48 
    7983 001556 A500          MOV *SP(#0), T1 ; |1382| 
    7984              $C$DW$750       .dwtag  DW_TAG_TI_branch
    7985                      .dwattr $C$DW$750, DW_AT_low_pc(0x00)
    7986                      .dwattr $C$DW$750, DW_AT_name("_dataWrite")
    7987                      .dwattr $C$DW$750, DW_AT_TI_call
    7988 001558 08ED          CALL #_dataWrite ; |1382| 
         00155a 45   
    7989                                                      ; call occurs [#_dataWrite] ; |1382| 
    7990                      .dwpsn  file "../c5535_bsl_revc/ezdsp5535_v1/c55xx_csl/ccs_v4.0_examples/lcd/CSL_LCDC_DiagramExample/
    7991 00155b 7600          MOV #117, T0 ; |1384| 
         00155d 7548 
    7992 00155f A500          MOV *SP(#0), T1 ; |1384| 
    7993              $C$DW$751       .dwtag  DW_TAG_TI_branch
    7994                      .dwattr $C$DW$751, DW_AT_low_pc(0x00)
    7995                      .dwattr $C$DW$751, DW_AT_name("_cmdWrite")
    7996                      .dwattr $C$DW$751, DW_AT_TI_call
    7997 001561 08ED          CALL #_cmdWrite ; |1384| 
         001563 24   
    7998                                                      ; call occurs [#_cmdWrite] ; |1384| 
    7999                      .dwpsn  file "../c5535_bsl_revc/ezdsp5535_v1/c55xx_csl/ccs_v4.0_examples/lcd/CSL_LCDC_DiagramExample/
    8000 001564 7600          MOV #30, T0 ; |1385| 
         001566 1E48 
    8001 001568 A500          MOV *SP(#0), T1 ; |1385| 
    8002              $C$DW$752       .dwtag  DW_TAG_TI_branch
    8003                      .dwattr $C$DW$752, DW_AT_low_pc(0x00)
    8004                      .dwattr $C$DW$752, DW_AT_name("_dataWrite")
    8005                      .dwattr $C$DW$752, DW_AT_TI_call
    8006 00156a 08ED          CALL #_dataWrite ; |1385| 
         00156c 33   
    8007                                                      ; call occurs [#_dataWrite] ; |1385| 
    8008                      .dwpsn  file "../c5535_bsl_revc/ezdsp5535_v1/c55xx_csl/ccs_v4.0_examples/lcd/CSL_LCDC_DiagramExample/
    8009 00156d 7600          MOV #127, T0 ; |1386| 
         00156f 7F48 
    8010 001571 A500          MOV *SP(#0), T1 ; |1386| 
    8011              $C$DW$753       .dwtag  DW_TAG_TI_branch
    8012                      .dwattr $C$DW$753, DW_AT_low_pc(0x00)
    8013                      .dwattr $C$DW$753, DW_AT_name("_dataWrite")
    8014                      .dwattr $C$DW$753, DW_AT_TI_call
    8015 001573 08ED          CALL #_dataWrite ; |1386| 
         001575 2A   
    8016                                                      ; call occurs [#_dataWrite] ; |1386| 
    8017                      .dwpsn  file "../c5535_bsl_revc/ezdsp5535_v1/c55xx_csl/ccs_v4.0_examples/lcd/CSL_LCDC_DiagramExample/
    8018 001576 7600          MOV #92, T0 ; |1388| 
         001578 5C48 
    8019 00157a A500          MOV *SP(#0), T1 ; |1388| 
    8020              $C$DW$754       .dwtag  DW_TAG_TI_branch
    8021                      .dwattr $C$DW$754, DW_AT_low_pc(0x00)
    8022                      .dwattr $C$DW$754, DW_AT_name("_cmdWrite")
    8023                      .dwattr $C$DW$754, DW_AT_TI_call
    8024 00157c 08ED          CALL #_cmdWrite ; |1388| 
         00157e 09   
TMS320C55x Assembler PC v4.4.1 Sat Sep 29 23:09:22 2018

Tools Copyright (c) 1996-2012 Texas Instruments Incorporated
lcdc_panel.asm                                                       PAGE  166

    8025                                                      ; call occurs [#_cmdWrite] ; |1388| 
    8026                      .dwpsn  file "../c5535_bsl_revc/ezdsp5535_v1/c55xx_csl/ccs_v4.0_examples/lcd/CSL_LCDC_DiagramExample/
    8027 00157f E602          MOV #0, *SP(#1) ; |1390| 
         001581 00   
    8028                      .dwpsn  file "../c5535_bsl_revc/ezdsp5535_v1/c55xx_csl/ccs_v4.0_examples/lcd/CSL_LCDC_DiagramExample/
    8029 001582 7600          MOV #32, AR2 ; |1390| 
         001584 20A8 
    8030 001586 A902          MOV *SP(#1), AR1 ; |1390| 
    8031 001588 1298          CMPU AR1 >= AR2, TC1 ; |1390| 
         00158a A4   
    8032 00158b 0464          BCC $C$L141,TC1 ; |1390| 
         00158d 56   
    8033                                                      ; branchcc occurs ; |1390| 
    8034 00158e       $C$L136:    
    8035 00158e       $C$DW$L$_draw_ti_logo$9$B:
    8036                      .dwpsn  file "../c5535_bsl_revc/ezdsp5535_v1/c55xx_csl/ccs_v4.0_examples/lcd/CSL_LCDC_DiagramExample/
    8037 00158e E604          MOV #0, *SP(#2) ; |1392| 
         001590 00   
    8038                      .dwpsn  file "../c5535_bsl_revc/ezdsp5535_v1/c55xx_csl/ccs_v4.0_examples/lcd/CSL_LCDC_DiagramExample/
    8039 001591 A904          MOV *SP(#2), AR1 ; |1392| 
    8040 001593 1298          CMPU AR1 >= AR2, TC1 ; |1392| 
         001595 A4   
    8041 001596 0464          BCC $C$L140,TC1 ; |1392| 
         001598 3F   
    8042                                                      ; branchcc occurs ; |1392| 
    8043 001599       $C$DW$L$_draw_ti_logo$9$E:
    8044 001599       $C$L137:    
    8045 001599       $C$DW$L$_draw_ti_logo$10$B:
    8046                      .dwpsn  file "../c5535_bsl_revc/ezdsp5535_v1/c55xx_csl/ccs_v4.0_examples/lcd/CSL_LCDC_DiagramExample/
    8047 001599 A002          MOV *SP(#1), AC0 ; |1394| 
    8048 00159b 1007          SFTL AC0, #5, AC0 ; |1394| 
         00159d 05   
    8049 00159e D604          ADD *SP(#2), AC0, T0 ; |1394| 
         0015a0 40   
    8050 0015a1 EC31          AMOV #_ti_logo32, XAR3 ; |1394| 
         0015a3 BE00 
         0015a5 0000!
    8051 0015a7 F06B          CMP *AR3(T0) == #1, TC1 ; |1394| 
         0015a9 0001 
    8052 0015ab 0474          BCC $C$L138,!TC1 ; |1394| 
         0015ad 12   
    8053                                                      ; branchcc occurs ; |1394| 
    8054 0015ae       $C$DW$L$_draw_ti_logo$10$E:
    8055 0015ae       $C$DW$L$_draw_ti_logo$11$B:
    8056                      .dwpsn  file "../c5535_bsl_revc/ezdsp5535_v1/c55xx_csl/ccs_v4.0_examples/lcd/CSL_LCDC_DiagramExample/
    8057 0015ae A500          MOV *SP(#0), T1 ; |1395| 
    8058              $C$DW$755       .dwtag  DW_TAG_TI_branch
    8059                      .dwattr $C$DW$755, DW_AT_low_pc(0x00)
    8060                      .dwattr $C$DW$755, DW_AT_name("_dataWrite")
    8061                      .dwattr $C$DW$755, DW_AT_TI_call
    8062              
    8063 0015b0 08EC          CALL #_dataWrite ; |1395| 
         0015b2 EB   
    8064 0015b3 3D04  ||      MOV #0, T0
    8065              
TMS320C55x Assembler PC v4.4.1 Sat Sep 29 23:09:22 2018

Tools Copyright (c) 1996-2012 Texas Instruments Incorporated
lcdc_panel.asm                                                       PAGE  167

    8066                                                      ; call occurs [#_dataWrite] ; |1395| 
    8067                      .dwpsn  file "../c5535_bsl_revc/ezdsp5535_v1/c55xx_csl/ccs_v4.0_examples/lcd/CSL_LCDC_DiagramExample/
    8068 0015b5 7600          MOV #31, T0 ; |1396| 
         0015b7 1F48 
    8069 0015b9 A500          MOV *SP(#0), T1 ; |1396| 
    8070              $C$DW$756       .dwtag  DW_TAG_TI_branch
    8071                      .dwattr $C$DW$756, DW_AT_low_pc(0x00)
    8072                      .dwattr $C$DW$756, DW_AT_name("_dataWrite")
    8073                      .dwattr $C$DW$756, DW_AT_TI_call
    8074 0015bb 08EC          CALL #_dataWrite ; |1396| 
         0015bd E2   
    8075                                                      ; call occurs [#_dataWrite] ; |1396| 
    8076                      .dwpsn  file "../c5535_bsl_revc/ezdsp5535_v1/c55xx_csl/ccs_v4.0_examples/lcd/CSL_LCDC_DiagramExample/
    8077 0015be 4A0C          B $C$L139 ; |1397| 
    8078                                                      ; branch occurs ; |1397| 
    8079 0015c0       $C$DW$L$_draw_ti_logo$11$E:
    8080 0015c0       $C$L138:    
    8081 0015c0       $C$DW$L$_draw_ti_logo$12$B:
    8082                      .dwpsn  file "../c5535_bsl_revc/ezdsp5535_v1/c55xx_csl/ccs_v4.0_examples/lcd/CSL_LCDC_DiagramExample/
    8083 0015c0 A500          MOV *SP(#0), T1 ; |1399| 
    8084              $C$DW$757       .dwtag  DW_TAG_TI_branch
    8085                      .dwattr $C$DW$757, DW_AT_low_pc(0x00)
    8086                      .dwattr $C$DW$757, DW_AT_name("_dataWrite")
    8087                      .dwattr $C$DW$757, DW_AT_TI_call
    8088              
    8089 0015c2 08EC          CALL #_dataWrite ; |1399| 
         0015c4 D9   
    8090 0015c5 3D04  ||      MOV #0, T0
    8091              
    8092                                                      ; call occurs [#_dataWrite] ; |1399| 
    8093                      .dwpsn  file "../c5535_bsl_revc/ezdsp5535_v1/c55xx_csl/ccs_v4.0_examples/lcd/CSL_LCDC_DiagramExample/
    8094 0015c7 A500          MOV *SP(#0), T1 ; |1400| 
    8095              $C$DW$758       .dwtag  DW_TAG_TI_branch
    8096                      .dwattr $C$DW$758, DW_AT_low_pc(0x00)
    8097                      .dwattr $C$DW$758, DW_AT_name("_dataWrite")
    8098                      .dwattr $C$DW$758, DW_AT_TI_call
    8099 0015c9 08EC          CALL #_dataWrite ; |1400| 
         0015cb D4   
    8100                                                      ; call occurs [#_dataWrite] ; |1400| 
    8101 0015cc       $C$DW$L$_draw_ti_logo$12$E:
    8102 0015cc       $C$L139:    
    8103 0015cc       $C$DW$L$_draw_ti_logo$13$B:
    8104                      .dwpsn  file "../c5535_bsl_revc/ezdsp5535_v1/c55xx_csl/ccs_v4.0_examples/lcd/CSL_LCDC_DiagramExample/
    8105 0015cc F704          ADD #1, *SP(#2) ; |1392| 
         0015ce 0001 
    8106                      .dwpsn  file "../c5535_bsl_revc/ezdsp5535_v1/c55xx_csl/ccs_v4.0_examples/lcd/CSL_LCDC_DiagramExample/
    8107 0015d0 A904          MOV *SP(#2), AR1 ; |1392| 
    8108 0015d2 1294          CMPU AR1 < AR2, TC1 ; |1392| 
         0015d4 A4   
    8109 0015d5 0464          BCC $C$L137,TC1 ; |1392| 
         0015d7 C1   
    8110                                                      ; branchcc occurs ; |1392| 
    8111 0015d8       $C$DW$L$_draw_ti_logo$13$E:
    8112 0015d8       $C$L140:    
    8113 0015d8       $C$DW$L$_draw_ti_logo$14$B:
TMS320C55x Assembler PC v4.4.1 Sat Sep 29 23:09:22 2018

Tools Copyright (c) 1996-2012 Texas Instruments Incorporated
lcdc_panel.asm                                                       PAGE  168

    8114                      .dwpsn  file "../c5535_bsl_revc/ezdsp5535_v1/c55xx_csl/ccs_v4.0_examples/lcd/CSL_LCDC_DiagramExample/
    8115 0015d8 F702          ADD #1, *SP(#1) ; |1390| 
         0015da 0001 
    8116                      .dwpsn  file "../c5535_bsl_revc/ezdsp5535_v1/c55xx_csl/ccs_v4.0_examples/lcd/CSL_LCDC_DiagramExample/
    8117 0015dc A902          MOV *SP(#1), AR1 ; |1390| 
    8118 0015de 1294          CMPU AR1 < AR2, TC1 ; |1390| 
         0015e0 A4   
    8119 0015e1 0464          BCC $C$L136,TC1 ; |1390| 
         0015e3 AA   
    8120                                                      ; branchcc occurs ; |1390| 
    8121 0015e4       $C$DW$L$_draw_ti_logo$14$E:
    8122 0015e4       $C$L141:    
    8123                      .dwpsn  file "../c5535_bsl_revc/ezdsp5535_v1/c55xx_csl/ccs_v4.0_examples/lcd/CSL_LCDC_DiagramExample/
    8124 0015e4 3C04          MOV #0, T0
    8125                      .dwpsn  file "../c5535_bsl_revc/ezdsp5535_v1/c55xx_csl/ccs_v4.0_examples/lcd/CSL_LCDC_DiagramExample/
    8126 0015e6 4E03          AADD #3, SP
    8127                      .dwcfi  cfa_offset, 1
    8128              $C$DW$759       .dwtag  DW_TAG_TI_branch
    8129                      .dwattr $C$DW$759, DW_AT_low_pc(0x00)
    8130                      .dwattr $C$DW$759, DW_AT_TI_return
    8131 0015e8 4804          RET
    8132                                                      ; return occurs
    8133              
    8134              $C$DW$760       .dwtag  DW_TAG_TI_loop
    8135                      .dwattr $C$DW$760, DW_AT_name("F:\eZdsp_DBG\tmp1\c55x-sim2\foo\Debug\lcdc_panel.asm:$C$L136:1:1538287
    8136                      .dwattr $C$DW$760, DW_AT_TI_begin_file("../c5535_bsl_revc/ezdsp5535_v1/c55xx_csl/ccs_v4.0_examples/lc
    8137                      .dwattr $C$DW$760, DW_AT_TI_begin_line(0x56e)
    8138                      .dwattr $C$DW$760, DW_AT_TI_end_line(0x57b)
    8139              $C$DW$761       .dwtag  DW_TAG_TI_loop_range
    8140                      .dwattr $C$DW$761, DW_AT_low_pc($C$DW$L$_draw_ti_logo$9$B)
    8141                      .dwattr $C$DW$761, DW_AT_high_pc($C$DW$L$_draw_ti_logo$9$E)
    8142              $C$DW$762       .dwtag  DW_TAG_TI_loop_range
    8143                      .dwattr $C$DW$762, DW_AT_low_pc($C$DW$L$_draw_ti_logo$14$B)
    8144                      .dwattr $C$DW$762, DW_AT_high_pc($C$DW$L$_draw_ti_logo$14$E)
    8145              
    8146              $C$DW$763       .dwtag  DW_TAG_TI_loop
    8147                      .dwattr $C$DW$763, DW_AT_name("F:\eZdsp_DBG\tmp1\c55x-sim2\foo\Debug\lcdc_panel.asm:$C$L137:2:1538287
    8148                      .dwattr $C$DW$763, DW_AT_TI_begin_file("../c5535_bsl_revc/ezdsp5535_v1/c55xx_csl/ccs_v4.0_examples/lc
    8149                      .dwattr $C$DW$763, DW_AT_TI_begin_line(0x570)
    8150                      .dwattr $C$DW$763, DW_AT_TI_end_line(0x57a)
    8151              $C$DW$764       .dwtag  DW_TAG_TI_loop_range
    8152                      .dwattr $C$DW$764, DW_AT_low_pc($C$DW$L$_draw_ti_logo$10$B)
    8153                      .dwattr $C$DW$764, DW_AT_high_pc($C$DW$L$_draw_ti_logo$10$E)
    8154              $C$DW$765       .dwtag  DW_TAG_TI_loop_range
    8155                      .dwattr $C$DW$765, DW_AT_low_pc($C$DW$L$_draw_ti_logo$11$B)
    8156                      .dwattr $C$DW$765, DW_AT_high_pc($C$DW$L$_draw_ti_logo$11$E)
    8157              $C$DW$766       .dwtag  DW_TAG_TI_loop_range
    8158                      .dwattr $C$DW$766, DW_AT_low_pc($C$DW$L$_draw_ti_logo$12$B)
    8159                      .dwattr $C$DW$766, DW_AT_high_pc($C$DW$L$_draw_ti_logo$12$E)
    8160              $C$DW$767       .dwtag  DW_TAG_TI_loop_range
    8161                      .dwattr $C$DW$767, DW_AT_low_pc($C$DW$L$_draw_ti_logo$13$B)
    8162                      .dwattr $C$DW$767, DW_AT_high_pc($C$DW$L$_draw_ti_logo$13$E)
    8163                      .dwendtag $C$DW$763
    8164              
    8165                      .dwendtag $C$DW$760
TMS320C55x Assembler PC v4.4.1 Sat Sep 29 23:09:22 2018

Tools Copyright (c) 1996-2012 Texas Instruments Incorporated
lcdc_panel.asm                                                       PAGE  169

    8166              
    8167              
    8168              $C$DW$768       .dwtag  DW_TAG_TI_loop
    8169                      .dwattr $C$DW$768, DW_AT_name("F:\eZdsp_DBG\tmp1\c55x-sim2\foo\Debug\lcdc_panel.asm:$C$L130:1:1538287
    8170                      .dwattr $C$DW$768, DW_AT_TI_begin_file("../c5535_bsl_revc/ezdsp5535_v1/c55xx_csl/ccs_v4.0_examples/lc
    8171                      .dwattr $C$DW$768, DW_AT_TI_begin_line(0x554)
    8172                      .dwattr $C$DW$768, DW_AT_TI_end_line(0x561)
    8173              $C$DW$769       .dwtag  DW_TAG_TI_loop_range
    8174                      .dwattr $C$DW$769, DW_AT_low_pc($C$DW$L$_draw_ti_logo$2$B)
    8175                      .dwattr $C$DW$769, DW_AT_high_pc($C$DW$L$_draw_ti_logo$2$E)
    8176              $C$DW$770       .dwtag  DW_TAG_TI_loop_range
    8177                      .dwattr $C$DW$770, DW_AT_low_pc($C$DW$L$_draw_ti_logo$7$B)
    8178                      .dwattr $C$DW$770, DW_AT_high_pc($C$DW$L$_draw_ti_logo$7$E)
    8179              
    8180              $C$DW$771       .dwtag  DW_TAG_TI_loop
    8181                      .dwattr $C$DW$771, DW_AT_name("F:\eZdsp_DBG\tmp1\c55x-sim2\foo\Debug\lcdc_panel.asm:$C$L131:2:1538287
    8182                      .dwattr $C$DW$771, DW_AT_TI_begin_file("../c5535_bsl_revc/ezdsp5535_v1/c55xx_csl/ccs_v4.0_examples/lc
    8183                      .dwattr $C$DW$771, DW_AT_TI_begin_line(0x556)
    8184                      .dwattr $C$DW$771, DW_AT_TI_end_line(0x560)
    8185              $C$DW$772       .dwtag  DW_TAG_TI_loop_range
    8186                      .dwattr $C$DW$772, DW_AT_low_pc($C$DW$L$_draw_ti_logo$3$B)
    8187                      .dwattr $C$DW$772, DW_AT_high_pc($C$DW$L$_draw_ti_logo$3$E)
    8188              $C$DW$773       .dwtag  DW_TAG_TI_loop_range
    8189                      .dwattr $C$DW$773, DW_AT_low_pc($C$DW$L$_draw_ti_logo$4$B)
    8190                      .dwattr $C$DW$773, DW_AT_high_pc($C$DW$L$_draw_ti_logo$4$E)
    8191              $C$DW$774       .dwtag  DW_TAG_TI_loop_range
    8192                      .dwattr $C$DW$774, DW_AT_low_pc($C$DW$L$_draw_ti_logo$5$B)
    8193                      .dwattr $C$DW$774, DW_AT_high_pc($C$DW$L$_draw_ti_logo$5$E)
    8194              $C$DW$775       .dwtag  DW_TAG_TI_loop_range
    8195                      .dwattr $C$DW$775, DW_AT_low_pc($C$DW$L$_draw_ti_logo$6$B)
    8196                      .dwattr $C$DW$775, DW_AT_high_pc($C$DW$L$_draw_ti_logo$6$E)
    8197                      .dwendtag $C$DW$771
    8198              
    8199                      .dwendtag $C$DW$768
    8200              
    8201                      .dwattr $C$DW$732, DW_AT_TI_end_file("../c5535_bsl_revc/ezdsp5535_v1/c55xx_csl/ccs_v4.0_examples/lcd/
    8202                      .dwattr $C$DW$732, DW_AT_TI_end_line(0x57d)
    8203                      .dwattr $C$DW$732, DW_AT_TI_end_column(0x01)
    8204                      .dwendentry
    8205                      .dwendtag $C$DW$732
    8206              
    8207              ;******************************************************************************
    8208              ;* UNDEFINED EXTERNAL REFERENCES                                              *
    8209              ;******************************************************************************
    8210                      .global _hLcdc
    8211                      .global _ti_logo64
    8212                      .global _ti_logo32
    8213                      .global __divd
    8214                      .global __fltid
    8215                      .global __fltud
    8216                      .global __mpyd
    8217                      .global __subd
    8218                      .global __addd
    8219                      .global __fixdu
    8220              
TMS320C55x Assembler PC v4.4.1 Sat Sep 29 23:09:22 2018

Tools Copyright (c) 1996-2012 Texas Instruments Incorporated
lcdc_panel.asm                                                       PAGE  170

    8221              ;*******************************************************************************
    8222              ;* TYPE INFORMATION                                                            *
    8223              ;*******************************************************************************
    8224              
    8225              $C$DW$T$32      .dwtag  DW_TAG_enumeration_type
    8226                      .dwattr $C$DW$T$32, DW_AT_byte_size(0x01)
    8227              $C$DW$776       .dwtag  DW_TAG_enumerator, DW_AT_name("CSL_LCDC_LIDD_CS0"), DW_AT_const_value(0x00)
    8228              $C$DW$777       .dwtag  DW_TAG_enumerator, DW_AT_name("CSL_LCDC_LIDD_CS1"), DW_AT_const_value(0x01)
    8229                      .dwendtag $C$DW$T$32
    8230              
    8231              $C$DW$T$33      .dwtag  DW_TAG_typedef, DW_AT_name("CSL_LcdcChipSelect")
    8232                      .dwattr $C$DW$T$33, DW_AT_type(*$C$DW$T$32)
    8233                      .dwattr $C$DW$T$33, DW_AT_language(DW_LANG_C)
    8234              
    8235              $C$DW$T$34      .dwtag  DW_TAG_enumeration_type
    8236                      .dwattr $C$DW$T$34, DW_AT_byte_size(0x01)
    8237              $C$DW$778       .dwtag  DW_TAG_enumerator, DW_AT_name("COLOURS_256"), DW_AT_const_value(0x00)
    8238              $C$DW$779       .dwtag  DW_TAG_enumerator, DW_AT_name("COLOURS_65K"), DW_AT_const_value(0x01)
    8239              $C$DW$780       .dwtag  DW_TAG_enumerator, DW_AT_name("COLOURS_262K_1ST"), DW_AT_const_value(0x02)
    8240              $C$DW$781       .dwtag  DW_TAG_enumerator, DW_AT_name("COLOURS_262K_2ND"), DW_AT_const_value(0x03)
    8241                      .dwendtag $C$DW$T$34
    8242              
    8243              $C$DW$T$35      .dwtag  DW_TAG_typedef, DW_AT_name("eColourMode")
    8244                      .dwattr $C$DW$T$35, DW_AT_type(*$C$DW$T$34)
    8245                      .dwattr $C$DW$T$35, DW_AT_language(DW_LANG_C)
    8246              
    8247              $C$DW$T$36      .dwtag  DW_TAG_enumeration_type
    8248                      .dwattr $C$DW$T$36, DW_AT_byte_size(0x01)
    8249              $C$DW$782       .dwtag  DW_TAG_enumerator, DW_AT_name("I_VSL_NP"), DW_AT_const_value(0x00)
    8250              $C$DW$783       .dwtag  DW_TAG_enumerator, DW_AT_name("I_VSL_PS"), DW_AT_const_value(0x12)
    8251              $C$DW$784       .dwtag  DW_TAG_enumerator, DW_AT_name("E_VSL_NP"), DW_AT_const_value(0x05)
    8252              $C$DW$785       .dwtag  DW_TAG_enumerator, DW_AT_name("E_VSL_PS"), DW_AT_const_value(0x15)
    8253                      .dwendtag $C$DW$T$36
    8254              
    8255              $C$DW$T$37      .dwtag  DW_TAG_typedef, DW_AT_name("ePowerSaveMode")
    8256                      .dwattr $C$DW$T$37, DW_AT_type(*$C$DW$T$36)
    8257                      .dwattr $C$DW$T$37, DW_AT_language(DW_LANG_C)
    8258              
    8259              $C$DW$T$24      .dwtag  DW_TAG_structure_type
    8260                      .dwattr $C$DW$T$24, DW_AT_byte_size(0x52)
    8261              $C$DW$786       .dwtag  DW_TAG_member
    8262                      .dwattr $C$DW$786, DW_AT_type(*$C$DW$T$20)
    8263                      .dwattr $C$DW$786, DW_AT_name("LCDREVMIN")
    8264                      .dwattr $C$DW$786, DW_AT_TI_symbol_name("_LCDREVMIN")
    8265                      .dwattr $C$DW$786, DW_AT_data_member_location[DW_OP_plus_uconst 0x0]
    8266                      .dwattr $C$DW$786, DW_AT_accessibility(DW_ACCESS_public)
    8267              $C$DW$787       .dwtag  DW_TAG_member
    8268                      .dwattr $C$DW$787, DW_AT_type(*$C$DW$T$20)
    8269                      .dwattr $C$DW$787, DW_AT_name("LCDREVMAJ")
    8270                      .dwattr $C$DW$787, DW_AT_TI_symbol_name("_LCDREVMAJ")
    8271                      .dwattr $C$DW$787, DW_AT_data_member_location[DW_OP_plus_uconst 0x1]
    8272                      .dwattr $C$DW$787, DW_AT_accessibility(DW_ACCESS_public)
    8273              $C$DW$788       .dwtag  DW_TAG_member
    8274                      .dwattr $C$DW$788, DW_AT_type(*$C$DW$T$21)
    8275                      .dwattr $C$DW$788, DW_AT_name("RSVD0")
TMS320C55x Assembler PC v4.4.1 Sat Sep 29 23:09:22 2018

Tools Copyright (c) 1996-2012 Texas Instruments Incorporated
lcdc_panel.asm                                                       PAGE  171

    8276                      .dwattr $C$DW$788, DW_AT_TI_symbol_name("_RSVD0")
    8277                      .dwattr $C$DW$788, DW_AT_data_member_location[DW_OP_plus_uconst 0x2]
    8278                      .dwattr $C$DW$788, DW_AT_accessibility(DW_ACCESS_public)
    8279              $C$DW$789       .dwtag  DW_TAG_member
    8280                      .dwattr $C$DW$789, DW_AT_type(*$C$DW$T$20)
    8281                      .dwattr $C$DW$789, DW_AT_name("LCDCR")
    8282                      .dwattr $C$DW$789, DW_AT_TI_symbol_name("_LCDCR")
    8283                      .dwattr $C$DW$789, DW_AT_data_member_location[DW_OP_plus_uconst 0x4]
    8284                      .dwattr $C$DW$789, DW_AT_accessibility(DW_ACCESS_public)
    8285              $C$DW$790       .dwtag  DW_TAG_member
    8286                      .dwattr $C$DW$790, DW_AT_type(*$C$DW$T$22)
    8287                      .dwattr $C$DW$790, DW_AT_name("RSVD1")
    8288                      .dwattr $C$DW$790, DW_AT_TI_symbol_name("_RSVD1")
    8289                      .dwattr $C$DW$790, DW_AT_data_member_location[DW_OP_plus_uconst 0x5]
    8290                      .dwattr $C$DW$790, DW_AT_accessibility(DW_ACCESS_public)
    8291              $C$DW$791       .dwtag  DW_TAG_member
    8292                      .dwattr $C$DW$791, DW_AT_type(*$C$DW$T$20)
    8293                      .dwattr $C$DW$791, DW_AT_name("LCDSR")
    8294                      .dwattr $C$DW$791, DW_AT_TI_symbol_name("_LCDSR")
    8295                      .dwattr $C$DW$791, DW_AT_data_member_location[DW_OP_plus_uconst 0x8]
    8296                      .dwattr $C$DW$791, DW_AT_accessibility(DW_ACCESS_public)
    8297              $C$DW$792       .dwtag  DW_TAG_member
    8298                      .dwattr $C$DW$792, DW_AT_type(*$C$DW$T$22)
    8299                      .dwattr $C$DW$792, DW_AT_name("RSVD2")
    8300                      .dwattr $C$DW$792, DW_AT_TI_symbol_name("_RSVD2")
    8301                      .dwattr $C$DW$792, DW_AT_data_member_location[DW_OP_plus_uconst 0x9]
    8302                      .dwattr $C$DW$792, DW_AT_accessibility(DW_ACCESS_public)
    8303              $C$DW$793       .dwtag  DW_TAG_member
    8304                      .dwattr $C$DW$793, DW_AT_type(*$C$DW$T$20)
    8305                      .dwattr $C$DW$793, DW_AT_name("LCDLIDDCR")
    8306                      .dwattr $C$DW$793, DW_AT_TI_symbol_name("_LCDLIDDCR")
    8307                      .dwattr $C$DW$793, DW_AT_data_member_location[DW_OP_plus_uconst 0xc]
    8308                      .dwattr $C$DW$793, DW_AT_accessibility(DW_ACCESS_public)
    8309              $C$DW$794       .dwtag  DW_TAG_member
    8310                      .dwattr $C$DW$794, DW_AT_type(*$C$DW$T$22)
    8311                      .dwattr $C$DW$794, DW_AT_name("RSVD3")
    8312                      .dwattr $C$DW$794, DW_AT_TI_symbol_name("_RSVD3")
    8313                      .dwattr $C$DW$794, DW_AT_data_member_location[DW_OP_plus_uconst 0xd]
    8314                      .dwattr $C$DW$794, DW_AT_accessibility(DW_ACCESS_public)
    8315              $C$DW$795       .dwtag  DW_TAG_member
    8316                      .dwattr $C$DW$795, DW_AT_type(*$C$DW$T$20)
    8317                      .dwattr $C$DW$795, DW_AT_name("LCDLIDDCS0CONFIG0")
    8318                      .dwattr $C$DW$795, DW_AT_TI_symbol_name("_LCDLIDDCS0CONFIG0")
    8319                      .dwattr $C$DW$795, DW_AT_data_member_location[DW_OP_plus_uconst 0x10]
    8320                      .dwattr $C$DW$795, DW_AT_accessibility(DW_ACCESS_public)
    8321              $C$DW$796       .dwtag  DW_TAG_member
    8322                      .dwattr $C$DW$796, DW_AT_type(*$C$DW$T$20)
    8323                      .dwattr $C$DW$796, DW_AT_name("LCDLIDDCS0CONFIG1")
    8324                      .dwattr $C$DW$796, DW_AT_TI_symbol_name("_LCDLIDDCS0CONFIG1")
    8325                      .dwattr $C$DW$796, DW_AT_data_member_location[DW_OP_plus_uconst 0x11]
    8326                      .dwattr $C$DW$796, DW_AT_accessibility(DW_ACCESS_public)
    8327              $C$DW$797       .dwtag  DW_TAG_member
    8328                      .dwattr $C$DW$797, DW_AT_type(*$C$DW$T$21)
    8329                      .dwattr $C$DW$797, DW_AT_name("RSVD4")
    8330                      .dwattr $C$DW$797, DW_AT_TI_symbol_name("_RSVD4")
TMS320C55x Assembler PC v4.4.1 Sat Sep 29 23:09:22 2018

Tools Copyright (c) 1996-2012 Texas Instruments Incorporated
lcdc_panel.asm                                                       PAGE  172

    8331                      .dwattr $C$DW$797, DW_AT_data_member_location[DW_OP_plus_uconst 0x12]
    8332                      .dwattr $C$DW$797, DW_AT_accessibility(DW_ACCESS_public)
    8333              $C$DW$798       .dwtag  DW_TAG_member
    8334                      .dwattr $C$DW$798, DW_AT_type(*$C$DW$T$20)
    8335                      .dwattr $C$DW$798, DW_AT_name("LCDLIDDCS0ADDR")
    8336                      .dwattr $C$DW$798, DW_AT_TI_symbol_name("_LCDLIDDCS0ADDR")
    8337                      .dwattr $C$DW$798, DW_AT_data_member_location[DW_OP_plus_uconst 0x14]
    8338                      .dwattr $C$DW$798, DW_AT_accessibility(DW_ACCESS_public)
    8339              $C$DW$799       .dwtag  DW_TAG_member
    8340                      .dwattr $C$DW$799, DW_AT_type(*$C$DW$T$22)
    8341                      .dwattr $C$DW$799, DW_AT_name("RSVD5")
    8342                      .dwattr $C$DW$799, DW_AT_TI_symbol_name("_RSVD5")
    8343                      .dwattr $C$DW$799, DW_AT_data_member_location[DW_OP_plus_uconst 0x15]
    8344                      .dwattr $C$DW$799, DW_AT_accessibility(DW_ACCESS_public)
    8345              $C$DW$800       .dwtag  DW_TAG_member
    8346                      .dwattr $C$DW$800, DW_AT_type(*$C$DW$T$20)
    8347                      .dwattr $C$DW$800, DW_AT_name("LCDLIDDCS0DATA")
    8348                      .dwattr $C$DW$800, DW_AT_TI_symbol_name("_LCDLIDDCS0DATA")
    8349                      .dwattr $C$DW$800, DW_AT_data_member_location[DW_OP_plus_uconst 0x18]
    8350                      .dwattr $C$DW$800, DW_AT_accessibility(DW_ACCESS_public)
    8351              $C$DW$801       .dwtag  DW_TAG_member
    8352                      .dwattr $C$DW$801, DW_AT_type(*$C$DW$T$22)
    8353                      .dwattr $C$DW$801, DW_AT_name("RSVD6")
    8354                      .dwattr $C$DW$801, DW_AT_TI_symbol_name("_RSVD6")
    8355                      .dwattr $C$DW$801, DW_AT_data_member_location[DW_OP_plus_uconst 0x19]
    8356                      .dwattr $C$DW$801, DW_AT_accessibility(DW_ACCESS_public)
    8357              $C$DW$802       .dwtag  DW_TAG_member
    8358                      .dwattr $C$DW$802, DW_AT_type(*$C$DW$T$20)
    8359                      .dwattr $C$DW$802, DW_AT_name("LCDLIDDCS1CONFIG0")
    8360                      .dwattr $C$DW$802, DW_AT_TI_symbol_name("_LCDLIDDCS1CONFIG0")
    8361                      .dwattr $C$DW$802, DW_AT_data_member_location[DW_OP_plus_uconst 0x1c]
    8362                      .dwattr $C$DW$802, DW_AT_accessibility(DW_ACCESS_public)
    8363              $C$DW$803       .dwtag  DW_TAG_member
    8364                      .dwattr $C$DW$803, DW_AT_type(*$C$DW$T$20)
    8365                      .dwattr $C$DW$803, DW_AT_name("LCDLIDDCS1CONFIG1")
    8366                      .dwattr $C$DW$803, DW_AT_TI_symbol_name("_LCDLIDDCS1CONFIG1")
    8367                      .dwattr $C$DW$803, DW_AT_data_member_location[DW_OP_plus_uconst 0x1d]
    8368                      .dwattr $C$DW$803, DW_AT_accessibility(DW_ACCESS_public)
    8369              $C$DW$804       .dwtag  DW_TAG_member
    8370                      .dwattr $C$DW$804, DW_AT_type(*$C$DW$T$21)
    8371                      .dwattr $C$DW$804, DW_AT_name("RSVD7")
    8372                      .dwattr $C$DW$804, DW_AT_TI_symbol_name("_RSVD7")
    8373                      .dwattr $C$DW$804, DW_AT_data_member_location[DW_OP_plus_uconst 0x1e]
    8374                      .dwattr $C$DW$804, DW_AT_accessibility(DW_ACCESS_public)
    8375              $C$DW$805       .dwtag  DW_TAG_member
    8376                      .dwattr $C$DW$805, DW_AT_type(*$C$DW$T$20)
    8377                      .dwattr $C$DW$805, DW_AT_name("LCDLIDDCS1ADDR")
    8378                      .dwattr $C$DW$805, DW_AT_TI_symbol_name("_LCDLIDDCS1ADDR")
    8379                      .dwattr $C$DW$805, DW_AT_data_member_location[DW_OP_plus_uconst 0x20]
    8380                      .dwattr $C$DW$805, DW_AT_accessibility(DW_ACCESS_public)
    8381              $C$DW$806       .dwtag  DW_TAG_member
    8382                      .dwattr $C$DW$806, DW_AT_type(*$C$DW$T$22)
    8383                      .dwattr $C$DW$806, DW_AT_name("RSVD8")
    8384                      .dwattr $C$DW$806, DW_AT_TI_symbol_name("_RSVD8")
    8385                      .dwattr $C$DW$806, DW_AT_data_member_location[DW_OP_plus_uconst 0x21]
TMS320C55x Assembler PC v4.4.1 Sat Sep 29 23:09:22 2018

Tools Copyright (c) 1996-2012 Texas Instruments Incorporated
lcdc_panel.asm                                                       PAGE  173

    8386                      .dwattr $C$DW$806, DW_AT_accessibility(DW_ACCESS_public)
    8387              $C$DW$807       .dwtag  DW_TAG_member
    8388                      .dwattr $C$DW$807, DW_AT_type(*$C$DW$T$20)
    8389                      .dwattr $C$DW$807, DW_AT_name("LCDLIDDCS1DATA")
    8390                      .dwattr $C$DW$807, DW_AT_TI_symbol_name("_LCDLIDDCS1DATA")
    8391                      .dwattr $C$DW$807, DW_AT_data_member_location[DW_OP_plus_uconst 0x24]
    8392                      .dwattr $C$DW$807, DW_AT_accessibility(DW_ACCESS_public)
    8393              $C$DW$808       .dwtag  DW_TAG_member
    8394                      .dwattr $C$DW$808, DW_AT_type(*$C$DW$T$23)
    8395                      .dwattr $C$DW$808, DW_AT_name("RSVD9")
    8396                      .dwattr $C$DW$808, DW_AT_TI_symbol_name("_RSVD9")
    8397                      .dwattr $C$DW$808, DW_AT_data_member_location[DW_OP_plus_uconst 0x25]
    8398                      .dwattr $C$DW$808, DW_AT_accessibility(DW_ACCESS_public)
    8399              $C$DW$809       .dwtag  DW_TAG_member
    8400                      .dwattr $C$DW$809, DW_AT_type(*$C$DW$T$20)
    8401                      .dwattr $C$DW$809, DW_AT_name("LCDDMACR")
    8402                      .dwattr $C$DW$809, DW_AT_TI_symbol_name("_LCDDMACR")
    8403                      .dwattr $C$DW$809, DW_AT_data_member_location[DW_OP_plus_uconst 0x40]
    8404                      .dwattr $C$DW$809, DW_AT_accessibility(DW_ACCESS_public)
    8405              $C$DW$810       .dwtag  DW_TAG_member
    8406                      .dwattr $C$DW$810, DW_AT_type(*$C$DW$T$22)
    8407                      .dwattr $C$DW$810, DW_AT_name("RSVD10")
    8408                      .dwattr $C$DW$810, DW_AT_TI_symbol_name("_RSVD10")
    8409                      .dwattr $C$DW$810, DW_AT_data_member_location[DW_OP_plus_uconst 0x41]
    8410                      .dwattr $C$DW$810, DW_AT_accessibility(DW_ACCESS_public)
    8411              $C$DW$811       .dwtag  DW_TAG_member
    8412                      .dwattr $C$DW$811, DW_AT_type(*$C$DW$T$20)
    8413                      .dwattr $C$DW$811, DW_AT_name("LCDDMAFB0BAR0")
    8414                      .dwattr $C$DW$811, DW_AT_TI_symbol_name("_LCDDMAFB0BAR0")
    8415                      .dwattr $C$DW$811, DW_AT_data_member_location[DW_OP_plus_uconst 0x44]
    8416                      .dwattr $C$DW$811, DW_AT_accessibility(DW_ACCESS_public)
    8417              $C$DW$812       .dwtag  DW_TAG_member
    8418                      .dwattr $C$DW$812, DW_AT_type(*$C$DW$T$20)
    8419                      .dwattr $C$DW$812, DW_AT_name("LCDDMAFB0BAR1")
    8420                      .dwattr $C$DW$812, DW_AT_TI_symbol_name("_LCDDMAFB0BAR1")
    8421                      .dwattr $C$DW$812, DW_AT_data_member_location[DW_OP_plus_uconst 0x45]
    8422                      .dwattr $C$DW$812, DW_AT_accessibility(DW_ACCESS_public)
    8423              $C$DW$813       .dwtag  DW_TAG_member
    8424                      .dwattr $C$DW$813, DW_AT_type(*$C$DW$T$21)
    8425                      .dwattr $C$DW$813, DW_AT_name("RSVD11")
    8426                      .dwattr $C$DW$813, DW_AT_TI_symbol_name("_RSVD11")
    8427                      .dwattr $C$DW$813, DW_AT_data_member_location[DW_OP_plus_uconst 0x46]
    8428                      .dwattr $C$DW$813, DW_AT_accessibility(DW_ACCESS_public)
    8429              $C$DW$814       .dwtag  DW_TAG_member
    8430                      .dwattr $C$DW$814, DW_AT_type(*$C$DW$T$20)
    8431                      .dwattr $C$DW$814, DW_AT_name("LCDDMAFB0CAR0")
    8432                      .dwattr $C$DW$814, DW_AT_TI_symbol_name("_LCDDMAFB0CAR0")
    8433                      .dwattr $C$DW$814, DW_AT_data_member_location[DW_OP_plus_uconst 0x48]
    8434                      .dwattr $C$DW$814, DW_AT_accessibility(DW_ACCESS_public)
    8435              $C$DW$815       .dwtag  DW_TAG_member
    8436                      .dwattr $C$DW$815, DW_AT_type(*$C$DW$T$20)
    8437                      .dwattr $C$DW$815, DW_AT_name("LCDDMAFB0CAR1")
    8438                      .dwattr $C$DW$815, DW_AT_TI_symbol_name("_LCDDMAFB0CAR1")
    8439                      .dwattr $C$DW$815, DW_AT_data_member_location[DW_OP_plus_uconst 0x49]
    8440                      .dwattr $C$DW$815, DW_AT_accessibility(DW_ACCESS_public)
TMS320C55x Assembler PC v4.4.1 Sat Sep 29 23:09:22 2018

Tools Copyright (c) 1996-2012 Texas Instruments Incorporated
lcdc_panel.asm                                                       PAGE  174

    8441              $C$DW$816       .dwtag  DW_TAG_member
    8442                      .dwattr $C$DW$816, DW_AT_type(*$C$DW$T$21)
    8443                      .dwattr $C$DW$816, DW_AT_name("RSVD12")
    8444                      .dwattr $C$DW$816, DW_AT_TI_symbol_name("_RSVD12")
    8445                      .dwattr $C$DW$816, DW_AT_data_member_location[DW_OP_plus_uconst 0x4a]
    8446                      .dwattr $C$DW$816, DW_AT_accessibility(DW_ACCESS_public)
    8447              $C$DW$817       .dwtag  DW_TAG_member
    8448                      .dwattr $C$DW$817, DW_AT_type(*$C$DW$T$20)
    8449                      .dwattr $C$DW$817, DW_AT_name("LCDDMAFB1BAR0")
    8450                      .dwattr $C$DW$817, DW_AT_TI_symbol_name("_LCDDMAFB1BAR0")
    8451                      .dwattr $C$DW$817, DW_AT_data_member_location[DW_OP_plus_uconst 0x4c]
    8452                      .dwattr $C$DW$817, DW_AT_accessibility(DW_ACCESS_public)
    8453              $C$DW$818       .dwtag  DW_TAG_member
    8454                      .dwattr $C$DW$818, DW_AT_type(*$C$DW$T$20)
    8455                      .dwattr $C$DW$818, DW_AT_name("LCDDMAFB1BAR1")
    8456                      .dwattr $C$DW$818, DW_AT_TI_symbol_name("_LCDDMAFB1BAR1")
    8457                      .dwattr $C$DW$818, DW_AT_data_member_location[DW_OP_plus_uconst 0x4d]
    8458                      .dwattr $C$DW$818, DW_AT_accessibility(DW_ACCESS_public)
    8459              $C$DW$819       .dwtag  DW_TAG_member
    8460                      .dwattr $C$DW$819, DW_AT_type(*$C$DW$T$21)
    8461                      .dwattr $C$DW$819, DW_AT_name("RSVD13")
    8462                      .dwattr $C$DW$819, DW_AT_TI_symbol_name("_RSVD13")
    8463                      .dwattr $C$DW$819, DW_AT_data_member_location[DW_OP_plus_uconst 0x4e]
    8464                      .dwattr $C$DW$819, DW_AT_accessibility(DW_ACCESS_public)
    8465              $C$DW$820       .dwtag  DW_TAG_member
    8466                      .dwattr $C$DW$820, DW_AT_type(*$C$DW$T$20)
    8467                      .dwattr $C$DW$820, DW_AT_name("LCDDMAFB1CAR0")
    8468                      .dwattr $C$DW$820, DW_AT_TI_symbol_name("_LCDDMAFB1CAR0")
    8469                      .dwattr $C$DW$820, DW_AT_data_member_location[DW_OP_plus_uconst 0x50]
    8470                      .dwattr $C$DW$820, DW_AT_accessibility(DW_ACCESS_public)
    8471              $C$DW$821       .dwtag  DW_TAG_member
    8472                      .dwattr $C$DW$821, DW_AT_type(*$C$DW$T$20)
    8473                      .dwattr $C$DW$821, DW_AT_name("LCDDMAFB1CAR1")
    8474                      .dwattr $C$DW$821, DW_AT_TI_symbol_name("_LCDDMAFB1CAR1")
    8475                      .dwattr $C$DW$821, DW_AT_data_member_location[DW_OP_plus_uconst 0x51]
    8476                      .dwattr $C$DW$821, DW_AT_accessibility(DW_ACCESS_public)
    8477                      .dwendtag $C$DW$T$24
    8478              
    8479              $C$DW$T$25      .dwtag  DW_TAG_typedef, DW_AT_name("CSL_LcdcRegs")
    8480                      .dwattr $C$DW$T$25, DW_AT_type(*$C$DW$T$24)
    8481                      .dwattr $C$DW$T$25, DW_AT_language(DW_LANG_C)
    8482              $C$DW$822       .dwtag  DW_TAG_TI_far_type
    8483                      .dwattr $C$DW$822, DW_AT_type(*$C$DW$T$25)
    8484              $C$DW$823       .dwtag  DW_TAG_TI_ioport_type
    8485                      .dwattr $C$DW$823, DW_AT_type(*$C$DW$822)
    8486              $C$DW$T$26      .dwtag  DW_TAG_volatile_type
    8487                      .dwattr $C$DW$T$26, DW_AT_type(*$C$DW$823)
    8488              $C$DW$T$27      .dwtag  DW_TAG_pointer_type
    8489                      .dwattr $C$DW$T$27, DW_AT_type(*$C$DW$T$26)
    8490                      .dwattr $C$DW$T$27, DW_AT_address_class(0x10)
    8491              $C$DW$T$28      .dwtag  DW_TAG_typedef, DW_AT_name("CSL_LcdcRegsOvly")
    8492                      .dwattr $C$DW$T$28, DW_AT_type(*$C$DW$T$27)
    8493                      .dwattr $C$DW$T$28, DW_AT_language(DW_LANG_C)
    8494              
    8495              $C$DW$T$31      .dwtag  DW_TAG_structure_type
TMS320C55x Assembler PC v4.4.1 Sat Sep 29 23:09:22 2018

Tools Copyright (c) 1996-2012 Texas Instruments Incorporated
lcdc_panel.asm                                                       PAGE  175

    8496                      .dwattr $C$DW$T$31, DW_AT_name("CSL_LcdcObj")
    8497                      .dwattr $C$DW$T$31, DW_AT_byte_size(0x02)
    8498              $C$DW$824       .dwtag  DW_TAG_member
    8499                      .dwattr $C$DW$824, DW_AT_type(*$C$DW$T$28)
    8500                      .dwattr $C$DW$824, DW_AT_name("regs")
    8501                      .dwattr $C$DW$824, DW_AT_TI_symbol_name("_regs")
    8502                      .dwattr $C$DW$824, DW_AT_data_member_location[DW_OP_plus_uconst 0x0]
    8503                      .dwattr $C$DW$824, DW_AT_accessibility(DW_ACCESS_public)
    8504              $C$DW$825       .dwtag  DW_TAG_member
    8505                      .dwattr $C$DW$825, DW_AT_type(*$C$DW$T$30)
    8506                      .dwattr $C$DW$825, DW_AT_name("perNum")
    8507                      .dwattr $C$DW$825, DW_AT_TI_symbol_name("_perNum")
    8508                      .dwattr $C$DW$825, DW_AT_data_member_location[DW_OP_plus_uconst 0x1]
    8509                      .dwattr $C$DW$825, DW_AT_accessibility(DW_ACCESS_public)
    8510                      .dwendtag $C$DW$T$31
    8511              
    8512              $C$DW$T$38      .dwtag  DW_TAG_typedef, DW_AT_name("CSL_LcdcObj")
    8513                      .dwattr $C$DW$T$38, DW_AT_type(*$C$DW$T$31)
    8514                      .dwattr $C$DW$T$38, DW_AT_language(DW_LANG_C)
    8515              $C$DW$T$39      .dwtag  DW_TAG_pointer_type
    8516                      .dwattr $C$DW$T$39, DW_AT_type(*$C$DW$T$38)
    8517                      .dwattr $C$DW$T$39, DW_AT_address_class(0x17)
    8518              $C$DW$T$40      .dwtag  DW_TAG_typedef, DW_AT_name("CSL_LcdcHandle")
    8519                      .dwattr $C$DW$T$40, DW_AT_type(*$C$DW$T$39)
    8520                      .dwattr $C$DW$T$40, DW_AT_language(DW_LANG_C)
    8521              $C$DW$T$3       .dwtag  DW_TAG_pointer_type
    8522                      .dwattr $C$DW$T$3, DW_AT_address_class(0x17)
    8523              $C$DW$T$4       .dwtag  DW_TAG_base_type
    8524                      .dwattr $C$DW$T$4, DW_AT_encoding(DW_ATE_boolean)
    8525                      .dwattr $C$DW$T$4, DW_AT_name("bool")
    8526                      .dwattr $C$DW$T$4, DW_AT_byte_size(0x01)
    8527              $C$DW$T$5       .dwtag  DW_TAG_base_type
    8528                      .dwattr $C$DW$T$5, DW_AT_encoding(DW_ATE_signed_char)
    8529                      .dwattr $C$DW$T$5, DW_AT_name("signed char")
    8530                      .dwattr $C$DW$T$5, DW_AT_byte_size(0x01)
    8531              $C$DW$T$6       .dwtag  DW_TAG_base_type
    8532                      .dwattr $C$DW$T$6, DW_AT_encoding(DW_ATE_unsigned_char)
    8533                      .dwattr $C$DW$T$6, DW_AT_name("unsigned char")
    8534                      .dwattr $C$DW$T$6, DW_AT_byte_size(0x01)
    8535              $C$DW$T$61      .dwtag  DW_TAG_typedef, DW_AT_name("Uint8")
    8536                      .dwattr $C$DW$T$61, DW_AT_type(*$C$DW$T$6)
    8537                      .dwattr $C$DW$T$61, DW_AT_language(DW_LANG_C)
    8538              $C$DW$T$7       .dwtag  DW_TAG_base_type
    8539                      .dwattr $C$DW$T$7, DW_AT_encoding(DW_ATE_signed_char)
    8540                      .dwattr $C$DW$T$7, DW_AT_name("wchar_t")
    8541                      .dwattr $C$DW$T$7, DW_AT_byte_size(0x01)
    8542              $C$DW$T$8       .dwtag  DW_TAG_base_type
    8543                      .dwattr $C$DW$T$8, DW_AT_encoding(DW_ATE_signed)
    8544                      .dwattr $C$DW$T$8, DW_AT_name("short")
    8545                      .dwattr $C$DW$T$8, DW_AT_byte_size(0x01)
    8546              $C$DW$T$29      .dwtag  DW_TAG_typedef, DW_AT_name("Int16")
    8547                      .dwattr $C$DW$T$29, DW_AT_type(*$C$DW$T$8)
    8548                      .dwattr $C$DW$T$29, DW_AT_language(DW_LANG_C)
    8549              $C$DW$T$30      .dwtag  DW_TAG_typedef, DW_AT_name("CSL_InstNum")
    8550                      .dwattr $C$DW$T$30, DW_AT_type(*$C$DW$T$29)
TMS320C55x Assembler PC v4.4.1 Sat Sep 29 23:09:22 2018

Tools Copyright (c) 1996-2012 Texas Instruments Incorporated
lcdc_panel.asm                                                       PAGE  176

    8551                      .dwattr $C$DW$T$30, DW_AT_language(DW_LANG_C)
    8552              $C$DW$T$9       .dwtag  DW_TAG_base_type
    8553                      .dwattr $C$DW$T$9, DW_AT_encoding(DW_ATE_unsigned)
    8554                      .dwattr $C$DW$T$9, DW_AT_name("unsigned short")
    8555                      .dwattr $C$DW$T$9, DW_AT_byte_size(0x01)
    8556              $C$DW$T$19      .dwtag  DW_TAG_typedef, DW_AT_name("Uint16")
    8557                      .dwattr $C$DW$T$19, DW_AT_type(*$C$DW$T$9)
    8558                      .dwattr $C$DW$T$19, DW_AT_language(DW_LANG_C)
    8559              $C$DW$826       .dwtag  DW_TAG_TI_far_type
    8560                      .dwattr $C$DW$826, DW_AT_type(*$C$DW$T$19)
    8561              $C$DW$T$20      .dwtag  DW_TAG_volatile_type
    8562                      .dwattr $C$DW$T$20, DW_AT_type(*$C$DW$826)
    8563              
    8564              $C$DW$T$21      .dwtag  DW_TAG_array_type
    8565                      .dwattr $C$DW$T$21, DW_AT_type(*$C$DW$T$20)
    8566                      .dwattr $C$DW$T$21, DW_AT_language(DW_LANG_C)
    8567                      .dwattr $C$DW$T$21, DW_AT_byte_size(0x02)
    8568              $C$DW$827       .dwtag  DW_TAG_subrange_type
    8569                      .dwattr $C$DW$827, DW_AT_upper_bound(0x01)
    8570                      .dwendtag $C$DW$T$21
    8571              
    8572              
    8573              $C$DW$T$22      .dwtag  DW_TAG_array_type
    8574                      .dwattr $C$DW$T$22, DW_AT_type(*$C$DW$T$20)
    8575                      .dwattr $C$DW$T$22, DW_AT_language(DW_LANG_C)
    8576                      .dwattr $C$DW$T$22, DW_AT_byte_size(0x03)
    8577              $C$DW$828       .dwtag  DW_TAG_subrange_type
    8578                      .dwattr $C$DW$828, DW_AT_upper_bound(0x02)
    8579                      .dwendtag $C$DW$T$22
    8580              
    8581              
    8582              $C$DW$T$23      .dwtag  DW_TAG_array_type
    8583                      .dwattr $C$DW$T$23, DW_AT_type(*$C$DW$T$20)
    8584                      .dwattr $C$DW$T$23, DW_AT_language(DW_LANG_C)
    8585                      .dwattr $C$DW$T$23, DW_AT_byte_size(0x1b)
    8586              $C$DW$829       .dwtag  DW_TAG_subrange_type
    8587                      .dwattr $C$DW$829, DW_AT_upper_bound(0x1a)
    8588                      .dwendtag $C$DW$T$23
    8589              
    8590              $C$DW$T$59      .dwtag  DW_TAG_pointer_type
    8591                      .dwattr $C$DW$T$59, DW_AT_type(*$C$DW$T$19)
    8592                      .dwattr $C$DW$T$59, DW_AT_address_class(0x17)
    8593              $C$DW$T$10      .dwtag  DW_TAG_base_type
    8594                      .dwattr $C$DW$T$10, DW_AT_encoding(DW_ATE_signed)
    8595                      .dwattr $C$DW$T$10, DW_AT_name("int")
    8596                      .dwattr $C$DW$T$10, DW_AT_byte_size(0x01)
    8597              $C$DW$T$73      .dwtag  DW_TAG_typedef, DW_AT_name("Bool")
    8598                      .dwattr $C$DW$T$73, DW_AT_type(*$C$DW$T$10)
    8599                      .dwattr $C$DW$T$73, DW_AT_language(DW_LANG_C)
    8600              
    8601              $C$DW$T$74      .dwtag  DW_TAG_array_type
    8602                      .dwattr $C$DW$T$74, DW_AT_type(*$C$DW$T$73)
    8603                      .dwattr $C$DW$T$74, DW_AT_language(DW_LANG_C)
    8604              $C$DW$830       .dwtag  DW_TAG_subrange_type
    8605                      .dwendtag $C$DW$T$74
TMS320C55x Assembler PC v4.4.1 Sat Sep 29 23:09:22 2018

Tools Copyright (c) 1996-2012 Texas Instruments Incorporated
lcdc_panel.asm                                                       PAGE  177

    8606              
    8607              $C$DW$T$11      .dwtag  DW_TAG_base_type
    8608                      .dwattr $C$DW$T$11, DW_AT_encoding(DW_ATE_unsigned)
    8609                      .dwattr $C$DW$T$11, DW_AT_name("unsigned int")
    8610                      .dwattr $C$DW$T$11, DW_AT_byte_size(0x01)
    8611              $C$DW$T$12      .dwtag  DW_TAG_base_type
    8612                      .dwattr $C$DW$T$12, DW_AT_encoding(DW_ATE_signed)
    8613                      .dwattr $C$DW$T$12, DW_AT_name("long")
    8614                      .dwattr $C$DW$T$12, DW_AT_byte_size(0x02)
    8615              $C$DW$T$13      .dwtag  DW_TAG_base_type
    8616                      .dwattr $C$DW$T$13, DW_AT_encoding(DW_ATE_unsigned)
    8617                      .dwattr $C$DW$T$13, DW_AT_name("unsigned long")
    8618                      .dwattr $C$DW$T$13, DW_AT_byte_size(0x02)
    8619              $C$DW$T$41      .dwtag  DW_TAG_typedef, DW_AT_name("Uint32")
    8620                      .dwattr $C$DW$T$41, DW_AT_type(*$C$DW$T$13)
    8621                      .dwattr $C$DW$T$41, DW_AT_language(DW_LANG_C)
    8622              $C$DW$831       .dwtag  DW_TAG_TI_far_type
    8623                      .dwattr $C$DW$831, DW_AT_type(*$C$DW$T$41)
    8624              $C$DW$T$76      .dwtag  DW_TAG_volatile_type
    8625                      .dwattr $C$DW$T$76, DW_AT_type(*$C$DW$831)
    8626              $C$DW$T$14      .dwtag  DW_TAG_base_type
    8627                      .dwattr $C$DW$T$14, DW_AT_encoding(DW_ATE_signed)
    8628                      .dwattr $C$DW$T$14, DW_AT_name("long long")
    8629                      .dwattr $C$DW$T$14, DW_AT_byte_size(0x04)
    8630                      .dwattr $C$DW$T$14, DW_AT_bit_size(0x28)
    8631                      .dwattr $C$DW$T$14, DW_AT_bit_offset(0x18)
    8632              $C$DW$T$15      .dwtag  DW_TAG_base_type
    8633                      .dwattr $C$DW$T$15, DW_AT_encoding(DW_ATE_unsigned)
    8634                      .dwattr $C$DW$T$15, DW_AT_name("unsigned long long")
    8635                      .dwattr $C$DW$T$15, DW_AT_byte_size(0x04)
    8636                      .dwattr $C$DW$T$15, DW_AT_bit_size(0x28)
    8637                      .dwattr $C$DW$T$15, DW_AT_bit_offset(0x18)
    8638              $C$DW$T$16      .dwtag  DW_TAG_base_type
    8639                      .dwattr $C$DW$T$16, DW_AT_encoding(DW_ATE_float)
    8640                      .dwattr $C$DW$T$16, DW_AT_name("float")
    8641                      .dwattr $C$DW$T$16, DW_AT_byte_size(0x02)
    8642              $C$DW$T$17      .dwtag  DW_TAG_base_type
    8643                      .dwattr $C$DW$T$17, DW_AT_encoding(DW_ATE_float)
    8644                      .dwattr $C$DW$T$17, DW_AT_name("double")
    8645                      .dwattr $C$DW$T$17, DW_AT_byte_size(0x02)
    8646              $C$DW$T$18      .dwtag  DW_TAG_base_type
    8647                      .dwattr $C$DW$T$18, DW_AT_encoding(DW_ATE_float)
    8648                      .dwattr $C$DW$T$18, DW_AT_name("long double")
    8649                      .dwattr $C$DW$T$18, DW_AT_byte_size(0x02)
    8650                      .dwattr $C$DW$CU, DW_AT_language(DW_LANG_C)
    8651              
    8652              ;***************************************************************
    8653              ;* DWARF CIE ENTRIES                                           *
    8654              ;***************************************************************
    8655              
    8656              $C$DW$CIE       .dwcie 91
    8657                      .dwcfi  cfa_register, 36
    8658                      .dwcfi  cfa_offset, 0
    8659                      .dwcfi  undefined, 0
    8660                      .dwcfi  undefined, 1
TMS320C55x Assembler PC v4.4.1 Sat Sep 29 23:09:22 2018

Tools Copyright (c) 1996-2012 Texas Instruments Incorporated
lcdc_panel.asm                                                       PAGE  178

    8661                      .dwcfi  undefined, 2
    8662                      .dwcfi  undefined, 3
    8663                      .dwcfi  undefined, 4
    8664                      .dwcfi  undefined, 5
    8665                      .dwcfi  undefined, 6
    8666                      .dwcfi  undefined, 7
    8667                      .dwcfi  undefined, 8
    8668                      .dwcfi  undefined, 9
    8669                      .dwcfi  undefined, 10
    8670                      .dwcfi  undefined, 11
    8671                      .dwcfi  undefined, 12
    8672                      .dwcfi  undefined, 13
    8673                      .dwcfi  same_value, 14
    8674                      .dwcfi  same_value, 15
    8675                      .dwcfi  undefined, 16
    8676                      .dwcfi  undefined, 17
    8677                      .dwcfi  undefined, 18
    8678                      .dwcfi  undefined, 19
    8679                      .dwcfi  undefined, 20
    8680                      .dwcfi  undefined, 21
    8681                      .dwcfi  undefined, 22
    8682                      .dwcfi  undefined, 23
    8683                      .dwcfi  undefined, 24
    8684                      .dwcfi  undefined, 25
    8685                      .dwcfi  same_value, 26
    8686                      .dwcfi  same_value, 27
    8687                      .dwcfi  same_value, 28
    8688                      .dwcfi  same_value, 29
    8689                      .dwcfi  same_value, 30
    8690                      .dwcfi  same_value, 31
    8691                      .dwcfi  undefined, 32
    8692                      .dwcfi  undefined, 33
    8693                      .dwcfi  undefined, 34
    8694                      .dwcfi  undefined, 35
    8695                      .dwcfi  undefined, 36
    8696                      .dwcfi  undefined, 37
    8697                      .dwcfi  undefined, 38
    8698                      .dwcfi  undefined, 39
    8699                      .dwcfi  undefined, 40
    8700                      .dwcfi  undefined, 41
    8701                      .dwcfi  undefined, 42
    8702                      .dwcfi  undefined, 43
    8703                      .dwcfi  undefined, 44
    8704                      .dwcfi  undefined, 45
    8705                      .dwcfi  undefined, 46
    8706                      .dwcfi  undefined, 47
    8707                      .dwcfi  undefined, 48
    8708                      .dwcfi  undefined, 49
    8709                      .dwcfi  undefined, 50
    8710                      .dwcfi  undefined, 51
    8711                      .dwcfi  undefined, 52
    8712                      .dwcfi  undefined, 53
    8713                      .dwcfi  undefined, 54
    8714                      .dwcfi  undefined, 55
    8715                      .dwcfi  undefined, 56
TMS320C55x Assembler PC v4.4.1 Sat Sep 29 23:09:22 2018

Tools Copyright (c) 1996-2012 Texas Instruments Incorporated
lcdc_panel.asm                                                       PAGE  179

    8716                      .dwcfi  undefined, 57
    8717                      .dwcfi  undefined, 58
    8718                      .dwcfi  undefined, 59
    8719                      .dwcfi  undefined, 60
    8720                      .dwcfi  undefined, 61
    8721                      .dwcfi  undefined, 62
    8722                      .dwcfi  undefined, 63
    8723                      .dwcfi  undefined, 64
    8724                      .dwcfi  undefined, 65
    8725                      .dwcfi  undefined, 66
    8726                      .dwcfi  undefined, 67
    8727                      .dwcfi  undefined, 68
    8728                      .dwcfi  undefined, 69
    8729                      .dwcfi  undefined, 70
    8730                      .dwcfi  undefined, 71
    8731                      .dwcfi  undefined, 72
    8732                      .dwcfi  undefined, 73
    8733                      .dwcfi  undefined, 74
    8734                      .dwcfi  undefined, 75
    8735                      .dwcfi  undefined, 76
    8736                      .dwcfi  undefined, 77
    8737                      .dwcfi  undefined, 78
    8738                      .dwcfi  undefined, 79
    8739                      .dwcfi  undefined, 80
    8740                      .dwcfi  undefined, 81
    8741                      .dwcfi  undefined, 82
    8742                      .dwcfi  undefined, 83
    8743                      .dwcfi  undefined, 84
    8744                      .dwcfi  undefined, 85
    8745                      .dwcfi  undefined, 86
    8746                      .dwcfi  undefined, 87
    8747                      .dwcfi  undefined, 88
    8748                      .dwcfi  undefined, 89
    8749                      .dwcfi  undefined, 90
    8750                      .dwcfi  undefined, 91
    8751                      .dwendentry
    8752              
    8753              ;***************************************************************
    8754              ;* DWARF REGISTER MAP                                          *
    8755              ;***************************************************************
    8756              
    8757              $C$DW$832       .dwtag  DW_TAG_TI_assign_register, DW_AT_name("AC0")
    8758                      .dwattr $C$DW$832, DW_AT_location[DW_OP_reg0]
    8759              $C$DW$833       .dwtag  DW_TAG_TI_assign_register, DW_AT_name("AC0")
    8760                      .dwattr $C$DW$833, DW_AT_location[DW_OP_reg1]
    8761              $C$DW$834       .dwtag  DW_TAG_TI_assign_register, DW_AT_name("AC0_G")
    8762                      .dwattr $C$DW$834, DW_AT_location[DW_OP_reg2]
    8763              $C$DW$835       .dwtag  DW_TAG_TI_assign_register, DW_AT_name("AC1")
    8764                      .dwattr $C$DW$835, DW_AT_location[DW_OP_reg3]
    8765              $C$DW$836       .dwtag  DW_TAG_TI_assign_register, DW_AT_name("AC1")
    8766                      .dwattr $C$DW$836, DW_AT_location[DW_OP_reg4]
    8767              $C$DW$837       .dwtag  DW_TAG_TI_assign_register, DW_AT_name("AC1_G")
    8768                      .dwattr $C$DW$837, DW_AT_location[DW_OP_reg5]
    8769              $C$DW$838       .dwtag  DW_TAG_TI_assign_register, DW_AT_name("AC2")
    8770                      .dwattr $C$DW$838, DW_AT_location[DW_OP_reg6]
TMS320C55x Assembler PC v4.4.1 Sat Sep 29 23:09:22 2018

Tools Copyright (c) 1996-2012 Texas Instruments Incorporated
lcdc_panel.asm                                                       PAGE  180

    8771              $C$DW$839       .dwtag  DW_TAG_TI_assign_register, DW_AT_name("AC2")
    8772                      .dwattr $C$DW$839, DW_AT_location[DW_OP_reg7]
    8773              $C$DW$840       .dwtag  DW_TAG_TI_assign_register, DW_AT_name("AC2_G")
    8774                      .dwattr $C$DW$840, DW_AT_location[DW_OP_reg8]
    8775              $C$DW$841       .dwtag  DW_TAG_TI_assign_register, DW_AT_name("AC3")
    8776                      .dwattr $C$DW$841, DW_AT_location[DW_OP_reg9]
    8777              $C$DW$842       .dwtag  DW_TAG_TI_assign_register, DW_AT_name("AC3")
    8778                      .dwattr $C$DW$842, DW_AT_location[DW_OP_reg10]
    8779              $C$DW$843       .dwtag  DW_TAG_TI_assign_register, DW_AT_name("AC3_G")
    8780                      .dwattr $C$DW$843, DW_AT_location[DW_OP_reg11]
    8781              $C$DW$844       .dwtag  DW_TAG_TI_assign_register, DW_AT_name("T0")
    8782                      .dwattr $C$DW$844, DW_AT_location[DW_OP_reg12]
    8783              $C$DW$845       .dwtag  DW_TAG_TI_assign_register, DW_AT_name("T1")
    8784                      .dwattr $C$DW$845, DW_AT_location[DW_OP_reg13]
    8785              $C$DW$846       .dwtag  DW_TAG_TI_assign_register, DW_AT_name("T2")
    8786                      .dwattr $C$DW$846, DW_AT_location[DW_OP_reg14]
    8787              $C$DW$847       .dwtag  DW_TAG_TI_assign_register, DW_AT_name("T3")
    8788                      .dwattr $C$DW$847, DW_AT_location[DW_OP_reg15]
    8789              $C$DW$848       .dwtag  DW_TAG_TI_assign_register, DW_AT_name("AR0")
    8790                      .dwattr $C$DW$848, DW_AT_location[DW_OP_reg16]
    8791              $C$DW$849       .dwtag  DW_TAG_TI_assign_register, DW_AT_name("XAR0")
    8792                      .dwattr $C$DW$849, DW_AT_location[DW_OP_reg17]
    8793              $C$DW$850       .dwtag  DW_TAG_TI_assign_register, DW_AT_name("AR1")
    8794                      .dwattr $C$DW$850, DW_AT_location[DW_OP_reg18]
    8795              $C$DW$851       .dwtag  DW_TAG_TI_assign_register, DW_AT_name("XAR1")
    8796                      .dwattr $C$DW$851, DW_AT_location[DW_OP_reg19]
    8797              $C$DW$852       .dwtag  DW_TAG_TI_assign_register, DW_AT_name("AR2")
    8798                      .dwattr $C$DW$852, DW_AT_location[DW_OP_reg20]
    8799              $C$DW$853       .dwtag  DW_TAG_TI_assign_register, DW_AT_name("XAR2")
    8800                      .dwattr $C$DW$853, DW_AT_location[DW_OP_reg21]
    8801              $C$DW$854       .dwtag  DW_TAG_TI_assign_register, DW_AT_name("AR3")
    8802                      .dwattr $C$DW$854, DW_AT_location[DW_OP_reg22]
    8803              $C$DW$855       .dwtag  DW_TAG_TI_assign_register, DW_AT_name("XAR3")
    8804                      .dwattr $C$DW$855, DW_AT_location[DW_OP_reg23]
    8805              $C$DW$856       .dwtag  DW_TAG_TI_assign_register, DW_AT_name("AR4")
    8806                      .dwattr $C$DW$856, DW_AT_location[DW_OP_reg24]
    8807              $C$DW$857       .dwtag  DW_TAG_TI_assign_register, DW_AT_name("XAR4")
    8808                      .dwattr $C$DW$857, DW_AT_location[DW_OP_reg25]
    8809              $C$DW$858       .dwtag  DW_TAG_TI_assign_register, DW_AT_name("AR5")
    8810                      .dwattr $C$DW$858, DW_AT_location[DW_OP_reg26]
    8811              $C$DW$859       .dwtag  DW_TAG_TI_assign_register, DW_AT_name("XAR5")
    8812                      .dwattr $C$DW$859, DW_AT_location[DW_OP_reg27]
    8813              $C$DW$860       .dwtag  DW_TAG_TI_assign_register, DW_AT_name("AR6")
    8814                      .dwattr $C$DW$860, DW_AT_location[DW_OP_reg28]
    8815              $C$DW$861       .dwtag  DW_TAG_TI_assign_register, DW_AT_name("XAR6")
    8816                      .dwattr $C$DW$861, DW_AT_location[DW_OP_reg29]
    8817              $C$DW$862       .dwtag  DW_TAG_TI_assign_register, DW_AT_name("AR7")
    8818                      .dwattr $C$DW$862, DW_AT_location[DW_OP_reg30]
    8819              $C$DW$863       .dwtag  DW_TAG_TI_assign_register, DW_AT_name("XAR7")
    8820                      .dwattr $C$DW$863, DW_AT_location[DW_OP_reg31]
    8821              $C$DW$864       .dwtag  DW_TAG_TI_assign_register, DW_AT_name("FP")
    8822                      .dwattr $C$DW$864, DW_AT_location[DW_OP_regx 0x20]
    8823              $C$DW$865       .dwtag  DW_TAG_TI_assign_register, DW_AT_name("XFP")
    8824                      .dwattr $C$DW$865, DW_AT_location[DW_OP_regx 0x21]
    8825              $C$DW$866       .dwtag  DW_TAG_TI_assign_register, DW_AT_name("PC")
TMS320C55x Assembler PC v4.4.1 Sat Sep 29 23:09:22 2018

Tools Copyright (c) 1996-2012 Texas Instruments Incorporated
lcdc_panel.asm                                                       PAGE  181

    8826                      .dwattr $C$DW$866, DW_AT_location[DW_OP_regx 0x22]
    8827              $C$DW$867       .dwtag  DW_TAG_TI_assign_register, DW_AT_name("SP")
    8828                      .dwattr $C$DW$867, DW_AT_location[DW_OP_regx 0x23]
    8829              $C$DW$868       .dwtag  DW_TAG_TI_assign_register, DW_AT_name("XSP")
    8830                      .dwattr $C$DW$868, DW_AT_location[DW_OP_regx 0x24]
    8831              $C$DW$869       .dwtag  DW_TAG_TI_assign_register, DW_AT_name("BKC")
    8832                      .dwattr $C$DW$869, DW_AT_location[DW_OP_regx 0x25]
    8833              $C$DW$870       .dwtag  DW_TAG_TI_assign_register, DW_AT_name("BK03")
    8834                      .dwattr $C$DW$870, DW_AT_location[DW_OP_regx 0x26]
    8835              $C$DW$871       .dwtag  DW_TAG_TI_assign_register, DW_AT_name("BK47")
    8836                      .dwattr $C$DW$871, DW_AT_location[DW_OP_regx 0x27]
    8837              $C$DW$872       .dwtag  DW_TAG_TI_assign_register, DW_AT_name("ST0")
    8838                      .dwattr $C$DW$872, DW_AT_location[DW_OP_regx 0x28]
    8839              $C$DW$873       .dwtag  DW_TAG_TI_assign_register, DW_AT_name("ST1")
    8840                      .dwattr $C$DW$873, DW_AT_location[DW_OP_regx 0x29]
    8841              $C$DW$874       .dwtag  DW_TAG_TI_assign_register, DW_AT_name("ST2")
    8842                      .dwattr $C$DW$874, DW_AT_location[DW_OP_regx 0x2a]
    8843              $C$DW$875       .dwtag  DW_TAG_TI_assign_register, DW_AT_name("ST3")
    8844                      .dwattr $C$DW$875, DW_AT_location[DW_OP_regx 0x2b]
    8845              $C$DW$876       .dwtag  DW_TAG_TI_assign_register, DW_AT_name("MDP")
    8846                      .dwattr $C$DW$876, DW_AT_location[DW_OP_regx 0x2c]
    8847              $C$DW$877       .dwtag  DW_TAG_TI_assign_register, DW_AT_name("MDP05")
    8848                      .dwattr $C$DW$877, DW_AT_location[DW_OP_regx 0x2d]
    8849              $C$DW$878       .dwtag  DW_TAG_TI_assign_register, DW_AT_name("MDP67")
    8850                      .dwattr $C$DW$878, DW_AT_location[DW_OP_regx 0x2e]
    8851              $C$DW$879       .dwtag  DW_TAG_TI_assign_register, DW_AT_name("BRC0")
    8852                      .dwattr $C$DW$879, DW_AT_location[DW_OP_regx 0x2f]
    8853              $C$DW$880       .dwtag  DW_TAG_TI_assign_register, DW_AT_name("RSA0")
    8854                      .dwattr $C$DW$880, DW_AT_location[DW_OP_regx 0x30]
    8855              $C$DW$881       .dwtag  DW_TAG_TI_assign_register, DW_AT_name("RSA0_H")
    8856                      .dwattr $C$DW$881, DW_AT_location[DW_OP_regx 0x31]
    8857              $C$DW$882       .dwtag  DW_TAG_TI_assign_register, DW_AT_name("REA0")
    8858                      .dwattr $C$DW$882, DW_AT_location[DW_OP_regx 0x32]
    8859              $C$DW$883       .dwtag  DW_TAG_TI_assign_register, DW_AT_name("REA0_H")
    8860                      .dwattr $C$DW$883, DW_AT_location[DW_OP_regx 0x33]
    8861              $C$DW$884       .dwtag  DW_TAG_TI_assign_register, DW_AT_name("BRS1")
    8862                      .dwattr $C$DW$884, DW_AT_location[DW_OP_regx 0x34]
    8863              $C$DW$885       .dwtag  DW_TAG_TI_assign_register, DW_AT_name("BRC1")
    8864                      .dwattr $C$DW$885, DW_AT_location[DW_OP_regx 0x35]
    8865              $C$DW$886       .dwtag  DW_TAG_TI_assign_register, DW_AT_name("RSA1")
    8866                      .dwattr $C$DW$886, DW_AT_location[DW_OP_regx 0x36]
    8867              $C$DW$887       .dwtag  DW_TAG_TI_assign_register, DW_AT_name("RSA1_H")
    8868                      .dwattr $C$DW$887, DW_AT_location[DW_OP_regx 0x37]
    8869              $C$DW$888       .dwtag  DW_TAG_TI_assign_register, DW_AT_name("REA1")
    8870                      .dwattr $C$DW$888, DW_AT_location[DW_OP_regx 0x38]
    8871              $C$DW$889       .dwtag  DW_TAG_TI_assign_register, DW_AT_name("REA1_H")
    8872                      .dwattr $C$DW$889, DW_AT_location[DW_OP_regx 0x39]
    8873              $C$DW$890       .dwtag  DW_TAG_TI_assign_register, DW_AT_name("CSR")
    8874                      .dwattr $C$DW$890, DW_AT_location[DW_OP_regx 0x3a]
    8875              $C$DW$891       .dwtag  DW_TAG_TI_assign_register, DW_AT_name("RPTC")
    8876                      .dwattr $C$DW$891, DW_AT_location[DW_OP_regx 0x3b]
    8877              $C$DW$892       .dwtag  DW_TAG_TI_assign_register, DW_AT_name("CDP")
    8878                      .dwattr $C$DW$892, DW_AT_location[DW_OP_regx 0x3c]
    8879              $C$DW$893       .dwtag  DW_TAG_TI_assign_register, DW_AT_name("XCDP")
    8880                      .dwattr $C$DW$893, DW_AT_location[DW_OP_regx 0x3d]
TMS320C55x Assembler PC v4.4.1 Sat Sep 29 23:09:22 2018

Tools Copyright (c) 1996-2012 Texas Instruments Incorporated
lcdc_panel.asm                                                       PAGE  182

    8881              $C$DW$894       .dwtag  DW_TAG_TI_assign_register, DW_AT_name("TRN0")
    8882                      .dwattr $C$DW$894, DW_AT_location[DW_OP_regx 0x3e]
    8883              $C$DW$895       .dwtag  DW_TAG_TI_assign_register, DW_AT_name("TRN1")
    8884                      .dwattr $C$DW$895, DW_AT_location[DW_OP_regx 0x3f]
    8885              $C$DW$896       .dwtag  DW_TAG_TI_assign_register, DW_AT_name("BSA01")
    8886                      .dwattr $C$DW$896, DW_AT_location[DW_OP_regx 0x40]
    8887              $C$DW$897       .dwtag  DW_TAG_TI_assign_register, DW_AT_name("BSA23")
    8888                      .dwattr $C$DW$897, DW_AT_location[DW_OP_regx 0x41]
    8889              $C$DW$898       .dwtag  DW_TAG_TI_assign_register, DW_AT_name("BSA45")
    8890                      .dwattr $C$DW$898, DW_AT_location[DW_OP_regx 0x42]
    8891              $C$DW$899       .dwtag  DW_TAG_TI_assign_register, DW_AT_name("BSA67")
    8892                      .dwattr $C$DW$899, DW_AT_location[DW_OP_regx 0x43]
    8893              $C$DW$900       .dwtag  DW_TAG_TI_assign_register, DW_AT_name("BSAC")
    8894                      .dwattr $C$DW$900, DW_AT_location[DW_OP_regx 0x44]
    8895              $C$DW$901       .dwtag  DW_TAG_TI_assign_register, DW_AT_name("CARRY")
    8896                      .dwattr $C$DW$901, DW_AT_location[DW_OP_regx 0x45]
    8897              $C$DW$902       .dwtag  DW_TAG_TI_assign_register, DW_AT_name("TC1")
    8898                      .dwattr $C$DW$902, DW_AT_location[DW_OP_regx 0x46]
    8899              $C$DW$903       .dwtag  DW_TAG_TI_assign_register, DW_AT_name("TC2")
    8900                      .dwattr $C$DW$903, DW_AT_location[DW_OP_regx 0x47]
    8901              $C$DW$904       .dwtag  DW_TAG_TI_assign_register, DW_AT_name("M40")
    8902                      .dwattr $C$DW$904, DW_AT_location[DW_OP_regx 0x48]
    8903              $C$DW$905       .dwtag  DW_TAG_TI_assign_register, DW_AT_name("SXMD")
    8904                      .dwattr $C$DW$905, DW_AT_location[DW_OP_regx 0x49]
    8905              $C$DW$906       .dwtag  DW_TAG_TI_assign_register, DW_AT_name("ARMS")
    8906                      .dwattr $C$DW$906, DW_AT_location[DW_OP_regx 0x4a]
    8907              $C$DW$907       .dwtag  DW_TAG_TI_assign_register, DW_AT_name("C54CM")
    8908                      .dwattr $C$DW$907, DW_AT_location[DW_OP_regx 0x4b]
    8909              $C$DW$908       .dwtag  DW_TAG_TI_assign_register, DW_AT_name("SATA")
    8910                      .dwattr $C$DW$908, DW_AT_location[DW_OP_regx 0x4c]
    8911              $C$DW$909       .dwtag  DW_TAG_TI_assign_register, DW_AT_name("SATD")
    8912                      .dwattr $C$DW$909, DW_AT_location[DW_OP_regx 0x4d]
    8913              $C$DW$910       .dwtag  DW_TAG_TI_assign_register, DW_AT_name("RDM")
    8914                      .dwattr $C$DW$910, DW_AT_location[DW_OP_regx 0x4e]
    8915              $C$DW$911       .dwtag  DW_TAG_TI_assign_register, DW_AT_name("FRCT")
    8916                      .dwattr $C$DW$911, DW_AT_location[DW_OP_regx 0x4f]
    8917              $C$DW$912       .dwtag  DW_TAG_TI_assign_register, DW_AT_name("SMUL")
    8918                      .dwattr $C$DW$912, DW_AT_location[DW_OP_regx 0x50]
    8919              $C$DW$913       .dwtag  DW_TAG_TI_assign_register, DW_AT_name("INTM")
    8920                      .dwattr $C$DW$913, DW_AT_location[DW_OP_regx 0x51]
    8921              $C$DW$914       .dwtag  DW_TAG_TI_assign_register, DW_AT_name("AR0LC")
    8922                      .dwattr $C$DW$914, DW_AT_location[DW_OP_regx 0x52]
    8923              $C$DW$915       .dwtag  DW_TAG_TI_assign_register, DW_AT_name("AR1LC")
    8924                      .dwattr $C$DW$915, DW_AT_location[DW_OP_regx 0x53]
    8925              $C$DW$916       .dwtag  DW_TAG_TI_assign_register, DW_AT_name("AR2LC")
    8926                      .dwattr $C$DW$916, DW_AT_location[DW_OP_regx 0x54]
    8927              $C$DW$917       .dwtag  DW_TAG_TI_assign_register, DW_AT_name("AR3LC")
    8928                      .dwattr $C$DW$917, DW_AT_location[DW_OP_regx 0x55]
    8929              $C$DW$918       .dwtag  DW_TAG_TI_assign_register, DW_AT_name("AR4LC")
    8930                      .dwattr $C$DW$918, DW_AT_location[DW_OP_regx 0x56]
    8931              $C$DW$919       .dwtag  DW_TAG_TI_assign_register, DW_AT_name("AR5LC")
    8932                      .dwattr $C$DW$919, DW_AT_location[DW_OP_regx 0x57]
    8933              $C$DW$920       .dwtag  DW_TAG_TI_assign_register, DW_AT_name("AR6LC")
    8934                      .dwattr $C$DW$920, DW_AT_location[DW_OP_regx 0x58]
    8935              $C$DW$921       .dwtag  DW_TAG_TI_assign_register, DW_AT_name("AR7LC")
TMS320C55x Assembler PC v4.4.1 Sat Sep 29 23:09:22 2018

Tools Copyright (c) 1996-2012 Texas Instruments Incorporated
lcdc_panel.asm                                                       PAGE  183

    8936                      .dwattr $C$DW$921, DW_AT_location[DW_OP_regx 0x59]
    8937              $C$DW$922       .dwtag  DW_TAG_TI_assign_register, DW_AT_name("CDPLC")
    8938                      .dwattr $C$DW$922, DW_AT_location[DW_OP_regx 0x5a]
    8939              $C$DW$923       .dwtag  DW_TAG_TI_assign_register, DW_AT_name("CIE_RETA")
    8940                      .dwattr $C$DW$923, DW_AT_location[DW_OP_regx 0x5b]
    8941                      .dwendtag $C$DW$CU
    8942              
    8942              
    8942              

No Assembly Errors, No Assembly Warnings
