TMS320C55x Assembler PC v4.4.1 Sat Sep 29 23:09:03 2018

Tools Copyright (c) 1996-2012 Texas Instruments Incorporated
csl_mmcsd_MmcCardExample.asm                                         PAGE    1

    4793              ; Temporary Registers Used: None
       1              ;*******************************************************************************
       2              ;* TMS320C55x C/C++ Codegen                                          PC v4.4.1 *
       3              ;* Date/Time created: Sat Sep 29 23:09:03 2018                                 *
       4              ;*******************************************************************************
       5                      .compiler_opts --hll_source=on --mem_model:code=flat --mem_model:data=large --object_format=coff --si
       6                      .mmregs
       7                      .cpl_on
       8                      .arms_on
       9                      .c54cm_off
      10                      .asg AR6, FP
      11                      .asg XAR6, XFP
      12                      .asg DPH, MDP
      13                      .model call=c55_std
      14                      .model mem=large
      15                      .noremark 5002  ; code respects overwrite rules
      16              ;*******************************************************************************
      17              ;* GLOBAL FILE PARAMETERS                                                      *
      18              ;*                                                                             *
      19              ;*   Architecture       : TMS320C55x                                           *
      20              ;*   Optimizing for     : Speed                                                *
      21              ;*   Memory             : Large Model (23-Bit Data Pointers)                   *
      22              ;*   Calls              : Normal Library ASM calls                             *
      23              ;*   Debug Info         : Standard TI Debug Information                        *
      24              ;*******************************************************************************
      25              
      26              $C$DW$CU        .dwtag  DW_TAG_compile_unit
      27                      .dwattr $C$DW$CU, DW_AT_name("../c5535_bsl_revc/ezdsp5535_v1/c55xx_csl/ccs_v4.0_examples/mmc_sd/CSL_M
      28                      .dwattr $C$DW$CU, DW_AT_producer("TMS320C55x C/C++ Codegen PC v4.4.1 Copyright (c) 1996-2012 Texas In
      29                      .dwattr $C$DW$CU, DW_AT_TI_version(0x01)
      30                      .dwattr $C$DW$CU, DW_AT_comp_dir("F:\eZdsp_DBG\tmp1\c55x-sim2\foo\Debug")
      31              ;******************************************************************************
      32              ;* CINIT RECORDS                                                              *
      33              ;******************************************************************************
      34 000000               .sect   ".cinit"
      35                      .align  1
      36 000000 0001          .field          1,16
      37 000001 0002-         .field          _PaSs_StAtE+0,24
         000002 B800 
      38 000002 B800          .field          0,8
      39 000003 0001          .field  1,16                    ; _PaSs_StAtE @ 0
      40              
      41 000004               .sect   ".cinit"
      42                      .align  1
      43 000004 0001          .field          1,16
      44 000005 0002-         .field          _PaSs+0,24
         000006 B900 
      45 000006 B900          .field          0,8
      46 000007 0000          .field  0,16                    ; _PaSs @ 0
      47              
      48              
      49              $C$DW$1 .dwtag  DW_TAG_subprogram, DW_AT_name("MMC_init")
      50                      .dwattr $C$DW$1, DW_AT_TI_symbol_name("_MMC_init")
      51                      .dwattr $C$DW$1, DW_AT_type(*$C$DW$T$112)
      52                      .dwattr $C$DW$1, DW_AT_declaration
TMS320C55x Assembler PC v4.4.1 Sat Sep 29 23:09:03 2018

Tools Copyright (c) 1996-2012 Texas Instruments Incorporated
csl_mmcsd_MmcCardExample.asm                                         PAGE    2

      53                      .dwattr $C$DW$1, DW_AT_external
      54              
      55              $C$DW$2 .dwtag  DW_TAG_subprogram, DW_AT_name("MMC_open")
      56                      .dwattr $C$DW$2, DW_AT_TI_symbol_name("_MMC_open")
      57                      .dwattr $C$DW$2, DW_AT_type(*$C$DW$T$110)
      58                      .dwattr $C$DW$2, DW_AT_declaration
      59                      .dwattr $C$DW$2, DW_AT_external
      60              $C$DW$3 .dwtag  DW_TAG_formal_parameter
      61                      .dwattr $C$DW$3, DW_AT_type(*$C$DW$T$109)
      62              $C$DW$4 .dwtag  DW_TAG_formal_parameter
      63                      .dwattr $C$DW$4, DW_AT_type(*$C$DW$T$105)
      64              $C$DW$5 .dwtag  DW_TAG_formal_parameter
      65                      .dwattr $C$DW$5, DW_AT_type(*$C$DW$T$86)
      66              $C$DW$6 .dwtag  DW_TAG_formal_parameter
      67                      .dwattr $C$DW$6, DW_AT_type(*$C$DW$T$113)
      68                      .dwendtag $C$DW$2
      69              
      70              
      71              $C$DW$7 .dwtag  DW_TAG_subprogram, DW_AT_name("MMC_close")
      72                      .dwattr $C$DW$7, DW_AT_TI_symbol_name("_MMC_close")
      73                      .dwattr $C$DW$7, DW_AT_type(*$C$DW$T$112)
      74                      .dwattr $C$DW$7, DW_AT_declaration
      75                      .dwattr $C$DW$7, DW_AT_external
      76              $C$DW$8 .dwtag  DW_TAG_formal_parameter
      77                      .dwattr $C$DW$8, DW_AT_type(*$C$DW$T$110)
      78                      .dwendtag $C$DW$7
      79              
      80              
      81              $C$DW$9 .dwtag  DW_TAG_subprogram, DW_AT_name("MMC_setCardType")
      82                      .dwattr $C$DW$9, DW_AT_TI_symbol_name("_MMC_setCardType")
      83                      .dwattr $C$DW$9, DW_AT_type(*$C$DW$T$112)
      84                      .dwattr $C$DW$9, DW_AT_declaration
      85                      .dwattr $C$DW$9, DW_AT_external
      86              $C$DW$10        .dwtag  DW_TAG_formal_parameter
      87                      .dwattr $C$DW$10, DW_AT_type(*$C$DW$T$82)
      88              $C$DW$11        .dwtag  DW_TAG_formal_parameter
      89                      .dwattr $C$DW$11, DW_AT_type(*$C$DW$T$33)
      90                      .dwendtag $C$DW$9
      91              
      92              
      93              $C$DW$12        .dwtag  DW_TAG_subprogram, DW_AT_name("MMC_setCardPtr")
      94                      .dwattr $C$DW$12, DW_AT_TI_symbol_name("_MMC_setCardPtr")
      95                      .dwattr $C$DW$12, DW_AT_type(*$C$DW$T$112)
      96                      .dwattr $C$DW$12, DW_AT_declaration
      97                      .dwattr $C$DW$12, DW_AT_external
      98              $C$DW$13        .dwtag  DW_TAG_formal_parameter
      99                      .dwattr $C$DW$13, DW_AT_type(*$C$DW$T$110)
     100              $C$DW$14        .dwtag  DW_TAG_formal_parameter
     101                      .dwattr $C$DW$14, DW_AT_type(*$C$DW$T$82)
     102                      .dwendtag $C$DW$12
     103              
     104              
     105              $C$DW$15        .dwtag  DW_TAG_subprogram, DW_AT_name("MMC_setCallBack")
     106                      .dwattr $C$DW$15, DW_AT_TI_symbol_name("_MMC_setCallBack")
     107                      .dwattr $C$DW$15, DW_AT_type(*$C$DW$T$112)
TMS320C55x Assembler PC v4.4.1 Sat Sep 29 23:09:03 2018

Tools Copyright (c) 1996-2012 Texas Instruments Incorporated
csl_mmcsd_MmcCardExample.asm                                         PAGE    3

     108                      .dwattr $C$DW$15, DW_AT_declaration
     109                      .dwattr $C$DW$15, DW_AT_external
     110              $C$DW$16        .dwtag  DW_TAG_formal_parameter
     111                      .dwattr $C$DW$16, DW_AT_type(*$C$DW$T$110)
     112              $C$DW$17        .dwtag  DW_TAG_formal_parameter
     113                      .dwattr $C$DW$17, DW_AT_type(*$C$DW$T$84)
     114                      .dwendtag $C$DW$15
     115              
     116              
     117              $C$DW$18        .dwtag  DW_TAG_subprogram, DW_AT_name("MMC_getNumberOfCards")
     118                      .dwattr $C$DW$18, DW_AT_TI_symbol_name("_MMC_getNumberOfCards")
     119                      .dwattr $C$DW$18, DW_AT_type(*$C$DW$T$112)
     120                      .dwattr $C$DW$18, DW_AT_declaration
     121                      .dwattr $C$DW$18, DW_AT_external
     122              $C$DW$19        .dwtag  DW_TAG_formal_parameter
     123                      .dwattr $C$DW$19, DW_AT_type(*$C$DW$T$110)
     124              $C$DW$20        .dwtag  DW_TAG_formal_parameter
     125                      .dwattr $C$DW$20, DW_AT_type(*$C$DW$T$136)
     126                      .dwendtag $C$DW$18
     127              
     128              
     129              $C$DW$21        .dwtag  DW_TAG_subprogram, DW_AT_name("MMC_clearResponse")
     130                      .dwattr $C$DW$21, DW_AT_TI_symbol_name("_MMC_clearResponse")
     131                      .dwattr $C$DW$21, DW_AT_type(*$C$DW$T$112)
     132                      .dwattr $C$DW$21, DW_AT_declaration
     133                      .dwattr $C$DW$21, DW_AT_external
     134              $C$DW$22        .dwtag  DW_TAG_formal_parameter
     135                      .dwattr $C$DW$22, DW_AT_type(*$C$DW$T$110)
     136                      .dwendtag $C$DW$21
     137              
     138              
     139              $C$DW$23        .dwtag  DW_TAG_subprogram, DW_AT_name("MMC_intEnable")
     140                      .dwattr $C$DW$23, DW_AT_TI_symbol_name("_MMC_intEnable")
     141                      .dwattr $C$DW$23, DW_AT_type(*$C$DW$T$112)
     142                      .dwattr $C$DW$23, DW_AT_declaration
     143                      .dwattr $C$DW$23, DW_AT_external
     144              $C$DW$24        .dwtag  DW_TAG_formal_parameter
     145                      .dwattr $C$DW$24, DW_AT_type(*$C$DW$T$110)
     146              $C$DW$25        .dwtag  DW_TAG_formal_parameter
     147                      .dwattr $C$DW$25, DW_AT_type(*$C$DW$T$19)
     148                      .dwendtag $C$DW$23
     149              
     150              
     151              $C$DW$26        .dwtag  DW_TAG_subprogram, DW_AT_name("MMC_eventEnable")
     152                      .dwattr $C$DW$26, DW_AT_TI_symbol_name("_MMC_eventEnable")
     153                      .dwattr $C$DW$26, DW_AT_type(*$C$DW$T$112)
     154                      .dwattr $C$DW$26, DW_AT_declaration
     155                      .dwattr $C$DW$26, DW_AT_external
     156              $C$DW$27        .dwtag  DW_TAG_formal_parameter
     157                      .dwattr $C$DW$27, DW_AT_type(*$C$DW$T$110)
     158              $C$DW$28        .dwtag  DW_TAG_formal_parameter
     159                      .dwattr $C$DW$28, DW_AT_type(*$C$DW$T$107)
     160                      .dwendtag $C$DW$26
     161              
     162              
TMS320C55x Assembler PC v4.4.1 Sat Sep 29 23:09:03 2018

Tools Copyright (c) 1996-2012 Texas Instruments Incorporated
csl_mmcsd_MmcCardExample.asm                                         PAGE    4

     163              $C$DW$29        .dwtag  DW_TAG_subprogram, DW_AT_name("MMC_eventDisable")
     164                      .dwattr $C$DW$29, DW_AT_TI_symbol_name("_MMC_eventDisable")
     165                      .dwattr $C$DW$29, DW_AT_type(*$C$DW$T$112)
     166                      .dwattr $C$DW$29, DW_AT_declaration
     167                      .dwattr $C$DW$29, DW_AT_external
     168              $C$DW$30        .dwtag  DW_TAG_formal_parameter
     169                      .dwattr $C$DW$30, DW_AT_type(*$C$DW$T$110)
     170              $C$DW$31        .dwtag  DW_TAG_formal_parameter
     171                      .dwattr $C$DW$31, DW_AT_type(*$C$DW$T$107)
     172                      .dwendtag $C$DW$29
     173              
     174              
     175              $C$DW$32        .dwtag  DW_TAG_subprogram, DW_AT_name("MMC_drrdy")
     176                      .dwattr $C$DW$32, DW_AT_TI_symbol_name("_MMC_drrdy")
     177                      .dwattr $C$DW$32, DW_AT_type(*$C$DW$T$40)
     178                      .dwattr $C$DW$32, DW_AT_declaration
     179                      .dwattr $C$DW$32, DW_AT_external
     180              $C$DW$33        .dwtag  DW_TAG_formal_parameter
     181                      .dwattr $C$DW$33, DW_AT_type(*$C$DW$T$110)
     182              $C$DW$34        .dwtag  DW_TAG_formal_parameter
     183                      .dwattr $C$DW$34, DW_AT_type(*$C$DW$T$113)
     184                      .dwendtag $C$DW$32
     185              
     186              
     187              $C$DW$35        .dwtag  DW_TAG_subprogram, DW_AT_name("MMC_dxrdy")
     188                      .dwattr $C$DW$35, DW_AT_TI_symbol_name("_MMC_dxrdy")
     189                      .dwattr $C$DW$35, DW_AT_type(*$C$DW$T$40)
     190                      .dwattr $C$DW$35, DW_AT_declaration
     191                      .dwattr $C$DW$35, DW_AT_external
     192              $C$DW$36        .dwtag  DW_TAG_formal_parameter
     193                      .dwattr $C$DW$36, DW_AT_type(*$C$DW$T$110)
     194              $C$DW$37        .dwtag  DW_TAG_formal_parameter
     195                      .dwattr $C$DW$37, DW_AT_type(*$C$DW$T$113)
     196                      .dwendtag $C$DW$35
     197              
     198              
     199              $C$DW$38        .dwtag  DW_TAG_subprogram, DW_AT_name("MMC_saveStatus")
     200                      .dwattr $C$DW$38, DW_AT_TI_symbol_name("_MMC_saveStatus")
     201                      .dwattr $C$DW$38, DW_AT_type(*$C$DW$T$112)
     202                      .dwattr $C$DW$38, DW_AT_declaration
     203                      .dwattr $C$DW$38, DW_AT_external
     204              $C$DW$39        .dwtag  DW_TAG_formal_parameter
     205                      .dwattr $C$DW$39, DW_AT_type(*$C$DW$T$110)
     206                      .dwendtag $C$DW$38
     207              
     208              
     209              $C$DW$40        .dwtag  DW_TAG_subprogram, DW_AT_name("MMC_getStatus")
     210                      .dwattr $C$DW$40, DW_AT_TI_symbol_name("_MMC_getStatus")
     211                      .dwattr $C$DW$40, DW_AT_type(*$C$DW$T$28)
     212                      .dwattr $C$DW$40, DW_AT_declaration
     213                      .dwattr $C$DW$40, DW_AT_external
     214              $C$DW$41        .dwtag  DW_TAG_formal_parameter
     215                      .dwattr $C$DW$41, DW_AT_type(*$C$DW$T$110)
     216              $C$DW$42        .dwtag  DW_TAG_formal_parameter
     217                      .dwattr $C$DW$42, DW_AT_type(*$C$DW$T$28)
TMS320C55x Assembler PC v4.4.1 Sat Sep 29 23:09:03 2018

Tools Copyright (c) 1996-2012 Texas Instruments Incorporated
csl_mmcsd_MmcCardExample.asm                                         PAGE    5

     218              $C$DW$43        .dwtag  DW_TAG_formal_parameter
     219                      .dwattr $C$DW$43, DW_AT_type(*$C$DW$T$113)
     220                      .dwendtag $C$DW$40
     221              
     222              
     223              $C$DW$44        .dwtag  DW_TAG_subprogram, DW_AT_name("MMC_setupNative")
     224                      .dwattr $C$DW$44, DW_AT_TI_symbol_name("_MMC_setupNative")
     225                      .dwattr $C$DW$44, DW_AT_type(*$C$DW$T$112)
     226                      .dwattr $C$DW$44, DW_AT_declaration
     227                      .dwattr $C$DW$44, DW_AT_external
     228              $C$DW$45        .dwtag  DW_TAG_formal_parameter
     229                      .dwattr $C$DW$45, DW_AT_type(*$C$DW$T$110)
     230              $C$DW$46        .dwtag  DW_TAG_formal_parameter
     231                      .dwattr $C$DW$46, DW_AT_type(*$C$DW$T$117)
     232                      .dwendtag $C$DW$44
     233              
     234              
     235              $C$DW$47        .dwtag  DW_TAG_subprogram, DW_AT_name("MMC_config")
     236                      .dwattr $C$DW$47, DW_AT_TI_symbol_name("_MMC_config")
     237                      .dwattr $C$DW$47, DW_AT_type(*$C$DW$T$112)
     238                      .dwattr $C$DW$47, DW_AT_declaration
     239                      .dwattr $C$DW$47, DW_AT_external
     240              $C$DW$48        .dwtag  DW_TAG_formal_parameter
     241                      .dwattr $C$DW$48, DW_AT_type(*$C$DW$T$110)
     242              $C$DW$49        .dwtag  DW_TAG_formal_parameter
     243                      .dwattr $C$DW$49, DW_AT_type(*$C$DW$T$119)
     244                      .dwendtag $C$DW$47
     245              
     246              
     247              $C$DW$50        .dwtag  DW_TAG_subprogram, DW_AT_name("MMC_getConfig")
     248                      .dwattr $C$DW$50, DW_AT_TI_symbol_name("_MMC_getConfig")
     249                      .dwattr $C$DW$50, DW_AT_type(*$C$DW$T$112)
     250                      .dwattr $C$DW$50, DW_AT_declaration
     251                      .dwattr $C$DW$50, DW_AT_external
     252              $C$DW$51        .dwtag  DW_TAG_formal_parameter
     253                      .dwattr $C$DW$51, DW_AT_type(*$C$DW$T$110)
     254              $C$DW$52        .dwtag  DW_TAG_formal_parameter
     255                      .dwattr $C$DW$52, DW_AT_type(*$C$DW$T$119)
     256                      .dwendtag $C$DW$50
     257              
     258              
     259              $C$DW$53        .dwtag  DW_TAG_subprogram, DW_AT_name("MMC_sendGoIdle")
     260                      .dwattr $C$DW$53, DW_AT_TI_symbol_name("_MMC_sendGoIdle")
     261                      .dwattr $C$DW$53, DW_AT_type(*$C$DW$T$112)
     262                      .dwattr $C$DW$53, DW_AT_declaration
     263                      .dwattr $C$DW$53, DW_AT_external
     264              $C$DW$54        .dwtag  DW_TAG_formal_parameter
     265                      .dwattr $C$DW$54, DW_AT_type(*$C$DW$T$110)
     266                      .dwendtag $C$DW$53
     267              
     268              
     269              $C$DW$55        .dwtag  DW_TAG_subprogram, DW_AT_name("MMC_deselectCard")
     270                      .dwattr $C$DW$55, DW_AT_TI_symbol_name("_MMC_deselectCard")
     271                      .dwattr $C$DW$55, DW_AT_type(*$C$DW$T$112)
     272                      .dwattr $C$DW$55, DW_AT_declaration
TMS320C55x Assembler PC v4.4.1 Sat Sep 29 23:09:03 2018

Tools Copyright (c) 1996-2012 Texas Instruments Incorporated
csl_mmcsd_MmcCardExample.asm                                         PAGE    6

     273                      .dwattr $C$DW$55, DW_AT_external
     274              $C$DW$56        .dwtag  DW_TAG_formal_parameter
     275                      .dwattr $C$DW$56, DW_AT_type(*$C$DW$T$110)
     276              $C$DW$57        .dwtag  DW_TAG_formal_parameter
     277                      .dwattr $C$DW$57, DW_AT_type(*$C$DW$T$82)
     278                      .dwendtag $C$DW$55
     279              
     280              
     281              $C$DW$58        .dwtag  DW_TAG_subprogram, DW_AT_name("MMC_selectCard")
     282                      .dwattr $C$DW$58, DW_AT_TI_symbol_name("_MMC_selectCard")
     283                      .dwattr $C$DW$58, DW_AT_type(*$C$DW$T$112)
     284                      .dwattr $C$DW$58, DW_AT_declaration
     285                      .dwattr $C$DW$58, DW_AT_external
     286              $C$DW$59        .dwtag  DW_TAG_formal_parameter
     287                      .dwattr $C$DW$59, DW_AT_type(*$C$DW$T$110)
     288              $C$DW$60        .dwtag  DW_TAG_formal_parameter
     289                      .dwattr $C$DW$60, DW_AT_type(*$C$DW$T$82)
     290                      .dwendtag $C$DW$58
     291              
     292              
     293              $C$DW$61        .dwtag  DW_TAG_subprogram, DW_AT_name("MMC_sendOpCond")
     294                      .dwattr $C$DW$61, DW_AT_TI_symbol_name("_MMC_sendOpCond")
     295                      .dwattr $C$DW$61, DW_AT_type(*$C$DW$T$112)
     296                      .dwattr $C$DW$61, DW_AT_declaration
     297                      .dwattr $C$DW$61, DW_AT_external
     298              $C$DW$62        .dwtag  DW_TAG_formal_parameter
     299                      .dwattr $C$DW$62, DW_AT_type(*$C$DW$T$110)
     300              $C$DW$63        .dwtag  DW_TAG_formal_parameter
     301                      .dwattr $C$DW$63, DW_AT_type(*$C$DW$T$19)
     302                      .dwendtag $C$DW$61
     303              
     304              
     305              $C$DW$64        .dwtag  DW_TAG_subprogram, DW_AT_name("MMC_setRca")
     306                      .dwattr $C$DW$64, DW_AT_TI_symbol_name("_MMC_setRca")
     307                      .dwattr $C$DW$64, DW_AT_type(*$C$DW$T$112)
     308                      .dwattr $C$DW$64, DW_AT_declaration
     309                      .dwattr $C$DW$64, DW_AT_external
     310              $C$DW$65        .dwtag  DW_TAG_formal_parameter
     311                      .dwattr $C$DW$65, DW_AT_type(*$C$DW$T$110)
     312              $C$DW$66        .dwtag  DW_TAG_formal_parameter
     313                      .dwattr $C$DW$66, DW_AT_type(*$C$DW$T$82)
     314              $C$DW$67        .dwtag  DW_TAG_formal_parameter
     315                      .dwattr $C$DW$67, DW_AT_type(*$C$DW$T$19)
     316                      .dwendtag $C$DW$64
     317              
     318              
     319              $C$DW$68        .dwtag  DW_TAG_subprogram, DW_AT_name("MMC_sendAllCID")
     320                      .dwattr $C$DW$68, DW_AT_TI_symbol_name("_MMC_sendAllCID")
     321                      .dwattr $C$DW$68, DW_AT_type(*$C$DW$T$112)
     322                      .dwattr $C$DW$68, DW_AT_declaration
     323                      .dwattr $C$DW$68, DW_AT_external
     324              $C$DW$69        .dwtag  DW_TAG_formal_parameter
     325                      .dwattr $C$DW$69, DW_AT_type(*$C$DW$T$110)
     326              $C$DW$70        .dwtag  DW_TAG_formal_parameter
     327                      .dwattr $C$DW$70, DW_AT_type(*$C$DW$T$35)
TMS320C55x Assembler PC v4.4.1 Sat Sep 29 23:09:03 2018

Tools Copyright (c) 1996-2012 Texas Instruments Incorporated
csl_mmcsd_MmcCardExample.asm                                         PAGE    7

     328                      .dwendtag $C$DW$68
     329              
     330              
     331              $C$DW$71        .dwtag  DW_TAG_subprogram, DW_AT_name("MMC_getCardCsd")
     332                      .dwattr $C$DW$71, DW_AT_TI_symbol_name("_MMC_getCardCsd")
     333                      .dwattr $C$DW$71, DW_AT_type(*$C$DW$T$112)
     334                      .dwattr $C$DW$71, DW_AT_declaration
     335                      .dwattr $C$DW$71, DW_AT_external
     336              $C$DW$72        .dwtag  DW_TAG_formal_parameter
     337                      .dwattr $C$DW$72, DW_AT_type(*$C$DW$T$110)
     338              $C$DW$73        .dwtag  DW_TAG_formal_parameter
     339                      .dwattr $C$DW$73, DW_AT_type(*$C$DW$T$37)
     340                      .dwendtag $C$DW$71
     341              
     342              
     343              $C$DW$74        .dwtag  DW_TAG_subprogram, DW_AT_name("MMC_read")
     344                      .dwattr $C$DW$74, DW_AT_TI_symbol_name("_MMC_read")
     345                      .dwattr $C$DW$74, DW_AT_type(*$C$DW$T$112)
     346                      .dwattr $C$DW$74, DW_AT_declaration
     347                      .dwattr $C$DW$74, DW_AT_external
     348              $C$DW$75        .dwtag  DW_TAG_formal_parameter
     349                      .dwattr $C$DW$75, DW_AT_type(*$C$DW$T$110)
     350              $C$DW$76        .dwtag  DW_TAG_formal_parameter
     351                      .dwattr $C$DW$76, DW_AT_type(*$C$DW$T$28)
     352              $C$DW$77        .dwtag  DW_TAG_formal_parameter
     353                      .dwattr $C$DW$77, DW_AT_type(*$C$DW$T$19)
     354              $C$DW$78        .dwtag  DW_TAG_formal_parameter
     355                      .dwattr $C$DW$78, DW_AT_type(*$C$DW$T$136)
     356                      .dwendtag $C$DW$74
     357              
     358              
     359              $C$DW$79        .dwtag  DW_TAG_subprogram, DW_AT_name("MMC_write")
     360                      .dwattr $C$DW$79, DW_AT_TI_symbol_name("_MMC_write")
     361                      .dwattr $C$DW$79, DW_AT_type(*$C$DW$T$112)
     362                      .dwattr $C$DW$79, DW_AT_declaration
     363                      .dwattr $C$DW$79, DW_AT_external
     364              $C$DW$80        .dwtag  DW_TAG_formal_parameter
     365                      .dwattr $C$DW$80, DW_AT_type(*$C$DW$T$110)
     366              $C$DW$81        .dwtag  DW_TAG_formal_parameter
     367                      .dwattr $C$DW$81, DW_AT_type(*$C$DW$T$28)
     368              $C$DW$82        .dwtag  DW_TAG_formal_parameter
     369                      .dwattr $C$DW$82, DW_AT_type(*$C$DW$T$19)
     370              $C$DW$83        .dwtag  DW_TAG_formal_parameter
     371                      .dwattr $C$DW$83, DW_AT_type(*$C$DW$T$136)
     372                      .dwendtag $C$DW$79
     373              
     374              
     375              $C$DW$84        .dwtag  DW_TAG_subprogram, DW_AT_name("MMC_setEndianMode")
     376                      .dwattr $C$DW$84, DW_AT_TI_symbol_name("_MMC_setEndianMode")
     377                      .dwattr $C$DW$84, DW_AT_type(*$C$DW$T$112)
     378                      .dwattr $C$DW$84, DW_AT_declaration
     379                      .dwattr $C$DW$84, DW_AT_external
     380              $C$DW$85        .dwtag  DW_TAG_formal_parameter
     381                      .dwattr $C$DW$85, DW_AT_type(*$C$DW$T$110)
     382              $C$DW$86        .dwtag  DW_TAG_formal_parameter
TMS320C55x Assembler PC v4.4.1 Sat Sep 29 23:09:03 2018

Tools Copyright (c) 1996-2012 Texas Instruments Incorporated
csl_mmcsd_MmcCardExample.asm                                         PAGE    8

     383                      .dwattr $C$DW$86, DW_AT_type(*$C$DW$T$97)
     384              $C$DW$87        .dwtag  DW_TAG_formal_parameter
     385                      .dwattr $C$DW$87, DW_AT_type(*$C$DW$T$97)
     386                      .dwendtag $C$DW$84
     387              
     388              
     389              $C$DW$88        .dwtag  DW_TAG_subprogram, DW_AT_name("MMC_setBlockLength")
     390                      .dwattr $C$DW$88, DW_AT_TI_symbol_name("_MMC_setBlockLength")
     391                      .dwattr $C$DW$88, DW_AT_type(*$C$DW$T$112)
     392                      .dwattr $C$DW$88, DW_AT_declaration
     393                      .dwattr $C$DW$88, DW_AT_external
     394              $C$DW$89        .dwtag  DW_TAG_formal_parameter
     395                      .dwattr $C$DW$89, DW_AT_type(*$C$DW$T$110)
     396              $C$DW$90        .dwtag  DW_TAG_formal_parameter
     397                      .dwattr $C$DW$90, DW_AT_type(*$C$DW$T$28)
     398                      .dwendtag $C$DW$88
     399              
     400              
     401              $C$DW$91        .dwtag  DW_TAG_subprogram, DW_AT_name("printf")
     402                      .dwattr $C$DW$91, DW_AT_TI_symbol_name("_printf")
     403                      .dwattr $C$DW$91, DW_AT_type(*$C$DW$T$10)
     404                      .dwattr $C$DW$91, DW_AT_declaration
     405                      .dwattr $C$DW$91, DW_AT_external
     406              $C$DW$92        .dwtag  DW_TAG_formal_parameter
     407                      .dwattr $C$DW$92, DW_AT_type(*$C$DW$T$168)
     408              $C$DW$93        .dwtag  DW_TAG_unspecified_parameters
     409                      .dwendtag $C$DW$91
     410              
     411                      .global _pMmcsdContObj
     412 000000               .bss    _pMmcsdContObj,64,0,2
     413              $C$DW$94        .dwtag  DW_TAG_variable, DW_AT_name("pMmcsdContObj")
     414                      .dwattr $C$DW$94, DW_AT_TI_symbol_name("_pMmcsdContObj")
     415                      .dwattr $C$DW$94, DW_AT_location[DW_OP_addr _pMmcsdContObj]
     416                      .dwattr $C$DW$94, DW_AT_type(*$C$DW$T$108)
     417                      .dwattr $C$DW$94, DW_AT_external
     418                      .global _mmcsdHandle
     419 000040               .bss    _mmcsdHandle,2,0,2
     420              $C$DW$95        .dwtag  DW_TAG_variable, DW_AT_name("mmcsdHandle")
     421                      .dwattr $C$DW$95, DW_AT_TI_symbol_name("_mmcsdHandle")
     422                      .dwattr $C$DW$95, DW_AT_location[DW_OP_addr _mmcsdHandle]
     423                      .dwattr $C$DW$95, DW_AT_type(*$C$DW$T$110)
     424                      .dwattr $C$DW$95, DW_AT_external
     425                      .global _mmcCardObj
     426 000042               .bss    _mmcCardObj,30,0,2
     427              $C$DW$96        .dwtag  DW_TAG_variable, DW_AT_name("mmcCardObj")
     428                      .dwattr $C$DW$96, DW_AT_TI_symbol_name("_mmcCardObj")
     429                      .dwattr $C$DW$96, DW_AT_location[DW_OP_addr _mmcCardObj]
     430                      .dwattr $C$DW$96, DW_AT_type(*$C$DW$T$81)
     431                      .dwattr $C$DW$96, DW_AT_external
     432                      .global _mmcCardIdObj
     433 000060               .bss    _mmcCardIdObj,16,0,2
     434              $C$DW$97        .dwtag  DW_TAG_variable, DW_AT_name("mmcCardIdObj")
     435                      .dwattr $C$DW$97, DW_AT_TI_symbol_name("_mmcCardIdObj")
     436                      .dwattr $C$DW$97, DW_AT_location[DW_OP_addr _mmcCardIdObj]
     437                      .dwattr $C$DW$97, DW_AT_type(*$C$DW$T$34)
TMS320C55x Assembler PC v4.4.1 Sat Sep 29 23:09:03 2018

Tools Copyright (c) 1996-2012 Texas Instruments Incorporated
csl_mmcsd_MmcCardExample.asm                                         PAGE    9

     438                      .dwattr $C$DW$97, DW_AT_external
     439                      .global _mmcCardCsdObj
     440 000070               .bss    _mmcCardCsdObj,34,0,0
     441              $C$DW$98        .dwtag  DW_TAG_variable, DW_AT_name("mmcCardCsdObj")
     442                      .dwattr $C$DW$98, DW_AT_TI_symbol_name("_mmcCardCsdObj")
     443                      .dwattr $C$DW$98, DW_AT_location[DW_OP_addr _mmcCardCsdObj]
     444                      .dwattr $C$DW$98, DW_AT_type(*$C$DW$T$36)
     445                      .dwattr $C$DW$98, DW_AT_external
     446                      .global _callBckFun
     447 000092               .bss    _callBckFun,24,0,2
     448              $C$DW$99        .dwtag  DW_TAG_variable, DW_AT_name("callBckFun")
     449                      .dwattr $C$DW$99, DW_AT_TI_symbol_name("_callBckFun")
     450                      .dwattr $C$DW$99, DW_AT_location[DW_OP_addr _callBckFun]
     451                      .dwattr $C$DW$99, DW_AT_type(*$C$DW$T$83)
     452                      .dwattr $C$DW$99, DW_AT_external
     453                      .global _mmcConfig
     454 0000aa               .bss    _mmcConfig,7,0,0
     455              $C$DW$100       .dwtag  DW_TAG_variable, DW_AT_name("mmcConfig")
     456                      .dwattr $C$DW$100, DW_AT_TI_symbol_name("_mmcConfig")
     457                      .dwattr $C$DW$100, DW_AT_location[DW_OP_addr _mmcConfig]
     458                      .dwattr $C$DW$100, DW_AT_type(*$C$DW$T$118)
     459                      .dwattr $C$DW$100, DW_AT_external
     460                      .global _setupNative
     461 0000b1               .bss    _setupNative,7,0,0
     462              $C$DW$101       .dwtag  DW_TAG_variable, DW_AT_name("setupNative")
     463                      .dwattr $C$DW$101, DW_AT_TI_symbol_name("_setupNative")
     464                      .dwattr $C$DW$101, DW_AT_location[DW_OP_addr _setupNative]
     465                      .dwattr $C$DW$101, DW_AT_type(*$C$DW$T$116)
     466                      .dwattr $C$DW$101, DW_AT_external
     467                      .global _gMmcReadBuff
     468 0000b8               .bss    _gMmcReadBuff,256,0,0
     469              $C$DW$102       .dwtag  DW_TAG_variable, DW_AT_name("gMmcReadBuff")
     470                      .dwattr $C$DW$102, DW_AT_TI_symbol_name("_gMmcReadBuff")
     471                      .dwattr $C$DW$102, DW_AT_location[DW_OP_addr _gMmcReadBuff]
     472                      .dwattr $C$DW$102, DW_AT_type(*$C$DW$T$163)
     473                      .dwattr $C$DW$102, DW_AT_external
     474                      .global _gMmcWriteBuff
     475 0001b8               .bss    _gMmcWriteBuff,256,0,0
     476              $C$DW$103       .dwtag  DW_TAG_variable, DW_AT_name("gMmcWriteBuff")
     477                      .dwattr $C$DW$103, DW_AT_TI_symbol_name("_gMmcWriteBuff")
     478                      .dwattr $C$DW$103, DW_AT_location[DW_OP_addr _gMmcWriteBuff]
     479                      .dwattr $C$DW$103, DW_AT_type(*$C$DW$T$163)
     480                      .dwattr $C$DW$103, DW_AT_external
     481                      .global _PaSs_StAtE
     482 0002b8               .bss    _PaSs_StAtE,1,0,0
     483              $C$DW$104       .dwtag  DW_TAG_variable, DW_AT_name("PaSs_StAtE")
     484                      .dwattr $C$DW$104, DW_AT_TI_symbol_name("_PaSs_StAtE")
     485                      .dwattr $C$DW$104, DW_AT_location[DW_OP_addr _PaSs_StAtE]
     486                      .dwattr $C$DW$104, DW_AT_type(*$C$DW$T$159)
     487                      .dwattr $C$DW$104, DW_AT_external
     488                      .global _PaSs
     489 0002b9               .bss    _PaSs,1,0,0
     490              $C$DW$105       .dwtag  DW_TAG_variable, DW_AT_name("PaSs")
     491                      .dwattr $C$DW$105, DW_AT_TI_symbol_name("_PaSs")
     492                      .dwattr $C$DW$105, DW_AT_location[DW_OP_addr _PaSs]
TMS320C55x Assembler PC v4.4.1 Sat Sep 29 23:09:03 2018

Tools Copyright (c) 1996-2012 Texas Instruments Incorporated
csl_mmcsd_MmcCardExample.asm                                         PAGE   10

     493                      .dwattr $C$DW$105, DW_AT_type(*$C$DW$T$159)
     494                      .dwattr $C$DW$105, DW_AT_external
     495              ;       F:\t\cc5p5\ccsv5\tools\compiler\c5500_4.4.1\bin\acp55.exe -@f:\\AppData\\Local\\Temp\\0927612 
     496 000000               .sect   ".text"
     497                      .align 4
     498                      .global _main
     499              
     500              $C$DW$106       .dwtag  DW_TAG_subprogram, DW_AT_name("main")
     501                      .dwattr $C$DW$106, DW_AT_low_pc(_main)
     502                      .dwattr $C$DW$106, DW_AT_high_pc(0x00)
     503                      .dwattr $C$DW$106, DW_AT_TI_symbol_name("_main")
     504                      .dwattr $C$DW$106, DW_AT_external
     505                      .dwattr $C$DW$106, DW_AT_TI_begin_file("../c5535_bsl_revc/ezdsp5535_v1/c55xx_csl/ccs_v4.0_examples/mm
     506                      .dwattr $C$DW$106, DW_AT_TI_begin_line(0xe1)
     507                      .dwattr $C$DW$106, DW_AT_TI_begin_column(0x06)
     508                      .dwattr $C$DW$106, DW_AT_TI_max_frame_size(0x04)
     509                      .dwpsn  file "../c5535_bsl_revc/ezdsp5535_v1/c55xx_csl/ccs_v4.0_examples/mmc_sd/CSL_MMCSD_MmcCardExam
     510              
     511                      .dwfde $C$DW$CIE, _main
     512              ;*******************************************************************************
     513              ;* FUNCTION NAME: main                                                         *
     514              ;*                                                                             *
     515              ;*   Function Uses Regs : T0,AR1,AR3,XAR3,SP,M40,SATA,SATD,RDM,FRCT,SMUL       *
     516              ;*   Stack Frame        : Compact (No Frame Pointer, w/ debug)                 *
     517              ;*   Total Frame Size   : 4 words                                              *
     518              ;*                        (1 return address/alignment)                         *
     519              ;*                        (2 function parameters)                              *
     520              ;*                        (1 local values)                                     *
     521              ;*   Min System Stack   : 1 word                                               *
     522              ;*******************************************************************************
     523 000000       _main:
     524                      .dwcfi  cfa_offset, 1
     525                      .dwcfi  save_reg_to_mem, 91, -1
     526 000000 4EFD          AADD #-3, SP
     527                      .dwcfi  cfa_offset, 4
     528              $C$DW$107       .dwtag  DW_TAG_variable, DW_AT_name("status")
     529                      .dwattr $C$DW$107, DW_AT_TI_symbol_name("_status")
     530                      .dwattr $C$DW$107, DW_AT_type(*$C$DW$T$112)
     531                      .dwattr $C$DW$107, DW_AT_location[DW_OP_bregx 0x24 2]
     532                      .dwpsn  file "../c5535_bsl_revc/ezdsp5535_v1/c55xx_csl/ccs_v4.0_examples/mmc_sd/CSL_MMCSD_MmcCardExam
     533 000002 EC31          AMOV #$C$FSL1, XAR3 ; |229| 
         000004 BE00 
         000006 0000+
     534 000008 EB00          MOV XAR3, dbl(*SP(#0))
         00000a B5   
     535              $C$DW$108       .dwtag  DW_TAG_TI_branch
     536                      .dwattr $C$DW$108, DW_AT_low_pc(0x00)
     537                      .dwattr $C$DW$108, DW_AT_name("_printf")
     538                      .dwattr $C$DW$108, DW_AT_TI_call
     539 00000b 6C00          CALL #_printf ; |229| 
         00000d 0000!
     540                                                      ; call occurs [#_printf] ; |229| 
     541                      .dwpsn  file "../c5535_bsl_revc/ezdsp5535_v1/c55xx_csl/ccs_v4.0_examples/mmc_sd/CSL_MMCSD_MmcCardExam
     542              $C$DW$109       .dwtag  DW_TAG_TI_branch
     543                      .dwattr $C$DW$109, DW_AT_low_pc(0x00)
TMS320C55x Assembler PC v4.4.1 Sat Sep 29 23:09:03 2018

Tools Copyright (c) 1996-2012 Texas Instruments Incorporated
csl_mmcsd_MmcCardExample.asm                                         PAGE   11

     544                      .dwattr $C$DW$109, DW_AT_name("_CSL_mmcPollTest")
     545                      .dwattr $C$DW$109, DW_AT_TI_call
     546 00000f 0800          CALL #_CSL_mmcPollTest ; |231| 
         000011 3A   
     547                                                      ; call occurs [#_CSL_mmcPollTest] ; |231| 
     548 000012 C404          MOV T0, *SP(#2) ; |231| 
     549                      .dwpsn  file "../c5535_bsl_revc/ezdsp5535_v1/c55xx_csl/ccs_v4.0_examples/mmc_sd/CSL_MMCSD_MmcCardExam
     550 000014 2249          MOV T0, AR1
     551 000016 0409          BCC $C$L1,AR1 == #0 ; |232| 
         000018 15   
     552                                                      ; branchcc occurs ; |232| 
     553                      .dwpsn  file "../c5535_bsl_revc/ezdsp5535_v1/c55xx_csl/ccs_v4.0_examples/mmc_sd/CSL_MMCSD_MmcCardExam
     554 000019 EC31          AMOV #$C$FSL2, XAR3 ; |234| 
         00001b BE00 
         00001d 0028+
     555 00001f EB00          MOV XAR3, dbl(*SP(#0))
         000021 B5   
     556              $C$DW$110       .dwtag  DW_TAG_TI_branch
     557                      .dwattr $C$DW$110, DW_AT_low_pc(0x00)
     558                      .dwattr $C$DW$110, DW_AT_name("_printf")
     559                      .dwattr $C$DW$110, DW_AT_TI_call
     560 000022 6C00          CALL #_printf ; |234| 
         000024 0000!
     561                                                      ; call occurs [#_printf] ; |234| 
     562                      .dwpsn  file "../c5535_bsl_revc/ezdsp5535_v1/c55xx_csl/ccs_v4.0_examples/mmc_sd/CSL_MMCSD_MmcCardExam
     563 000026 E631          MOV #0, *(#_PaSs_StAtE) ; |237| 
         000028 0000 
         00002a 02B8-
     564                      .dwpsn  file "../c5535_bsl_revc/ezdsp5535_v1/c55xx_csl/ccs_v4.0_examples/mmc_sd/CSL_MMCSD_MmcCardExam
     565 00002c 4A0D          B $C$L2   ; |239| 
     566                                                      ; branch occurs ; |239| 
     567 00002e       $C$L1:    
     568                      .dwpsn  file "../c5535_bsl_revc/ezdsp5535_v1/c55xx_csl/ccs_v4.0_examples/mmc_sd/CSL_MMCSD_MmcCardExam
     569 00002e EC31          AMOV #$C$FSL3, XAR3 ; |242| 
         000030 BE00 
         000032 0058+
     570 000034 EB00          MOV XAR3, dbl(*SP(#0))
         000036 B5   
     571              $C$DW$111       .dwtag  DW_TAG_TI_branch
     572                      .dwattr $C$DW$111, DW_AT_low_pc(0x00)
     573                      .dwattr $C$DW$111, DW_AT_name("_printf")
     574                      .dwattr $C$DW$111, DW_AT_TI_call
     575 000037 6C00          CALL #_printf ; |242| 
         000039 0000!
     576                                                      ; call occurs [#_printf] ; |242| 
     577 00003b       $C$L2:    
     578                      .dwpsn  file "../c5535_bsl_revc/ezdsp5535_v1/c55xx_csl/ccs_v4.0_examples/mmc_sd/CSL_MMCSD_MmcCardExam
     579 00003b A931          MOV *(#_PaSs_StAtE), AR1 ; |247| 
         00003d 0002 
         00003f B8-  
     580 000040 C931          MOV AR1, *(#_PaSs) ; |247| 
         000042 0002 
         000044 B9-  
     581                      .dwpsn  file "../c5535_bsl_revc/ezdsp5535_v1/c55xx_csl/ccs_v4.0_examples/mmc_sd/CSL_MMCSD_MmcCardExam
     582 000045 4E03          AADD #3, SP
TMS320C55x Assembler PC v4.4.1 Sat Sep 29 23:09:03 2018

Tools Copyright (c) 1996-2012 Texas Instruments Incorporated
csl_mmcsd_MmcCardExample.asm                                         PAGE   12

     583                      .dwcfi  cfa_offset, 1
     584              $C$DW$112       .dwtag  DW_TAG_TI_branch
     585                      .dwattr $C$DW$112, DW_AT_low_pc(0x00)
     586                      .dwattr $C$DW$112, DW_AT_TI_return
     587 000047 4804          RET
     588                                                      ; return occurs
     589                      .dwattr $C$DW$106, DW_AT_TI_end_file("../c5535_bsl_revc/ezdsp5535_v1/c55xx_csl/ccs_v4.0_examples/mmc_
     590                      .dwattr $C$DW$106, DW_AT_TI_end_line(0xfc)
     591                      .dwattr $C$DW$106, DW_AT_TI_end_column(0x01)
     592                      .dwendentry
     593                      .dwendtag $C$DW$106
     594              
     595 000049               .sect   ".text"
     596                      .align 4
     597                      .global _CSL_mmcPollTest
     598              
     599              $C$DW$113       .dwtag  DW_TAG_subprogram, DW_AT_name("CSL_mmcPollTest")
     600                      .dwattr $C$DW$113, DW_AT_low_pc(_CSL_mmcPollTest)
     601                      .dwattr $C$DW$113, DW_AT_high_pc(0x00)
     602                      .dwattr $C$DW$113, DW_AT_TI_symbol_name("_CSL_mmcPollTest")
     603                      .dwattr $C$DW$113, DW_AT_external
     604                      .dwattr $C$DW$113, DW_AT_type(*$C$DW$T$112)
     605                      .dwattr $C$DW$113, DW_AT_TI_begin_file("../c5535_bsl_revc/ezdsp5535_v1/c55xx_csl/ccs_v4.0_examples/mm
     606                      .dwattr $C$DW$113, DW_AT_TI_begin_line(0x109)
     607                      .dwattr $C$DW$113, DW_AT_TI_begin_column(0x0c)
     608                      .dwattr $C$DW$113, DW_AT_TI_max_frame_size(0x08)
     609                      .dwpsn  file "../c5535_bsl_revc/ezdsp5535_v1/c55xx_csl/ccs_v4.0_examples/mmc_sd/CSL_MMCSD_MmcCardExam
     610              
     611                      .dwfde $C$DW$CIE, _CSL_mmcPollTest
     612              ;*******************************************************************************
     613              ;* FUNCTION NAME: CSL_mmcPollTest                                              *
     614              ;*                                                                             *
     615              ;*   Function Uses Regs : AC0,AC0,T0,T1,AR0,XAR0,AR1,XAR1,AR2,AR3,XAR3,SP,     *
     616              ;*                        CARRY,TC1,M40,SATA,SATD,RDM,FRCT,SMUL                *
     617              ;*   Stack Frame        : Compact (No Frame Pointer, w/ debug)                 *
     618              ;*   Total Frame Size   : 8 words                                              *
     619              ;*                        (1 return address/alignment)                         *
     620              ;*                        (3 function parameters)                              *
     621              ;*                        (4 local values)                                     *
     622              ;*   Min System Stack   : 1 word                                               *
     623              ;*******************************************************************************
     624 00004c       _CSL_mmcPollTest:
     625                      .dwcfi  cfa_offset, 1
     626                      .dwcfi  save_reg_to_mem, 91, -1
     627 00004c 4EF9          AADD #-7, SP
     628                      .dwcfi  cfa_offset, 8
     629              $C$DW$114       .dwtag  DW_TAG_variable, DW_AT_name("mmcStatus")
     630                      .dwattr $C$DW$114, DW_AT_TI_symbol_name("_mmcStatus")
     631                      .dwattr $C$DW$114, DW_AT_type(*$C$DW$T$112)
     632                      .dwattr $C$DW$114, DW_AT_location[DW_OP_bregx 0x24 3]
     633              $C$DW$115       .dwtag  DW_TAG_variable, DW_AT_name("looper")
     634                      .dwattr $C$DW$115, DW_AT_TI_symbol_name("_looper")
     635                      .dwattr $C$DW$115, DW_AT_type(*$C$DW$T$19)
     636                      .dwattr $C$DW$115, DW_AT_location[DW_OP_bregx 0x24 4]
     637              $C$DW$116       .dwtag  DW_TAG_variable, DW_AT_name("actCard")
TMS320C55x Assembler PC v4.4.1 Sat Sep 29 23:09:03 2018

Tools Copyright (c) 1996-2012 Texas Instruments Incorporated
csl_mmcsd_MmcCardExample.asm                                         PAGE   13

     638                      .dwattr $C$DW$116, DW_AT_TI_symbol_name("_actCard")
     639                      .dwattr $C$DW$116, DW_AT_type(*$C$DW$T$19)
     640                      .dwattr $C$DW$116, DW_AT_location[DW_OP_bregx 0x24 5]
     641              $C$DW$117       .dwtag  DW_TAG_variable, DW_AT_name("clockDiv")
     642                      .dwattr $C$DW$117, DW_AT_TI_symbol_name("_clockDiv")
     643                      .dwattr $C$DW$117, DW_AT_type(*$C$DW$T$19)
     644                      .dwattr $C$DW$117, DW_AT_location[DW_OP_bregx 0x24 6]
     645                      .dwpsn  file "../c5535_bsl_revc/ezdsp5535_v1/c55xx_csl/ccs_v4.0_examples/mmc_sd/CSL_MMCSD_MmcCardExam
     646 00004e 7A00          MOV #(_isr_txmt >> 16) << #16, AC0 ; |272| 
         000050 000A%
     647 000052 7E00          OR #(_isr_txmt & 0xffff), AC0, AC0 ; |272| 
         000054 0000%
     648 000056 EB31          MOV AC0, dbl(*(#_callBckFun)) ; |272| 
         000058 0800 
         00005a 0092-
     649                      .dwpsn  file "../c5535_bsl_revc/ezdsp5535_v1/c55xx_csl/ccs_v4.0_examples/mmc_sd/CSL_MMCSD_MmcCardExam
     650 00005c 7A00          MOV #(_isr_rcv >> 16) << #16, AC0 ; |273| 
         00005e 000A%
     651 000060 7E00          OR #(_isr_rcv & 0xffff), AC0, AC0 ; |273| 
         000062 0000%
     652 000064 EB31          MOV AC0, dbl(*(#(_callBckFun+2))) ; |273| 
         000066 0800 
         000068 0094-
     653                      .dwpsn  file "../c5535_bsl_revc/ezdsp5535_v1/c55xx_csl/ccs_v4.0_examples/mmc_sd/CSL_MMCSD_MmcCardExam
     654 00006a E608          MOV #0, *SP(#4) ; |276| 
         00006c 00   
     655                      .dwpsn  file "../c5535_bsl_revc/ezdsp5535_v1/c55xx_csl/ccs_v4.0_examples/mmc_sd/CSL_MMCSD_MmcCardExam
     656 00006d 7601          MOV #256, AR2 ; |276| 
         00006f 00A8 
     657 000071 A908          MOV *SP(#4), AR1 ; |276| 
     658 000073 1298          CMPU AR1 >= AR2, TC1 ; |276| 
         000075 A4   
     659 000076 0464          BCC $C$L4,TC1 ; |276| 
         000078 23   
     660                                                      ; branchcc occurs ; |276| 
     661 000079       $C$L3:    
     662 000079       $C$DW$L$_CSL_mmcPollTest$2$B:
     663                      .dwpsn  file "../c5535_bsl_revc/ezdsp5535_v1/c55xx_csl/ccs_v4.0_examples/mmc_sd/CSL_MMCSD_MmcCardExam
     664 000079 A408          MOV *SP(#4), T0 ; |278| 
     665 00007b EC31          AMOV #_gMmcReadBuff, XAR3 ; |278| 
         00007d BE00 
         00007f 00B8-
     666 000081 E66B          MOV #0, *AR3(T0) ; |278| 
         000083 00   
     667                      .dwpsn  file "../c5535_bsl_revc/ezdsp5535_v1/c55xx_csl/ccs_v4.0_examples/mmc_sd/CSL_MMCSD_MmcCardExam
     668 000084 A408          MOV *SP(#4), T0 ; |279| 
     669 000086 A908          MOV *SP(#4), AR1 ; |279| 
     670 000088 EC31          AMOV #_gMmcWriteBuff, XAR3 ; |279| 
         00008a BE00 
         00008c 01B8-
     671 00008e C96B          MOV AR1, *AR3(T0) ; |279| 
     672                      .dwpsn  file "../c5535_bsl_revc/ezdsp5535_v1/c55xx_csl/ccs_v4.0_examples/mmc_sd/CSL_MMCSD_MmcCardExam
     673 000090 F708          ADD #1, *SP(#4) ; |276| 
         000092 0001 
     674                      .dwpsn  file "../c5535_bsl_revc/ezdsp5535_v1/c55xx_csl/ccs_v4.0_examples/mmc_sd/CSL_MMCSD_MmcCardExam
TMS320C55x Assembler PC v4.4.1 Sat Sep 29 23:09:03 2018

Tools Copyright (c) 1996-2012 Texas Instruments Incorporated
csl_mmcsd_MmcCardExample.asm                                         PAGE   14

     675 000094 A908          MOV *SP(#4), AR1 ; |276| 
     676 000096 1294          CMPU AR1 < AR2, TC1 ; |276| 
         000098 A4   
     677 000099 0464          BCC $C$L3,TC1 ; |276| 
         00009b DD   
     678                                                      ; branchcc occurs ; |276| 
     679 00009c       $C$DW$L$_CSL_mmcPollTest$2$E:
     680 00009c       $C$L4:    
     681                      .dwpsn  file "../c5535_bsl_revc/ezdsp5535_v1/c55xx_csl/ccs_v4.0_examples/mmc_sd/CSL_MMCSD_MmcCardExam
     682              $C$DW$118       .dwtag  DW_TAG_TI_branch
     683                      .dwattr $C$DW$118, DW_AT_low_pc(0x00)
     684                      .dwattr $C$DW$118, DW_AT_name("_computeClkRate")
     685                      .dwattr $C$DW$118, DW_AT_TI_call
     686 00009c 0805          CALL #_computeClkRate ; |283| 
         00009e C1   
     687                                                      ; call occurs [#_computeClkRate] ; |283| 
     688 00009f C40C          MOV T0, *SP(#6) ; |283| 
     689                      .dwpsn  file "../c5535_bsl_revc/ezdsp5535_v1/c55xx_csl/ccs_v4.0_examples/mmc_sd/CSL_MMCSD_MmcCardExam
     690              $C$DW$119       .dwtag  DW_TAG_TI_branch
     691                      .dwattr $C$DW$119, DW_AT_low_pc(0x00)
     692                      .dwattr $C$DW$119, DW_AT_name("_MMC_init")
     693                      .dwattr $C$DW$119, DW_AT_TI_call
     694 0000a1 6C00          CALL #_MMC_init ; |286| 
         0000a3 0000!
     695                                                      ; call occurs [#_MMC_init] ; |286| 
     696 0000a5 C406          MOV T0, *SP(#3) ; |286| 
     697                      .dwpsn  file "../c5535_bsl_revc/ezdsp5535_v1/c55xx_csl/ccs_v4.0_examples/mmc_sd/CSL_MMCSD_MmcCardExam
     698 0000a7 2249          MOV T0, AR1
     699 0000a9 0409          BCC $C$L5,AR1 == #0 ; |287| 
         0000ab 12   
     700                                                      ; branchcc occurs ; |287| 
     701                      .dwpsn  file "../c5535_bsl_revc/ezdsp5535_v1/c55xx_csl/ccs_v4.0_examples/mmc_sd/CSL_MMCSD_MmcCardExam
     702 0000ac EC31          AMOV #$C$FSL4, XAR3 ; |289| 
         0000ae BE00 
         0000b0 0088+
     703 0000b2 EB00          MOV XAR3, dbl(*SP(#0))
         0000b4 B5   
     704              $C$DW$120       .dwtag  DW_TAG_TI_branch
     705                      .dwattr $C$DW$120, DW_AT_low_pc(0x00)
     706                      .dwattr $C$DW$120, DW_AT_name("_printf")
     707                      .dwattr $C$DW$120, DW_AT_TI_call
     708 0000b5 6C00          CALL #_printf ; |289| 
         0000b7 0000!
     709                                                      ; call occurs [#_printf] ; |289| 
     710                      .dwpsn  file "../c5535_bsl_revc/ezdsp5535_v1/c55xx_csl/ccs_v4.0_examples/mmc_sd/CSL_MMCSD_MmcCardExam
     711 0000b9 A406          MOV *SP(#3), T0 ; |290| 
     712 0000bb 0605          B $C$L42  ; |290| 
         0000bd 93   
     713                                                      ; branch occurs ; |290| 
     714 0000be       $C$L5:    
     715                      .dwpsn  file "../c5535_bsl_revc/ezdsp5535_v1/c55xx_csl/ccs_v4.0_examples/mmc_sd/CSL_MMCSD_MmcCardExam
     716 0000be FB31          MOV #512, *(#(_mmcConfig+5)) ; |294| 
         0000c0 0200 
         0000c2 0000 
         0000c4 AF-  
TMS320C55x Assembler PC v4.4.1 Sat Sep 29 23:09:03 2018

Tools Copyright (c) 1996-2012 Texas Instruments Incorporated
csl_mmcsd_MmcCardExample.asm                                         PAGE   15

     717                      .dwpsn  file "../c5535_bsl_revc/ezdsp5535_v1/c55xx_csl/ccs_v4.0_examples/mmc_sd/CSL_MMCSD_MmcCardExam
     718 0000c5 E631          MOV #17, *(#(_mmcConfig+1)) ; |295| 
         0000c7 1100 
         0000c9 00AB-
     719                      .dwpsn  file "../c5535_bsl_revc/ezdsp5535_v1/c55xx_csl/ccs_v4.0_examples/mmc_sd/CSL_MMCSD_MmcCardExam
     720 0000cb E631          MOV #2, *(#_mmcConfig) ; |296| 
         0000cd 0200 
         0000cf 00AA-
     721                      .dwpsn  file "../c5535_bsl_revc/ezdsp5535_v1/c55xx_csl/ccs_v4.0_examples/mmc_sd/CSL_MMCSD_MmcCardExam
     722 0000d1 E631          MOV #0, *(#(_mmcConfig+2)) ; |297| 
         0000d3 0000 
         0000d5 00AC-
     723                      .dwpsn  file "../c5535_bsl_revc/ezdsp5535_v1/c55xx_csl/ccs_v4.0_examples/mmc_sd/CSL_MMCSD_MmcCardExam
     724 0000d7 E631          MOV #1, *(#(_mmcConfig+6)) ; |298| 
         0000d9 0100 
         0000db 00B0-
     725                      .dwpsn  file "../c5535_bsl_revc/ezdsp5535_v1/c55xx_csl/ccs_v4.0_examples/mmc_sd/CSL_MMCSD_MmcCardExam
     726 0000dd FB31          MOV #65535, *(#(_mmcConfig+4)) ; |299| 
         0000df FFFF 
         0000e1 0000 
         0000e3 AE-  
     727                      .dwpsn  file "../c5535_bsl_revc/ezdsp5535_v1/c55xx_csl/ccs_v4.0_examples/mmc_sd/CSL_MMCSD_MmcCardExam
     728 0000e4 FB31          MOV #65535, *(#(_mmcConfig+3)) ; |300| 
         0000e6 FFFF 
         0000e8 0000 
         0000ea AD-  
     729                      .dwpsn  file "../c5535_bsl_revc/ezdsp5535_v1/c55xx_csl/ccs_v4.0_examples/mmc_sd/CSL_MMCSD_MmcCardExam
     730 0000eb FB31          MOV #512, *(#(_setupNative+6)) ; |303| 
         0000ed 0200 
         0000ef 0000 
         0000f1 B7-  
     731                      .dwpsn  file "../c5535_bsl_revc/ezdsp5535_v1/c55xx_csl/ccs_v4.0_examples/mmc_sd/CSL_MMCSD_MmcCardExam
     732 0000f2 E631          MOV #16, *(#(_setupNative+3)) ; |304| 
         0000f4 1000 
         0000f6 00B4-
     733                      .dwpsn  file "../c5535_bsl_revc/ezdsp5535_v1/c55xx_csl/ccs_v4.0_examples/mmc_sd/CSL_MMCSD_MmcCardExam
     734 0000f8 E631          MOV #2, *(#(_setupNative+1)) ; |305| 
         0000fa 0200 
         0000fc 00B2-
     735                      .dwpsn  file "../c5535_bsl_revc/ezdsp5535_v1/c55xx_csl/ccs_v4.0_examples/mmc_sd/CSL_MMCSD_MmcCardExam
     736 0000fe FB31          MOV #65535, *(#(_setupNative+5)) ; |306| 
         000100 FFFF 
         000102 0000 
         000104 B6-  
     737                      .dwpsn  file "../c5535_bsl_revc/ezdsp5535_v1/c55xx_csl/ccs_v4.0_examples/mmc_sd/CSL_MMCSD_MmcCardExam
     738 000105 E631          MOV #1, *(#_setupNative) ; |307| 
         000107 0100 
         000109 00B1-
     739                      .dwpsn  file "../c5535_bsl_revc/ezdsp5535_v1/c55xx_csl/ccs_v4.0_examples/mmc_sd/CSL_MMCSD_MmcCardExam
     740 00010b E631          MOV #1, *(#(_setupNative+2)) ; |308| 
         00010d 0100 
         00010f 00B3-
     741                      .dwpsn  file "../c5535_bsl_revc/ezdsp5535_v1/c55xx_csl/ccs_v4.0_examples/mmc_sd/CSL_MMCSD_MmcCardExam
     742 000111 FB31          MOV #65535, *(#(_setupNative+4)) ; |309| 
         000113 FFFF 
TMS320C55x Assembler PC v4.4.1 Sat Sep 29 23:09:03 2018

Tools Copyright (c) 1996-2012 Texas Instruments Incorporated
csl_mmcsd_MmcCardExample.asm                                         PAGE   16

         000115 0000 
         000117 B5-  
     743                      .dwpsn  file "../c5535_bsl_revc/ezdsp5535_v1/c55xx_csl/ccs_v4.0_examples/mmc_sd/CSL_MMCSD_MmcCardExam
     744 000118 EC31          AMOV #_pMmcsdContObj, XAR0 ; |316| 
         00011a 8E00 
         00011c 0000-
     745              
     746 000121 3D04          MOV #0, T0
     747 00011e EC06  ||      AMAR *SP(#3), XAR1
         000120 9E   
     748              
     749              $C$DW$121       .dwtag  DW_TAG_TI_branch
     750                      .dwattr $C$DW$121, DW_AT_low_pc(0x00)
     751                      .dwattr $C$DW$121, DW_AT_name("_MMC_open")
     752                      .dwattr $C$DW$121, DW_AT_TI_call
     753              
     754 000123 6C00          CALL #_MMC_open ; |316| 
         000125 0000!
     755 000127 3D05  ||      MOV #0, T1
     756              
     757                                                      ; call occurs [#_MMC_open] ; |316| 
     758 000129 EB31          MOV XAR0, dbl(*(#_mmcsdHandle))
         00012b 8500 
         00012d 0040-
     759                      .dwpsn  file "../c5535_bsl_revc/ezdsp5535_v1/c55xx_csl/ccs_v4.0_examples/mmc_sd/CSL_MMCSD_MmcCardExam
     760 00012f A906          MOV *SP(#3), AR1 ; |319| 
     761 000131 0409          BCC $C$L6,AR1 == #0 ; |319| 
         000133 12   
     762                                                      ; branchcc occurs ; |319| 
     763                      .dwpsn  file "../c5535_bsl_revc/ezdsp5535_v1/c55xx_csl/ccs_v4.0_examples/mmc_sd/CSL_MMCSD_MmcCardExam
     764 000134 EC31          AMOV #$C$FSL5, XAR3 ; |321| 
         000136 BE00 
         000138 009E+
     765 00013a EB00          MOV XAR3, dbl(*SP(#0))
         00013c B5   
     766              $C$DW$122       .dwtag  DW_TAG_TI_branch
     767                      .dwattr $C$DW$122, DW_AT_low_pc(0x00)
     768                      .dwattr $C$DW$122, DW_AT_name("_printf")
     769                      .dwattr $C$DW$122, DW_AT_TI_call
     770 00013d 6C00          CALL #_printf ; |321| 
         00013f 0000!
     771                                                      ; call occurs [#_printf] ; |321| 
     772                      .dwpsn  file "../c5535_bsl_revc/ezdsp5535_v1/c55xx_csl/ccs_v4.0_examples/mmc_sd/CSL_MMCSD_MmcCardExam
     773 000141 A406          MOV *SP(#3), T0 ; |322| 
     774 000143 0605          B $C$L42  ; |322| 
         000145 0B   
     775                                                      ; branch occurs ; |322| 
     776 000146       $C$L6:    
     777                      .dwpsn  file "../c5535_bsl_revc/ezdsp5535_v1/c55xx_csl/ccs_v4.0_examples/mmc_sd/CSL_MMCSD_MmcCardExam
     778 000146 EC31          AMOV #$C$FSL6, XAR3 ; |326| 
         000148 BE00 
         00014a 00B4+
     779 00014c EB00          MOV XAR3, dbl(*SP(#0))
         00014e B5   
     780              $C$DW$123       .dwtag  DW_TAG_TI_branch
TMS320C55x Assembler PC v4.4.1 Sat Sep 29 23:09:03 2018

Tools Copyright (c) 1996-2012 Texas Instruments Incorporated
csl_mmcsd_MmcCardExample.asm                                         PAGE   17

     781                      .dwattr $C$DW$123, DW_AT_low_pc(0x00)
     782                      .dwattr $C$DW$123, DW_AT_name("_printf")
     783                      .dwattr $C$DW$123, DW_AT_TI_call
     784 00014f 6C00          CALL #_printf ; |326| 
         000151 0000!
     785                                                      ; call occurs [#_printf] ; |326| 
     786                      .dwpsn  file "../c5535_bsl_revc/ezdsp5535_v1/c55xx_csl/ccs_v4.0_examples/mmc_sd/CSL_MMCSD_MmcCardExam
     787 000153 ED31          MOV dbl(*(#_mmcsdHandle)), XAR0
         000155 8F00 
         000157 0040-
     788              $C$DW$124       .dwtag  DW_TAG_TI_branch
     789                      .dwattr $C$DW$124, DW_AT_low_pc(0x00)
     790                      .dwattr $C$DW$124, DW_AT_name("_MMC_sendGoIdle")
     791                      .dwattr $C$DW$124, DW_AT_TI_call
     792 000159 6C00          CALL #_MMC_sendGoIdle ; |330| 
         00015b 0000!
     793                                                      ; call occurs [#_MMC_sendGoIdle] ; |330| 
     794 00015d C406          MOV T0, *SP(#3) ; |330| 
     795                      .dwpsn  file "../c5535_bsl_revc/ezdsp5535_v1/c55xx_csl/ccs_v4.0_examples/mmc_sd/CSL_MMCSD_MmcCardExam
     796 00015f 2249          MOV T0, AR1
     797 000161 0409          BCC $C$L7,AR1 == #0 ; |331| 
         000163 12   
     798                                                      ; branchcc occurs ; |331| 
     799                      .dwpsn  file "../c5535_bsl_revc/ezdsp5535_v1/c55xx_csl/ccs_v4.0_examples/mmc_sd/CSL_MMCSD_MmcCardExam
     800 000164 EC31          AMOV #$C$FSL7, XAR3 ; |333| 
         000166 BE00 
         000168 00CE+
     801 00016a EB00          MOV XAR3, dbl(*SP(#0))
         00016c B5   
     802              $C$DW$125       .dwtag  DW_TAG_TI_branch
     803                      .dwattr $C$DW$125, DW_AT_low_pc(0x00)
     804                      .dwattr $C$DW$125, DW_AT_name("_printf")
     805                      .dwattr $C$DW$125, DW_AT_TI_call
     806 00016d 6C00          CALL #_printf ; |333| 
         00016f 0000!
     807                                                      ; call occurs [#_printf] ; |333| 
     808                      .dwpsn  file "../c5535_bsl_revc/ezdsp5535_v1/c55xx_csl/ccs_v4.0_examples/mmc_sd/CSL_MMCSD_MmcCardExam
     809 000171 A406          MOV *SP(#3), T0 ; |334| 
     810 000173 0604          B $C$L42  ; |334| 
         000175 DB   
     811                                                      ; branch occurs ; |334| 
     812 000176       $C$L7:    
     813                      .dwpsn  file "../c5535_bsl_revc/ezdsp5535_v1/c55xx_csl/ccs_v4.0_examples/mmc_sd/CSL_MMCSD_MmcCardExam
     814 000176 ED31          MOV dbl(*(#_mmcsdHandle)), XAR0
         000178 8F00 
         00017a 0040-
     815 00017c EC31          AMOV #_mmcCardObj, XAR1 ; |338| 
         00017e 9E00 
         000180 0042-
     816              $C$DW$126       .dwtag  DW_TAG_TI_branch
     817                      .dwattr $C$DW$126, DW_AT_low_pc(0x00)
     818                      .dwattr $C$DW$126, DW_AT_name("_MMC_selectCard")
     819                      .dwattr $C$DW$126, DW_AT_TI_call
     820 000182 6C00          CALL #_MMC_selectCard ; |338| 
         000184 0000!
TMS320C55x Assembler PC v4.4.1 Sat Sep 29 23:09:03 2018

Tools Copyright (c) 1996-2012 Texas Instruments Incorporated
csl_mmcsd_MmcCardExample.asm                                         PAGE   18

     821                                                      ; call occurs [#_MMC_selectCard] ; |338| 
     822 000186 C406          MOV T0, *SP(#3) ; |338| 
     823                      .dwpsn  file "../c5535_bsl_revc/ezdsp5535_v1/c55xx_csl/ccs_v4.0_examples/mmc_sd/CSL_MMCSD_MmcCardExam
     824 000188 F006          CMP *SP(#3) == #-5, TC1 ; |339| 
         00018a FFFB 
     825 00018c 63E4          BCC $C$L8,TC1 ; |339| 
     826                                                      ; branchcc occurs ; |339| 
     827 00018e F006          CMP *SP(#3) == #-6, TC1 ; |339| 
         000190 FFFA 
     828 000192 0474          BCC $C$L9,!TC1 ; |339| 
         000194 12   
     829                                                      ; branchcc occurs ; |339| 
     830 000195       $C$L8:    
     831                      .dwpsn  file "../c5535_bsl_revc/ezdsp5535_v1/c55xx_csl/ccs_v4.0_examples/mmc_sd/CSL_MMCSD_MmcCardExam
     832 000195 EC31          AMOV #$C$FSL8, XAR3 ; |342| 
         000197 BE00 
         000199 00EA+
     833 00019b EB00          MOV XAR3, dbl(*SP(#0))
         00019d B5   
     834              $C$DW$127       .dwtag  DW_TAG_TI_branch
     835                      .dwattr $C$DW$127, DW_AT_low_pc(0x00)
     836                      .dwattr $C$DW$127, DW_AT_name("_printf")
     837                      .dwattr $C$DW$127, DW_AT_TI_call
     838 00019e 6C00          CALL #_printf ; |342| 
         0001a0 0000!
     839                                                      ; call occurs [#_printf] ; |342| 
     840                      .dwpsn  file "../c5535_bsl_revc/ezdsp5535_v1/c55xx_csl/ccs_v4.0_examples/mmc_sd/CSL_MMCSD_MmcCardExam
     841 0001a2 A406          MOV *SP(#3), T0 ; |343| 
     842 0001a4 0604          B $C$L42  ; |343| 
         0001a6 AA   
     843                                                      ; branch occurs ; |343| 
     844 0001a7       $C$L9:    
     845                      .dwpsn  file "../c5535_bsl_revc/ezdsp5535_v1/c55xx_csl/ccs_v4.0_examples/mmc_sd/CSL_MMCSD_MmcCardExam
     846 0001a7 F031          CMP *(#(_mmcCardObj+18)) == #2, TC1 ; |347| 
         0001a9 0002 
         0001ab 0000 
         0001ad 54-  
     847 0001ae 67F4          BCC $C$L10,!TC1 ; |347| 
     848                                                      ; branchcc occurs ; |347| 
     849                      .dwpsn  file "../c5535_bsl_revc/ezdsp5535_v1/c55xx_csl/ccs_v4.0_examples/mmc_sd/CSL_MMCSD_MmcCardExam
     850 0001b0 EC31          AMOV #$C$FSL9, XAR3 ; |349| 
         0001b2 BE00 
         0001b4 0106+
     851 0001b6 EB00          MOV XAR3, dbl(*SP(#0))
         0001b8 B5   
     852              $C$DW$128       .dwtag  DW_TAG_TI_branch
     853                      .dwattr $C$DW$128, DW_AT_low_pc(0x00)
     854                      .dwattr $C$DW$128, DW_AT_name("_printf")
     855                      .dwattr $C$DW$128, DW_AT_TI_call
     856 0001b9 6C00          CALL #_printf ; |349| 
         0001bb 0000!
     857                                                      ; call occurs [#_printf] ; |349| 
     858                      .dwpsn  file "../c5535_bsl_revc/ezdsp5535_v1/c55xx_csl/ccs_v4.0_examples/mmc_sd/CSL_MMCSD_MmcCardExam
     859 0001bd 4A35          B $C$L13  ; |350| 
     860                                                      ; branch occurs ; |350| 
TMS320C55x Assembler PC v4.4.1 Sat Sep 29 23:09:03 2018

Tools Copyright (c) 1996-2012 Texas Instruments Incorporated
csl_mmcsd_MmcCardExample.asm                                         PAGE   19

     861 0001bf       $C$L10:    
     862                      .dwpsn  file "../c5535_bsl_revc/ezdsp5535_v1/c55xx_csl/ccs_v4.0_examples/mmc_sd/CSL_MMCSD_MmcCardExam
     863 0001bf A931          MOV *(#(_mmcCardObj+18)), AR1 ; |354| 
         0001c1 0000 
         0001c3 54-  
     864 0001c4 6799          BCC $C$L11,AR1 != #0 ; |354| 
     865                                                      ; branchcc occurs ; |354| 
     866                      .dwpsn  file "../c5535_bsl_revc/ezdsp5535_v1/c55xx_csl/ccs_v4.0_examples/mmc_sd/CSL_MMCSD_MmcCardExam
     867 0001c6 EC31          AMOV #$C$FSL10, XAR3 ; |356| 
         0001c8 BE00 
         0001ca 011C+
     868 0001cc EB00          MOV XAR3, dbl(*SP(#0))
         0001ce B5   
     869              $C$DW$129       .dwtag  DW_TAG_TI_branch
     870                      .dwattr $C$DW$129, DW_AT_low_pc(0x00)
     871                      .dwattr $C$DW$129, DW_AT_name("_printf")
     872                      .dwattr $C$DW$129, DW_AT_TI_call
     873 0001cf 6C00          CALL #_printf ; |356| 
         0001d1 0000!
     874                                                      ; call occurs [#_printf] ; |356| 
     875                      .dwpsn  file "../c5535_bsl_revc/ezdsp5535_v1/c55xx_csl/ccs_v4.0_examples/mmc_sd/CSL_MMCSD_MmcCardExam
     876 0001d3 4A0D          B $C$L12  ; |357| 
     877                                                      ; branch occurs ; |357| 
     878 0001d5       $C$L11:    
     879                      .dwpsn  file "../c5535_bsl_revc/ezdsp5535_v1/c55xx_csl/ccs_v4.0_examples/mmc_sd/CSL_MMCSD_MmcCardExam
     880 0001d5 EC31          AMOV #$C$FSL11, XAR3 ; |360| 
         0001d7 BE00 
         0001d9 0130+
     881 0001db EB00          MOV XAR3, dbl(*SP(#0))
         0001dd B5   
     882              $C$DW$130       .dwtag  DW_TAG_TI_branch
     883                      .dwattr $C$DW$130, DW_AT_low_pc(0x00)
     884                      .dwattr $C$DW$130, DW_AT_name("_printf")
     885                      .dwattr $C$DW$130, DW_AT_TI_call
     886 0001de 6C00          CALL #_printf ; |360| 
         0001e0 0000!
     887                                                      ; call occurs [#_printf] ; |360| 
     888 0001e2       $C$L12:    
     889                      .dwpsn  file "../c5535_bsl_revc/ezdsp5535_v1/c55xx_csl/ccs_v4.0_examples/mmc_sd/CSL_MMCSD_MmcCardExam
     890 0001e2 EC31          AMOV #$C$FSL12, XAR3 ; |363| 
         0001e4 BE00 
         0001e6 0148+
     891 0001e8 EB00          MOV XAR3, dbl(*SP(#0))
         0001ea B5   
     892              $C$DW$131       .dwtag  DW_TAG_TI_branch
     893                      .dwattr $C$DW$131, DW_AT_low_pc(0x00)
     894                      .dwattr $C$DW$131, DW_AT_name("_printf")
     895                      .dwattr $C$DW$131, DW_AT_TI_call
     896 0001eb 6C00          CALL #_printf ; |363| 
         0001ed 0000!
     897                                                      ; call occurs [#_printf] ; |363| 
     898                      .dwpsn  file "../c5535_bsl_revc/ezdsp5535_v1/c55xx_csl/ccs_v4.0_examples/mmc_sd/CSL_MMCSD_MmcCardExam
     899 0001ef 3E14          MOV #-1, T0
     900 0001f1 0604          B $C$L42  ; |364| 
         0001f3 5D   
TMS320C55x Assembler PC v4.4.1 Sat Sep 29 23:09:03 2018

Tools Copyright (c) 1996-2012 Texas Instruments Incorporated
csl_mmcsd_MmcCardExample.asm                                         PAGE   20

     901                                                      ; branch occurs ; |364| 
     902 0001f4       $C$L13:    
     903                      .dwpsn  file "../c5535_bsl_revc/ezdsp5535_v1/c55xx_csl/ccs_v4.0_examples/mmc_sd/CSL_MMCSD_MmcCardExam
     904 0001f4 ED31          MOV dbl(*(#_mmcsdHandle)), XAR0
         0001f6 8F00 
         0001f8 0040-
     905 0001fa EC31          AMOV #_mmcCardIdObj, XAR1 ; |368| 
         0001fc 9E00 
         0001fe 0060-
     906              $C$DW$132       .dwtag  DW_TAG_TI_branch
     907                      .dwattr $C$DW$132, DW_AT_low_pc(0x00)
     908                      .dwattr $C$DW$132, DW_AT_name("_MMC_sendAllCID")
     909                      .dwattr $C$DW$132, DW_AT_TI_call
     910 000200 6C00          CALL #_MMC_sendAllCID ; |368| 
         000202 0000!
     911                                                      ; call occurs [#_MMC_sendAllCID] ; |368| 
     912 000204 C406          MOV T0, *SP(#3) ; |368| 
     913                      .dwpsn  file "../c5535_bsl_revc/ezdsp5535_v1/c55xx_csl/ccs_v4.0_examples/mmc_sd/CSL_MMCSD_MmcCardExam
     914 000206 2249          MOV T0, AR1
     915 000208 0409          BCC $C$L14,AR1 == #0 ; |369| 
         00020a 12   
     916                                                      ; branchcc occurs ; |369| 
     917                      .dwpsn  file "../c5535_bsl_revc/ezdsp5535_v1/c55xx_csl/ccs_v4.0_examples/mmc_sd/CSL_MMCSD_MmcCardExam
     918 00020b EC31          AMOV #$C$FSL13, XAR3 ; |371| 
         00020d BE00 
         00020f 0162+
     919 000211 EB00          MOV XAR3, dbl(*SP(#0))
         000213 B5   
     920              $C$DW$133       .dwtag  DW_TAG_TI_branch
     921                      .dwattr $C$DW$133, DW_AT_low_pc(0x00)
     922                      .dwattr $C$DW$133, DW_AT_name("_printf")
     923                      .dwattr $C$DW$133, DW_AT_TI_call
     924 000214 6C00          CALL #_printf ; |371| 
         000216 0000!
     925                                                      ; call occurs [#_printf] ; |371| 
     926                      .dwpsn  file "../c5535_bsl_revc/ezdsp5535_v1/c55xx_csl/ccs_v4.0_examples/mmc_sd/CSL_MMCSD_MmcCardExam
     927 000218 A406          MOV *SP(#3), T0 ; |372| 
     928 00021a 0604          B $C$L42  ; |372| 
         00021c 34   
     929                                                      ; branch occurs ; |372| 
     930 00021d       $C$L14:    
     931                      .dwpsn  file "../c5535_bsl_revc/ezdsp5535_v1/c55xx_csl/ccs_v4.0_examples/mmc_sd/CSL_MMCSD_MmcCardExam
     932 00021d ED31          MOV dbl(*(#_mmcsdHandle)), XAR0
         00021f 8F00 
         000221 0040-
     933 000223 EC31          AMOV #_mmcCardObj, XAR1 ; |376| 
         000225 9E00 
         000227 0042-
     934              $C$DW$134       .dwtag  DW_TAG_TI_branch
     935                      .dwattr $C$DW$134, DW_AT_low_pc(0x00)
     936                      .dwattr $C$DW$134, DW_AT_name("_MMC_setRca")
     937                      .dwattr $C$DW$134, DW_AT_TI_call
     938              
     939 000229 6C00          CALL #_MMC_setRca ; |376| 
         00022b 0000!
TMS320C55x Assembler PC v4.4.1 Sat Sep 29 23:09:03 2018

Tools Copyright (c) 1996-2012 Texas Instruments Incorporated
csl_mmcsd_MmcCardExample.asm                                         PAGE   21

     940 00022d 3D14  ||      MOV #1, T0
     941              
     942                                                      ; call occurs [#_MMC_setRca] ; |376| 
     943 00022f C406          MOV T0, *SP(#3) ; |376| 
     944                      .dwpsn  file "../c5535_bsl_revc/ezdsp5535_v1/c55xx_csl/ccs_v4.0_examples/mmc_sd/CSL_MMCSD_MmcCardExam
     945 000231 2249          MOV T0, AR1
     946 000233 0409          BCC $C$L15,AR1 == #0 ; |377| 
         000235 12   
     947                                                      ; branchcc occurs ; |377| 
     948                      .dwpsn  file "../c5535_bsl_revc/ezdsp5535_v1/c55xx_csl/ccs_v4.0_examples/mmc_sd/CSL_MMCSD_MmcCardExam
     949 000236 EC31          AMOV #$C$FSL14, XAR3 ; |379| 
         000238 BE00 
         00023a 017E+
     950 00023c EB00          MOV XAR3, dbl(*SP(#0))
         00023e B5   
     951              $C$DW$135       .dwtag  DW_TAG_TI_branch
     952                      .dwattr $C$DW$135, DW_AT_low_pc(0x00)
     953                      .dwattr $C$DW$135, DW_AT_name("_printf")
     954                      .dwattr $C$DW$135, DW_AT_TI_call
     955 00023f 6C00          CALL #_printf ; |379| 
         000241 0000!
     956                                                      ; call occurs [#_printf] ; |379| 
     957                      .dwpsn  file "../c5535_bsl_revc/ezdsp5535_v1/c55xx_csl/ccs_v4.0_examples/mmc_sd/CSL_MMCSD_MmcCardExam
     958 000243 3E14          MOV #-1, T0
     959 000245 0604          B $C$L42  ; |380| 
         000247 09   
     960                                                      ; branch occurs ; |380| 
     961 000248       $C$L15:    
     962                      .dwpsn  file "../c5535_bsl_revc/ezdsp5535_v1/c55xx_csl/ccs_v4.0_examples/mmc_sd/CSL_MMCSD_MmcCardExam
     963 000248 ED31          MOV dbl(*(#_mmcsdHandle)), XAR0
         00024a 8F00 
         00024c 0040-
     964 00024e EC31          AMOV #_mmcCardCsdObj, XAR1 ; |384| 
         000250 9E00 
         000252 0070-
     965              $C$DW$136       .dwtag  DW_TAG_TI_branch
     966                      .dwattr $C$DW$136, DW_AT_low_pc(0x00)
     967                      .dwattr $C$DW$136, DW_AT_name("_MMC_getCardCsd")
     968                      .dwattr $C$DW$136, DW_AT_TI_call
     969 000254 6C00          CALL #_MMC_getCardCsd ; |384| 
         000256 0000!
     970                                                      ; call occurs [#_MMC_getCardCsd] ; |384| 
     971 000258 C406          MOV T0, *SP(#3) ; |384| 
     972                      .dwpsn  file "../c5535_bsl_revc/ezdsp5535_v1/c55xx_csl/ccs_v4.0_examples/mmc_sd/CSL_MMCSD_MmcCardExam
     973 00025a 2249          MOV T0, AR1
     974 00025c 0409          BCC $C$L16,AR1 == #0 ; |385| 
         00025e 12   
     975                                                      ; branchcc occurs ; |385| 
     976                      .dwpsn  file "../c5535_bsl_revc/ezdsp5535_v1/c55xx_csl/ccs_v4.0_examples/mmc_sd/CSL_MMCSD_MmcCardExam
     977 00025f EC31          AMOV #$C$FSL15, XAR3 ; |387| 
         000261 BE00 
         000263 0196+
     978 000265 EB00          MOV XAR3, dbl(*SP(#0))
         000267 B5   
     979              $C$DW$137       .dwtag  DW_TAG_TI_branch
TMS320C55x Assembler PC v4.4.1 Sat Sep 29 23:09:03 2018

Tools Copyright (c) 1996-2012 Texas Instruments Incorporated
csl_mmcsd_MmcCardExample.asm                                         PAGE   22

     980                      .dwattr $C$DW$137, DW_AT_low_pc(0x00)
     981                      .dwattr $C$DW$137, DW_AT_name("_printf")
     982                      .dwattr $C$DW$137, DW_AT_TI_call
     983 000268 6C00          CALL #_printf ; |387| 
         00026a 0000!
     984                                                      ; call occurs [#_printf] ; |387| 
     985                      .dwpsn  file "../c5535_bsl_revc/ezdsp5535_v1/c55xx_csl/ccs_v4.0_examples/mmc_sd/CSL_MMCSD_MmcCardExam
     986 00026c A406          MOV *SP(#3), T0 ; |388| 
     987 00026e 0603          B $C$L42  ; |388| 
         000270 E0   
     988                                                      ; branch occurs ; |388| 
     989 000271       $C$L16:    
     990                      .dwpsn  file "../c5535_bsl_revc/ezdsp5535_v1/c55xx_csl/ccs_v4.0_examples/mmc_sd/CSL_MMCSD_MmcCardExam
     991 000271 EC31          AMOV #_mmcCardObj, XAR0 ; |392| 
         000273 8E00 
         000275 0042-
     992              $C$DW$138       .dwtag  DW_TAG_TI_branch
     993                      .dwattr $C$DW$138, DW_AT_low_pc(0x00)
     994                      .dwattr $C$DW$138, DW_AT_name("_MMC_setCardType")
     995                      .dwattr $C$DW$138, DW_AT_TI_call
     996              
     997 000277 6C00          CALL #_MMC_setCardType ; |392| 
         000279 0000!
     998 00027b 3D24  ||      MOV #2, T0
     999              
    1000                                                      ; call occurs [#_MMC_setCardType] ; |392| 
    1001 00027d C406          MOV T0, *SP(#3) ; |392| 
    1002                      .dwpsn  file "../c5535_bsl_revc/ezdsp5535_v1/c55xx_csl/ccs_v4.0_examples/mmc_sd/CSL_MMCSD_MmcCardExam
    1003 00027f 2249          MOV T0, AR1
    1004 000281 0409          BCC $C$L17,AR1 == #0 ; |393| 
         000283 12   
    1005                                                      ; branchcc occurs ; |393| 
    1006                      .dwpsn  file "../c5535_bsl_revc/ezdsp5535_v1/c55xx_csl/ccs_v4.0_examples/mmc_sd/CSL_MMCSD_MmcCardExam
    1007 000284 EC31          AMOV #$C$FSL16, XAR3 ; |395| 
         000286 BE00 
         000288 01B2+
    1008 00028a EB00          MOV XAR3, dbl(*SP(#0))
         00028c B5   
    1009              $C$DW$139       .dwtag  DW_TAG_TI_branch
    1010                      .dwattr $C$DW$139, DW_AT_low_pc(0x00)
    1011                      .dwattr $C$DW$139, DW_AT_name("_printf")
    1012                      .dwattr $C$DW$139, DW_AT_TI_call
    1013 00028d 6C00          CALL #_printf ; |395| 
         00028f 0000!
    1014                                                      ; call occurs [#_printf] ; |395| 
    1015                      .dwpsn  file "../c5535_bsl_revc/ezdsp5535_v1/c55xx_csl/ccs_v4.0_examples/mmc_sd/CSL_MMCSD_MmcCardExam
    1016 000291 A406          MOV *SP(#3), T0 ; |396| 
    1017 000293 0603          B $C$L42  ; |396| 
         000295 BB   
    1018                                                      ; branch occurs ; |396| 
    1019 000296       $C$L17:    
    1020                      .dwpsn  file "../c5535_bsl_revc/ezdsp5535_v1/c55xx_csl/ccs_v4.0_examples/mmc_sd/CSL_MMCSD_MmcCardExam
    1021 000296 ED31          MOV dbl(*(#_mmcsdHandle)), XAR0
         000298 8F00 
         00029a 0040-
TMS320C55x Assembler PC v4.4.1 Sat Sep 29 23:09:03 2018

Tools Copyright (c) 1996-2012 Texas Instruments Incorporated
csl_mmcsd_MmcCardExample.asm                                         PAGE   23

    1022 00029c EC31          AMOV #_mmcCardObj, XAR1 ; |400| 
         00029e 9E00 
         0002a0 0042-
    1023              $C$DW$140       .dwtag  DW_TAG_TI_branch
    1024                      .dwattr $C$DW$140, DW_AT_low_pc(0x00)
    1025                      .dwattr $C$DW$140, DW_AT_name("_MMC_setCardPtr")
    1026                      .dwattr $C$DW$140, DW_AT_TI_call
    1027 0002a2 6C00          CALL #_MMC_setCardPtr ; |400| 
         0002a4 0000!
    1028                                                      ; call occurs [#_MMC_setCardPtr] ; |400| 
    1029 0002a6 C406          MOV T0, *SP(#3) ; |400| 
    1030                      .dwpsn  file "../c5535_bsl_revc/ezdsp5535_v1/c55xx_csl/ccs_v4.0_examples/mmc_sd/CSL_MMCSD_MmcCardExam
    1031 0002a8 2249          MOV T0, AR1
    1032 0002aa 0409          BCC $C$L18,AR1 == #0 ; |401| 
         0002ac 12   
    1033                                                      ; branchcc occurs ; |401| 
    1034                      .dwpsn  file "../c5535_bsl_revc/ezdsp5535_v1/c55xx_csl/ccs_v4.0_examples/mmc_sd/CSL_MMCSD_MmcCardExam
    1035 0002ad EC31          AMOV #$C$FSL17, XAR3 ; |403| 
         0002af BE00 
         0002b1 01D0+
    1036 0002b3 EB00          MOV XAR3, dbl(*SP(#0))
         0002b5 B5   
    1037              $C$DW$141       .dwtag  DW_TAG_TI_branch
    1038                      .dwattr $C$DW$141, DW_AT_low_pc(0x00)
    1039                      .dwattr $C$DW$141, DW_AT_name("_printf")
    1040                      .dwattr $C$DW$141, DW_AT_TI_call
    1041 0002b6 6C00          CALL #_printf ; |403| 
         0002b8 0000!
    1042                                                      ; call occurs [#_printf] ; |403| 
    1043                      .dwpsn  file "../c5535_bsl_revc/ezdsp5535_v1/c55xx_csl/ccs_v4.0_examples/mmc_sd/CSL_MMCSD_MmcCardExam
    1044 0002ba A406          MOV *SP(#3), T0 ; |404| 
    1045 0002bc 0603          B $C$L42  ; |404| 
         0002be 92   
    1046                                                      ; branch occurs ; |404| 
    1047 0002bf       $C$L18:    
    1048                      .dwpsn  file "../c5535_bsl_revc/ezdsp5535_v1/c55xx_csl/ccs_v4.0_examples/mmc_sd/CSL_MMCSD_MmcCardExam
    1049 0002bf EC0A          AMAR *SP(#5), XAR1
         0002c1 9E   
    1050 0002c2 ED31          MOV dbl(*(#_mmcsdHandle)), XAR0
         0002c4 8F00 
         0002c6 0040-
    1051              $C$DW$142       .dwtag  DW_TAG_TI_branch
    1052                      .dwattr $C$DW$142, DW_AT_low_pc(0x00)
    1053                      .dwattr $C$DW$142, DW_AT_name("_MMC_getNumberOfCards")
    1054                      .dwattr $C$DW$142, DW_AT_TI_call
    1055 0002c8 6C00          CALL #_MMC_getNumberOfCards ; |408| 
         0002ca 0000!
    1056                                                      ; call occurs [#_MMC_getNumberOfCards] ; |408| 
    1057 0002cc C406          MOV T0, *SP(#3) ; |408| 
    1058                      .dwpsn  file "../c5535_bsl_revc/ezdsp5535_v1/c55xx_csl/ccs_v4.0_examples/mmc_sd/CSL_MMCSD_MmcCardExam
    1059 0002ce 2249          MOV T0, AR1
    1060 0002d0 0409          BCC $C$L19,AR1 == #0 ; |409| 
         0002d2 12   
    1061                                                      ; branchcc occurs ; |409| 
    1062                      .dwpsn  file "../c5535_bsl_revc/ezdsp5535_v1/c55xx_csl/ccs_v4.0_examples/mmc_sd/CSL_MMCSD_MmcCardExam
TMS320C55x Assembler PC v4.4.1 Sat Sep 29 23:09:03 2018

Tools Copyright (c) 1996-2012 Texas Instruments Incorporated
csl_mmcsd_MmcCardExample.asm                                         PAGE   24

    1063 0002d3 EC31          AMOV #$C$FSL18, XAR3 ; |411| 
         0002d5 BE00 
         0002d7 01EC+
    1064 0002d9 EB00          MOV XAR3, dbl(*SP(#0))
         0002db B5   
    1065              $C$DW$143       .dwtag  DW_TAG_TI_branch
    1066                      .dwattr $C$DW$143, DW_AT_low_pc(0x00)
    1067                      .dwattr $C$DW$143, DW_AT_name("_printf")
    1068                      .dwattr $C$DW$143, DW_AT_TI_call
    1069 0002dc 6C00          CALL #_printf ; |411| 
         0002de 0000!
    1070                                                      ; call occurs [#_printf] ; |411| 
    1071                      .dwpsn  file "../c5535_bsl_revc/ezdsp5535_v1/c55xx_csl/ccs_v4.0_examples/mmc_sd/CSL_MMCSD_MmcCardExam
    1072 0002e0 A406          MOV *SP(#3), T0 ; |412| 
    1073 0002e2 0603          B $C$L42  ; |412| 
         0002e4 6C   
    1074                                                      ; branch occurs ; |412| 
    1075 0002e5       $C$L19:    
    1076                      .dwpsn  file "../c5535_bsl_revc/ezdsp5535_v1/c55xx_csl/ccs_v4.0_examples/mmc_sd/CSL_MMCSD_MmcCardExam
    1077 0002e5 A40C          MOV *SP(#6), T0 ; |416| 
    1078 0002e7 ED31          MOV dbl(*(#_mmcsdHandle)), XAR0
         0002e9 8F00 
         0002eb 0040-
    1079              $C$DW$144       .dwtag  DW_TAG_TI_branch
    1080                      .dwattr $C$DW$144, DW_AT_low_pc(0x00)
    1081                      .dwattr $C$DW$144, DW_AT_name("_MMC_sendOpCond")
    1082                      .dwattr $C$DW$144, DW_AT_TI_call
    1083 0002ed 6C00          CALL #_MMC_sendOpCond ; |416| 
         0002ef 0000!
    1084                                                      ; call occurs [#_MMC_sendOpCond] ; |416| 
    1085 0002f1 C406          MOV T0, *SP(#3) ; |416| 
    1086                      .dwpsn  file "../c5535_bsl_revc/ezdsp5535_v1/c55xx_csl/ccs_v4.0_examples/mmc_sd/CSL_MMCSD_MmcCardExam
    1087 0002f3 2249          MOV T0, AR1
    1088 0002f5 0409          BCC $C$L20,AR1 == #0 ; |417| 
         0002f7 12   
    1089                                                      ; branchcc occurs ; |417| 
    1090                      .dwpsn  file "../c5535_bsl_revc/ezdsp5535_v1/c55xx_csl/ccs_v4.0_examples/mmc_sd/CSL_MMCSD_MmcCardExam
    1091 0002f8 EC31          AMOV #$C$FSL19, XAR3 ; |419| 
         0002fa BE00 
         0002fc 020E+
    1092 0002fe EB00          MOV XAR3, dbl(*SP(#0))
         000300 B5   
    1093              $C$DW$145       .dwtag  DW_TAG_TI_branch
    1094                      .dwattr $C$DW$145, DW_AT_low_pc(0x00)
    1095                      .dwattr $C$DW$145, DW_AT_name("_printf")
    1096                      .dwattr $C$DW$145, DW_AT_TI_call
    1097 000301 6C00          CALL #_printf ; |419| 
         000303 0000!
    1098                                                      ; call occurs [#_printf] ; |419| 
    1099                      .dwpsn  file "../c5535_bsl_revc/ezdsp5535_v1/c55xx_csl/ccs_v4.0_examples/mmc_sd/CSL_MMCSD_MmcCardExam
    1100 000305 A406          MOV *SP(#3), T0 ; |420| 
    1101 000307 0603          B $C$L42  ; |420| 
         000309 47   
    1102                                                      ; branch occurs ; |420| 
    1103 00030a       $C$L20:    
TMS320C55x Assembler PC v4.4.1 Sat Sep 29 23:09:03 2018

Tools Copyright (c) 1996-2012 Texas Instruments Incorporated
csl_mmcsd_MmcCardExample.asm                                         PAGE   25

    1104                      .dwpsn  file "../c5535_bsl_revc/ezdsp5535_v1/c55xx_csl/ccs_v4.0_examples/mmc_sd/CSL_MMCSD_MmcCardExam
    1105 00030a ED31          MOV dbl(*(#_mmcsdHandle)), XAR0
         00030c 8F00 
         00030e 0040-
    1106 000310 3C04          MOV #0, T0
    1107              $C$DW$146       .dwtag  DW_TAG_TI_branch
    1108                      .dwattr $C$DW$146, DW_AT_low_pc(0x00)
    1109                      .dwattr $C$DW$146, DW_AT_name("_MMC_setEndianMode")
    1110                      .dwattr $C$DW$146, DW_AT_TI_call
    1111              
    1112 000312 6C00          CALL #_MMC_setEndianMode ; |424| 
         000314 0000!
    1113 000316 3D05  ||      MOV #0, T1
    1114              
    1115                                                      ; call occurs [#_MMC_setEndianMode] ; |424| 
    1116 000318 C406          MOV T0, *SP(#3) ; |424| 
    1117                      .dwpsn  file "../c5535_bsl_revc/ezdsp5535_v1/c55xx_csl/ccs_v4.0_examples/mmc_sd/CSL_MMCSD_MmcCardExam
    1118 00031a 2249          MOV T0, AR1
    1119 00031c 0409          BCC $C$L21,AR1 == #0 ; |426| 
         00031e 12   
    1120                                                      ; branchcc occurs ; |426| 
    1121                      .dwpsn  file "../c5535_bsl_revc/ezdsp5535_v1/c55xx_csl/ccs_v4.0_examples/mmc_sd/CSL_MMCSD_MmcCardExam
    1122 00031f EC31          AMOV #$C$FSL20, XAR3 ; |428| 
         000321 BE00 
         000323 022A+
    1123 000325 EB00          MOV XAR3, dbl(*SP(#0))
         000327 B5   
    1124              $C$DW$147       .dwtag  DW_TAG_TI_branch
    1125                      .dwattr $C$DW$147, DW_AT_low_pc(0x00)
    1126                      .dwattr $C$DW$147, DW_AT_name("_printf")
    1127                      .dwattr $C$DW$147, DW_AT_TI_call
    1128 000328 6C00          CALL #_printf ; |428| 
         00032a 0000!
    1129                                                      ; call occurs [#_printf] ; |428| 
    1130                      .dwpsn  file "../c5535_bsl_revc/ezdsp5535_v1/c55xx_csl/ccs_v4.0_examples/mmc_sd/CSL_MMCSD_MmcCardExam
    1131 00032c A406          MOV *SP(#3), T0 ; |429| 
    1132 00032e 0603          B $C$L42  ; |429| 
         000330 20   
    1133                                                      ; branch occurs ; |429| 
    1134 000331       $C$L21:    
    1135                      .dwpsn  file "../c5535_bsl_revc/ezdsp5535_v1/c55xx_csl/ccs_v4.0_examples/mmc_sd/CSL_MMCSD_MmcCardExam
    1136 000331 ED31          MOV dbl(*(#_mmcsdHandle)), XAR0
         000333 8F00 
         000335 0040-
    1137 000337 7602          MOV #512, AC0 ; |436| 
         000339 0008 
    1138              $C$DW$148       .dwtag  DW_TAG_TI_branch
    1139                      .dwattr $C$DW$148, DW_AT_low_pc(0x00)
    1140                      .dwattr $C$DW$148, DW_AT_name("_MMC_setBlockLength")
    1141                      .dwattr $C$DW$148, DW_AT_TI_call
    1142 00033b 6C00          CALL #_MMC_setBlockLength ; |436| 
         00033d 0000!
    1143                                                      ; call occurs [#_MMC_setBlockLength] ; |436| 
    1144 00033f C406          MOV T0, *SP(#3) ; |436| 
    1145                      .dwpsn  file "../c5535_bsl_revc/ezdsp5535_v1/c55xx_csl/ccs_v4.0_examples/mmc_sd/CSL_MMCSD_MmcCardExam
TMS320C55x Assembler PC v4.4.1 Sat Sep 29 23:09:03 2018

Tools Copyright (c) 1996-2012 Texas Instruments Incorporated
csl_mmcsd_MmcCardExample.asm                                         PAGE   26

    1146 000341 2249          MOV T0, AR1
    1147 000343 0409          BCC $C$L22,AR1 == #0 ; |437| 
         000345 12   
    1148                                                      ; branchcc occurs ; |437| 
    1149                      .dwpsn  file "../c5535_bsl_revc/ezdsp5535_v1/c55xx_csl/ccs_v4.0_examples/mmc_sd/CSL_MMCSD_MmcCardExam
    1150 000346 EC31          AMOV #$C$FSL21, XAR3 ; |439| 
         000348 BE00 
         00034a 024A+
    1151 00034c EB00          MOV XAR3, dbl(*SP(#0))
         00034e B5   
    1152              $C$DW$149       .dwtag  DW_TAG_TI_branch
    1153                      .dwattr $C$DW$149, DW_AT_low_pc(0x00)
    1154                      .dwattr $C$DW$149, DW_AT_name("_printf")
    1155                      .dwattr $C$DW$149, DW_AT_TI_call
    1156 00034f 6C00          CALL #_printf ; |439| 
         000351 0000!
    1157                                                      ; call occurs [#_printf] ; |439| 
    1158                      .dwpsn  file "../c5535_bsl_revc/ezdsp5535_v1/c55xx_csl/ccs_v4.0_examples/mmc_sd/CSL_MMCSD_MmcCardExam
    1159 000353 A406          MOV *SP(#3), T0 ; |440| 
    1160 000355 0602          B $C$L42  ; |440| 
         000357 F9   
    1161                                                      ; branch occurs ; |440| 
    1162 000358       $C$L22:    
    1163                      .dwpsn  file "../c5535_bsl_revc/ezdsp5535_v1/c55xx_csl/ccs_v4.0_examples/mmc_sd/CSL_MMCSD_MmcCardExam
    1164 000358 ED31          MOV dbl(*(#_mmcsdHandle)), XAR0
         00035a 8F00 
         00035c 0040-
    1165 00035e EC31          AMOV #_gMmcWriteBuff, XAR1 ; |444| 
         000360 9E00 
         000362 01B8-
    1166 000364 7602          MOV #512, T0 ; |444| 
         000366 0048 
    1167              $C$DW$150       .dwtag  DW_TAG_TI_branch
    1168                      .dwattr $C$DW$150, DW_AT_low_pc(0x00)
    1169                      .dwattr $C$DW$150, DW_AT_name("_MMC_write")
    1170                      .dwattr $C$DW$150, DW_AT_TI_call
    1171              
    1172 000368 6C00          CALL #_MMC_write ; |444| 
         00036a 0000!
    1173 00036c 3D00  ||      MOV #0, AC0 ; |444| 
    1174              
    1175                                                      ; call occurs [#_MMC_write] ; |444| 
    1176 00036e C406          MOV T0, *SP(#3) ; |444| 
    1177                      .dwpsn  file "../c5535_bsl_revc/ezdsp5535_v1/c55xx_csl/ccs_v4.0_examples/mmc_sd/CSL_MMCSD_MmcCardExam
    1178 000370 2249          MOV T0, AR1
    1179 000372 0409          BCC $C$L23,AR1 == #0 ; |446| 
         000374 12   
    1180                                                      ; branchcc occurs ; |446| 
    1181                      .dwpsn  file "../c5535_bsl_revc/ezdsp5535_v1/c55xx_csl/ccs_v4.0_examples/mmc_sd/CSL_MMCSD_MmcCardExam
    1182 000375 EC31          AMOV #$C$FSL22, XAR3 ; |448| 
         000377 BE00 
         000379 026A+
    1183 00037b EB00          MOV XAR3, dbl(*SP(#0))
         00037d B5   
    1184              $C$DW$151       .dwtag  DW_TAG_TI_branch
TMS320C55x Assembler PC v4.4.1 Sat Sep 29 23:09:03 2018

Tools Copyright (c) 1996-2012 Texas Instruments Incorporated
csl_mmcsd_MmcCardExample.asm                                         PAGE   27

    1185                      .dwattr $C$DW$151, DW_AT_low_pc(0x00)
    1186                      .dwattr $C$DW$151, DW_AT_name("_printf")
    1187                      .dwattr $C$DW$151, DW_AT_TI_call
    1188 00037e 6C00          CALL #_printf ; |448| 
         000380 0000!
    1189                                                      ; call occurs [#_printf] ; |448| 
    1190                      .dwpsn  file "../c5535_bsl_revc/ezdsp5535_v1/c55xx_csl/ccs_v4.0_examples/mmc_sd/CSL_MMCSD_MmcCardExam
    1191 000382 A406          MOV *SP(#3), T0 ; |449| 
    1192 000384 0602          B $C$L42  ; |449| 
         000386 CA   
    1193                                                      ; branch occurs ; |449| 
    1194 000387       $C$L23:    
    1195                      .dwpsn  file "../c5535_bsl_revc/ezdsp5535_v1/c55xx_csl/ccs_v4.0_examples/mmc_sd/CSL_MMCSD_MmcCardExam
    1196 000387 EC31          AMOV #$C$FSL23, XAR3 ; |453| 
         000389 BE00 
         00038b 0282+
    1197 00038d EB00          MOV XAR3, dbl(*SP(#0))
         00038f B5   
    1198              $C$DW$152       .dwtag  DW_TAG_TI_branch
    1199                      .dwattr $C$DW$152, DW_AT_low_pc(0x00)
    1200                      .dwattr $C$DW$152, DW_AT_name("_printf")
    1201                      .dwattr $C$DW$152, DW_AT_TI_call
    1202 000390 6C00          CALL #_printf ; |453| 
         000392 0000!
    1203                                                      ; call occurs [#_printf] ; |453| 
    1204                      .dwpsn  file "../c5535_bsl_revc/ezdsp5535_v1/c55xx_csl/ccs_v4.0_examples/mmc_sd/CSL_MMCSD_MmcCardExam
    1205 000394 7602          MOV #512, T0 ; |457| 
         000396 0048 
    1206 000398 EC31          AMOV #_gMmcReadBuff, XAR1 ; |457| 
         00039a 9E00 
         00039c 00B8-
    1207 00039e ED31          MOV dbl(*(#_mmcsdHandle)), XAR0
         0003a0 8F00 
         0003a2 0040-
    1208              $C$DW$153       .dwtag  DW_TAG_TI_branch
    1209                      .dwattr $C$DW$153, DW_AT_low_pc(0x00)
    1210                      .dwattr $C$DW$153, DW_AT_name("_MMC_read")
    1211                      .dwattr $C$DW$153, DW_AT_TI_call
    1212              
    1213 0003a4 6C00          CALL #_MMC_read ; |457| 
         0003a6 0000!
    1214 0003a8 3D00  ||      MOV #0, AC0 ; |457| 
    1215              
    1216                                                      ; call occurs [#_MMC_read] ; |457| 
    1217 0003aa C406          MOV T0, *SP(#3) ; |457| 
    1218                      .dwpsn  file "../c5535_bsl_revc/ezdsp5535_v1/c55xx_csl/ccs_v4.0_examples/mmc_sd/CSL_MMCSD_MmcCardExam
    1219 0003ac 2249          MOV T0, AR1
    1220 0003ae 0409          BCC $C$L24,AR1 == #0 ; |459| 
         0003b0 12   
    1221                                                      ; branchcc occurs ; |459| 
    1222                      .dwpsn  file "../c5535_bsl_revc/ezdsp5535_v1/c55xx_csl/ccs_v4.0_examples/mmc_sd/CSL_MMCSD_MmcCardExam
    1223 0003b1 EC31          AMOV #$C$FSL24, XAR3 ; |461| 
         0003b3 BE00 
         0003b5 029E+
    1224 0003b7 EB00          MOV XAR3, dbl(*SP(#0))
TMS320C55x Assembler PC v4.4.1 Sat Sep 29 23:09:03 2018

Tools Copyright (c) 1996-2012 Texas Instruments Incorporated
csl_mmcsd_MmcCardExample.asm                                         PAGE   28

         0003b9 B5   
    1225              $C$DW$154       .dwtag  DW_TAG_TI_branch
    1226                      .dwattr $C$DW$154, DW_AT_low_pc(0x00)
    1227                      .dwattr $C$DW$154, DW_AT_name("_printf")
    1228                      .dwattr $C$DW$154, DW_AT_TI_call
    1229 0003ba 6C00          CALL #_printf ; |461| 
         0003bc 0000!
    1230                                                      ; call occurs [#_printf] ; |461| 
    1231                      .dwpsn  file "../c5535_bsl_revc/ezdsp5535_v1/c55xx_csl/ccs_v4.0_examples/mmc_sd/CSL_MMCSD_MmcCardExam
    1232 0003be A406          MOV *SP(#3), T0 ; |462| 
    1233 0003c0 0602          B $C$L42  ; |462| 
         0003c2 8E   
    1234                                                      ; branch occurs ; |462| 
    1235 0003c3       $C$L24:    
    1236                      .dwpsn  file "../c5535_bsl_revc/ezdsp5535_v1/c55xx_csl/ccs_v4.0_examples/mmc_sd/CSL_MMCSD_MmcCardExam
    1237 0003c3 EC31          AMOV #$C$FSL25, XAR3 ; |466| 
         0003c5 BE00 
         0003c7 02B4+
    1238 0003c9 EB00          MOV XAR3, dbl(*SP(#0))
         0003cb B5   
    1239              $C$DW$155       .dwtag  DW_TAG_TI_branch
    1240                      .dwattr $C$DW$155, DW_AT_low_pc(0x00)
    1241                      .dwattr $C$DW$155, DW_AT_name("_printf")
    1242                      .dwattr $C$DW$155, DW_AT_TI_call
    1243 0003cc 6C00          CALL #_printf ; |466| 
         0003ce 0000!
    1244                                                      ; call occurs [#_printf] ; |466| 
    1245                      .dwpsn  file "../c5535_bsl_revc/ezdsp5535_v1/c55xx_csl/ccs_v4.0_examples/mmc_sd/CSL_MMCSD_MmcCardExam
    1246 0003d0 EC31          AMOV #_mmcCardObj, XAR1 ; |470| 
         0003d2 9E00 
         0003d4 0042-
    1247 0003d6 ED31          MOV dbl(*(#_mmcsdHandle)), XAR0
         0003d8 8F00 
         0003da 0040-
    1248              $C$DW$156       .dwtag  DW_TAG_TI_branch
    1249                      .dwattr $C$DW$156, DW_AT_low_pc(0x00)
    1250                      .dwattr $C$DW$156, DW_AT_name("_MMC_deselectCard")
    1251                      .dwattr $C$DW$156, DW_AT_TI_call
    1252 0003dc 6C00          CALL #_MMC_deselectCard ; |470| 
         0003de 0000!
    1253                                                      ; call occurs [#_MMC_deselectCard] ; |470| 
    1254 0003e0 C406          MOV T0, *SP(#3) ; |470| 
    1255                      .dwpsn  file "../c5535_bsl_revc/ezdsp5535_v1/c55xx_csl/ccs_v4.0_examples/mmc_sd/CSL_MMCSD_MmcCardExam
    1256 0003e2 2249          MOV T0, AR1
    1257 0003e4 0409          BCC $C$L25,AR1 == #0 ; |471| 
         0003e6 12   
    1258                                                      ; branchcc occurs ; |471| 
    1259                      .dwpsn  file "../c5535_bsl_revc/ezdsp5535_v1/c55xx_csl/ccs_v4.0_examples/mmc_sd/CSL_MMCSD_MmcCardExam
    1260 0003e7 EC31          AMOV #$C$FSL26, XAR3 ; |473| 
         0003e9 BE00 
         0003eb 02CE+
    1261 0003ed EB00          MOV XAR3, dbl(*SP(#0))
         0003ef B5   
    1262              $C$DW$157       .dwtag  DW_TAG_TI_branch
    1263                      .dwattr $C$DW$157, DW_AT_low_pc(0x00)
TMS320C55x Assembler PC v4.4.1 Sat Sep 29 23:09:03 2018

Tools Copyright (c) 1996-2012 Texas Instruments Incorporated
csl_mmcsd_MmcCardExample.asm                                         PAGE   29

    1264                      .dwattr $C$DW$157, DW_AT_name("_printf")
    1265                      .dwattr $C$DW$157, DW_AT_TI_call
    1266 0003f0 6C00          CALL #_printf ; |473| 
         0003f2 0000!
    1267                                                      ; call occurs [#_printf] ; |473| 
    1268                      .dwpsn  file "../c5535_bsl_revc/ezdsp5535_v1/c55xx_csl/ccs_v4.0_examples/mmc_sd/CSL_MMCSD_MmcCardExam
    1269 0003f4 A406          MOV *SP(#3), T0 ; |474| 
    1270 0003f6 0602          B $C$L42  ; |474| 
         0003f8 58   
    1271                                                      ; branch occurs ; |474| 
    1272 0003f9       $C$L25:    
    1273                      .dwpsn  file "../c5535_bsl_revc/ezdsp5535_v1/c55xx_csl/ccs_v4.0_examples/mmc_sd/CSL_MMCSD_MmcCardExam
    1274 0003f9 ED31          MOV dbl(*(#_mmcsdHandle)), XAR0
         0003fb 8F00 
         0003fd 0040-
    1275              $C$DW$158       .dwtag  DW_TAG_TI_branch
    1276                      .dwattr $C$DW$158, DW_AT_low_pc(0x00)
    1277                      .dwattr $C$DW$158, DW_AT_name("_MMC_saveStatus")
    1278                      .dwattr $C$DW$158, DW_AT_TI_call
    1279 0003ff 6C00          CALL #_MMC_saveStatus ; |481| 
         000401 0000!
    1280                                                      ; call occurs [#_MMC_saveStatus] ; |481| 
    1281 000403 C406          MOV T0, *SP(#3) ; |481| 
    1282                      .dwpsn  file "../c5535_bsl_revc/ezdsp5535_v1/c55xx_csl/ccs_v4.0_examples/mmc_sd/CSL_MMCSD_MmcCardExam
    1283 000405 2249          MOV T0, AR1
    1284 000407 0409          BCC $C$L26,AR1 == #0 ; |482| 
         000409 12   
    1285                                                      ; branchcc occurs ; |482| 
    1286                      .dwpsn  file "../c5535_bsl_revc/ezdsp5535_v1/c55xx_csl/ccs_v4.0_examples/mmc_sd/CSL_MMCSD_MmcCardExam
    1287 00040a EC31          AMOV #$C$FSL27, XAR3 ; |484| 
         00040c BE00 
         00040e 02EC+
    1288 000410 EB00          MOV XAR3, dbl(*SP(#0))
         000412 B5   
    1289              $C$DW$159       .dwtag  DW_TAG_TI_branch
    1290                      .dwattr $C$DW$159, DW_AT_low_pc(0x00)
    1291                      .dwattr $C$DW$159, DW_AT_name("_printf")
    1292                      .dwattr $C$DW$159, DW_AT_TI_call
    1293 000413 6C00          CALL #_printf ; |484| 
         000415 0000!
    1294                                                      ; call occurs [#_printf] ; |484| 
    1295                      .dwpsn  file "../c5535_bsl_revc/ezdsp5535_v1/c55xx_csl/ccs_v4.0_examples/mmc_sd/CSL_MMCSD_MmcCardExam
    1296 000417 A406          MOV *SP(#3), T0 ; |485| 
    1297 000419 0602          B $C$L42  ; |485| 
         00041b 35   
    1298                                                      ; branch occurs ; |485| 
    1299 00041c       $C$L26:    
    1300                      .dwpsn  file "../c5535_bsl_revc/ezdsp5535_v1/c55xx_csl/ccs_v4.0_examples/mmc_sd/CSL_MMCSD_MmcCardExam
    1301 00041c 76FF          MOV #65535, AR1 ; |489| 
         00041e FF98 
    1302 000420 7DFF          AND #0xffff, AR1, AC0 ; |489| 
         000422 FF09 
    1303 000424 ED31          MOV dbl(*(#_mmcsdHandle)), XAR0
         000426 8F00 
         000428 0040-
TMS320C55x Assembler PC v4.4.1 Sat Sep 29 23:09:03 2018

Tools Copyright (c) 1996-2012 Texas Instruments Incorporated
csl_mmcsd_MmcCardExample.asm                                         PAGE   30

    1304 00042a EC06          AMAR *SP(#3), XAR1
         00042c 9E   
    1305              $C$DW$160       .dwtag  DW_TAG_TI_branch
    1306                      .dwattr $C$DW$160, DW_AT_low_pc(0x00)
    1307                      .dwattr $C$DW$160, DW_AT_name("_MMC_getStatus")
    1308                      .dwattr $C$DW$160, DW_AT_TI_call
    1309 00042d 6C00          CALL #_MMC_getStatus ; |489| 
         00042f 0000!
    1310                                                      ; call occurs [#_MMC_getStatus] ; |489| 
    1311                      .dwpsn  file "../c5535_bsl_revc/ezdsp5535_v1/c55xx_csl/ccs_v4.0_examples/mmc_sd/CSL_MMCSD_MmcCardExam
    1312 000431 A906          MOV *SP(#3), AR1 ; |490| 
    1313 000433 0409          BCC $C$L27,AR1 == #0 ; |490| 
         000435 12   
    1314                                                      ; branchcc occurs ; |490| 
    1315                      .dwpsn  file "../c5535_bsl_revc/ezdsp5535_v1/c55xx_csl/ccs_v4.0_examples/mmc_sd/CSL_MMCSD_MmcCardExam
    1316 000436 EC31          AMOV #$C$FSL28, XAR3 ; |492| 
         000438 BE00 
         00043a 0308+
    1317 00043c EB00          MOV XAR3, dbl(*SP(#0))
         00043e B5   
    1318              $C$DW$161       .dwtag  DW_TAG_TI_branch
    1319                      .dwattr $C$DW$161, DW_AT_low_pc(0x00)
    1320                      .dwattr $C$DW$161, DW_AT_name("_printf")
    1321                      .dwattr $C$DW$161, DW_AT_TI_call
    1322 00043f 6C00          CALL #_printf ; |492| 
         000441 0000!
    1323                                                      ; call occurs [#_printf] ; |492| 
    1324                      .dwpsn  file "../c5535_bsl_revc/ezdsp5535_v1/c55xx_csl/ccs_v4.0_examples/mmc_sd/CSL_MMCSD_MmcCardExam
    1325 000443 A406          MOV *SP(#3), T0 ; |493| 
    1326 000445 0602          B $C$L42  ; |493| 
         000447 09   
    1327                                                      ; branch occurs ; |493| 
    1328 000448       $C$L27:    
    1329                      .dwpsn  file "../c5535_bsl_revc/ezdsp5535_v1/c55xx_csl/ccs_v4.0_examples/mmc_sd/CSL_MMCSD_MmcCardExam
    1330 000448 ED31          MOV dbl(*(#_mmcsdHandle)), XAR0
         00044a 8F00 
         00044c 0040-
    1331 00044e EC31          AMOV #_mmcConfig, XAR1 ; |497| 
         000450 9E00 
         000452 00AA-
    1332              $C$DW$162       .dwtag  DW_TAG_TI_branch
    1333                      .dwattr $C$DW$162, DW_AT_low_pc(0x00)
    1334                      .dwattr $C$DW$162, DW_AT_name("_MMC_config")
    1335                      .dwattr $C$DW$162, DW_AT_TI_call
    1336 000454 6C00          CALL #_MMC_config ; |497| 
         000456 0000!
    1337                                                      ; call occurs [#_MMC_config] ; |497| 
    1338 000458 C406          MOV T0, *SP(#3) ; |497| 
    1339                      .dwpsn  file "../c5535_bsl_revc/ezdsp5535_v1/c55xx_csl/ccs_v4.0_examples/mmc_sd/CSL_MMCSD_MmcCardExam
    1340 00045a 2249          MOV T0, AR1
    1341 00045c 0409          BCC $C$L28,AR1 == #0 ; |498| 
         00045e 12   
    1342                                                      ; branchcc occurs ; |498| 
    1343                      .dwpsn  file "../c5535_bsl_revc/ezdsp5535_v1/c55xx_csl/ccs_v4.0_examples/mmc_sd/CSL_MMCSD_MmcCardExam
    1344 00045f EC31          AMOV #$C$FSL29, XAR3 ; |500| 
TMS320C55x Assembler PC v4.4.1 Sat Sep 29 23:09:03 2018

Tools Copyright (c) 1996-2012 Texas Instruments Incorporated
csl_mmcsd_MmcCardExample.asm                                         PAGE   31

         000461 BE00 
         000463 0324+
    1345 000465 EB00          MOV XAR3, dbl(*SP(#0))
         000467 B5   
    1346              $C$DW$163       .dwtag  DW_TAG_TI_branch
    1347                      .dwattr $C$DW$163, DW_AT_low_pc(0x00)
    1348                      .dwattr $C$DW$163, DW_AT_name("_printf")
    1349                      .dwattr $C$DW$163, DW_AT_TI_call
    1350 000468 6C00          CALL #_printf ; |500| 
         00046a 0000!
    1351                                                      ; call occurs [#_printf] ; |500| 
    1352                      .dwpsn  file "../c5535_bsl_revc/ezdsp5535_v1/c55xx_csl/ccs_v4.0_examples/mmc_sd/CSL_MMCSD_MmcCardExam
    1353 00046c A406          MOV *SP(#3), T0 ; |501| 
    1354 00046e 0601          B $C$L42  ; |501| 
         000470 E0   
    1355                                                      ; branch occurs ; |501| 
    1356 000471       $C$L28:    
    1357                      .dwpsn  file "../c5535_bsl_revc/ezdsp5535_v1/c55xx_csl/ccs_v4.0_examples/mmc_sd/CSL_MMCSD_MmcCardExam
    1358 000471 ED31          MOV dbl(*(#_mmcsdHandle)), XAR0
         000473 8F00 
         000475 0040-
    1359 000477 EC31          AMOV #_mmcConfig, XAR1 ; |505| 
         000479 9E00 
         00047b 00AA-
    1360              $C$DW$164       .dwtag  DW_TAG_TI_branch
    1361                      .dwattr $C$DW$164, DW_AT_low_pc(0x00)
    1362                      .dwattr $C$DW$164, DW_AT_name("_MMC_getConfig")
    1363                      .dwattr $C$DW$164, DW_AT_TI_call
    1364 00047d 6C00          CALL #_MMC_getConfig ; |505| 
         00047f 0000!
    1365                                                      ; call occurs [#_MMC_getConfig] ; |505| 
    1366 000481 C406          MOV T0, *SP(#3) ; |505| 
    1367                      .dwpsn  file "../c5535_bsl_revc/ezdsp5535_v1/c55xx_csl/ccs_v4.0_examples/mmc_sd/CSL_MMCSD_MmcCardExam
    1368 000483 2249          MOV T0, AR1
    1369 000485 0409          BCC $C$L29,AR1 == #0 ; |506| 
         000487 12   
    1370                                                      ; branchcc occurs ; |506| 
    1371                      .dwpsn  file "../c5535_bsl_revc/ezdsp5535_v1/c55xx_csl/ccs_v4.0_examples/mmc_sd/CSL_MMCSD_MmcCardExam
    1372 000488 EC31          AMOV #$C$FSL30, XAR3 ; |508| 
         00048a BE00 
         00048c 033C+
    1373 00048e EB00          MOV XAR3, dbl(*SP(#0))
         000490 B5   
    1374              $C$DW$165       .dwtag  DW_TAG_TI_branch
    1375                      .dwattr $C$DW$165, DW_AT_low_pc(0x00)
    1376                      .dwattr $C$DW$165, DW_AT_name("_printf")
    1377                      .dwattr $C$DW$165, DW_AT_TI_call
    1378 000491 6C00          CALL #_printf ; |508| 
         000493 0000!
    1379                                                      ; call occurs [#_printf] ; |508| 
    1380                      .dwpsn  file "../c5535_bsl_revc/ezdsp5535_v1/c55xx_csl/ccs_v4.0_examples/mmc_sd/CSL_MMCSD_MmcCardExam
    1381 000495 A406          MOV *SP(#3), T0 ; |509| 
    1382 000497 0601          B $C$L42  ; |509| 
         000499 B7   
    1383                                                      ; branch occurs ; |509| 
TMS320C55x Assembler PC v4.4.1 Sat Sep 29 23:09:03 2018

Tools Copyright (c) 1996-2012 Texas Instruments Incorporated
csl_mmcsd_MmcCardExample.asm                                         PAGE   32

    1384 00049a       $C$L29:    
    1385                      .dwpsn  file "../c5535_bsl_revc/ezdsp5535_v1/c55xx_csl/ccs_v4.0_examples/mmc_sd/CSL_MMCSD_MmcCardExam
    1386 00049a ED31          MOV dbl(*(#_mmcsdHandle)), XAR0
         00049c 8F00 
         00049e 0040-
    1387 0004a0 EC31          AMOV #_setupNative, XAR1 ; |513| 
         0004a2 9E00 
         0004a4 00B1-
    1388              $C$DW$166       .dwtag  DW_TAG_TI_branch
    1389                      .dwattr $C$DW$166, DW_AT_low_pc(0x00)
    1390                      .dwattr $C$DW$166, DW_AT_name("_MMC_setupNative")
    1391                      .dwattr $C$DW$166, DW_AT_TI_call
    1392 0004a6 6C00          CALL #_MMC_setupNative ; |513| 
         0004a8 0000!
    1393                                                      ; call occurs [#_MMC_setupNative] ; |513| 
    1394 0004aa C406          MOV T0, *SP(#3) ; |513| 
    1395                      .dwpsn  file "../c5535_bsl_revc/ezdsp5535_v1/c55xx_csl/ccs_v4.0_examples/mmc_sd/CSL_MMCSD_MmcCardExam
    1396 0004ac 2249          MOV T0, AR1
    1397 0004ae 0409          BCC $C$L30,AR1 == #0 ; |514| 
         0004b0 12   
    1398                                                      ; branchcc occurs ; |514| 
    1399                      .dwpsn  file "../c5535_bsl_revc/ezdsp5535_v1/c55xx_csl/ccs_v4.0_examples/mmc_sd/CSL_MMCSD_MmcCardExam
    1400 0004b1 EC31          AMOV #$C$FSL31, XAR3 ; |516| 
         0004b3 BE00 
         0004b5 0358+
    1401 0004b7 EB00          MOV XAR3, dbl(*SP(#0))
         0004b9 B5   
    1402              $C$DW$167       .dwtag  DW_TAG_TI_branch
    1403                      .dwattr $C$DW$167, DW_AT_low_pc(0x00)
    1404                      .dwattr $C$DW$167, DW_AT_name("_printf")
    1405                      .dwattr $C$DW$167, DW_AT_TI_call
    1406 0004ba 6C00          CALL #_printf ; |516| 
         0004bc 0000!
    1407                                                      ; call occurs [#_printf] ; |516| 
    1408                      .dwpsn  file "../c5535_bsl_revc/ezdsp5535_v1/c55xx_csl/ccs_v4.0_examples/mmc_sd/CSL_MMCSD_MmcCardExam
    1409 0004be A406          MOV *SP(#3), T0 ; |517| 
    1410 0004c0 0601          B $C$L42  ; |517| 
         0004c2 8E   
    1411                                                      ; branch occurs ; |517| 
    1412 0004c3       $C$L30:    
    1413                      .dwpsn  file "../c5535_bsl_revc/ezdsp5535_v1/c55xx_csl/ccs_v4.0_examples/mmc_sd/CSL_MMCSD_MmcCardExam
    1414 0004c3 EC06          AMAR *SP(#3), XAR1
         0004c5 9E   
    1415 0004c6 ED31          MOV dbl(*(#_mmcsdHandle)), XAR0
         0004c8 8F00 
         0004ca 0040-
    1416              $C$DW$168       .dwtag  DW_TAG_TI_branch
    1417                      .dwattr $C$DW$168, DW_AT_low_pc(0x00)
    1418                      .dwattr $C$DW$168, DW_AT_name("_MMC_drrdy")
    1419                      .dwattr $C$DW$168, DW_AT_TI_call
    1420 0004cc 6C00          CALL #_MMC_drrdy ; |521| 
         0004ce 0000!
    1421                                                      ; call occurs [#_MMC_drrdy] ; |521| 
    1422                      .dwpsn  file "../c5535_bsl_revc/ezdsp5535_v1/c55xx_csl/ccs_v4.0_examples/mmc_sd/CSL_MMCSD_MmcCardExam
    1423 0004d0 A906          MOV *SP(#3), AR1 ; |522| 
TMS320C55x Assembler PC v4.4.1 Sat Sep 29 23:09:03 2018

Tools Copyright (c) 1996-2012 Texas Instruments Incorporated
csl_mmcsd_MmcCardExample.asm                                         PAGE   33

    1424 0004d2 0409          BCC $C$L31,AR1 == #0 ; |522| 
         0004d4 12   
    1425                                                      ; branchcc occurs ; |522| 
    1426                      .dwpsn  file "../c5535_bsl_revc/ezdsp5535_v1/c55xx_csl/ccs_v4.0_examples/mmc_sd/CSL_MMCSD_MmcCardExam
    1427 0004d5 EC31          AMOV #$C$FSL32, XAR3 ; |524| 
         0004d7 BE00 
         0004d9 0376+
    1428 0004db EB00          MOV XAR3, dbl(*SP(#0))
         0004dd B5   
    1429              $C$DW$169       .dwtag  DW_TAG_TI_branch
    1430                      .dwattr $C$DW$169, DW_AT_low_pc(0x00)
    1431                      .dwattr $C$DW$169, DW_AT_name("_printf")
    1432                      .dwattr $C$DW$169, DW_AT_TI_call
    1433 0004de 6C00          CALL #_printf ; |524| 
         0004e0 0000!
    1434                                                      ; call occurs [#_printf] ; |524| 
    1435                      .dwpsn  file "../c5535_bsl_revc/ezdsp5535_v1/c55xx_csl/ccs_v4.0_examples/mmc_sd/CSL_MMCSD_MmcCardExam
    1436 0004e2 A406          MOV *SP(#3), T0 ; |525| 
    1437 0004e4 0601          B $C$L42  ; |525| 
         0004e6 6A   
    1438                                                      ; branch occurs ; |525| 
    1439 0004e7       $C$L31:    
    1440                      .dwpsn  file "../c5535_bsl_revc/ezdsp5535_v1/c55xx_csl/ccs_v4.0_examples/mmc_sd/CSL_MMCSD_MmcCardExam
    1441 0004e7 EC06          AMAR *SP(#3), XAR1
         0004e9 9E   
    1442 0004ea ED31          MOV dbl(*(#_mmcsdHandle)), XAR0
         0004ec 8F00 
         0004ee 0040-
    1443              $C$DW$170       .dwtag  DW_TAG_TI_branch
    1444                      .dwattr $C$DW$170, DW_AT_low_pc(0x00)
    1445                      .dwattr $C$DW$170, DW_AT_name("_MMC_dxrdy")
    1446                      .dwattr $C$DW$170, DW_AT_TI_call
    1447 0004f0 6C00          CALL #_MMC_dxrdy ; |529| 
         0004f2 0000!
    1448                                                      ; call occurs [#_MMC_dxrdy] ; |529| 
    1449                      .dwpsn  file "../c5535_bsl_revc/ezdsp5535_v1/c55xx_csl/ccs_v4.0_examples/mmc_sd/CSL_MMCSD_MmcCardExam
    1450 0004f4 A906          MOV *SP(#3), AR1 ; |530| 
    1451 0004f6 0409          BCC $C$L32,AR1 == #0 ; |530| 
         0004f8 12   
    1452                                                      ; branchcc occurs ; |530| 
    1453                      .dwpsn  file "../c5535_bsl_revc/ezdsp5535_v1/c55xx_csl/ccs_v4.0_examples/mmc_sd/CSL_MMCSD_MmcCardExam
    1454 0004f9 EC31          AMOV #$C$FSL33, XAR3 ; |532| 
         0004fb BE00 
         0004fd 038E+
    1455 0004ff EB00          MOV XAR3, dbl(*SP(#0))
         000501 B5   
    1456              $C$DW$171       .dwtag  DW_TAG_TI_branch
    1457                      .dwattr $C$DW$171, DW_AT_low_pc(0x00)
    1458                      .dwattr $C$DW$171, DW_AT_name("_printf")
    1459                      .dwattr $C$DW$171, DW_AT_TI_call
    1460 000502 6C00          CALL #_printf ; |532| 
         000504 0000!
    1461                                                      ; call occurs [#_printf] ; |532| 
    1462                      .dwpsn  file "../c5535_bsl_revc/ezdsp5535_v1/c55xx_csl/ccs_v4.0_examples/mmc_sd/CSL_MMCSD_MmcCardExam
    1463 000506 A406          MOV *SP(#3), T0 ; |533| 
TMS320C55x Assembler PC v4.4.1 Sat Sep 29 23:09:03 2018

Tools Copyright (c) 1996-2012 Texas Instruments Incorporated
csl_mmcsd_MmcCardExample.asm                                         PAGE   34

    1464 000508 0601          B $C$L42  ; |533| 
         00050a 46   
    1465                                                      ; branch occurs ; |533| 
    1466 00050b       $C$L32:    
    1467                      .dwpsn  file "../c5535_bsl_revc/ezdsp5535_v1/c55xx_csl/ccs_v4.0_examples/mmc_sd/CSL_MMCSD_MmcCardExam
    1468 00050b ED31          MOV dbl(*(#_mmcsdHandle)), XAR0
         00050d 8F00 
         00050f 0040-
    1469 000511 EC31          AMOV #_callBckFun, XAR1 ; |537| 
         000513 9E00 
         000515 0092-
    1470              $C$DW$172       .dwtag  DW_TAG_TI_branch
    1471                      .dwattr $C$DW$172, DW_AT_low_pc(0x00)
    1472                      .dwattr $C$DW$172, DW_AT_name("_MMC_setCallBack")
    1473                      .dwattr $C$DW$172, DW_AT_TI_call
    1474 000517 6C00          CALL #_MMC_setCallBack ; |537| 
         000519 0000!
    1475                                                      ; call occurs [#_MMC_setCallBack] ; |537| 
    1476 00051b C406          MOV T0, *SP(#3) ; |537| 
    1477                      .dwpsn  file "../c5535_bsl_revc/ezdsp5535_v1/c55xx_csl/ccs_v4.0_examples/mmc_sd/CSL_MMCSD_MmcCardExam
    1478 00051d 2249          MOV T0, AR1
    1479 00051f 0409          BCC $C$L33,AR1 == #0 ; |538| 
         000521 12   
    1480                                                      ; branchcc occurs ; |538| 
    1481                      .dwpsn  file "../c5535_bsl_revc/ezdsp5535_v1/c55xx_csl/ccs_v4.0_examples/mmc_sd/CSL_MMCSD_MmcCardExam
    1482 000522 EC31          AMOV #$C$FSL34, XAR3 ; |540| 
         000524 BE00 
         000526 03A6+
    1483 000528 EB00          MOV XAR3, dbl(*SP(#0))
         00052a B5   
    1484              $C$DW$173       .dwtag  DW_TAG_TI_branch
    1485                      .dwattr $C$DW$173, DW_AT_low_pc(0x00)
    1486                      .dwattr $C$DW$173, DW_AT_name("_printf")
    1487                      .dwattr $C$DW$173, DW_AT_TI_call
    1488 00052b 6C00          CALL #_printf ; |540| 
         00052d 0000!
    1489                                                      ; call occurs [#_printf] ; |540| 
    1490                      .dwpsn  file "../c5535_bsl_revc/ezdsp5535_v1/c55xx_csl/ccs_v4.0_examples/mmc_sd/CSL_MMCSD_MmcCardExam
    1491 00052f A406          MOV *SP(#3), T0 ; |541| 
    1492 000531 0601          B $C$L42  ; |541| 
         000533 1D   
    1493                                                      ; branch occurs ; |541| 
    1494 000534       $C$L33:    
    1495                      .dwpsn  file "../c5535_bsl_revc/ezdsp5535_v1/c55xx_csl/ccs_v4.0_examples/mmc_sd/CSL_MMCSD_MmcCardExam
    1496 000534 ED31          MOV dbl(*(#_mmcsdHandle)), XAR0
         000536 8F00 
         000538 0040-
    1497              $C$DW$174       .dwtag  DW_TAG_TI_branch
    1498                      .dwattr $C$DW$174, DW_AT_low_pc(0x00)
    1499                      .dwattr $C$DW$174, DW_AT_name("_MMC_clearResponse")
    1500                      .dwattr $C$DW$174, DW_AT_TI_call
    1501 00053a 6C00          CALL #_MMC_clearResponse ; |545| 
         00053c 0000!
    1502                                                      ; call occurs [#_MMC_clearResponse] ; |545| 
    1503 00053e C406          MOV T0, *SP(#3) ; |545| 
TMS320C55x Assembler PC v4.4.1 Sat Sep 29 23:09:03 2018

Tools Copyright (c) 1996-2012 Texas Instruments Incorporated
csl_mmcsd_MmcCardExample.asm                                         PAGE   35

    1504                      .dwpsn  file "../c5535_bsl_revc/ezdsp5535_v1/c55xx_csl/ccs_v4.0_examples/mmc_sd/CSL_MMCSD_MmcCardExam
    1505 000540 2249          MOV T0, AR1
    1506 000542 0409          BCC $C$L34,AR1 == #0 ; |546| 
         000544 12   
    1507                                                      ; branchcc occurs ; |546| 
    1508                      .dwpsn  file "../c5535_bsl_revc/ezdsp5535_v1/c55xx_csl/ccs_v4.0_examples/mmc_sd/CSL_MMCSD_MmcCardExam
    1509 000545 EC31          AMOV #$C$FSL35, XAR3 ; |548| 
         000547 BE00 
         000549 03C4+
    1510 00054b EB00          MOV XAR3, dbl(*SP(#0))
         00054d B5   
    1511              $C$DW$175       .dwtag  DW_TAG_TI_branch
    1512                      .dwattr $C$DW$175, DW_AT_low_pc(0x00)
    1513                      .dwattr $C$DW$175, DW_AT_name("_printf")
    1514                      .dwattr $C$DW$175, DW_AT_TI_call
    1515 00054e 6C00          CALL #_printf ; |548| 
         000550 0000!
    1516                                                      ; call occurs [#_printf] ; |548| 
    1517                      .dwpsn  file "../c5535_bsl_revc/ezdsp5535_v1/c55xx_csl/ccs_v4.0_examples/mmc_sd/CSL_MMCSD_MmcCardExam
    1518 000552 A406          MOV *SP(#3), T0 ; |549| 
    1519 000554 0600          B $C$L42  ; |549| 
         000556 FA   
    1520                                                      ; branch occurs ; |549| 
    1521 000557       $C$L34:    
    1522                      .dwpsn  file "../c5535_bsl_revc/ezdsp5535_v1/c55xx_csl/ccs_v4.0_examples/mmc_sd/CSL_MMCSD_MmcCardExam
    1523 000557 ED31          MOV dbl(*(#_mmcsdHandle)), XAR0
         000559 8F00 
         00055b 0040-
    1524              $C$DW$176       .dwtag  DW_TAG_TI_branch
    1525                      .dwattr $C$DW$176, DW_AT_low_pc(0x00)
    1526                      .dwattr $C$DW$176, DW_AT_name("_MMC_intEnable")
    1527                      .dwattr $C$DW$176, DW_AT_TI_call
    1528              
    1529 00055d 6C00          CALL #_MMC_intEnable ; |553| 
         00055f 0000!
    1530 000561 3D04  ||      MOV #0, T0
    1531              
    1532                                                      ; call occurs [#_MMC_intEnable] ; |553| 
    1533 000563 C406          MOV T0, *SP(#3) ; |553| 
    1534                      .dwpsn  file "../c5535_bsl_revc/ezdsp5535_v1/c55xx_csl/ccs_v4.0_examples/mmc_sd/CSL_MMCSD_MmcCardExam
    1535 000565 2249          MOV T0, AR1
    1536 000567 0409          BCC $C$L35,AR1 == #0 ; |554| 
         000569 12   
    1537                                                      ; branchcc occurs ; |554| 
    1538                      .dwpsn  file "../c5535_bsl_revc/ezdsp5535_v1/c55xx_csl/ccs_v4.0_examples/mmc_sd/CSL_MMCSD_MmcCardExam
    1539 00056a EC31          AMOV #$C$FSL36, XAR3 ; |556| 
         00056c BE00 
         00056e 03E4+
    1540 000570 EB00          MOV XAR3, dbl(*SP(#0))
         000572 B5   
    1541              $C$DW$177       .dwtag  DW_TAG_TI_branch
    1542                      .dwattr $C$DW$177, DW_AT_low_pc(0x00)
    1543                      .dwattr $C$DW$177, DW_AT_name("_printf")
    1544                      .dwattr $C$DW$177, DW_AT_TI_call
    1545 000573 6C00          CALL #_printf ; |556| 
TMS320C55x Assembler PC v4.4.1 Sat Sep 29 23:09:03 2018

Tools Copyright (c) 1996-2012 Texas Instruments Incorporated
csl_mmcsd_MmcCardExample.asm                                         PAGE   36

         000575 0000!
    1546                                                      ; call occurs [#_printf] ; |556| 
    1547                      .dwpsn  file "../c5535_bsl_revc/ezdsp5535_v1/c55xx_csl/ccs_v4.0_examples/mmc_sd/CSL_MMCSD_MmcCardExam
    1548 000577 A406          MOV *SP(#3), T0 ; |557| 
    1549 000579 0600          B $C$L42  ; |557| 
         00057b D5   
    1550                                                      ; branch occurs ; |557| 
    1551 00057c       $C$L35:    
    1552                      .dwpsn  file "../c5535_bsl_revc/ezdsp5535_v1/c55xx_csl/ccs_v4.0_examples/mmc_sd/CSL_MMCSD_MmcCardExam
    1553 00057c ED31          MOV dbl(*(#_mmcsdHandle)), XAR0
         00057e 8F00 
         000580 0040-
    1554              $C$DW$178       .dwtag  DW_TAG_TI_branch
    1555                      .dwattr $C$DW$178, DW_AT_low_pc(0x00)
    1556                      .dwattr $C$DW$178, DW_AT_name("_MMC_eventEnable")
    1557                      .dwattr $C$DW$178, DW_AT_TI_call
    1558              
    1559 000582 6C00          CALL #_MMC_eventEnable ; |561| 
         000584 0000!
    1560 000586 3D14  ||      MOV #1, T0
    1561              
    1562                                                      ; call occurs [#_MMC_eventEnable] ; |561| 
    1563 000588 C406          MOV T0, *SP(#3) ; |561| 
    1564                      .dwpsn  file "../c5535_bsl_revc/ezdsp5535_v1/c55xx_csl/ccs_v4.0_examples/mmc_sd/CSL_MMCSD_MmcCardExam
    1565 00058a 2249          MOV T0, AR1
    1566 00058c 0409          BCC $C$L36,AR1 == #0 ; |562| 
         00058e 12   
    1567                                                      ; branchcc occurs ; |562| 
    1568                      .dwpsn  file "../c5535_bsl_revc/ezdsp5535_v1/c55xx_csl/ccs_v4.0_examples/mmc_sd/CSL_MMCSD_MmcCardExam
    1569 00058f EC31          AMOV #$C$FSL37, XAR3 ; |564| 
         000591 BE00 
         000593 0400+
    1570 000595 EB00          MOV XAR3, dbl(*SP(#0))
         000597 B5   
    1571              $C$DW$179       .dwtag  DW_TAG_TI_branch
    1572                      .dwattr $C$DW$179, DW_AT_low_pc(0x00)
    1573                      .dwattr $C$DW$179, DW_AT_name("_printf")
    1574                      .dwattr $C$DW$179, DW_AT_TI_call
    1575 000598 6C00          CALL #_printf ; |564| 
         00059a 0000!
    1576                                                      ; call occurs [#_printf] ; |564| 
    1577                      .dwpsn  file "../c5535_bsl_revc/ezdsp5535_v1/c55xx_csl/ccs_v4.0_examples/mmc_sd/CSL_MMCSD_MmcCardExam
    1578 00059c A406          MOV *SP(#3), T0 ; |565| 
    1579 00059e 0600          B $C$L42  ; |565| 
         0005a0 B0   
    1580                                                      ; branch occurs ; |565| 
    1581 0005a1       $C$L36:    
    1582                      .dwpsn  file "../c5535_bsl_revc/ezdsp5535_v1/c55xx_csl/ccs_v4.0_examples/mmc_sd/CSL_MMCSD_MmcCardExam
    1583 0005a1 ED31          MOV dbl(*(#_mmcsdHandle)), XAR0
         0005a3 8F00 
         0005a5 0040-
    1584              $C$DW$180       .dwtag  DW_TAG_TI_branch
    1585                      .dwattr $C$DW$180, DW_AT_low_pc(0x00)
    1586                      .dwattr $C$DW$180, DW_AT_name("_MMC_eventDisable")
    1587                      .dwattr $C$DW$180, DW_AT_TI_call
TMS320C55x Assembler PC v4.4.1 Sat Sep 29 23:09:03 2018

Tools Copyright (c) 1996-2012 Texas Instruments Incorporated
csl_mmcsd_MmcCardExample.asm                                         PAGE   37

    1588              
    1589 0005a7 6C00          CALL #_MMC_eventDisable ; |569| 
         0005a9 0000!
    1590 0005ab 3D14  ||      MOV #1, T0
    1591              
    1592                                                      ; call occurs [#_MMC_eventDisable] ; |569| 
    1593 0005ad C406          MOV T0, *SP(#3) ; |569| 
    1594                      .dwpsn  file "../c5535_bsl_revc/ezdsp5535_v1/c55xx_csl/ccs_v4.0_examples/mmc_sd/CSL_MMCSD_MmcCardExam
    1595 0005af 2249          MOV T0, AR1
    1596 0005b1 0409          BCC $C$L37,AR1 == #0 ; |570| 
         0005b3 12   
    1597                                                      ; branchcc occurs ; |570| 
    1598                      .dwpsn  file "../c5535_bsl_revc/ezdsp5535_v1/c55xx_csl/ccs_v4.0_examples/mmc_sd/CSL_MMCSD_MmcCardExam
    1599 0005b4 EC31          AMOV #$C$FSL38, XAR3 ; |572| 
         0005b6 BE00 
         0005b8 041E+
    1600 0005ba EB00          MOV XAR3, dbl(*SP(#0))
         0005bc B5   
    1601              $C$DW$181       .dwtag  DW_TAG_TI_branch
    1602                      .dwattr $C$DW$181, DW_AT_low_pc(0x00)
    1603                      .dwattr $C$DW$181, DW_AT_name("_printf")
    1604                      .dwattr $C$DW$181, DW_AT_TI_call
    1605 0005bd 6C00          CALL #_printf ; |572| 
         0005bf 0000!
    1606                                                      ; call occurs [#_printf] ; |572| 
    1607                      .dwpsn  file "../c5535_bsl_revc/ezdsp5535_v1/c55xx_csl/ccs_v4.0_examples/mmc_sd/CSL_MMCSD_MmcCardExam
    1608 0005c1 A406          MOV *SP(#3), T0 ; |573| 
    1609 0005c3 0600          B $C$L42  ; |573| 
         0005c5 8B   
    1610                                                      ; branch occurs ; |573| 
    1611 0005c6       $C$L37:    
    1612                      .dwpsn  file "../c5535_bsl_revc/ezdsp5535_v1/c55xx_csl/ccs_v4.0_examples/mmc_sd/CSL_MMCSD_MmcCardExam
    1613 0005c6 ED31          MOV dbl(*(#_mmcsdHandle)), XAR0
         0005c8 8F00 
         0005ca 0040-
    1614              $C$DW$182       .dwtag  DW_TAG_TI_branch
    1615                      .dwattr $C$DW$182, DW_AT_low_pc(0x00)
    1616                      .dwattr $C$DW$182, DW_AT_name("_MMC_close")
    1617                      .dwattr $C$DW$182, DW_AT_TI_call
    1618 0005cc 6C00          CALL #_MMC_close ; |577| 
         0005ce 0000!
    1619                                                      ; call occurs [#_MMC_close] ; |577| 
    1620 0005d0 C406          MOV T0, *SP(#3) ; |577| 
    1621                      .dwpsn  file "../c5535_bsl_revc/ezdsp5535_v1/c55xx_csl/ccs_v4.0_examples/mmc_sd/CSL_MMCSD_MmcCardExam
    1622 0005d2 2249          MOV T0, AR1
    1623 0005d4 0409          BCC $C$L38,AR1 == #0 ; |578| 
         0005d6 12   
    1624                                                      ; branchcc occurs ; |578| 
    1625                      .dwpsn  file "../c5535_bsl_revc/ezdsp5535_v1/c55xx_csl/ccs_v4.0_examples/mmc_sd/CSL_MMCSD_MmcCardExam
    1626 0005d7 EC31          AMOV #$C$FSL39, XAR3 ; |580| 
         0005d9 BE00 
         0005db 043C+
    1627 0005dd EB00          MOV XAR3, dbl(*SP(#0))
         0005df B5   
    1628              $C$DW$183       .dwtag  DW_TAG_TI_branch
TMS320C55x Assembler PC v4.4.1 Sat Sep 29 23:09:03 2018

Tools Copyright (c) 1996-2012 Texas Instruments Incorporated
csl_mmcsd_MmcCardExample.asm                                         PAGE   38

    1629                      .dwattr $C$DW$183, DW_AT_low_pc(0x00)
    1630                      .dwattr $C$DW$183, DW_AT_name("_printf")
    1631                      .dwattr $C$DW$183, DW_AT_TI_call
    1632 0005e0 6C00          CALL #_printf ; |580| 
         0005e2 0000!
    1633                                                      ; call occurs [#_printf] ; |580| 
    1634                      .dwpsn  file "../c5535_bsl_revc/ezdsp5535_v1/c55xx_csl/ccs_v4.0_examples/mmc_sd/CSL_MMCSD_MmcCardExam
    1635 0005e4 A406          MOV *SP(#3), T0 ; |581| 
    1636 0005e6 0600          B $C$L42  ; |581| 
         0005e8 68   
    1637                                                      ; branch occurs ; |581| 
    1638 0005e9       $C$L38:    
    1639                      .dwpsn  file "../c5535_bsl_revc/ezdsp5535_v1/c55xx_csl/ccs_v4.0_examples/mmc_sd/CSL_MMCSD_MmcCardExam
    1640 0005e9 EC31          AMOV #$C$FSL40, XAR3 ; |585| 
         0005eb BE00 
         0005ed 0454+
    1641 0005ef EB00          MOV XAR3, dbl(*SP(#0))
         0005f1 B5   
    1642              $C$DW$184       .dwtag  DW_TAG_TI_branch
    1643                      .dwattr $C$DW$184, DW_AT_low_pc(0x00)
    1644                      .dwattr $C$DW$184, DW_AT_name("_printf")
    1645                      .dwattr $C$DW$184, DW_AT_TI_call
    1646 0005f2 6C00          CALL #_printf ; |585| 
         0005f4 0000!
    1647                                                      ; call occurs [#_printf] ; |585| 
    1648                      .dwpsn  file "../c5535_bsl_revc/ezdsp5535_v1/c55xx_csl/ccs_v4.0_examples/mmc_sd/CSL_MMCSD_MmcCardExam
    1649 0005f6 E608          MOV #0, *SP(#4) ; |589| 
         0005f8 00   
    1650                      .dwpsn  file "../c5535_bsl_revc/ezdsp5535_v1/c55xx_csl/ccs_v4.0_examples/mmc_sd/CSL_MMCSD_MmcCardExam
    1651 0005f9 7601          MOV #256, AR2 ; |589| 
         0005fb 00A8 
    1652 0005fd A908          MOV *SP(#4), AR1 ; |589| 
    1653 0005ff 1298          CMPU AR1 >= AR2, TC1 ; |589| 
         000601 A4   
    1654 000602 0464          BCC $C$L41,TC1 ; |589| 
         000604 3D   
    1655                                                      ; branchcc occurs ; |589| 
    1656 000605       $C$L39:    
    1657 000605       $C$DW$L$_CSL_mmcPollTest$73$B:
    1658                      .dwpsn  file "../c5535_bsl_revc/ezdsp5535_v1/c55xx_csl/ccs_v4.0_examples/mmc_sd/CSL_MMCSD_MmcCardExam
    1659 000605 A408          MOV *SP(#4), T0 ; |591| 
    1660 000607 EC31          AMOV #_gMmcWriteBuff, XAR3 ; |591| 
         000609 BE00 
         00060b 01B8-
    1661 00060d A96B          MOV *AR3(T0), AR1 ; |591| 
    1662 00060f EC31          AMOV #_gMmcReadBuff, XAR3 ; |591| 
         000611 BE00 
         000613 00B8-
    1663 000615 AA6B          MOV *AR3(T0), AR2 ; |591| 
    1664 000617 12A0          CMPU AR2 == AR1, TC1 ; |591| 
         000619 94   
    1665 00061a 0464          BCC $C$L40,TC1 ; |591| 
         00061c 15   
    1666                                                      ; branchcc occurs ; |591| 
    1667 00061d       $C$DW$L$_CSL_mmcPollTest$73$E:
TMS320C55x Assembler PC v4.4.1 Sat Sep 29 23:09:03 2018

Tools Copyright (c) 1996-2012 Texas Instruments Incorporated
csl_mmcsd_MmcCardExample.asm                                         PAGE   39

    1668                      .dwpsn  file "../c5535_bsl_revc/ezdsp5535_v1/c55xx_csl/ccs_v4.0_examples/mmc_sd/CSL_MMCSD_MmcCardExam
    1669 00061d EC31          AMOV #$C$FSL41, XAR3 ; |593| 
         00061f BE00 
         000621 0470+
    1670 000623 EB00          MOV XAR3, dbl(*SP(#0))
         000625 B5   
    1671 000626 A908          MOV *SP(#4), AR1 ; |593| 
    1672 000628 C904          MOV AR1, *SP(#2) ; |593| 
    1673              $C$DW$185       .dwtag  DW_TAG_TI_branch
    1674                      .dwattr $C$DW$185, DW_AT_low_pc(0x00)
    1675                      .dwattr $C$DW$185, DW_AT_name("_printf")
    1676                      .dwattr $C$DW$185, DW_AT_TI_call
    1677 00062a 6C00          CALL #_printf ; |593| 
         00062c 0000!
    1678                                                      ; call occurs [#_printf] ; |593| 
    1679                      .dwpsn  file "../c5535_bsl_revc/ezdsp5535_v1/c55xx_csl/ccs_v4.0_examples/mmc_sd/CSL_MMCSD_MmcCardExam
    1680 00062e 3E14          MOV #-1, T0
    1681 000630 4A1F          B $C$L42  ; |594| 
    1682                                                      ; branch occurs ; |594| 
    1683 000632       $C$L40:    
    1684 000632       $C$DW$L$_CSL_mmcPollTest$75$B:
    1685                      .dwpsn  file "../c5535_bsl_revc/ezdsp5535_v1/c55xx_csl/ccs_v4.0_examples/mmc_sd/CSL_MMCSD_MmcCardExam
    1686 000632 F708          ADD #1, *SP(#4) ; |589| 
         000634 0001 
    1687                      .dwpsn  file "../c5535_bsl_revc/ezdsp5535_v1/c55xx_csl/ccs_v4.0_examples/mmc_sd/CSL_MMCSD_MmcCardExam
    1688 000636 7601          MOV #256, AR2 ; |589| 
         000638 00A8 
    1689 00063a A908          MOV *SP(#4), AR1 ; |589| 
    1690 00063c 1294          CMPU AR1 < AR2, TC1 ; |589| 
         00063e A4   
    1691 00063f 0464          BCC $C$L39,TC1 ; |589| 
         000641 C3   
    1692                                                      ; branchcc occurs ; |589| 
    1693 000642       $C$DW$L$_CSL_mmcPollTest$75$E:
    1694 000642       $C$L41:    
    1695                      .dwpsn  file "../c5535_bsl_revc/ezdsp5535_v1/c55xx_csl/ccs_v4.0_examples/mmc_sd/CSL_MMCSD_MmcCardExam
    1696 000642 EC31          AMOV #$C$FSL42, XAR3 ; |598| 
         000644 BE00 
         000646 0496+
    1697 000648 EB00          MOV XAR3, dbl(*SP(#0))
         00064a B5   
    1698              $C$DW$186       .dwtag  DW_TAG_TI_branch
    1699                      .dwattr $C$DW$186, DW_AT_low_pc(0x00)
    1700                      .dwattr $C$DW$186, DW_AT_name("_printf")
    1701                      .dwattr $C$DW$186, DW_AT_TI_call
    1702 00064b 6C00          CALL #_printf ; |598| 
         00064d 0000!
    1703                                                      ; call occurs [#_printf] ; |598| 
    1704                      .dwpsn  file "../c5535_bsl_revc/ezdsp5535_v1/c55xx_csl/ccs_v4.0_examples/mmc_sd/CSL_MMCSD_MmcCardExam
    1705 00064f 3C04          MOV #0, T0
    1706 000651       $C$L42:    
    1707                      .dwpsn  file "../c5535_bsl_revc/ezdsp5535_v1/c55xx_csl/ccs_v4.0_examples/mmc_sd/CSL_MMCSD_MmcCardExam
    1708 000651 4E07          AADD #7, SP
    1709                      .dwcfi  cfa_offset, 1
    1710              $C$DW$187       .dwtag  DW_TAG_TI_branch
TMS320C55x Assembler PC v4.4.1 Sat Sep 29 23:09:03 2018

Tools Copyright (c) 1996-2012 Texas Instruments Incorporated
csl_mmcsd_MmcCardExample.asm                                         PAGE   40

    1711                      .dwattr $C$DW$187, DW_AT_low_pc(0x00)
    1712                      .dwattr $C$DW$187, DW_AT_TI_return
    1713 000653 4804          RET
    1714                                                      ; return occurs
    1715              
    1716              $C$DW$188       .dwtag  DW_TAG_TI_loop
    1717                      .dwattr $C$DW$188, DW_AT_name("F:\eZdsp_DBG\tmp1\c55x-sim2\foo\Debug\csl_mmcsd_MmcCardExample.asm:$C$
    1718                      .dwattr $C$DW$188, DW_AT_TI_begin_file("../c5535_bsl_revc/ezdsp5535_v1/c55xx_csl/ccs_v4.0_examples/mm
    1719                      .dwattr $C$DW$188, DW_AT_TI_begin_line(0x24d)
    1720                      .dwattr $C$DW$188, DW_AT_TI_end_line(0x254)
    1721              $C$DW$189       .dwtag  DW_TAG_TI_loop_range
    1722                      .dwattr $C$DW$189, DW_AT_low_pc($C$DW$L$_CSL_mmcPollTest$73$B)
    1723                      .dwattr $C$DW$189, DW_AT_high_pc($C$DW$L$_CSL_mmcPollTest$73$E)
    1724              $C$DW$190       .dwtag  DW_TAG_TI_loop_range
    1725                      .dwattr $C$DW$190, DW_AT_low_pc($C$DW$L$_CSL_mmcPollTest$75$B)
    1726                      .dwattr $C$DW$190, DW_AT_high_pc($C$DW$L$_CSL_mmcPollTest$75$E)
    1727                      .dwendtag $C$DW$188
    1728              
    1729              
    1730              $C$DW$191       .dwtag  DW_TAG_TI_loop
    1731                      .dwattr $C$DW$191, DW_AT_name("F:\eZdsp_DBG\tmp1\c55x-sim2\foo\Debug\csl_mmcsd_MmcCardExample.asm:$C$
    1732                      .dwattr $C$DW$191, DW_AT_TI_begin_file("../c5535_bsl_revc/ezdsp5535_v1/c55xx_csl/ccs_v4.0_examples/mm
    1733                      .dwattr $C$DW$191, DW_AT_TI_begin_line(0x114)
    1734                      .dwattr $C$DW$191, DW_AT_TI_end_line(0x118)
    1735              $C$DW$192       .dwtag  DW_TAG_TI_loop_range
    1736                      .dwattr $C$DW$192, DW_AT_low_pc($C$DW$L$_CSL_mmcPollTest$2$B)
    1737                      .dwattr $C$DW$192, DW_AT_high_pc($C$DW$L$_CSL_mmcPollTest$2$E)
    1738                      .dwendtag $C$DW$191
    1739              
    1740                      .dwattr $C$DW$113, DW_AT_TI_end_file("../c5535_bsl_revc/ezdsp5535_v1/c55xx_csl/ccs_v4.0_examples/mmc_
    1741                      .dwattr $C$DW$113, DW_AT_TI_end_line(0x259)
    1742                      .dwattr $C$DW$113, DW_AT_TI_end_column(0x01)
    1743                      .dwendentry
    1744                      .dwendtag $C$DW$113
    1745              
    1746 000655               .sect   ".text"
    1747                      .align 4
    1748                      .global _isr_rcv
    1749              
    1750              $C$DW$193       .dwtag  DW_TAG_subprogram, DW_AT_name("isr_rcv")
    1751                      .dwattr $C$DW$193, DW_AT_low_pc(_isr_rcv)
    1752                      .dwattr $C$DW$193, DW_AT_high_pc(0x00)
    1753                      .dwattr $C$DW$193, DW_AT_TI_symbol_name("_isr_rcv")
    1754                      .dwattr $C$DW$193, DW_AT_external
    1755                      .dwattr $C$DW$193, DW_AT_TI_begin_file("../c5535_bsl_revc/ezdsp5535_v1/c55xx_csl/ccs_v4.0_examples/mm
    1756                      .dwattr $C$DW$193, DW_AT_TI_begin_line(0x262)
    1757                      .dwattr $C$DW$193, DW_AT_TI_begin_column(0x06)
    1758                      .dwattr $C$DW$193, DW_AT_TI_max_frame_size(0x01)
    1759                      .dwpsn  file "../c5535_bsl_revc/ezdsp5535_v1/c55xx_csl/ccs_v4.0_examples/mmc_sd/CSL_MMCSD_MmcCardExam
    1760              
    1761                      .dwfde $C$DW$CIE, _isr_rcv
    1762              ;*******************************************************************************
    1763              ;* FUNCTION NAME: isr_rcv                                                      *
    1764              ;*                                                                             *
    1765              ;*   Function Uses Regs : SP,M40,SATA,SATD,RDM,FRCT,SMUL                       *
TMS320C55x Assembler PC v4.4.1 Sat Sep 29 23:09:03 2018

Tools Copyright (c) 1996-2012 Texas Instruments Incorporated
csl_mmcsd_MmcCardExample.asm                                         PAGE   41

    1766              ;*   Stack Frame        : Compact (No Frame Pointer, w/ debug)                 *
    1767              ;*   Total Frame Size   : 1 word                                               *
    1768              ;*                        (1 return address/alignment)                         *
    1769              ;*   Min System Stack   : 1 word                                               *
    1770              ;*******************************************************************************
    1771 000658       _isr_rcv:
    1772                      .dwcfi  cfa_offset, 1
    1773                      .dwcfi  save_reg_to_mem, 91, -1
    1774                      .dwpsn  file "../c5535_bsl_revc/ezdsp5535_v1/c55xx_csl/ccs_v4.0_examples/mmc_sd/CSL_MMCSD_MmcCardExam
    1775              $C$DW$194       .dwtag  DW_TAG_TI_branch
    1776                      .dwattr $C$DW$194, DW_AT_low_pc(0x00)
    1777                      .dwattr $C$DW$194, DW_AT_TI_return
    1778 000658 4804          RET
    1779                                                      ; return occurs
    1780                      .dwattr $C$DW$193, DW_AT_TI_end_file("../c5535_bsl_revc/ezdsp5535_v1/c55xx_csl/ccs_v4.0_examples/mmc_
    1781                      .dwattr $C$DW$193, DW_AT_TI_end_line(0x265)
    1782                      .dwattr $C$DW$193, DW_AT_TI_end_column(0x01)
    1783                      .dwendentry
    1784                      .dwendtag $C$DW$193
    1785              
    1786 00065a               .sect   ".text"
    1787                      .align 4
    1788                      .global _isr_txmt
    1789              
    1790              $C$DW$195       .dwtag  DW_TAG_subprogram, DW_AT_name("isr_txmt")
    1791                      .dwattr $C$DW$195, DW_AT_low_pc(_isr_txmt)
    1792                      .dwattr $C$DW$195, DW_AT_high_pc(0x00)
    1793                      .dwattr $C$DW$195, DW_AT_TI_symbol_name("_isr_txmt")
    1794                      .dwattr $C$DW$195, DW_AT_external
    1795                      .dwattr $C$DW$195, DW_AT_TI_begin_file("../c5535_bsl_revc/ezdsp5535_v1/c55xx_csl/ccs_v4.0_examples/mm
    1796                      .dwattr $C$DW$195, DW_AT_TI_begin_line(0x26e)
    1797                      .dwattr $C$DW$195, DW_AT_TI_begin_column(0x06)
    1798                      .dwattr $C$DW$195, DW_AT_TI_max_frame_size(0x01)
    1799                      .dwpsn  file "../c5535_bsl_revc/ezdsp5535_v1/c55xx_csl/ccs_v4.0_examples/mmc_sd/CSL_MMCSD_MmcCardExam
    1800              
    1801                      .dwfde $C$DW$CIE, _isr_txmt
    1802              ;*******************************************************************************
    1803              ;* FUNCTION NAME: isr_txmt                                                     *
    1804              ;*                                                                             *
    1805              ;*   Function Uses Regs : SP,M40,SATA,SATD,RDM,FRCT,SMUL                       *
    1806              ;*   Stack Frame        : Compact (No Frame Pointer, w/ debug)                 *
    1807              ;*   Total Frame Size   : 1 word                                               *
    1808              ;*                        (1 return address/alignment)                         *
    1809              ;*   Min System Stack   : 1 word                                               *
    1810              ;*******************************************************************************
    1811 00065c       _isr_txmt:
    1812                      .dwcfi  cfa_offset, 1
    1813                      .dwcfi  save_reg_to_mem, 91, -1
    1814                      .dwpsn  file "../c5535_bsl_revc/ezdsp5535_v1/c55xx_csl/ccs_v4.0_examples/mmc_sd/CSL_MMCSD_MmcCardExam
    1815              $C$DW$196       .dwtag  DW_TAG_TI_branch
    1816                      .dwattr $C$DW$196, DW_AT_low_pc(0x00)
    1817                      .dwattr $C$DW$196, DW_AT_TI_return
    1818 00065c 4804          RET
    1819                                                      ; return occurs
    1820                      .dwattr $C$DW$195, DW_AT_TI_end_file("../c5535_bsl_revc/ezdsp5535_v1/c55xx_csl/ccs_v4.0_examples/mmc_
TMS320C55x Assembler PC v4.4.1 Sat Sep 29 23:09:03 2018

Tools Copyright (c) 1996-2012 Texas Instruments Incorporated
csl_mmcsd_MmcCardExample.asm                                         PAGE   42

    1821                      .dwattr $C$DW$195, DW_AT_TI_end_line(0x271)
    1822                      .dwattr $C$DW$195, DW_AT_TI_end_column(0x01)
    1823                      .dwendentry
    1824                      .dwendtag $C$DW$195
    1825              
    1826 00065e               .sect   ".text"
    1827                      .align 4
    1828                      .global _computeClkRate
    1829              
    1830              $C$DW$197       .dwtag  DW_TAG_subprogram, DW_AT_name("computeClkRate")
    1831                      .dwattr $C$DW$197, DW_AT_low_pc(_computeClkRate)
    1832                      .dwattr $C$DW$197, DW_AT_high_pc(0x00)
    1833                      .dwattr $C$DW$197, DW_AT_TI_symbol_name("_computeClkRate")
    1834                      .dwattr $C$DW$197, DW_AT_external
    1835                      .dwattr $C$DW$197, DW_AT_type(*$C$DW$T$19)
    1836                      .dwattr $C$DW$197, DW_AT_TI_begin_file("../c5535_bsl_revc/ezdsp5535_v1/c55xx_csl/ccs_v4.0_examples/mm
    1837                      .dwattr $C$DW$197, DW_AT_TI_begin_line(0x284)
    1838                      .dwattr $C$DW$197, DW_AT_TI_begin_column(0x08)
    1839                      .dwattr $C$DW$197, DW_AT_TI_max_frame_size(0x08)
    1840                      .dwpsn  file "../c5535_bsl_revc/ezdsp5535_v1/c55xx_csl/ccs_v4.0_examples/mmc_sd/CSL_MMCSD_MmcCardExam
    1841              
    1842                      .dwfde $C$DW$CIE, _computeClkRate
    1843              ;*******************************************************************************
    1844              ;* FUNCTION NAME: computeClkRate                                               *
    1845              ;*                                                                             *
    1846              ;*   Function Uses Regs : AC0,AC0,AC1,AC1,T0,AR1,AR2,SP,CARRY,TC1,M40,SATA,    *
    1847              ;*                        SATD,RDM,FRCT,SMUL                                   *
    1848              ;*   Stack Frame        : Compact (No Frame Pointer, w/ debug)                 *
    1849              ;*   Total Frame Size   : 8 words                                              *
    1850              ;*                        (1 return address/alignment)                         *
    1851              ;*                        (7 local values)                                     *
    1852              ;*   Min System Stack   : 1 word                                               *
    1853              ;*******************************************************************************
    1854 000660       _computeClkRate:
    1855                      .dwcfi  cfa_offset, 1
    1856                      .dwcfi  save_reg_to_mem, 91, -1
    1857 000660 4EF9          AADD #-7, SP
    1858                      .dwcfi  cfa_offset, 8
    1859              $C$DW$198       .dwtag  DW_TAG_variable, DW_AT_name("sysClock")
    1860                      .dwattr $C$DW$198, DW_AT_TI_symbol_name("_sysClock")
    1861                      .dwattr $C$DW$198, DW_AT_type(*$C$DW$T$28)
    1862                      .dwattr $C$DW$198, DW_AT_location[DW_OP_bregx 0x24 0]
    1863              $C$DW$199       .dwtag  DW_TAG_variable, DW_AT_name("remainder")
    1864                      .dwattr $C$DW$199, DW_AT_TI_symbol_name("_remainder")
    1865                      .dwattr $C$DW$199, DW_AT_type(*$C$DW$T$28)
    1866                      .dwattr $C$DW$199, DW_AT_location[DW_OP_bregx 0x24 2]
    1867              $C$DW$200       .dwtag  DW_TAG_variable, DW_AT_name("memMaxClk")
    1868                      .dwattr $C$DW$200, DW_AT_TI_symbol_name("_memMaxClk")
    1869                      .dwattr $C$DW$200, DW_AT_type(*$C$DW$T$28)
    1870                      .dwattr $C$DW$200, DW_AT_location[DW_OP_bregx 0x24 4]
    1871              $C$DW$201       .dwtag  DW_TAG_variable, DW_AT_name("clkRate")
    1872                      .dwattr $C$DW$201, DW_AT_TI_symbol_name("_clkRate")
    1873                      .dwattr $C$DW$201, DW_AT_type(*$C$DW$T$19)
    1874                      .dwattr $C$DW$201, DW_AT_location[DW_OP_bregx 0x24 6]
    1875                      .dwpsn  file "../c5535_bsl_revc/ezdsp5535_v1/c55xx_csl/ccs_v4.0_examples/mmc_sd/CSL_MMCSD_MmcCardExam
TMS320C55x Assembler PC v4.4.1 Sat Sep 29 23:09:03 2018

Tools Copyright (c) 1996-2012 Texas Instruments Incorporated
csl_mmcsd_MmcCardExample.asm                                         PAGE   43

    1876 000662 3C00          MOV #0, AC0 ; |651| 
    1877 000664 EB00          MOV AC0, dbl(*SP(#0)) ; |651| 
         000666 08   
    1878                      .dwpsn  file "../c5535_bsl_revc/ezdsp5535_v1/c55xx_csl/ccs_v4.0_examples/mmc_sd/CSL_MMCSD_MmcCardExam
    1879 000667 EB04          MOV AC0, dbl(*SP(#2)) ; |652| 
         000669 08   
    1880                      .dwpsn  file "../c5535_bsl_revc/ezdsp5535_v1/c55xx_csl/ccs_v4.0_examples/mmc_sd/CSL_MMCSD_MmcCardExam
    1881 00066a 7613          MOV #5000, AC0 ; |653| 
         00066c 8808 
    1882 00066e EB08          MOV AC0, dbl(*SP(#4)) ; |653| 
         000670 08   
    1883                      .dwpsn  file "../c5535_bsl_revc/ezdsp5535_v1/c55xx_csl/ccs_v4.0_examples/mmc_sd/CSL_MMCSD_MmcCardExam
    1884 000671 E60C          MOV #0, *SP(#6) ; |654| 
         000673 00   
    1885                      .dwpsn  file "../c5535_bsl_revc/ezdsp5535_v1/c55xx_csl/ccs_v4.0_examples/mmc_sd/CSL_MMCSD_MmcCardExam
    1886              $C$DW$202       .dwtag  DW_TAG_TI_branch
    1887                      .dwattr $C$DW$202, DW_AT_low_pc(0x00)
    1888                      .dwattr $C$DW$202, DW_AT_name("_getSysClk")
    1889                      .dwattr $C$DW$202, DW_AT_TI_call
    1890 000674 0800          CALL #_getSysClk ; |657| 
         000676 65   
    1891                                                      ; call occurs [#_getSysClk] ; |657| 
    1892 000677 EB00          MOV AC0, dbl(*SP(#0)) ; |657| 
         000679 08   
    1893                      .dwpsn  file "../c5535_bsl_revc/ezdsp5535_v1/c55xx_csl/ccs_v4.0_examples/mmc_sd/CSL_MMCSD_MmcCardExam
    1894 00067a ED00          MOV dbl(*SP(#0)), AC1 ; |659| 
         00067c 18   
    1895 00067d ED08          MOV dbl(*SP(#4)), AC0 ; |659| 
         00067f 08   
    1896 000680 1208          CMPU AC1 <= AC0, TC1 ; |659| 
         000682 14   
    1897 000683 0464          BCC $C$L46,TC1 ; |659| 
         000685 50   
    1898                                                      ; branchcc occurs ; |659| 
    1899                      .dwpsn  file "../c5535_bsl_revc/ezdsp5535_v1/c55xx_csl/ccs_v4.0_examples/mmc_sd/CSL_MMCSD_MmcCardExam
    1900 000686 ED08          MOV dbl(*SP(#4)), AC0 ; |661| 
         000688 08   
    1901 000689 0400          BCC $C$L45,AC0 == #0 ; |661| 
         00068b 46   
    1902                                                      ; branchcc occurs ; |661| 
    1903                      .dwpsn  file "../c5535_bsl_revc/ezdsp5535_v1/c55xx_csl/ccs_v4.0_examples/mmc_sd/CSL_MMCSD_MmcCardExam
    1904 00068c ED00          MOV dbl(*SP(#0)), AC0 ; |663| 
         00068e 08   
    1905 00068f ED08          MOV dbl(*SP(#4)), AC1 ; |663| 
         000691 18   
    1906              $C$DW$203       .dwtag  DW_TAG_TI_branch
    1907                      .dwattr $C$DW$203, DW_AT_low_pc(0x00)
    1908                      .dwattr $C$DW$203, DW_AT_name("__divul")
    1909                      .dwattr $C$DW$203, DW_AT_TI_call
    1910 000692 6C00          CALL #__divul ; |663| 
         000694 0000!
    1911                                                      ; call occurs [#__divul] ; |663| 
    1912 000696 C00C          MOV AC0, *SP(#6) ; |663| 
    1913                      .dwpsn  file "../c5535_bsl_revc/ezdsp5535_v1/c55xx_csl/ccs_v4.0_examples/mmc_sd/CSL_MMCSD_MmcCardExam
    1914 000698 ED00          MOV dbl(*SP(#0)), AC0 ; |664| 
TMS320C55x Assembler PC v4.4.1 Sat Sep 29 23:09:03 2018

Tools Copyright (c) 1996-2012 Texas Instruments Incorporated
csl_mmcsd_MmcCardExample.asm                                         PAGE   44

         00069a 08   
    1915 00069b ED08          MOV dbl(*SP(#4)), AC1 ; |664| 
         00069d 18   
    1916              $C$DW$204       .dwtag  DW_TAG_TI_branch
    1917                      .dwattr $C$DW$204, DW_AT_low_pc(0x00)
    1918                      .dwattr $C$DW$204, DW_AT_name("__remul")
    1919                      .dwattr $C$DW$204, DW_AT_TI_call
    1920 00069e 6C00          CALL #__remul ; |664| 
         0006a0 0000!
    1921                                                      ; call occurs [#__remul] ; |664| 
    1922 0006a2 EB04          MOV AC0, dbl(*SP(#2)) ; |664| 
         0006a4 08   
    1923                      .dwpsn  file "../c5535_bsl_revc/ezdsp5535_v1/c55xx_csl/ccs_v4.0_examples/mmc_sd/CSL_MMCSD_MmcCardExam
    1924 0006a5 ED04          MOV dbl(*SP(#2)), AC0 ; |671| 
         0006a7 08   
    1925 0006a8 6200          BCC $C$L43,AC0 == #0 ; |671| 
    1926                                                      ; branchcc occurs ; |671| 
    1927                      .dwpsn  file "../c5535_bsl_revc/ezdsp5535_v1/c55xx_csl/ccs_v4.0_examples/mmc_sd/CSL_MMCSD_MmcCardExam
    1928 0006aa F70C          ADD #1, *SP(#6) ; |673| 
         0006ac 0001 
    1929 0006ae       $C$L43:    
    1930                      .dwpsn  file "../c5535_bsl_revc/ezdsp5535_v1/c55xx_csl/ccs_v4.0_examples/mmc_sd/CSL_MMCSD_MmcCardExam
    1931 0006ae DC0C          BTST #0, *SP(#6), TC1 ; |681| 
         0006b0 00   
    1932 0006b1 6274          BCC $C$L44,!TC1 ; |681| 
    1933                                                      ; branchcc occurs ; |681| 
    1934                      .dwpsn  file "../c5535_bsl_revc/ezdsp5535_v1/c55xx_csl/ccs_v4.0_examples/mmc_sd/CSL_MMCSD_MmcCardExam
    1935 0006b3 F70C          ADD #1, *SP(#6) ; |683| 
         0006b5 0001 
    1936 0006b7       $C$L44:    
    1937                      .dwpsn  file "../c5535_bsl_revc/ezdsp5535_v1/c55xx_csl/ccs_v4.0_examples/mmc_sd/CSL_MMCSD_MmcCardExam
    1938 0006b7 A90C          MOV *SP(#6), AR1 ; |690| 
    1939 0006b9 5091          SFTL AR1, #-1 ; |690| 
    1940 0006bb C90C          MOV AR1, *SP(#6) ; |690| 
    1941                      .dwpsn  file "../c5535_bsl_revc/ezdsp5535_v1/c55xx_csl/ccs_v4.0_examples/mmc_sd/CSL_MMCSD_MmcCardExam
    1942 0006bd F70C          SUB #1, *SP(#6) ; |691| 
         0006bf FFFF 
    1943                      .dwpsn  file "../c5535_bsl_revc/ezdsp5535_v1/c55xx_csl/ccs_v4.0_examples/mmc_sd/CSL_MMCSD_MmcCardExam
    1944 0006c1 7600          MOV #255, AR2 ; |701| 
         0006c3 FFA8 
    1945 0006c5 A90C          MOV *SP(#6), AR1 ; |701| 
    1946 0006c7 12A8          CMPU AR1 <= AR2, TC1 ; |701| 
         0006c9 94   
    1947 0006ca 6564          BCC $C$L46,TC1 ; |701| 
    1948                                                      ; branchcc occurs ; |701| 
    1949                      .dwpsn  file "../c5535_bsl_revc/ezdsp5535_v1/c55xx_csl/ccs_v4.0_examples/mmc_sd/CSL_MMCSD_MmcCardExam
    1950 0006cc FB0C          MOV #255, *SP(#6) ; |703| 
         0006ce 00FF 
    1951                      .dwpsn  file "../c5535_bsl_revc/ezdsp5535_v1/c55xx_csl/ccs_v4.0_examples/mmc_sd/CSL_MMCSD_MmcCardExam
    1952 0006d0 4A04          B $C$L46  ; |705| 
    1953                                                      ; branch occurs ; |705| 
    1954 0006d2       $C$L45:    
    1955                      .dwpsn  file "../c5535_bsl_revc/ezdsp5535_v1/c55xx_csl/ccs_v4.0_examples/mmc_sd/CSL_MMCSD_MmcCardExam
    1956 0006d2 FB0C          MOV #255, *SP(#6) ; |708| 
         0006d4 00FF 
TMS320C55x Assembler PC v4.4.1 Sat Sep 29 23:09:03 2018

Tools Copyright (c) 1996-2012 Texas Instruments Incorporated
csl_mmcsd_MmcCardExample.asm                                         PAGE   45

    1957 0006d6       $C$L46:    
    1958                      .dwpsn  file "../c5535_bsl_revc/ezdsp5535_v1/c55xx_csl/ccs_v4.0_examples/mmc_sd/CSL_MMCSD_MmcCardExam
    1959 0006d6 A40C          MOV *SP(#6), T0 ; |712| 
    1960                      .dwpsn  file "../c5535_bsl_revc/ezdsp5535_v1/c55xx_csl/ccs_v4.0_examples/mmc_sd/CSL_MMCSD_MmcCardExam
    1961 0006d8 4E07          AADD #7, SP
    1962                      .dwcfi  cfa_offset, 1
    1963              $C$DW$205       .dwtag  DW_TAG_TI_branch
    1964                      .dwattr $C$DW$205, DW_AT_low_pc(0x00)
    1965                      .dwattr $C$DW$205, DW_AT_TI_return
    1966 0006da 4804          RET
    1967                                                      ; return occurs
    1968                      .dwattr $C$DW$197, DW_AT_TI_end_file("../c5535_bsl_revc/ezdsp5535_v1/c55xx_csl/ccs_v4.0_examples/mmc_
    1969                      .dwattr $C$DW$197, DW_AT_TI_end_line(0x2c9)
    1970                      .dwattr $C$DW$197, DW_AT_TI_end_column(0x01)
    1971                      .dwendentry
    1972                      .dwendtag $C$DW$197
    1973              
    1974 0006dc               .sect   ".text"
    1975                      .align 4
    1976                      .global _getSysClk
    1977              
    1978              $C$DW$206       .dwtag  DW_TAG_subprogram, DW_AT_name("getSysClk")
    1979                      .dwattr $C$DW$206, DW_AT_low_pc(_getSysClk)
    1980                      .dwattr $C$DW$206, DW_AT_high_pc(0x00)
    1981                      .dwattr $C$DW$206, DW_AT_TI_symbol_name("_getSysClk")
    1982                      .dwattr $C$DW$206, DW_AT_external
    1983                      .dwattr $C$DW$206, DW_AT_type(*$C$DW$T$28)
    1984                      .dwattr $C$DW$206, DW_AT_TI_begin_file("../c5535_bsl_revc/ezdsp5535_v1/c55xx_csl/ccs_v4.0_examples/mm
    1985                      .dwattr $C$DW$206, DW_AT_TI_begin_line(0x2d4)
    1986                      .dwattr $C$DW$206, DW_AT_TI_begin_column(0x08)
    1987                      .dwattr $C$DW$206, DW_AT_TI_max_frame_size(0x0a)
    1988                      .dwpsn  file "../c5535_bsl_revc/ezdsp5535_v1/c55xx_csl/ccs_v4.0_examples/mmc_sd/CSL_MMCSD_MmcCardExam
    1989              
    1990                      .dwfde $C$DW$CIE, _getSysClk
    1991              ;*******************************************************************************
    1992              ;* FUNCTION NAME: getSysClk                                                    *
    1993              ;*                                                                             *
    1994              ;*   Function Uses Regs : AC0,AC0,AC1,AC1,AR1,AR2,SP,CARRY,TC1,M40,SATA,SATD,  *
    1995              ;*                        RDM,FRCT,SMUL                                        *
    1996              ;*   Stack Frame        : Compact (No Frame Pointer, w/ debug)                 *
    1997              ;*   Total Frame Size   : 10 words                                             *
    1998              ;*                        (2 return address/alignment)                         *
    1999              ;*                        (8 local values)                                     *
    2000              ;*   Min System Stack   : 1 word                                               *
    2001              ;*******************************************************************************
    2002 0006dc       _getSysClk:
    2003                      .dwcfi  cfa_offset, 1
    2004                      .dwcfi  save_reg_to_mem, 91, -1
    2005 0006dc 4EF7          AADD #-9, SP
    2006                      .dwcfi  cfa_offset, 10
    2007              $C$DW$207       .dwtag  DW_TAG_variable, DW_AT_name("pllRDBypass")
    2008                      .dwattr $C$DW$207, DW_AT_TI_symbol_name("_pllRDBypass")
    2009                      .dwattr $C$DW$207, DW_AT_type(*$C$DW$T$40)
    2010                      .dwattr $C$DW$207, DW_AT_location[DW_OP_bregx 0x24 0]
    2011              $C$DW$208       .dwtag  DW_TAG_variable, DW_AT_name("pllOutDiv")
TMS320C55x Assembler PC v4.4.1 Sat Sep 29 23:09:03 2018

Tools Copyright (c) 1996-2012 Texas Instruments Incorporated
csl_mmcsd_MmcCardExample.asm                                         PAGE   46

    2012                      .dwattr $C$DW$208, DW_AT_TI_symbol_name("_pllOutDiv")
    2013                      .dwattr $C$DW$208, DW_AT_type(*$C$DW$T$40)
    2014                      .dwattr $C$DW$208, DW_AT_location[DW_OP_bregx 0x24 1]
    2015              $C$DW$209       .dwtag  DW_TAG_variable, DW_AT_name("sysClk")
    2016                      .dwattr $C$DW$209, DW_AT_TI_symbol_name("_sysClk")
    2017                      .dwattr $C$DW$209, DW_AT_type(*$C$DW$T$28)
    2018                      .dwattr $C$DW$209, DW_AT_location[DW_OP_bregx 0x24 2]
    2019              $C$DW$210       .dwtag  DW_TAG_variable, DW_AT_name("pllVP")
    2020                      .dwattr $C$DW$210, DW_AT_TI_symbol_name("_pllVP")
    2021                      .dwattr $C$DW$210, DW_AT_type(*$C$DW$T$19)
    2022                      .dwattr $C$DW$210, DW_AT_location[DW_OP_bregx 0x24 4]
    2023              $C$DW$211       .dwtag  DW_TAG_variable, DW_AT_name("pllVS")
    2024                      .dwattr $C$DW$211, DW_AT_TI_symbol_name("_pllVS")
    2025                      .dwattr $C$DW$211, DW_AT_type(*$C$DW$T$19)
    2026                      .dwattr $C$DW$211, DW_AT_location[DW_OP_bregx 0x24 5]
    2027              $C$DW$212       .dwtag  DW_TAG_variable, DW_AT_name("pllRD")
    2028                      .dwattr $C$DW$212, DW_AT_TI_symbol_name("_pllRD")
    2029                      .dwattr $C$DW$212, DW_AT_type(*$C$DW$T$19)
    2030                      .dwattr $C$DW$212, DW_AT_location[DW_OP_bregx 0x24 6]
    2031              $C$DW$213       .dwtag  DW_TAG_variable, DW_AT_name("pllVO")
    2032                      .dwattr $C$DW$213, DW_AT_TI_symbol_name("_pllVO")
    2033                      .dwattr $C$DW$213, DW_AT_type(*$C$DW$T$19)
    2034                      .dwattr $C$DW$213, DW_AT_location[DW_OP_bregx 0x24 7]
    2035                      .dwpsn  file "../c5535_bsl_revc/ezdsp5535_v1/c55xx_csl/ccs_v4.0_examples/mmc_sd/CSL_MMCSD_MmcCardExam
    2036 0006de A951          MOV *port(#7200), AR1 ; |734| 
         0006e0 1C20 
    2037 0006e2 7D0F          AND #0x0ffc, AR1, AC0 ; |734| 
         0006e4 FC09 
    2038 0006e6 1005          SFTS AC0, #-2, AC0 ; |734| 
         0006e8 3E   
    2039 0006e9 C008          MOV AC0, *SP(#4) ; |734| 
    2040                      .dwpsn  file "../c5535_bsl_revc/ezdsp5535_v1/c55xx_csl/ccs_v4.0_examples/mmc_sd/CSL_MMCSD_MmcCardExam
    2041 0006eb A951          MOV *port(#7200), AR1 ; |735| 
         0006ed 1C20 
    2042 0006ef 1803          AND #0x0003, AR1, AC0 ; |735| 
         0006f1 09   
    2043 0006f2 C00A          MOV AC0, *SP(#5) ; |735| 
    2044                      .dwpsn  file "../c5535_bsl_revc/ezdsp5535_v1/c55xx_csl/ccs_v4.0_examples/mmc_sd/CSL_MMCSD_MmcCardExam
    2045 0006f4 A951          MOV *port(#7201), AR1 ; |737| 
         0006f6 1C21 
    2046 0006f8 7D0F          AND #0x0fff, AR1, AC0 ; |737| 
         0006fa FF09 
    2047 0006fc C00C          MOV AC0, *SP(#6) ; |737| 
    2048                      .dwpsn  file "../c5535_bsl_revc/ezdsp5535_v1/c55xx_csl/ccs_v4.0_examples/mmc_sd/CSL_MMCSD_MmcCardExam
    2049 0006fe DF51          MOV uns(low_byte(*port(#7203))), AR1 ; |738| 
         000700 931C 
         000702 23   
    2050 000703 C90E          MOV AR1, *SP(#7) ; |738| 
    2051                      .dwpsn  file "../c5535_bsl_revc/ezdsp5535_v1/c55xx_csl/ccs_v4.0_examples/mmc_sd/CSL_MMCSD_MmcCardExam
    2052 000705 A951          MOV *port(#7201), AR1 ; |740| 
         000707 1C21 
    2053 000709 7D80          AND #0x8000, AR1, AC0 ; |740| 
         00070b 0009 
    2054 00070d 1005          SFTS AC0, #-15, AC0 ; |740| 
         00070f 31   
TMS320C55x Assembler PC v4.4.1 Sat Sep 29 23:09:03 2018

Tools Copyright (c) 1996-2012 Texas Instruments Incorporated
csl_mmcsd_MmcCardExample.asm                                         PAGE   47

    2055 000710 C000          MOV AC0, *SP(#0) ; |740| 
    2056                      .dwpsn  file "../c5535_bsl_revc/ezdsp5535_v1/c55xx_csl/ccs_v4.0_examples/mmc_sd/CSL_MMCSD_MmcCardExam
    2057 000712 A951          MOV *port(#7203), AR1 ; |741| 
         000714 1C23 
    2058 000716 7D02          AND #0x0200, AR1, AC0 ; |741| 
         000718 0009 
    2059 00071a 1005          SFTS AC0, #-9, AC0 ; |741| 
         00071c 37   
    2060 00071d C002          MOV AC0, *SP(#1) ; |741| 
    2061                      .dwpsn  file "../c5535_bsl_revc/ezdsp5535_v1/c55xx_csl/ccs_v4.0_examples/mmc_sd/CSL_MMCSD_MmcCardExam
    2062 00071f 3C00          MOV #0, AC0 ; |743| 
    2063 000721 7E80          OR #0x8000, AC0, AC0 ; |743| 
         000723 0000 
    2064 000725 EB04          MOV AC0, dbl(*SP(#2)) ; |743| 
         000727 08   
    2065                      .dwpsn  file "../c5535_bsl_revc/ezdsp5535_v1/c55xx_csl/ccs_v4.0_examples/mmc_sd/CSL_MMCSD_MmcCardExam
    2066              
    2067 000728 A900          MOV *SP(#0), AR1 ; |745| 
    2068 00072a 3D0A  ||      MOV #0, AR2
    2069              
    2070 00072c 12AC          CMP AR2 != AR1, TC1 ; |745| 
         00072e 90   
    2071 00072f 0464          BCC $C$L47,TC1 ; |745| 
         000731 12   
    2072                                                      ; branchcc occurs ; |745| 
    2073                      .dwpsn  file "../c5535_bsl_revc/ezdsp5535_v1/c55xx_csl/ccs_v4.0_examples/mmc_sd/CSL_MMCSD_MmcCardExam
    2074 000732 A90C          MOV *SP(#6), AR1 ; |747| 
    2075              
    2076 000737 4149          ADD #4, AR1 ; |747| 
    2077 000734 ED04  ||      MOV dbl(*SP(#2)), AC0 ; |747| 
         000736 08   
    2078              
    2079 000739 7DFF          AND #0xffff, AR1, AC1 ; |747| 
         00073b FF19 
    2080              $C$DW$214       .dwtag  DW_TAG_TI_branch
    2081                      .dwattr $C$DW$214, DW_AT_low_pc(0x00)
    2082                      .dwattr $C$DW$214, DW_AT_name("__divul")
    2083                      .dwattr $C$DW$214, DW_AT_TI_call
    2084 00073d 6C00          CALL #__divul ; |747| 
         00073f 0000!
    2085                                                      ; call occurs [#__divul] ; |747| 
    2086 000741 EB04          MOV AC0, dbl(*SP(#2)) ; |747| 
         000743 08   
    2087 000744       $C$L47:    
    2088                      .dwpsn  file "../c5535_bsl_revc/ezdsp5535_v1/c55xx_csl/ccs_v4.0_examples/mmc_sd/CSL_MMCSD_MmcCardExam
    2089 000744 A008          MOV *SP(#4), AC0 ; |750| 
    2090 000746 1007          SFTL AC0, #2, AC0 ; |750| 
         000748 02   
    2091 000749 D60A          ADD *SP(#5), AC0, AR1 ; |750| 
         00074b 90   
    2092 00074c 4049          ADD #4, AR1 ; |750| 
    2093 00074e 7DFF          AND #0xffff, AR1, AC1 ; |750| 
         000750 FF19 
    2094 000752 ED04          MOV dbl(*SP(#2)), AC0 ; |750| 
         000754 08   
TMS320C55x Assembler PC v4.4.1 Sat Sep 29 23:09:03 2018

Tools Copyright (c) 1996-2012 Texas Instruments Incorporated
csl_mmcsd_MmcCardExample.asm                                         PAGE   48

    2095              $C$DW$215       .dwtag  DW_TAG_TI_branch
    2096                      .dwattr $C$DW$215, DW_AT_low_pc(0x00)
    2097                      .dwattr $C$DW$215, DW_AT_name("__mpyli")
    2098                      .dwattr $C$DW$215, DW_AT_TI_call
    2099 000755 6C00          CALL #__mpyli ; |750| 
         000757 0000!
    2100                                                      ; call occurs [#__mpyli] ; |750| 
    2101 000759 EB04          MOV AC0, dbl(*SP(#2)) ; |750| 
         00075b 08   
    2102                      .dwpsn  file "../c5535_bsl_revc/ezdsp5535_v1/c55xx_csl/ccs_v4.0_examples/mmc_sd/CSL_MMCSD_MmcCardExam
    2103              
    2104 00075c A902          MOV *SP(#1), AR1 ; |752| 
    2105 00075e 3D1A  ||      MOV #1, AR2
    2106              
    2107 000760 12AC          CMP AR2 != AR1, TC1 ; |752| 
         000762 90   
    2108 000763 0464          BCC $C$L48,TC1 ; |752| 
         000765 12   
    2109                                                      ; branchcc occurs ; |752| 
    2110                      .dwpsn  file "../c5535_bsl_revc/ezdsp5535_v1/c55xx_csl/ccs_v4.0_examples/mmc_sd/CSL_MMCSD_MmcCardExam
    2111 000766 A90E          MOV *SP(#7), AR1 ; |754| 
    2112              
    2113 00076b 4119          ADD #1, AR1 ; |754| 
    2114 000768 ED04  ||      MOV dbl(*SP(#2)), AC0 ; |754| 
         00076a 08   
    2115              
    2116 00076d 7DFF          AND #0xffff, AR1, AC1 ; |754| 
         00076f FF19 
    2117              $C$DW$216       .dwtag  DW_TAG_TI_branch
    2118                      .dwattr $C$DW$216, DW_AT_low_pc(0x00)
    2119                      .dwattr $C$DW$216, DW_AT_name("__divul")
    2120                      .dwattr $C$DW$216, DW_AT_TI_call
    2121 000771 6C00          CALL #__divul ; |754| 
         000773 0000!
    2122                                                      ; call occurs [#__divul] ; |754| 
    2123 000775 EB04          MOV AC0, dbl(*SP(#2)) ; |754| 
         000777 08   
    2124 000778       $C$L48:    
    2125                      .dwpsn  file "../c5535_bsl_revc/ezdsp5535_v1/c55xx_csl/ccs_v4.0_examples/mmc_sd/CSL_MMCSD_MmcCardExam
    2126 000778 ED04          MOV dbl(*SP(#2)), AC0 ; |758| 
         00077a 08   
    2127 00077b 7603          MOV #1000, AC1 ; |758| 
         00077d E818 
    2128              $C$DW$217       .dwtag  DW_TAG_TI_branch
    2129                      .dwattr $C$DW$217, DW_AT_low_pc(0x00)
    2130                      .dwattr $C$DW$217, DW_AT_name("__divul")
    2131                      .dwattr $C$DW$217, DW_AT_TI_call
    2132 00077f 6C00          CALL #__divul ; |758| 
         000781 0000!
    2133                                                      ; call occurs [#__divul] ; |758| 
    2134                      .dwpsn  file "../c5535_bsl_revc/ezdsp5535_v1/c55xx_csl/ccs_v4.0_examples/mmc_sd/CSL_MMCSD_MmcCardExam
    2135 000783 4E09          AADD #9, SP
    2136                      .dwcfi  cfa_offset, 1
    2137              $C$DW$218       .dwtag  DW_TAG_TI_branch
    2138                      .dwattr $C$DW$218, DW_AT_low_pc(0x00)
TMS320C55x Assembler PC v4.4.1 Sat Sep 29 23:09:03 2018

Tools Copyright (c) 1996-2012 Texas Instruments Incorporated
csl_mmcsd_MmcCardExample.asm                                         PAGE   49

    2139                      .dwattr $C$DW$218, DW_AT_TI_return
    2140 000785 4804          RET
    2141                                                      ; return occurs
    2142                      .dwattr $C$DW$206, DW_AT_TI_end_file("../c5535_bsl_revc/ezdsp5535_v1/c55xx_csl/ccs_v4.0_examples/mmc_
    2143                      .dwattr $C$DW$206, DW_AT_TI_end_line(0x2f7)
    2144                      .dwattr $C$DW$206, DW_AT_TI_end_column(0x01)
    2145                      .dwendentry
    2146                      .dwendtag $C$DW$206
    2147              
    2148              ;*******************************************************************************
    2149              ;* FAR STRINGS                                                                 *
    2150              ;*******************************************************************************
    2151 000000               .sect   ".const:.string"
    2152                      .align  2
    2153 000000 000A  $C$FSL1:        .string 10,"CSL MMCSD - MMC CARD POLL MODE TEST!",10,10,0
         000001 0043 
         000002 0053 
         000003 004C 
         000004 0020 
         000005 004D 
         000006 004D 
         000007 0043 
         000008 0053 
         000009 0044 
         00000a 0020 
         00000b 002D 
         00000c 0020 
         00000d 004D 
         00000e 004D 
         00000f 0043 
         000010 0020 
         000011 0043 
         000012 0041 
         000013 0052 
         000014 0044 
         000015 0020 
         000016 0050 
         000017 004F 
         000018 004C 
         000019 004C 
         00001a 0020 
         00001b 004D 
         00001c 004F 
         00001d 0044 
         00001e 0045 
         00001f 0020 
         000020 0054 
         000021 0045 
         000022 0053 
         000023 0054 
         000024 0021 
         000025 000A 
         000026 000A 
         000027 0000 
    2154                      .align  2
TMS320C55x Assembler PC v4.4.1 Sat Sep 29 23:09:03 2018

Tools Copyright (c) 1996-2012 Texas Instruments Incorporated
csl_mmcsd_MmcCardExample.asm                                         PAGE   50

    2155 000028 000A  $C$FSL2:        .string 10,"CSL MMCSD - MMC CARD POLL MODE TEST FAILED!!",10,0
         000029 0043 
         00002a 0053 
         00002b 004C 
         00002c 0020 
         00002d 004D 
         00002e 004D 
         00002f 0043 
         000030 0053 
         000031 0044 
         000032 0020 
         000033 002D 
         000034 0020 
         000035 004D 
         000036 004D 
         000037 0043 
         000038 0020 
         000039 0043 
         00003a 0041 
         00003b 0052 
         00003c 0044 
         00003d 0020 
         00003e 0050 
         00003f 004F 
         000040 004C 
         000041 004C 
         000042 0020 
         000043 004D 
         000044 004F 
         000045 0044 
         000046 0045 
         000047 0020 
         000048 0054 
         000049 0045 
         00004a 0053 
         00004b 0054 
         00004c 0020 
         00004d 0046 
         00004e 0041 
         00004f 0049 
         000050 004C 
         000051 0045 
         000052 0044 
         000053 0021 
         000054 0021 
         000055 000A 
         000056 0000 
    2156                      .align  2
    2157 000058 000A  $C$FSL3:        .string 10,"CSL MMCSD - MMC CARD POLL MODE TEST PASSED!!",10,0
         000059 0043 
         00005a 0053 
         00005b 004C 
         00005c 0020 
         00005d 004D 
         00005e 004D 
TMS320C55x Assembler PC v4.4.1 Sat Sep 29 23:09:03 2018

Tools Copyright (c) 1996-2012 Texas Instruments Incorporated
csl_mmcsd_MmcCardExample.asm                                         PAGE   51

         00005f 0043 
         000060 0053 
         000061 0044 
         000062 0020 
         000063 002D 
         000064 0020 
         000065 004D 
         000066 004D 
         000067 0043 
         000068 0020 
         000069 0043 
         00006a 0041 
         00006b 0052 
         00006c 0044 
         00006d 0020 
         00006e 0050 
         00006f 004F 
         000070 004C 
         000071 004C 
         000072 0020 
         000073 004D 
         000074 004F 
         000075 0044 
         000076 0045 
         000077 0020 
         000078 0054 
         000079 0045 
         00007a 0053 
         00007b 0054 
         00007c 0020 
         00007d 0050 
         00007e 0041 
         00007f 0053 
         000080 0053 
         000081 0045 
         000082 0044 
         000083 0021 
         000084 0021 
         000085 000A 
         000086 0000 
    2158                      .align  2
    2159 000088 0041  $C$FSL4:        .string "API: MMC_init Failed",10,0
         000089 0050 
         00008a 0049 
         00008b 003A 
         00008c 0020 
         00008d 004D 
         00008e 004D 
         00008f 0043 
         000090 005F 
         000091 0069 
         000092 006E 
         000093 0069 
         000094 0074 
         000095 0020 
TMS320C55x Assembler PC v4.4.1 Sat Sep 29 23:09:03 2018

Tools Copyright (c) 1996-2012 Texas Instruments Incorporated
csl_mmcsd_MmcCardExample.asm                                         PAGE   52

         000096 0046 
         000097 0061 
         000098 0069 
         000099 006C 
         00009a 0065 
         00009b 0064 
         00009c 000A 
         00009d 0000 
    2160                      .align  2
    2161 00009e 0041  $C$FSL5:        .string "API: MMC_open Failed",10,0
         00009f 0050 
         0000a0 0049 
         0000a1 003A 
         0000a2 0020 
         0000a3 004D 
         0000a4 004D 
         0000a5 0043 
         0000a6 005F 
         0000a7 006F 
         0000a8 0070 
         0000a9 0065 
         0000aa 006E 
         0000ab 0020 
         0000ac 0046 
         0000ad 0061 
         0000ae 0069 
         0000af 006C 
         0000b0 0065 
         0000b1 0064 
         0000b2 000A 
         0000b3 0000 
    2162                      .align  2
    2163 0000b4 0041  $C$FSL6:        .string "API: MMC_open Successful",10,0
         0000b5 0050 
         0000b6 0049 
         0000b7 003A 
         0000b8 0020 
         0000b9 004D 
         0000ba 004D 
         0000bb 0043 
         0000bc 005F 
         0000bd 006F 
         0000be 0070 
         0000bf 0065 
         0000c0 006E 
         0000c1 0020 
         0000c2 0053 
         0000c3 0075 
         0000c4 0063 
         0000c5 0063 
         0000c6 0065 
         0000c7 0073 
         0000c8 0073 
         0000c9 0066 
         0000ca 0075 
TMS320C55x Assembler PC v4.4.1 Sat Sep 29 23:09:03 2018

Tools Copyright (c) 1996-2012 Texas Instruments Incorporated
csl_mmcsd_MmcCardExample.asm                                         PAGE   53

         0000cb 006C 
         0000cc 000A 
         0000cd 0000 
    2164                      .align  2
    2165 0000ce 0041  $C$FSL7:        .string "API: MMC_sendGoIdle Failed",10,0
         0000cf 0050 
         0000d0 0049 
         0000d1 003A 
         0000d2 0020 
         0000d3 004D 
         0000d4 004D 
         0000d5 0043 
         0000d6 005F 
         0000d7 0073 
         0000d8 0065 
         0000d9 006E 
         0000da 0064 
         0000db 0047 
         0000dc 006F 
         0000dd 0049 
         0000de 0064 
         0000df 006C 
         0000e0 0065 
         0000e1 0020 
         0000e2 0046 
         0000e3 0061 
         0000e4 0069 
         0000e5 006C 
         0000e6 0065 
         0000e7 0064 
         0000e8 000A 
         0000e9 0000 
    2166                      .align  2
    2167 0000ea 0041  $C$FSL8:        .string "API: MMC_selectCard Failed",10,0
         0000eb 0050 
         0000ec 0049 
         0000ed 003A 
         0000ee 0020 
         0000ef 004D 
         0000f0 004D 
         0000f1 0043 
         0000f2 005F 
         0000f3 0073 
         0000f4 0065 
         0000f5 006C 
         0000f6 0065 
         0000f7 0063 
         0000f8 0074 
         0000f9 0043 
         0000fa 0061 
         0000fb 0072 
         0000fc 0064 
         0000fd 0020 
         0000fe 0046 
         0000ff 0061 
TMS320C55x Assembler PC v4.4.1 Sat Sep 29 23:09:03 2018

Tools Copyright (c) 1996-2012 Texas Instruments Incorporated
csl_mmcsd_MmcCardExample.asm                                         PAGE   54

         000100 0069 
         000101 006C 
         000102 0065 
         000103 0064 
         000104 000A 
         000105 0000 
    2168                      .align  2
    2169 000106 004D  $C$FSL9:        .string "MMC Card Detected!",10,10,0
         000107 004D 
         000108 0043 
         000109 0020 
         00010a 0043 
         00010b 0061 
         00010c 0072 
         00010d 0064 
         00010e 0020 
         00010f 0044 
         000110 0065 
         000111 0074 
         000112 0065 
         000113 0063 
         000114 0074 
         000115 0065 
         000116 0064 
         000117 0021 
         000118 000A 
         000119 000A 
         00011a 0000 
    2170                      .align  2
    2171 00011c 004E  $C$FSL10:       .string "No Card Detected!",10,0
         00011d 006F 
         00011e 0020 
         00011f 0043 
         000120 0061 
         000121 0072 
         000122 0064 
         000123 0020 
         000124 0044 
         000125 0065 
         000126 0074 
         000127 0065 
         000128 0063 
         000129 0074 
         00012a 0065 
         00012b 0064 
         00012c 0021 
         00012d 000A 
         00012e 0000 
    2172                      .align  2
    2173 000130 004D  $C$FSL11:       .string "MMC Card not Detected!",10,0
         000131 004D 
         000132 0043 
         000133 0020 
         000134 0043 
         000135 0061 
TMS320C55x Assembler PC v4.4.1 Sat Sep 29 23:09:03 2018

Tools Copyright (c) 1996-2012 Texas Instruments Incorporated
csl_mmcsd_MmcCardExample.asm                                         PAGE   55

         000136 0072 
         000137 0064 
         000138 0020 
         000139 006E 
         00013a 006F 
         00013b 0074 
         00013c 0020 
         00013d 0044 
         00013e 0065 
         00013f 0074 
         000140 0065 
         000141 0063 
         000142 0074 
         000143 0065 
         000144 0064 
         000145 0021 
         000146 000A 
         000147 0000 
    2174                      .align  2
    2175 000148 0050  $C$FSL12:       .string "Please Insert MMC Card!!",10,0
         000149 006C 
         00014a 0065 
         00014b 0061 
         00014c 0073 
         00014d 0065 
         00014e 0020 
         00014f 0049 
         000150 006E 
         000151 0073 
         000152 0065 
         000153 0072 
         000154 0074 
         000155 0020 
         000156 004D 
         000157 004D 
         000158 0043 
         000159 0020 
         00015a 0043 
         00015b 0061 
         00015c 0072 
         00015d 0064 
         00015e 0021 
         00015f 0021 
         000160 000A 
         000161 0000 
    2176                      .align  2
    2177 000162 0041  $C$FSL13:       .string "API: MMC_sendAllCID Failed",10,0
         000163 0050 
         000164 0049 
         000165 003A 
         000166 0020 
         000167 004D 
         000168 004D 
         000169 0043 
         00016a 005F 
TMS320C55x Assembler PC v4.4.1 Sat Sep 29 23:09:03 2018

Tools Copyright (c) 1996-2012 Texas Instruments Incorporated
csl_mmcsd_MmcCardExample.asm                                         PAGE   56

         00016b 0073 
         00016c 0065 
         00016d 006E 
         00016e 0064 
         00016f 0041 
         000170 006C 
         000171 006C 
         000172 0043 
         000173 0049 
         000174 0044 
         000175 0020 
         000176 0046 
         000177 0061 
         000178 0069 
         000179 006C 
         00017a 0065 
         00017b 0064 
         00017c 000A 
         00017d 0000 
    2178                      .align  2
    2179 00017e 0041  $C$FSL14:       .string "API: MMC_setRca Failed",10,0
         00017f 0050 
         000180 0049 
         000181 003A 
         000182 0020 
         000183 004D 
         000184 004D 
         000185 0043 
         000186 005F 
         000187 0073 
         000188 0065 
         000189 0074 
         00018a 0052 
         00018b 0063 
         00018c 0061 
         00018d 0020 
         00018e 0046 
         00018f 0061 
         000190 0069 
         000191 006C 
         000192 0065 
         000193 0064 
         000194 000A 
         000195 0000 
    2180                      .align  2
    2181 000196 0041  $C$FSL15:       .string "API: MMC_getCardCsd Failed",10,0
         000197 0050 
         000198 0049 
         000199 003A 
         00019a 0020 
         00019b 004D 
         00019c 004D 
         00019d 0043 
         00019e 005F 
         00019f 0067 
TMS320C55x Assembler PC v4.4.1 Sat Sep 29 23:09:03 2018

Tools Copyright (c) 1996-2012 Texas Instruments Incorporated
csl_mmcsd_MmcCardExample.asm                                         PAGE   57

         0001a0 0065 
         0001a1 0074 
         0001a2 0043 
         0001a3 0061 
         0001a4 0072 
         0001a5 0064 
         0001a6 0043 
         0001a7 0073 
         0001a8 0064 
         0001a9 0020 
         0001aa 0046 
         0001ab 0061 
         0001ac 0069 
         0001ad 006C 
         0001ae 0065 
         0001af 0064 
         0001b0 000A 
         0001b1 0000 
    2182                      .align  2
    2183 0001b2 0041  $C$FSL16:       .string "API: MMC_setCardType Failed",10,0
         0001b3 0050 
         0001b4 0049 
         0001b5 003A 
         0001b6 0020 
         0001b7 004D 
         0001b8 004D 
         0001b9 0043 
         0001ba 005F 
         0001bb 0073 
         0001bc 0065 
         0001bd 0074 
         0001be 0043 
         0001bf 0061 
         0001c0 0072 
         0001c1 0064 
         0001c2 0054 
         0001c3 0079 
         0001c4 0070 
         0001c5 0065 
         0001c6 0020 
         0001c7 0046 
         0001c8 0061 
         0001c9 0069 
         0001ca 006C 
         0001cb 0065 
         0001cc 0064 
         0001cd 000A 
         0001ce 0000 
    2184                      .align  2
    2185 0001d0 0041  $C$FSL17:       .string "API: MMC_setCardPtr Failed",10,0
         0001d1 0050 
         0001d2 0049 
         0001d3 003A 
         0001d4 0020 
         0001d5 004D 
TMS320C55x Assembler PC v4.4.1 Sat Sep 29 23:09:03 2018

Tools Copyright (c) 1996-2012 Texas Instruments Incorporated
csl_mmcsd_MmcCardExample.asm                                         PAGE   58

         0001d6 004D 
         0001d7 0043 
         0001d8 005F 
         0001d9 0073 
         0001da 0065 
         0001db 0074 
         0001dc 0043 
         0001dd 0061 
         0001de 0072 
         0001df 0064 
         0001e0 0050 
         0001e1 0074 
         0001e2 0072 
         0001e3 0020 
         0001e4 0046 
         0001e5 0061 
         0001e6 0069 
         0001e7 006C 
         0001e8 0065 
         0001e9 0064 
         0001ea 000A 
         0001eb 0000 
    2186                      .align  2
    2187 0001ec 0041  $C$FSL18:       .string "API: MMC_getNumberOfCards Failed",10,0
         0001ed 0050 
         0001ee 0049 
         0001ef 003A 
         0001f0 0020 
         0001f1 004D 
         0001f2 004D 
         0001f3 0043 
         0001f4 005F 
         0001f5 0067 
         0001f6 0065 
         0001f7 0074 
         0001f8 004E 
         0001f9 0075 
         0001fa 006D 
         0001fb 0062 
         0001fc 0065 
         0001fd 0072 
         0001fe 004F 
         0001ff 0066 
         000200 0043 
         000201 0061 
         000202 0072 
         000203 0064 
         000204 0073 
         000205 0020 
         000206 0046 
         000207 0061 
         000208 0069 
         000209 006C 
         00020a 0065 
         00020b 0064 
TMS320C55x Assembler PC v4.4.1 Sat Sep 29 23:09:03 2018

Tools Copyright (c) 1996-2012 Texas Instruments Incorporated
csl_mmcsd_MmcCardExample.asm                                         PAGE   59

         00020c 000A 
         00020d 0000 
    2188                      .align  2
    2189 00020e 0041  $C$FSL19:       .string "API: MMC_sendOpCond Failed",10,0
         00020f 0050 
         000210 0049 
         000211 003A 
         000212 0020 
         000213 004D 
         000214 004D 
         000215 0043 
         000216 005F 
         000217 0073 
         000218 0065 
         000219 006E 
         00021a 0064 
         00021b 004F 
         00021c 0070 
         00021d 0043 
         00021e 006F 
         00021f 006E 
         000220 0064 
         000221 0020 
         000222 0046 
         000223 0061 
         000224 0069 
         000225 006C 
         000226 0065 
         000227 0064 
         000228 000A 
         000229 0000 
    2190                      .align  2
    2191 00022a 0041  $C$FSL20:       .string "API: MMC_setEndianMode Failed",10,0
         00022b 0050 
         00022c 0049 
         00022d 003A 
         00022e 0020 
         00022f 004D 
         000230 004D 
         000231 0043 
         000232 005F 
         000233 0073 
         000234 0065 
         000235 0074 
         000236 0045 
         000237 006E 
         000238 0064 
         000239 0069 
         00023a 0061 
         00023b 006E 
         00023c 004D 
         00023d 006F 
         00023e 0064 
         00023f 0065 
         000240 0020 
TMS320C55x Assembler PC v4.4.1 Sat Sep 29 23:09:03 2018

Tools Copyright (c) 1996-2012 Texas Instruments Incorporated
csl_mmcsd_MmcCardExample.asm                                         PAGE   60

         000241 0046 
         000242 0061 
         000243 0069 
         000244 006C 
         000245 0065 
         000246 0064 
         000247 000A 
         000248 0000 
    2192                      .align  2
    2193 00024a 0041  $C$FSL21:       .string "API: MMC_setBlockLength Failed",10,0
         00024b 0050 
         00024c 0049 
         00024d 003A 
         00024e 0020 
         00024f 004D 
         000250 004D 
         000251 0043 
         000252 005F 
         000253 0073 
         000254 0065 
         000255 0074 
         000256 0042 
         000257 006C 
         000258 006F 
         000259 0063 
         00025a 006B 
         00025b 004C 
         00025c 0065 
         00025d 006E 
         00025e 0067 
         00025f 0074 
         000260 0068 
         000261 0020 
         000262 0046 
         000263 0061 
         000264 0069 
         000265 006C 
         000266 0065 
         000267 0064 
         000268 000A 
         000269 0000 
    2194                      .align  2
    2195 00026a 0041  $C$FSL22:       .string "API: MMC_write Failed",10,0
         00026b 0050 
         00026c 0049 
         00026d 003A 
         00026e 0020 
         00026f 004D 
         000270 004D 
         000271 0043 
         000272 005F 
         000273 0077 
         000274 0072 
         000275 0069 
         000276 0074 
TMS320C55x Assembler PC v4.4.1 Sat Sep 29 23:09:03 2018

Tools Copyright (c) 1996-2012 Texas Instruments Incorporated
csl_mmcsd_MmcCardExample.asm                                         PAGE   61

         000277 0065 
         000278 0020 
         000279 0046 
         00027a 0061 
         00027b 0069 
         00027c 006C 
         00027d 0065 
         00027e 0064 
         00027f 000A 
         000280 0000 
    2196                      .align  2
    2197 000282 0041  $C$FSL23:       .string "API: MMC_write Successful",10,0
         000283 0050 
         000284 0049 
         000285 003A 
         000286 0020 
         000287 004D 
         000288 004D 
         000289 0043 
         00028a 005F 
         00028b 0077 
         00028c 0072 
         00028d 0069 
         00028e 0074 
         00028f 0065 
         000290 0020 
         000291 0053 
         000292 0075 
         000293 0063 
         000294 0063 
         000295 0065 
         000296 0073 
         000297 0073 
         000298 0066 
         000299 0075 
         00029a 006C 
         00029b 000A 
         00029c 0000 
    2198                      .align  2
    2199 00029e 0041  $C$FSL24:       .string "API: MMC_read Failed",10,0
         00029f 0050 
         0002a0 0049 
         0002a1 003A 
         0002a2 0020 
         0002a3 004D 
         0002a4 004D 
         0002a5 0043 
         0002a6 005F 
         0002a7 0072 
         0002a8 0065 
         0002a9 0061 
         0002aa 0064 
         0002ab 0020 
         0002ac 0046 
         0002ad 0061 
TMS320C55x Assembler PC v4.4.1 Sat Sep 29 23:09:03 2018

Tools Copyright (c) 1996-2012 Texas Instruments Incorporated
csl_mmcsd_MmcCardExample.asm                                         PAGE   62

         0002ae 0069 
         0002af 006C 
         0002b0 0065 
         0002b1 0064 
         0002b2 000A 
         0002b3 0000 
    2200                      .align  2
    2201 0002b4 0041  $C$FSL25:       .string "API: MMC_read Successful",10,0
         0002b5 0050 
         0002b6 0049 
         0002b7 003A 
         0002b8 0020 
         0002b9 004D 
         0002ba 004D 
         0002bb 0043 
         0002bc 005F 
         0002bd 0072 
         0002be 0065 
         0002bf 0061 
         0002c0 0064 
         0002c1 0020 
         0002c2 0053 
         0002c3 0075 
         0002c4 0063 
         0002c5 0063 
         0002c6 0065 
         0002c7 0073 
         0002c8 0073 
         0002c9 0066 
         0002ca 0075 
         0002cb 006C 
         0002cc 000A 
         0002cd 0000 
    2202                      .align  2
    2203 0002ce 0041  $C$FSL26:       .string "API: MMC_deselectCard Failed",10,0
         0002cf 0050 
         0002d0 0049 
         0002d1 003A 
         0002d2 0020 
         0002d3 004D 
         0002d4 004D 
         0002d5 0043 
         0002d6 005F 
         0002d7 0064 
         0002d8 0065 
         0002d9 0073 
         0002da 0065 
         0002db 006C 
         0002dc 0065 
         0002dd 0063 
         0002de 0074 
         0002df 0043 
         0002e0 0061 
         0002e1 0072 
         0002e2 0064 
TMS320C55x Assembler PC v4.4.1 Sat Sep 29 23:09:03 2018

Tools Copyright (c) 1996-2012 Texas Instruments Incorporated
csl_mmcsd_MmcCardExample.asm                                         PAGE   63

         0002e3 0020 
         0002e4 0046 
         0002e5 0061 
         0002e6 0069 
         0002e7 006C 
         0002e8 0065 
         0002e9 0064 
         0002ea 000A 
         0002eb 0000 
    2204                      .align  2
    2205 0002ec 0041  $C$FSL27:       .string "API: MMC_saveStatus Failed",10,0
         0002ed 0050 
         0002ee 0049 
         0002ef 003A 
         0002f0 0020 
         0002f1 004D 
         0002f2 004D 
         0002f3 0043 
         0002f4 005F 
         0002f5 0073 
         0002f6 0061 
         0002f7 0076 
         0002f8 0065 
         0002f9 0053 
         0002fa 0074 
         0002fb 0061 
         0002fc 0074 
         0002fd 0075 
         0002fe 0073 
         0002ff 0020 
         000300 0046 
         000301 0061 
         000302 0069 
         000303 006C 
         000304 0065 
         000305 0064 
         000306 000A 
         000307 0000 
    2206                      .align  2
    2207 000308 0041  $C$FSL28:       .string "API: MMC_getStatus Failed",10,0
         000309 0050 
         00030a 0049 
         00030b 003A 
         00030c 0020 
         00030d 004D 
         00030e 004D 
         00030f 0043 
         000310 005F 
         000311 0067 
         000312 0065 
         000313 0074 
         000314 0053 
         000315 0074 
         000316 0061 
         000317 0074 
TMS320C55x Assembler PC v4.4.1 Sat Sep 29 23:09:03 2018

Tools Copyright (c) 1996-2012 Texas Instruments Incorporated
csl_mmcsd_MmcCardExample.asm                                         PAGE   64

         000318 0075 
         000319 0073 
         00031a 0020 
         00031b 0046 
         00031c 0061 
         00031d 0069 
         00031e 006C 
         00031f 0065 
         000320 0064 
         000321 000A 
         000322 0000 
    2208                      .align  2
    2209 000324 0041  $C$FSL29:       .string "API: MMC_config Failed",10,0
         000325 0050 
         000326 0049 
         000327 003A 
         000328 0020 
         000329 004D 
         00032a 004D 
         00032b 0043 
         00032c 005F 
         00032d 0063 
         00032e 006F 
         00032f 006E 
         000330 0066 
         000331 0069 
         000332 0067 
         000333 0020 
         000334 0046 
         000335 0061 
         000336 0069 
         000337 006C 
         000338 0065 
         000339 0064 
         00033a 000A 
         00033b 0000 
    2210                      .align  2
    2211 00033c 0041  $C$FSL30:       .string "API: MMC_getConfig Failed",10,0
         00033d 0050 
         00033e 0049 
         00033f 003A 
         000340 0020 
         000341 004D 
         000342 004D 
         000343 0043 
         000344 005F 
         000345 0067 
         000346 0065 
         000347 0074 
         000348 0043 
         000349 006F 
         00034a 006E 
         00034b 0066 
         00034c 0069 
         00034d 0067 
TMS320C55x Assembler PC v4.4.1 Sat Sep 29 23:09:03 2018

Tools Copyright (c) 1996-2012 Texas Instruments Incorporated
csl_mmcsd_MmcCardExample.asm                                         PAGE   65

         00034e 0020 
         00034f 0046 
         000350 0061 
         000351 0069 
         000352 006C 
         000353 0065 
         000354 0064 
         000355 000A 
         000356 0000 
    2212                      .align  2
    2213 000358 0041  $C$FSL31:       .string "API: MMC_setupNative Failed",10,0
         000359 0050 
         00035a 0049 
         00035b 003A 
         00035c 0020 
         00035d 004D 
         00035e 004D 
         00035f 0043 
         000360 005F 
         000361 0073 
         000362 0065 
         000363 0074 
         000364 0075 
         000365 0070 
         000366 004E 
         000367 0061 
         000368 0074 
         000369 0069 
         00036a 0076 
         00036b 0065 
         00036c 0020 
         00036d 0046 
         00036e 0061 
         00036f 0069 
         000370 006C 
         000371 0065 
         000372 0064 
         000373 000A 
         000374 0000 
    2214                      .align  2
    2215 000376 0041  $C$FSL32:       .string "API: MMC_drrdy Failed",10,0
         000377 0050 
         000378 0049 
         000379 003A 
         00037a 0020 
         00037b 004D 
         00037c 004D 
         00037d 0043 
         00037e 005F 
         00037f 0064 
         000380 0072 
         000381 0072 
         000382 0064 
         000383 0079 
         000384 0020 
TMS320C55x Assembler PC v4.4.1 Sat Sep 29 23:09:03 2018

Tools Copyright (c) 1996-2012 Texas Instruments Incorporated
csl_mmcsd_MmcCardExample.asm                                         PAGE   66

         000385 0046 
         000386 0061 
         000387 0069 
         000388 006C 
         000389 0065 
         00038a 0064 
         00038b 000A 
         00038c 0000 
    2216                      .align  2
    2217 00038e 0041  $C$FSL33:       .string "API: MMC_dxrdy Failed",10,0
         00038f 0050 
         000390 0049 
         000391 003A 
         000392 0020 
         000393 004D 
         000394 004D 
         000395 0043 
         000396 005F 
         000397 0064 
         000398 0078 
         000399 0072 
         00039a 0064 
         00039b 0079 
         00039c 0020 
         00039d 0046 
         00039e 0061 
         00039f 0069 
         0003a0 006C 
         0003a1 0065 
         0003a2 0064 
         0003a3 000A 
         0003a4 0000 
    2218                      .align  2
    2219 0003a6 0041  $C$FSL34:       .string "API: MMC_setCallBack Failed",10,0
         0003a7 0050 
         0003a8 0049 
         0003a9 003A 
         0003aa 0020 
         0003ab 004D 
         0003ac 004D 
         0003ad 0043 
         0003ae 005F 
         0003af 0073 
         0003b0 0065 
         0003b1 0074 
         0003b2 0043 
         0003b3 0061 
         0003b4 006C 
         0003b5 006C 
         0003b6 0042 
         0003b7 0061 
         0003b8 0063 
         0003b9 006B 
         0003ba 0020 
         0003bb 0046 
TMS320C55x Assembler PC v4.4.1 Sat Sep 29 23:09:03 2018

Tools Copyright (c) 1996-2012 Texas Instruments Incorporated
csl_mmcsd_MmcCardExample.asm                                         PAGE   67

         0003bc 0061 
         0003bd 0069 
         0003be 006C 
         0003bf 0065 
         0003c0 0064 
         0003c1 000A 
         0003c2 0000 
    2220                      .align  2
    2221 0003c4 0041  $C$FSL35:       .string "API: MMC_clearResponse Failed",10,0
         0003c5 0050 
         0003c6 0049 
         0003c7 003A 
         0003c8 0020 
         0003c9 004D 
         0003ca 004D 
         0003cb 0043 
         0003cc 005F 
         0003cd 0063 
         0003ce 006C 
         0003cf 0065 
         0003d0 0061 
         0003d1 0072 
         0003d2 0052 
         0003d3 0065 
         0003d4 0073 
         0003d5 0070 
         0003d6 006F 
         0003d7 006E 
         0003d8 0073 
         0003d9 0065 
         0003da 0020 
         0003db 0046 
         0003dc 0061 
         0003dd 0069 
         0003de 006C 
         0003df 0065 
         0003e0 0064 
         0003e1 000A 
         0003e2 0000 
    2222                      .align  2
    2223 0003e4 0041  $C$FSL36:       .string "API: MMC_intEnable Failed",10,0
         0003e5 0050 
         0003e6 0049 
         0003e7 003A 
         0003e8 0020 
         0003e9 004D 
         0003ea 004D 
         0003eb 0043 
         0003ec 005F 
         0003ed 0069 
         0003ee 006E 
         0003ef 0074 
         0003f0 0045 
         0003f1 006E 
         0003f2 0061 
TMS320C55x Assembler PC v4.4.1 Sat Sep 29 23:09:03 2018

Tools Copyright (c) 1996-2012 Texas Instruments Incorporated
csl_mmcsd_MmcCardExample.asm                                         PAGE   68

         0003f3 0062 
         0003f4 006C 
         0003f5 0065 
         0003f6 0020 
         0003f7 0046 
         0003f8 0061 
         0003f9 0069 
         0003fa 006C 
         0003fb 0065 
         0003fc 0064 
         0003fd 000A 
         0003fe 0000 
    2224                      .align  2
    2225 000400 0041  $C$FSL37:       .string "API: MMC_eventEnable Failed",10,0
         000401 0050 
         000402 0049 
         000403 003A 
         000404 0020 
         000405 004D 
         000406 004D 
         000407 0043 
         000408 005F 
         000409 0065 
         00040a 0076 
         00040b 0065 
         00040c 006E 
         00040d 0074 
         00040e 0045 
         00040f 006E 
         000410 0061 
         000411 0062 
         000412 006C 
         000413 0065 
         000414 0020 
         000415 0046 
         000416 0061 
         000417 0069 
         000418 006C 
         000419 0065 
         00041a 0064 
         00041b 000A 
         00041c 0000 
    2226                      .align  2
    2227 00041e 0041  $C$FSL38:       .string "API: MMC_eventDisable Failed",10,0
         00041f 0050 
         000420 0049 
         000421 003A 
         000422 0020 
         000423 004D 
         000424 004D 
         000425 0043 
         000426 005F 
         000427 0065 
         000428 0076 
         000429 0065 
TMS320C55x Assembler PC v4.4.1 Sat Sep 29 23:09:03 2018

Tools Copyright (c) 1996-2012 Texas Instruments Incorporated
csl_mmcsd_MmcCardExample.asm                                         PAGE   69

         00042a 006E 
         00042b 0074 
         00042c 0044 
         00042d 0069 
         00042e 0073 
         00042f 0061 
         000430 0062 
         000431 006C 
         000432 0065 
         000433 0020 
         000434 0046 
         000435 0061 
         000436 0069 
         000437 006C 
         000438 0065 
         000439 0064 
         00043a 000A 
         00043b 0000 
    2228                      .align  2
    2229 00043c 0041  $C$FSL39:       .string "API: MMC_close Failed",10,0
         00043d 0050 
         00043e 0049 
         00043f 003A 
         000440 0020 
         000441 004D 
         000442 004D 
         000443 0043 
         000444 005F 
         000445 0063 
         000446 006C 
         000447 006F 
         000448 0073 
         000449 0065 
         00044a 0020 
         00044b 0046 
         00044c 0061 
         00044d 0069 
         00044e 006C 
         00044f 0065 
         000450 0064 
         000451 000A 
         000452 0000 
    2230                      .align  2
    2231 000454 0041  $C$FSL40:       .string "API: MMC_close Successful",10,0
         000455 0050 
         000456 0049 
         000457 003A 
         000458 0020 
         000459 004D 
         00045a 004D 
         00045b 0043 
         00045c 005F 
         00045d 0063 
         00045e 006C 
         00045f 006F 
TMS320C55x Assembler PC v4.4.1 Sat Sep 29 23:09:03 2018

Tools Copyright (c) 1996-2012 Texas Instruments Incorporated
csl_mmcsd_MmcCardExample.asm                                         PAGE   70

         000460 0073 
         000461 0065 
         000462 0020 
         000463 0053 
         000464 0075 
         000465 0063 
         000466 0063 
         000467 0065 
         000468 0073 
         000469 0073 
         00046a 0066 
         00046b 0075 
         00046c 006C 
         00046d 000A 
         00046e 0000 
    2232                      .align  2
    2233 000470 000A  $C$FSL41:       .string 10,"Buffer Miss Matched at Position %d",10,0
         000471 0042 
         000472 0075 
         000473 0066 
         000474 0066 
         000475 0065 
         000476 0072 
         000477 0020 
         000478 004D 
         000479 0069 
         00047a 0073 
         00047b 0073 
         00047c 0020 
         00047d 004D 
         00047e 0061 
         00047f 0074 
         000480 0063 
         000481 0068 
         000482 0065 
         000483 0064 
         000484 0020 
         000485 0061 
         000486 0074 
         000487 0020 
         000488 0050 
         000489 006F 
         00048a 0073 
         00048b 0069 
         00048c 0074 
         00048d 0069 
         00048e 006F 
         00048f 006E 
         000490 0020 
         000491 0025 
         000492 0064 
         000493 000A 
         000494 0000 
    2234                      .align  2
    2235 000496 000A  $C$FSL42:       .string 10,"MMC Card Read & Write Buffer Matched",10,0
TMS320C55x Assembler PC v4.4.1 Sat Sep 29 23:09:03 2018

Tools Copyright (c) 1996-2012 Texas Instruments Incorporated
csl_mmcsd_MmcCardExample.asm                                         PAGE   71

         000497 004D 
         000498 004D 
         000499 0043 
         00049a 0020 
         00049b 0043 
         00049c 0061 
         00049d 0072 
         00049e 0064 
         00049f 0020 
         0004a0 0052 
         0004a1 0065 
         0004a2 0061 
         0004a3 0064 
         0004a4 0020 
         0004a5 0026 
         0004a6 0020 
         0004a7 0057 
         0004a8 0072 
         0004a9 0069 
         0004aa 0074 
         0004ab 0065 
         0004ac 0020 
         0004ad 0042 
         0004ae 0075 
         0004af 0066 
         0004b0 0066 
         0004b1 0065 
         0004b2 0072 
         0004b3 0020 
         0004b4 004D 
         0004b5 0061 
         0004b6 0074 
         0004b7 0063 
         0004b8 0068 
         0004b9 0065 
         0004ba 0064 
         0004bb 000A 
         0004bc 0000 
    2236              ;******************************************************************************
    2237              ;* UNDEFINED EXTERNAL REFERENCES                                              *
    2238              ;******************************************************************************
    2239                      .global _MMC_init
    2240                      .global _MMC_open
    2241                      .global _MMC_close
    2242                      .global _MMC_setCardType
    2243                      .global _MMC_setCardPtr
    2244                      .global _MMC_setCallBack
    2245                      .global _MMC_getNumberOfCards
    2246                      .global _MMC_clearResponse
    2247                      .global _MMC_intEnable
    2248                      .global _MMC_eventEnable
    2249                      .global _MMC_eventDisable
    2250                      .global _MMC_drrdy
    2251                      .global _MMC_dxrdy
    2252                      .global _MMC_saveStatus
TMS320C55x Assembler PC v4.4.1 Sat Sep 29 23:09:03 2018

Tools Copyright (c) 1996-2012 Texas Instruments Incorporated
csl_mmcsd_MmcCardExample.asm                                         PAGE   72

    2253                      .global _MMC_getStatus
    2254                      .global _MMC_setupNative
    2255                      .global _MMC_config
    2256                      .global _MMC_getConfig
    2257                      .global _MMC_sendGoIdle
    2258                      .global _MMC_deselectCard
    2259                      .global _MMC_selectCard
    2260                      .global _MMC_sendOpCond
    2261                      .global _MMC_setRca
    2262                      .global _MMC_sendAllCID
    2263                      .global _MMC_getCardCsd
    2264                      .global _MMC_read
    2265                      .global _MMC_write
    2266                      .global _MMC_setEndianMode
    2267                      .global _MMC_setBlockLength
    2268                      .global _printf
    2269                      .global __divul
    2270                      .global __remul
    2271                      .global __mpyli
    2272              
    2273              ;*******************************************************************************
    2274              ;* TYPE INFORMATION                                                            *
    2275              ;*******************************************************************************
    2276              
    2277              $C$DW$T$32      .dwtag  DW_TAG_enumeration_type
    2278                      .dwattr $C$DW$T$32, DW_AT_byte_size(0x01)
    2279              $C$DW$219       .dwtag  DW_TAG_enumerator, DW_AT_name("CSL_CARD_NONE"), DW_AT_const_value(0x00)
    2280              $C$DW$220       .dwtag  DW_TAG_enumerator, DW_AT_name("CSL_SD_CARD"), DW_AT_const_value(0x01)
    2281              $C$DW$221       .dwtag  DW_TAG_enumerator, DW_AT_name("CSL_MMC_CARD"), DW_AT_const_value(0x02)
    2282                      .dwendtag $C$DW$T$32
    2283              
    2284              $C$DW$T$33      .dwtag  DW_TAG_typedef, DW_AT_name("CSL_CardType")
    2285                      .dwattr $C$DW$T$33, DW_AT_type(*$C$DW$T$32)
    2286                      .dwattr $C$DW$T$33, DW_AT_language(DW_LANG_C)
    2287              
    2288              $C$DW$T$53      .dwtag  DW_TAG_enumeration_type
    2289                      .dwattr $C$DW$T$53, DW_AT_byte_size(0x01)
    2290              $C$DW$222       .dwtag  DW_TAG_enumerator, DW_AT_name("CSL_DMA_CHAN0"), DW_AT_const_value(0x00)
    2291              $C$DW$223       .dwtag  DW_TAG_enumerator, DW_AT_name("CSL_DMA_CHAN1"), DW_AT_const_value(0x01)
    2292              $C$DW$224       .dwtag  DW_TAG_enumerator, DW_AT_name("CSL_DMA_CHAN2"), DW_AT_const_value(0x02)
    2293              $C$DW$225       .dwtag  DW_TAG_enumerator, DW_AT_name("CSL_DMA_CHAN3"), DW_AT_const_value(0x03)
    2294              $C$DW$226       .dwtag  DW_TAG_enumerator, DW_AT_name("CSL_DMA_CHAN4"), DW_AT_const_value(0x04)
    2295              $C$DW$227       .dwtag  DW_TAG_enumerator, DW_AT_name("CSL_DMA_CHAN5"), DW_AT_const_value(0x05)
    2296              $C$DW$228       .dwtag  DW_TAG_enumerator, DW_AT_name("CSL_DMA_CHAN6"), DW_AT_const_value(0x06)
    2297              $C$DW$229       .dwtag  DW_TAG_enumerator, DW_AT_name("CSL_DMA_CHAN7"), DW_AT_const_value(0x07)
    2298              $C$DW$230       .dwtag  DW_TAG_enumerator, DW_AT_name("CSL_DMA_CHAN8"), DW_AT_const_value(0x08)
    2299              $C$DW$231       .dwtag  DW_TAG_enumerator, DW_AT_name("CSL_DMA_CHAN9"), DW_AT_const_value(0x09)
    2300              $C$DW$232       .dwtag  DW_TAG_enumerator, DW_AT_name("CSL_DMA_CHAN10"), DW_AT_const_value(0x0a)
    2301              $C$DW$233       .dwtag  DW_TAG_enumerator, DW_AT_name("CSL_DMA_CHAN11"), DW_AT_const_value(0x0b)
    2302              $C$DW$234       .dwtag  DW_TAG_enumerator, DW_AT_name("CSL_DMA_CHAN12"), DW_AT_const_value(0x0c)
    2303              $C$DW$235       .dwtag  DW_TAG_enumerator, DW_AT_name("CSL_DMA_CHAN13"), DW_AT_const_value(0x0d)
    2304              $C$DW$236       .dwtag  DW_TAG_enumerator, DW_AT_name("CSL_DMA_CHAN14"), DW_AT_const_value(0x0e)
    2305              $C$DW$237       .dwtag  DW_TAG_enumerator, DW_AT_name("CSL_DMA_CHAN15"), DW_AT_const_value(0x0f)
    2306              $C$DW$238       .dwtag  DW_TAG_enumerator, DW_AT_name("CSL_DMA_CHAN_INV"), DW_AT_const_value(0x10)
    2307                      .dwendtag $C$DW$T$53
TMS320C55x Assembler PC v4.4.1 Sat Sep 29 23:09:03 2018

Tools Copyright (c) 1996-2012 Texas Instruments Incorporated
csl_mmcsd_MmcCardExample.asm                                         PAGE   73

    2308              
    2309              $C$DW$T$54      .dwtag  DW_TAG_typedef, DW_AT_name("CSL_DMAChanNum")
    2310                      .dwattr $C$DW$T$54, DW_AT_type(*$C$DW$T$53)
    2311                      .dwattr $C$DW$T$54, DW_AT_language(DW_LANG_C)
    2312              
    2313              $C$DW$T$55      .dwtag  DW_TAG_enumeration_type
    2314                      .dwattr $C$DW$T$55, DW_AT_byte_size(0x01)
    2315              $C$DW$239       .dwtag  DW_TAG_enumerator, DW_AT_name("CSL_DMA_ENGINE0"), DW_AT_const_value(0x00)
    2316              $C$DW$240       .dwtag  DW_TAG_enumerator, DW_AT_name("CSL_DMA_ENGINE1"), DW_AT_const_value(0x01)
    2317              $C$DW$241       .dwtag  DW_TAG_enumerator, DW_AT_name("CSL_DMA_ENGINE2"), DW_AT_const_value(0x02)
    2318              $C$DW$242       .dwtag  DW_TAG_enumerator, DW_AT_name("CSL_DMA_ENGINE3"), DW_AT_const_value(0x03)
    2319              $C$DW$243       .dwtag  DW_TAG_enumerator, DW_AT_name("CSL_DMA_ENGINEINV"), DW_AT_const_value(0x04)
    2320                      .dwendtag $C$DW$T$55
    2321              
    2322              $C$DW$T$56      .dwtag  DW_TAG_typedef, DW_AT_name("CSL_DMAEngineId")
    2323                      .dwattr $C$DW$T$56, DW_AT_type(*$C$DW$T$55)
    2324                      .dwattr $C$DW$T$56, DW_AT_language(DW_LANG_C)
    2325              
    2326              $C$DW$T$57      .dwtag  DW_TAG_enumeration_type
    2327                      .dwattr $C$DW$T$57, DW_AT_byte_size(0x01)
    2328              $C$DW$244       .dwtag  DW_TAG_enumerator, DW_AT_name("CSL_DMA_READ"), DW_AT_const_value(0x00)
    2329              $C$DW$245       .dwtag  DW_TAG_enumerator, DW_AT_name("CSL_DMA_WRITE"), DW_AT_const_value(0x01)
    2330                      .dwendtag $C$DW$T$57
    2331              
    2332              $C$DW$T$58      .dwtag  DW_TAG_typedef, DW_AT_name("CSL_DMAChanDir")
    2333                      .dwattr $C$DW$T$58, DW_AT_type(*$C$DW$T$57)
    2334                      .dwattr $C$DW$T$58, DW_AT_language(DW_LANG_C)
    2335              
    2336              $C$DW$T$59      .dwtag  DW_TAG_enumeration_type
    2337                      .dwattr $C$DW$T$59, DW_AT_byte_size(0x01)
    2338              $C$DW$246       .dwtag  DW_TAG_enumerator, DW_AT_name("CSL_DMA_SOFTWARE_TRIGGER"), DW_AT_const_value(0x00)
    2339              $C$DW$247       .dwtag  DW_TAG_enumerator, DW_AT_name("CSL_DMA_EVENT_TRIGGER"), DW_AT_const_value(0x01)
    2340                      .dwendtag $C$DW$T$59
    2341              
    2342              $C$DW$T$60      .dwtag  DW_TAG_typedef, DW_AT_name("CSL_DMATriggerType")
    2343                      .dwattr $C$DW$T$60, DW_AT_type(*$C$DW$T$59)
    2344                      .dwattr $C$DW$T$60, DW_AT_language(DW_LANG_C)
    2345              
    2346              $C$DW$T$61      .dwtag  DW_TAG_enumeration_type
    2347                      .dwattr $C$DW$T$61, DW_AT_byte_size(0x01)
    2348              $C$DW$248       .dwtag  DW_TAG_enumerator, DW_AT_name("CSL_DMA_TRANSFER_IO_MEMORY"), DW_AT_const_value(0x00)
    2349              $C$DW$249       .dwtag  DW_TAG_enumerator, DW_AT_name("CSL_DMA_TRANSFER_MEMORY"), DW_AT_const_value(0x01)
    2350                      .dwendtag $C$DW$T$61
    2351              
    2352              $C$DW$T$62      .dwtag  DW_TAG_typedef, DW_AT_name("CSL_DMATransferType")
    2353                      .dwattr $C$DW$T$62, DW_AT_type(*$C$DW$T$61)
    2354                      .dwattr $C$DW$T$62, DW_AT_language(DW_LANG_C)
    2355              
    2356              $C$DW$T$63      .dwtag  DW_TAG_enumeration_type
    2357                      .dwattr $C$DW$T$63, DW_AT_byte_size(0x01)
    2358              $C$DW$250       .dwtag  DW_TAG_enumerator, DW_AT_name("CSL_DMA_INTERRUPT_DISABLE"), DW_AT_const_value(0x00)
    2359              $C$DW$251       .dwtag  DW_TAG_enumerator, DW_AT_name("CSL_DMA_INTERRUPT_ENABLE"), DW_AT_const_value(0x01)
    2360                      .dwendtag $C$DW$T$63
    2361              
    2362              $C$DW$T$64      .dwtag  DW_TAG_typedef, DW_AT_name("CSL_DMAInterruptState")
TMS320C55x Assembler PC v4.4.1 Sat Sep 29 23:09:03 2018

Tools Copyright (c) 1996-2012 Texas Instruments Incorporated
csl_mmcsd_MmcCardExample.asm                                         PAGE   74

    2363                      .dwattr $C$DW$T$64, DW_AT_type(*$C$DW$T$63)
    2364                      .dwattr $C$DW$T$64, DW_AT_language(DW_LANG_C)
    2365              
    2366              $C$DW$T$66      .dwtag  DW_TAG_enumeration_type
    2367                      .dwattr $C$DW$T$66, DW_AT_byte_size(0x01)
    2368              $C$DW$252       .dwtag  DW_TAG_enumerator, DW_AT_name("CSL_DMA_PING_PONG_DISABLE"), DW_AT_const_value(0x00)
    2369              $C$DW$253       .dwtag  DW_TAG_enumerator, DW_AT_name("CSL_DMA_PING_PONG_ENABLE"), DW_AT_const_value(0x01)
    2370                      .dwendtag $C$DW$T$66
    2371              
    2372              $C$DW$T$67      .dwtag  DW_TAG_typedef, DW_AT_name("CSL_DMAPingPongMode")
    2373                      .dwattr $C$DW$T$67, DW_AT_type(*$C$DW$T$66)
    2374                      .dwattr $C$DW$T$67, DW_AT_language(DW_LANG_C)
    2375              
    2376              $C$DW$T$68      .dwtag  DW_TAG_enumeration_type
    2377                      .dwattr $C$DW$T$68, DW_AT_byte_size(0x01)
    2378              $C$DW$254       .dwtag  DW_TAG_enumerator, DW_AT_name("CSL_DMA_AUTORELOAD_DISABLE"), DW_AT_const_value(0x00)
    2379              $C$DW$255       .dwtag  DW_TAG_enumerator, DW_AT_name("CSL_DMA_AUTORELOAD_ENABLE"), DW_AT_const_value(0x01)
    2380                      .dwendtag $C$DW$T$68
    2381              
    2382              $C$DW$T$69      .dwtag  DW_TAG_typedef, DW_AT_name("CSL_DMAAutoReloadMode")
    2383                      .dwattr $C$DW$T$69, DW_AT_type(*$C$DW$T$68)
    2384                      .dwattr $C$DW$T$69, DW_AT_language(DW_LANG_C)
    2385              
    2386              $C$DW$T$70      .dwtag  DW_TAG_enumeration_type
    2387                      .dwattr $C$DW$T$70, DW_AT_byte_size(0x01)
    2388              $C$DW$256       .dwtag  DW_TAG_enumerator, DW_AT_name("CSL_DMA_TXBURST_1WORD"), DW_AT_const_value(0x00)
    2389              $C$DW$257       .dwtag  DW_TAG_enumerator, DW_AT_name("CSL_DMA_TXBURST_2WORD"), DW_AT_const_value(0x01)
    2390              $C$DW$258       .dwtag  DW_TAG_enumerator, DW_AT_name("CSL_DMA_TXBURST_4WORD"), DW_AT_const_value(0x02)
    2391              $C$DW$259       .dwtag  DW_TAG_enumerator, DW_AT_name("CSL_DMA_TXBURST_8WORD"), DW_AT_const_value(0x03)
    2392              $C$DW$260       .dwtag  DW_TAG_enumerator, DW_AT_name("CSL_DMA_TXBURST_16WORD"), DW_AT_const_value(0x04)
    2393                      .dwendtag $C$DW$T$70
    2394              
    2395              $C$DW$T$71      .dwtag  DW_TAG_typedef, DW_AT_name("CSL_DMATxBurstLen")
    2396                      .dwattr $C$DW$T$71, DW_AT_type(*$C$DW$T$70)
    2397                      .dwattr $C$DW$T$71, DW_AT_language(DW_LANG_C)
    2398              
    2399              $C$DW$T$72      .dwtag  DW_TAG_enumeration_type
    2400                      .dwattr $C$DW$T$72, DW_AT_byte_size(0x01)
    2401              $C$DW$261       .dwtag  DW_TAG_enumerator, DW_AT_name("CSL_DMA_EVT_NONE"), DW_AT_const_value(0x00)
    2402              $C$DW$262       .dwtag  DW_TAG_enumerator, DW_AT_name("CSL_DMA_EVT_I2S0_TX"), DW_AT_const_value(0x01)
    2403              $C$DW$263       .dwtag  DW_TAG_enumerator, DW_AT_name("CSL_DMA_EVT_I2S0_RX"), DW_AT_const_value(0x02)
    2404              $C$DW$264       .dwtag  DW_TAG_enumerator, DW_AT_name("CSL_DMA_EVT_I2S1_TX"), DW_AT_const_value(0x01)
    2405              $C$DW$265       .dwtag  DW_TAG_enumerator, DW_AT_name("CSL_DMA_EVT_I2S1_RX"), DW_AT_const_value(0x02)
    2406              $C$DW$266       .dwtag  DW_TAG_enumerator, DW_AT_name("CSL_DMA_EVT_I2S2_TX"), DW_AT_const_value(0x01)
    2407              $C$DW$267       .dwtag  DW_TAG_enumerator, DW_AT_name("CSL_DMA_EVT_I2S2_RX"), DW_AT_const_value(0x02)
    2408              $C$DW$268       .dwtag  DW_TAG_enumerator, DW_AT_name("CSL_DMA_EVT_I2S3_TX"), DW_AT_const_value(0x04)
    2409              $C$DW$269       .dwtag  DW_TAG_enumerator, DW_AT_name("CSL_DMA_EVT_I2S3_RX"), DW_AT_const_value(0x05)
    2410              $C$DW$270       .dwtag  DW_TAG_enumerator, DW_AT_name("CSL_DMA_EVT_MMC_SD0_TX"), DW_AT_const_value(0x05)
    2411              $C$DW$271       .dwtag  DW_TAG_enumerator, DW_AT_name("CSL_DMA_EVT_MMC_SD0_RX"), DW_AT_const_value(0x06)
    2412              $C$DW$272       .dwtag  DW_TAG_enumerator, DW_AT_name("CSL_DMA_EVT_MMC_SD1_TX"), DW_AT_const_value(0x07)
    2413              $C$DW$273       .dwtag  DW_TAG_enumerator, DW_AT_name("CSL_DMA_EVT_MMC_SD1_RX"), DW_AT_const_value(0x08)
    2414              $C$DW$274       .dwtag  DW_TAG_enumerator, DW_AT_name("CSL_DMA_EVT_TIMER0"), DW_AT_const_value(0x0c)
    2415              $C$DW$275       .dwtag  DW_TAG_enumerator, DW_AT_name("CSL_DMA_EVT_TIMER1"), DW_AT_const_value(0x0d)
    2416              $C$DW$276       .dwtag  DW_TAG_enumerator, DW_AT_name("CSL_DMA_EVT_TIMER2"), DW_AT_const_value(0x0e)
    2417              $C$DW$277       .dwtag  DW_TAG_enumerator, DW_AT_name("CSL_DMA_EVT_UART_TX"), DW_AT_const_value(0x05)
TMS320C55x Assembler PC v4.4.1 Sat Sep 29 23:09:03 2018

Tools Copyright (c) 1996-2012 Texas Instruments Incorporated
csl_mmcsd_MmcCardExample.asm                                         PAGE   75

    2418              $C$DW$278       .dwtag  DW_TAG_enumerator, DW_AT_name("CSL_DMA_EVT_UART_RX"), DW_AT_const_value(0x06)
    2419              $C$DW$279       .dwtag  DW_TAG_enumerator, DW_AT_name("CSL_DMA_EVT_I2C_TX"), DW_AT_const_value(0x01)
    2420              $C$DW$280       .dwtag  DW_TAG_enumerator, DW_AT_name("CSL_DMA_EVT_I2C_RX"), DW_AT_const_value(0x02)
    2421              $C$DW$281       .dwtag  DW_TAG_enumerator, DW_AT_name("CSL_DMA_EVT_SAR_AD"), DW_AT_const_value(0x03)
    2422              $C$DW$282       .dwtag  DW_TAG_enumerator, DW_AT_name("CSL_DMA_EVT_INVALID"), DW_AT_const_value(0x04)
    2423                      .dwendtag $C$DW$T$72
    2424              
    2425              $C$DW$T$73      .dwtag  DW_TAG_typedef, DW_AT_name("CSL_DMAEvtType")
    2426                      .dwattr $C$DW$T$73, DW_AT_type(*$C$DW$T$72)
    2427                      .dwattr $C$DW$T$73, DW_AT_language(DW_LANG_C)
    2428              
    2429              $C$DW$T$85      .dwtag  DW_TAG_enumeration_type
    2430                      .dwattr $C$DW$T$85, DW_AT_byte_size(0x01)
    2431              $C$DW$283       .dwtag  DW_TAG_enumerator, DW_AT_name("CSL_MMCSD_OPMODE_POLLED"), DW_AT_const_value(0x00)
    2432              $C$DW$284       .dwtag  DW_TAG_enumerator, DW_AT_name("CSL_MMCSD_OPMODE_INTERRUPT"), DW_AT_const_value(0x01)
    2433              $C$DW$285       .dwtag  DW_TAG_enumerator, DW_AT_name("CSL_MMCSD_OPMODE_DMA"), DW_AT_const_value(0x02)
    2434              $C$DW$286       .dwtag  DW_TAG_enumerator, DW_AT_name("CSL_MMCSD_OPMODE_NONE"), DW_AT_const_value(0x03)
    2435                      .dwendtag $C$DW$T$85
    2436              
    2437              $C$DW$T$86      .dwtag  DW_TAG_typedef, DW_AT_name("CSL_MMCSDOpMode")
    2438                      .dwattr $C$DW$T$86, DW_AT_type(*$C$DW$T$85)
    2439                      .dwattr $C$DW$T$86, DW_AT_language(DW_LANG_C)
    2440              
    2441              $C$DW$T$96      .dwtag  DW_TAG_enumeration_type
    2442                      .dwattr $C$DW$T$96, DW_AT_byte_size(0x01)
    2443              $C$DW$287       .dwtag  DW_TAG_enumerator, DW_AT_name("CSL_MMCSD_ENDIAN_LITTLE"), DW_AT_const_value(0x00)
    2444              $C$DW$288       .dwtag  DW_TAG_enumerator, DW_AT_name("CSL_MMCSD_ENDIAN_BIG"), DW_AT_const_value(0x01)
    2445                      .dwendtag $C$DW$T$96
    2446              
    2447              $C$DW$T$97      .dwtag  DW_TAG_typedef, DW_AT_name("CSL_MmcsdEndianMode")
    2448                      .dwattr $C$DW$T$97, DW_AT_type(*$C$DW$T$96)
    2449                      .dwattr $C$DW$T$97, DW_AT_language(DW_LANG_C)
    2450              
    2451              $C$DW$T$104     .dwtag  DW_TAG_enumeration_type
    2452                      .dwattr $C$DW$T$104, DW_AT_byte_size(0x01)
    2453              $C$DW$289       .dwtag  DW_TAG_enumerator, DW_AT_name("CSL_MMCSD0_INST"), DW_AT_const_value(0x00)
    2454              $C$DW$290       .dwtag  DW_TAG_enumerator, DW_AT_name("CSL_MMCSD1_INST"), DW_AT_const_value(0x01)
    2455              $C$DW$291       .dwtag  DW_TAG_enumerator, DW_AT_name("CSL_MMCSD_INST_INV"), DW_AT_const_value(0x02)
    2456                      .dwendtag $C$DW$T$104
    2457              
    2458              $C$DW$T$105     .dwtag  DW_TAG_typedef, DW_AT_name("CSL_MmcsdInstId")
    2459                      .dwattr $C$DW$T$105, DW_AT_type(*$C$DW$T$104)
    2460                      .dwattr $C$DW$T$105, DW_AT_language(DW_LANG_C)
    2461              
    2462              $C$DW$T$106     .dwtag  DW_TAG_enumeration_type
    2463                      .dwattr $C$DW$T$106, DW_AT_byte_size(0x01)
    2464              $C$DW$292       .dwtag  DW_TAG_enumerator, DW_AT_name("CSL_MMCSD_EDATDNE_INTERRUPT"), DW_AT_const_value(0x01)
    2465              $C$DW$293       .dwtag  DW_TAG_enumerator, DW_AT_name("CSL_MMCSD_EBSYDNE_INTERRUPT"), DW_AT_const_value(0x02)
    2466              $C$DW$294       .dwtag  DW_TAG_enumerator, DW_AT_name("CSL_MMCSD_ERSPDNE_INTERRUPT"), DW_AT_const_value(0x04)
    2467              $C$DW$295       .dwtag  DW_TAG_enumerator, DW_AT_name("CSL_MMCSD_ETOUTRD_INTERRUPT"), DW_AT_const_value(0x08)
    2468              $C$DW$296       .dwtag  DW_TAG_enumerator, DW_AT_name("CSL_MMCSD_ETOUTRS_INTERRUPT"), DW_AT_const_value(0x10)
    2469              $C$DW$297       .dwtag  DW_TAG_enumerator, DW_AT_name("CSL_MMCSD_ECRCWR_INTERRUPT"), DW_AT_const_value(0x20)
    2470              $C$DW$298       .dwtag  DW_TAG_enumerator, DW_AT_name("CSL_MMCSD_ECRCRD_INTERRUPT"), DW_AT_const_value(0x40)
    2471              $C$DW$299       .dwtag  DW_TAG_enumerator, DW_AT_name("CSL_MMCSD_ECRCRS_INTERRUPT"), DW_AT_const_value(0x80)
    2472              $C$DW$300       .dwtag  DW_TAG_enumerator, DW_AT_name("CSL_MMCSD_RSV_BIT"), DW_AT_const_value(0x100)
TMS320C55x Assembler PC v4.4.1 Sat Sep 29 23:09:03 2018

Tools Copyright (c) 1996-2012 Texas Instruments Incorporated
csl_mmcsd_MmcCardExample.asm                                         PAGE   76

    2473              $C$DW$301       .dwtag  DW_TAG_enumerator, DW_AT_name("CSL_MMCSD_EDXRDY_INTERRUPT"), DW_AT_const_value(0x200)
    2474              $C$DW$302       .dwtag  DW_TAG_enumerator, DW_AT_name("CSL_MMCSD_EDRRDY_INTERRUPT"), DW_AT_const_value(0x400)
    2475              $C$DW$303       .dwtag  DW_TAG_enumerator, DW_AT_name("CSL_MMCSD_EDATED_INTERRUPT"), DW_AT_const_value(0x800)
    2476              $C$DW$304       .dwtag  DW_TAG_enumerator, DW_AT_name("CSL_MMCSD_ETRNDNE_INTERRUPT"), DW_AT_const_value(0x100
    2477              $C$DW$305       .dwtag  DW_TAG_enumerator, DW_AT_name("CSL_MMCSD_INTERRUPT_NONE"), DW_AT_const_value(0x2000)
    2478                      .dwendtag $C$DW$T$106
    2479              
    2480              $C$DW$T$107     .dwtag  DW_TAG_typedef, DW_AT_name("CSL_MMCSDEventType")
    2481                      .dwattr $C$DW$T$107, DW_AT_type(*$C$DW$T$106)
    2482                      .dwattr $C$DW$T$107, DW_AT_language(DW_LANG_C)
    2483              
    2484              $C$DW$T$25      .dwtag  DW_TAG_structure_type
    2485                      .dwattr $C$DW$T$25, DW_AT_byte_size(0x75)
    2486              $C$DW$306       .dwtag  DW_TAG_member
    2487                      .dwattr $C$DW$306, DW_AT_type(*$C$DW$T$20)
    2488                      .dwattr $C$DW$306, DW_AT_name("MMCCTL")
    2489                      .dwattr $C$DW$306, DW_AT_TI_symbol_name("_MMCCTL")
    2490                      .dwattr $C$DW$306, DW_AT_data_member_location[DW_OP_plus_uconst 0x0]
    2491                      .dwattr $C$DW$306, DW_AT_accessibility(DW_ACCESS_public)
    2492              $C$DW$307       .dwtag  DW_TAG_member
    2493                      .dwattr $C$DW$307, DW_AT_type(*$C$DW$T$21)
    2494                      .dwattr $C$DW$307, DW_AT_name("RSVD0")
    2495                      .dwattr $C$DW$307, DW_AT_TI_symbol_name("_RSVD0")
    2496                      .dwattr $C$DW$307, DW_AT_data_member_location[DW_OP_plus_uconst 0x1]
    2497                      .dwattr $C$DW$307, DW_AT_accessibility(DW_ACCESS_public)
    2498              $C$DW$308       .dwtag  DW_TAG_member
    2499                      .dwattr $C$DW$308, DW_AT_type(*$C$DW$T$20)
    2500                      .dwattr $C$DW$308, DW_AT_name("MMCCLK")
    2501                      .dwattr $C$DW$308, DW_AT_TI_symbol_name("_MMCCLK")
    2502                      .dwattr $C$DW$308, DW_AT_data_member_location[DW_OP_plus_uconst 0x4]
    2503                      .dwattr $C$DW$308, DW_AT_accessibility(DW_ACCESS_public)
    2504              $C$DW$309       .dwtag  DW_TAG_member
    2505                      .dwattr $C$DW$309, DW_AT_type(*$C$DW$T$21)
    2506                      .dwattr $C$DW$309, DW_AT_name("RSVD1")
    2507                      .dwattr $C$DW$309, DW_AT_TI_symbol_name("_RSVD1")
    2508                      .dwattr $C$DW$309, DW_AT_data_member_location[DW_OP_plus_uconst 0x5]
    2509                      .dwattr $C$DW$309, DW_AT_accessibility(DW_ACCESS_public)
    2510              $C$DW$310       .dwtag  DW_TAG_member
    2511                      .dwattr $C$DW$310, DW_AT_type(*$C$DW$T$20)
    2512                      .dwattr $C$DW$310, DW_AT_name("MMCST0")
    2513                      .dwattr $C$DW$310, DW_AT_TI_symbol_name("_MMCST0")
    2514                      .dwattr $C$DW$310, DW_AT_data_member_location[DW_OP_plus_uconst 0x8]
    2515                      .dwattr $C$DW$310, DW_AT_accessibility(DW_ACCESS_public)
    2516              $C$DW$311       .dwtag  DW_TAG_member
    2517                      .dwattr $C$DW$311, DW_AT_type(*$C$DW$T$21)
    2518                      .dwattr $C$DW$311, DW_AT_name("RSVD2")
    2519                      .dwattr $C$DW$311, DW_AT_TI_symbol_name("_RSVD2")
    2520                      .dwattr $C$DW$311, DW_AT_data_member_location[DW_OP_plus_uconst 0x9]
    2521                      .dwattr $C$DW$311, DW_AT_accessibility(DW_ACCESS_public)
    2522              $C$DW$312       .dwtag  DW_TAG_member
    2523                      .dwattr $C$DW$312, DW_AT_type(*$C$DW$T$20)
    2524                      .dwattr $C$DW$312, DW_AT_name("MMCST1")
    2525                      .dwattr $C$DW$312, DW_AT_TI_symbol_name("_MMCST1")
    2526                      .dwattr $C$DW$312, DW_AT_data_member_location[DW_OP_plus_uconst 0xc]
    2527                      .dwattr $C$DW$312, DW_AT_accessibility(DW_ACCESS_public)
TMS320C55x Assembler PC v4.4.1 Sat Sep 29 23:09:03 2018

Tools Copyright (c) 1996-2012 Texas Instruments Incorporated
csl_mmcsd_MmcCardExample.asm                                         PAGE   77

    2528              $C$DW$313       .dwtag  DW_TAG_member
    2529                      .dwattr $C$DW$313, DW_AT_type(*$C$DW$T$21)
    2530                      .dwattr $C$DW$313, DW_AT_name("RSVD3")
    2531                      .dwattr $C$DW$313, DW_AT_TI_symbol_name("_RSVD3")
    2532                      .dwattr $C$DW$313, DW_AT_data_member_location[DW_OP_plus_uconst 0xd]
    2533                      .dwattr $C$DW$313, DW_AT_accessibility(DW_ACCESS_public)
    2534              $C$DW$314       .dwtag  DW_TAG_member
    2535                      .dwattr $C$DW$314, DW_AT_type(*$C$DW$T$20)
    2536                      .dwattr $C$DW$314, DW_AT_name("MMCIM")
    2537                      .dwattr $C$DW$314, DW_AT_TI_symbol_name("_MMCIM")
    2538                      .dwattr $C$DW$314, DW_AT_data_member_location[DW_OP_plus_uconst 0x10]
    2539                      .dwattr $C$DW$314, DW_AT_accessibility(DW_ACCESS_public)
    2540              $C$DW$315       .dwtag  DW_TAG_member
    2541                      .dwattr $C$DW$315, DW_AT_type(*$C$DW$T$21)
    2542                      .dwattr $C$DW$315, DW_AT_name("RSVD4")
    2543                      .dwattr $C$DW$315, DW_AT_TI_symbol_name("_RSVD4")
    2544                      .dwattr $C$DW$315, DW_AT_data_member_location[DW_OP_plus_uconst 0x11]
    2545                      .dwattr $C$DW$315, DW_AT_accessibility(DW_ACCESS_public)
    2546              $C$DW$316       .dwtag  DW_TAG_member
    2547                      .dwattr $C$DW$316, DW_AT_type(*$C$DW$T$20)
    2548                      .dwattr $C$DW$316, DW_AT_name("MMCTOR")
    2549                      .dwattr $C$DW$316, DW_AT_TI_symbol_name("_MMCTOR")
    2550                      .dwattr $C$DW$316, DW_AT_data_member_location[DW_OP_plus_uconst 0x14]
    2551                      .dwattr $C$DW$316, DW_AT_accessibility(DW_ACCESS_public)
    2552              $C$DW$317       .dwtag  DW_TAG_member
    2553                      .dwattr $C$DW$317, DW_AT_type(*$C$DW$T$21)
    2554                      .dwattr $C$DW$317, DW_AT_name("RSVD5")
    2555                      .dwattr $C$DW$317, DW_AT_TI_symbol_name("_RSVD5")
    2556                      .dwattr $C$DW$317, DW_AT_data_member_location[DW_OP_plus_uconst 0x15]
    2557                      .dwattr $C$DW$317, DW_AT_accessibility(DW_ACCESS_public)
    2558              $C$DW$318       .dwtag  DW_TAG_member
    2559                      .dwattr $C$DW$318, DW_AT_type(*$C$DW$T$20)
    2560                      .dwattr $C$DW$318, DW_AT_name("MMCTOD")
    2561                      .dwattr $C$DW$318, DW_AT_TI_symbol_name("_MMCTOD")
    2562                      .dwattr $C$DW$318, DW_AT_data_member_location[DW_OP_plus_uconst 0x18]
    2563                      .dwattr $C$DW$318, DW_AT_accessibility(DW_ACCESS_public)
    2564              $C$DW$319       .dwtag  DW_TAG_member
    2565                      .dwattr $C$DW$319, DW_AT_type(*$C$DW$T$21)
    2566                      .dwattr $C$DW$319, DW_AT_name("RSVD6")
    2567                      .dwattr $C$DW$319, DW_AT_TI_symbol_name("_RSVD6")
    2568                      .dwattr $C$DW$319, DW_AT_data_member_location[DW_OP_plus_uconst 0x19]
    2569                      .dwattr $C$DW$319, DW_AT_accessibility(DW_ACCESS_public)
    2570              $C$DW$320       .dwtag  DW_TAG_member
    2571                      .dwattr $C$DW$320, DW_AT_type(*$C$DW$T$20)
    2572                      .dwattr $C$DW$320, DW_AT_name("MMCBLEN")
    2573                      .dwattr $C$DW$320, DW_AT_TI_symbol_name("_MMCBLEN")
    2574                      .dwattr $C$DW$320, DW_AT_data_member_location[DW_OP_plus_uconst 0x1c]
    2575                      .dwattr $C$DW$320, DW_AT_accessibility(DW_ACCESS_public)
    2576              $C$DW$321       .dwtag  DW_TAG_member
    2577                      .dwattr $C$DW$321, DW_AT_type(*$C$DW$T$21)
    2578                      .dwattr $C$DW$321, DW_AT_name("RSVD7")
    2579                      .dwattr $C$DW$321, DW_AT_TI_symbol_name("_RSVD7")
    2580                      .dwattr $C$DW$321, DW_AT_data_member_location[DW_OP_plus_uconst 0x1d]
    2581                      .dwattr $C$DW$321, DW_AT_accessibility(DW_ACCESS_public)
    2582              $C$DW$322       .dwtag  DW_TAG_member
TMS320C55x Assembler PC v4.4.1 Sat Sep 29 23:09:03 2018

Tools Copyright (c) 1996-2012 Texas Instruments Incorporated
csl_mmcsd_MmcCardExample.asm                                         PAGE   78

    2583                      .dwattr $C$DW$322, DW_AT_type(*$C$DW$T$20)
    2584                      .dwattr $C$DW$322, DW_AT_name("MMCNBLK")
    2585                      .dwattr $C$DW$322, DW_AT_TI_symbol_name("_MMCNBLK")
    2586                      .dwattr $C$DW$322, DW_AT_data_member_location[DW_OP_plus_uconst 0x20]
    2587                      .dwattr $C$DW$322, DW_AT_accessibility(DW_ACCESS_public)
    2588              $C$DW$323       .dwtag  DW_TAG_member
    2589                      .dwattr $C$DW$323, DW_AT_type(*$C$DW$T$21)
    2590                      .dwattr $C$DW$323, DW_AT_name("RSVD8")
    2591                      .dwattr $C$DW$323, DW_AT_TI_symbol_name("_RSVD8")
    2592                      .dwattr $C$DW$323, DW_AT_data_member_location[DW_OP_plus_uconst 0x21]
    2593                      .dwattr $C$DW$323, DW_AT_accessibility(DW_ACCESS_public)
    2594              $C$DW$324       .dwtag  DW_TAG_member
    2595                      .dwattr $C$DW$324, DW_AT_type(*$C$DW$T$20)
    2596                      .dwattr $C$DW$324, DW_AT_name("MMCNBLC")
    2597                      .dwattr $C$DW$324, DW_AT_TI_symbol_name("_MMCNBLC")
    2598                      .dwattr $C$DW$324, DW_AT_data_member_location[DW_OP_plus_uconst 0x24]
    2599                      .dwattr $C$DW$324, DW_AT_accessibility(DW_ACCESS_public)
    2600              $C$DW$325       .dwtag  DW_TAG_member
    2601                      .dwattr $C$DW$325, DW_AT_type(*$C$DW$T$21)
    2602                      .dwattr $C$DW$325, DW_AT_name("RSVD9")
    2603                      .dwattr $C$DW$325, DW_AT_TI_symbol_name("_RSVD9")
    2604                      .dwattr $C$DW$325, DW_AT_data_member_location[DW_OP_plus_uconst 0x25]
    2605                      .dwattr $C$DW$325, DW_AT_accessibility(DW_ACCESS_public)
    2606              $C$DW$326       .dwtag  DW_TAG_member
    2607                      .dwattr $C$DW$326, DW_AT_type(*$C$DW$T$20)
    2608                      .dwattr $C$DW$326, DW_AT_name("MMCDRR1")
    2609                      .dwattr $C$DW$326, DW_AT_TI_symbol_name("_MMCDRR1")
    2610                      .dwattr $C$DW$326, DW_AT_data_member_location[DW_OP_plus_uconst 0x28]
    2611                      .dwattr $C$DW$326, DW_AT_accessibility(DW_ACCESS_public)
    2612              $C$DW$327       .dwtag  DW_TAG_member
    2613                      .dwattr $C$DW$327, DW_AT_type(*$C$DW$T$20)
    2614                      .dwattr $C$DW$327, DW_AT_name("MMCDRR2")
    2615                      .dwattr $C$DW$327, DW_AT_TI_symbol_name("_MMCDRR2")
    2616                      .dwattr $C$DW$327, DW_AT_data_member_location[DW_OP_plus_uconst 0x29]
    2617                      .dwattr $C$DW$327, DW_AT_accessibility(DW_ACCESS_public)
    2618              $C$DW$328       .dwtag  DW_TAG_member
    2619                      .dwattr $C$DW$328, DW_AT_type(*$C$DW$T$22)
    2620                      .dwattr $C$DW$328, DW_AT_name("RSVD10")
    2621                      .dwattr $C$DW$328, DW_AT_TI_symbol_name("_RSVD10")
    2622                      .dwattr $C$DW$328, DW_AT_data_member_location[DW_OP_plus_uconst 0x2a]
    2623                      .dwattr $C$DW$328, DW_AT_accessibility(DW_ACCESS_public)
    2624              $C$DW$329       .dwtag  DW_TAG_member
    2625                      .dwattr $C$DW$329, DW_AT_type(*$C$DW$T$20)
    2626                      .dwattr $C$DW$329, DW_AT_name("MMCDXR1")
    2627                      .dwattr $C$DW$329, DW_AT_TI_symbol_name("_MMCDXR1")
    2628                      .dwattr $C$DW$329, DW_AT_data_member_location[DW_OP_plus_uconst 0x2c]
    2629                      .dwattr $C$DW$329, DW_AT_accessibility(DW_ACCESS_public)
    2630              $C$DW$330       .dwtag  DW_TAG_member
    2631                      .dwattr $C$DW$330, DW_AT_type(*$C$DW$T$20)
    2632                      .dwattr $C$DW$330, DW_AT_name("MMCDXR2")
    2633                      .dwattr $C$DW$330, DW_AT_TI_symbol_name("_MMCDXR2")
    2634                      .dwattr $C$DW$330, DW_AT_data_member_location[DW_OP_plus_uconst 0x2d]
    2635                      .dwattr $C$DW$330, DW_AT_accessibility(DW_ACCESS_public)
    2636              $C$DW$331       .dwtag  DW_TAG_member
    2637                      .dwattr $C$DW$331, DW_AT_type(*$C$DW$T$22)
TMS320C55x Assembler PC v4.4.1 Sat Sep 29 23:09:03 2018

Tools Copyright (c) 1996-2012 Texas Instruments Incorporated
csl_mmcsd_MmcCardExample.asm                                         PAGE   79

    2638                      .dwattr $C$DW$331, DW_AT_name("RSVD11")
    2639                      .dwattr $C$DW$331, DW_AT_TI_symbol_name("_RSVD11")
    2640                      .dwattr $C$DW$331, DW_AT_data_member_location[DW_OP_plus_uconst 0x2e]
    2641                      .dwattr $C$DW$331, DW_AT_accessibility(DW_ACCESS_public)
    2642              $C$DW$332       .dwtag  DW_TAG_member
    2643                      .dwattr $C$DW$332, DW_AT_type(*$C$DW$T$20)
    2644                      .dwattr $C$DW$332, DW_AT_name("MMCCMD1")
    2645                      .dwattr $C$DW$332, DW_AT_TI_symbol_name("_MMCCMD1")
    2646                      .dwattr $C$DW$332, DW_AT_data_member_location[DW_OP_plus_uconst 0x30]
    2647                      .dwattr $C$DW$332, DW_AT_accessibility(DW_ACCESS_public)
    2648              $C$DW$333       .dwtag  DW_TAG_member
    2649                      .dwattr $C$DW$333, DW_AT_type(*$C$DW$T$20)
    2650                      .dwattr $C$DW$333, DW_AT_name("MMCCMD2")
    2651                      .dwattr $C$DW$333, DW_AT_TI_symbol_name("_MMCCMD2")
    2652                      .dwattr $C$DW$333, DW_AT_data_member_location[DW_OP_plus_uconst 0x31]
    2653                      .dwattr $C$DW$333, DW_AT_accessibility(DW_ACCESS_public)
    2654              $C$DW$334       .dwtag  DW_TAG_member
    2655                      .dwattr $C$DW$334, DW_AT_type(*$C$DW$T$22)
    2656                      .dwattr $C$DW$334, DW_AT_name("RSVD12")
    2657                      .dwattr $C$DW$334, DW_AT_TI_symbol_name("_RSVD12")
    2658                      .dwattr $C$DW$334, DW_AT_data_member_location[DW_OP_plus_uconst 0x32]
    2659                      .dwattr $C$DW$334, DW_AT_accessibility(DW_ACCESS_public)
    2660              $C$DW$335       .dwtag  DW_TAG_member
    2661                      .dwattr $C$DW$335, DW_AT_type(*$C$DW$T$20)
    2662                      .dwattr $C$DW$335, DW_AT_name("MMCARG1")
    2663                      .dwattr $C$DW$335, DW_AT_TI_symbol_name("_MMCARG1")
    2664                      .dwattr $C$DW$335, DW_AT_data_member_location[DW_OP_plus_uconst 0x34]
    2665                      .dwattr $C$DW$335, DW_AT_accessibility(DW_ACCESS_public)
    2666              $C$DW$336       .dwtag  DW_TAG_member
    2667                      .dwattr $C$DW$336, DW_AT_type(*$C$DW$T$20)
    2668                      .dwattr $C$DW$336, DW_AT_name("MMCARG2")
    2669                      .dwattr $C$DW$336, DW_AT_TI_symbol_name("_MMCARG2")
    2670                      .dwattr $C$DW$336, DW_AT_data_member_location[DW_OP_plus_uconst 0x35]
    2671                      .dwattr $C$DW$336, DW_AT_accessibility(DW_ACCESS_public)
    2672              $C$DW$337       .dwtag  DW_TAG_member
    2673                      .dwattr $C$DW$337, DW_AT_type(*$C$DW$T$22)
    2674                      .dwattr $C$DW$337, DW_AT_name("RSVD13")
    2675                      .dwattr $C$DW$337, DW_AT_TI_symbol_name("_RSVD13")
    2676                      .dwattr $C$DW$337, DW_AT_data_member_location[DW_OP_plus_uconst 0x36]
    2677                      .dwattr $C$DW$337, DW_AT_accessibility(DW_ACCESS_public)
    2678              $C$DW$338       .dwtag  DW_TAG_member
    2679                      .dwattr $C$DW$338, DW_AT_type(*$C$DW$T$20)
    2680                      .dwattr $C$DW$338, DW_AT_name("MMCRSP0")
    2681                      .dwattr $C$DW$338, DW_AT_TI_symbol_name("_MMCRSP0")
    2682                      .dwattr $C$DW$338, DW_AT_data_member_location[DW_OP_plus_uconst 0x38]
    2683                      .dwattr $C$DW$338, DW_AT_accessibility(DW_ACCESS_public)
    2684              $C$DW$339       .dwtag  DW_TAG_member
    2685                      .dwattr $C$DW$339, DW_AT_type(*$C$DW$T$20)
    2686                      .dwattr $C$DW$339, DW_AT_name("MMCRSP1")
    2687                      .dwattr $C$DW$339, DW_AT_TI_symbol_name("_MMCRSP1")
    2688                      .dwattr $C$DW$339, DW_AT_data_member_location[DW_OP_plus_uconst 0x39]
    2689                      .dwattr $C$DW$339, DW_AT_accessibility(DW_ACCESS_public)
    2690              $C$DW$340       .dwtag  DW_TAG_member
    2691                      .dwattr $C$DW$340, DW_AT_type(*$C$DW$T$22)
    2692                      .dwattr $C$DW$340, DW_AT_name("RSVD14")
TMS320C55x Assembler PC v4.4.1 Sat Sep 29 23:09:03 2018

Tools Copyright (c) 1996-2012 Texas Instruments Incorporated
csl_mmcsd_MmcCardExample.asm                                         PAGE   80

    2693                      .dwattr $C$DW$340, DW_AT_TI_symbol_name("_RSVD14")
