TMS320C55x Assembler PC v4.4.1 Sat Sep 29 23:08:58 2018

Tools Copyright (c) 1996-2012 Texas Instruments Incorporated
csl_mmcsd_intr_example.asm                                           PAGE    1

    4862              ; Temporary Registers Used: None
       1              ;*******************************************************************************
       2              ;* TMS320C55x C/C++ Codegen                                          PC v4.4.1 *
       3              ;* Date/Time created: Sat Sep 29 23:08:57 2018                                 *
       4              ;*******************************************************************************
       5                      .compiler_opts --hll_source=on --mem_model:code=flat --mem_model:data=large --object_format=coff --si
       6                      .mmregs
       7                      .cpl_on
       8                      .arms_on
       9                      .c54cm_off
      10                      .asg AR6, FP
      11                      .asg XAR6, XFP
      12                      .asg DPH, MDP
      13                      .model call=c55_std
      14                      .model mem=large
      15                      .noremark 5002  ; code respects overwrite rules
      16              ;*******************************************************************************
      17              ;* GLOBAL FILE PARAMETERS                                                      *
      18              ;*                                                                             *
      19              ;*   Architecture       : TMS320C55x                                           *
      20              ;*   Optimizing for     : Speed                                                *
      21              ;*   Memory             : Large Model (23-Bit Data Pointers)                   *
      22              ;*   Calls              : Normal Library ASM calls                             *
      23              ;*   Debug Info         : Standard TI Debug Information                        *
      24              ;*******************************************************************************
      25              
      26              $C$DW$CU        .dwtag  DW_TAG_compile_unit
      27                      .dwattr $C$DW$CU, DW_AT_name("../c5535_bsl_revc/ezdsp5535_v1/c55xx_csl/ccs_v4.0_examples/mmc_sd/CSL_M
      28                      .dwattr $C$DW$CU, DW_AT_producer("TMS320C55x C/C++ Codegen PC v4.4.1 Copyright (c) 1996-2012 Texas In
      29                      .dwattr $C$DW$CU, DW_AT_TI_version(0x01)
      30                      .dwattr $C$DW$CU, DW_AT_comp_dir("F:\eZdsp_DBG\tmp1\c55x-sim2\foo\Debug")
      31              ;******************************************************************************
      32              ;* CINIT RECORDS                                                              *
      33              ;******************************************************************************
      34 000000               .sect   ".cinit"
      35                      .align  1
      36 000000 0001          .field          1,16
      37 000001 0000-         .field          _gMmcIntr+0,24
         000002 9200 
      38 000002 9200          .field          0,8
      39 000003 0000          .field  0,16                    ; _gMmcIntr @ 0
      40              
      41 000004               .sect   ".cinit"
      42                      .align  1
      43 000004 0001          .field          1,16
      44 000005 0002-         .field          _PaSs_StAtE+0,24
         000006 9300 
      45 000006 9300          .field          0,8
      46 000007 0001          .field  1,16                    ; _PaSs_StAtE @ 0
      47              
      48 000008               .sect   ".cinit"
      49                      .align  1
      50 000008 0001          .field          1,16
      51 000009 0002-         .field          _PaSs+0,24
         00000a 9400 
TMS320C55x Assembler PC v4.4.1 Sat Sep 29 23:08:58 2018

Tools Copyright (c) 1996-2012 Texas Instruments Incorporated
csl_mmcsd_intr_example.asm                                           PAGE    2

      52 00000a 9400          .field          0,8
      53 00000b 0000          .field  0,16                    ; _PaSs @ 0
      54              
      55              
      56              $C$DW$1 .dwtag  DW_TAG_subprogram, DW_AT_name("MMC_init")
      57                      .dwattr $C$DW$1, DW_AT_TI_symbol_name("_MMC_init")
      58                      .dwattr $C$DW$1, DW_AT_type(*$C$DW$T$108)
      59                      .dwattr $C$DW$1, DW_AT_declaration
      60                      .dwattr $C$DW$1, DW_AT_external
      61              
      62              $C$DW$2 .dwtag  DW_TAG_subprogram, DW_AT_name("MMC_open")
      63                      .dwattr $C$DW$2, DW_AT_TI_symbol_name("_MMC_open")
      64                      .dwattr $C$DW$2, DW_AT_type(*$C$DW$T$106)
      65                      .dwattr $C$DW$2, DW_AT_declaration
      66                      .dwattr $C$DW$2, DW_AT_external
      67              $C$DW$3 .dwtag  DW_TAG_formal_parameter
      68                      .dwattr $C$DW$3, DW_AT_type(*$C$DW$T$105)
      69              $C$DW$4 .dwtag  DW_TAG_formal_parameter
      70                      .dwattr $C$DW$4, DW_AT_type(*$C$DW$T$103)
      71              $C$DW$5 .dwtag  DW_TAG_formal_parameter
      72                      .dwattr $C$DW$5, DW_AT_type(*$C$DW$T$86)
      73              $C$DW$6 .dwtag  DW_TAG_formal_parameter
      74                      .dwattr $C$DW$6, DW_AT_type(*$C$DW$T$109)
      75                      .dwendtag $C$DW$2
      76              
      77              
      78              $C$DW$7 .dwtag  DW_TAG_subprogram, DW_AT_name("MMC_close")
      79                      .dwattr $C$DW$7, DW_AT_TI_symbol_name("_MMC_close")
      80                      .dwattr $C$DW$7, DW_AT_type(*$C$DW$T$108)
      81                      .dwattr $C$DW$7, DW_AT_declaration
      82                      .dwattr $C$DW$7, DW_AT_external
      83              $C$DW$8 .dwtag  DW_TAG_formal_parameter
      84                      .dwattr $C$DW$8, DW_AT_type(*$C$DW$T$106)
      85                      .dwendtag $C$DW$7
      86              
      87              
      88              $C$DW$9 .dwtag  DW_TAG_subprogram, DW_AT_name("MMC_setCardType")
      89                      .dwattr $C$DW$9, DW_AT_TI_symbol_name("_MMC_setCardType")
      90                      .dwattr $C$DW$9, DW_AT_type(*$C$DW$T$108)
      91                      .dwattr $C$DW$9, DW_AT_declaration
      92                      .dwattr $C$DW$9, DW_AT_external
      93              $C$DW$10        .dwtag  DW_TAG_formal_parameter
      94                      .dwattr $C$DW$10, DW_AT_type(*$C$DW$T$82)
      95              $C$DW$11        .dwtag  DW_TAG_formal_parameter
      96                      .dwattr $C$DW$11, DW_AT_type(*$C$DW$T$33)
      97                      .dwendtag $C$DW$9
      98              
      99              
     100              $C$DW$12        .dwtag  DW_TAG_subprogram, DW_AT_name("MMC_setCardPtr")
     101                      .dwattr $C$DW$12, DW_AT_TI_symbol_name("_MMC_setCardPtr")
     102                      .dwattr $C$DW$12, DW_AT_type(*$C$DW$T$108)
     103                      .dwattr $C$DW$12, DW_AT_declaration
     104                      .dwattr $C$DW$12, DW_AT_external
     105              $C$DW$13        .dwtag  DW_TAG_formal_parameter
     106                      .dwattr $C$DW$13, DW_AT_type(*$C$DW$T$106)
TMS320C55x Assembler PC v4.4.1 Sat Sep 29 23:08:58 2018

Tools Copyright (c) 1996-2012 Texas Instruments Incorporated
csl_mmcsd_intr_example.asm                                           PAGE    3

     107              $C$DW$14        .dwtag  DW_TAG_formal_parameter
     108                      .dwattr $C$DW$14, DW_AT_type(*$C$DW$T$82)
     109                      .dwendtag $C$DW$12
     110              
     111              
     112              $C$DW$15        .dwtag  DW_TAG_subprogram, DW_AT_name("MMC_getNumberOfCards")
     113                      .dwattr $C$DW$15, DW_AT_TI_symbol_name("_MMC_getNumberOfCards")
     114                      .dwattr $C$DW$15, DW_AT_type(*$C$DW$T$108)
     115                      .dwattr $C$DW$15, DW_AT_declaration
     116                      .dwattr $C$DW$15, DW_AT_external
     117              $C$DW$16        .dwtag  DW_TAG_formal_parameter
     118                      .dwattr $C$DW$16, DW_AT_type(*$C$DW$T$106)
     119              $C$DW$17        .dwtag  DW_TAG_formal_parameter
     120                      .dwattr $C$DW$17, DW_AT_type(*$C$DW$T$125)
     121                      .dwendtag $C$DW$15
     122              
     123              
     124              $C$DW$18        .dwtag  DW_TAG_subprogram, DW_AT_name("MMC_intEnable")
     125                      .dwattr $C$DW$18, DW_AT_TI_symbol_name("_MMC_intEnable")
     126                      .dwattr $C$DW$18, DW_AT_type(*$C$DW$T$108)
     127                      .dwattr $C$DW$18, DW_AT_declaration
     128                      .dwattr $C$DW$18, DW_AT_external
     129              $C$DW$19        .dwtag  DW_TAG_formal_parameter
     130                      .dwattr $C$DW$19, DW_AT_type(*$C$DW$T$106)
     131              $C$DW$20        .dwtag  DW_TAG_formal_parameter
     132                      .dwattr $C$DW$20, DW_AT_type(*$C$DW$T$19)
     133                      .dwendtag $C$DW$18
     134              
     135              
     136              $C$DW$21        .dwtag  DW_TAG_subprogram, DW_AT_name("MMC_sendGoIdle")
     137                      .dwattr $C$DW$21, DW_AT_TI_symbol_name("_MMC_sendGoIdle")
     138                      .dwattr $C$DW$21, DW_AT_type(*$C$DW$T$108)
     139                      .dwattr $C$DW$21, DW_AT_declaration
     140                      .dwattr $C$DW$21, DW_AT_external
     141              $C$DW$22        .dwtag  DW_TAG_formal_parameter
     142                      .dwattr $C$DW$22, DW_AT_type(*$C$DW$T$106)
     143                      .dwendtag $C$DW$21
     144              
     145              
     146              $C$DW$23        .dwtag  DW_TAG_subprogram, DW_AT_name("MMC_selectCard")
     147                      .dwattr $C$DW$23, DW_AT_TI_symbol_name("_MMC_selectCard")
     148                      .dwattr $C$DW$23, DW_AT_type(*$C$DW$T$108)
     149                      .dwattr $C$DW$23, DW_AT_declaration
     150                      .dwattr $C$DW$23, DW_AT_external
     151              $C$DW$24        .dwtag  DW_TAG_formal_parameter
     152                      .dwattr $C$DW$24, DW_AT_type(*$C$DW$T$106)
     153              $C$DW$25        .dwtag  DW_TAG_formal_parameter
     154                      .dwattr $C$DW$25, DW_AT_type(*$C$DW$T$82)
     155                      .dwendtag $C$DW$23
     156              
     157              
     158              $C$DW$26        .dwtag  DW_TAG_subprogram, DW_AT_name("MMC_sendOpCond")
     159                      .dwattr $C$DW$26, DW_AT_TI_symbol_name("_MMC_sendOpCond")
     160                      .dwattr $C$DW$26, DW_AT_type(*$C$DW$T$108)
     161                      .dwattr $C$DW$26, DW_AT_declaration
TMS320C55x Assembler PC v4.4.1 Sat Sep 29 23:08:58 2018

Tools Copyright (c) 1996-2012 Texas Instruments Incorporated
csl_mmcsd_intr_example.asm                                           PAGE    4

     162                      .dwattr $C$DW$26, DW_AT_external
     163              $C$DW$27        .dwtag  DW_TAG_formal_parameter
     164                      .dwattr $C$DW$27, DW_AT_type(*$C$DW$T$106)
     165              $C$DW$28        .dwtag  DW_TAG_formal_parameter
     166                      .dwattr $C$DW$28, DW_AT_type(*$C$DW$T$19)
     167                      .dwendtag $C$DW$26
     168              
     169              
     170              $C$DW$29        .dwtag  DW_TAG_subprogram, DW_AT_name("MMC_setRca")
     171                      .dwattr $C$DW$29, DW_AT_TI_symbol_name("_MMC_setRca")
     172                      .dwattr $C$DW$29, DW_AT_type(*$C$DW$T$108)
     173                      .dwattr $C$DW$29, DW_AT_declaration
     174                      .dwattr $C$DW$29, DW_AT_external
     175              $C$DW$30        .dwtag  DW_TAG_formal_parameter
     176                      .dwattr $C$DW$30, DW_AT_type(*$C$DW$T$106)
     177              $C$DW$31        .dwtag  DW_TAG_formal_parameter
     178                      .dwattr $C$DW$31, DW_AT_type(*$C$DW$T$82)
     179              $C$DW$32        .dwtag  DW_TAG_formal_parameter
     180                      .dwattr $C$DW$32, DW_AT_type(*$C$DW$T$19)
     181                      .dwendtag $C$DW$29
     182              
     183              
     184              $C$DW$33        .dwtag  DW_TAG_subprogram, DW_AT_name("SD_sendRca")
     185                      .dwattr $C$DW$33, DW_AT_TI_symbol_name("_SD_sendRca")
     186                      .dwattr $C$DW$33, DW_AT_type(*$C$DW$T$108)
     187                      .dwattr $C$DW$33, DW_AT_declaration
     188                      .dwattr $C$DW$33, DW_AT_external
     189              $C$DW$34        .dwtag  DW_TAG_formal_parameter
     190                      .dwattr $C$DW$34, DW_AT_type(*$C$DW$T$106)
     191              $C$DW$35        .dwtag  DW_TAG_formal_parameter
     192                      .dwattr $C$DW$35, DW_AT_type(*$C$DW$T$82)
     193              $C$DW$36        .dwtag  DW_TAG_formal_parameter
     194                      .dwattr $C$DW$36, DW_AT_type(*$C$DW$T$125)
     195                      .dwendtag $C$DW$33
     196              
     197              
     198              $C$DW$37        .dwtag  DW_TAG_subprogram, DW_AT_name("MMC_sendAllCID")
     199                      .dwattr $C$DW$37, DW_AT_TI_symbol_name("_MMC_sendAllCID")
     200                      .dwattr $C$DW$37, DW_AT_type(*$C$DW$T$108)
     201                      .dwattr $C$DW$37, DW_AT_declaration
     202                      .dwattr $C$DW$37, DW_AT_external
     203              $C$DW$38        .dwtag  DW_TAG_formal_parameter
     204                      .dwattr $C$DW$38, DW_AT_type(*$C$DW$T$106)
     205              $C$DW$39        .dwtag  DW_TAG_formal_parameter
     206                      .dwattr $C$DW$39, DW_AT_type(*$C$DW$T$35)
     207                      .dwendtag $C$DW$37
     208              
     209              
     210              $C$DW$40        .dwtag  DW_TAG_subprogram, DW_AT_name("SD_sendAllCID")
     211                      .dwattr $C$DW$40, DW_AT_TI_symbol_name("_SD_sendAllCID")
     212                      .dwattr $C$DW$40, DW_AT_type(*$C$DW$T$108)
     213                      .dwattr $C$DW$40, DW_AT_declaration
     214                      .dwattr $C$DW$40, DW_AT_external
     215              $C$DW$41        .dwtag  DW_TAG_formal_parameter
     216                      .dwattr $C$DW$41, DW_AT_type(*$C$DW$T$106)
TMS320C55x Assembler PC v4.4.1 Sat Sep 29 23:08:58 2018

Tools Copyright (c) 1996-2012 Texas Instruments Incorporated
csl_mmcsd_intr_example.asm                                           PAGE    5

     217              $C$DW$42        .dwtag  DW_TAG_formal_parameter
     218                      .dwattr $C$DW$42, DW_AT_type(*$C$DW$T$35)
     219                      .dwendtag $C$DW$40
     220              
     221              
     222              $C$DW$43        .dwtag  DW_TAG_subprogram, DW_AT_name("MMC_getCardCsd")
     223                      .dwattr $C$DW$43, DW_AT_TI_symbol_name("_MMC_getCardCsd")
     224                      .dwattr $C$DW$43, DW_AT_type(*$C$DW$T$108)
     225                      .dwattr $C$DW$43, DW_AT_declaration
     226                      .dwattr $C$DW$43, DW_AT_external
     227              $C$DW$44        .dwtag  DW_TAG_formal_parameter
     228                      .dwattr $C$DW$44, DW_AT_type(*$C$DW$T$106)
     229              $C$DW$45        .dwtag  DW_TAG_formal_parameter
     230                      .dwattr $C$DW$45, DW_AT_type(*$C$DW$T$37)
     231                      .dwendtag $C$DW$43
     232              
     233              
     234              $C$DW$46        .dwtag  DW_TAG_subprogram, DW_AT_name("SD_getCardCsd")
     235                      .dwattr $C$DW$46, DW_AT_TI_symbol_name("_SD_getCardCsd")
     236                      .dwattr $C$DW$46, DW_AT_type(*$C$DW$T$108)
     237                      .dwattr $C$DW$46, DW_AT_declaration
     238                      .dwattr $C$DW$46, DW_AT_external
     239              $C$DW$47        .dwtag  DW_TAG_formal_parameter
     240                      .dwattr $C$DW$47, DW_AT_type(*$C$DW$T$106)
     241              $C$DW$48        .dwtag  DW_TAG_formal_parameter
     242                      .dwattr $C$DW$48, DW_AT_type(*$C$DW$T$37)
     243                      .dwendtag $C$DW$46
     244              
     245              
     246              $C$DW$49        .dwtag  DW_TAG_subprogram, DW_AT_name("MMC_read")
     247                      .dwattr $C$DW$49, DW_AT_TI_symbol_name("_MMC_read")
     248                      .dwattr $C$DW$49, DW_AT_type(*$C$DW$T$108)
     249                      .dwattr $C$DW$49, DW_AT_declaration
     250                      .dwattr $C$DW$49, DW_AT_external
     251              $C$DW$50        .dwtag  DW_TAG_formal_parameter
     252                      .dwattr $C$DW$50, DW_AT_type(*$C$DW$T$106)
     253              $C$DW$51        .dwtag  DW_TAG_formal_parameter
     254                      .dwattr $C$DW$51, DW_AT_type(*$C$DW$T$28)
     255              $C$DW$52        .dwtag  DW_TAG_formal_parameter
     256                      .dwattr $C$DW$52, DW_AT_type(*$C$DW$T$19)
     257              $C$DW$53        .dwtag  DW_TAG_formal_parameter
     258                      .dwattr $C$DW$53, DW_AT_type(*$C$DW$T$125)
     259                      .dwendtag $C$DW$49
     260              
     261              
     262              $C$DW$54        .dwtag  DW_TAG_subprogram, DW_AT_name("MMC_write")
     263                      .dwattr $C$DW$54, DW_AT_TI_symbol_name("_MMC_write")
     264                      .dwattr $C$DW$54, DW_AT_type(*$C$DW$T$108)
     265                      .dwattr $C$DW$54, DW_AT_declaration
     266                      .dwattr $C$DW$54, DW_AT_external
     267              $C$DW$55        .dwtag  DW_TAG_formal_parameter
     268                      .dwattr $C$DW$55, DW_AT_type(*$C$DW$T$106)
     269              $C$DW$56        .dwtag  DW_TAG_formal_parameter
     270                      .dwattr $C$DW$56, DW_AT_type(*$C$DW$T$28)
     271              $C$DW$57        .dwtag  DW_TAG_formal_parameter
TMS320C55x Assembler PC v4.4.1 Sat Sep 29 23:08:58 2018

Tools Copyright (c) 1996-2012 Texas Instruments Incorporated
csl_mmcsd_intr_example.asm                                           PAGE    6

     272                      .dwattr $C$DW$57, DW_AT_type(*$C$DW$T$19)
     273              $C$DW$58        .dwtag  DW_TAG_formal_parameter
     274                      .dwattr $C$DW$58, DW_AT_type(*$C$DW$T$125)
     275                      .dwendtag $C$DW$54
     276              
     277              
     278              $C$DW$59        .dwtag  DW_TAG_subprogram, DW_AT_name("MMC_setDataTransferCallback")
     279                      .dwattr $C$DW$59, DW_AT_TI_symbol_name("_MMC_setDataTransferCallback")
     280                      .dwattr $C$DW$59, DW_AT_type(*$C$DW$T$108)
     281                      .dwattr $C$DW$59, DW_AT_declaration
     282                      .dwattr $C$DW$59, DW_AT_external
     283              $C$DW$60        .dwtag  DW_TAG_formal_parameter
     284                      .dwattr $C$DW$60, DW_AT_type(*$C$DW$T$106)
     285              $C$DW$61        .dwtag  DW_TAG_formal_parameter
     286                      .dwattr $C$DW$61, DW_AT_type(*$C$DW$T$93)
     287                      .dwendtag $C$DW$59
     288              
     289              
     290              $C$DW$62        .dwtag  DW_TAG_subprogram, DW_AT_name("MMC_setEndianMode")
     291                      .dwattr $C$DW$62, DW_AT_TI_symbol_name("_MMC_setEndianMode")
     292                      .dwattr $C$DW$62, DW_AT_type(*$C$DW$T$108)
     293                      .dwattr $C$DW$62, DW_AT_declaration
     294                      .dwattr $C$DW$62, DW_AT_external
     295              $C$DW$63        .dwtag  DW_TAG_formal_parameter
     296                      .dwattr $C$DW$63, DW_AT_type(*$C$DW$T$106)
     297              $C$DW$64        .dwtag  DW_TAG_formal_parameter
     298                      .dwattr $C$DW$64, DW_AT_type(*$C$DW$T$97)
     299              $C$DW$65        .dwtag  DW_TAG_formal_parameter
     300                      .dwattr $C$DW$65, DW_AT_type(*$C$DW$T$97)
     301                      .dwendtag $C$DW$62
     302              
     303              
     304              $C$DW$66        .dwtag  DW_TAG_subprogram, DW_AT_name("MMC_setBlockLength")
     305                      .dwattr $C$DW$66, DW_AT_TI_symbol_name("_MMC_setBlockLength")
     306                      .dwattr $C$DW$66, DW_AT_type(*$C$DW$T$108)
     307                      .dwattr $C$DW$66, DW_AT_declaration
     308                      .dwattr $C$DW$66, DW_AT_external
     309              $C$DW$67        .dwtag  DW_TAG_formal_parameter
     310                      .dwattr $C$DW$67, DW_AT_type(*$C$DW$T$106)
     311              $C$DW$68        .dwtag  DW_TAG_formal_parameter
     312                      .dwattr $C$DW$68, DW_AT_type(*$C$DW$T$28)
     313                      .dwendtag $C$DW$66
     314              
     315              
     316              $C$DW$69        .dwtag  DW_TAG_subprogram, DW_AT_name("IRQ_plug")
     317                      .dwattr $C$DW$69, DW_AT_TI_symbol_name("_IRQ_plug")
     318                      .dwattr $C$DW$69, DW_AT_type(*$C$DW$T$10)
     319                      .dwattr $C$DW$69, DW_AT_declaration
     320                      .dwattr $C$DW$69, DW_AT_external
     321              $C$DW$70        .dwtag  DW_TAG_formal_parameter
     322                      .dwattr $C$DW$70, DW_AT_type(*$C$DW$T$19)
     323              $C$DW$71        .dwtag  DW_TAG_formal_parameter
     324                      .dwattr $C$DW$71, DW_AT_type(*$C$DW$T$116)
     325                      .dwendtag $C$DW$69
     326              
TMS320C55x Assembler PC v4.4.1 Sat Sep 29 23:08:58 2018

Tools Copyright (c) 1996-2012 Texas Instruments Incorporated
csl_mmcsd_intr_example.asm                                           PAGE    7

     327              
     328              $C$DW$72        .dwtag  DW_TAG_subprogram, DW_AT_name("IRQ_clear")
     329                      .dwattr $C$DW$72, DW_AT_TI_symbol_name("_IRQ_clear")
     330                      .dwattr $C$DW$72, DW_AT_type(*$C$DW$T$108)
     331                      .dwattr $C$DW$72, DW_AT_declaration
     332                      .dwattr $C$DW$72, DW_AT_external
     333              $C$DW$73        .dwtag  DW_TAG_formal_parameter
     334                      .dwattr $C$DW$73, DW_AT_type(*$C$DW$T$19)
     335                      .dwendtag $C$DW$72
     336              
     337              
     338              $C$DW$74        .dwtag  DW_TAG_subprogram, DW_AT_name("IRQ_clearAll")
     339                      .dwattr $C$DW$74, DW_AT_TI_symbol_name("_IRQ_clearAll")
     340                      .dwattr $C$DW$74, DW_AT_declaration
     341                      .dwattr $C$DW$74, DW_AT_external
     342              
     343              $C$DW$75        .dwtag  DW_TAG_subprogram, DW_AT_name("IRQ_disableAll")
     344                      .dwattr $C$DW$75, DW_AT_TI_symbol_name("_IRQ_disableAll")
     345                      .dwattr $C$DW$75, DW_AT_declaration
     346                      .dwattr $C$DW$75, DW_AT_external
     347              
     348              $C$DW$76        .dwtag  DW_TAG_subprogram, DW_AT_name("IRQ_enable")
     349                      .dwattr $C$DW$76, DW_AT_TI_symbol_name("_IRQ_enable")
     350                      .dwattr $C$DW$76, DW_AT_type(*$C$DW$T$10)
     351                      .dwattr $C$DW$76, DW_AT_declaration
     352                      .dwattr $C$DW$76, DW_AT_external
     353              $C$DW$77        .dwtag  DW_TAG_formal_parameter
     354                      .dwattr $C$DW$77, DW_AT_type(*$C$DW$T$19)
     355                      .dwendtag $C$DW$76
     356              
     357              
     358              $C$DW$78        .dwtag  DW_TAG_subprogram, DW_AT_name("IRQ_setVecs")
     359                      .dwattr $C$DW$78, DW_AT_TI_symbol_name("_IRQ_setVecs")
     360                      .dwattr $C$DW$78, DW_AT_type(*$C$DW$T$108)
     361                      .dwattr $C$DW$78, DW_AT_declaration
     362                      .dwattr $C$DW$78, DW_AT_external
     363              $C$DW$79        .dwtag  DW_TAG_formal_parameter
     364                      .dwattr $C$DW$79, DW_AT_type(*$C$DW$T$28)
     365                      .dwendtag $C$DW$78
     366              
     367              
     368              $C$DW$80        .dwtag  DW_TAG_subprogram, DW_AT_name("IRQ_globalDisable")
     369                      .dwattr $C$DW$80, DW_AT_TI_symbol_name("_IRQ_globalDisable")
     370                      .dwattr $C$DW$80, DW_AT_type(*$C$DW$T$40)
     371                      .dwattr $C$DW$80, DW_AT_declaration
     372                      .dwattr $C$DW$80, DW_AT_external
     373              
     374              $C$DW$81        .dwtag  DW_TAG_subprogram, DW_AT_name("IRQ_globalEnable")
     375                      .dwattr $C$DW$81, DW_AT_TI_symbol_name("_IRQ_globalEnable")
     376                      .dwattr $C$DW$81, DW_AT_type(*$C$DW$T$40)
     377                      .dwattr $C$DW$81, DW_AT_declaration
     378                      .dwattr $C$DW$81, DW_AT_external
     379              
     380              $C$DW$82        .dwtag  DW_TAG_subprogram, DW_AT_name("printf")
     381                      .dwattr $C$DW$82, DW_AT_TI_symbol_name("_printf")
TMS320C55x Assembler PC v4.4.1 Sat Sep 29 23:08:58 2018

Tools Copyright (c) 1996-2012 Texas Instruments Incorporated
csl_mmcsd_intr_example.asm                                           PAGE    8

     382                      .dwattr $C$DW$82, DW_AT_type(*$C$DW$T$10)
     383                      .dwattr $C$DW$82, DW_AT_declaration
     384                      .dwattr $C$DW$82, DW_AT_external
     385              $C$DW$83        .dwtag  DW_TAG_formal_parameter
     386                      .dwattr $C$DW$83, DW_AT_type(*$C$DW$T$164)
     387              $C$DW$84        .dwtag  DW_TAG_unspecified_parameters
     388                      .dwendtag $C$DW$82
     389              
     390              
     391              $C$DW$85        .dwtag  DW_TAG_subprogram, DW_AT_name("VECSTART")
     392                      .dwattr $C$DW$85, DW_AT_TI_symbol_name("_VECSTART")
     393                      .dwattr $C$DW$85, DW_AT_declaration
     394                      .dwattr $C$DW$85, DW_AT_external
     395                      .global _pMmcsdContObj
     396 000000               .bss    _pMmcsdContObj,64,0,2
     397              $C$DW$86        .dwtag  DW_TAG_variable, DW_AT_name("pMmcsdContObj")
     398                      .dwattr $C$DW$86, DW_AT_TI_symbol_name("_pMmcsdContObj")
     399                      .dwattr $C$DW$86, DW_AT_location[DW_OP_addr _pMmcsdContObj]
     400                      .dwattr $C$DW$86, DW_AT_type(*$C$DW$T$104)
     401                      .dwattr $C$DW$86, DW_AT_external
     402                      .global _mmcsdHandle
     403 000040               .bss    _mmcsdHandle,2,0,2
     404              $C$DW$87        .dwtag  DW_TAG_variable, DW_AT_name("mmcsdHandle")
     405                      .dwattr $C$DW$87, DW_AT_TI_symbol_name("_mmcsdHandle")
     406                      .dwattr $C$DW$87, DW_AT_location[DW_OP_addr _mmcsdHandle]
     407                      .dwattr $C$DW$87, DW_AT_type(*$C$DW$T$106)
     408                      .dwattr $C$DW$87, DW_AT_external
     409                      .global _mmcCardObj
     410 000042               .bss    _mmcCardObj,30,0,2
     411              $C$DW$88        .dwtag  DW_TAG_variable, DW_AT_name("mmcCardObj")
     412                      .dwattr $C$DW$88, DW_AT_TI_symbol_name("_mmcCardObj")
     413                      .dwattr $C$DW$88, DW_AT_location[DW_OP_addr _mmcCardObj]
     414                      .dwattr $C$DW$88, DW_AT_type(*$C$DW$T$81)
     415                      .dwattr $C$DW$88, DW_AT_external
     416                      .global _cardIdObj
     417 000060               .bss    _cardIdObj,16,0,2
     418              $C$DW$89        .dwtag  DW_TAG_variable, DW_AT_name("cardIdObj")
     419                      .dwattr $C$DW$89, DW_AT_TI_symbol_name("_cardIdObj")
     420                      .dwattr $C$DW$89, DW_AT_location[DW_OP_addr _cardIdObj]
     421                      .dwattr $C$DW$89, DW_AT_type(*$C$DW$T$34)
     422                      .dwattr $C$DW$89, DW_AT_external
     423                      .global _cardCsdObj
     424 000070               .bss    _cardCsdObj,34,0,0
     425              $C$DW$90        .dwtag  DW_TAG_variable, DW_AT_name("cardCsdObj")
     426                      .dwattr $C$DW$90, DW_AT_TI_symbol_name("_cardCsdObj")
     427                      .dwattr $C$DW$90, DW_AT_location[DW_OP_addr _cardCsdObj]
     428                      .dwattr $C$DW$90, DW_AT_type(*$C$DW$T$36)
     429                      .dwattr $C$DW$90, DW_AT_external
     430                      .global _gMmcIntr
     431 000092               .bss    _gMmcIntr,1,0,0
     432              $C$DW$91        .dwtag  DW_TAG_variable, DW_AT_name("gMmcIntr")
     433                      .dwattr $C$DW$91, DW_AT_TI_symbol_name("_gMmcIntr")
     434                      .dwattr $C$DW$91, DW_AT_location[DW_OP_addr _gMmcIntr]
     435                      .dwattr $C$DW$91, DW_AT_type(*$C$DW$T$155)
     436                      .dwattr $C$DW$91, DW_AT_external
TMS320C55x Assembler PC v4.4.1 Sat Sep 29 23:08:58 2018

Tools Copyright (c) 1996-2012 Texas Instruments Incorporated
csl_mmcsd_intr_example.asm                                           PAGE    9

     437                      .global _gReadBuf
     438 000093               .bss    _gReadBuf,256,0,0
     439              $C$DW$92        .dwtag  DW_TAG_variable, DW_AT_name("gReadBuf")
     440                      .dwattr $C$DW$92, DW_AT_TI_symbol_name("_gReadBuf")
     441                      .dwattr $C$DW$92, DW_AT_location[DW_OP_addr _gReadBuf]
     442                      .dwattr $C$DW$92, DW_AT_type(*$C$DW$T$154)
     443                      .dwattr $C$DW$92, DW_AT_external
     444                      .global _gWriteBuf
     445 000193               .bss    _gWriteBuf,256,0,0
     446              $C$DW$93        .dwtag  DW_TAG_variable, DW_AT_name("gWriteBuf")
     447                      .dwattr $C$DW$93, DW_AT_TI_symbol_name("_gWriteBuf")
     448                      .dwattr $C$DW$93, DW_AT_location[DW_OP_addr _gWriteBuf]
     449                      .dwattr $C$DW$93, DW_AT_type(*$C$DW$T$154)
     450                      .dwattr $C$DW$93, DW_AT_external
     451                      .global _PaSs_StAtE
     452 000293               .bss    _PaSs_StAtE,1,0,0
     453              $C$DW$94        .dwtag  DW_TAG_variable, DW_AT_name("PaSs_StAtE")
     454                      .dwattr $C$DW$94, DW_AT_TI_symbol_name("_PaSs_StAtE")
     455                      .dwattr $C$DW$94, DW_AT_location[DW_OP_addr _PaSs_StAtE]
     456                      .dwattr $C$DW$94, DW_AT_type(*$C$DW$T$150)
     457                      .dwattr $C$DW$94, DW_AT_external
     458                      .global _PaSs
     459 000294               .bss    _PaSs,1,0,0
     460              $C$DW$95        .dwtag  DW_TAG_variable, DW_AT_name("PaSs")
     461                      .dwattr $C$DW$95, DW_AT_TI_symbol_name("_PaSs")
     462                      .dwattr $C$DW$95, DW_AT_location[DW_OP_addr _PaSs]
     463                      .dwattr $C$DW$95, DW_AT_type(*$C$DW$T$150)
     464                      .dwattr $C$DW$95, DW_AT_external
     465              ;       F:\t\cc5p5\ccsv5\tools\compiler\c5500_4.4.1\bin\acp55.exe -@f:\\AppData\\Local\\Temp\\2832012 
     466 000000               .sect   ".text"
     467                      .align 4
     468                      .global _main
     469              
     470              $C$DW$96        .dwtag  DW_TAG_subprogram, DW_AT_name("main")
     471                      .dwattr $C$DW$96, DW_AT_low_pc(_main)
     472                      .dwattr $C$DW$96, DW_AT_high_pc(0x00)
     473                      .dwattr $C$DW$96, DW_AT_TI_symbol_name("_main")
     474                      .dwattr $C$DW$96, DW_AT_external
     475                      .dwattr $C$DW$96, DW_AT_TI_begin_file("../c5535_bsl_revc/ezdsp5535_v1/c55xx_csl/ccs_v4.0_examples/mmc
     476                      .dwattr $C$DW$96, DW_AT_TI_begin_line(0xec)
     477                      .dwattr $C$DW$96, DW_AT_TI_begin_column(0x06)
     478                      .dwattr $C$DW$96, DW_AT_TI_max_frame_size(0x04)
     479                      .dwpsn  file "../c5535_bsl_revc/ezdsp5535_v1/c55xx_csl/ccs_v4.0_examples/mmc_sd/CSL_MMCSD_intrExample
     480              
     481                      .dwfde $C$DW$CIE, _main
     482              ;*******************************************************************************
     483              ;* FUNCTION NAME: main                                                         *
     484              ;*                                                                             *
     485              ;*   Function Uses Regs : T0,AR1,AR3,XAR3,SP,M40,SATA,SATD,RDM,FRCT,SMUL       *
     486              ;*   Stack Frame        : Compact (No Frame Pointer, w/ debug)                 *
     487              ;*   Total Frame Size   : 4 words                                              *
     488              ;*                        (1 return address/alignment)                         *
     489              ;*                        (2 function parameters)                              *
     490              ;*                        (1 local values)                                     *
     491              ;*   Min System Stack   : 1 word                                               *
TMS320C55x Assembler PC v4.4.1 Sat Sep 29 23:08:58 2018

Tools Copyright (c) 1996-2012 Texas Instruments Incorporated
csl_mmcsd_intr_example.asm                                           PAGE   10

     492              ;*******************************************************************************
     493 000000       _main:
     494                      .dwcfi  cfa_offset, 1
     495                      .dwcfi  save_reg_to_mem, 91, -1
     496 000000 4EFD          AADD #-3, SP
     497                      .dwcfi  cfa_offset, 4
     498              $C$DW$97        .dwtag  DW_TAG_variable, DW_AT_name("status")
     499                      .dwattr $C$DW$97, DW_AT_TI_symbol_name("_status")
     500                      .dwattr $C$DW$97, DW_AT_type(*$C$DW$T$108)
     501                      .dwattr $C$DW$97, DW_AT_location[DW_OP_bregx 0x24 2]
     502                      .dwpsn  file "../c5535_bsl_revc/ezdsp5535_v1/c55xx_csl/ccs_v4.0_examples/mmc_sd/CSL_MMCSD_intrExample
     503 000002 EC31          AMOV #$C$FSL1, XAR3 ; |240| 
         000004 BE00 
         000006 0000+
     504 000008 EB00          MOV XAR3, dbl(*SP(#0))
         00000a B5   
     505              $C$DW$98        .dwtag  DW_TAG_TI_branch
     506                      .dwattr $C$DW$98, DW_AT_low_pc(0x00)
     507                      .dwattr $C$DW$98, DW_AT_name("_printf")
     508                      .dwattr $C$DW$98, DW_AT_TI_call
     509 00000b 6C00          CALL #_printf ; |240| 
         00000d 0000!
     510                                                      ; call occurs [#_printf] ; |240| 
     511                      .dwpsn  file "../c5535_bsl_revc/ezdsp5535_v1/c55xx_csl/ccs_v4.0_examples/mmc_sd/CSL_MMCSD_intrExample
     512              $C$DW$99        .dwtag  DW_TAG_TI_branch
     513                      .dwattr $C$DW$99, DW_AT_low_pc(0x00)
     514                      .dwattr $C$DW$99, DW_AT_name("_mmcsdIntrTest")
     515                      .dwattr $C$DW$99, DW_AT_TI_call
     516 00000f 0800          CALL #_mmcsdIntrTest ; |242| 
         000011 3A   
     517                                                      ; call occurs [#_mmcsdIntrTest] ; |242| 
     518 000012 C404          MOV T0, *SP(#2) ; |242| 
     519                      .dwpsn  file "../c5535_bsl_revc/ezdsp5535_v1/c55xx_csl/ccs_v4.0_examples/mmc_sd/CSL_MMCSD_intrExample
     520 000014 2249          MOV T0, AR1
     521 000016 0409          BCC $C$L1,AR1 == #0 ; |243| 
         000018 15   
     522                                                      ; branchcc occurs ; |243| 
     523                      .dwpsn  file "../c5535_bsl_revc/ezdsp5535_v1/c55xx_csl/ccs_v4.0_examples/mmc_sd/CSL_MMCSD_intrExample
     524 000019 EC31          AMOV #$C$FSL2, XAR3 ; |245| 
         00001b BE00 
         00001d 0022+
     525 00001f EB00          MOV XAR3, dbl(*SP(#0))
         000021 B5   
     526              $C$DW$100       .dwtag  DW_TAG_TI_branch
     527                      .dwattr $C$DW$100, DW_AT_low_pc(0x00)
     528                      .dwattr $C$DW$100, DW_AT_name("_printf")
     529                      .dwattr $C$DW$100, DW_AT_TI_call
     530 000022 6C00          CALL #_printf ; |245| 
         000024 0000!
     531                                                      ; call occurs [#_printf] ; |245| 
     532                      .dwpsn  file "../c5535_bsl_revc/ezdsp5535_v1/c55xx_csl/ccs_v4.0_examples/mmc_sd/CSL_MMCSD_intrExample
     533 000026 E631          MOV #0, *(#_PaSs_StAtE) ; |248| 
         000028 0000 
         00002a 0293-
     534                      .dwpsn  file "../c5535_bsl_revc/ezdsp5535_v1/c55xx_csl/ccs_v4.0_examples/mmc_sd/CSL_MMCSD_intrExample
TMS320C55x Assembler PC v4.4.1 Sat Sep 29 23:08:58 2018

Tools Copyright (c) 1996-2012 Texas Instruments Incorporated
csl_mmcsd_intr_example.asm                                           PAGE   11

     535 00002c 4A0D          B $C$L2   ; |250| 
     536                                                      ; branch occurs ; |250| 
     537 00002e       $C$L1:    
     538                      .dwpsn  file "../c5535_bsl_revc/ezdsp5535_v1/c55xx_csl/ccs_v4.0_examples/mmc_sd/CSL_MMCSD_intrExample
     539 00002e EC31          AMOV #$C$FSL3, XAR3 ; |253| 
         000030 BE00 
         000032 0040+
     540 000034 EB00          MOV XAR3, dbl(*SP(#0))
         000036 B5   
     541              $C$DW$101       .dwtag  DW_TAG_TI_branch
     542                      .dwattr $C$DW$101, DW_AT_low_pc(0x00)
     543                      .dwattr $C$DW$101, DW_AT_name("_printf")
     544                      .dwattr $C$DW$101, DW_AT_TI_call
     545 000037 6C00          CALL #_printf ; |253| 
         000039 0000!
     546                                                      ; call occurs [#_printf] ; |253| 
     547 00003b       $C$L2:    
     548                      .dwpsn  file "../c5535_bsl_revc/ezdsp5535_v1/c55xx_csl/ccs_v4.0_examples/mmc_sd/CSL_MMCSD_intrExample
     549 00003b A931          MOV *(#_PaSs_StAtE), AR1 ; |258| 
         00003d 0002 
         00003f 93-  
     550 000040 C931          MOV AR1, *(#_PaSs) ; |258| 
         000042 0002 
         000044 94-  
     551                      .dwpsn  file "../c5535_bsl_revc/ezdsp5535_v1/c55xx_csl/ccs_v4.0_examples/mmc_sd/CSL_MMCSD_intrExample
     552 000045 4E03          AADD #3, SP
     553                      .dwcfi  cfa_offset, 1
     554              $C$DW$102       .dwtag  DW_TAG_TI_branch
     555                      .dwattr $C$DW$102, DW_AT_low_pc(0x00)
     556                      .dwattr $C$DW$102, DW_AT_TI_return
     557 000047 4804          RET
     558                                                      ; return occurs
     559                      .dwattr $C$DW$96, DW_AT_TI_end_file("../c5535_bsl_revc/ezdsp5535_v1/c55xx_csl/ccs_v4.0_examples/mmc_s
     560                      .dwattr $C$DW$96, DW_AT_TI_end_line(0x107)
     561                      .dwattr $C$DW$96, DW_AT_TI_end_column(0x01)
     562                      .dwendentry
     563                      .dwendtag $C$DW$96
     564              
     565 000049               .sect   ".text"
     566                      .align 4
     567                      .global _mmcsdIntrTest
     568              
     569              $C$DW$103       .dwtag  DW_TAG_subprogram, DW_AT_name("mmcsdIntrTest")
     570                      .dwattr $C$DW$103, DW_AT_low_pc(_mmcsdIntrTest)
     571                      .dwattr $C$DW$103, DW_AT_high_pc(0x00)
     572                      .dwattr $C$DW$103, DW_AT_TI_symbol_name("_mmcsdIntrTest")
     573                      .dwattr $C$DW$103, DW_AT_external
     574                      .dwattr $C$DW$103, DW_AT_type(*$C$DW$T$108)
     575                      .dwattr $C$DW$103, DW_AT_TI_begin_file("../c5535_bsl_revc/ezdsp5535_v1/c55xx_csl/ccs_v4.0_examples/mm
     576                      .dwattr $C$DW$103, DW_AT_TI_begin_line(0x114)
     577                      .dwattr $C$DW$103, DW_AT_TI_begin_column(0x0c)
     578                      .dwattr $C$DW$103, DW_AT_TI_max_frame_size(0x10)
     579                      .dwpsn  file "../c5535_bsl_revc/ezdsp5535_v1/c55xx_csl/ccs_v4.0_examples/mmc_sd/CSL_MMCSD_intrExample
     580              
     581                      .dwfde $C$DW$CIE, _mmcsdIntrTest
TMS320C55x Assembler PC v4.4.1 Sat Sep 29 23:08:58 2018

Tools Copyright (c) 1996-2012 Texas Instruments Incorporated
csl_mmcsd_intr_example.asm                                           PAGE   12

     582              ;*******************************************************************************
     583              ;* FUNCTION NAME: mmcsdIntrTest                                                *
     584              ;*                                                                             *
     585              ;*   Function Uses Regs : AC0,AC0,T0,T1,AR0,XAR0,AR1,XAR1,AR2,XAR2,AR3,XAR3,SP,*
     586              ;*                        CARRY,TC1,M40,SATA,SATD,RDM,FRCT,SMUL                *
     587              ;*   Stack Frame        : Compact (No Frame Pointer, w/ debug)                 *
     588              ;*   Total Frame Size   : 16 words                                             *
     589              ;*                        (2 return address/alignment)                         *
     590              ;*                        (3 function parameters)                              *
     591              ;*                        (11 local values)                                    *
     592              ;*   Min System Stack   : 1 word                                               *
     593              ;*******************************************************************************
     594 00004c       _mmcsdIntrTest:
     595                      .dwcfi  cfa_offset, 1
     596                      .dwcfi  save_reg_to_mem, 91, -1
     597 00004c 4EF1          AADD #-15, SP
     598                      .dwcfi  cfa_offset, 16
     599              $C$DW$104       .dwtag  DW_TAG_variable, DW_AT_name("sectCount")
     600                      .dwattr $C$DW$104, DW_AT_TI_symbol_name("_sectCount")
     601                      .dwattr $C$DW$104, DW_AT_type(*$C$DW$T$28)
     602                      .dwattr $C$DW$104, DW_AT_location[DW_OP_bregx 0x24 4]
     603              $C$DW$105       .dwtag  DW_TAG_variable, DW_AT_name("cardAddr")
     604                      .dwattr $C$DW$105, DW_AT_TI_symbol_name("_cardAddr")
     605                      .dwattr $C$DW$105, DW_AT_type(*$C$DW$T$28)
     606                      .dwattr $C$DW$105, DW_AT_location[DW_OP_bregx 0x24 6]
     607              $C$DW$106       .dwtag  DW_TAG_variable, DW_AT_name("mmcStatus")
     608                      .dwattr $C$DW$106, DW_AT_TI_symbol_name("_mmcStatus")
     609                      .dwattr $C$DW$106, DW_AT_type(*$C$DW$T$108)
     610                      .dwattr $C$DW$106, DW_AT_location[DW_OP_bregx 0x24 8]
     611              $C$DW$107       .dwtag  DW_TAG_variable, DW_AT_name("count")
     612                      .dwattr $C$DW$107, DW_AT_TI_symbol_name("_count")
     613                      .dwattr $C$DW$107, DW_AT_type(*$C$DW$T$19)
     614                      .dwattr $C$DW$107, DW_AT_location[DW_OP_bregx 0x24 9]
     615              $C$DW$108       .dwtag  DW_TAG_variable, DW_AT_name("actCard")
     616                      .dwattr $C$DW$108, DW_AT_TI_symbol_name("_actCard")
     617                      .dwattr $C$DW$108, DW_AT_type(*$C$DW$T$19)
     618                      .dwattr $C$DW$108, DW_AT_location[DW_OP_bregx 0x24 10]
     619              $C$DW$109       .dwtag  DW_TAG_variable, DW_AT_name("clockDiv")
     620                      .dwattr $C$DW$109, DW_AT_TI_symbol_name("_clockDiv")
     621                      .dwattr $C$DW$109, DW_AT_type(*$C$DW$T$19)
     622                      .dwattr $C$DW$109, DW_AT_location[DW_OP_bregx 0x24 11]
     623              $C$DW$110       .dwtag  DW_TAG_variable, DW_AT_name("cardType")
     624                      .dwattr $C$DW$110, DW_AT_TI_symbol_name("_cardType")
     625                      .dwattr $C$DW$110, DW_AT_type(*$C$DW$T$33)
     626                      .dwattr $C$DW$110, DW_AT_location[DW_OP_bregx 0x24 12]
     627              $C$DW$111       .dwtag  DW_TAG_variable, DW_AT_name("rca")
     628                      .dwattr $C$DW$111, DW_AT_TI_symbol_name("_rca")
     629                      .dwattr $C$DW$111, DW_AT_type(*$C$DW$T$19)
     630                      .dwattr $C$DW$111, DW_AT_location[DW_OP_bregx 0x24 13]
     631                      .dwpsn  file "../c5535_bsl_revc/ezdsp5535_v1/c55xx_csl/ccs_v4.0_examples/mmc_sd/CSL_MMCSD_intrExample
     632 00004e E618          MOV #0, *SP(#12) ; |287| 
         000050 00   
     633                      .dwpsn  file "../c5535_bsl_revc/ezdsp5535_v1/c55xx_csl/ccs_v4.0_examples/mmc_sd/CSL_MMCSD_intrExample
     634 000051 3C00          MOV #0, AC0 ; |288| 
     635 000053 EB08          MOV AC0, dbl(*SP(#4)) ; |288| 
TMS320C55x Assembler PC v4.4.1 Sat Sep 29 23:08:58 2018

Tools Copyright (c) 1996-2012 Texas Instruments Incorporated
csl_mmcsd_intr_example.asm                                           PAGE   13

         000055 08   
     636                      .dwpsn  file "../c5535_bsl_revc/ezdsp5535_v1/c55xx_csl/ccs_v4.0_examples/mmc_sd/CSL_MMCSD_intrExample
     637 000056 E612          MOV #0, *SP(#9) ; |291| 
         000058 00   
     638                      .dwpsn  file "../c5535_bsl_revc/ezdsp5535_v1/c55xx_csl/ccs_v4.0_examples/mmc_sd/CSL_MMCSD_intrExample
     639 000059 7601          MOV #256, AR2 ; |291| 
         00005b 00A8 
     640 00005d A912          MOV *SP(#9), AR1 ; |291| 
     641 00005f 1298          CMPU AR1 >= AR2, TC1 ; |291| 
         000061 A4   
     642 000062 0464          BCC $C$L4,TC1 ; |291| 
         000064 23   
     643                                                      ; branchcc occurs ; |291| 
     644 000065       $C$L3:    
     645 000065       $C$DW$L$_mmcsdIntrTest$2$B:
     646                      .dwpsn  file "../c5535_bsl_revc/ezdsp5535_v1/c55xx_csl/ccs_v4.0_examples/mmc_sd/CSL_MMCSD_intrExample
     647 000065 A412          MOV *SP(#9), T0 ; |293| 
     648 000067 EC31          AMOV #_gReadBuf, XAR3 ; |293| 
         000069 BE00 
         00006b 0093-
     649 00006d E66B          MOV #0, *AR3(T0) ; |293| 
         00006f 00   
     650                      .dwpsn  file "../c5535_bsl_revc/ezdsp5535_v1/c55xx_csl/ccs_v4.0_examples/mmc_sd/CSL_MMCSD_intrExample
     651 000070 A412          MOV *SP(#9), T0 ; |294| 
     652 000072 A912          MOV *SP(#9), AR1 ; |294| 
     653 000074 EC31          AMOV #_gWriteBuf, XAR3 ; |294| 
         000076 BE00 
         000078 0193-
     654 00007a C96B          MOV AR1, *AR3(T0) ; |294| 
     655                      .dwpsn  file "../c5535_bsl_revc/ezdsp5535_v1/c55xx_csl/ccs_v4.0_examples/mmc_sd/CSL_MMCSD_intrExample
     656 00007c F712          ADD #1, *SP(#9) ; |291| 
         00007e 0001 
     657                      .dwpsn  file "../c5535_bsl_revc/ezdsp5535_v1/c55xx_csl/ccs_v4.0_examples/mmc_sd/CSL_MMCSD_intrExample
     658 000080 A912          MOV *SP(#9), AR1 ; |291| 
     659 000082 1294          CMPU AR1 < AR2, TC1 ; |291| 
         000084 A4   
     660 000085 0464          BCC $C$L3,TC1 ; |291| 
         000087 DD   
     661                                                      ; branchcc occurs ; |291| 
     662 000088       $C$DW$L$_mmcsdIntrTest$2$E:
     663 000088       $C$L4:    
     664                      .dwpsn  file "../c5535_bsl_revc/ezdsp5535_v1/c55xx_csl/ccs_v4.0_examples/mmc_sd/CSL_MMCSD_intrExample
     665              $C$DW$112       .dwtag  DW_TAG_TI_branch
     666                      .dwattr $C$DW$112, DW_AT_low_pc(0x00)
     667                      .dwattr $C$DW$112, DW_AT_name("_IRQ_globalDisable")
     668                      .dwattr $C$DW$112, DW_AT_TI_call
     669 000088 6C00          CALL #_IRQ_globalDisable ; |298| 
         00008a 0000!
     670                                                      ; call occurs [#_IRQ_globalDisable] ; |298| 
     671                      .dwpsn  file "../c5535_bsl_revc/ezdsp5535_v1/c55xx_csl/ccs_v4.0_examples/mmc_sd/CSL_MMCSD_intrExample
     672              $C$DW$113       .dwtag  DW_TAG_TI_branch
     673                      .dwattr $C$DW$113, DW_AT_low_pc(0x00)
     674                      .dwattr $C$DW$113, DW_AT_name("_IRQ_clearAll")
     675                      .dwattr $C$DW$113, DW_AT_TI_call
     676 00008c 6C00          CALL #_IRQ_clearAll ; |301| 
TMS320C55x Assembler PC v4.4.1 Sat Sep 29 23:08:58 2018

Tools Copyright (c) 1996-2012 Texas Instruments Incorporated
csl_mmcsd_intr_example.asm                                           PAGE   14

         00008e 0000!
     677                                                      ; call occurs [#_IRQ_clearAll] ; |301| 
     678                      .dwpsn  file "../c5535_bsl_revc/ezdsp5535_v1/c55xx_csl/ccs_v4.0_examples/mmc_sd/CSL_MMCSD_intrExample
     679              $C$DW$114       .dwtag  DW_TAG_TI_branch
     680                      .dwattr $C$DW$114, DW_AT_low_pc(0x00)
     681                      .dwattr $C$DW$114, DW_AT_name("_IRQ_disableAll")
     682                      .dwattr $C$DW$114, DW_AT_TI_call
     683 000090 6C00          CALL #_IRQ_disableAll ; |304| 
         000092 0000!
     684                                                      ; call occurs [#_IRQ_disableAll] ; |304| 
     685                      .dwpsn  file "../c5535_bsl_revc/ezdsp5535_v1/c55xx_csl/ccs_v4.0_examples/mmc_sd/CSL_MMCSD_intrExample
     686 000094 7A00          MOV #(_VECSTART >> 16) << #16, AC0 ; |317| 
         000096 000A%
     687 000098 7E00          OR #(_VECSTART & 0xffff), AC0, AC0 ; |317| 
         00009a 0000%
     688              $C$DW$115       .dwtag  DW_TAG_TI_branch
     689                      .dwattr $C$DW$115, DW_AT_low_pc(0x00)
     690                      .dwattr $C$DW$115, DW_AT_name("_IRQ_setVecs")
     691                      .dwattr $C$DW$115, DW_AT_TI_call
     692 00009c 6C00          CALL #_IRQ_setVecs ; |317| 
         00009e 0000!
     693                                                      ; call occurs [#_IRQ_setVecs] ; |317| 
     694                      .dwpsn  file "../c5535_bsl_revc/ezdsp5535_v1/c55xx_csl/ccs_v4.0_examples/mmc_sd/CSL_MMCSD_intrExample
     695              $C$DW$116       .dwtag  DW_TAG_TI_branch
     696                      .dwattr $C$DW$116, DW_AT_low_pc(0x00)
     697                      .dwattr $C$DW$116, DW_AT_name("_IRQ_clear")
     698                      .dwattr $C$DW$116, DW_AT_TI_call
     699              
     700 0000a0 6C00          CALL #_IRQ_clear ; |318| 
         0000a2 0000!
     701 0000a4 3D54  ||      MOV #5, T0
     702              
     703                                                      ; call occurs [#_IRQ_clear] ; |318| 
     704                      .dwpsn  file "../c5535_bsl_revc/ezdsp5535_v1/c55xx_csl/ccs_v4.0_examples/mmc_sd/CSL_MMCSD_intrExample
     705 0000a6 7A00          MOV #(_mmcsd_isr >> 16) << #16, AC0 ; |321| 
         0000a8 000A%
     706 0000aa 7E00          OR #(_mmcsd_isr & 0xffff), AC0, AC0 ; |321| 
         0000ac 0000%
     707              $C$DW$117       .dwtag  DW_TAG_TI_branch
     708                      .dwattr $C$DW$117, DW_AT_low_pc(0x00)
     709                      .dwattr $C$DW$117, DW_AT_name("_IRQ_plug")
     710                      .dwattr $C$DW$117, DW_AT_TI_call
     711              
     712 0000ae 6C00          CALL #_IRQ_plug ; |321| 
         0000b0 0000!
     713 0000b2 3D54  ||      MOV #5, T0
     714              
     715                                                      ; call occurs [#_IRQ_plug] ; |321| 
     716                      .dwpsn  file "../c5535_bsl_revc/ezdsp5535_v1/c55xx_csl/ccs_v4.0_examples/mmc_sd/CSL_MMCSD_intrExample
     717              $C$DW$118       .dwtag  DW_TAG_TI_branch
     718                      .dwattr $C$DW$118, DW_AT_low_pc(0x00)
     719                      .dwattr $C$DW$118, DW_AT_name("_IRQ_enable")
     720                      .dwattr $C$DW$118, DW_AT_TI_call
     721              
     722 0000b4 6C00          CALL #_IRQ_enable ; |324| 
TMS320C55x Assembler PC v4.4.1 Sat Sep 29 23:08:58 2018

Tools Copyright (c) 1996-2012 Texas Instruments Incorporated
csl_mmcsd_intr_example.asm                                           PAGE   15

         0000b6 0000!
     723 0000b8 3D54  ||      MOV #5, T0
     724              
     725                                                      ; call occurs [#_IRQ_enable] ; |324| 
     726                      .dwpsn  file "../c5535_bsl_revc/ezdsp5535_v1/c55xx_csl/ccs_v4.0_examples/mmc_sd/CSL_MMCSD_intrExample
     727              $C$DW$119       .dwtag  DW_TAG_TI_branch
     728                      .dwattr $C$DW$119, DW_AT_low_pc(0x00)
     729                      .dwattr $C$DW$119, DW_AT_name("_MMC_init")
     730                      .dwattr $C$DW$119, DW_AT_TI_call
     731 0000ba 6C00          CALL #_MMC_init ; |327| 
         0000bc 0000!
     732                                                      ; call occurs [#_MMC_init] ; |327| 
     733 0000be C410          MOV T0, *SP(#8) ; |327| 
     734                      .dwpsn  file "../c5535_bsl_revc/ezdsp5535_v1/c55xx_csl/ccs_v4.0_examples/mmc_sd/CSL_MMCSD_intrExample
     735 0000c0 2249          MOV T0, AR1
     736 0000c2 0409          BCC $C$L5,AR1 == #0 ; |328| 
         0000c4 12   
     737                                                      ; branchcc occurs ; |328| 
     738                      .dwpsn  file "../c5535_bsl_revc/ezdsp5535_v1/c55xx_csl/ccs_v4.0_examples/mmc_sd/CSL_MMCSD_intrExample
     739 0000c5 EC31          AMOV #$C$FSL4, XAR3 ; |330| 
         0000c7 BE00 
         0000c9 005E+
     740 0000cb EB00          MOV XAR3, dbl(*SP(#0))
         0000cd B5   
     741              $C$DW$120       .dwtag  DW_TAG_TI_branch
     742                      .dwattr $C$DW$120, DW_AT_low_pc(0x00)
     743                      .dwattr $C$DW$120, DW_AT_name("_printf")
     744                      .dwattr $C$DW$120, DW_AT_TI_call
     745 0000ce 6C00          CALL #_printf ; |330| 
         0000d0 0000!
     746                                                      ; call occurs [#_printf] ; |330| 
     747                      .dwpsn  file "../c5535_bsl_revc/ezdsp5535_v1/c55xx_csl/ccs_v4.0_examples/mmc_sd/CSL_MMCSD_intrExample
     748 0000d2 A410          MOV *SP(#8), T0 ; |331| 
     749 0000d4 0604          B $C$L36  ; |331| 
         0000d6 9A   
     750                                                      ; branch occurs ; |331| 
     751 0000d7       $C$L5:    
     752                      .dwpsn  file "../c5535_bsl_revc/ezdsp5535_v1/c55xx_csl/ccs_v4.0_examples/mmc_sd/CSL_MMCSD_intrExample
     753 0000d7 EC31          AMOV #_pMmcsdContObj, XAR0 ; |339| 
         0000d9 8E00 
         0000db 0000-
     754              
     755 0000e0 3D04          MOV #0, T0
     756 0000dd EC10  ||      AMAR *SP(#8), XAR1
         0000df 9E   
     757              
     758              $C$DW$121       .dwtag  DW_TAG_TI_branch
     759                      .dwattr $C$DW$121, DW_AT_low_pc(0x00)
     760                      .dwattr $C$DW$121, DW_AT_name("_MMC_open")
     761                      .dwattr $C$DW$121, DW_AT_TI_call
     762              
     763 0000e2 6C00          CALL #_MMC_open ; |339| 
         0000e4 0000!
     764 0000e6 3D15  ||      MOV #1, T1
     765              
TMS320C55x Assembler PC v4.4.1 Sat Sep 29 23:08:58 2018

Tools Copyright (c) 1996-2012 Texas Instruments Incorporated
csl_mmcsd_intr_example.asm                                           PAGE   16

     766                                                      ; call occurs [#_MMC_open] ; |339| 
     767 0000e8 EB31          MOV XAR0, dbl(*(#_mmcsdHandle))
         0000ea 8500 
         0000ec 0040-
     768                      .dwpsn  file "../c5535_bsl_revc/ezdsp5535_v1/c55xx_csl/ccs_v4.0_examples/mmc_sd/CSL_MMCSD_intrExample
     769 0000ee A910          MOV *SP(#8), AR1 ; |342| 
     770 0000f0 6599          BCC $C$L6,AR1 != #0 ; |342| 
     771                                                      ; branchcc occurs ; |342| 
     772 0000f2 ED31          MOV dbl(*(#_mmcsdHandle)), XAR3
         0000f4 BF00 
         0000f6 0040-
     773 0000f8 90B0          MOV XAR3, AC0
     774 0000fa 0410          BCC $C$L7,AC0 != #0 ; |342| 
         0000fc 12   
     775                                                      ; branchcc occurs ; |342| 
     776 0000fd       $C$L6:    
     777                      .dwpsn  file "../c5535_bsl_revc/ezdsp5535_v1/c55xx_csl/ccs_v4.0_examples/mmc_sd/CSL_MMCSD_intrExample
     778 0000fd EC31          AMOV #$C$FSL5, XAR3 ; |344| 
         0000ff BE00 
         000101 0076+
     779 000103 EB00          MOV XAR3, dbl(*SP(#0))
         000105 B5   
     780              $C$DW$122       .dwtag  DW_TAG_TI_branch
     781                      .dwattr $C$DW$122, DW_AT_low_pc(0x00)
     782                      .dwattr $C$DW$122, DW_AT_name("_printf")
     783                      .dwattr $C$DW$122, DW_AT_TI_call
     784 000106 6C00          CALL #_printf ; |344| 
         000108 0000!
     785                                                      ; call occurs [#_printf] ; |344| 
     786                      .dwpsn  file "../c5535_bsl_revc/ezdsp5535_v1/c55xx_csl/ccs_v4.0_examples/mmc_sd/CSL_MMCSD_intrExample
     787 00010a A410          MOV *SP(#8), T0 ; |345| 
     788 00010c 0604          B $C$L36  ; |345| 
         00010e 62   
     789                                                      ; branch occurs ; |345| 
     790 00010f       $C$L7:    
     791                      .dwpsn  file "../c5535_bsl_revc/ezdsp5535_v1/c55xx_csl/ccs_v4.0_examples/mmc_sd/CSL_MMCSD_intrExample
     792 00010f 7A00          MOV #(_mmcsdTransferDoneCallBack >> 16) << #16, AC0 ; |349| 
         000111 000A%
     793 000113 7E00          OR #(_mmcsdTransferDoneCallBack & 0xffff), AC0, AC0 ; |349| 
         000115 0000%
     794              $C$DW$123       .dwtag  DW_TAG_TI_branch
     795                      .dwattr $C$DW$123, DW_AT_low_pc(0x00)
     796                      .dwattr $C$DW$123, DW_AT_name("_MMC_setDataTransferCallback")
     797                      .dwattr $C$DW$123, DW_AT_TI_call
     798 000117 6C00          CALL #_MMC_setDataTransferCallback ; |349| 
         000119 0000!
     799                                                      ; call occurs [#_MMC_setDataTransferCallback] ; |349| 
     800 00011b C410          MOV T0, *SP(#8) ; |349| 
     801                      .dwpsn  file "../c5535_bsl_revc/ezdsp5535_v1/c55xx_csl/ccs_v4.0_examples/mmc_sd/CSL_MMCSD_intrExample
     802 00011d 2249          MOV T0, AR1
     803 00011f 0409          BCC $C$L8,AR1 == #0 ; |350| 
         000121 12   
     804                                                      ; branchcc occurs ; |350| 
     805                      .dwpsn  file "../c5535_bsl_revc/ezdsp5535_v1/c55xx_csl/ccs_v4.0_examples/mmc_sd/CSL_MMCSD_intrExample
     806 000122 EC31          AMOV #$C$FSL6, XAR3 ; |352| 
TMS320C55x Assembler PC v4.4.1 Sat Sep 29 23:08:58 2018

Tools Copyright (c) 1996-2012 Texas Instruments Incorporated
csl_mmcsd_intr_example.asm                                           PAGE   17

         000124 BE00 
         000126 008C+
     807 000128 EB00          MOV XAR3, dbl(*SP(#0))
         00012a B5   
     808              $C$DW$124       .dwtag  DW_TAG_TI_branch
     809                      .dwattr $C$DW$124, DW_AT_low_pc(0x00)
     810                      .dwattr $C$DW$124, DW_AT_name("_printf")
     811                      .dwattr $C$DW$124, DW_AT_TI_call
     812 00012b 6C00          CALL #_printf ; |352| 
         00012d 0000!
     813                                                      ; call occurs [#_printf] ; |352| 
     814                      .dwpsn  file "../c5535_bsl_revc/ezdsp5535_v1/c55xx_csl/ccs_v4.0_examples/mmc_sd/CSL_MMCSD_intrExample
     815 00012f A410          MOV *SP(#8), T0 ; |353| 
     816 000131 0604          B $C$L36  ; |353| 
         000133 3D   
     817                                                      ; branch occurs ; |353| 
     818 000134       $C$L8:    
     819                      .dwpsn  file "../c5535_bsl_revc/ezdsp5535_v1/c55xx_csl/ccs_v4.0_examples/mmc_sd/CSL_MMCSD_intrExample
     820 000134 ED31          MOV dbl(*(#_mmcsdHandle)), XAR0
         000136 8F00 
         000138 0040-
     821              $C$DW$125       .dwtag  DW_TAG_TI_branch
     822                      .dwattr $C$DW$125, DW_AT_low_pc(0x00)
     823                      .dwattr $C$DW$125, DW_AT_name("_MMC_sendGoIdle")
     824                      .dwattr $C$DW$125, DW_AT_TI_call
     825 00013a 6C00          CALL #_MMC_sendGoIdle ; |357| 
         00013c 0000!
     826                                                      ; call occurs [#_MMC_sendGoIdle] ; |357| 
     827 00013e C410          MOV T0, *SP(#8) ; |357| 
     828                      .dwpsn  file "../c5535_bsl_revc/ezdsp5535_v1/c55xx_csl/ccs_v4.0_examples/mmc_sd/CSL_MMCSD_intrExample
     829 000140 2249          MOV T0, AR1
     830 000142 0409          BCC $C$L9,AR1 == #0 ; |358| 
         000144 12   
     831                                                      ; branchcc occurs ; |358| 
     832                      .dwpsn  file "../c5535_bsl_revc/ezdsp5535_v1/c55xx_csl/ccs_v4.0_examples/mmc_sd/CSL_MMCSD_intrExample
     833 000145 EC31          AMOV #$C$FSL7, XAR3 ; |360| 
         000147 BE00 
         000149 00B6+
     834 00014b EB00          MOV XAR3, dbl(*SP(#0))
         00014d B5   
     835              $C$DW$126       .dwtag  DW_TAG_TI_branch
     836                      .dwattr $C$DW$126, DW_AT_low_pc(0x00)
     837                      .dwattr $C$DW$126, DW_AT_name("_printf")
     838                      .dwattr $C$DW$126, DW_AT_TI_call
     839 00014e 6C00          CALL #_printf ; |360| 
         000150 0000!
     840                                                      ; call occurs [#_printf] ; |360| 
     841                      .dwpsn  file "../c5535_bsl_revc/ezdsp5535_v1/c55xx_csl/ccs_v4.0_examples/mmc_sd/CSL_MMCSD_intrExample
     842 000152 A410          MOV *SP(#8), T0 ; |361| 
     843 000154 0604          B $C$L36  ; |361| 
         000156 1A   
     844                                                      ; branch occurs ; |361| 
     845 000157       $C$L9:    
     846                      .dwpsn  file "../c5535_bsl_revc/ezdsp5535_v1/c55xx_csl/ccs_v4.0_examples/mmc_sd/CSL_MMCSD_intrExample
     847 000157 ED31          MOV dbl(*(#_mmcsdHandle)), XAR0
TMS320C55x Assembler PC v4.4.1 Sat Sep 29 23:08:58 2018

Tools Copyright (c) 1996-2012 Texas Instruments Incorporated
csl_mmcsd_intr_example.asm                                           PAGE   18

         000159 8F00 
         00015b 0040-
     848 00015d EC31          AMOV #_mmcCardObj, XAR1 ; |365| 
         00015f 9E00 
         000161 0042-
     849              $C$DW$127       .dwtag  DW_TAG_TI_branch
     850                      .dwattr $C$DW$127, DW_AT_low_pc(0x00)
     851                      .dwattr $C$DW$127, DW_AT_name("_MMC_selectCard")
     852                      .dwattr $C$DW$127, DW_AT_TI_call
     853 000163 6C00          CALL #_MMC_selectCard ; |365| 
         000165 0000!
     854                                                      ; call occurs [#_MMC_selectCard] ; |365| 
     855 000167 C410          MOV T0, *SP(#8) ; |365| 
     856                      .dwpsn  file "../c5535_bsl_revc/ezdsp5535_v1/c55xx_csl/ccs_v4.0_examples/mmc_sd/CSL_MMCSD_intrExample
     857 000169 F010          CMP *SP(#8) == #-5, TC1 ; |366| 
         00016b FFFB 
     858 00016d 63E4          BCC $C$L10,TC1 ; |366| 
     859                                                      ; branchcc occurs ; |366| 
     860 00016f F010          CMP *SP(#8) == #-6, TC1 ; |366| 
         000171 FFFA 
     861 000173 0474          BCC $C$L11,!TC1 ; |366| 
         000175 12   
     862                                                      ; branchcc occurs ; |366| 
     863 000176       $C$L10:    
     864                      .dwpsn  file "../c5535_bsl_revc/ezdsp5535_v1/c55xx_csl/ccs_v4.0_examples/mmc_sd/CSL_MMCSD_intrExample
     865 000176 EC31          AMOV #$C$FSL8, XAR3 ; |369| 
         000178 BE00 
         00017a 00D2+
     866 00017c EB00          MOV XAR3, dbl(*SP(#0))
         00017e B5   
     867              $C$DW$128       .dwtag  DW_TAG_TI_branch
     868                      .dwattr $C$DW$128, DW_AT_low_pc(0x00)
     869                      .dwattr $C$DW$128, DW_AT_name("_printf")
     870                      .dwattr $C$DW$128, DW_AT_TI_call
     871 00017f 6C00          CALL #_printf ; |369| 
         000181 0000!
     872                                                      ; call occurs [#_printf] ; |369| 
     873                      .dwpsn  file "../c5535_bsl_revc/ezdsp5535_v1/c55xx_csl/ccs_v4.0_examples/mmc_sd/CSL_MMCSD_intrExample
     874 000183 A410          MOV *SP(#8), T0 ; |370| 
     875 000185 0603          B $C$L36  ; |370| 
         000187 E9   
     876                                                      ; branch occurs ; |370| 
     877 000188       $C$L11:    
     878                      .dwpsn  file "../c5535_bsl_revc/ezdsp5535_v1/c55xx_csl/ccs_v4.0_examples/mmc_sd/CSL_MMCSD_intrExample
     879 000188 F031          CMP *(#(_mmcCardObj+18)) == #2, TC1 ; |374| 
         00018a 0002 
         00018c 0000 
         00018e 54-  
     880 00018f 6D74          BCC $C$L15,!TC1 ; |374| 
         000191 00A2 
     881                                                      ; branchcc occurs ; |374| 
     882                      .dwpsn  file "../c5535_bsl_revc/ezdsp5535_v1/c55xx_csl/ccs_v4.0_examples/mmc_sd/CSL_MMCSD_intrExample
     883 000193 EC31          AMOV #$C$FSL9, XAR3 ; |376| 
         000195 BE00 
         000197 00EE+
TMS320C55x Assembler PC v4.4.1 Sat Sep 29 23:08:58 2018

Tools Copyright (c) 1996-2012 Texas Instruments Incorporated
csl_mmcsd_intr_example.asm                                           PAGE   19

     884 000199 EB00          MOV XAR3, dbl(*SP(#0))
         00019b B5   
     885              $C$DW$129       .dwtag  DW_TAG_TI_branch
     886                      .dwattr $C$DW$129, DW_AT_low_pc(0x00)
     887                      .dwattr $C$DW$129, DW_AT_name("_printf")
     888                      .dwattr $C$DW$129, DW_AT_TI_call
     889 00019c 6C00          CALL #_printf ; |376| 
         00019e 0000!
     890                                                      ; call occurs [#_printf] ; |376| 
     891                      .dwpsn  file "../c5535_bsl_revc/ezdsp5535_v1/c55xx_csl/ccs_v4.0_examples/mmc_sd/CSL_MMCSD_intrExample
     892 0001a0 E618          MOV #2, *SP(#12) ; |377| 
         0001a2 02   
     893                      .dwpsn  file "../c5535_bsl_revc/ezdsp5535_v1/c55xx_csl/ccs_v4.0_examples/mmc_sd/CSL_MMCSD_intrExample
     894 0001a3 ED08          MOV dbl(*SP(#4)), AC0 ; |378| 
         0001a5 08   
     895 0001a6 1007          SFTL AC0, #9, AC0 ; |378| 
         0001a8 09   
     896 0001a9 EB0C          MOV AC0, dbl(*SP(#6)) ; |378| 
         0001ab 08   
     897                      .dwpsn  file "../c5535_bsl_revc/ezdsp5535_v1/c55xx_csl/ccs_v4.0_examples/mmc_sd/CSL_MMCSD_intrExample
     898 0001ac EC31          AMOV #_cardIdObj, XAR1 ; |381| 
         0001ae 9E00 
         0001b0 0060-
     899 0001b2 ED31          MOV dbl(*(#_mmcsdHandle)), XAR0
         0001b4 8F00 
         0001b6 0040-
     900              $C$DW$130       .dwtag  DW_TAG_TI_branch
     901                      .dwattr $C$DW$130, DW_AT_low_pc(0x00)
     902                      .dwattr $C$DW$130, DW_AT_name("_MMC_sendAllCID")
     903                      .dwattr $C$DW$130, DW_AT_TI_call
     904 0001b8 6C00          CALL #_MMC_sendAllCID ; |381| 
         0001ba 0000!
     905                                                      ; call occurs [#_MMC_sendAllCID] ; |381| 
     906 0001bc C410          MOV T0, *SP(#8) ; |381| 
     907                      .dwpsn  file "../c5535_bsl_revc/ezdsp5535_v1/c55xx_csl/ccs_v4.0_examples/mmc_sd/CSL_MMCSD_intrExample
     908 0001be 2249          MOV T0, AR1
     909 0001c0 0409          BCC $C$L12,AR1 == #0 ; |382| 
         0001c2 12   
     910                                                      ; branchcc occurs ; |382| 
     911                      .dwpsn  file "../c5535_bsl_revc/ezdsp5535_v1/c55xx_csl/ccs_v4.0_examples/mmc_sd/CSL_MMCSD_intrExample
     912 0001c3 EC31          AMOV #$C$FSL10, XAR3 ; |384| 
         0001c5 BE00 
         0001c7 0104+
     913 0001c9 EB00          MOV XAR3, dbl(*SP(#0))
         0001cb B5   
     914              $C$DW$131       .dwtag  DW_TAG_TI_branch
     915                      .dwattr $C$DW$131, DW_AT_low_pc(0x00)
     916                      .dwattr $C$DW$131, DW_AT_name("_printf")
     917                      .dwattr $C$DW$131, DW_AT_TI_call
     918 0001cc 6C00          CALL #_printf ; |384| 
         0001ce 0000!
     919                                                      ; call occurs [#_printf] ; |384| 
     920                      .dwpsn  file "../c5535_bsl_revc/ezdsp5535_v1/c55xx_csl/ccs_v4.0_examples/mmc_sd/CSL_MMCSD_intrExample
     921 0001d0 A410          MOV *SP(#8), T0 ; |385| 
     922 0001d2 0603          B $C$L36  ; |385| 
TMS320C55x Assembler PC v4.4.1 Sat Sep 29 23:08:58 2018

Tools Copyright (c) 1996-2012 Texas Instruments Incorporated
csl_mmcsd_intr_example.asm                                           PAGE   20

         0001d4 9C   
     923                                                      ; branch occurs ; |385| 
     924 0001d5       $C$L12:    
     925                      .dwpsn  file "../c5535_bsl_revc/ezdsp5535_v1/c55xx_csl/ccs_v4.0_examples/mmc_sd/CSL_MMCSD_intrExample
     926 0001d5 ED31          MOV dbl(*(#_mmcsdHandle)), XAR0
         0001d7 8F00 
         0001d9 0040-
     927 0001db EC31          AMOV #_mmcCardObj, XAR1 ; |389| 
         0001dd 9E00 
         0001df 0042-
     928              $C$DW$132       .dwtag  DW_TAG_TI_branch
     929                      .dwattr $C$DW$132, DW_AT_low_pc(0x00)
     930                      .dwattr $C$DW$132, DW_AT_name("_MMC_setRca")
     931                      .dwattr $C$DW$132, DW_AT_TI_call
     932              
     933 0001e1 6C00          CALL #_MMC_setRca ; |389| 
         0001e3 0000!
     934 0001e5 3D14  ||      MOV #1, T0
     935              
     936                                                      ; call occurs [#_MMC_setRca] ; |389| 
     937 0001e7 C410          MOV T0, *SP(#8) ; |389| 
     938                      .dwpsn  file "../c5535_bsl_revc/ezdsp5535_v1/c55xx_csl/ccs_v4.0_examples/mmc_sd/CSL_MMCSD_intrExample
     939 0001e9 2249          MOV T0, AR1
     940 0001eb 0409          BCC $C$L13,AR1 == #0 ; |390| 
         0001ed 12   
     941                                                      ; branchcc occurs ; |390| 
     942                      .dwpsn  file "../c5535_bsl_revc/ezdsp5535_v1/c55xx_csl/ccs_v4.0_examples/mmc_sd/CSL_MMCSD_intrExample
     943 0001ee EC31          AMOV #$C$FSL11, XAR3 ; |392| 
         0001f0 BE00 
         0001f2 0120+
     944 0001f4 EB00          MOV XAR3, dbl(*SP(#0))
         0001f6 B5   
     945              $C$DW$133       .dwtag  DW_TAG_TI_branch
     946                      .dwattr $C$DW$133, DW_AT_low_pc(0x00)
     947                      .dwattr $C$DW$133, DW_AT_name("_printf")
     948                      .dwattr $C$DW$133, DW_AT_TI_call
     949 0001f7 6C00          CALL #_printf ; |392| 
         0001f9 0000!
     950                                                      ; call occurs [#_printf] ; |392| 
     951                      .dwpsn  file "../c5535_bsl_revc/ezdsp5535_v1/c55xx_csl/ccs_v4.0_examples/mmc_sd/CSL_MMCSD_intrExample
     952 0001fb A410          MOV *SP(#8), T0 ; |393| 
     953 0001fd 0603          B $C$L36  ; |393| 
         0001ff 71   
     954                                                      ; branch occurs ; |393| 
     955 000200       $C$L13:    
     956                      .dwpsn  file "../c5535_bsl_revc/ezdsp5535_v1/c55xx_csl/ccs_v4.0_examples/mmc_sd/CSL_MMCSD_intrExample
     957 000200 ED31          MOV dbl(*(#_mmcsdHandle)), XAR0
         000202 8F00 
         000204 0040-
     958 000206 EC31          AMOV #_cardCsdObj, XAR1 ; |397| 
         000208 9E00 
         00020a 0070-
     959              $C$DW$134       .dwtag  DW_TAG_TI_branch
     960                      .dwattr $C$DW$134, DW_AT_low_pc(0x00)
     961                      .dwattr $C$DW$134, DW_AT_name("_MMC_getCardCsd")
TMS320C55x Assembler PC v4.4.1 Sat Sep 29 23:08:58 2018

Tools Copyright (c) 1996-2012 Texas Instruments Incorporated
csl_mmcsd_intr_example.asm                                           PAGE   21

     962                      .dwattr $C$DW$134, DW_AT_TI_call
     963 00020c 6C00          CALL #_MMC_getCardCsd ; |397| 
         00020e 0000!
     964                                                      ; call occurs [#_MMC_getCardCsd] ; |397| 
     965 000210 C410          MOV T0, *SP(#8) ; |397| 
     966                      .dwpsn  file "../c5535_bsl_revc/ezdsp5535_v1/c55xx_csl/ccs_v4.0_examples/mmc_sd/CSL_MMCSD_intrExample
     967 000212 2249          MOV T0, AR1
     968 000214 0409          BCC $C$L14,AR1 == #0 ; |398| 
         000216 12   
     969                                                      ; branchcc occurs ; |398| 
     970                      .dwpsn  file "../c5535_bsl_revc/ezdsp5535_v1/c55xx_csl/ccs_v4.0_examples/mmc_sd/CSL_MMCSD_intrExample
     971 000217 EC31          AMOV #$C$FSL12, XAR3 ; |400| 
         000219 BE00 
         00021b 0138+
     972 00021d EB00          MOV XAR3, dbl(*SP(#0))
         00021f B5   
     973              $C$DW$135       .dwtag  DW_TAG_TI_branch
     974                      .dwattr $C$DW$135, DW_AT_low_pc(0x00)
     975                      .dwattr $C$DW$135, DW_AT_name("_printf")
     976                      .dwattr $C$DW$135, DW_AT_TI_call
     977 000220 6C00          CALL #_printf ; |400| 
         000222 0000!
     978                                                      ; call occurs [#_printf] ; |400| 
     979                      .dwpsn  file "../c5535_bsl_revc/ezdsp5535_v1/c55xx_csl/ccs_v4.0_examples/mmc_sd/CSL_MMCSD_intrExample
     980 000224 A410          MOV *SP(#8), T0 ; |401| 
     981 000226 0603          B $C$L36  ; |401| 
         000228 48   
     982                                                      ; branch occurs ; |401| 
     983 000229       $C$L14:    
     984                      .dwpsn  file "../c5535_bsl_revc/ezdsp5535_v1/c55xx_csl/ccs_v4.0_examples/mmc_sd/CSL_MMCSD_intrExample
     985 000229 7613          MOV #5000, AC0 ; |405| 
         00022b 8808 
     986              $C$DW$136       .dwtag  DW_TAG_TI_branch
     987                      .dwattr $C$DW$136, DW_AT_low_pc(0x00)
     988                      .dwattr $C$DW$136, DW_AT_name("_computeClkRate")
     989                      .dwattr $C$DW$136, DW_AT_TI_call
     990 00022d 0803          CALL #_computeClkRate ; |405| 
         00022f 48   
     991                                                      ; call occurs [#_computeClkRate] ; |405| 
     992 000230 C416          MOV T0, *SP(#11) ; |405| 
     993                      .dwpsn  file "../c5535_bsl_revc/ezdsp5535_v1/c55xx_csl/ccs_v4.0_examples/mmc_sd/CSL_MMCSD_intrExample
     994 000232 0601          B $C$L23  ; |406| 
         000234 41   
     995                                                      ; branch occurs ; |406| 
     996 000235       $C$L15:    
     997                      .dwpsn  file "../c5535_bsl_revc/ezdsp5535_v1/c55xx_csl/ccs_v4.0_examples/mmc_sd/CSL_MMCSD_intrExample
     998 000235 F031          CMP *(#(_mmcCardObj+18)) == #1, TC1 ; |407| 
         000237 0001 
         000239 0000 
         00023b 54-  
     999 00023c 6D74          BCC $C$L22,!TC1 ; |407| 
         00023e 0117 
    1000                                                      ; branchcc occurs ; |407| 
    1001                      .dwpsn  file "../c5535_bsl_revc/ezdsp5535_v1/c55xx_csl/ccs_v4.0_examples/mmc_sd/CSL_MMCSD_intrExample
    1002 000240 EC31          AMOV #$C$FSL13, XAR3 ; |409| 
TMS320C55x Assembler PC v4.4.1 Sat Sep 29 23:08:58 2018

Tools Copyright (c) 1996-2012 Texas Instruments Incorporated
csl_mmcsd_intr_example.asm                                           PAGE   22

         000242 BE00 
         000244 0154+
    1003 000246 EB00          MOV XAR3, dbl(*SP(#0))
         000248 B5   
    1004              $C$DW$137       .dwtag  DW_TAG_TI_branch
    1005                      .dwattr $C$DW$137, DW_AT_low_pc(0x00)
    1006                      .dwattr $C$DW$137, DW_AT_name("_printf")
    1007                      .dwattr $C$DW$137, DW_AT_TI_call
    1008 000249 6C00          CALL #_printf ; |409| 
         00024b 0000!
    1009                                                      ; call occurs [#_printf] ; |409| 
    1010                      .dwpsn  file "../c5535_bsl_revc/ezdsp5535_v1/c55xx_csl/ccs_v4.0_examples/mmc_sd/CSL_MMCSD_intrExample
    1011 00024d E618          MOV #1, *SP(#12) ; |410| 
         00024f 01   
    1012                      .dwpsn  file "../c5535_bsl_revc/ezdsp5535_v1/c55xx_csl/ccs_v4.0_examples/mmc_sd/CSL_MMCSD_intrExample
    1013 000250 ED31          MOV dbl(*(#_mmcsdHandle)), XAR3
         000252 BF00 
         000254 0040-
    1014 000256 ED75          MOV dbl(*AR3(short(#2))), XAR3
         000258 BF   
    1015 000259 F06D          CMP *AR3(#26) == #1, TC1 ; |413| 
         00025b 0001 
         00025d 001A 
    1016 00025f 0474          BCC $C$L16,!TC1 ; |413| 
         000261 22   
    1017                                                      ; branchcc occurs ; |413| 
    1018                      .dwpsn  file "../c5535_bsl_revc/ezdsp5535_v1/c55xx_csl/ccs_v4.0_examples/mmc_sd/CSL_MMCSD_intrExample
    1019 000262 EC31          AMOV #$C$FSL14, XAR3 ; |415| 
         000264 BE00 
         000266 0168+
    1020 000268 EB00          MOV XAR3, dbl(*SP(#0))
         00026a B5   
    1021              $C$DW$138       .dwtag  DW_TAG_TI_branch
    1022                      .dwattr $C$DW$138, DW_AT_low_pc(0x00)
    1023                      .dwattr $C$DW$138, DW_AT_name("_printf")
    1024                      .dwattr $C$DW$138, DW_AT_TI_call
    1025 00026b 6C00          CALL #_printf ; |415| 
         00026d 0000!
    1026                                                      ; call occurs [#_printf] ; |415| 
    1027                      .dwpsn  file "../c5535_bsl_revc/ezdsp5535_v1/c55xx_csl/ccs_v4.0_examples/mmc_sd/CSL_MMCSD_intrExample
    1028 00026f EC31          AMOV #$C$FSL15, XAR3 ; |416| 
         000271 BE00 
         000273 0188+
    1029 000275 EB00          MOV XAR3, dbl(*SP(#0))
         000277 B5   
    1030              $C$DW$139       .dwtag  DW_TAG_TI_branch
    1031                      .dwattr $C$DW$139, DW_AT_low_pc(0x00)
    1032                      .dwattr $C$DW$139, DW_AT_name("_printf")
    1033                      .dwattr $C$DW$139, DW_AT_TI_call
    1034 000278 6C00          CALL #_printf ; |416| 
         00027a 0000!
    1035                                                      ; call occurs [#_printf] ; |416| 
    1036                      .dwpsn  file "../c5535_bsl_revc/ezdsp5535_v1/c55xx_csl/ccs_v4.0_examples/mmc_sd/CSL_MMCSD_intrExample
    1037 00027c ED08          MOV dbl(*SP(#4)), AC0 ; |420| 
         00027e 08   
TMS320C55x Assembler PC v4.4.1 Sat Sep 29 23:08:58 2018

Tools Copyright (c) 1996-2012 Texas Instruments Incorporated
csl_mmcsd_intr_example.asm                                           PAGE   23

    1038 00027f EB0C          MOV AC0, dbl(*SP(#6)) ; |420| 
         000281 08   
    1039                      .dwpsn  file "../c5535_bsl_revc/ezdsp5535_v1/c55xx_csl/ccs_v4.0_examples/mmc_sd/CSL_MMCSD_intrExample
    1040 000282 4A23          B $C$L17  ; |421| 
    1041                                                      ; branch occurs ; |421| 
    1042 000284       $C$L16:    
    1043                      .dwpsn  file "../c5535_bsl_revc/ezdsp5535_v1/c55xx_csl/ccs_v4.0_examples/mmc_sd/CSL_MMCSD_intrExample
    1044 000284 EC31          AMOV #$C$FSL16, XAR3 ; |424| 
         000286 BE00 
         000288 01AE+
    1045 00028a EB00          MOV XAR3, dbl(*SP(#0))
         00028c B5   
    1046              $C$DW$140       .dwtag  DW_TAG_TI_branch
    1047                      .dwattr $C$DW$140, DW_AT_low_pc(0x00)
    1048                      .dwattr $C$DW$140, DW_AT_name("_printf")
    1049                      .dwattr $C$DW$140, DW_AT_TI_call
    1050 00028d 6C00          CALL #_printf ; |424| 
         00028f 0000!
    1051                                                      ; call occurs [#_printf] ; |424| 
    1052                      .dwpsn  file "../c5535_bsl_revc/ezdsp5535_v1/c55xx_csl/ccs_v4.0_examples/mmc_sd/CSL_MMCSD_intrExample
    1053 000291 EC31          AMOV #$C$FSL17, XAR3 ; |425| 
         000293 BE00 
         000295 01D2+
    1054 000297 EB00          MOV XAR3, dbl(*SP(#0))
         000299 B5   
    1055              $C$DW$141       .dwtag  DW_TAG_TI_branch
    1056                      .dwattr $C$DW$141, DW_AT_low_pc(0x00)
    1057                      .dwattr $C$DW$141, DW_AT_name("_printf")
    1058                      .dwattr $C$DW$141, DW_AT_TI_call
    1059 00029a 6C00          CALL #_printf ; |425| 
         00029c 0000!
    1060                                                      ; call occurs [#_printf] ; |425| 
    1061                      .dwpsn  file "../c5535_bsl_revc/ezdsp5535_v1/c55xx_csl/ccs_v4.0_examples/mmc_sd/CSL_MMCSD_intrExample
    1062 00029e ED08          MOV dbl(*SP(#4)), AC0 ; |429| 
         0002a0 08   
    1063 0002a1 1007          SFTL AC0, #9, AC0 ; |429| 
         0002a3 09   
    1064 0002a4 EB0C          MOV AC0, dbl(*SP(#6)) ; |429| 
         0002a6 08   
    1065 0002a7       $C$L17:    
    1066                      .dwpsn  file "../c5535_bsl_revc/ezdsp5535_v1/c55xx_csl/ccs_v4.0_examples/mmc_sd/CSL_MMCSD_intrExample
    1067 0002a7 ED31          MOV dbl(*(#_mmcsdHandle)), XAR0
         0002a9 8F00 
         0002ab 0040-
    1068 0002ad 7600          MOV #70, T0 ; |433| 
         0002af 4648 
    1069              $C$DW$142       .dwtag  DW_TAG_TI_branch
    1070                      .dwattr $C$DW$142, DW_AT_low_pc(0x00)
    1071                      .dwattr $C$DW$142, DW_AT_name("_MMC_sendOpCond")
    1072                      .dwattr $C$DW$142, DW_AT_TI_call
    1073 0002b1 6C00          CALL #_MMC_sendOpCond ; |433| 
         0002b3 0000!
    1074                                                      ; call occurs [#_MMC_sendOpCond] ; |433| 
    1075 0002b5 C410          MOV T0, *SP(#8) ; |433| 
    1076                      .dwpsn  file "../c5535_bsl_revc/ezdsp5535_v1/c55xx_csl/ccs_v4.0_examples/mmc_sd/CSL_MMCSD_intrExample
TMS320C55x Assembler PC v4.4.1 Sat Sep 29 23:08:58 2018

Tools Copyright (c) 1996-2012 Texas Instruments Incorporated
csl_mmcsd_intr_example.asm                                           PAGE   24

    1077 0002b7 2249          MOV T0, AR1
    1078 0002b9 0409          BCC $C$L18,AR1 == #0 ; |434| 
         0002bb 12   
    1079                                                      ; branchcc occurs ; |434| 
    1080                      .dwpsn  file "../c5535_bsl_revc/ezdsp5535_v1/c55xx_csl/ccs_v4.0_examples/mmc_sd/CSL_MMCSD_intrExample
    1081 0002bc EC31          AMOV #$C$FSL18, XAR3 ; |436| 
         0002be BE00 
         0002c0 01F8+
    1082 0002c2 EB00          MOV XAR3, dbl(*SP(#0))
         0002c4 B5   
    1083              $C$DW$143       .dwtag  DW_TAG_TI_branch
    1084                      .dwattr $C$DW$143, DW_AT_low_pc(0x00)
    1085                      .dwattr $C$DW$143, DW_AT_name("_printf")
    1086                      .dwattr $C$DW$143, DW_AT_TI_call
    1087 0002c5 6C00          CALL #_printf ; |436| 
         0002c7 0000!
    1088                                                      ; call occurs [#_printf] ; |436| 
    1089                      .dwpsn  file "../c5535_bsl_revc/ezdsp5535_v1/c55xx_csl/ccs_v4.0_examples/mmc_sd/CSL_MMCSD_intrExample
    1090 0002c9 A410          MOV *SP(#8), T0 ; |437| 
    1091 0002cb 0602          B $C$L36  ; |437| 
         0002cd A3   
    1092                                                      ; branch occurs ; |437| 
    1093 0002ce       $C$L18:    
    1094                      .dwpsn  file "../c5535_bsl_revc/ezdsp5535_v1/c55xx_csl/ccs_v4.0_examples/mmc_sd/CSL_MMCSD_intrExample
    1095 0002ce ED31          MOV dbl(*(#_mmcsdHandle)), XAR0
         0002d0 8F00 
         0002d2 0040-
    1096 0002d4 EC31          AMOV #_cardIdObj, XAR1 ; |441| 
         0002d6 9E00 
         0002d8 0060-
    1097              $C$DW$144       .dwtag  DW_TAG_TI_branch
    1098                      .dwattr $C$DW$144, DW_AT_low_pc(0x00)
    1099                      .dwattr $C$DW$144, DW_AT_name("_SD_sendAllCID")
    1100                      .dwattr $C$DW$144, DW_AT_TI_call
    1101 0002da 6C00          CALL #_SD_sendAllCID ; |441| 
         0002dc 0000!
    1102                                                      ; call occurs [#_SD_sendAllCID] ; |441| 
    1103 0002de C410          MOV T0, *SP(#8) ; |441| 
    1104                      .dwpsn  file "../c5535_bsl_revc/ezdsp5535_v1/c55xx_csl/ccs_v4.0_examples/mmc_sd/CSL_MMCSD_intrExample
    1105 0002e0 2249          MOV T0, AR1
    1106 0002e2 0409          BCC $C$L19,AR1 == #0 ; |442| 
         0002e4 12   
    1107                                                      ; branchcc occurs ; |442| 
    1108                      .dwpsn  file "../c5535_bsl_revc/ezdsp5535_v1/c55xx_csl/ccs_v4.0_examples/mmc_sd/CSL_MMCSD_intrExample
    1109 0002e5 EC31          AMOV #$C$FSL19, XAR3 ; |444| 
         0002e7 BE00 
         0002e9 0214+
    1110 0002eb EB00          MOV XAR3, dbl(*SP(#0))
         0002ed B5   
    1111              $C$DW$145       .dwtag  DW_TAG_TI_branch
    1112                      .dwattr $C$DW$145, DW_AT_low_pc(0x00)
    1113                      .dwattr $C$DW$145, DW_AT_name("_printf")
    1114                      .dwattr $C$DW$145, DW_AT_TI_call
    1115 0002ee 6C00          CALL #_printf ; |444| 
         0002f0 0000!
TMS320C55x Assembler PC v4.4.1 Sat Sep 29 23:08:58 2018

Tools Copyright (c) 1996-2012 Texas Instruments Incorporated
csl_mmcsd_intr_example.asm                                           PAGE   25

    1116                                                      ; call occurs [#_printf] ; |444| 
    1117                      .dwpsn  file "../c5535_bsl_revc/ezdsp5535_v1/c55xx_csl/ccs_v4.0_examples/mmc_sd/CSL_MMCSD_intrExample
    1118 0002f2 A410          MOV *SP(#8), T0 ; |445| 
    1119 0002f4 0602          B $C$L36  ; |445| 
         0002f6 7A   
    1120                                                      ; branch occurs ; |445| 
    1121 0002f7       $C$L19:    
    1122                      .dwpsn  file "../c5535_bsl_revc/ezdsp5535_v1/c55xx_csl/ccs_v4.0_examples/mmc_sd/CSL_MMCSD_intrExample
    1123 0002f7 EC1A          AMAR *SP(#13), XAR2
         0002f9 AE   
    1124 0002fa ED31          MOV dbl(*(#_mmcsdHandle)), XAR0
         0002fc 8F00 
         0002fe 0040-
    1125 000300 EC31          AMOV #_mmcCardObj, XAR1 ; |449| 
         000302 9E00 
         000304 0042-
    1126              $C$DW$146       .dwtag  DW_TAG_TI_branch
    1127                      .dwattr $C$DW$146, DW_AT_low_pc(0x00)
    1128                      .dwattr $C$DW$146, DW_AT_name("_SD_sendRca")
    1129                      .dwattr $C$DW$146, DW_AT_TI_call
    1130 000306 6C00          CALL #_SD_sendRca ; |449| 
         000308 0000!
    1131                                                      ; call occurs [#_SD_sendRca] ; |449| 
    1132 00030a C410          MOV T0, *SP(#8) ; |449| 
    1133                      .dwpsn  file "../c5535_bsl_revc/ezdsp5535_v1/c55xx_csl/ccs_v4.0_examples/mmc_sd/CSL_MMCSD_intrExample
    1134 00030c 2249          MOV T0, AR1
    1135 00030e 0409          BCC $C$L20,AR1 == #0 ; |450| 
         000310 12   
    1136                                                      ; branchcc occurs ; |450| 
    1137                      .dwpsn  file "../c5535_bsl_revc/ezdsp5535_v1/c55xx_csl/ccs_v4.0_examples/mmc_sd/CSL_MMCSD_intrExample
    1138 000311 EC31          AMOV #$C$FSL20, XAR3 ; |452| 
         000313 BE00 
         000315 0230+
    1139 000317 EB00          MOV XAR3, dbl(*SP(#0))
         000319 B5   
    1140              $C$DW$147       .dwtag  DW_TAG_TI_branch
    1141                      .dwattr $C$DW$147, DW_AT_low_pc(0x00)
    1142                      .dwattr $C$DW$147, DW_AT_name("_printf")
    1143                      .dwattr $C$DW$147, DW_AT_TI_call
    1144 00031a 6C00          CALL #_printf ; |452| 
         00031c 0000!
    1145                                                      ; call occurs [#_printf] ; |452| 
    1146                      .dwpsn  file "../c5535_bsl_revc/ezdsp5535_v1/c55xx_csl/ccs_v4.0_examples/mmc_sd/CSL_MMCSD_intrExample
    1147 00031e A410          MOV *SP(#8), T0 ; |453| 
    1148 000320 0602          B $C$L36  ; |453| 
         000322 4E   
    1149                                                      ; branch occurs ; |453| 
    1150 000323       $C$L20:    
    1151                      .dwpsn  file "../c5535_bsl_revc/ezdsp5535_v1/c55xx_csl/ccs_v4.0_examples/mmc_sd/CSL_MMCSD_intrExample
    1152 000323 ED31          MOV dbl(*(#_mmcsdHandle)), XAR0
         000325 8F00 
         000327 0040-
    1153 000329 EC31          AMOV #_cardCsdObj, XAR1 ; |457| 
         00032b 9E00 
         00032d 0070-
TMS320C55x Assembler PC v4.4.1 Sat Sep 29 23:08:58 2018

Tools Copyright (c) 1996-2012 Texas Instruments Incorporated
csl_mmcsd_intr_example.asm                                           PAGE   26

    1154              $C$DW$148       .dwtag  DW_TAG_TI_branch
    1155                      .dwattr $C$DW$148, DW_AT_low_pc(0x00)
    1156                      .dwattr $C$DW$148, DW_AT_name("_SD_getCardCsd")
    1157                      .dwattr $C$DW$148, DW_AT_TI_call
    1158 00032f 6C00          CALL #_SD_getCardCsd ; |457| 
         000331 0000!
    1159                                                      ; call occurs [#_SD_getCardCsd] ; |457| 
    1160 000333 C410          MOV T0, *SP(#8) ; |457| 
    1161                      .dwpsn  file "../c5535_bsl_revc/ezdsp5535_v1/c55xx_csl/ccs_v4.0_examples/mmc_sd/CSL_MMCSD_intrExample
    1162 000335 2249          MOV T0, AR1
    1163 000337 0409          BCC $C$L21,AR1 == #0 ; |458| 
         000339 12   
    1164                                                      ; branchcc occurs ; |458| 
    1165                      .dwpsn  file "../c5535_bsl_revc/ezdsp5535_v1/c55xx_csl/ccs_v4.0_examples/mmc_sd/CSL_MMCSD_intrExample
    1166 00033a EC31          AMOV #$C$FSL21, XAR3 ; |460| 
         00033c BE00 
         00033e 0248+
    1167 000340 EB00          MOV XAR3, dbl(*SP(#0))
         000342 B5   
    1168              $C$DW$149       .dwtag  DW_TAG_TI_branch
    1169                      .dwattr $C$DW$149, DW_AT_low_pc(0x00)
    1170                      .dwattr $C$DW$149, DW_AT_name("_printf")
    1171                      .dwattr $C$DW$149, DW_AT_TI_call
    1172 000343 6C00          CALL #_printf ; |460| 
         000345 0000!
    1173                                                      ; call occurs [#_printf] ; |460| 
    1174                      .dwpsn  file "../c5535_bsl_revc/ezdsp5535_v1/c55xx_csl/ccs_v4.0_examples/mmc_sd/CSL_MMCSD_intrExample
    1175 000347 A410          MOV *SP(#8), T0 ; |461| 
    1176 000349 0602          B $C$L36  ; |461| 
         00034b 25   
    1177                                                      ; branch occurs ; |461| 
    1178 00034c       $C$L21:    
    1179                      .dwpsn  file "../c5535_bsl_revc/ezdsp5535_v1/c55xx_csl/ccs_v4.0_examples/mmc_sd/CSL_MMCSD_intrExample
    1180 00034c 764E          MOV #20000, AC0 ; |465| 
         00034e 2008 
    1181              $C$DW$150       .dwtag  DW_TAG_TI_branch
    1182                      .dwattr $C$DW$150, DW_AT_low_pc(0x00)
    1183                      .dwattr $C$DW$150, DW_AT_name("_computeClkRate")
    1184                      .dwattr $C$DW$150, DW_AT_TI_call
    1185 000350 0802          CALL #_computeClkRate ; |465| 
         000352 25   
    1186                                                      ; call occurs [#_computeClkRate] ; |465| 
    1187 000353 C416          MOV T0, *SP(#11) ; |465| 
    1188                      .dwpsn  file "../c5535_bsl_revc/ezdsp5535_v1/c55xx_csl/ccs_v4.0_examples/mmc_sd/CSL_MMCSD_intrExample
    1189 000355 4A1F          B $C$L23  ; |466| 
    1190                                                      ; branch occurs ; |466| 
    1191 000357       $C$L22:    
    1192                      .dwpsn  file "../c5535_bsl_revc/ezdsp5535_v1/c55xx_csl/ccs_v4.0_examples/mmc_sd/CSL_MMCSD_intrExample
    1193 000357 EC31          AMOV #$C$FSL22, XAR3 ; |469| 
         000359 BE00 
         00035b 0264+
    1194 00035d EB00          MOV XAR3, dbl(*SP(#0))
         00035f B5   
    1195              $C$DW$151       .dwtag  DW_TAG_TI_branch
    1196                      .dwattr $C$DW$151, DW_AT_low_pc(0x00)
TMS320C55x Assembler PC v4.4.1 Sat Sep 29 23:08:58 2018

Tools Copyright (c) 1996-2012 Texas Instruments Incorporated
csl_mmcsd_intr_example.asm                                           PAGE   27

    1197                      .dwattr $C$DW$151, DW_AT_name("_printf")
    1198                      .dwattr $C$DW$151, DW_AT_TI_call
    1199 000360 6C00          CALL #_printf ; |469| 
         000362 0000!
    1200                                                      ; call occurs [#_printf] ; |469| 
    1201                      .dwpsn  file "../c5535_bsl_revc/ezdsp5535_v1/c55xx_csl/ccs_v4.0_examples/mmc_sd/CSL_MMCSD_intrExample
    1202 000364 EC31          AMOV #$C$FSL23, XAR3 ; |470| 
         000366 BE00 
         000368 0278+
    1203 00036a EB00          MOV XAR3, dbl(*SP(#0))
         00036c B5   
    1204              $C$DW$152       .dwtag  DW_TAG_TI_branch
    1205                      .dwattr $C$DW$152, DW_AT_low_pc(0x00)
    1206                      .dwattr $C$DW$152, DW_AT_name("_printf")
    1207                      .dwattr $C$DW$152, DW_AT_TI_call
    1208 00036d 6C00          CALL #_printf ; |470| 
         00036f 0000!
    1209                                                      ; call occurs [#_printf] ; |470| 
    1210                      .dwpsn  file "../c5535_bsl_revc/ezdsp5535_v1/c55xx_csl/ccs_v4.0_examples/mmc_sd/CSL_MMCSD_intrExample
    1211 000371 3E14          MOV #-1, T0
    1212 000373 0601          B $C$L36  ; |471| 
         000375 FB   
    1213                                                      ; branch occurs ; |471| 
    1214 000376       $C$L23:    
    1215                      .dwpsn  file "../c5535_bsl_revc/ezdsp5535_v1/c55xx_csl/ccs_v4.0_examples/mmc_sd/CSL_MMCSD_intrExample
    1216 000376 A418          MOV *SP(#12), T0 ; |475| 
    1217 000378 EC31          AMOV #_mmcCardObj, XAR0 ; |475| 
         00037a 8E00 
         00037c 0042-
    1218              $C$DW$153       .dwtag  DW_TAG_TI_branch
    1219                      .dwattr $C$DW$153, DW_AT_low_pc(0x00)
    1220                      .dwattr $C$DW$153, DW_AT_name("_MMC_setCardType")
    1221                      .dwattr $C$DW$153, DW_AT_TI_call
    1222 00037e 6C00          CALL #_MMC_setCardType ; |475| 
         000380 0000!
    1223                                                      ; call occurs [#_MMC_setCardType] ; |475| 
    1224 000382 C410          MOV T0, *SP(#8) ; |475| 
    1225                      .dwpsn  file "../c5535_bsl_revc/ezdsp5535_v1/c55xx_csl/ccs_v4.0_examples/mmc_sd/CSL_MMCSD_intrExample
    1226 000384 2249          MOV T0, AR1
    1227 000386 0409          BCC $C$L24,AR1 == #0 ; |476| 
         000388 12   
    1228                                                      ; branchcc occurs ; |476| 
    1229                      .dwpsn  file "../c5535_bsl_revc/ezdsp5535_v1/c55xx_csl/ccs_v4.0_examples/mmc_sd/CSL_MMCSD_intrExample
    1230 000389 EC31          AMOV #$C$FSL24, XAR3 ; |478| 
         00038b BE00 
         00038d 028E+
    1231 00038f EB00          MOV XAR3, dbl(*SP(#0))
         000391 B5   
    1232              $C$DW$154       .dwtag  DW_TAG_TI_branch
    1233                      .dwattr $C$DW$154, DW_AT_low_pc(0x00)
    1234                      .dwattr $C$DW$154, DW_AT_name("_printf")
    1235                      .dwattr $C$DW$154, DW_AT_TI_call
    1236 000392 6C00          CALL #_printf ; |478| 
         000394 0000!
    1237                                                      ; call occurs [#_printf] ; |478| 
TMS320C55x Assembler PC v4.4.1 Sat Sep 29 23:08:58 2018

Tools Copyright (c) 1996-2012 Texas Instruments Incorporated
csl_mmcsd_intr_example.asm                                           PAGE   28

    1238                      .dwpsn  file "../c5535_bsl_revc/ezdsp5535_v1/c55xx_csl/ccs_v4.0_examples/mmc_sd/CSL_MMCSD_intrExample
    1239 000396 A410          MOV *SP(#8), T0 ; |479| 
    1240 000398 0601          B $C$L36  ; |479| 
         00039a D6   
    1241                                                      ; branch occurs ; |479| 
    1242 00039b       $C$L24:    
    1243                      .dwpsn  file "../c5535_bsl_revc/ezdsp5535_v1/c55xx_csl/ccs_v4.0_examples/mmc_sd/CSL_MMCSD_intrExample
    1244 00039b ED31          MOV dbl(*(#_mmcsdHandle)), XAR0
         00039d 8F00 
         00039f 0040-
    1245 0003a1 EC31          AMOV #_mmcCardObj, XAR1 ; |483| 
         0003a3 9E00 
         0003a5 0042-
    1246              $C$DW$155       .dwtag  DW_TAG_TI_branch
    1247                      .dwattr $C$DW$155, DW_AT_low_pc(0x00)
    1248                      .dwattr $C$DW$155, DW_AT_name("_MMC_setCardPtr")
    1249                      .dwattr $C$DW$155, DW_AT_TI_call
    1250 0003a7 6C00          CALL #_MMC_setCardPtr ; |483| 
         0003a9 0000!
    1251                                                      ; call occurs [#_MMC_setCardPtr] ; |483| 
    1252 0003ab C410          MOV T0, *SP(#8) ; |483| 
    1253                      .dwpsn  file "../c5535_bsl_revc/ezdsp5535_v1/c55xx_csl/ccs_v4.0_examples/mmc_sd/CSL_MMCSD_intrExample
    1254 0003ad 2249          MOV T0, AR1
    1255 0003af 0409          BCC $C$L25,AR1 == #0 ; |484| 
         0003b1 12   
    1256                                                      ; branchcc occurs ; |484| 
    1257                      .dwpsn  file "../c5535_bsl_revc/ezdsp5535_v1/c55xx_csl/ccs_v4.0_examples/mmc_sd/CSL_MMCSD_intrExample
    1258 0003b2 EC31          AMOV #$C$FSL25, XAR3 ; |486| 
         0003b4 BE00 
         0003b6 02AC+
    1259 0003b8 EB00          MOV XAR3, dbl(*SP(#0))
         0003ba B5   
    1260              $C$DW$156       .dwtag  DW_TAG_TI_branch
    1261                      .dwattr $C$DW$156, DW_AT_low_pc(0x00)
    1262                      .dwattr $C$DW$156, DW_AT_name("_printf")
    1263                      .dwattr $C$DW$156, DW_AT_TI_call
    1264 0003bb 6C00          CALL #_printf ; |486| 
         0003bd 0000!
    1265                                                      ; call occurs [#_printf] ; |486| 
    1266                      .dwpsn  file "../c5535_bsl_revc/ezdsp5535_v1/c55xx_csl/ccs_v4.0_examples/mmc_sd/CSL_MMCSD_intrExample
    1267 0003bf A410          MOV *SP(#8), T0 ; |487| 
    1268 0003c1 0601          B $C$L36  ; |487| 
         0003c3 AD   
    1269                                                      ; branch occurs ; |487| 
    1270 0003c4       $C$L25:    
    1271                      .dwpsn  file "../c5535_bsl_revc/ezdsp5535_v1/c55xx_csl/ccs_v4.0_examples/mmc_sd/CSL_MMCSD_intrExample
    1272 0003c4 EC14          AMAR *SP(#10), XAR1
         0003c6 9E   
    1273 0003c7 ED31          MOV dbl(*(#_mmcsdHandle)), XAR0
         0003c9 8F00 
         0003cb 0040-
    1274              $C$DW$157       .dwtag  DW_TAG_TI_branch
    1275                      .dwattr $C$DW$157, DW_AT_low_pc(0x00)
    1276                      .dwattr $C$DW$157, DW_AT_name("_MMC_getNumberOfCards")
    1277                      .dwattr $C$DW$157, DW_AT_TI_call
TMS320C55x Assembler PC v4.4.1 Sat Sep 29 23:08:58 2018

Tools Copyright (c) 1996-2012 Texas Instruments Incorporated
csl_mmcsd_intr_example.asm                                           PAGE   29

    1278 0003cd 6C00          CALL #_MMC_getNumberOfCards ; |491| 
         0003cf 0000!
    1279                                                      ; call occurs [#_MMC_getNumberOfCards] ; |491| 
    1280 0003d1 C410          MOV T0, *SP(#8) ; |491| 
    1281                      .dwpsn  file "../c5535_bsl_revc/ezdsp5535_v1/c55xx_csl/ccs_v4.0_examples/mmc_sd/CSL_MMCSD_intrExample
    1282 0003d3 2249          MOV T0, AR1
    1283 0003d5 0409          BCC $C$L26,AR1 == #0 ; |492| 
         0003d7 12   
    1284                                                      ; branchcc occurs ; |492| 
    1285                      .dwpsn  file "../c5535_bsl_revc/ezdsp5535_v1/c55xx_csl/ccs_v4.0_examples/mmc_sd/CSL_MMCSD_intrExample
    1286 0003d8 EC31          AMOV #$C$FSL26, XAR3 ; |494| 
         0003da BE00 
         0003dc 02C8+
    1287 0003de EB00          MOV XAR3, dbl(*SP(#0))
         0003e0 B5   
    1288              $C$DW$158       .dwtag  DW_TAG_TI_branch
    1289                      .dwattr $C$DW$158, DW_AT_low_pc(0x00)
    1290                      .dwattr $C$DW$158, DW_AT_name("_printf")
    1291                      .dwattr $C$DW$158, DW_AT_TI_call
    1292 0003e1 6C00          CALL #_printf ; |494| 
         0003e3 0000!
    1293                                                      ; call occurs [#_printf] ; |494| 
    1294                      .dwpsn  file "../c5535_bsl_revc/ezdsp5535_v1/c55xx_csl/ccs_v4.0_examples/mmc_sd/CSL_MMCSD_intrExample
    1295 0003e5 A410          MOV *SP(#8), T0 ; |495| 
    1296 0003e7 0601          B $C$L36  ; |495| 
         0003e9 87   
    1297                                                      ; branch occurs ; |495| 
    1298 0003ea       $C$L26:    
    1299                      .dwpsn  file "../c5535_bsl_revc/ezdsp5535_v1/c55xx_csl/ccs_v4.0_examples/mmc_sd/CSL_MMCSD_intrExample
    1300              $C$DW$159       .dwtag  DW_TAG_TI_branch
    1301                      .dwattr $C$DW$159, DW_AT_low_pc(0x00)
    1302                      .dwattr $C$DW$159, DW_AT_name("_IRQ_globalEnable")
    1303                      .dwattr $C$DW$159, DW_AT_TI_call
    1304 0003ea 6C00          CALL #_IRQ_globalEnable ; |499| 
         0003ec 0000!
    1305                                                      ; call occurs [#_IRQ_globalEnable] ; |499| 
    1306                      .dwpsn  file "../c5535_bsl_revc/ezdsp5535_v1/c55xx_csl/ccs_v4.0_examples/mmc_sd/CSL_MMCSD_intrExample
    1307 0003ee A416          MOV *SP(#11), T0 ; |502| 
    1308 0003f0 ED31          MOV dbl(*(#_mmcsdHandle)), XAR0
         0003f2 8F00 
         0003f4 0040-
    1309              $C$DW$160       .dwtag  DW_TAG_TI_branch
    1310                      .dwattr $C$DW$160, DW_AT_low_pc(0x00)
    1311                      .dwattr $C$DW$160, DW_AT_name("_MMC_sendOpCond")
    1312                      .dwattr $C$DW$160, DW_AT_TI_call
    1313 0003f6 6C00          CALL #_MMC_sendOpCond ; |502| 
         0003f8 0000!
    1314                                                      ; call occurs [#_MMC_sendOpCond] ; |502| 
    1315 0003fa C410          MOV T0, *SP(#8) ; |502| 
    1316                      .dwpsn  file "../c5535_bsl_revc/ezdsp5535_v1/c55xx_csl/ccs_v4.0_examples/mmc_sd/CSL_MMCSD_intrExample
    1317 0003fc 2249          MOV T0, AR1
    1318 0003fe 0409          BCC $C$L27,AR1 == #0 ; |503| 
         000400 12   
    1319                                                      ; branchcc occurs ; |503| 
    1320                      .dwpsn  file "../c5535_bsl_revc/ezdsp5535_v1/c55xx_csl/ccs_v4.0_examples/mmc_sd/CSL_MMCSD_intrExample
TMS320C55x Assembler PC v4.4.1 Sat Sep 29 23:08:58 2018

Tools Copyright (c) 1996-2012 Texas Instruments Incorporated
csl_mmcsd_intr_example.asm                                           PAGE   30

    1321 000401 EC31          AMOV #$C$FSL18, XAR3 ; |505| 
         000403 BE00 
         000405 01F8+
    1322 000407 EB00          MOV XAR3, dbl(*SP(#0))
         000409 B5   
    1323              $C$DW$161       .dwtag  DW_TAG_TI_branch
    1324                      .dwattr $C$DW$161, DW_AT_low_pc(0x00)
    1325                      .dwattr $C$DW$161, DW_AT_name("_printf")
    1326                      .dwattr $C$DW$161, DW_AT_TI_call
    1327 00040a 6C00          CALL #_printf ; |505| 
         00040c 0000!
    1328                                                      ; call occurs [#_printf] ; |505| 
    1329                      .dwpsn  file "../c5535_bsl_revc/ezdsp5535_v1/c55xx_csl/ccs_v4.0_examples/mmc_sd/CSL_MMCSD_intrExample
    1330 00040e A410          MOV *SP(#8), T0 ; |506| 
    1331 000410 0601          B $C$L36  ; |506| 
         000412 5E   
    1332                                                      ; branch occurs ; |506| 
    1333 000413       $C$L27:    
    1334                      .dwpsn  file "../c5535_bsl_revc/ezdsp5535_v1/c55xx_csl/ccs_v4.0_examples/mmc_sd/CSL_MMCSD_intrExample
    1335 000413 ED31          MOV dbl(*(#_mmcsdHandle)), XAR0
         000415 8F00 
         000417 0040-
    1336 000419 3C04          MOV #0, T0
    1337              $C$DW$162       .dwtag  DW_TAG_TI_branch
    1338                      .dwattr $C$DW$162, DW_AT_low_pc(0x00)
    1339                      .dwattr $C$DW$162, DW_AT_name("_MMC_setEndianMode")
    1340                      .dwattr $C$DW$162, DW_AT_TI_call
    1341              
    1342 00041b 6C00          CALL #_MMC_setEndianMode ; |510| 
         00041d 0000!
    1343 00041f 3D05  ||      MOV #0, T1
    1344              
    1345                                                      ; call occurs [#_MMC_setEndianMode] ; |510| 
    1346 000421 C410          MOV T0, *SP(#8) ; |510| 
    1347                      .dwpsn  file "../c5535_bsl_revc/ezdsp5535_v1/c55xx_csl/ccs_v4.0_examples/mmc_sd/CSL_MMCSD_intrExample
    1348 000423 2249          MOV T0, AR1
    1349 000425 0409          BCC $C$L28,AR1 == #0 ; |512| 
         000427 12   
    1350                                                      ; branchcc occurs ; |512| 
    1351                      .dwpsn  file "../c5535_bsl_revc/ezdsp5535_v1/c55xx_csl/ccs_v4.0_examples/mmc_sd/CSL_MMCSD_intrExample
    1352 000428 EC31          AMOV #$C$FSL27, XAR3 ; |514| 
         00042a BE00 
         00042c 02EA+
    1353 00042e EB00          MOV XAR3, dbl(*SP(#0))
         000430 B5   
    1354              $C$DW$163       .dwtag  DW_TAG_TI_branch
    1355                      .dwattr $C$DW$163, DW_AT_low_pc(0x00)
    1356                      .dwattr $C$DW$163, DW_AT_name("_printf")
    1357                      .dwattr $C$DW$163, DW_AT_TI_call
    1358 000431 6C00          CALL #_printf ; |514| 
         000433 0000!
    1359                                                      ; call occurs [#_printf] ; |514| 
    1360                      .dwpsn  file "../c5535_bsl_revc/ezdsp5535_v1/c55xx_csl/ccs_v4.0_examples/mmc_sd/CSL_MMCSD_intrExample
    1361 000435 A410          MOV *SP(#8), T0 ; |515| 
    1362 000437 0601          B $C$L36  ; |515| 
TMS320C55x Assembler PC v4.4.1 Sat Sep 29 23:08:58 2018

Tools Copyright (c) 1996-2012 Texas Instruments Incorporated
csl_mmcsd_intr_example.asm                                           PAGE   31

         000439 37   
    1363                                                      ; branch occurs ; |515| 
    1364 00043a       $C$L28:    
    1365                      .dwpsn  file "../c5535_bsl_revc/ezdsp5535_v1/c55xx_csl/ccs_v4.0_examples/mmc_sd/CSL_MMCSD_intrExample
    1366 00043a ED31          MOV dbl(*(#_mmcsdHandle)), XAR0
         00043c 8F00 
         00043e 0040-
    1367 000440 7602          MOV #512, AC0 ; |522| 
         000442 0008 
    1368              $C$DW$164       .dwtag  DW_TAG_TI_branch
    1369                      .dwattr $C$DW$164, DW_AT_low_pc(0x00)
    1370                      .dwattr $C$DW$164, DW_AT_name("_MMC_setBlockLength")
    1371                      .dwattr $C$DW$164, DW_AT_TI_call
    1372 000444 6C00          CALL #_MMC_setBlockLength ; |522| 
         000446 0000!
    1373                                                      ; call occurs [#_MMC_setBlockLength] ; |522| 
    1374 000448 C410          MOV T0, *SP(#8) ; |522| 
    1375                      .dwpsn  file "../c5535_bsl_revc/ezdsp5535_v1/c55xx_csl/ccs_v4.0_examples/mmc_sd/CSL_MMCSD_intrExample
    1376 00044a 2249          MOV T0, AR1
    1377 00044c 0409          BCC $C$L29,AR1 == #0 ; |523| 
         00044e 12   
    1378                                                      ; branchcc occurs ; |523| 
    1379                      .dwpsn  file "../c5535_bsl_revc/ezdsp5535_v1/c55xx_csl/ccs_v4.0_examples/mmc_sd/CSL_MMCSD_intrExample
    1380 00044f EC31          AMOV #$C$FSL28, XAR3 ; |525| 
         000451 BE00 
         000453 030A+
    1381 000455 EB00          MOV XAR3, dbl(*SP(#0))
         000457 B5   
    1382              $C$DW$165       .dwtag  DW_TAG_TI_branch
    1383                      .dwattr $C$DW$165, DW_AT_low_pc(0x00)
    1384                      .dwattr $C$DW$165, DW_AT_name("_printf")
    1385                      .dwattr $C$DW$165, DW_AT_TI_call
    1386 000458 6C00          CALL #_printf ; |525| 
         00045a 0000!
    1387                                                      ; call occurs [#_printf] ; |525| 
    1388                      .dwpsn  file "../c5535_bsl_revc/ezdsp5535_v1/c55xx_csl/ccs_v4.0_examples/mmc_sd/CSL_MMCSD_intrExample
    1389 00045c A410          MOV *SP(#8), T0 ; |526| 
    1390 00045e 0601          B $C$L36  ; |526| 
         000460 10   
    1391                                                      ; branch occurs ; |526| 
    1392 000461       $C$L29:    
    1393                      .dwpsn  file "../c5535_bsl_revc/ezdsp5535_v1/c55xx_csl/ccs_v4.0_examples/mmc_sd/CSL_MMCSD_intrExample
    1394 000461 E631          MOV #0, *(#_gMmcIntr) ; |529| 
         000463 0000 
         000465 0092-
    1395                      .dwpsn  file "../c5535_bsl_revc/ezdsp5535_v1/c55xx_csl/ccs_v4.0_examples/mmc_sd/CSL_MMCSD_intrExample
    1396 000467 ED0C          MOV dbl(*SP(#6)), AC0 ; |532| 
         000469 08   
    1397 00046a ED31          MOV dbl(*(#_mmcsdHandle)), XAR0
         00046c 8F00 
         00046e 0040-
    1398 000470 EC31          AMOV #_gWriteBuf, XAR1 ; |532| 
         000472 9E00 
         000474 0193-
    1399 000476 7602          MOV #512, T0 ; |532| 
TMS320C55x Assembler PC v4.4.1 Sat Sep 29 23:08:58 2018

Tools Copyright (c) 1996-2012 Texas Instruments Incorporated
csl_mmcsd_intr_example.asm                                           PAGE   32

         000478 0048 
    1400              $C$DW$166       .dwtag  DW_TAG_TI_branch
    1401                      .dwattr $C$DW$166, DW_AT_low_pc(0x00)
    1402                      .dwattr $C$DW$166, DW_AT_name("_MMC_write")
    1403                      .dwattr $C$DW$166, DW_AT_TI_call
    1404 00047a 6C00          CALL #_MMC_write ; |532| 
         00047c 0000!
    1405                                                      ; call occurs [#_MMC_write] ; |532| 
    1406 00047e C410          MOV T0, *SP(#8) ; |532| 
    1407                      .dwpsn  file "../c5535_bsl_revc/ezdsp5535_v1/c55xx_csl/ccs_v4.0_examples/mmc_sd/CSL_MMCSD_intrExample
    1408 000480 2249          MOV T0, AR1
    1409 000482 0409          BCC $C$L30,AR1 == #0 ; |533| 
         000484 12   
    1410                                                      ; branchcc occurs ; |533| 
    1411                      .dwpsn  file "../c5535_bsl_revc/ezdsp5535_v1/c55xx_csl/ccs_v4.0_examples/mmc_sd/CSL_MMCSD_intrExample
    1412 000485 EC31          AMOV #$C$FSL29, XAR3 ; |535| 
         000487 BE00 
         000489 032A+
    1413 00048b EB00          MOV XAR3, dbl(*SP(#0))
         00048d B5   
    1414              $C$DW$167       .dwtag  DW_TAG_TI_branch
    1415                      .dwattr $C$DW$167, DW_AT_low_pc(0x00)
    1416                      .dwattr $C$DW$167, DW_AT_name("_printf")
    1417                      .dwattr $C$DW$167, DW_AT_TI_call
    1418 00048e 6C00          CALL #_printf ; |535| 
         000490 0000!
    1419                                                      ; call occurs [#_printf] ; |535| 
    1420                      .dwpsn  file "../c5535_bsl_revc/ezdsp5535_v1/c55xx_csl/ccs_v4.0_examples/mmc_sd/CSL_MMCSD_intrExample
    1421 000492 A410          MOV *SP(#8), T0 ; |536| 
    1422 000494 0600          B $C$L36  ; |536| 
         000496 DA   
    1423                                                      ; branch occurs ; |536| 
    1424 000497       $C$L30:    
    1425                      .dwpsn  file "../c5535_bsl_revc/ezdsp5535_v1/c55xx_csl/ccs_v4.0_examples/mmc_sd/CSL_MMCSD_intrExample
    1426 000497 EC31          AMOV #$C$FSL30, XAR3 ; |540| 
         000499 BE00 
         00049b 0342+
    1427 00049d EB00          MOV XAR3, dbl(*SP(#0))
         00049f B5   
    1428              $C$DW$168       .dwtag  DW_TAG_TI_branch
    1429                      .dwattr $C$DW$168, DW_AT_low_pc(0x00)
    1430                      .dwattr $C$DW$168, DW_AT_name("_printf")
    1431                      .dwattr $C$DW$168, DW_AT_TI_call
    1432 0004a0 6C00          CALL #_printf ; |540| 
         0004a2 0000!
    1433                                                      ; call occurs [#_printf] ; |540| 
    1434                      .dwpsn  file "../c5535_bsl_revc/ezdsp5535_v1/c55xx_csl/ccs_v4.0_examples/mmc_sd/CSL_MMCSD_intrExample
    1435 0004a4 E631          MOV #0, *(#_gMmcIntr) ; |543| 
         0004a6 0000 
         0004a8 0092-
    1436                      .dwpsn  file "../c5535_bsl_revc/ezdsp5535_v1/c55xx_csl/ccs_v4.0_examples/mmc_sd/CSL_MMCSD_intrExample
    1437 0004aa 7602          MOV #512, T0 ; |546| 
         0004ac 0048 
    1438 0004ae EC31          AMOV #_gReadBuf, XAR1 ; |546| 
         0004b0 9E00 
TMS320C55x Assembler PC v4.4.1 Sat Sep 29 23:08:58 2018

Tools Copyright (c) 1996-2012 Texas Instruments Incorporated
csl_mmcsd_intr_example.asm                                           PAGE   33

         0004b2 0093-
    1439 0004b4 ED31          MOV dbl(*(#_mmcsdHandle)), XAR0
         0004b6 8F00 
         0004b8 0040-
    1440 0004ba ED0C          MOV dbl(*SP(#6)), AC0 ; |546| 
         0004bc 08   
    1441              $C$DW$169       .dwtag  DW_TAG_TI_branch
    1442                      .dwattr $C$DW$169, DW_AT_low_pc(0x00)
    1443                      .dwattr $C$DW$169, DW_AT_name("_MMC_read")
    1444                      .dwattr $C$DW$169, DW_AT_TI_call
    1445 0004bd 6C00          CALL #_MMC_read ; |546| 
         0004bf 0000!
    1446                                                      ; call occurs [#_MMC_read] ; |546| 
    1447 0004c1 C410          MOV T0, *SP(#8) ; |546| 
    1448                      .dwpsn  file "../c5535_bsl_revc/ezdsp5535_v1/c55xx_csl/ccs_v4.0_examples/mmc_sd/CSL_MMCSD_intrExample
    1449 0004c3 2249          MOV T0, AR1
    1450 0004c5 0409          BCC $C$L31,AR1 == #0 ; |547| 
         0004c7 12   
    1451                                                      ; branchcc occurs ; |547| 
    1452                      .dwpsn  file "../c5535_bsl_revc/ezdsp5535_v1/c55xx_csl/ccs_v4.0_examples/mmc_sd/CSL_MMCSD_intrExample
    1453 0004c8 EC31          AMOV #$C$FSL31, XAR3 ; |549| 
         0004ca BE00 
         0004cc 035E+
    1454 0004ce EB00          MOV XAR3, dbl(*SP(#0))
         0004d0 B5   
    1455              $C$DW$170       .dwtag  DW_TAG_TI_branch
    1456                      .dwattr $C$DW$170, DW_AT_low_pc(0x00)
    1457                      .dwattr $C$DW$170, DW_AT_name("_printf")
    1458                      .dwattr $C$DW$170, DW_AT_TI_call
    1459 0004d1 6C00          CALL #_printf ; |549| 
         0004d3 0000!
    1460                                                      ; call occurs [#_printf] ; |549| 
    1461                      .dwpsn  file "../c5535_bsl_revc/ezdsp5535_v1/c55xx_csl/ccs_v4.0_examples/mmc_sd/CSL_MMCSD_intrExample
    1462 0004d5 A410          MOV *SP(#8), T0 ; |550| 
    1463 0004d7 0600          B $C$L36  ; |550| 
         0004d9 97   
    1464                                                      ; branch occurs ; |550| 
    1465 0004da       $C$L31:    
    1466                      .dwpsn  file "../c5535_bsl_revc/ezdsp5535_v1/c55xx_csl/ccs_v4.0_examples/mmc_sd/CSL_MMCSD_intrExample
    1467 0004da EC31          AMOV #$C$FSL32, XAR3 ; |554| 
         0004dc BE00 
         0004de 0374+
    1468 0004e0 EB00          MOV XAR3, dbl(*SP(#0))
         0004e2 B5   
    1469              $C$DW$171       .dwtag  DW_TAG_TI_branch
    1470                      .dwattr $C$DW$171, DW_AT_low_pc(0x00)
    1471                      .dwattr $C$DW$171, DW_AT_name("_printf")
    1472                      .dwattr $C$DW$171, DW_AT_TI_call
    1473 0004e3 6C00          CALL #_printf ; |554| 
         0004e5 0000!
    1474                                                      ; call occurs [#_printf] ; |554| 
    1475                      .dwpsn  file "../c5535_bsl_revc/ezdsp5535_v1/c55xx_csl/ccs_v4.0_examples/mmc_sd/CSL_MMCSD_intrExample
    1476              $C$DW$172       .dwtag  DW_TAG_TI_branch
    1477                      .dwattr $C$DW$172, DW_AT_low_pc(0x00)
    1478                      .dwattr $C$DW$172, DW_AT_name("_IRQ_globalDisable")
TMS320C55x Assembler PC v4.4.1 Sat Sep 29 23:08:58 2018

Tools Copyright (c) 1996-2012 Texas Instruments Incorporated
csl_mmcsd_intr_example.asm                                           PAGE   34

    1479                      .dwattr $C$DW$172, DW_AT_TI_call
    1480 0004e7 6C00          CALL #_IRQ_globalDisable ; |558| 
         0004e9 0000!
    1481                                                      ; call occurs [#_IRQ_globalDisable] ; |558| 
    1482                      .dwpsn  file "../c5535_bsl_revc/ezdsp5535_v1/c55xx_csl/ccs_v4.0_examples/mmc_sd/CSL_MMCSD_intrExample
    1483              $C$DW$173       .dwtag  DW_TAG_TI_branch
    1484                      .dwattr $C$DW$173, DW_AT_low_pc(0x00)
    1485                      .dwattr $C$DW$173, DW_AT_name("_IRQ_clearAll")
    1486                      .dwattr $C$DW$173, DW_AT_TI_call
    1487 0004eb 6C00          CALL #_IRQ_clearAll ; |561| 
         0004ed 0000!
    1488                                                      ; call occurs [#_IRQ_clearAll] ; |561| 
    1489                      .dwpsn  file "../c5535_bsl_revc/ezdsp5535_v1/c55xx_csl/ccs_v4.0_examples/mmc_sd/CSL_MMCSD_intrExample
    1490              $C$DW$174       .dwtag  DW_TAG_TI_branch
    1491                      .dwattr $C$DW$174, DW_AT_low_pc(0x00)
    1492                      .dwattr $C$DW$174, DW_AT_name("_IRQ_disableAll")
    1493                      .dwattr $C$DW$174, DW_AT_TI_call
    1494 0004ef 6C00          CALL #_IRQ_disableAll ; |564| 
         0004f1 0000!
    1495                                                      ; call occurs [#_IRQ_disableAll] ; |564| 
    1496                      .dwpsn  file "../c5535_bsl_revc/ezdsp5535_v1/c55xx_csl/ccs_v4.0_examples/mmc_sd/CSL_MMCSD_intrExample
    1497 0004f3 ED31          MOV dbl(*(#_mmcsdHandle)), XAR0
         0004f5 8F00 
         0004f7 0040-
    1498              $C$DW$175       .dwtag  DW_TAG_TI_branch
    1499                      .dwattr $C$DW$175, DW_AT_low_pc(0x00)
    1500                      .dwattr $C$DW$175, DW_AT_name("_MMC_close")
    1501                      .dwattr $C$DW$175, DW_AT_TI_call
    1502 0004f9 6C00          CALL #_MMC_close ; |567| 
         0004fb 0000!
    1503                                                      ; call occurs [#_MMC_close] ; |567| 
    1504 0004fd C410          MOV T0, *SP(#8) ; |567| 
    1505                      .dwpsn  file "../c5535_bsl_revc/ezdsp5535_v1/c55xx_csl/ccs_v4.0_examples/mmc_sd/CSL_MMCSD_intrExample
    1506 0004ff 2249          MOV T0, AR1
    1507 000501 0409          BCC $C$L32,AR1 == #0 ; |568| 
         000503 12   
    1508                                                      ; branchcc occurs ; |568| 
    1509                      .dwpsn  file "../c5535_bsl_revc/ezdsp5535_v1/c55xx_csl/ccs_v4.0_examples/mmc_sd/CSL_MMCSD_intrExample
    1510 000504 EC31          AMOV #$C$FSL33, XAR3 ; |570| 
         000506 BE00 
         000508 0390+
    1511 00050a EB00          MOV XAR3, dbl(*SP(#0))
         00050c B5   
    1512              $C$DW$176       .dwtag  DW_TAG_TI_branch
    1513                      .dwattr $C$DW$176, DW_AT_low_pc(0x00)
    1514                      .dwattr $C$DW$176, DW_AT_name("_printf")
    1515                      .dwattr $C$DW$176, DW_AT_TI_call
    1516 00050d 6C00          CALL #_printf ; |570| 
         00050f 0000!
    1517                                                      ; call occurs [#_printf] ; |570| 
    1518                      .dwpsn  file "../c5535_bsl_revc/ezdsp5535_v1/c55xx_csl/ccs_v4.0_examples/mmc_sd/CSL_MMCSD_intrExample
    1519 000511 A410          MOV *SP(#8), T0 ; |571| 
    1520 000513 0600          B $C$L36  ; |571| 
         000515 5B   
    1521                                                      ; branch occurs ; |571| 
TMS320C55x Assembler PC v4.4.1 Sat Sep 29 23:08:58 2018

Tools Copyright (c) 1996-2012 Texas Instruments Incorporated
csl_mmcsd_intr_example.asm                                           PAGE   35

    1522 000516       $C$L32:    
    1523                      .dwpsn  file "../c5535_bsl_revc/ezdsp5535_v1/c55xx_csl/ccs_v4.0_examples/mmc_sd/CSL_MMCSD_intrExample
    1524 000516 E612          MOV #0, *SP(#9) ; |575| 
         000518 00   
    1525                      .dwpsn  file "../c5535_bsl_revc/ezdsp5535_v1/c55xx_csl/ccs_v4.0_examples/mmc_sd/CSL_MMCSD_intrExample
    1526 000519 7601          MOV #256, AR2 ; |575| 
         00051b 00A8 
    1527 00051d A912          MOV *SP(#9), AR1 ; |575| 
    1528 00051f 1298          CMPU AR1 >= AR2, TC1 ; |575| 
         000521 A4   
    1529 000522 0464          BCC $C$L35,TC1 ; |575| 
         000524 3D   
    1530                                                      ; branchcc occurs ; |575| 
    1531 000525       $C$L33:    
    1532 000525       $C$DW$L$_mmcsdIntrTest$58$B:
    1533                      .dwpsn  file "../c5535_bsl_revc/ezdsp5535_v1/c55xx_csl/ccs_v4.0_examples/mmc_sd/CSL_MMCSD_intrExample
    1534 000525 A412          MOV *SP(#9), T0 ; |577| 
    1535 000527 EC31          AMOV #_gWriteBuf, XAR3 ; |577| 
         000529 BE00 
         00052b 0193-
    1536 00052d A96B          MOV *AR3(T0), AR1 ; |577| 
    1537 00052f EC31          AMOV #_gReadBuf, XAR3 ; |577| 
         000531 BE00 
         000533 0093-
    1538 000535 AA6B          MOV *AR3(T0), AR2 ; |577| 
    1539 000537 12A0          CMPU AR2 == AR1, TC1 ; |577| 
         000539 94   
    1540 00053a 0464          BCC $C$L34,TC1 ; |577| 
         00053c 15   
    1541                                                      ; branchcc occurs ; |577| 
    1542 00053d       $C$DW$L$_mmcsdIntrTest$58$E:
    1543                      .dwpsn  file "../c5535_bsl_revc/ezdsp5535_v1/c55xx_csl/ccs_v4.0_examples/mmc_sd/CSL_MMCSD_intrExample
    1544 00053d EC31          AMOV #$C$FSL34, XAR3 ; |579| 
         00053f BE00 
         000541 03A8+
    1545 000543 EB00          MOV XAR3, dbl(*SP(#0))
         000545 B5   
    1546 000546 A912          MOV *SP(#9), AR1 ; |579| 
    1547 000548 C904          MOV AR1, *SP(#2) ; |579| 
    1548              $C$DW$177       .dwtag  DW_TAG_TI_branch
    1549                      .dwattr $C$DW$177, DW_AT_low_pc(0x00)
    1550                      .dwattr $C$DW$177, DW_AT_name("_printf")
    1551                      .dwattr $C$DW$177, DW_AT_TI_call
    1552 00054a 6C00          CALL #_printf ; |579| 
         00054c 0000!
    1553                                                      ; call occurs [#_printf] ; |579| 
    1554                      .dwpsn  file "../c5535_bsl_revc/ezdsp5535_v1/c55xx_csl/ccs_v4.0_examples/mmc_sd/CSL_MMCSD_intrExample
    1555 00054e 3E14          MOV #-1, T0
    1556 000550 4A1F          B $C$L36  ; |580| 
    1557                                                      ; branch occurs ; |580| 
    1558 000552       $C$L34:    
    1559 000552       $C$DW$L$_mmcsdIntrTest$60$B:
    1560                      .dwpsn  file "../c5535_bsl_revc/ezdsp5535_v1/c55xx_csl/ccs_v4.0_examples/mmc_sd/CSL_MMCSD_intrExample
    1561 000552 F712          ADD #1, *SP(#9) ; |575| 
         000554 0001 
TMS320C55x Assembler PC v4.4.1 Sat Sep 29 23:08:58 2018

Tools Copyright (c) 1996-2012 Texas Instruments Incorporated
csl_mmcsd_intr_example.asm                                           PAGE   36

    1562                      .dwpsn  file "../c5535_bsl_revc/ezdsp5535_v1/c55xx_csl/ccs_v4.0_examples/mmc_sd/CSL_MMCSD_intrExample
    1563 000556 7601          MOV #256, AR2 ; |575| 
         000558 00A8 
    1564 00055a A912          MOV *SP(#9), AR1 ; |575| 
    1565 00055c 1294          CMPU AR1 < AR2, TC1 ; |575| 
         00055e A4   
    1566 00055f 0464          BCC $C$L33,TC1 ; |575| 
         000561 C3   
    1567                                                      ; branchcc occurs ; |575| 
    1568 000562       $C$DW$L$_mmcsdIntrTest$60$E:
    1569 000562       $C$L35:    
    1570                      .dwpsn  file "../c5535_bsl_revc/ezdsp5535_v1/c55xx_csl/ccs_v4.0_examples/mmc_sd/CSL_MMCSD_intrExample
    1571 000562 EC31          AMOV #$C$FSL35, XAR3 ; |584| 
         000564 BE00 
         000566 03CC+
    1572 000568 EB00          MOV XAR3, dbl(*SP(#0))
         00056a B5   
    1573              $C$DW$178       .dwtag  DW_TAG_TI_branch
    1574                      .dwattr $C$DW$178, DW_AT_low_pc(0x00)
    1575                      .dwattr $C$DW$178, DW_AT_name("_printf")
    1576                      .dwattr $C$DW$178, DW_AT_TI_call
    1577 00056b 6C00          CALL #_printf ; |584| 
         00056d 0000!
    1578                                                      ; call occurs [#_printf] ; |584| 
    1579                      .dwpsn  file "../c5535_bsl_revc/ezdsp5535_v1/c55xx_csl/ccs_v4.0_examples/mmc_sd/CSL_MMCSD_intrExample
    1580 00056f 3C04          MOV #0, T0
    1581 000571       $C$L36:    
    1582                      .dwpsn  file "../c5535_bsl_revc/ezdsp5535_v1/c55xx_csl/ccs_v4.0_examples/mmc_sd/CSL_MMCSD_intrExample
    1583 000571 4E0F          AADD #15, SP
    1584                      .dwcfi  cfa_offset, 1
    1585              $C$DW$179       .dwtag  DW_TAG_TI_branch
    1586                      .dwattr $C$DW$179, DW_AT_low_pc(0x00)
    1587                      .dwattr $C$DW$179, DW_AT_TI_return
    1588 000573 4804          RET
    1589                                                      ; return occurs
    1590              
    1591              $C$DW$180       .dwtag  DW_TAG_TI_loop
    1592                      .dwattr $C$DW$180, DW_AT_name("F:\eZdsp_DBG\tmp1\c55x-sim2\foo\Debug\csl_mmcsd_intr_example.asm:$C$L3
    1593                      .dwattr $C$DW$180, DW_AT_TI_begin_file("../c5535_bsl_revc/ezdsp5535_v1/c55xx_csl/ccs_v4.0_examples/mm
    1594                      .dwattr $C$DW$180, DW_AT_TI_begin_line(0x23f)
    1595                      .dwattr $C$DW$180, DW_AT_TI_end_line(0x246)
    1596              $C$DW$181       .dwtag  DW_TAG_TI_loop_range
    1597                      .dwattr $C$DW$181, DW_AT_low_pc($C$DW$L$_mmcsdIntrTest$58$B)
    1598                      .dwattr $C$DW$181, DW_AT_high_pc($C$DW$L$_mmcsdIntrTest$58$E)
    1599              $C$DW$182       .dwtag  DW_TAG_TI_loop_range
    1600                      .dwattr $C$DW$182, DW_AT_low_pc($C$DW$L$_mmcsdIntrTest$60$B)
    1601                      .dwattr $C$DW$182, DW_AT_high_pc($C$DW$L$_mmcsdIntrTest$60$E)
    1602                      .dwendtag $C$DW$180
    1603              
    1604              
    1605              $C$DW$183       .dwtag  DW_TAG_TI_loop
    1606                      .dwattr $C$DW$183, DW_AT_name("F:\eZdsp_DBG\tmp1\c55x-sim2\foo\Debug\csl_mmcsd_intr_example.asm:$C$L3
    1607                      .dwattr $C$DW$183, DW_AT_TI_begin_file("../c5535_bsl_revc/ezdsp5535_v1/c55xx_csl/ccs_v4.0_examples/mm
    1608                      .dwattr $C$DW$183, DW_AT_TI_begin_line(0x123)
    1609                      .dwattr $C$DW$183, DW_AT_TI_end_line(0x127)
TMS320C55x Assembler PC v4.4.1 Sat Sep 29 23:08:58 2018

Tools Copyright (c) 1996-2012 Texas Instruments Incorporated
csl_mmcsd_intr_example.asm                                           PAGE   37

    1610              $C$DW$184       .dwtag  DW_TAG_TI_loop_range
    1611                      .dwattr $C$DW$184, DW_AT_low_pc($C$DW$L$_mmcsdIntrTest$2$B)
    1612                      .dwattr $C$DW$184, DW_AT_high_pc($C$DW$L$_mmcsdIntrTest$2$E)
    1613                      .dwendtag $C$DW$183
    1614              
    1615                      .dwattr $C$DW$103, DW_AT_TI_end_file("../c5535_bsl_revc/ezdsp5535_v1/c55xx_csl/ccs_v4.0_examples/mmc_
    1616                      .dwattr $C$DW$103, DW_AT_TI_end_line(0x24b)
    1617                      .dwattr $C$DW$103, DW_AT_TI_end_column(0x01)
    1618                      .dwendentry
    1619                      .dwendtag $C$DW$103
    1620              
    1621 000575               .sect   ".text"
    1622                      .align 4
    1623                      .global _computeClkRate
    1624              
    1625              $C$DW$185       .dwtag  DW_TAG_subprogram, DW_AT_name("computeClkRate")
    1626                      .dwattr $C$DW$185, DW_AT_low_pc(_computeClkRate)
    1627                      .dwattr $C$DW$185, DW_AT_high_pc(0x00)
    1628                      .dwattr $C$DW$185, DW_AT_TI_symbol_name("_computeClkRate")
    1629                      .dwattr $C$DW$185, DW_AT_external
    1630                      .dwattr $C$DW$185, DW_AT_type(*$C$DW$T$19)
    1631                      .dwattr $C$DW$185, DW_AT_TI_begin_file("../c5535_bsl_revc/ezdsp5535_v1/c55xx_csl/ccs_v4.0_examples/mm
    1632                      .dwattr $C$DW$185, DW_AT_TI_begin_line(0x25e)
    1633                      .dwattr $C$DW$185, DW_AT_TI_begin_column(0x08)
    1634                      .dwattr $C$DW$185, DW_AT_TI_max_frame_size(0x08)
    1635                      .dwpsn  file "../c5535_bsl_revc/ezdsp5535_v1/c55xx_csl/ccs_v4.0_examples/mmc_sd/CSL_MMCSD_intrExample
    1636              
    1637                      .dwfde $C$DW$CIE, _computeClkRate
    1638              $C$DW$186       .dwtag  DW_TAG_formal_parameter, DW_AT_name("memMaxClk")
    1639                      .dwattr $C$DW$186, DW_AT_TI_symbol_name("_memMaxClk")
    1640                      .dwattr $C$DW$186, DW_AT_type(*$C$DW$T$28)
    1641                      .dwattr $C$DW$186, DW_AT_location[DW_OP_reg0]
    1642              ;*******************************************************************************
    1643              ;* FUNCTION NAME: computeClkRate                                               *
    1644              ;*                                                                             *
    1645              ;*   Function Uses Regs : AC0,AC0,AC1,AC1,T0,AR1,AR2,SP,CARRY,TC1,M40,SATA,    *
    1646              ;*                        SATD,RDM,FRCT,SMUL                                   *
    1647              ;*   Stack Frame        : Compact (No Frame Pointer, w/ debug)                 *
    1648              ;*   Total Frame Size   : 8 words                                              *
    1649              ;*                        (1 return address/alignment)                         *
    1650              ;*                        (7 local values)                                     *
    1651              ;*   Min System Stack   : 1 word                                               *
    1652              ;*******************************************************************************
    1653 000578       _computeClkRate:
    1654                      .dwcfi  cfa_offset, 1
    1655                      .dwcfi  save_reg_to_mem, 91, -1
    1656 000578 4EF9          AADD #-7, SP
    1657                      .dwcfi  cfa_offset, 8
    1658              $C$DW$187       .dwtag  DW_TAG_variable, DW_AT_name("memMaxClk")
    1659                      .dwattr $C$DW$187, DW_AT_TI_symbol_name("_memMaxClk")
    1660                      .dwattr $C$DW$187, DW_AT_type(*$C$DW$T$28)
    1661                      .dwattr $C$DW$187, DW_AT_location[DW_OP_bregx 0x24 0]
    1662              $C$DW$188       .dwtag  DW_TAG_variable, DW_AT_name("sysClock")
    1663                      .dwattr $C$DW$188, DW_AT_TI_symbol_name("_sysClock")
    1664                      .dwattr $C$DW$188, DW_AT_type(*$C$DW$T$28)
TMS320C55x Assembler PC v4.4.1 Sat Sep 29 23:08:58 2018

Tools Copyright (c) 1996-2012 Texas Instruments Incorporated
csl_mmcsd_intr_example.asm                                           PAGE   38

    1665                      .dwattr $C$DW$188, DW_AT_location[DW_OP_bregx 0x24 2]
    1666              $C$DW$189       .dwtag  DW_TAG_variable, DW_AT_name("remainder")
    1667                      .dwattr $C$DW$189, DW_AT_TI_symbol_name("_remainder")
    1668                      .dwattr $C$DW$189, DW_AT_type(*$C$DW$T$28)
    1669                      .dwattr $C$DW$189, DW_AT_location[DW_OP_bregx 0x24 4]
    1670              $C$DW$190       .dwtag  DW_TAG_variable, DW_AT_name("clkRate")
    1671                      .dwattr $C$DW$190, DW_AT_TI_symbol_name("_clkRate")
    1672                      .dwattr $C$DW$190, DW_AT_type(*$C$DW$T$19)
    1673                      .dwattr $C$DW$190, DW_AT_location[DW_OP_bregx 0x24 6]
    1674 00057a EB00          MOV AC0, dbl(*SP(#0)) ; |607| 
         00057c 08   
    1675                      .dwpsn  file "../c5535_bsl_revc/ezdsp5535_v1/c55xx_csl/ccs_v4.0_examples/mmc_sd/CSL_MMCSD_intrExample
    1676 00057d 3C00          MOV #0, AC0 ; |612| 
    1677 00057f EB04          MOV AC0, dbl(*SP(#2)) ; |612| 
         000581 08   
    1678                      .dwpsn  file "../c5535_bsl_revc/ezdsp5535_v1/c55xx_csl/ccs_v4.0_examples/mmc_sd/CSL_MMCSD_intrExample
    1679 000582 EB08          MOV AC0, dbl(*SP(#4)) ; |613| 
         000584 08   
    1680                      .dwpsn  file "../c5535_bsl_revc/ezdsp5535_v1/c55xx_csl/ccs_v4.0_examples/mmc_sd/CSL_MMCSD_intrExample
    1681 000585 E60C          MOV #0, *SP(#6) ; |614| 
         000587 00   
    1682                      .dwpsn  file "../c5535_bsl_revc/ezdsp5535_v1/c55xx_csl/ccs_v4.0_examples/mmc_sd/CSL_MMCSD_intrExample
    1683              $C$DW$191       .dwtag  DW_TAG_TI_branch
    1684                      .dwattr $C$DW$191, DW_AT_low_pc(0x00)
    1685                      .dwattr $C$DW$191, DW_AT_name("_getSysClk")
    1686                      .dwattr $C$DW$191, DW_AT_TI_call
    1687 000588 0800          CALL #_getSysClk ; |617| 
         00058a 65   
    1688                                                      ; call occurs [#_getSysClk] ; |617| 
    1689 00058b EB04          MOV AC0, dbl(*SP(#2)) ; |617| 
         00058d 08   
    1690                      .dwpsn  file "../c5535_bsl_revc/ezdsp5535_v1/c55xx_csl/ccs_v4.0_examples/mmc_sd/CSL_MMCSD_intrExample
    1691 00058e ED04          MOV dbl(*SP(#2)), AC1 ; |619| 
         000590 18   
    1692 000591 ED00          MOV dbl(*SP(#0)), AC0 ; |619| 
         000593 08   
    1693 000594 1208          CMPU AC1 <= AC0, TC1 ; |619| 
         000596 14   
    1694 000597 0464          BCC $C$L40,TC1 ; |619| 
         000599 50   
    1695                                                      ; branchcc occurs ; |619| 
    1696                      .dwpsn  file "../c5535_bsl_revc/ezdsp5535_v1/c55xx_csl/ccs_v4.0_examples/mmc_sd/CSL_MMCSD_intrExample
    1697 00059a ED00          MOV dbl(*SP(#0)), AC0 ; |621| 
         00059c 08   
    1698 00059d 0400          BCC $C$L39,AC0 == #0 ; |621| 
         00059f 46   
    1699                                                      ; branchcc occurs ; |621| 
    1700                      .dwpsn  file "../c5535_bsl_revc/ezdsp5535_v1/c55xx_csl/ccs_v4.0_examples/mmc_sd/CSL_MMCSD_intrExample
    1701 0005a0 ED04          MOV dbl(*SP(#2)), AC0 ; |623| 
         0005a2 08   
    1702 0005a3 ED00          MOV dbl(*SP(#0)), AC1 ; |623| 
         0005a5 18   
    1703              $C$DW$192       .dwtag  DW_TAG_TI_branch
    1704                      .dwattr $C$DW$192, DW_AT_low_pc(0x00)
    1705                      .dwattr $C$DW$192, DW_AT_name("__divul")
TMS320C55x Assembler PC v4.4.1 Sat Sep 29 23:08:58 2018

Tools Copyright (c) 1996-2012 Texas Instruments Incorporated
csl_mmcsd_intr_example.asm                                           PAGE   39

    1706                      .dwattr $C$DW$192, DW_AT_TI_call
    1707 0005a6 6C00          CALL #__divul ; |623| 
         0005a8 0000!
    1708                                                      ; call occurs [#__divul] ; |623| 
    1709 0005aa C00C          MOV AC0, *SP(#6) ; |623| 
    1710                      .dwpsn  file "../c5535_bsl_revc/ezdsp5535_v1/c55xx_csl/ccs_v4.0_examples/mmc_sd/CSL_MMCSD_intrExample
    1711 0005ac ED04          MOV dbl(*SP(#2)), AC0 ; |624| 
         0005ae 08   
    1712 0005af ED00          MOV dbl(*SP(#0)), AC1 ; |624| 
         0005b1 18   
    1713              $C$DW$193       .dwtag  DW_TAG_TI_branch
    1714                      .dwattr $C$DW$193, DW_AT_low_pc(0x00)
    1715                      .dwattr $C$DW$193, DW_AT_name("__remul")
    1716                      .dwattr $C$DW$193, DW_AT_TI_call
    1717 0005b2 6C00          CALL #__remul ; |624| 
         0005b4 0000!
    1718                                                      ; call occurs [#__remul] ; |624| 
    1719 0005b6 EB08          MOV AC0, dbl(*SP(#4)) ; |624| 
         0005b8 08   
    1720                      .dwpsn  file "../c5535_bsl_revc/ezdsp5535_v1/c55xx_csl/ccs_v4.0_examples/mmc_sd/CSL_MMCSD_intrExample
    1721 0005b9 ED08          MOV dbl(*SP(#4)), AC0 ; |631| 
         0005bb 08   
    1722 0005bc 6200          BCC $C$L37,AC0 == #0 ; |631| 
    1723                                                      ; branchcc occurs ; |631| 
    1724                      .dwpsn  file "../c5535_bsl_revc/ezdsp5535_v1/c55xx_csl/ccs_v4.0_examples/mmc_sd/CSL_MMCSD_intrExample
    1725 0005be F70C          ADD #1, *SP(#6) ; |633| 
         0005c0 0001 
    1726 0005c2       $C$L37:    
    1727                      .dwpsn  file "../c5535_bsl_revc/ezdsp5535_v1/c55xx_csl/ccs_v4.0_examples/mmc_sd/CSL_MMCSD_intrExample
    1728 0005c2 DC0C          BTST #0, *SP(#6), TC1 ; |641| 
         0005c4 00   
    1729 0005c5 6274          BCC $C$L38,!TC1 ; |641| 
    1730                                                      ; branchcc occurs ; |641| 
    1731                      .dwpsn  file "../c5535_bsl_revc/ezdsp5535_v1/c55xx_csl/ccs_v4.0_examples/mmc_sd/CSL_MMCSD_intrExample
    1732 0005c7 F70C          ADD #1, *SP(#6) ; |643| 
         0005c9 0001 
    1733 0005cb       $C$L38:    
    1734                      .dwpsn  file "../c5535_bsl_revc/ezdsp5535_v1/c55xx_csl/ccs_v4.0_examples/mmc_sd/CSL_MMCSD_intrExample
    1735 0005cb A90C          MOV *SP(#6), AR1 ; |650| 
    1736 0005cd 5091          SFTL AR1, #-1 ; |650| 
    1737 0005cf C90C          MOV AR1, *SP(#6) ; |650| 
    1738                      .dwpsn  file "../c5535_bsl_revc/ezdsp5535_v1/c55xx_csl/ccs_v4.0_examples/mmc_sd/CSL_MMCSD_intrExample
    1739 0005d1 F70C          SUB #1, *SP(#6) ; |651| 
         0005d3 FFFF 
    1740                      .dwpsn  file "../c5535_bsl_revc/ezdsp5535_v1/c55xx_csl/ccs_v4.0_examples/mmc_sd/CSL_MMCSD_intrExample
    1741 0005d5 7600          MOV #255, AR2 ; |661| 
         0005d7 FFA8 
    1742 0005d9 A90C          MOV *SP(#6), AR1 ; |661| 
    1743 0005db 12A8          CMPU AR1 <= AR2, TC1 ; |661| 
         0005dd 94   
    1744 0005de 6564          BCC $C$L40,TC1 ; |661| 
    1745                                                      ; branchcc occurs ; |661| 
    1746                      .dwpsn  file "../c5535_bsl_revc/ezdsp5535_v1/c55xx_csl/ccs_v4.0_examples/mmc_sd/CSL_MMCSD_intrExample
    1747 0005e0 FB0C          MOV #255, *SP(#6) ; |663| 
         0005e2 00FF 
TMS320C55x Assembler PC v4.4.1 Sat Sep 29 23:08:58 2018

Tools Copyright (c) 1996-2012 Texas Instruments Incorporated
csl_mmcsd_intr_example.asm                                           PAGE   40

    1748                      .dwpsn  file "../c5535_bsl_revc/ezdsp5535_v1/c55xx_csl/ccs_v4.0_examples/mmc_sd/CSL_MMCSD_intrExample
    1749 0005e4 4A04          B $C$L40  ; |665| 
    1750                                                      ; branch occurs ; |665| 
    1751 0005e6       $C$L39:    
    1752                      .dwpsn  file "../c5535_bsl_revc/ezdsp5535_v1/c55xx_csl/ccs_v4.0_examples/mmc_sd/CSL_MMCSD_intrExample
    1753 0005e6 FB0C          MOV #255, *SP(#6) ; |668| 
         0005e8 00FF 
    1754 0005ea       $C$L40:    
    1755                      .dwpsn  file "../c5535_bsl_revc/ezdsp5535_v1/c55xx_csl/ccs_v4.0_examples/mmc_sd/CSL_MMCSD_intrExample
    1756 0005ea A40C          MOV *SP(#6), T0 ; |672| 
    1757                      .dwpsn  file "../c5535_bsl_revc/ezdsp5535_v1/c55xx_csl/ccs_v4.0_examples/mmc_sd/CSL_MMCSD_intrExample
    1758 0005ec 4E07          AADD #7, SP
    1759                      .dwcfi  cfa_offset, 1
    1760              $C$DW$194       .dwtag  DW_TAG_TI_branch
    1761                      .dwattr $C$DW$194, DW_AT_low_pc(0x00)
    1762                      .dwattr $C$DW$194, DW_AT_TI_return
    1763 0005ee 4804          RET
    1764                                                      ; return occurs
    1765                      .dwattr $C$DW$185, DW_AT_TI_end_file("../c5535_bsl_revc/ezdsp5535_v1/c55xx_csl/ccs_v4.0_examples/mmc_
    1766                      .dwattr $C$DW$185, DW_AT_TI_end_line(0x2a1)
    1767                      .dwattr $C$DW$185, DW_AT_TI_end_column(0x01)
    1768                      .dwendentry
    1769                      .dwendtag $C$DW$185
    1770              
    1771 0005f0               .sect   ".text"
    1772                      .align 4
    1773                      .global _getSysClk
    1774              
    1775              $C$DW$195       .dwtag  DW_TAG_subprogram, DW_AT_name("getSysClk")
    1776                      .dwattr $C$DW$195, DW_AT_low_pc(_getSysClk)
    1777                      .dwattr $C$DW$195, DW_AT_high_pc(0x00)
    1778                      .dwattr $C$DW$195, DW_AT_TI_symbol_name("_getSysClk")
    1779                      .dwattr $C$DW$195, DW_AT_external
    1780                      .dwattr $C$DW$195, DW_AT_type(*$C$DW$T$28)
    1781                      .dwattr $C$DW$195, DW_AT_TI_begin_file("../c5535_bsl_revc/ezdsp5535_v1/c55xx_csl/ccs_v4.0_examples/mm
    1782                      .dwattr $C$DW$195, DW_AT_TI_begin_line(0x2ac)
    1783                      .dwattr $C$DW$195, DW_AT_TI_begin_column(0x08)
    1784                      .dwattr $C$DW$195, DW_AT_TI_max_frame_size(0x0a)
    1785                      .dwpsn  file "../c5535_bsl_revc/ezdsp5535_v1/c55xx_csl/ccs_v4.0_examples/mmc_sd/CSL_MMCSD_intrExample
    1786              
    1787                      .dwfde $C$DW$CIE, _getSysClk
    1788              ;*******************************************************************************
    1789              ;* FUNCTION NAME: getSysClk                                                    *
    1790              ;*                                                                             *
    1791              ;*   Function Uses Regs : AC0,AC0,AC1,AC1,AR1,AR2,SP,CARRY,TC1,M40,SATA,SATD,  *
    1792              ;*                        RDM,FRCT,SMUL                                        *
    1793              ;*   Stack Frame        : Compact (No Frame Pointer, w/ debug)                 *
    1794              ;*   Total Frame Size   : 10 words                                             *
    1795              ;*                        (2 return address/alignment)                         *
    1796              ;*                        (8 local values)                                     *
    1797              ;*   Min System Stack   : 1 word                                               *
    1798              ;*******************************************************************************
    1799 0005f0       _getSysClk:
    1800                      .dwcfi  cfa_offset, 1
    1801                      .dwcfi  save_reg_to_mem, 91, -1
TMS320C55x Assembler PC v4.4.1 Sat Sep 29 23:08:58 2018

Tools Copyright (c) 1996-2012 Texas Instruments Incorporated
csl_mmcsd_intr_example.asm                                           PAGE   41

    1802 0005f0 4EF7          AADD #-9, SP
    1803                      .dwcfi  cfa_offset, 10
    1804              $C$DW$196       .dwtag  DW_TAG_variable, DW_AT_name("pllRDBypass")
    1805                      .dwattr $C$DW$196, DW_AT_TI_symbol_name("_pllRDBypass")
    1806                      .dwattr $C$DW$196, DW_AT_type(*$C$DW$T$40)
    1807                      .dwattr $C$DW$196, DW_AT_location[DW_OP_bregx 0x24 0]
    1808              $C$DW$197       .dwtag  DW_TAG_variable, DW_AT_name("pllOutDiv")
    1809                      .dwattr $C$DW$197, DW_AT_TI_symbol_name("_pllOutDiv")
    1810                      .dwattr $C$DW$197, DW_AT_type(*$C$DW$T$40)
    1811                      .dwattr $C$DW$197, DW_AT_location[DW_OP_bregx 0x24 1]
    1812              $C$DW$198       .dwtag  DW_TAG_variable, DW_AT_name("sysClk")
    1813                      .dwattr $C$DW$198, DW_AT_TI_symbol_name("_sysClk")
    1814                      .dwattr $C$DW$198, DW_AT_type(*$C$DW$T$28)
    1815                      .dwattr $C$DW$198, DW_AT_location[DW_OP_bregx 0x24 2]
    1816              $C$DW$199       .dwtag  DW_TAG_variable, DW_AT_name("pllVP")
    1817                      .dwattr $C$DW$199, DW_AT_TI_symbol_name("_pllVP")
    1818                      .dwattr $C$DW$199, DW_AT_type(*$C$DW$T$19)
    1819                      .dwattr $C$DW$199, DW_AT_location[DW_OP_bregx 0x24 4]
    1820              $C$DW$200       .dwtag  DW_TAG_variable, DW_AT_name("pllVS")
    1821                      .dwattr $C$DW$200, DW_AT_TI_symbol_name("_pllVS")
    1822                      .dwattr $C$DW$200, DW_AT_type(*$C$DW$T$19)
    1823                      .dwattr $C$DW$200, DW_AT_location[DW_OP_bregx 0x24 5]
    1824              $C$DW$201       .dwtag  DW_TAG_variable, DW_AT_name("pllRD")
    1825                      .dwattr $C$DW$201, DW_AT_TI_symbol_name("_pllRD")
    1826                      .dwattr $C$DW$201, DW_AT_type(*$C$DW$T$19)
    1827                      .dwattr $C$DW$201, DW_AT_location[DW_OP_bregx 0x24 6]
    1828              $C$DW$202       .dwtag  DW_TAG_variable, DW_AT_name("pllVO")
    1829                      .dwattr $C$DW$202, DW_AT_TI_symbol_name("_pllVO")
    1830                      .dwattr $C$DW$202, DW_AT_type(*$C$DW$T$19)
    1831                      .dwattr $C$DW$202, DW_AT_location[DW_OP_bregx 0x24 7]
    1832                      .dwpsn  file "../c5535_bsl_revc/ezdsp5535_v1/c55xx_csl/ccs_v4.0_examples/mmc_sd/CSL_MMCSD_intrExample
    1833 0005f2 A951          MOV *port(#7200), AR1 ; |694| 
         0005f4 1C20 
    1834 0005f6 7D0F          AND #0x0ffc, AR1, AC0 ; |694| 
         0005f8 FC09 
    1835 0005fa 1005          SFTS AC0, #-2, AC0 ; |694| 
         0005fc 3E   
    1836 0005fd C008          MOV AC0, *SP(#4) ; |694| 
    1837                      .dwpsn  file "../c5535_bsl_revc/ezdsp5535_v1/c55xx_csl/ccs_v4.0_examples/mmc_sd/CSL_MMCSD_intrExample
    1838 0005ff A951          MOV *port(#7200), AR1 ; |695| 
         000601 1C20 
    1839 000603 1803          AND #0x0003, AR1, AC0 ; |695| 
         000605 09   
    1840 000606 C00A          MOV AC0, *SP(#5) ; |695| 
    1841                      .dwpsn  file "../c5535_bsl_revc/ezdsp5535_v1/c55xx_csl/ccs_v4.0_examples/mmc_sd/CSL_MMCSD_intrExample
    1842 000608 A951          MOV *port(#7201), AR1 ; |697| 
         00060a 1C21 
    1843 00060c 7D0F          AND #0x0fff, AR1, AC0 ; |697| 
         00060e FF09 
    1844 000610 C00C          MOV AC0, *SP(#6) ; |697| 
    1845                      .dwpsn  file "../c5535_bsl_revc/ezdsp5535_v1/c55xx_csl/ccs_v4.0_examples/mmc_sd/CSL_MMCSD_intrExample
    1846 000612 DF51          MOV uns(low_byte(*port(#7203))), AR1 ; |698| 
         000614 931C 
         000616 23   
    1847 000617 C90E          MOV AR1, *SP(#7) ; |698| 
TMS320C55x Assembler PC v4.4.1 Sat Sep 29 23:08:58 2018

Tools Copyright (c) 1996-2012 Texas Instruments Incorporated
csl_mmcsd_intr_example.asm                                           PAGE   42

    1848                      .dwpsn  file "../c5535_bsl_revc/ezdsp5535_v1/c55xx_csl/ccs_v4.0_examples/mmc_sd/CSL_MMCSD_intrExample
    1849 000619 A951          MOV *port(#7201), AR1 ; |700| 
         00061b 1C21 
    1850 00061d 7D80          AND #0x8000, AR1, AC0 ; |700| 
         00061f 0009 
    1851 000621 1005          SFTS AC0, #-15, AC0 ; |700| 
         000623 31   
    1852 000624 C000          MOV AC0, *SP(#0) ; |700| 
    1853                      .dwpsn  file "../c5535_bsl_revc/ezdsp5535_v1/c55xx_csl/ccs_v4.0_examples/mmc_sd/CSL_MMCSD_intrExample
    1854 000626 A951          MOV *port(#7203), AR1 ; |701| 
         000628 1C23 
    1855 00062a 7D02          AND #0x0200, AR1, AC0 ; |701| 
         00062c 0009 
    1856 00062e 1005          SFTS AC0, #-9, AC0 ; |701| 
         000630 37   
    1857 000631 C002          MOV AC0, *SP(#1) ; |701| 
    1858                      .dwpsn  file "../c5535_bsl_revc/ezdsp5535_v1/c55xx_csl/ccs_v4.0_examples/mmc_sd/CSL_MMCSD_intrExample
    1859 000633 3C00          MOV #0, AC0 ; |703| 
    1860 000635 7E80          OR #0x8000, AC0, AC0 ; |703| 
         000637 0000 
    1861 000639 EB04          MOV AC0, dbl(*SP(#2)) ; |703| 
         00063b 08   
    1862                      .dwpsn  file "../c5535_bsl_revc/ezdsp5535_v1/c55xx_csl/ccs_v4.0_examples/mmc_sd/CSL_MMCSD_intrExample
    1863              
    1864 00063c A900          MOV *SP(#0), AR1 ; |705| 
    1865 00063e 3D0A  ||      MOV #0, AR2
    1866              
    1867 000640 12AC          CMP AR2 != AR1, TC1 ; |705| 
         000642 90   
    1868 000643 0464          BCC $C$L41,TC1 ; |705| 
         000645 12   
    1869                                                      ; branchcc occurs ; |705| 
    1870                      .dwpsn  file "../c5535_bsl_revc/ezdsp5535_v1/c55xx_csl/ccs_v4.0_examples/mmc_sd/CSL_MMCSD_intrExample
    1871 000646 A90C          MOV *SP(#6), AR1 ; |707| 
    1872              
    1873 00064b 4149          ADD #4, AR1 ; |707| 
    1874 000648 ED04  ||      MOV dbl(*SP(#2)), AC0 ; |707| 
         00064a 08   
    1875              
    1876 00064d 7DFF          AND #0xffff, AR1, AC1 ; |707| 
         00064f FF19 
    1877              $C$DW$203       .dwtag  DW_TAG_TI_branch
    1878                      .dwattr $C$DW$203, DW_AT_low_pc(0x00)
    1879                      .dwattr $C$DW$203, DW_AT_name("__divul")
    1880                      .dwattr $C$DW$203, DW_AT_TI_call
    1881 000651 6C00          CALL #__divul ; |707| 
         000653 0000!
    1882                                                      ; call occurs [#__divul] ; |707| 
    1883 000655 EB04          MOV AC0, dbl(*SP(#2)) ; |707| 
         000657 08   
    1884 000658       $C$L41:    
    1885                      .dwpsn  file "../c5535_bsl_revc/ezdsp5535_v1/c55xx_csl/ccs_v4.0_examples/mmc_sd/CSL_MMCSD_intrExample
    1886 000658 A008          MOV *SP(#4), AC0 ; |710| 
    1887 00065a 1007          SFTL AC0, #2, AC0 ; |710| 
         00065c 02   
TMS320C55x Assembler PC v4.4.1 Sat Sep 29 23:08:58 2018

Tools Copyright (c) 1996-2012 Texas Instruments Incorporated
csl_mmcsd_intr_example.asm                                           PAGE   43

    1888 00065d D60A          ADD *SP(#5), AC0, AR1 ; |710| 
         00065f 90   
    1889 000660 4049          ADD #4, AR1 ; |710| 
    1890 000662 7DFF          AND #0xffff, AR1, AC1 ; |710| 
         000664 FF19 
    1891 000666 ED04          MOV dbl(*SP(#2)), AC0 ; |710| 
         000668 08   
    1892              $C$DW$204       .dwtag  DW_TAG_TI_branch
    1893                      .dwattr $C$DW$204, DW_AT_low_pc(0x00)
    1894                      .dwattr $C$DW$204, DW_AT_name("__mpyli")
    1895                      .dwattr $C$DW$204, DW_AT_TI_call
    1896 000669 6C00          CALL #__mpyli ; |710| 
         00066b 0000!
    1897                                                      ; call occurs [#__mpyli] ; |710| 
    1898 00066d EB04          MOV AC0, dbl(*SP(#2)) ; |710| 
         00066f 08   
    1899                      .dwpsn  file "../c5535_bsl_revc/ezdsp5535_v1/c55xx_csl/ccs_v4.0_examples/mmc_sd/CSL_MMCSD_intrExample
    1900              
    1901 000670 A902          MOV *SP(#1), AR1 ; |712| 
    1902 000672 3D1A  ||      MOV #1, AR2
    1903              
    1904 000674 12AC          CMP AR2 != AR1, TC1 ; |712| 
         000676 90   
    1905 000677 0464          BCC $C$L42,TC1 ; |712| 
         000679 12   
    1906                                                      ; branchcc occurs ; |712| 
    1907                      .dwpsn  file "../c5535_bsl_revc/ezdsp5535_v1/c55xx_csl/ccs_v4.0_examples/mmc_sd/CSL_MMCSD_intrExample
    1908 00067a A90E          MOV *SP(#7), AR1 ; |714| 
    1909              
    1910 00067f 4119          ADD #1, AR1 ; |714| 
    1911 00067c ED04  ||      MOV dbl(*SP(#2)), AC0 ; |714| 
         00067e 08   
    1912              
    1913 000681 7DFF          AND #0xffff, AR1, AC1 ; |714| 
         000683 FF19 
    1914              $C$DW$205       .dwtag  DW_TAG_TI_branch
    1915                      .dwattr $C$DW$205, DW_AT_low_pc(0x00)
    1916                      .dwattr $C$DW$205, DW_AT_name("__divul")
    1917                      .dwattr $C$DW$205, DW_AT_TI_call
    1918 000685 6C00          CALL #__divul ; |714| 
         000687 0000!
    1919                                                      ; call occurs [#__divul] ; |714| 
    1920 000689 EB04          MOV AC0, dbl(*SP(#2)) ; |714| 
         00068b 08   
    1921 00068c       $C$L42:    
    1922                      .dwpsn  file "../c5535_bsl_revc/ezdsp5535_v1/c55xx_csl/ccs_v4.0_examples/mmc_sd/CSL_MMCSD_intrExample
    1923 00068c ED04          MOV dbl(*SP(#2)), AC0 ; |718| 
         00068e 08   
    1924 00068f 7603          MOV #1000, AC1 ; |718| 
         000691 E818 
    1925              $C$DW$206       .dwtag  DW_TAG_TI_branch
    1926                      .dwattr $C$DW$206, DW_AT_low_pc(0x00)
    1927                      .dwattr $C$DW$206, DW_AT_name("__divul")
    1928                      .dwattr $C$DW$206, DW_AT_TI_call
    1929 000693 6C00          CALL #__divul ; |718| 
TMS320C55x Assembler PC v4.4.1 Sat Sep 29 23:08:58 2018

Tools Copyright (c) 1996-2012 Texas Instruments Incorporated
csl_mmcsd_intr_example.asm                                           PAGE   44

         000695 0000!
    1930                                                      ; call occurs [#__divul] ; |718| 
    1931                      .dwpsn  file "../c5535_bsl_revc/ezdsp5535_v1/c55xx_csl/ccs_v4.0_examples/mmc_sd/CSL_MMCSD_intrExample
    1932 000697 4E09          AADD #9, SP
    1933                      .dwcfi  cfa_offset, 1
    1934              $C$DW$207       .dwtag  DW_TAG_TI_branch
    1935                      .dwattr $C$DW$207, DW_AT_low_pc(0x00)
    1936                      .dwattr $C$DW$207, DW_AT_TI_return
    1937 000699 4804          RET
    1938                                                      ; return occurs
    1939                      .dwattr $C$DW$195, DW_AT_TI_end_file("../c5535_bsl_revc/ezdsp5535_v1/c55xx_csl/ccs_v4.0_examples/mmc_
    1940                      .dwattr $C$DW$195, DW_AT_TI_end_line(0x2cf)
    1941                      .dwattr $C$DW$195, DW_AT_TI_end_column(0x01)
    1942                      .dwendentry
    1943                      .dwendtag $C$DW$195
    1944              
    1945 00069b               .sect   ".text"
    1946                      .align 4
    1947                      .global _mmcsdTransferDoneCallBack
    1948              
    1949              $C$DW$208       .dwtag  DW_TAG_subprogram, DW_AT_name("mmcsdTransferDoneCallBack")
    1950                      .dwattr $C$DW$208, DW_AT_low_pc(_mmcsdTransferDoneCallBack)
    1951                      .dwattr $C$DW$208, DW_AT_high_pc(0x00)
    1952                      .dwattr $C$DW$208, DW_AT_TI_symbol_name("_mmcsdTransferDoneCallBack")
    1953                      .dwattr $C$DW$208, DW_AT_external
    1954                      .dwattr $C$DW$208, DW_AT_TI_begin_file("../c5535_bsl_revc/ezdsp5535_v1/c55xx_csl/ccs_v4.0_examples/mm
    1955                      .dwattr $C$DW$208, DW_AT_TI_begin_line(0x31c)
    1956                      .dwattr $C$DW$208, DW_AT_TI_begin_column(0x06)
    1957                      .dwattr $C$DW$208, DW_AT_TI_max_frame_size(0x04)
    1958                      .dwpsn  file "../c5535_bsl_revc/ezdsp5535_v1/c55xx_csl/ccs_v4.0_examples/mmc_sd/CSL_MMCSD_intrExample
    1959              
    1960                      .dwfde $C$DW$CIE, _mmcsdTransferDoneCallBack
    1961              $C$DW$209       .dwtag  DW_TAG_formal_parameter, DW_AT_name("mmcsdHandle")
    1962                      .dwattr $C$DW$209, DW_AT_TI_symbol_name("_mmcsdHandle")
    1963                      .dwattr $C$DW$209, DW_AT_type(*$C$DW$T$3)
    1964                      .dwattr $C$DW$209, DW_AT_location[DW_OP_reg17]
    1965              ;*******************************************************************************
    1966              ;* FUNCTION NAME: mmcsdTransferDoneCallBack                                    *
    1967              ;*                                                                             *
    1968              ;*   Function Uses Regs : AR0,XAR0,AR1,SP,M40,SATA,SATD,RDM,FRCT,SMUL          *
    1969              ;*   Stack Frame        : Compact (No Frame Pointer, w/ debug)                 *
    1970              ;*   Total Frame Size   : 4 words                                              *
    1971              ;*                        (2 return address/alignment)                         *
    1972              ;*                        (2 local values)                                     *
    1973              ;*   Min System Stack   : 1 word                                               *
    1974              ;*******************************************************************************
    1975 00069c       _mmcsdTransferDoneCallBack:
    1976                      .dwcfi  cfa_offset, 1
    1977                      .dwcfi  save_reg_to_mem, 91, -1
    1978 00069c 4EFD          AADD #-3, SP
    1979                      .dwcfi  cfa_offset, 4
    1980              $C$DW$210       .dwtag  DW_TAG_variable, DW_AT_name("mmcsdHandle")
    1981                      .dwattr $C$DW$210, DW_AT_TI_symbol_name("_mmcsdHandle")
    1982                      .dwattr $C$DW$210, DW_AT_type(*$C$DW$T$3)
    1983                      .dwattr $C$DW$210, DW_AT_location[DW_OP_bregx 0x24 0]
TMS320C55x Assembler PC v4.4.1 Sat Sep 29 23:08:58 2018

Tools Copyright (c) 1996-2012 Texas Instruments Incorporated
csl_mmcsd_intr_example.asm                                           PAGE   45

    1984 00069e EB00          MOV XAR0, dbl(*SP(#0))
         0006a0 85   
    1985                      .dwpsn  file "../c5535_bsl_revc/ezdsp5535_v1/c55xx_csl/ccs_v4.0_examples/mmc_sd/CSL_MMCSD_intrExample
    1986 0006a1 A931          MOV *(#_gMmcIntr), AR1 ; |799| 
         0006a3 0000 
         0006a5 92-  
    1987 0006a6 6419          BCC $C$L44,AR1 != #0 ; |799| 
    1988                                                      ; branchcc occurs ; |799| 
    1989 0006a8       $C$L43:    
    1990 0006a8       $C$DW$L$_mmcsdTransferDoneCallBack$2$B:
    1991 0006a8 A931          MOV *(#_gMmcIntr), AR1 ; |799| 
         0006aa 0000 
         0006ac 92-  
    1992 0006ad 0409          BCC $C$L43,AR1 == #0 ; |799| 
         0006af F8   
    1993                                                      ; branchcc occurs ; |799| 
    1994 0006b0       $C$DW$L$_mmcsdTransferDoneCallBack$2$E:
    1995 0006b0       $C$L44:    
    1996                      .dwpsn  file "../c5535_bsl_revc/ezdsp5535_v1/c55xx_csl/ccs_v4.0_examples/mmc_sd/CSL_MMCSD_intrExample
    1997 0006b0 E631          MOV #0, *(#_gMmcIntr) ; |800| 
         0006b2 0000 
         0006b4 0092-
    1998                      .dwpsn  file "../c5535_bsl_revc/ezdsp5535_v1/c55xx_csl/ccs_v4.0_examples/mmc_sd/CSL_MMCSD_intrExample
    1999 0006b6 4E03          AADD #3, SP
    2000                      .dwcfi  cfa_offset, 1
    2001              $C$DW$211       .dwtag  DW_TAG_TI_branch
    2002                      .dwattr $C$DW$211, DW_AT_low_pc(0x00)
    2003                      .dwattr $C$DW$211, DW_AT_TI_return
    2004 0006b8 4804          RET
    2005                                                      ; return occurs
    2006              
    2007              $C$DW$212       .dwtag  DW_TAG_TI_loop
    2008                      .dwattr $C$DW$212, DW_AT_name("F:\eZdsp_DBG\tmp1\c55x-sim2\foo\Debug\csl_mmcsd_intr_example.asm:$C$L4
    2009                      .dwattr $C$DW$212, DW_AT_TI_begin_file("../c5535_bsl_revc/ezdsp5535_v1/c55xx_csl/ccs_v4.0_examples/mm
    2010                      .dwattr $C$DW$212, DW_AT_TI_begin_line(0x31f)
    2011                      .dwattr $C$DW$212, DW_AT_TI_end_line(0x31f)
    2012              $C$DW$213       .dwtag  DW_TAG_TI_loop_range
    2013                      .dwattr $C$DW$213, DW_AT_low_pc($C$DW$L$_mmcsdTransferDoneCallBack$2$B)
    2014                      .dwattr $C$DW$213, DW_AT_high_pc($C$DW$L$_mmcsdTransferDoneCallBack$2$E)
    2015                      .dwendtag $C$DW$212
    2016              
    2017                      .dwattr $C$DW$208, DW_AT_TI_end_file("../c5535_bsl_revc/ezdsp5535_v1/c55xx_csl/ccs_v4.0_examples/mmc_
    2018                      .dwattr $C$DW$208, DW_AT_TI_end_line(0x321)
    2019                      .dwattr $C$DW$208, DW_AT_TI_end_column(0x01)
    2020                      .dwendentry
    2021                      .dwendtag $C$DW$208
    2022              
    2023 000000               .sect   ".text:retain"
    2024                      .align 4
    2025                      .global _mmcsd_isr
    2026              
    2027              $C$DW$214       .dwtag  DW_TAG_subprogram, DW_AT_name("mmcsd_isr")
    2028                      .dwattr $C$DW$214, DW_AT_low_pc(_mmcsd_isr)
    2029                      .dwattr $C$DW$214, DW_AT_high_pc(0x00)
    2030                      .dwattr $C$DW$214, DW_AT_TI_symbol_name("_mmcsd_isr")
TMS320C55x Assembler PC v4.4.1 Sat Sep 29 23:08:58 2018

Tools Copyright (c) 1996-2012 Texas Instruments Incorporated
csl_mmcsd_intr_example.asm                                           PAGE   46

    2031                      .dwattr $C$DW$214, DW_AT_external
    2032                      .dwattr $C$DW$214, DW_AT_TI_begin_file("../c5535_bsl_revc/ezdsp5535_v1/c55xx_csl/ccs_v4.0_examples/mm
    2033                      .dwattr $C$DW$214, DW_AT_TI_begin_line(0x32a)
    2034                      .dwattr $C$DW$214, DW_AT_TI_begin_column(0x10)
    2035                      .dwattr $C$DW$214, DW_AT_TI_interrupt
    2036                      .dwattr $C$DW$214, DW_AT_TI_max_frame_size(0x2f)
    2037                      .dwpsn  file "../c5535_bsl_revc/ezdsp5535_v1/c55xx_csl/ccs_v4.0_examples/mmc_sd/CSL_MMCSD_intrExample
    2038              
    2039                      .dwfde $C$DW$CIE, _mmcsd_isr
    2040              ;*******************************************************************************
    2041              ;* INTERRUPT NAME: mmcsd_isr                                                   *
    2042              ;*                                                                             *
    2043              ;*   Function Uses Regs : AC0,AC0,AC1,AC1,AC2,AC2,AC3,AC3,T0,T1,AR0,XAR0,AR1,  *
    2044              ;*                        AR2,AR3,AR4,SP,BKC,BK03,BK47,ST1,ST2,ST3,BRC0,RSA0,  *
    2045              ;*                        REA0,BRS1,BRC1,RSA1,REA1,CSR,RPTC,CDP,TRN0,TRN1,     *
    2046              ;*                        BSA01,BSA23,BSA45,BSA67,BSAC,M40,SATA,SATD,RDM,FRCT, *
    2047              ;*                        SMUL                                                 *
    2048              ;*   Save On Entry Regs : AC0,AC0,AC1,AC1,AC2,AC2,AC3,AC3,T0,T1,AR0,AR1,AR2,   *
    2049              ;*                        AR3,AR4,BKC,BK03,BK47,BRC0,RSA0,REA0,BRS1,BRC1,RSA1, *
    2050              ;*                        REA1,CSR,RPTC,CDP,TRN0,TRN1,BSA01,BSA23,BSA45,BSA67, *
    2051              ;*                        BSAC                                                 *
    2052              ;*******************************************************************************
    2053 000000       _mmcsd_isr:
    2054                      .dwcfi  cfa_offset, 3
    2055                      .dwcfi  save_reg_to_mem, 91, -3
    2056 000000 F406          AND #0xf91f, mmap(ST1_55)
         000002 F91F 
         000004 98   
    2057 000005 F506          OR #0x4100, mmap(ST1_55)
         000007 4100 
         000009 98   
    2058 00000a F496          AND #0xfa00, mmap(ST2_55)
         00000c FA00 
         00000e 98   
    2059 00000f F596          OR #0x8000, mmap(ST2_55)
         000011 8000 
         000013 98   
    2060 000014 B508          PSH mmap(ST3_55)
         000016 98   
    2061                      .dwcfi  cfa_offset, 4
    2062                      .dwcfi  save_reg_to_mem, 42, -4
    2063 000017 5007          PSH dbl(AC0)
    2064                      .dwcfi  cfa_offset, 5
    2065                      .dwcfi  save_reg_to_mem, 0, -5
    2066                      .dwcfi  cfa_offset, 6
    2067                      .dwcfi  save_reg_to_mem, 1, -6
    2068 000019 B514          PSH mmap(AC0G)
         00001b 98   
    2069                      .dwcfi  cfa_offset, 7
    2070                      .dwcfi  save_reg_to_mem, 2, -7
    2071 00001c 5017          PSH dbl(AC1)
    2072                      .dwcfi  cfa_offset, 8
    2073                      .dwcfi  save_reg_to_mem, 3, -8
    2074                      .dwcfi  cfa_offset, 9
    2075                      .dwcfi  save_reg_to_mem, 4, -9
TMS320C55x Assembler PC v4.4.1 Sat Sep 29 23:08:58 2018

Tools Copyright (c) 1996-2012 Texas Instruments Incorporated
csl_mmcsd_intr_example.asm                                           PAGE   47

    2076 00001e B51A          PSH mmap(AC1G)
         000020 98   
    2077                      .dwcfi  cfa_offset, 10
    2078                      .dwcfi  save_reg_to_mem, 5, -10
    2079 000021 5027          PSH dbl(AC2)
    2080                      .dwcfi  cfa_offset, 11
    2081                      .dwcfi  save_reg_to_mem, 6, -11
    2082                      .dwcfi  cfa_offset, 12
    2083                      .dwcfi  save_reg_to_mem, 7, -12
    2084 000023 B54C          PSH mmap(AC2G)
         000025 98   
    2085                      .dwcfi  cfa_offset, 13
    2086                      .dwcfi  save_reg_to_mem, 8, -13
    2087 000026 5037          PSH dbl(AC3)
    2088                      .dwcfi  cfa_offset, 14
    2089                      .dwcfi  save_reg_to_mem, 9, -14
    2090                      .dwcfi  cfa_offset, 15
    2091                      .dwcfi  save_reg_to_mem, 10, -15
    2092 000028 B554          PSH mmap(AC3G)
         00002a 98   
    2093                      .dwcfi  cfa_offset, 16
    2094                      .dwcfi  save_reg_to_mem, 11, -16
    2095 00002b 5046          PSH T0
    2096                      .dwcfi  cfa_offset, 17
    2097                      .dwcfi  save_reg_to_mem, 12, -17
    2098 00002d 5056          PSH T1
    2099                      .dwcfi  cfa_offset, 18
    2100                      .dwcfi  save_reg_to_mem, 13, -18
    2101 00002f 5085          PSHBOTH XAR0
    2102                      .dwcfi  cfa_offset, 19
    2103                      .dwcfi  save_reg_to_mem, 16, -19
    2104 000031 5095          PSHBOTH XAR1
    2105                      .dwcfi  cfa_offset, 20
    2106                      .dwcfi  save_reg_to_mem, 18, -20
    2107 000033 50A5          PSHBOTH XAR2
    2108                      .dwcfi  cfa_offset, 21
    2109                      .dwcfi  save_reg_to_mem, 20, -21
    2110 000035 50B5          PSHBOTH XAR3
    2111                      .dwcfi  cfa_offset, 22
    2112                      .dwcfi  save_reg_to_mem, 22, -22
    2113 000037 50C5          PSHBOTH XAR4
    2114                      .dwcfi  cfa_offset, 23
    2115                      .dwcfi  save_reg_to_mem, 24, -23
    2116 000039 B562          PSH mmap(BKC)
         00003b 98   
    2117                      .dwcfi  cfa_offset, 24
    2118                      .dwcfi  save_reg_to_mem, 37, -24
    2119 00003c B532          PSH mmap(BK03)
         00003e 98   
    2120                      .dwcfi  cfa_offset, 25
    2121                      .dwcfi  save_reg_to_mem, 38, -25
    2122 00003f B560          PSH mmap(BK47)
         000041 98   
    2123                      .dwcfi  cfa_offset, 26
    2124                      .dwcfi  save_reg_to_mem, 39, -26
TMS320C55x Assembler PC v4.4.1 Sat Sep 29 23:08:58 2018

Tools Copyright (c) 1996-2012 Texas Instruments Incorporated
csl_mmcsd_intr_example.asm                                           PAGE   48

    2125 000042 B534          PSH mmap(BRC0)
         000044 98   
    2126                      .dwcfi  cfa_offset, 27
    2127                      .dwcfi  save_reg_to_mem, 47, -27
    2128 000045 B57A          PSH mmap(RSA0L)
         000047 98   
    2129                      .dwcfi  cfa_offset, 28
    2130                      .dwcfi  save_reg_to_mem, 48, -28
    2131 000048 B578          PSH mmap(RSA0H)
         00004a 98   
    2132                      .dwcfi  cfa_offset, 29
    2133                      .dwcfi  save_reg_to_mem, 49, -29
    2134 00004b B57E          PSH mmap(REA0L)
         00004d 98   
    2135                      .dwcfi  cfa_offset, 30
    2136                      .dwcfi  save_reg_to_mem, 50, -30
    2137 00004e B57C          PSH mmap(REA0H)
         000050 98   
    2138                      .dwcfi  cfa_offset, 31
    2139                      .dwcfi  save_reg_to_mem, 51, -31
    2140 000051 B574          PSH mmap(BRS1)
         000053 98   
    2141                      .dwcfi  cfa_offset, 32
    2142                      .dwcfi  save_reg_to_mem, 52, -32
    2143 000054 B572          PSH mmap(BRC1)
         000056 98   
    2144                      .dwcfi  cfa_offset, 33
    2145                      .dwcfi  save_reg_to_mem, 53, -33
    2146 000057 B582          PSH mmap(RSA1L)
         000059 98   
    2147                      .dwcfi  cfa_offset, 34
    2148                      .dwcfi  save_reg_to_mem, 54, -34
    2149 00005a B580          PSH mmap(RSA1H)
         00005c 98   
    2150                      .dwcfi  cfa_offset, 35
    2151                      .dwcfi  save_reg_to_mem, 55, -35
    2152 00005d B586          PSH mmap(REA1L)
         00005f 98   
    2153                      .dwcfi  cfa_offset, 36
    2154                      .dwcfi  save_reg_to_mem, 56, -36
    2155 000060 B584          PSH mmap(REA1H)
         000062 98   
    2156                      .dwcfi  cfa_offset, 37
    2157                      .dwcfi  save_reg_to_mem, 57, -37
    2158 000063 B576          PSH mmap(CSR)
         000065 98   
    2159                      .dwcfi  cfa_offset, 38
    2160                      .dwcfi  save_reg_to_mem, 58, -38
    2161 000066 B588          PSH mmap(RPTC)
         000068 98   
    2162                      .dwcfi  cfa_offset, 39
    2163                      .dwcfi  save_reg_to_mem, 59, -39
    2164 000069 5075          PSHBOTH XCDP
    2165                      .dwcfi  cfa_offset, 40
    2166                      .dwcfi  save_reg_to_mem, 60, -40
TMS320C55x Assembler PC v4.4.1 Sat Sep 29 23:08:58 2018

Tools Copyright (c) 1996-2012 Texas Instruments Incorporated
csl_mmcsd_intr_example.asm                                           PAGE   49

    2167 00006b B51E          PSH mmap(TRN0)
         00006d 98   
    2168                      .dwcfi  cfa_offset, 41
    2169                      .dwcfi  save_reg_to_mem, 62, -41
    2170 00006e B570          PSH mmap(TRN1)
         000070 98   
    2171                      .dwcfi  cfa_offset, 42
    2172                      .dwcfi  save_reg_to_mem, 63, -42
    2173 000071 B564          PSH mmap(BSA01)
         000073 98   
    2174                      .dwcfi  cfa_offset, 43
    2175                      .dwcfi  save_reg_to_mem, 64, -43
    2176 000074 B566          PSH mmap(BSA23)
         000076 98   
    2177                      .dwcfi  cfa_offset, 44
    2178                      .dwcfi  save_reg_to_mem, 65, -44
    2179 000077 B568          PSH mmap(BSA45)
         000079 98   
    2180                      .dwcfi  cfa_offset, 45
    2181                      .dwcfi  save_reg_to_mem, 66, -45
    2182 00007a B56A          PSH mmap(BSA67)
         00007c 98   
    2183                      .dwcfi  cfa_offset, 46
    2184                      .dwcfi  save_reg_to_mem, 67, -46
    2185 00007d B56C          PSH mmap(BSAC)
         00007f 98   
    2186                      .dwcfi  cfa_offset, 47
    2187                      .dwcfi  save_reg_to_mem, 68, -47
    2188 000080 EC00          AMAR *SP(#0), XAR1
         000082 9E   
    2189 000083 F49A          AND #0xfffe, mmap(SP)
         000085 FFFE 
         000087 98   
    2190 000088 5096          PSH AR1
    2191 00008a 4EFF          AADD #-1, SP
    2192                      .dwcfi  cfa_offset, 47
    2193                      .dwpsn  file "../c5535_bsl_revc/ezdsp5535_v1/c55xx_csl/ccs_v4.0_examples/mmc_sd/CSL_MMCSD_intrExample
    2194 00008c 4656          BCLR ST3_SATA
    2195 00008e 4617          BSET ST3_SMUL
    2196 000090 ED31          MOV dbl(*(#_mmcsdHandle)), XAR0
         000092 8F00 
         000094 0040-
    2197              $C$DW$215       .dwtag  DW_TAG_TI_branch
    2198                      .dwattr $C$DW$215, DW_AT_low_pc(0x00)
    2199                      .dwattr $C$DW$215, DW_AT_name("_MMC_intEnable")
    2200                      .dwattr $C$DW$215, DW_AT_TI_call
    2201              
    2202 000096 6C00          CALL #_MMC_intEnable ; |812| 
         000098 0000!
    2203 00009a 3D04  ||      MOV #0, T0
    2204              
    2205                                                      ; call occurs [#_MMC_intEnable] ; |812| 
    2206                      .dwpsn  file "../c5535_bsl_revc/ezdsp5535_v1/c55xx_csl/ccs_v4.0_examples/mmc_sd/CSL_MMCSD_intrExample
    2207 00009c E631          MOV #1, *(#_gMmcIntr) ; |813| 
         00009e 0100 
TMS320C55x Assembler PC v4.4.1 Sat Sep 29 23:08:58 2018

Tools Copyright (c) 1996-2012 Texas Instruments Incorporated
csl_mmcsd_intr_example.asm                                           PAGE   50

         0000a0 0092-
    2208                      .dwpsn  file "../c5535_bsl_revc/ezdsp5535_v1/c55xx_csl/ccs_v4.0_examples/mmc_sd/CSL_MMCSD_intrExample
    2209 0000a2 4E01          AADD #1, SP
    2210                      .dwcfi  cfa_offset, 47
    2211 0000a4 BB9A          POP mmap(SP)
         0000a6 98   
    2212 0000a7 BB6C          POP mmap(BSAC)
         0000a9 98   
    2213                      .dwcfi  restore_reg, 68
    2214                      .dwcfi  cfa_offset, 46
    2215 0000aa BB6A          POP mmap(BSA67)
         0000ac 98   
    2216                      .dwcfi  restore_reg, 67
    2217                      .dwcfi  cfa_offset, 45
    2218 0000ad BB68          POP mmap(BSA45)
         0000af 98   
    2219                      .dwcfi  restore_reg, 66
    2220                      .dwcfi  cfa_offset, 44
    2221 0000b0 BB66          POP mmap(BSA23)
         0000b2 98   
    2222                      .dwcfi  restore_reg, 65
    2223                      .dwcfi  cfa_offset, 43
    2224 0000b3 BB64          POP mmap(BSA01)
         0000b5 98   
    2225                      .dwcfi  restore_reg, 64
    2226                      .dwcfi  cfa_offset, 42
    2227 0000b6 BB70          POP mmap(TRN1)
         0000b8 98   
    2228                      .dwcfi  restore_reg, 63
    2229                      .dwcfi  cfa_offset, 41
    2230 0000b9 BB1E          POP mmap(TRN0)
         0000bb 98   
    2231                      .dwcfi  restore_reg, 62
    2232                      .dwcfi  cfa_offset, 40
    2233 0000bc 5074          POPBOTH XCDP
    2234                      .dwcfi  restore_reg, 60
    2235                      .dwcfi  cfa_offset, 39
    2236 0000be BB88          POP mmap(RPTC)
         0000c0 98   
    2237                      .dwcfi  restore_reg, 59
    2238                      .dwcfi  cfa_offset, 38
    2239 0000c1 BB76          POP mmap(CSR)
         0000c3 98   
    2240                      .dwcfi  restore_reg, 58
    2241                      .dwcfi  cfa_offset, 37
    2242 0000c4 BB84          POP mmap(REA1H)
         0000c6 98   
    2243                      .dwcfi  restore_reg, 57
    2244                      .dwcfi  cfa_offset, 36
    2245 0000c7 BB86          POP mmap(REA1L)
         0000c9 98   
    2246                      .dwcfi  restore_reg, 56
    2247                      .dwcfi  cfa_offset, 35
    2248 0000ca BB80          POP mmap(RSA1H)
         0000cc 98   
TMS320C55x Assembler PC v4.4.1 Sat Sep 29 23:08:58 2018

Tools Copyright (c) 1996-2012 Texas Instruments Incorporated
csl_mmcsd_intr_example.asm                                           PAGE   51

    2249                      .dwcfi  restore_reg, 55
    2250                      .dwcfi  cfa_offset, 34
    2251 0000cd BB82          POP mmap(RSA1L)
         0000cf 98   
    2252                      .dwcfi  restore_reg, 54
    2253                      .dwcfi  cfa_offset, 33
    2254 0000d0 BB72          POP mmap(BRC1)
         0000d2 98   
    2255                      .dwcfi  restore_reg, 53
    2256                      .dwcfi  cfa_offset, 32
    2257 0000d3 BB74          POP mmap(BRS1)
         0000d5 98   
    2258                      .dwcfi  restore_reg, 52
    2259                      .dwcfi  cfa_offset, 31
    2260 0000d6 BB7C          POP mmap(REA0H)
         0000d8 98   
    2261                      .dwcfi  restore_reg, 51
    2262                      .dwcfi  cfa_offset, 30
    2263 0000d9 BB7E          POP mmap(REA0L)
         0000db 98   
    2264                      .dwcfi  restore_reg, 50
    2265                      .dwcfi  cfa_offset, 29
    2266 0000dc BB78          POP mmap(RSA0H)
         0000de 98   
    2267                      .dwcfi  restore_reg, 49
    2268                      .dwcfi  cfa_offset, 28
    2269 0000df BB7A          POP mmap(RSA0L)
         0000e1 98   
    2270                      .dwcfi  restore_reg, 48
    2271                      .dwcfi  cfa_offset, 27
    2272 0000e2 BB34          POP mmap(BRC0)
         0000e4 98   
    2273                      .dwcfi  restore_reg, 47
    2274                      .dwcfi  cfa_offset, 26
    2275 0000e5 BB60          POP mmap(BK47)
         0000e7 98   
    2276                      .dwcfi  restore_reg, 39
    2277                      .dwcfi  cfa_offset, 25
    2278 0000e8 BB32          POP mmap(BK03)
         0000ea 98   
    2279                      .dwcfi  restore_reg, 38
    2280                      .dwcfi  cfa_offset, 24
    2281 0000eb BB62          POP mmap(BKC)
         0000ed 98   
    2282                      .dwcfi  restore_reg, 37
    2283                      .dwcfi  cfa_offset, 23
    2284 0000ee 50C4          POPBOTH XAR4
    2285                      .dwcfi  restore_reg, 24
    2286                      .dwcfi  cfa_offset, 22
    2287 0000f0 50B4          POPBOTH XAR3
    2288                      .dwcfi  restore_reg, 22
    2289                      .dwcfi  cfa_offset, 21
    2290 0000f2 50A4          POPBOTH XAR2
    2291                      .dwcfi  restore_reg, 20
    2292                      .dwcfi  cfa_offset, 20
TMS320C55x Assembler PC v4.4.1 Sat Sep 29 23:08:58 2018

Tools Copyright (c) 1996-2012 Texas Instruments Incorporated
csl_mmcsd_intr_example.asm                                           PAGE   52

    2293 0000f4 5094          POPBOTH XAR1
    2294                      .dwcfi  restore_reg, 18
    2295                      .dwcfi  cfa_offset, 19
    2296 0000f6 5084          POPBOTH XAR0
    2297                      .dwcfi  restore_reg, 16
    2298                      .dwcfi  cfa_offset, 18
    2299 0000f8 5052          POP T1
    2300                      .dwcfi  restore_reg, 13
    2301                      .dwcfi  cfa_offset, 17
    2302 0000fa 5042          POP T0
    2303                      .dwcfi  restore_reg, 12
    2304                      .dwcfi  cfa_offset, 16
    2305 0000fc BB54          POP mmap(AC3G)
         0000fe 98   
    2306                      .dwcfi  restore_reg, 11
    2307                      .dwcfi  cfa_offset, 15
    2308                      .dwcfi  restore_reg, 10
    2309                      .dwcfi  cfa_offset, 14
    2310 0000ff 5033          POP dbl(AC3)
    2311                      .dwcfi  restore_reg, 9
    2312                      .dwcfi  cfa_offset, 13
    2313 000101 BB4C          POP mmap(AC2G)
         000103 98   
    2314                      .dwcfi  restore_reg, 8
    2315                      .dwcfi  cfa_offset, 12
    2316                      .dwcfi  restore_reg, 7
    2317                      .dwcfi  cfa_offset, 11
    2318 000104 5023          POP dbl(AC2)
    2319                      .dwcfi  restore_reg, 6
    2320                      .dwcfi  cfa_offset, 10
    2321 000106 BB1A          POP mmap(AC1G)
         000108 98   
    2322                      .dwcfi  restore_reg, 5
    2323                      .dwcfi  cfa_offset, 9
    2324                      .dwcfi  restore_reg, 4
    2325                      .dwcfi  cfa_offset, 8
    2326 000109 5013          POP dbl(AC1)
    2327                      .dwcfi  restore_reg, 3
    2328                      .dwcfi  cfa_offset, 7
    2329 00010b BB14          POP mmap(AC0G)
         00010d 98   
    2330                      .dwcfi  restore_reg, 2
    2331                      .dwcfi  cfa_offset, 6
    2332                      .dwcfi  restore_reg, 1
    2333                      .dwcfi  cfa_offset, 5
    2334 00010e 5003          POP dbl(AC0)
    2335                      .dwcfi  restore_reg, 0
    2336                      .dwcfi  cfa_offset, 4
    2337 000110 BB08          POP mmap(ST3_55)
         000112 98   
    2338                      .dwcfi  restore_reg, 43
    2339                      .dwcfi  cfa_offset, 3
    2340              $C$DW$216       .dwtag  DW_TAG_TI_branch
    2341                      .dwattr $C$DW$216, DW_AT_low_pc(0x00)
    2342                      .dwattr $C$DW$216, DW_AT_TI_return
TMS320C55x Assembler PC v4.4.1 Sat Sep 29 23:08:58 2018

Tools Copyright (c) 1996-2012 Texas Instruments Incorporated
csl_mmcsd_intr_example.asm                                           PAGE   53

    2343 000113 4805          RETI
    2344                                                      ; return occurs
    2345                      .dwattr $C$DW$214, DW_AT_TI_end_file("../c5535_bsl_revc/ezdsp5535_v1/c55xx_csl/ccs_v4.0_examples/mmc_
    2346                      .dwattr $C$DW$214, DW_AT_TI_end_line(0x32e)
    2347                      .dwattr $C$DW$214, DW_AT_TI_end_column(0x01)
    2348                      .dwendentry
    2349                      .dwendtag $C$DW$214
    2350              
    2351              ;*******************************************************************************
    2352              ;* FAR STRINGS                                                                 *
    2353              ;*******************************************************************************
    2354 000000               .sect   ".const:.string"
    2355                      .align  2
    2356 000000 0043  $C$FSL1:        .string "CSL MMCSD INTERRUPT MODE TEST!",10,10,0
         000001 0053 
         000002 004C 
         000003 0020 
         000004 004D 
         000005 004D 
         000006 0043 
         000007 0053 
         000008 0044 
         000009 0020 
         00000a 0049 
         00000b 004E 
         00000c 0054 
         00000d 0045 
         00000e 0052 
         00000f 0052 
         000010 0055 
         000011 0050 
         000012 0054 
         000013 0020 
         000014 004D 
         000015 004F 
         000016 0044 
         000017 0045 
         000018 0020 
         000019 0054 
         00001a 0045 
         00001b 0053 
         00001c 0054 
         00001d 0021 
         00001e 000A 
         00001f 000A 
         000020 0000 
    2357                      .align  2
    2358 000022 000A  $C$FSL2:        .string 10,"INTERRUPT MODE TEST FAILED!",10,0
         000023 0049 
         000024 004E 
         000025 0054 
         000026 0045 
         000027 0052 
         000028 0052 
         000029 0055 
TMS320C55x Assembler PC v4.4.1 Sat Sep 29 23:08:58 2018

Tools Copyright (c) 1996-2012 Texas Instruments Incorporated
csl_mmcsd_intr_example.asm                                           PAGE   54

         00002a 0050 
         00002b 0054 
         00002c 0020 
         00002d 004D 
         00002e 004F 
         00002f 0044 
         000030 0045 
         000031 0020 
         000032 0054 
         000033 0045 
         000034 0053 
         000035 0054 
         000036 0020 
         000037 0046 
         000038 0041 
         000039 0049 
         00003a 004C 
         00003b 0045 
         00003c 0044 
         00003d 0021 
         00003e 000A 
         00003f 0000 
    2359                      .align  2
    2360 000040 000A  $C$FSL3:        .string 10,"INTERRUPT MODE TEST PASSED!",10,0
         000041 0049 
         000042 004E 
         000043 0054 
         000044 0045 
         000045 0052 
         000046 0052 
         000047 0055 
         000048 0050 
         000049 0054 
         00004a 0020 
         00004b 004D 
         00004c 004F 
         00004d 0044 
         00004e 0045 
         00004f 0020 
         000050 0054 
         000051 0045 
         000052 0053 
         000053 0054 
         000054 0020 
         000055 0050 
         000056 0041 
         000057 0053 
         000058 0053 
         000059 0045 
         00005a 0044 
         00005b 0021 
         00005c 000A 
         00005d 0000 
    2361                      .align  2
    2362 00005e 0041  $C$FSL4:        .string "API: MMC_init Failed!",10,0
TMS320C55x Assembler PC v4.4.1 Sat Sep 29 23:08:58 2018

Tools Copyright (c) 1996-2012 Texas Instruments Incorporated
csl_mmcsd_intr_example.asm                                           PAGE   55

         00005f 0050 
         000060 0049 
         000061 003A 
         000062 0020 
         000063 004D 
         000064 004D 
         000065 0043 
         000066 005F 
         000067 0069 
         000068 006E 
         000069 0069 
         00006a 0074 
         00006b 0020 
         00006c 0046 
         00006d 0061 
         00006e 0069 
         00006f 006C 
         000070 0065 
         000071 0064 
         000072 0021 
         000073 000A 
         000074 0000 
    2363                      .align  2
    2364 000076 0041  $C$FSL5:        .string "API: MMC_open Failed",10,0
         000077 0050 
         000078 0049 
         000079 003A 
         00007a 0020 
         00007b 004D 
         00007c 004D 
         00007d 0043 
         00007e 005F 
         00007f 006F 
         000080 0070 
         000081 0065 
         000082 006E 
         000083 0020 
         000084 0046 
         000085 0061 
         000086 0069 
         000087 006C 
         000088 0065 
         000089 0064 
         00008a 000A 
         00008b 0000 
    2365                      .align  2
    2366 00008c 0041  $C$FSL6:        .string "API: MMC_setDataTransferCallback Failed",10,0
         00008d 0050 
         00008e 0049 
         00008f 003A 
         000090 0020 
         000091 004D 
         000092 004D 
         000093 0043 
         000094 005F 
TMS320C55x Assembler PC v4.4.1 Sat Sep 29 23:08:58 2018

Tools Copyright (c) 1996-2012 Texas Instruments Incorporated
csl_mmcsd_intr_example.asm                                           PAGE   56

         000095 0073 
         000096 0065 
         000097 0074 
         000098 0044 
         000099 0061 
         00009a 0074 
         00009b 0061 
         00009c 0054 
         00009d 0072 
         00009e 0061 
         00009f 006E 
         0000a0 0073 
         0000a1 0066 
         0000a2 0065 
         0000a3 0072 
         0000a4 0043 
         0000a5 0061 
         0000a6 006C 
         0000a7 006C 
         0000a8 0062 
         0000a9 0061 
         0000aa 0063 
         0000ab 006B 
         0000ac 0020 
         0000ad 0046 
         0000ae 0061 
         0000af 0069 
         0000b0 006C 
         0000b1 0065 
         0000b2 0064 
         0000b3 000A 
         0000b4 0000 
    2367                      .align  2
    2368 0000b6 0041  $C$FSL7:        .string "API: MMC_sendGoIdle Failed",10,0
         0000b7 0050 
         0000b8 0049 
         0000b9 003A 
         0000ba 0020 
         0000bb 004D 
         0000bc 004D 
         0000bd 0043 
         0000be 005F 
         0000bf 0073 
         0000c0 0065 
         0000c1 006E 
         0000c2 0064 
         0000c3 0047 
         0000c4 006F 
         0000c5 0049 
         0000c6 0064 
         0000c7 006C 
         0000c8 0065 
         0000c9 0020 
         0000ca 0046 
         0000cb 0061 
TMS320C55x Assembler PC v4.4.1 Sat Sep 29 23:08:58 2018

Tools Copyright (c) 1996-2012 Texas Instruments Incorporated
csl_mmcsd_intr_example.asm                                           PAGE   57

         0000cc 0069 
         0000cd 006C 
         0000ce 0065 
         0000cf 0064 
         0000d0 000A 
         0000d1 0000 
    2369                      .align  2
    2370 0000d2 0041  $C$FSL8:        .string "API: MMC_selectCard Failed",10,0
         0000d3 0050 
         0000d4 0049 
         0000d5 003A 
         0000d6 0020 
         0000d7 004D 
         0000d8 004D 
         0000d9 0043 
         0000da 005F 
         0000db 0073 
         0000dc 0065 
         0000dd 006C 
         0000de 0065 
         0000df 0063 
         0000e0 0074 
         0000e1 0043 
         0000e2 0061 
         0000e3 0072 
         0000e4 0064 
         0000e5 0020 
         0000e6 0046 
         0000e7 0061 
         0000e8 0069 
         0000e9 006C 
         0000ea 0065 
         0000eb 0064 
         0000ec 000A 
         0000ed 0000 
    2371                      .align  2
    2372 0000ee 004D  $C$FSL9:        .string "MMC Card Detected!",10,10,0
         0000ef 004D 
         0000f0 0043 
         0000f1 0020 
         0000f2 0043 
         0000f3 0061 
         0000f4 0072 
         0000f5 0064 
         0000f6 0020 
         0000f7 0044 
         0000f8 0065 
         0000f9 0074 
         0000fa 0065 
         0000fb 0063 
         0000fc 0074 
         0000fd 0065 
         0000fe 0064 
         0000ff 0021 
         000100 000A 
TMS320C55x Assembler PC v4.4.1 Sat Sep 29 23:08:58 2018

Tools Copyright (c) 1996-2012 Texas Instruments Incorporated
csl_mmcsd_intr_example.asm                                           PAGE   58

         000101 000A 
         000102 0000 
    2373                      .align  2
    2374 000104 0041  $C$FSL10:       .string "API: MMC_sendAllCID Failed",10,0
         000105 0050 
         000106 0049 
         000107 003A 
         000108 0020 
         000109 004D 
         00010a 004D 
         00010b 0043 
         00010c 005F 
         00010d 0073 
         00010e 0065 
         00010f 006E 
         000110 0064 
         000111 0041 
         000112 006C 
         000113 006C 
         000114 0043 
         000115 0049 
         000116 0044 
         000117 0020 
         000118 0046 
         000119 0061 
         00011a 0069 
         00011b 006C 
         00011c 0065 
         00011d 0064 
         00011e 000A 
         00011f 0000 
    2375                      .align  2
    2376 000120 0041  $C$FSL11:       .string "API: MMC_setRca Failed",10,0
         000121 0050 
         000122 0049 
         000123 003A 
         000124 0020 
         000125 004D 
         000126 004D 
         000127 0043 
         000128 005F 
         000129 0073 
         00012a 0065 
         00012b 0074 
         00012c 0052 
         00012d 0063 
         00012e 0061 
         00012f 0020 
         000130 0046 
         000131 0061 
         000132 0069 
         000133 006C 
         000134 0065 
         000135 0064 
         000136 000A 
TMS320C55x Assembler PC v4.4.1 Sat Sep 29 23:08:58 2018

Tools Copyright (c) 1996-2012 Texas Instruments Incorporated
csl_mmcsd_intr_example.asm                                           PAGE   59

         000137 0000 
    2377                      .align  2
    2378 000138 0041  $C$FSL12:       .string "API: MMC_getCardCsd Failed",10,0
         000139 0050 
         00013a 0049 
         00013b 003A 
         00013c 0020 
         00013d 004D 
         00013e 004D 
         00013f 0043 
         000140 005F 
         000141 0067 
         000142 0065 
         000143 0074 
         000144 0043 
         000145 0061 
         000146 0072 
         000147 0064 
         000148 0043 
         000149 0073 
         00014a 0064 
         00014b 0020 
         00014c 0046 
         00014d 0061 
         00014e 0069 
         00014f 006C 
         000150 0065 
         000151 0064 
         000152 000A 
         000153 0000 
    2379                      .align  2
    2380 000154 0053  $C$FSL13:       .string "SD Card Detected!",10,0
         000155 0044 
         000156 0020 
         000157 0043 
         000158 0061 
         000159 0072 
         00015a 0064 
         00015b 0020 
         00015c 0044 
         00015d 0065 
         00015e 0074 
         00015f 0065 
         000160 0063 
         000161 0074 
         000162 0065 
         000163 0064 
         000164 0021 
         000165 000A 
         000166 0000 
    2381                      .align  2
    2382 000168 0053  $C$FSL14:       .string "SD card is High Capacity Card",10,0
         000169 0044 
         00016a 0020 
         00016b 0063 
TMS320C55x Assembler PC v4.4.1 Sat Sep 29 23:08:58 2018

Tools Copyright (c) 1996-2012 Texas Instruments Incorporated
csl_mmcsd_intr_example.asm                                           PAGE   60

         00016c 0061 
         00016d 0072 
         00016e 0064 
         00016f 0020 
         000170 0069 
         000171 0073 
         000172 0020 
         000173 0048 
         000174 0069 
         000175 0067 
         000176 0068 
         000177 0020 
         000178 0043 
         000179 0061 
         00017a 0070 
         00017b 0061 
         00017c 0063 
         00017d 0069 
         00017e 0074 
         00017f 0079 
         000180 0020 
         000181 0043 
         000182 0061 
         000183 0072 
         000184 0064 
         000185 000A 
         000186 0000 
    2383                      .align  2
    2384 000188 004D  $C$FSL15:       .string "Memory Access Uses Block Addressing",10,10,0
         000189 0065 
         00018a 006D 
         00018b 006F 
         00018c 0072 
         00018d 0079 
         00018e 0020 
         00018f 0041 
         000190 0063 
         000191 0063 
         000192 0065 
         000193 0073 
         000194 0073 
         000195 0020 
         000196 0055 
         000197 0073 
         000198 0065 
         000199 0073 
         00019a 0020 
         00019b 0042 
         00019c 006C 
         00019d 006F 
         00019e 0063 
         00019f 006B 
         0001a0 0020 
         0001a1 0041 
         0001a2 0064 
TMS320C55x Assembler PC v4.4.1 Sat Sep 29 23:08:58 2018

Tools Copyright (c) 1996-2012 Texas Instruments Incorporated
csl_mmcsd_intr_example.asm                                           PAGE   61

         0001a3 0064 
         0001a4 0072 
         0001a5 0065 
         0001a6 0073 
         0001a7 0073 
         0001a8 0069 
         0001a9 006E 
         0001aa 0067 
         0001ab 000A 
         0001ac 000A 
         0001ad 0000 
    2385                      .align  2
    2386 0001ae 0053  $C$FSL16:       .string "SD card is Standard Capacity Card",10,0
         0001af 0044 
         0001b0 0020 
         0001b1 0063 
         0001b2 0061 
         0001b3 0072 
         0001b4 0064 
         0001b5 0020 
         0001b6 0069 
         0001b7 0073 
         0001b8 0020 
         0001b9 0053 
         0001ba 0074 
         0001bb 0061 
         0001bc 006E 
         0001bd 0064 
         0001be 0061 
         0001bf 0072 
         0001c0 0064 
         0001c1 0020 
         0001c2 0043 
         0001c3 0061 
         0001c4 0070 
         0001c5 0061 
         0001c6 0063 
         0001c7 0069 
         0001c8 0074 
         0001c9 0079 
         0001ca 0020 
         0001cb 0043 
         0001cc 0061 
         0001cd 0072 
         0001ce 0064 
         0001cf 000A 
         0001d0 0000 
    2387                      .align  2
    2388 0001d2 004D  $C$FSL17:       .string "Memory Access Uses Byte Addressing",10,10,0
         0001d3 0065 
         0001d4 006D 
         0001d5 006F 
         0001d6 0072 
         0001d7 0079 
         0001d8 0020 
TMS320C55x Assembler PC v4.4.1 Sat Sep 29 23:08:58 2018

Tools Copyright (c) 1996-2012 Texas Instruments Incorporated
csl_mmcsd_intr_example.asm                                           PAGE   62

         0001d9 0041 
         0001da 0063 
         0001db 0063 
         0001dc 0065 
         0001dd 0073 
         0001de 0073 
         0001df 0020 
         0001e0 0055 
         0001e1 0073 
         0001e2 0065 
         0001e3 0073 
         0001e4 0020 
         0001e5 0042 
         0001e6 0079 
         0001e7 0074 
         0001e8 0065 
         0001e9 0020 
         0001ea 0041 
         0001eb 0064 
         0001ec 0064 
         0001ed 0072 
         0001ee 0065 
         0001ef 0073 
         0001f0 0073 
         0001f1 0069 
         0001f2 006E 
         0001f3 0067 
         0001f4 000A 
         0001f5 000A 
         0001f6 0000 
    2389                      .align  2
    2390 0001f8 0041  $C$FSL18:       .string "API: MMC_sendOpCond Failed",10,0
         0001f9 0050 
         0001fa 0049 
         0001fb 003A 
         0001fc 0020 
         0001fd 004D 
         0001fe 004D 
         0001ff 0043 
         000200 005F 
         000201 0073 
         000202 0065 
         000203 006E 
         000204 0064 
         000205 004F 
         000206 0070 
         000207 0043 
         000208 006F 
         000209 006E 
         00020a 0064 
         00020b 0020 
         00020c 0046 
         00020d 0061 
         00020e 0069 
         00020f 006C 
TMS320C55x Assembler PC v4.4.1 Sat Sep 29 23:08:58 2018

Tools Copyright (c) 1996-2012 Texas Instruments Incorporated
csl_mmcsd_intr_example.asm                                           PAGE   63

         000210 0065 
         000211 0064 
         000212 000A 
         000213 0000 
    2391                      .align  2
    2392 000214 0041  $C$FSL19:       .string "API: SD_sendAllCID Failed",10,0
         000215 0050 
         000216 0049 
         000217 003A 
         000218 0020 
         000219 0053 
         00021a 0044 
         00021b 005F 
         00021c 0073 
         00021d 0065 
         00021e 006E 
         00021f 0064 
         000220 0041 
         000221 006C 
         000222 006C 
         000223 0043 
         000224 0049 
         000225 0044 
         000226 0020 
         000227 0046 
         000228 0061 
         000229 0069 
         00022a 006C 
         00022b 0065 
         00022c 0064 
         00022d 000A 
         00022e 0000 
    2393                      .align  2
    2394 000230 0041  $C$FSL20:       .string "API: SD_sendRca Failed",10,0
         000231 0050 
         000232 0049 
         000233 003A 
         000234 0020 
         000235 0053 
         000236 0044 
         000237 005F 
         000238 0073 
         000239 0065 
         00023a 006E 
         00023b 0064 
         00023c 0052 
         00023d 0063 
         00023e 0061 
         00023f 0020 
         000240 0046 
         000241 0061 
         000242 0069 
         000243 006C 
         000244 0065 
         000245 0064 
TMS320C55x Assembler PC v4.4.1 Sat Sep 29 23:08:58 2018

Tools Copyright (c) 1996-2012 Texas Instruments Incorporated
csl_mmcsd_intr_example.asm                                           PAGE   64

         000246 000A 
         000247 0000 
    2395                      .align  2
    2396 000248 0041  $C$FSL21:       .string "API: SD_getCardCsd Failed",10,0
         000249 0050 
         00024a 0049 
         00024b 003A 
         00024c 0020 
         00024d 0053 
         00024e 0044 
         00024f 005F 
         000250 0067 
         000251 0065 
         000252 0074 
         000253 0043 
         000254 0061 
         000255 0072 
         000256 0064 
         000257 0043 
         000258 0073 
         000259 0064 
         00025a 0020 
         00025b 0046 
         00025c 0061 
         00025d 0069 
         00025e 006C 
         00025f 0065 
         000260 0064 
         000261 000A 
         000262 0000 
    2397                      .align  2
    2398 000264 004E  $C$FSL22:       .string "NO Card Detected!",10,0
         000265 004F 
         000266 0020 
         000267 0043 
         000268 0061 
         000269 0072 
         00026a 0064 
         00026b 0020 
         00026c 0044 
         00026d 0065 
         00026e 0074 
         00026f 0065 
         000270 0063 
         000271 0074 
         000272 0065 
         000273 0064 
         000274 0021 
         000275 000A 
         000276 0000 
    2399                      .align  2
    2400 000278 0049  $C$FSL23:       .string "Insert MMC/SD Card!",10,0
         000279 006E 
         00027a 0073 
         00027b 0065 
TMS320C55x Assembler PC v4.4.1 Sat Sep 29 23:08:58 2018

Tools Copyright (c) 1996-2012 Texas Instruments Incorporated
csl_mmcsd_intr_example.asm                                           PAGE   65

         00027c 0072 
         00027d 0074 
         00027e 0020 
         00027f 004D 
         000280 004D 
         000281 0043 
         000282 002F 
         000283 0053 
         000284 0044 
         000285 0020 
         000286 0043 
         000287 0061 
         000288 0072 
         000289 0064 
         00028a 0021 
         00028b 000A 
         00028c 0000 
    2401                      .align  2
    2402 00028e 0041  $C$FSL24:       .string "API: MMC_setCardType Failed",10,0
         00028f 0050 
         000290 0049 
         000291 003A 
         000292 0020 
         000293 004D 
         000294 004D 
         000295 0043 
         000296 005F 
         000297 0073 
         000298 0065 
         000299 0074 
         00029a 0043 
         00029b 0061 
         00029c 0072 
         00029d 0064 
         00029e 0054 
         00029f 0079 
         0002a0 0070 
         0002a1 0065 
         0002a2 0020 
         0002a3 0046 
         0002a4 0061 
         0002a5 0069 
         0002a6 006C 
         0002a7 0065 
         0002a8 0064 
         0002a9 000A 
         0002aa 0000 
    2403                      .align  2
    2404 0002ac 0041  $C$FSL25:       .string "API: MMC_setCardPtr Failed",10,0
         0002ad 0050 
         0002ae 0049 
         0002af 003A 
         0002b0 0020 
         0002b1 004D 
         0002b2 004D 
TMS320C55x Assembler PC v4.4.1 Sat Sep 29 23:08:58 2018

Tools Copyright (c) 1996-2012 Texas Instruments Incorporated
csl_mmcsd_intr_example.asm                                           PAGE   66

         0002b3 0043 
         0002b4 005F 
         0002b5 0073 
         0002b6 0065 
         0002b7 0074 
         0002b8 0043 
         0002b9 0061 
         0002ba 0072 
         0002bb 0064 
         0002bc 0050 
         0002bd 0074 
         0002be 0072 
         0002bf 0020 
         0002c0 0046 
         0002c1 0061 
         0002c2 0069 
         0002c3 006C 
         0002c4 0065 
         0002c5 0064 
         0002c6 000A 
         0002c7 0000 
    2405                      .align  2
    2406 0002c8 0041  $C$FSL26:       .string "API: MMC_getNumberOfCards Failed",10,0
         0002c9 0050 
         0002ca 0049 
         0002cb 003A 
         0002cc 0020 
         0002cd 004D 
         0002ce 004D 
         0002cf 0043 
         0002d0 005F 
         0002d1 0067 
         0002d2 0065 
         0002d3 0074 
         0002d4 004E 
         0002d5 0075 
         0002d6 006D 
         0002d7 0062 
         0002d8 0065 
         0002d9 0072 
         0002da 004F 
         0002db 0066 
         0002dc 0043 
         0002dd 0061 
         0002de 0072 
         0002df 0064 
         0002e0 0073 
         0002e1 0020 
         0002e2 0046 
         0002e3 0061 
         0002e4 0069 
         0002e5 006C 
         0002e6 0065 
         0002e7 0064 
         0002e8 000A 
TMS320C55x Assembler PC v4.4.1 Sat Sep 29 23:08:58 2018

Tools Copyright (c) 1996-2012 Texas Instruments Incorporated
csl_mmcsd_intr_example.asm                                           PAGE   67

         0002e9 0000 
    2407                      .align  2
    2408 0002ea 0041  $C$FSL27:       .string "API: MMC_setEndianMode Failed",10,0
         0002eb 0050 
         0002ec 0049 
         0002ed 003A 
         0002ee 0020 
         0002ef 004D 
         0002f0 004D 
         0002f1 0043 
         0002f2 005F 
         0002f3 0073 
         0002f4 0065 
         0002f5 0074 
         0002f6 0045 
         0002f7 006E 
         0002f8 0064 
         0002f9 0069 
         0002fa 0061 
         0002fb 006E 
         0002fc 004D 
         0002fd 006F 
         0002fe 0064 
         0002ff 0065 
         000300 0020 
         000301 0046 
         000302 0061 
         000303 0069 
         000304 006C 
         000305 0065 
         000306 0064 
         000307 000A 
         000308 0000 
    2409                      .align  2
    2410 00030a 0041  $C$FSL28:       .string "API: MMC_setBlockLength Failed",10,0
         00030b 0050 
         00030c 0049 
         00030d 003A 
         00030e 0020 
         00030f 004D 
         000310 004D 
         000311 0043 
         000312 005F 
         000313 0073 
         000314 0065 
         000315 0074 
         000316 0042 
         000317 006C 
         000318 006F 
         000319 0063 
         00031a 006B 
         00031b 004C 
         00031c 0065 
         00031d 006E 
         00031e 0067 
TMS320C55x Assembler PC v4.4.1 Sat Sep 29 23:08:58 2018

Tools Copyright (c) 1996-2012 Texas Instruments Incorporated
csl_mmcsd_intr_example.asm                                           PAGE   68

         00031f 0074 
         000320 0068 
         000321 0020 
         000322 0046 
         000323 0061 
         000324 0069 
         000325 006C 
         000326 0065 
         000327 0064 
         000328 000A 
         000329 0000 
    2411                      .align  2
    2412 00032a 0041  $C$FSL29:       .string "API: MMC_write Failed",10,0
         00032b 0050 
         00032c 0049 
         00032d 003A 
         00032e 0020 
         00032f 004D 
         000330 004D 
         000331 0043 
         000332 005F 
         000333 0077 
         000334 0072 
         000335 0069 
         000336 0074 
         000337 0065 
         000338 0020 
         000339 0046 
         00033a 0061 
         00033b 0069 
         00033c 006C 
         00033d 0065 
         00033e 0064 
         00033f 000A 
         000340 0000 
    2413                      .align  2
    2414 000342 0041  $C$FSL30:       .string "API: MMC_write Successful",10,10,0
         000343 0050 
         000344 0049 
         000345 003A 
         000346 0020 
         000347 004D 
         000348 004D 
         000349 0043 
         00034a 005F 
         00034b 0077 
         00034c 0072 
         00034d 0069 
         00034e 0074 
         00034f 0065 
         000350 0020 
         000351 0053 
         000352 0075 
         000353 0063 
         000354 0063 
TMS320C55x Assembler PC v4.4.1 Sat Sep 29 23:08:58 2018

Tools Copyright (c) 1996-2012 Texas Instruments Incorporated
csl_mmcsd_intr_example.asm                                           PAGE   69

         000355 0065 
         000356 0073 
         000357 0073 
         000358 0066 
         000359 0075 
         00035a 006C 
         00035b 000A 
         00035c 000A 
         00035d 0000 
    2415                      .align  2
    2416 00035e 0041  $C$FSL31:       .string "API: MMC_read Failed",10,0
         00035f 0050 
         000360 0049 
         000361 003A 
         000362 0020 
         000363 004D 
         000364 004D 
         000365 0043 
         000366 005F 
         000367 0072 
         000368 0065 
         000369 0061 
         00036a 0064 
         00036b 0020 
         00036c 0046 
         00036d 0061 
         00036e 0069 
         00036f 006C 
         000370 0065 
         000371 0064 
         000372 000A 
         000373 0000 
    2417                      .align  2
    2418 000374 0041  $C$FSL32:       .string "API: MMC_read Successful",10,10,0
         000375 0050 
         000376 0049 
         000377 003A 
         000378 0020 
         000379 004D 
         00037a 004D 
         00037b 0043 
         00037c 005F 
         00037d 0072 
         00037e 0065 
         00037f 0061 
         000380 0064 
         000381 0020 
         000382 0053 
         000383 0075 
         000384 0063 
         000385 0063 
         000386 0065 
         000387 0073 
         000388 0073 
         000389 0066 
TMS320C55x Assembler PC v4.4.1 Sat Sep 29 23:08:58 2018

Tools Copyright (c) 1996-2012 Texas Instruments Incorporated
csl_mmcsd_intr_example.asm                                           PAGE   70

         00038a 0075 
         00038b 006C 
         00038c 000A 
         00038d 000A 
         00038e 0000 
    2419                      .align  2
    2420 000390 0041  $C$FSL33:       .string "API: MMC_close Failed",10,0
         000391 0050 
         000392 0049 
         000393 003A 
         000394 0020 
         000395 004D 
         000396 004D 
         000397 0043 
         000398 005F 
         000399 0063 
         00039a 006C 
         00039b 006F 
         00039c 0073 
         00039d 0065 
         00039e 0020 
         00039f 0046 
         0003a0 0061 
         0003a1 0069 
         0003a2 006C 
         0003a3 0065 
         0003a4 0064 
         0003a5 000A 
         0003a6 0000 
    2421                      .align  2
    2422 0003a8 0042  $C$FSL34:       .string "Buffer Miss Matched at Position %d",10,0
         0003a9 0075 
         0003aa 0066 
         0003ab 0066 
         0003ac 0065 
         0003ad 0072 
         0003ae 0020 
         0003af 004D 
         0003b0 0069 
         0003b1 0073 
         0003b2 0073 
         0003b3 0020 
         0003b4 004D 
         0003b5 0061 
         0003b6 0074 
         0003b7 0063 
         0003b8 0068 
         0003b9 0065 
         0003ba 0064 
         0003bb 0020 
         0003bc 0061 
         0003bd 0074 
         0003be 0020 
         0003bf 0050 
         0003c0 006F 
TMS320C55x Assembler PC v4.4.1 Sat Sep 29 23:08:58 2018

Tools Copyright (c) 1996-2012 Texas Instruments Incorporated
csl_mmcsd_intr_example.asm                                           PAGE   71

         0003c1 0073 
         0003c2 0069 
         0003c3 0074 
         0003c4 0069 
         0003c5 006F 
         0003c6 006E 
         0003c7 0020 
         0003c8 0025 
         0003c9 0064 
         0003ca 000A 
         0003cb 0000 
    2423                      .align  2
    2424 0003cc 0052  $C$FSL35:       .string "Read & Write Buffer Matched",10,0
         0003cd 0065 
         0003ce 0061 
         0003cf 0064 
         0003d0 0020 
         0003d1 0026 
         0003d2 0020 
         0003d3 0057 
         0003d4 0072 
         0003d5 0069 
         0003d6 0074 
         0003d7 0065 
         0003d8 0020 
         0003d9 0042 
         0003da 0075 
         0003db 0066 
         0003dc 0066 
         0003dd 0065 
         0003de 0072 
         0003df 0020 
         0003e0 004D 
         0003e1 0061 
         0003e2 0074 
         0003e3 0063 
         0003e4 0068 
         0003e5 0065 
         0003e6 0064 
         0003e7 000A 
         0003e8 0000 
    2425              ;******************************************************************************
    2426              ;* UNDEFINED EXTERNAL REFERENCES                                              *
    2427              ;******************************************************************************
    2428                      .global _MMC_init
    2429                      .global _MMC_open
    2430                      .global _MMC_close
    2431                      .global _MMC_setCardType
    2432                      .global _MMC_setCardPtr
    2433                      .global _MMC_getNumberOfCards
    2434                      .global _MMC_intEnable
    2435                      .global _MMC_sendGoIdle
    2436                      .global _MMC_selectCard
    2437                      .global _MMC_sendOpCond
    2438                      .global _MMC_setRca
TMS320C55x Assembler PC v4.4.1 Sat Sep 29 23:08:58 2018

Tools Copyright (c) 1996-2012 Texas Instruments Incorporated
csl_mmcsd_intr_example.asm                                           PAGE   72

    2439                      .global _SD_sendRca
    2440                      .global _MMC_sendAllCID
    2441                      .global _SD_sendAllCID
    2442                      .global _MMC_getCardCsd
    2443                      .global _SD_getCardCsd
    2444                      .global _MMC_read
    2445                      .global _MMC_write
    2446                      .global _MMC_setDataTransferCallback
    2447                      .global _MMC_setEndianMode
    2448                      .global _MMC_setBlockLength
    2449                      .global _IRQ_plug
    2450                      .global _IRQ_clear
    2451                      .global _IRQ_clearAll
    2452                      .global _IRQ_disableAll
    2453                      .global _IRQ_enable
    2454                      .global _IRQ_setVecs
    2455                      .global _IRQ_globalDisable
    2456                      .global _IRQ_globalEnable
    2457                      .global _printf
    2458                      .global _VECSTART
    2459                      .global __divul
    2460                      .global __remul
    2461                      .global __mpyli
    2462              
    2463              ;*******************************************************************************
    2464              ;* TYPE INFORMATION                                                            *
    2465              ;*******************************************************************************
    2466              
    2467              $C$DW$T$32      .dwtag  DW_TAG_enumeration_type
    2468                      .dwattr $C$DW$T$32, DW_AT_byte_size(0x01)
    2469              $C$DW$217       .dwtag  DW_TAG_enumerator, DW_AT_name("CSL_CARD_NONE"), DW_AT_const_value(0x00)
    2470              $C$DW$218       .dwtag  DW_TAG_enumerator, DW_AT_name("CSL_SD_CARD"), DW_AT_const_value(0x01)
    2471              $C$DW$219       .dwtag  DW_TAG_enumerator, DW_AT_name("CSL_MMC_CARD"), DW_AT_const_value(0x02)
    2472                      .dwendtag $C$DW$T$32
    2473              
    2474              $C$DW$T$33      .dwtag  DW_TAG_typedef, DW_AT_name("CSL_CardType")
    2475                      .dwattr $C$DW$T$33, DW_AT_type(*$C$DW$T$32)
    2476                      .dwattr $C$DW$T$33, DW_AT_language(DW_LANG_C)
    2477              
    2478              $C$DW$T$53      .dwtag  DW_TAG_enumeration_type
    2479                      .dwattr $C$DW$T$53, DW_AT_byte_size(0x01)
    2480              $C$DW$220       .dwtag  DW_TAG_enumerator, DW_AT_name("CSL_DMA_CHAN0"), DW_AT_const_value(0x00)
    2481              $C$DW$221       .dwtag  DW_TAG_enumerator, DW_AT_name("CSL_DMA_CHAN1"), DW_AT_const_value(0x01)
    2482              $C$DW$222       .dwtag  DW_TAG_enumerator, DW_AT_name("CSL_DMA_CHAN2"), DW_AT_const_value(0x02)
    2483              $C$DW$223       .dwtag  DW_TAG_enumerator, DW_AT_name("CSL_DMA_CHAN3"), DW_AT_const_value(0x03)
    2484              $C$DW$224       .dwtag  DW_TAG_enumerator, DW_AT_name("CSL_DMA_CHAN4"), DW_AT_const_value(0x04)
    2485              $C$DW$225       .dwtag  DW_TAG_enumerator, DW_AT_name("CSL_DMA_CHAN5"), DW_AT_const_value(0x05)
    2486              $C$DW$226       .dwtag  DW_TAG_enumerator, DW_AT_name("CSL_DMA_CHAN6"), DW_AT_const_value(0x06)
    2487              $C$DW$227       .dwtag  DW_TAG_enumerator, DW_AT_name("CSL_DMA_CHAN7"), DW_AT_const_value(0x07)
    2488              $C$DW$228       .dwtag  DW_TAG_enumerator, DW_AT_name("CSL_DMA_CHAN8"), DW_AT_const_value(0x08)
    2489              $C$DW$229       .dwtag  DW_TAG_enumerator, DW_AT_name("CSL_DMA_CHAN9"), DW_AT_const_value(0x09)
    2490              $C$DW$230       .dwtag  DW_TAG_enumerator, DW_AT_name("CSL_DMA_CHAN10"), DW_AT_const_value(0x0a)
    2491              $C$DW$231       .dwtag  DW_TAG_enumerator, DW_AT_name("CSL_DMA_CHAN11"), DW_AT_const_value(0x0b)
    2492              $C$DW$232       .dwtag  DW_TAG_enumerator, DW_AT_name("CSL_DMA_CHAN12"), DW_AT_const_value(0x0c)
    2493              $C$DW$233       .dwtag  DW_TAG_enumerator, DW_AT_name("CSL_DMA_CHAN13"), DW_AT_const_value(0x0d)
TMS320C55x Assembler PC v4.4.1 Sat Sep 29 23:08:58 2018

Tools Copyright (c) 1996-2012 Texas Instruments Incorporated
csl_mmcsd_intr_example.asm                                           PAGE   73

    2494              $C$DW$234       .dwtag  DW_TAG_enumerator, DW_AT_name("CSL_DMA_CHAN14"), DW_AT_const_value(0x0e)
    2495              $C$DW$235       .dwtag  DW_TAG_enumerator, DW_AT_name("CSL_DMA_CHAN15"), DW_AT_const_value(0x0f)
    2496              $C$DW$236       .dwtag  DW_TAG_enumerator, DW_AT_name("CSL_DMA_CHAN_INV"), DW_AT_const_value(0x10)
    2497                      .dwendtag $C$DW$T$53
    2498              
    2499              $C$DW$T$54      .dwtag  DW_TAG_typedef, DW_AT_name("CSL_DMAChanNum")
    2500                      .dwattr $C$DW$T$54, DW_AT_type(*$C$DW$T$53)
    2501                      .dwattr $C$DW$T$54, DW_AT_language(DW_LANG_C)
    2502              
    2503              $C$DW$T$55      .dwtag  DW_TAG_enumeration_type
    2504                      .dwattr $C$DW$T$55, DW_AT_byte_size(0x01)
    2505              $C$DW$237       .dwtag  DW_TAG_enumerator, DW_AT_name("CSL_DMA_ENGINE0"), DW_AT_const_value(0x00)
    2506              $C$DW$238       .dwtag  DW_TAG_enumerator, DW_AT_name("CSL_DMA_ENGINE1"), DW_AT_const_value(0x01)
    2507              $C$DW$239       .dwtag  DW_TAG_enumerator, DW_AT_name("CSL_DMA_ENGINE2"), DW_AT_const_value(0x02)
    2508              $C$DW$240       .dwtag  DW_TAG_enumerator, DW_AT_name("CSL_DMA_ENGINE3"), DW_AT_const_value(0x03)
    2509              $C$DW$241       .dwtag  DW_TAG_enumerator, DW_AT_name("CSL_DMA_ENGINEINV"), DW_AT_const_value(0x04)
    2510                      .dwendtag $C$DW$T$55
    2511              
    2512              $C$DW$T$56      .dwtag  DW_TAG_typedef, DW_AT_name("CSL_DMAEngineId")
    2513                      .dwattr $C$DW$T$56, DW_AT_type(*$C$DW$T$55)
    2514                      .dwattr $C$DW$T$56, DW_AT_language(DW_LANG_C)
    2515              
    2516              $C$DW$T$57      .dwtag  DW_TAG_enumeration_type
    2517                      .dwattr $C$DW$T$57, DW_AT_byte_size(0x01)
    2518              $C$DW$242       .dwtag  DW_TAG_enumerator, DW_AT_name("CSL_DMA_READ"), DW_AT_const_value(0x00)
    2519              $C$DW$243       .dwtag  DW_TAG_enumerator, DW_AT_name("CSL_DMA_WRITE"), DW_AT_const_value(0x01)
    2520                      .dwendtag $C$DW$T$57
    2521              
    2522              $C$DW$T$58      .dwtag  DW_TAG_typedef, DW_AT_name("CSL_DMAChanDir")
    2523                      .dwattr $C$DW$T$58, DW_AT_type(*$C$DW$T$57)
    2524                      .dwattr $C$DW$T$58, DW_AT_language(DW_LANG_C)
    2525              
    2526              $C$DW$T$59      .dwtag  DW_TAG_enumeration_type
    2527                      .dwattr $C$DW$T$59, DW_AT_byte_size(0x01)
    2528              $C$DW$244       .dwtag  DW_TAG_enumerator, DW_AT_name("CSL_DMA_SOFTWARE_TRIGGER"), DW_AT_const_value(0x00)
    2529              $C$DW$245       .dwtag  DW_TAG_enumerator, DW_AT_name("CSL_DMA_EVENT_TRIGGER"), DW_AT_const_value(0x01)
    2530                      .dwendtag $C$DW$T$59
    2531              
    2532              $C$DW$T$60      .dwtag  DW_TAG_typedef, DW_AT_name("CSL_DMATriggerType")
    2533                      .dwattr $C$DW$T$60, DW_AT_type(*$C$DW$T$59)
    2534                      .dwattr $C$DW$T$60, DW_AT_language(DW_LANG_C)
    2535              
    2536              $C$DW$T$61      .dwtag  DW_TAG_enumeration_type
    2537                      .dwattr $C$DW$T$61, DW_AT_byte_size(0x01)
    2538              $C$DW$246       .dwtag  DW_TAG_enumerator, DW_AT_name("CSL_DMA_TRANSFER_IO_MEMORY"), DW_AT_const_value(0x00)
    2539              $C$DW$247       .dwtag  DW_TAG_enumerator, DW_AT_name("CSL_DMA_TRANSFER_MEMORY"), DW_AT_const_value(0x01)
    2540                      .dwendtag $C$DW$T$61
    2541              
    2542              $C$DW$T$62      .dwtag  DW_TAG_typedef, DW_AT_name("CSL_DMATransferType")
    2543                      .dwattr $C$DW$T$62, DW_AT_type(*$C$DW$T$61)
    2544                      .dwattr $C$DW$T$62, DW_AT_language(DW_LANG_C)
    2545              
    2546              $C$DW$T$63      .dwtag  DW_TAG_enumeration_type
    2547                      .dwattr $C$DW$T$63, DW_AT_byte_size(0x01)
    2548              $C$DW$248       .dwtag  DW_TAG_enumerator, DW_AT_name("CSL_DMA_INTERRUPT_DISABLE"), DW_AT_const_value(0x00)
TMS320C55x Assembler PC v4.4.1 Sat Sep 29 23:08:58 2018

Tools Copyright (c) 1996-2012 Texas Instruments Incorporated
csl_mmcsd_intr_example.asm                                           PAGE   74

    2549              $C$DW$249       .dwtag  DW_TAG_enumerator, DW_AT_name("CSL_DMA_INTERRUPT_ENABLE"), DW_AT_const_value(0x01)
    2550                      .dwendtag $C$DW$T$63
    2551              
    2552              $C$DW$T$64      .dwtag  DW_TAG_typedef, DW_AT_name("CSL_DMAInterruptState")
    2553                      .dwattr $C$DW$T$64, DW_AT_type(*$C$DW$T$63)
    2554                      .dwattr $C$DW$T$64, DW_AT_language(DW_LANG_C)
    2555              
    2556              $C$DW$T$66      .dwtag  DW_TAG_enumeration_type
    2557                      .dwattr $C$DW$T$66, DW_AT_byte_size(0x01)
    2558              $C$DW$250       .dwtag  DW_TAG_enumerator, DW_AT_name("CSL_DMA_PING_PONG_DISABLE"), DW_AT_const_value(0x00)
    2559              $C$DW$251       .dwtag  DW_TAG_enumerator, DW_AT_name("CSL_DMA_PING_PONG_ENABLE"), DW_AT_const_value(0x01)
    2560                      .dwendtag $C$DW$T$66
    2561              
    2562              $C$DW$T$67      .dwtag  DW_TAG_typedef, DW_AT_name("CSL_DMAPingPongMode")
    2563                      .dwattr $C$DW$T$67, DW_AT_type(*$C$DW$T$66)
    2564                      .dwattr $C$DW$T$67, DW_AT_language(DW_LANG_C)
    2565              
    2566              $C$DW$T$68      .dwtag  DW_TAG_enumeration_type
    2567                      .dwattr $C$DW$T$68, DW_AT_byte_size(0x01)
    2568              $C$DW$252       .dwtag  DW_TAG_enumerator, DW_AT_name("CSL_DMA_AUTORELOAD_DISABLE"), DW_AT_const_value(0x00)
    2569              $C$DW$253       .dwtag  DW_TAG_enumerator, DW_AT_name("CSL_DMA_AUTORELOAD_ENABLE"), DW_AT_const_value(0x01)
    2570                      .dwendtag $C$DW$T$68
    2571              
    2572              $C$DW$T$69      .dwtag  DW_TAG_typedef, DW_AT_name("CSL_DMAAutoReloadMode")
    2573                      .dwattr $C$DW$T$69, DW_AT_type(*$C$DW$T$68)
    2574                      .dwattr $C$DW$T$69, DW_AT_language(DW_LANG_C)
    2575              
    2576              $C$DW$T$70      .dwtag  DW_TAG_enumeration_type
    2577                      .dwattr $C$DW$T$70, DW_AT_byte_size(0x01)
    2578              $C$DW$254       .dwtag  DW_TAG_enumerator, DW_AT_name("CSL_DMA_TXBURST_1WORD"), DW_AT_const_value(0x00)
    2579              $C$DW$255       .dwtag  DW_TAG_enumerator, DW_AT_name("CSL_DMA_TXBURST_2WORD"), DW_AT_const_value(0x01)
    2580              $C$DW$256       .dwtag  DW_TAG_enumerator, DW_AT_name("CSL_DMA_TXBURST_4WORD"), DW_AT_const_value(0x02)
    2581              $C$DW$257       .dwtag  DW_TAG_enumerator, DW_AT_name("CSL_DMA_TXBURST_8WORD"), DW_AT_const_value(0x03)
    2582              $C$DW$258       .dwtag  DW_TAG_enumerator, DW_AT_name("CSL_DMA_TXBURST_16WORD"), DW_AT_const_value(0x04)
    2583                      .dwendtag $C$DW$T$70
    2584              
    2585              $C$DW$T$71      .dwtag  DW_TAG_typedef, DW_AT_name("CSL_DMATxBurstLen")
    2586                      .dwattr $C$DW$T$71, DW_AT_type(*$C$DW$T$70)
    2587                      .dwattr $C$DW$T$71, DW_AT_language(DW_LANG_C)
    2588              
    2589              $C$DW$T$72      .dwtag  DW_TAG_enumeration_type
    2590                      .dwattr $C$DW$T$72, DW_AT_byte_size(0x01)
    2591              $C$DW$259       .dwtag  DW_TAG_enumerator, DW_AT_name("CSL_DMA_EVT_NONE"), DW_AT_const_value(0x00)
    2592              $C$DW$260       .dwtag  DW_TAG_enumerator, DW_AT_name("CSL_DMA_EVT_I2S0_TX"), DW_AT_const_value(0x01)
    2593              $C$DW$261       .dwtag  DW_TAG_enumerator, DW_AT_name("CSL_DMA_EVT_I2S0_RX"), DW_AT_const_value(0x02)
    2594              $C$DW$262       .dwtag  DW_TAG_enumerator, DW_AT_name("CSL_DMA_EVT_I2S1_TX"), DW_AT_const_value(0x01)
    2595              $C$DW$263       .dwtag  DW_TAG_enumerator, DW_AT_name("CSL_DMA_EVT_I2S1_RX"), DW_AT_const_value(0x02)
    2596              $C$DW$264       .dwtag  DW_TAG_enumerator, DW_AT_name("CSL_DMA_EVT_I2S2_TX"), DW_AT_const_value(0x01)
    2597              $C$DW$265       .dwtag  DW_TAG_enumerator, DW_AT_name("CSL_DMA_EVT_I2S2_RX"), DW_AT_const_value(0x02)
    2598              $C$DW$266       .dwtag  DW_TAG_enumerator, DW_AT_name("CSL_DMA_EVT_I2S3_TX"), DW_AT_const_value(0x04)
    2599              $C$DW$267       .dwtag  DW_TAG_enumerator, DW_AT_name("CSL_DMA_EVT_I2S3_RX"), DW_AT_const_value(0x05)
    2600              $C$DW$268       .dwtag  DW_TAG_enumerator, DW_AT_name("CSL_DMA_EVT_MMC_SD0_TX"), DW_AT_const_value(0x05)
    2601              $C$DW$269       .dwtag  DW_TAG_enumerator, DW_AT_name("CSL_DMA_EVT_MMC_SD0_RX"), DW_AT_const_value(0x06)
    2602              $C$DW$270       .dwtag  DW_TAG_enumerator, DW_AT_name("CSL_DMA_EVT_MMC_SD1_TX"), DW_AT_const_value(0x07)
    2603              $C$DW$271       .dwtag  DW_TAG_enumerator, DW_AT_name("CSL_DMA_EVT_MMC_SD1_RX"), DW_AT_const_value(0x08)
TMS320C55x Assembler PC v4.4.1 Sat Sep 29 23:08:58 2018

Tools Copyright (c) 1996-2012 Texas Instruments Incorporated
csl_mmcsd_intr_example.asm                                           PAGE   75

    2604              $C$DW$272       .dwtag  DW_TAG_enumerator, DW_AT_name("CSL_DMA_EVT_TIMER0"), DW_AT_const_value(0x0c)
    2605              $C$DW$273       .dwtag  DW_TAG_enumerator, DW_AT_name("CSL_DMA_EVT_TIMER1"), DW_AT_const_value(0x0d)
    2606              $C$DW$274       .dwtag  DW_TAG_enumerator, DW_AT_name("CSL_DMA_EVT_TIMER2"), DW_AT_const_value(0x0e)
    2607              $C$DW$275       .dwtag  DW_TAG_enumerator, DW_AT_name("CSL_DMA_EVT_UART_TX"), DW_AT_const_value(0x05)
    2608              $C$DW$276       .dwtag  DW_TAG_enumerator, DW_AT_name("CSL_DMA_EVT_UART_RX"), DW_AT_const_value(0x06)
    2609              $C$DW$277       .dwtag  DW_TAG_enumerator, DW_AT_name("CSL_DMA_EVT_I2C_TX"), DW_AT_const_value(0x01)
    2610              $C$DW$278       .dwtag  DW_TAG_enumerator, DW_AT_name("CSL_DMA_EVT_I2C_RX"), DW_AT_const_value(0x02)
    2611              $C$DW$279       .dwtag  DW_TAG_enumerator, DW_AT_name("CSL_DMA_EVT_SAR_AD"), DW_AT_const_value(0x03)
    2612              $C$DW$280       .dwtag  DW_TAG_enumerator, DW_AT_name("CSL_DMA_EVT_INVALID"), DW_AT_const_value(0x04)
    2613                      .dwendtag $C$DW$T$72
    2614              
    2615              $C$DW$T$73      .dwtag  DW_TAG_typedef, DW_AT_name("CSL_DMAEvtType")
    2616                      .dwattr $C$DW$T$73, DW_AT_type(*$C$DW$T$72)
    2617                      .dwattr $C$DW$T$73, DW_AT_language(DW_LANG_C)
    2618              
    2619              $C$DW$T$85      .dwtag  DW_TAG_enumeration_type
    2620                      .dwattr $C$DW$T$85, DW_AT_byte_size(0x01)
    2621              $C$DW$281       .dwtag  DW_TAG_enumerator, DW_AT_name("CSL_MMCSD_OPMODE_POLLED"), DW_AT_const_value(0x00)
    2622              $C$DW$282       .dwtag  DW_TAG_enumerator, DW_AT_name("CSL_MMCSD_OPMODE_INTERRUPT"), DW_AT_const_value(0x01)
    2623              $C$DW$283       .dwtag  DW_TAG_enumerator, DW_AT_name("CSL_MMCSD_OPMODE_DMA"), DW_AT_const_value(0x02)
    2624              $C$DW$284       .dwtag  DW_TAG_enumerator, DW_AT_name("CSL_MMCSD_OPMODE_NONE"), DW_AT_const_value(0x03)
    2625                      .dwendtag $C$DW$T$85
    2626              
    2627              $C$DW$T$86      .dwtag  DW_TAG_typedef, DW_AT_name("CSL_MMCSDOpMode")
    2628                      .dwattr $C$DW$T$86, DW_AT_type(*$C$DW$T$85)
    2629                      .dwattr $C$DW$T$86, DW_AT_language(DW_LANG_C)
    2630              
    2631              $C$DW$T$96      .dwtag  DW_TAG_enumeration_type
    2632                      .dwattr $C$DW$T$96, DW_AT_byte_size(0x01)
    2633              $C$DW$285       .dwtag  DW_TAG_enumerator, DW_AT_name("CSL_MMCSD_ENDIAN_LITTLE"), DW_AT_const_value(0x00)
    2634              $C$DW$286       .dwtag  DW_TAG_enumerator, DW_AT_name("CSL_MMCSD_ENDIAN_BIG"), DW_AT_const_value(0x01)
    2635                      .dwendtag $C$DW$T$96
    2636              
    2637              $C$DW$T$97      .dwtag  DW_TAG_typedef, DW_AT_name("CSL_MmcsdEndianMode")
    2638                      .dwattr $C$DW$T$97, DW_AT_type(*$C$DW$T$96)
    2639                      .dwattr $C$DW$T$97, DW_AT_language(DW_LANG_C)
    2640              
    2641              $C$DW$T$102     .dwtag  DW_TAG_enumeration_type
    2642                      .dwattr $C$DW$T$102, DW_AT_byte_size(0x01)
    2643              $C$DW$287       .dwtag  DW_TAG_enumerator, DW_AT_name("CSL_MMCSD0_INST"), DW_AT_const_value(0x00)
    2644              $C$DW$288       .dwtag  DW_TAG_enumerator, DW_AT_name("CSL_MMCSD1_INST"), DW_AT_const_value(0x01)
    2645              $C$DW$289       .dwtag  DW_TAG_enumerator, DW_AT_name("CSL_MMCSD_INST_INV"), DW_AT_const_value(0x02)
    2646                      .dwendtag $C$DW$T$102
    2647              
    2648              $C$DW$T$103     .dwtag  DW_TAG_typedef, DW_AT_name("CSL_MmcsdInstId")
    2649                      .dwattr $C$DW$T$103, DW_AT_type(*$C$DW$T$102)
    2650                      .dwattr $C$DW$T$103, DW_AT_language(DW_LANG_C)
    2651              
    2652              $C$DW$T$25      .dwtag  DW_TAG_structure_type
    2653                      .dwattr $C$DW$T$25, DW_AT_byte_size(0x75)
    2654              $C$DW$290       .dwtag  DW_TAG_member
    2655                      .dwattr $C$DW$290, DW_AT_type(*$C$DW$T$20)
    2656                      .dwattr $C$DW$290, DW_AT_name("MMCCTL")
    2657                      .dwattr $C$DW$290, DW_AT_TI_symbol_name("_MMCCTL")
    2658                      .dwattr $C$DW$290, DW_AT_data_member_location[DW_OP_plus_uconst 0x0]
TMS320C55x Assembler PC v4.4.1 Sat Sep 29 23:08:58 2018

Tools Copyright (c) 1996-2012 Texas Instruments Incorporated
csl_mmcsd_intr_example.asm                                           PAGE   76

    2659                      .dwattr $C$DW$290, DW_AT_accessibility(DW_ACCESS_public)
    2660              $C$DW$291       .dwtag  DW_TAG_member
    2661                      .dwattr $C$DW$291, DW_AT_type(*$C$DW$T$21)
    2662                      .dwattr $C$DW$291, DW_AT_name("RSVD0")
    2663                      .dwattr $C$DW$291, DW_AT_TI_symbol_name("_RSVD0")
    2664                      .dwattr $C$DW$291, DW_AT_data_member_location[DW_OP_plus_uconst 0x1]
    2665                      .dwattr $C$DW$291, DW_AT_accessibility(DW_ACCESS_public)
    2666              $C$DW$292       .dwtag  DW_TAG_member
    2667                      .dwattr $C$DW$292, DW_AT_type(*$C$DW$T$20)
    2668                      .dwattr $C$DW$292, DW_AT_name("MMCCLK")
    2669                      .dwattr $C$DW$292, DW_AT_TI_symbol_name("_MMCCLK")
    2670                      .dwattr $C$DW$292, DW_AT_data_member_location[DW_OP_plus_uconst 0x4]
    2671                      .dwattr $C$DW$292, DW_AT_accessibility(DW_ACCESS_public)
    2672              $C$DW$293       .dwtag  DW_TAG_member
    2673                      .dwattr $C$DW$293, DW_AT_type(*$C$DW$T$21)
    2674                      .dwattr $C$DW$293, DW_AT_name("RSVD1")
    2675                      .dwattr $C$DW$293, DW_AT_TI_symbol_name("_RSVD1")
    2676                      .dwattr $C$DW$293, DW_AT_data_member_location[DW_OP_plus_uconst 0x5]
    2677                      .dwattr $C$DW$293, DW_AT_accessibility(DW_ACCESS_public)
    2678              $C$DW$294       .dwtag  DW_TAG_member
    2679                      .dwattr $C$DW$294, DW_AT_type(*$C$DW$T$20)
    2680                      .dwattr $C$DW$294, DW_AT_name("MMCST0")
    2681                      .dwattr $C$DW$294, DW_AT_TI_symbol_name("_MMCST0")
    2682                      .dwattr $C$DW$294, DW_AT_data_member_location[DW_OP_plus_uconst 0x8]
    2683                      .dwattr $C$DW$294, DW_AT_accessibility(DW_ACCESS_public)
    2684              $C$DW$295       .dwtag  DW_TAG_member
    2685                      .dwattr $C$DW$295, DW_AT_type(*$C$DW$T$21)
    2686                      .dwattr $C$DW$295, DW_AT_name("RSVD2")
    2687                      .dwattr $C$DW$295, DW_AT_TI_symbol_name("_RSVD2")
    2688                      .dwattr $C$DW$295, DW_AT_data_member_location[DW_OP_plus_uconst 0x9]
    2689                      .dwattr $C$DW$295, DW_AT_accessibility(DW_ACCESS_public)
    2690              $C$DW$296       .dwtag  DW_TAG_member
    2691                      .dwattr $C$DW$296, DW_AT_type(*$C$DW$T$20)
    2692                      .dwattr $C$DW$296, DW_AT_name("MMCST1")
    2693                      .dwattr $C$DW$296, DW_AT_TI_symbol_name("_MMCST1")
    2694                      .dwattr $C$DW$296, DW_AT_data_member_location[DW_OP_plus_uconst 0xc]
    2695                      .dwattr $C$DW$296, DW_AT_accessibility(DW_ACCESS_public)
    2696              $C$DW$297       .dwtag  DW_TAG_member
    2697                      .dwattr $C$DW$297, DW_AT_type(*$C$DW$T$21)
    2698                      .dwattr $C$DW$297, DW_AT_name("RSVD3")
    2699                      .dwattr $C$DW$297, DW_AT_TI_symbol_name("_RSVD3")
    2700                      .dwattr $C$DW$297, DW_AT_data_member_location[DW_OP_plus_uconst 0xd]
    2701                      .dwattr $C$DW$297, DW_AT_accessibility(DW_ACCESS_public)
    2702              $C$DW$298       .dwtag  DW_TAG_member
    2703                      .dwattr $C$DW$298, DW_AT_type(*$C$DW$T$20)
    2704                      .dwattr $C$DW$298, DW_AT_name("MMCIM")
    2705                      .dwattr $C$DW$298, DW_AT_TI_symbol_name("_MMCIM")
    2706                      .dwattr $C$DW$298, DW_AT_data_member_location[DW_OP_plus_uconst 0x10]
    2707                      .dwattr $C$DW$298, DW_AT_accessibility(DW_ACCESS_public)
    2708              $C$DW$299       .dwtag  DW_TAG_member
    2709                      .dwattr $C$DW$299, DW_AT_type(*$C$DW$T$21)
    2710                      .dwattr $C$DW$299, DW_AT_name("RSVD4")
    2711                      .dwattr $C$DW$299, DW_AT_TI_symbol_name("_RSVD4")
    2712                      .dwattr $C$DW$299, DW_AT_data_member_location[DW_OP_plus_uconst 0x11]
    2713                      .dwattr $C$DW$299, DW_AT_accessibility(DW_ACCESS_public)
TMS320C55x Assembler PC v4.4.1 Sat Sep 29 23:08:58 2018

Tools Copyright (c) 1996-2012 Texas Instruments Incorporated
csl_mmcsd_intr_example.asm                                           PAGE   77

    2714              $C$DW$300       .dwtag  DW_TAG_member
    2715                      .dwattr $C$DW$300, DW_AT_type(*$C$DW$T$20)
    2716                      .dwattr $C$DW$300, DW_AT_name("MMCTOR")
    2717                      .dwattr $C$DW$300, DW_AT_TI_symbol_name("_MMCTOR")
    2718                      .dwattr $C$DW$300, DW_AT_data_member_location[DW_OP_plus_uconst 0x14]
    2719                      .dwattr $C$DW$300, DW_AT_accessibility(DW_ACCESS_public)
    2720              $C$DW$301       .dwtag  DW_TAG_member
    2721                      .dwattr $C$DW$301, DW_AT_type(*$C$DW$T$21)
    2722                      .dwattr $C$DW$301, DW_AT_name("RSVD5")
    2723                      .dwattr $C$DW$301, DW_AT_TI_symbol_name("_RSVD5")
    2724                      .dwattr $C$DW$301, DW_AT_data_member_location[DW_OP_plus_uconst 0x15]
    2725                      .dwattr $C$DW$301, DW_AT_accessibility(DW_ACCESS_public)
    2726              $C$DW$302       .dwtag  DW_TAG_member
    2727                      .dwattr $C$DW$302, DW_AT_type(*$C$DW$T$20)
    2728                      .dwattr $C$DW$302, DW_AT_name("MMCTOD")
    2729                      .dwattr $C$DW$302, DW_AT_TI_symbol_name("_MMCTOD")
    2730                      .dwattr $C$DW$302, DW_AT_data_member_location[DW_OP_plus_uconst 0x18]
    2731                      .dwattr $C$DW$302, DW_AT_accessibility(DW_ACCESS_public)
    2732              $C$DW$303       .dwtag  DW_TAG_member
    2733                      .dwattr $C$DW$303, DW_AT_type(*$C$DW$T$21)
    2734                      .dwattr $C$DW$303, DW_AT_name("RSVD6")
    2735                      .dwattr $C$DW$303, DW_AT_TI_symbol_name("_RSVD6")
    2736                      .dwattr $C$DW$303, DW_AT_data_member_location[DW_OP_plus_uconst 0x19]
    2737                      .dwattr $C$DW$303, DW_AT_accessibility(DW_ACCESS_public)
    2738              $C$DW$304       .dwtag  DW_TAG_member
    2739                      .dwattr $C$DW$304, DW_AT_type(*$C$DW$T$20)
    2740                      .dwattr $C$DW$304, DW_AT_name("MMCBLEN")
    2741                      .dwattr $C$DW$304, DW_AT_TI_symbol_name("_MMCBLEN")
    2742                      .dwattr $C$DW$304, DW_AT_data_member_location[DW_OP_plus_uconst 0x1c]
    2743                      .dwattr $C$DW$304, DW_AT_accessibility(DW_ACCESS_public)
    2744              $C$DW$305       .dwtag  DW_TAG_member
    2745                      .dwattr $C$DW$305, DW_AT_type(*$C$DW$T$21)
    2746                      .dwattr $C$DW$305, DW_AT_name("RSVD7")
    2747                      .dwattr $C$DW$305, DW_AT_TI_symbol_name("_RSVD7")
    2748                      .dwattr $C$DW$305, DW_AT_data_member_location[DW_OP_plus_uconst 0x1d]
    2749                      .dwattr $C$DW$305, DW_AT_accessibility(DW_ACCESS_public)
    2750              $C$DW$306       .dwtag  DW_TAG_member
    2751                      .dwattr $C$DW$306, DW_AT_type(*$C$DW$T$20)
    2752                      .dwattr $C$DW$306, DW_AT_name("MMCNBLK")
    2753                      .dwattr $C$DW$306, DW_AT_TI_symbol_name("_MMCNBLK")
    2754                      .dwattr $C$DW$306, DW_AT_data_member_location[DW_OP_plus_uconst 0x20]
    2755                      .dwattr $C$DW$306, DW_AT_accessibility(DW_ACCESS_public)
    2756              $C$DW$307       .dwtag  DW_TAG_member
    2757                      .dwattr $C$DW$307, DW_AT_type(*$C$DW$T$21)
    2758                      .dwattr $C$DW$307, DW_AT_name("RSVD8")
    2759                      .dwattr $C$DW$307, DW_AT_TI_symbol_name("_RSVD8")
    2760                      .dwattr $C$DW$307, DW_AT_data_member_location[DW_OP_plus_uconst 0x21]
    2761                      .dwattr $C$DW$307, DW_AT_accessibility(DW_ACCESS_public)
    2762              $C$DW$308       .dwtag  DW_TAG_member
    2763                      .dwattr $C$DW$308, DW_AT_type(*$C$DW$T$20)
    2764                      .dwattr $C$DW$308, DW_AT_name("MMCNBLC")
    2765                      .dwattr $C$DW$308, DW_AT_TI_symbol_name("_MMCNBLC")
    2766                      .dwattr $C$DW$308, DW_AT_data_member_location[DW_OP_plus_uconst 0x24]
    2767                      .dwattr $C$DW$308, DW_AT_accessibility(DW_ACCESS_public)
    2768              $C$DW$309       .dwtag  DW_TAG_member
TMS320C55x Assembler PC v4.4.1 Sat Sep 29 23:08:58 2018

Tools Copyright (c) 1996-2012 Texas Instruments Incorporated
csl_mmcsd_intr_example.asm                                           PAGE   78

    2769                      .dwattr $C$DW$309, DW_AT_type(*$C$DW$T$21)
    2770                      .dwattr $C$DW$309, DW_AT_name("RSVD9")
    2771                      .dwattr $C$DW$309, DW_AT_TI_symbol_name("_RSVD9")
    2772                      .dwattr $C$DW$309, DW_AT_data_member_location[DW_OP_plus_uconst 0x25]
    2773                      .dwattr $C$DW$309, DW_AT_accessibility(DW_ACCESS_public)
    2774              $C$DW$310       .dwtag  DW_TAG_member
    2775                      .dwattr $C$DW$310, DW_AT_type(*$C$DW$T$20)
    2776                      .dwattr $C$DW$310, DW_AT_name("MMCDRR1")
    2777                      .dwattr $C$DW$310, DW_AT_TI_symbol_name("_MMCDRR1")
    2778                      .dwattr $C$DW$310, DW_AT_data_member_location[DW_OP_plus_uconst 0x28]
    2779                      .dwattr $C$DW$310, DW_AT_accessibility(DW_ACCESS_public)
    2780              $C$DW$311       .dwtag  DW_TAG_member
    2781                      .dwattr $C$DW$311, DW_AT_type(*$C$DW$T$20)
    2782                      .dwattr $C$DW$311, DW_AT_name("MMCDRR2")
    2783                      .dwattr $C$DW$311, DW_AT_TI_symbol_name("_MMCDRR2")
    2784                      .dwattr $C$DW$311, DW_AT_data_member_location[DW_OP_plus_uconst 0x29]
    2785                      .dwattr $C$DW$311, DW_AT_accessibility(DW_ACCESS_public)
    2786              $C$DW$312       .dwtag  DW_TAG_member
    2787                      .dwattr $C$DW$312, DW_AT_type(*$C$DW$T$22)
    2788                      .dwattr $C$DW$312, DW_AT_name("RSVD10")
    2789                      .dwattr $C$DW$312, DW_AT_TI_symbol_name("_RSVD10")
    2790                      .dwattr $C$DW$312, DW_AT_data_member_location[DW_OP_plus_uconst 0x2a]
    2791                      .dwattr $C$DW$312, DW_AT_accessibility(DW_ACCESS_public)
    2792              $C$DW$313       .dwtag  DW_TAG_member
    2793                      .dwattr $C$DW$313, DW_AT_type(*$C$DW$T$20)
    2794                      .dwattr $C$DW$313, DW_AT_name("MMCDXR1")
    2795                      .dwattr $C$DW$313, DW_AT_TI_symbol_name("_MMCDXR1")
    2796                      .dwattr $C$DW$313, DW_AT_data_member_location[DW_OP_plus_uconst 0x2c]
    2797                      .dwattr $C$DW$313, DW_AT_accessibility(DW_ACCESS_public)
    2798              $C$DW$314       .dwtag  DW_TAG_member
    2799                      .dwattr $C$DW$314, DW_AT_type(*$C$DW$T$20)
    2800                      .dwattr $C$DW$314, DW_AT_name("MMCDXR2")
    2801                      .dwattr $C$DW$314, DW_AT_TI_symbol_name("_MMCDXR2")
    2802                      .dwattr $C$DW$314, DW_AT_data_member_location[DW_OP_plus_uconst 0x2d]
    2803                      .dwattr $C$DW$314, DW_AT_accessibility(DW_ACCESS_public)
    2804              $C$DW$315       .dwtag  DW_TAG_member
    2805                      .dwattr $C$DW$315, DW_AT_type(*$C$DW$T$22)
    2806                      .dwattr $C$DW$315, DW_AT_name("RSVD11")
    2807                      .dwattr $C$DW$315, DW_AT_TI_symbol_name("_RSVD11")
    2808                      .dwattr $C$DW$315, DW_AT_data_member_location[DW_OP_plus_uconst 0x2e]
    2809                      .dwattr $C$DW$315, DW_AT_accessibility(DW_ACCESS_public)
    2810              $C$DW$316       .dwtag  DW_TAG_member
    2811                      .dwattr $C$DW$316, DW_AT_type(*$C$DW$T$20)
    2812                      .dwattr $C$DW$316, DW_AT_name("MMCCMD1")
    2813                      .dwattr $C$DW$316, DW_AT_TI_symbol_name("_MMCCMD1")
    2814                      .dwattr $C$DW$316, DW_AT_data_member_location[DW_OP_plus_uconst 0x30]
    2815                      .dwattr $C$DW$316, DW_AT_accessibility(DW_ACCESS_public)
    2816              $C$DW$317       .dwtag  DW_TAG_member
    2817                      .dwattr $C$DW$317, DW_AT_type(*$C$DW$T$20)
    2818                      .dwattr $C$DW$317, DW_AT_name("MMCCMD2")
    2819                      .dwattr $C$DW$317, DW_AT_TI_symbol_name("_MMCCMD2")
    2820                      .dwattr $C$DW$317, DW_AT_data_member_location[DW_OP_plus_uconst 0x31]
    2821                      .dwattr $C$DW$317, DW_AT_accessibility(DW_ACCESS_public)
    2822              $C$DW$318       .dwtag  DW_TAG_member
    2823                      .dwattr $C$DW$318, DW_AT_type(*$C$DW$T$22)
TMS320C55x Assembler PC v4.4.1 Sat Sep 29 23:08:58 2018

Tools Copyright (c) 1996-2012 Texas Instruments Incorporated
csl_mmcsd_intr_example.asm                                           PAGE   79

    2824                      .dwattr $C$DW$318, DW_AT_name("RSVD12")
    2825                      .dwattr $C$DW$318, DW_AT_TI_symbol_name("_RSVD12")
    2826                      .dwattr $C$DW$318, DW_AT_data_member_location[DW_OP_plus_uconst 0x32]
    2827                      .dwattr $C$DW$318, DW_AT_accessibility(DW_ACCESS_public)
    2828              $C$DW$319       .dwtag  DW_TAG_member
    2829                      .dwattr $C$DW$319, DW_AT_type(*$C$DW$T$20)
    2830                      .dwattr $C$DW$319, DW_AT_name("MMCARG1")
    2831                      .dwattr $C$DW$319, DW_AT_TI_symbol_name("_MMCARG1")
    2832                      .dwattr $C$DW$319, DW_AT_data_member_location[DW_OP_plus_uconst 0x34]
    2833                      .dwattr $C$DW$319, DW_AT_accessibility(DW_ACCESS_public)
    2834              $C$DW$320       .dwtag  DW_TAG_member
    2835                      .dwattr $C$DW$320, DW_AT_type(*$C$DW$T$20)
    2836                      .dwattr $C$DW$320, DW_AT_name("MMCARG2")
