TMS320C55x Assembler PC v4.4.1 Thu Oct 04 22:26:44 2018

Tools Copyright (c) 1996-2012 Texas Instruments Incorporated
port.asm                                                             PAGE    1

    1524              ; Temporary Registers Used: None
       1              ;*******************************************************************************
       2              ;* TMS320C55x C/C++ Codegen                                          PC v4.4.1 *
       3              ;* Date/Time created: Thu Oct 04 22:26:44 2018                                 *
       4              ;*******************************************************************************
       5                      .compiler_opts --hll_source=on --mem_model:code=flat --mem_model:data=large --object_format=coff --si
       6                      .mmregs
       7                      .cpl_on
       8                      .arms_on
       9                      .c54cm_off
      10                      .asg AR6, FP
      11                      .asg XAR6, XFP
      12                      .asg DPH, MDP
      13                      .model call=c55_std
      14                      .model mem=large
      15                      .noremark 5002  ; code respects overwrite rules
      16              ;*******************************************************************************
      17              ;* GLOBAL FILE PARAMETERS                                                      *
      18              ;*                                                                             *
      19              ;*   Architecture       : TMS320C55x                                           *
      20              ;*   Optimizing for     : Speed                                                *
      21              ;*   Memory             : Large Model (23-Bit Data Pointers)                   *
      22              ;*   Calls              : Normal Library ASM calls                             *
      23              ;*   Debug Info         : Standard TI Debug Information                        *
      24              ;*******************************************************************************
      25              
      26              $C$DW$CU        .dwtag  DW_TAG_compile_unit
      27                      .dwattr $C$DW$CU, DW_AT_name("../FreeRTOS/Source/portable/CCS/c55x/port.c")
      28                      .dwattr $C$DW$CU, DW_AT_producer("TMS320C55x C/C++ Codegen PC v4.4.1 Copyright (c) 1996-2012 Texas In
      29                      .dwattr $C$DW$CU, DW_AT_TI_version(0x01)
      30                      .dwattr $C$DW$CU, DW_AT_comp_dir("F:\eZdsp-DBG-sim\tmp1\c55x-sim2\foo\Debug")
      31              ;******************************************************************************
      32              ;* CINIT RECORDS                                                              *
      33              ;******************************************************************************
      34 000000               .sect   ".cinit"
      35                      .align  1
      36 000000 0001          .field          1,16
      37 000001 0000-         .field          _portFLAGS_INT_ENABLED+0,24
         000002 0000 
      38 000002 0000          .field          0,8
      39 000003 00AB          .field  171,16                  ; _portFLAGS_INT_ENABLED @ 0
      40              
      41 000004               .sect   ".cinit"
      42                      .align  1
      43 000004 0001          .field          1,16
      44 000005 0000-         .field          _portFLAGS_INT_ENABLED_POPPED+0,24
         000006 0100 
      45 000006 0100          .field          0,8
      46 000007 00CD          .field  205,16                  ; _portFLAGS_INT_ENABLED_POPPED @ 0
      47              
      48 000008               .sect   ".cinit"
      49                      .align  1
      50 000008 0002          .field          2,16
      51 000009 0000-         .field          _save_xsp+0,24
         00000a 0200 
TMS320C55x Assembler PC v4.4.1 Thu Oct 04 22:26:44 2018

Tools Copyright (c) 1996-2012 Texas Instruments Incorporated
port.asm                                                             PAGE    2

      52 00000a 0200          .field          0,8
      53 00000b 0000          .field  0,32                    ; _save_xsp @ 0
         00000c 0000 
      54              
      55 00000d               .sect   ".cinit"
      56                      .align  1
      57 00000d 0002          .field          2,16
      58 00000e 0000-         .field          _save_xssp+0,24
         00000f 0400 
      59 00000f 0400          .field          0,8
      60 000010 0000          .field  0,32                    ; _save_xssp @ 0
         000011 0000 
      61              
      62 000012               .sect   ".cinit"
      63                      .align  1
      64 000012 0002          .field          2,16
      65 000013 0000-         .field          _restore_xsp+0,24
         000014 0600 
      66 000014 0600          .field          0,8
      67 000015 0000          .field  0,32                    ; _restore_xsp @ 0
         000016 0000 
      68              
      69 000017               .sect   ".cinit"
      70                      .align  1
      71 000017 0002          .field          2,16
      72 000018 0000-         .field          _restore_xssp+0,24
         000019 0800 
      73 000019 0800          .field          0,8
      74 00001a 0000          .field  0,32                    ; _restore_xssp @ 0
         00001b 0000 
      75              
      76 00001c               .sect   ".cinit"
      77                      .align  1
      78 00001c 0002          .field          2,16
      79 00001d 0000-         .field          _save_ac0+0,24
         00001e 0A00 
      80 00001e 0A00          .field          0,8
      81 00001f 0000          .field  0,32                    ; _save_ac0 @ 0
         000020 0000 
      82              
      83 000021               .sect   ".cinit"
      84                      .align  1
      85 000021 0002          .field          2,16
      86 000022 0000-         .field          _save_ac1+0,24
         000023 0C00 
      87 000023 0C00          .field          0,8
      88 000024 0000          .field  0,32                    ; _save_ac1 @ 0
         000025 0000 
      89              
      90 000026               .sect   ".cinit"
      91                      .align  1
      92 000026 0001          .field          1,16
      93 000027 0000-         .field          _context_switch_counter+0,24
         000028 0E00 
      94 000028 0E00          .field          0,8
TMS320C55x Assembler PC v4.4.1 Thu Oct 04 22:26:44 2018

Tools Copyright (c) 1996-2012 Texas Instruments Incorporated
port.asm                                                             PAGE    3

      95 000029 0000          .field  0,16                    ; _context_switch_counter @ 0
      96              
      97 00002a               .sect   ".cinit"
      98                      .align  1
      99 00002a 0002          .field          2,16
     100 00002b 0000-         .field          _Ssave_xsp+0,24
         00002c 1000 
     101 00002c 1000          .field          0,8
     102 00002d 0000          .field  0,32                    ; _Ssave_xsp @ 0
         00002e 0000 
     103              
     104 00002f               .sect   ".cinit"
     105                      .align  1
     106 00002f 0002          .field          2,16
     107 000030 0000-         .field          _Ssave_xssp+0,24
         000031 1200 
     108 000031 1200          .field          0,8
     109 000032 0000          .field  0,32                    ; _Ssave_xssp @ 0
         000033 0000 
     110              
     111 000034               .sect   ".cinit"
     112                      .align  1
     113 000034 0002          .field          2,16
     114 000035 0000-         .field          _first_save_xsp+0,24
         000036 1400 
     115 000036 1400          .field          0,8
     116 000037 0000          .field  0,32                    ; _first_save_xsp @ 0
         000038 0000 
     117              
     118 000039               .sect   ".cinit"
     119                      .align  1
     120 000039 0002          .field          2,16
     121 00003a 0000-         .field          _first_save_xssp+0,24
         00003b 1600 
     122 00003b 1600          .field          0,8
     123 00003c 0000          .field  0,32                    ; _first_save_xssp @ 0
         00003d 0000 
     124              
     125 00003e               .sect   ".cinit"
     126                      .align  1
     127 00003e 0002          .field          2,16
     128 00003f 0000-         .field          _root_xsp+0,24
         000040 1800 
     129 000040 1800          .field          0,8
     130 000041 0000          .field  0,32                    ; _root_xsp @ 0
         000042 0000 
     131              
     132 000043               .sect   ".cinit"
     133                      .align  1
     134 000043 0002          .field          2,16
     135 000044 0000-         .field          _root_xssp+0,24
         000045 1A00 
     136 000045 1A00          .field          0,8
     137 000046 0000          .field  0,32                    ; _root_xssp @ 0
         000047 0000 
TMS320C55x Assembler PC v4.4.1 Thu Oct 04 22:26:44 2018

Tools Copyright (c) 1996-2012 Texas Instruments Incorporated
port.asm                                                             PAGE    4

     138              
     139 000048               .sect   ".cinit"
     140                      .align  1
     141 000048 0001          .field          1,16
     142 000049 0000-         .field          _first_flag+0,24
         00004a 0F00 
     143 00004a 0F00          .field          0,8
     144 00004b 0000          .field  0,16                    ; _first_flag @ 0
     145              
     146 00004c               .sect   ".cinit"
     147                      .align  1
     148 00004c 0002          .field          2,16
     149 00004d 0000-         .field          _save_xar7+0,24
         00004e 1C00 
     150 00004e 1C00          .field          0,8
     151 00004f 0000          .field  0,32                    ; _save_xar7 @ 0
         000050 0000 
     152              
     153 000051               .sect   ".cinit"
     154                      .align  1
     155 000051 0002          .field          2,16
     156 000052 0000-         .field          _save_xar6+0,24
         000053 1E00 
     157 000053 1E00          .field          0,8
     158 000054 0000          .field  0,32                    ; _save_xar6 @ 0
         000055 0000 
     159              
     160 000056               .sect   ".cinit"
     161                      .align  1
     162 000056 0002          .field          2,16
     163 000057 0000-         .field          _save_xar1+0,24
         000058 2000 
     164 000058 2000          .field          0,8
     165 000059 0000          .field  0,32                    ; _save_xar1 @ 0
         00005a 0000 
     166              
     167 00005b               .sect   ".cinit"
     168                      .align  1
     169 00005b 0002          .field          2,16
     170 00005c 0000-         .field          _save_xar2+0,24
         00005d 2200 
     171 00005d 2200          .field          0,8
     172 00005e 0000          .field  0,32                    ; _save_xar2 @ 0
         00005f 0000 
     173              
     174 000060               .sect   ".cinit"
     175                      .align  1
     176 000060 0002          .field          2,16
     177 000061 0000-         .field          _save_xar3+0,24
         000062 2400 
     178 000062 2400          .field          0,8
     179 000063 0000          .field  0,32                    ; _save_xar3 @ 0
         000064 0000 
     180              
     181 000065               .sect   ".cinit"
TMS320C55x Assembler PC v4.4.1 Thu Oct 04 22:26:44 2018

Tools Copyright (c) 1996-2012 Texas Instruments Incorporated
port.asm                                                             PAGE    5

     182                      .align  1
     183 000065 0002          .field          2,16
     184 000066 0000-         .field          _save_xar4+0,24
         000067 2600 
     185 000067 2600          .field          0,8
     186 000068 0000          .field  0,32                    ; _save_xar4 @ 0
         000069 0000 
     187              
     188 00006a               .sect   ".cinit"
     189                      .align  1
     190 00006a 0001          .field          1,16
     191 00006b 0000-         .field          _save_new_pxcode+0,24
         00006c 2800 
     192 00006c 2800          .field          0,8
     193 00006d 0000          .field  0,16                    ; _save_new_pxcode @ 0
     194              
     195 00006e               .sect   ".cinit"
     196                      .align  1
     197 00006e 0001          .field          1,16
     198 00006f 0000-         .field          _save_new_pxlcode+0,24
         000070 2900 
     199 000070 2900          .field          0,8
     200 000071 0000          .field  0,16                    ; _save_new_pxlcode @ 0
     201              
     202 000072               .sect   ".cinit"
     203                      .align  1
     204 000072 0001          .field          1,16
     205 000073 0000-         .field          _tickIRQctr+0,24
         000074 2A00 
     206 000074 2A00          .field          0,8
     207 000075 0000          .field  0,16                    ; _tickIRQctr @ 0
     208              
     209 000076               .sect   ".cinit"
     210                      .align  1
     211 000076 0001          .field          1,16
     212 000077 0000-         .field          _stack_check_word+0,24
         000078 2B00 
     213 000078 2B00          .field          0,8
     214 000079 ABCD          .field  43981,16                        ; _stack_check_word @ 0
     215              
     216 00007a               .sect   ".cinit"
     217                      .align  1
     218 00007a 0001          .field          1,16
     219 00007b 0000-         .field          _DBSTAT_SAVE+0,24
         00007c 2E00 
     220 00007c 2E00          .field          0,8
     221 00007d 0000          .field  0,16                    ; _DBSTAT_SAVE @ 0
     222              
     223 00007e               .sect   ".cinit"
     224                      .align  1
     225 00007e 0001          .field          1,16
     226 00007f 0000-         .field          _DBSTAT_RESTORE+0,24
         000080 2F00 
     227 000080 2F00          .field          0,8
     228 000081 DBDB          .field  56283,16                        ; _DBSTAT_RESTORE @ 0
TMS320C55x Assembler PC v4.4.1 Thu Oct 04 22:26:44 2018

Tools Copyright (c) 1996-2012 Texas Instruments Incorporated
port.asm                                                             PAGE    6

     229              
     230 000082               .sect   ".cinit"
     231                      .align  1
     232 000082 0001          .field          1,16
     233 000083 0000-         .field          _LOOP_BITS+0,24
         000084 3000 
     234 000084 3000          .field          0,8
     235 000085 ABCD          .field  43981,16                        ; _LOOP_BITS @ 0
     236              
     237 000086               .sect   ".cinit"
     238                      .align  1
     239 000086 0001          .field          1,16
     240 000087 0000-         .field          _STATUS0_LOW+0,24
         000088 3100 
     241 000088 3100          .field          0,8
     242 000089 0AA0          .field  2720,16                 ; _STATUS0_LOW @ 0
     243              
     244 00008a               .sect   ".cinit"
     245                      .align  1
     246 00008a 0001          .field          1,16
     247 00008b 0000-         .field          _STATUS0_HIGH+0,24
         00008c 3200 
     248 00008c 3200          .field          0,8
     249 00008d 0BB0          .field  2992,16                 ; _STATUS0_HIGH @ 0
     250              
     251 00008e               .sect   ".cinit"
     252                      .align  1
     253 00008e 0001          .field          1,16
     254 00008f 0000-         .field          _STATUS1_LOW+0,24
         000090 3300 
     255 000090 3300          .field          0,8
     256 000091 1CC1          .field  7361,16                 ; _STATUS1_LOW @ 0
     257              
     258 000092               .sect   ".cinit"
     259                      .align  1
     260 000092 0001          .field          1,16
     261 000093 0000-         .field          _STATUS1_HIGH+0,24
         000094 3400 
     262 000094 3400          .field          0,8
     263 000095 1DD1          .field  7633,16                 ; _STATUS1_HIGH @ 0
     264              
     265 000096               .sect   ".cinit"
     266                      .align  1
     267 000096 0001          .field          1,16
     268 000097 0000-         .field          _STATUS2_LOW+0,24
         000098 3500 
     269 000098 3500          .field          0,8
     270 000099 2EE2          .field  12002,16                        ; _STATUS2_LOW @ 0
     271              
     272 00009a               .sect   ".cinit"
     273                      .align  1
     274 00009a 0001          .field          1,16
     275 00009b 0000-         .field          _STATUS2_HIGH+0,24
         00009c 3600 
     276 00009c 3600          .field          0,8
TMS320C55x Assembler PC v4.4.1 Thu Oct 04 22:26:44 2018

Tools Copyright (c) 1996-2012 Texas Instruments Incorporated
port.asm                                                             PAGE    7

     277 00009d 2FF2          .field  12274,16                        ; _STATUS2_HIGH @ 0
     278              
     279 00009e               .sect   ".cinit"
     280                      .align  1
     281 00009e 0001          .field          1,16
     282 00009f 0000-         .field          _PC_REG_HIGH_RESTORE+0,24
         0000a0 3700 
     283 0000a0 3700          .field          0,8
     284 0000a1 1234          .field  4660,16                 ; _PC_REG_HIGH_RESTORE @ 0
     285              
     286 0000a2               .sect   ".cinit"
     287                      .align  1
     288 0000a2 0001          .field          1,16
     289 0000a3 0000-         .field          _PC_REG_LOW_RESTORE+0,24
         0000a4 3800 
     290 0000a4 3800          .field          0,8
     291 0000a5 1234          .field  4660,16                 ; _PC_REG_LOW_RESTORE @ 0
     292              
     293 0000a6               .sect   ".cinit"
     294                      .align  1
     295 0000a6 0001          .field          1,16
     296 0000a7 0000-         .field          _PC_REG_HIGH_SAVE+0,24
         0000a8 3900 
     297 0000a8 3900          .field          0,8
     298 0000a9 1234          .field  4660,16                 ; _PC_REG_HIGH_SAVE @ 0
     299              
     300 0000aa               .sect   ".cinit"
     301                      .align  1
     302 0000aa 0001          .field          1,16
     303 0000ab 0000-         .field          _PC_REG_LOW_SAVE+0,24
         0000ac 3A00 
     304 0000ac 3A00          .field          0,8
     305 0000ad 1234          .field  4660,16                 ; _PC_REG_LOW_SAVE @ 0
     306              
     307 0000ae               .sect   ".cinit"
     308                      .align  1
     309 0000ae 0001          .field          1,16
     310 0000af 0000-         .field          _tZero+0,24
         0000b0 3B00 
     311 0000b0 3B00          .field          0,8
     312 0000b1 1234          .field  4660,16                 ; _tZero @ 0
     313              
     314 0000b2               .sect   ".cinit"
     315                      .align  1
     316 0000b2 0001          .field          1,16
     317 0000b3 0000-         .field          _tOne+0,24
         0000b4 3C00 
     318 0000b4 3C00          .field          0,8
     319 0000b5 5678          .field  22136,16                        ; _tOne @ 0
     320              
     321 0000b6               .sect   ".cinit"
     322                      .align  1
     323 0000b6 0001          .field          1,16
     324 0000b7 0000-         .field          _tTwo+0,24
         0000b8 3D00 
TMS320C55x Assembler PC v4.4.1 Thu Oct 04 22:26:44 2018

Tools Copyright (c) 1996-2012 Texas Instruments Incorporated
port.asm                                                             PAGE    8

     325 0000b8 3D00          .field          0,8
     326 0000b9 9ABC          .field  39612,16                        ; _tTwo @ 0
     327              
     328 0000ba               .sect   ".cinit"
     329                      .align  1
     330 0000ba 0001          .field          1,16
     331 0000bb 0000-         .field          _tThree+0,24
         0000bc 3E00 
     332 0000bc 3E00          .field          0,8
     333 0000bd DEF0          .field  57072,16                        ; _tThree @ 0
     334              
     335 0000be               .sect   ".cinit"
     336                      .align  1
     337 0000be 0001          .field          1,16
     338 0000bf 0000-         .field          _usCriticalNesting+0,24
         0000c0 3F00 
     339 0000c0 3F00          .field          0,8
     340 0000c1 000A          .field  10,16                   ; _usCriticalNesting @ 0
     341              
     342              
     343              $C$DW$1 .dwtag  DW_TAG_subprogram, DW_AT_name("Timer0Init")
     344                      .dwattr $C$DW$1, DW_AT_TI_symbol_name("_Timer0Init")
     345                      .dwattr $C$DW$1, DW_AT_declaration
     346                      .dwattr $C$DW$1, DW_AT_external
     347              
     348              $C$DW$2 .dwtag  DW_TAG_subprogram, DW_AT_name("StartTimer0")
     349                      .dwattr $C$DW$2, DW_AT_TI_symbol_name("_StartTimer0")
     350                      .dwattr $C$DW$2, DW_AT_declaration
     351                      .dwattr $C$DW$2, DW_AT_external
     352                      .global _portFLAGS_INT_ENABLED
     353 000000               .bss    _portFLAGS_INT_ENABLED,1,0,0
     354              $C$DW$3 .dwtag  DW_TAG_variable, DW_AT_name("portFLAGS_INT_ENABLED")
     355                      .dwattr $C$DW$3, DW_AT_TI_symbol_name("_portFLAGS_INT_ENABLED")
     356                      .dwattr $C$DW$3, DW_AT_location[DW_OP_addr _portFLAGS_INT_ENABLED]
     357                      .dwattr $C$DW$3, DW_AT_type(*$C$DW$T$19)
     358                      .dwattr $C$DW$3, DW_AT_external
     359                      .global _portFLAGS_INT_ENABLED_POPPED
     360 000001               .bss    _portFLAGS_INT_ENABLED_POPPED,1,0,0
     361              $C$DW$4 .dwtag  DW_TAG_variable, DW_AT_name("portFLAGS_INT_ENABLED_POPPED")
     362                      .dwattr $C$DW$4, DW_AT_TI_symbol_name("_portFLAGS_INT_ENABLED_POPPED")
     363                      .dwattr $C$DW$4, DW_AT_location[DW_OP_addr _portFLAGS_INT_ENABLED_POPPED]
     364                      .dwattr $C$DW$4, DW_AT_type(*$C$DW$T$19)
     365                      .dwattr $C$DW$4, DW_AT_external
     366                      .global _save_xsp
     367 000002               .bss    _save_xsp,2,0,2
     368              $C$DW$5 .dwtag  DW_TAG_variable, DW_AT_name("save_xsp")
     369                      .dwattr $C$DW$5, DW_AT_TI_symbol_name("_save_xsp")
     370                      .dwattr $C$DW$5, DW_AT_location[DW_OP_addr _save_xsp]
     371                      .dwattr $C$DW$5, DW_AT_type(*$C$DW$T$35)
     372                      .dwattr $C$DW$5, DW_AT_external
     373                      .global _save_xssp
     374 000004               .bss    _save_xssp,2,0,2
     375              $C$DW$6 .dwtag  DW_TAG_variable, DW_AT_name("save_xssp")
     376                      .dwattr $C$DW$6, DW_AT_TI_symbol_name("_save_xssp")
     377                      .dwattr $C$DW$6, DW_AT_location[DW_OP_addr _save_xssp]
TMS320C55x Assembler PC v4.4.1 Thu Oct 04 22:26:44 2018

Tools Copyright (c) 1996-2012 Texas Instruments Incorporated
port.asm                                                             PAGE    9

     378                      .dwattr $C$DW$6, DW_AT_type(*$C$DW$T$35)
     379                      .dwattr $C$DW$6, DW_AT_external
     380                      .global _restore_xsp
     381 000006               .bss    _restore_xsp,2,0,2
     382              $C$DW$7 .dwtag  DW_TAG_variable, DW_AT_name("restore_xsp")
     383                      .dwattr $C$DW$7, DW_AT_TI_symbol_name("_restore_xsp")
     384                      .dwattr $C$DW$7, DW_AT_location[DW_OP_addr _restore_xsp]
     385                      .dwattr $C$DW$7, DW_AT_type(*$C$DW$T$35)
     386                      .dwattr $C$DW$7, DW_AT_external
     387                      .global _restore_xssp
     388 000008               .bss    _restore_xssp,2,0,2
     389              $C$DW$8 .dwtag  DW_TAG_variable, DW_AT_name("restore_xssp")
     390                      .dwattr $C$DW$8, DW_AT_TI_symbol_name("_restore_xssp")
     391                      .dwattr $C$DW$8, DW_AT_location[DW_OP_addr _restore_xssp]
     392                      .dwattr $C$DW$8, DW_AT_type(*$C$DW$T$35)
     393                      .dwattr $C$DW$8, DW_AT_external
     394                      .global _save_ac0
     395 00000a               .bss    _save_ac0,2,0,2
     396              $C$DW$9 .dwtag  DW_TAG_variable, DW_AT_name("save_ac0")
     397                      .dwattr $C$DW$9, DW_AT_TI_symbol_name("_save_ac0")
     398                      .dwattr $C$DW$9, DW_AT_location[DW_OP_addr _save_ac0]
     399                      .dwattr $C$DW$9, DW_AT_type(*$C$DW$T$35)
     400                      .dwattr $C$DW$9, DW_AT_external
     401                      .global _save_ac1
     402 00000c               .bss    _save_ac1,2,0,2
     403              $C$DW$10        .dwtag  DW_TAG_variable, DW_AT_name("save_ac1")
     404                      .dwattr $C$DW$10, DW_AT_TI_symbol_name("_save_ac1")
     405                      .dwattr $C$DW$10, DW_AT_location[DW_OP_addr _save_ac1]
     406                      .dwattr $C$DW$10, DW_AT_type(*$C$DW$T$35)
     407                      .dwattr $C$DW$10, DW_AT_external
     408                      .global _context_switch_counter
     409 00000e               .bss    _context_switch_counter,1,0,0
     410              $C$DW$11        .dwtag  DW_TAG_variable, DW_AT_name("context_switch_counter")
     411                      .dwattr $C$DW$11, DW_AT_TI_symbol_name("_context_switch_counter")
     412                      .dwattr $C$DW$11, DW_AT_location[DW_OP_addr _context_switch_counter]
     413                      .dwattr $C$DW$11, DW_AT_type(*$C$DW$T$33)
     414                      .dwattr $C$DW$11, DW_AT_external
     415                      .global _Ssave_xsp
     416 000010               .bss    _Ssave_xsp,2,0,2
     417              $C$DW$12        .dwtag  DW_TAG_variable, DW_AT_name("Ssave_xsp")
     418                      .dwattr $C$DW$12, DW_AT_TI_symbol_name("_Ssave_xsp")
     419                      .dwattr $C$DW$12, DW_AT_location[DW_OP_addr _Ssave_xsp]
     420                      .dwattr $C$DW$12, DW_AT_type(*$C$DW$T$13)
     421                      .dwattr $C$DW$12, DW_AT_external
     422                      .global _Ssave_xssp
     423 000012               .bss    _Ssave_xssp,2,0,2
     424              $C$DW$13        .dwtag  DW_TAG_variable, DW_AT_name("Ssave_xssp")
     425                      .dwattr $C$DW$13, DW_AT_TI_symbol_name("_Ssave_xssp")
     426                      .dwattr $C$DW$13, DW_AT_location[DW_OP_addr _Ssave_xssp]
     427                      .dwattr $C$DW$13, DW_AT_type(*$C$DW$T$13)
     428                      .dwattr $C$DW$13, DW_AT_external
     429                      .global _first_save_xsp
     430 000014               .bss    _first_save_xsp,2,0,2
     431              $C$DW$14        .dwtag  DW_TAG_variable, DW_AT_name("first_save_xsp")
     432                      .dwattr $C$DW$14, DW_AT_TI_symbol_name("_first_save_xsp")
TMS320C55x Assembler PC v4.4.1 Thu Oct 04 22:26:44 2018

Tools Copyright (c) 1996-2012 Texas Instruments Incorporated
port.asm                                                             PAGE   10

     433                      .dwattr $C$DW$14, DW_AT_location[DW_OP_addr _first_save_xsp]
     434                      .dwattr $C$DW$14, DW_AT_type(*$C$DW$T$13)
     435                      .dwattr $C$DW$14, DW_AT_external
     436                      .global _first_save_xssp
     437 000016               .bss    _first_save_xssp,2,0,2
     438              $C$DW$15        .dwtag  DW_TAG_variable, DW_AT_name("first_save_xssp")
     439                      .dwattr $C$DW$15, DW_AT_TI_symbol_name("_first_save_xssp")
     440                      .dwattr $C$DW$15, DW_AT_location[DW_OP_addr _first_save_xssp]
     441                      .dwattr $C$DW$15, DW_AT_type(*$C$DW$T$13)
     442                      .dwattr $C$DW$15, DW_AT_external
     443                      .global _root_xsp
     444 000018               .bss    _root_xsp,2,0,2
     445              $C$DW$16        .dwtag  DW_TAG_variable, DW_AT_name("root_xsp")
     446                      .dwattr $C$DW$16, DW_AT_TI_symbol_name("_root_xsp")
     447                      .dwattr $C$DW$16, DW_AT_location[DW_OP_addr _root_xsp]
     448                      .dwattr $C$DW$16, DW_AT_type(*$C$DW$T$35)
     449                      .dwattr $C$DW$16, DW_AT_external
     450                      .global _root_xssp
     451 00001a               .bss    _root_xssp,2,0,2
     452              $C$DW$17        .dwtag  DW_TAG_variable, DW_AT_name("root_xssp")
     453                      .dwattr $C$DW$17, DW_AT_TI_symbol_name("_root_xssp")
     454                      .dwattr $C$DW$17, DW_AT_location[DW_OP_addr _root_xssp]
     455                      .dwattr $C$DW$17, DW_AT_type(*$C$DW$T$35)
     456                      .dwattr $C$DW$17, DW_AT_external
     457                      .global _first_flag
     458 00000f               .bss    _first_flag,1,0,0
     459              $C$DW$18        .dwtag  DW_TAG_variable, DW_AT_name("first_flag")
     460                      .dwattr $C$DW$18, DW_AT_TI_symbol_name("_first_flag")
     461                      .dwattr $C$DW$18, DW_AT_location[DW_OP_addr _first_flag]
     462                      .dwattr $C$DW$18, DW_AT_type(*$C$DW$T$6)
     463                      .dwattr $C$DW$18, DW_AT_external
     464                      .global _save_xar7
     465 00001c               .bss    _save_xar7,2,0,2
     466              $C$DW$19        .dwtag  DW_TAG_variable, DW_AT_name("save_xar7")
     467                      .dwattr $C$DW$19, DW_AT_TI_symbol_name("_save_xar7")
     468                      .dwattr $C$DW$19, DW_AT_location[DW_OP_addr _save_xar7]
     469                      .dwattr $C$DW$19, DW_AT_type(*$C$DW$T$13)
     470                      .dwattr $C$DW$19, DW_AT_external
     471                      .global _save_xar6
     472 00001e               .bss    _save_xar6,2,0,2
     473              $C$DW$20        .dwtag  DW_TAG_variable, DW_AT_name("save_xar6")
     474                      .dwattr $C$DW$20, DW_AT_TI_symbol_name("_save_xar6")
     475                      .dwattr $C$DW$20, DW_AT_location[DW_OP_addr _save_xar6]
     476                      .dwattr $C$DW$20, DW_AT_type(*$C$DW$T$13)
     477                      .dwattr $C$DW$20, DW_AT_external
     478                      .global _save_xar1
     479 000020               .bss    _save_xar1,2,0,2
     480              $C$DW$21        .dwtag  DW_TAG_variable, DW_AT_name("save_xar1")
     481                      .dwattr $C$DW$21, DW_AT_TI_symbol_name("_save_xar1")
     482                      .dwattr $C$DW$21, DW_AT_location[DW_OP_addr _save_xar1]
     483                      .dwattr $C$DW$21, DW_AT_type(*$C$DW$T$13)
     484                      .dwattr $C$DW$21, DW_AT_external
     485                      .global _save_xar2
     486 000022               .bss    _save_xar2,2,0,2
     487              $C$DW$22        .dwtag  DW_TAG_variable, DW_AT_name("save_xar2")
TMS320C55x Assembler PC v4.4.1 Thu Oct 04 22:26:44 2018

Tools Copyright (c) 1996-2012 Texas Instruments Incorporated
port.asm                                                             PAGE   11

     488                      .dwattr $C$DW$22, DW_AT_TI_symbol_name("_save_xar2")
     489                      .dwattr $C$DW$22, DW_AT_location[DW_OP_addr _save_xar2]
     490                      .dwattr $C$DW$22, DW_AT_type(*$C$DW$T$13)
     491                      .dwattr $C$DW$22, DW_AT_external
     492                      .global _save_xar3
     493 000024               .bss    _save_xar3,2,0,2
     494              $C$DW$23        .dwtag  DW_TAG_variable, DW_AT_name("save_xar3")
     495                      .dwattr $C$DW$23, DW_AT_TI_symbol_name("_save_xar3")
     496                      .dwattr $C$DW$23, DW_AT_location[DW_OP_addr _save_xar3]
     497                      .dwattr $C$DW$23, DW_AT_type(*$C$DW$T$13)
     498                      .dwattr $C$DW$23, DW_AT_external
     499                      .global _save_xar4
     500 000026               .bss    _save_xar4,2,0,2
     501              $C$DW$24        .dwtag  DW_TAG_variable, DW_AT_name("save_xar4")
     502                      .dwattr $C$DW$24, DW_AT_TI_symbol_name("_save_xar4")
     503                      .dwattr $C$DW$24, DW_AT_location[DW_OP_addr _save_xar4]
     504                      .dwattr $C$DW$24, DW_AT_type(*$C$DW$T$13)
     505                      .dwattr $C$DW$24, DW_AT_external
     506                      .global _save_new_pxcode
     507 000028               .bss    _save_new_pxcode,1,0,0
     508              $C$DW$25        .dwtag  DW_TAG_variable, DW_AT_name("save_new_pxcode")
     509                      .dwattr $C$DW$25, DW_AT_TI_symbol_name("_save_new_pxcode")
     510                      .dwattr $C$DW$25, DW_AT_location[DW_OP_addr _save_new_pxcode]
     511                      .dwattr $C$DW$25, DW_AT_type(*$C$DW$T$9)
     512                      .dwattr $C$DW$25, DW_AT_external
     513                      .global _save_new_pxlcode
     514 000029               .bss    _save_new_pxlcode,1,0,0
     515              $C$DW$26        .dwtag  DW_TAG_variable, DW_AT_name("save_new_pxlcode")
     516                      .dwattr $C$DW$26, DW_AT_TI_symbol_name("_save_new_pxlcode")
     517                      .dwattr $C$DW$26, DW_AT_location[DW_OP_addr _save_new_pxlcode]
     518                      .dwattr $C$DW$26, DW_AT_type(*$C$DW$T$9)
     519                      .dwattr $C$DW$26, DW_AT_external
     520                      .global _tickIRQctr
     521 00002a               .bss    _tickIRQctr,1,0,0
     522              $C$DW$27        .dwtag  DW_TAG_variable, DW_AT_name("tickIRQctr")
     523                      .dwattr $C$DW$27, DW_AT_TI_symbol_name("_tickIRQctr")
     524                      .dwattr $C$DW$27, DW_AT_location[DW_OP_addr _tickIRQctr]
     525                      .dwattr $C$DW$27, DW_AT_type(*$C$DW$T$33)
     526                      .dwattr $C$DW$27, DW_AT_external
     527                      .global _stack_check_word
     528 00002b               .bss    _stack_check_word,1,0,0
     529              $C$DW$28        .dwtag  DW_TAG_variable, DW_AT_name("stack_check_word")
     530                      .dwattr $C$DW$28, DW_AT_TI_symbol_name("_stack_check_word")
     531                      .dwattr $C$DW$28, DW_AT_location[DW_OP_addr _stack_check_word]
     532                      .dwattr $C$DW$28, DW_AT_type(*$C$DW$T$33)
     533                      .dwattr $C$DW$28, DW_AT_external
     534              $C$DW$29        .dwtag  DW_TAG_variable, DW_AT_name("stackStruct")
     535                      .dwattr $C$DW$29, DW_AT_TI_symbol_name("_stackStruct")
     536                      .dwattr $C$DW$29, DW_AT_type(*$C$DW$T$36)
     537                      .dwattr $C$DW$29, DW_AT_declaration
     538                      .dwattr $C$DW$29, DW_AT_external
     539                      .global _xCompareTCB
     540 00002c               .bss    _xCompareTCB,2,0,2
     541              $C$DW$30        .dwtag  DW_TAG_variable, DW_AT_name("xCompareTCB")
     542                      .dwattr $C$DW$30, DW_AT_TI_symbol_name("_xCompareTCB")
TMS320C55x Assembler PC v4.4.1 Thu Oct 04 22:26:44 2018

Tools Copyright (c) 1996-2012 Texas Instruments Incorporated
port.asm                                                             PAGE   12

     543                      .dwattr $C$DW$30, DW_AT_location[DW_OP_addr _xCompareTCB]
     544                      .dwattr $C$DW$30, DW_AT_type(*$C$DW$T$31)
     545                      .dwattr $C$DW$30, DW_AT_external
     546                      .global _DBSTAT_SAVE
     547 00002e               .bss    _DBSTAT_SAVE,1,0,0
     548              $C$DW$31        .dwtag  DW_TAG_variable, DW_AT_name("DBSTAT_SAVE")
     549                      .dwattr $C$DW$31, DW_AT_TI_symbol_name("_DBSTAT_SAVE")
     550                      .dwattr $C$DW$31, DW_AT_location[DW_OP_addr _DBSTAT_SAVE]
     551                      .dwattr $C$DW$31, DW_AT_type(*$C$DW$T$33)
     552                      .dwattr $C$DW$31, DW_AT_external
     553                      .global _DBSTAT_RESTORE
     554 00002f               .bss    _DBSTAT_RESTORE,1,0,0
     555              $C$DW$32        .dwtag  DW_TAG_variable, DW_AT_name("DBSTAT_RESTORE")
     556                      .dwattr $C$DW$32, DW_AT_TI_symbol_name("_DBSTAT_RESTORE")
     557                      .dwattr $C$DW$32, DW_AT_location[DW_OP_addr _DBSTAT_RESTORE]
     558                      .dwattr $C$DW$32, DW_AT_type(*$C$DW$T$33)
     559                      .dwattr $C$DW$32, DW_AT_external
     560                      .global _LOOP_BITS
     561 000030               .bss    _LOOP_BITS,1,0,0
     562              $C$DW$33        .dwtag  DW_TAG_variable, DW_AT_name("LOOP_BITS")
     563                      .dwattr $C$DW$33, DW_AT_TI_symbol_name("_LOOP_BITS")
     564                      .dwattr $C$DW$33, DW_AT_location[DW_OP_addr _LOOP_BITS]
     565                      .dwattr $C$DW$33, DW_AT_type(*$C$DW$T$33)
     566                      .dwattr $C$DW$33, DW_AT_external
     567                      .global _STATUS0_LOW
     568 000031               .bss    _STATUS0_LOW,1,0,0
     569              $C$DW$34        .dwtag  DW_TAG_variable, DW_AT_name("STATUS0_LOW")
     570                      .dwattr $C$DW$34, DW_AT_TI_symbol_name("_STATUS0_LOW")
     571                      .dwattr $C$DW$34, DW_AT_location[DW_OP_addr _STATUS0_LOW]
     572                      .dwattr $C$DW$34, DW_AT_type(*$C$DW$T$11)
     573                      .dwattr $C$DW$34, DW_AT_external
     574                      .global _STATUS0_HIGH
     575 000032               .bss    _STATUS0_HIGH,1,0,0
     576              $C$DW$35        .dwtag  DW_TAG_variable, DW_AT_name("STATUS0_HIGH")
     577                      .dwattr $C$DW$35, DW_AT_TI_symbol_name("_STATUS0_HIGH")
     578                      .dwattr $C$DW$35, DW_AT_location[DW_OP_addr _STATUS0_HIGH]
     579                      .dwattr $C$DW$35, DW_AT_type(*$C$DW$T$11)
     580                      .dwattr $C$DW$35, DW_AT_external
     581                      .global _STATUS1_LOW
     582 000033               .bss    _STATUS1_LOW,1,0,0
     583              $C$DW$36        .dwtag  DW_TAG_variable, DW_AT_name("STATUS1_LOW")
     584                      .dwattr $C$DW$36, DW_AT_TI_symbol_name("_STATUS1_LOW")
     585                      .dwattr $C$DW$36, DW_AT_location[DW_OP_addr _STATUS1_LOW]
     586                      .dwattr $C$DW$36, DW_AT_type(*$C$DW$T$11)
     587                      .dwattr $C$DW$36, DW_AT_external
     588                      .global _STATUS1_HIGH
     589 000034               .bss    _STATUS1_HIGH,1,0,0
     590              $C$DW$37        .dwtag  DW_TAG_variable, DW_AT_name("STATUS1_HIGH")
     591                      .dwattr $C$DW$37, DW_AT_TI_symbol_name("_STATUS1_HIGH")
     592                      .dwattr $C$DW$37, DW_AT_location[DW_OP_addr _STATUS1_HIGH]
     593                      .dwattr $C$DW$37, DW_AT_type(*$C$DW$T$11)
     594                      .dwattr $C$DW$37, DW_AT_external
     595                      .global _STATUS2_LOW
     596 000035               .bss    _STATUS2_LOW,1,0,0
     597              $C$DW$38        .dwtag  DW_TAG_variable, DW_AT_name("STATUS2_LOW")
TMS320C55x Assembler PC v4.4.1 Thu Oct 04 22:26:44 2018

Tools Copyright (c) 1996-2012 Texas Instruments Incorporated
port.asm                                                             PAGE   13

     598                      .dwattr $C$DW$38, DW_AT_TI_symbol_name("_STATUS2_LOW")
     599                      .dwattr $C$DW$38, DW_AT_location[DW_OP_addr _STATUS2_LOW]
     600                      .dwattr $C$DW$38, DW_AT_type(*$C$DW$T$11)
     601                      .dwattr $C$DW$38, DW_AT_external
     602                      .global _STATUS2_HIGH
     603 000036               .bss    _STATUS2_HIGH,1,0,0
     604              $C$DW$39        .dwtag  DW_TAG_variable, DW_AT_name("STATUS2_HIGH")
     605                      .dwattr $C$DW$39, DW_AT_TI_symbol_name("_STATUS2_HIGH")
     606                      .dwattr $C$DW$39, DW_AT_location[DW_OP_addr _STATUS2_HIGH]
     607                      .dwattr $C$DW$39, DW_AT_type(*$C$DW$T$11)
     608                      .dwattr $C$DW$39, DW_AT_external
     609                      .global _PC_REG_HIGH_RESTORE
     610 000037               .bss    _PC_REG_HIGH_RESTORE,1,0,0
     611              $C$DW$40        .dwtag  DW_TAG_variable, DW_AT_name("PC_REG_HIGH_RESTORE")
     612                      .dwattr $C$DW$40, DW_AT_TI_symbol_name("_PC_REG_HIGH_RESTORE")
     613                      .dwattr $C$DW$40, DW_AT_location[DW_OP_addr _PC_REG_HIGH_RESTORE]
     614                      .dwattr $C$DW$40, DW_AT_type(*$C$DW$T$33)
     615                      .dwattr $C$DW$40, DW_AT_external
     616                      .global _PC_REG_LOW_RESTORE
     617 000038               .bss    _PC_REG_LOW_RESTORE,1,0,0
     618              $C$DW$41        .dwtag  DW_TAG_variable, DW_AT_name("PC_REG_LOW_RESTORE")
     619                      .dwattr $C$DW$41, DW_AT_TI_symbol_name("_PC_REG_LOW_RESTORE")
     620                      .dwattr $C$DW$41, DW_AT_location[DW_OP_addr _PC_REG_LOW_RESTORE]
     621                      .dwattr $C$DW$41, DW_AT_type(*$C$DW$T$33)
     622                      .dwattr $C$DW$41, DW_AT_external
     623                      .global _PC_REG_HIGH_SAVE
     624 000039               .bss    _PC_REG_HIGH_SAVE,1,0,0
     625              $C$DW$42        .dwtag  DW_TAG_variable, DW_AT_name("PC_REG_HIGH_SAVE")
     626                      .dwattr $C$DW$42, DW_AT_TI_symbol_name("_PC_REG_HIGH_SAVE")
     627                      .dwattr $C$DW$42, DW_AT_location[DW_OP_addr _PC_REG_HIGH_SAVE]
     628                      .dwattr $C$DW$42, DW_AT_type(*$C$DW$T$33)
     629                      .dwattr $C$DW$42, DW_AT_external
     630                      .global _PC_REG_LOW_SAVE
     631 00003a               .bss    _PC_REG_LOW_SAVE,1,0,0
     632              $C$DW$43        .dwtag  DW_TAG_variable, DW_AT_name("PC_REG_LOW_SAVE")
     633                      .dwattr $C$DW$43, DW_AT_TI_symbol_name("_PC_REG_LOW_SAVE")
     634                      .dwattr $C$DW$43, DW_AT_location[DW_OP_addr _PC_REG_LOW_SAVE]
     635                      .dwattr $C$DW$43, DW_AT_type(*$C$DW$T$33)
     636                      .dwattr $C$DW$43, DW_AT_external
     637                      .global _tZero
     638 00003b               .bss    _tZero,1,0,0
     639              $C$DW$44        .dwtag  DW_TAG_variable, DW_AT_name("tZero")
     640                      .dwattr $C$DW$44, DW_AT_TI_symbol_name("_tZero")
     641                      .dwattr $C$DW$44, DW_AT_location[DW_OP_addr _tZero]
     642                      .dwattr $C$DW$44, DW_AT_type(*$C$DW$T$11)
     643                      .dwattr $C$DW$44, DW_AT_external
     644                      .global _tOne
     645 00003c               .bss    _tOne,1,0,0
     646              $C$DW$45        .dwtag  DW_TAG_variable, DW_AT_name("tOne")
     647                      .dwattr $C$DW$45, DW_AT_TI_symbol_name("_tOne")
     648                      .dwattr $C$DW$45, DW_AT_location[DW_OP_addr _tOne]
     649                      .dwattr $C$DW$45, DW_AT_type(*$C$DW$T$11)
     650                      .dwattr $C$DW$45, DW_AT_external
     651                      .global _tTwo
     652 00003d               .bss    _tTwo,1,0,0
TMS320C55x Assembler PC v4.4.1 Thu Oct 04 22:26:44 2018

Tools Copyright (c) 1996-2012 Texas Instruments Incorporated
port.asm                                                             PAGE   14

     653              $C$DW$46        .dwtag  DW_TAG_variable, DW_AT_name("tTwo")
     654                      .dwattr $C$DW$46, DW_AT_TI_symbol_name("_tTwo")
     655                      .dwattr $C$DW$46, DW_AT_location[DW_OP_addr _tTwo]
     656                      .dwattr $C$DW$46, DW_AT_type(*$C$DW$T$11)
     657                      .dwattr $C$DW$46, DW_AT_external
     658                      .global _tThree
     659 00003e               .bss    _tThree,1,0,0
     660              $C$DW$47        .dwtag  DW_TAG_variable, DW_AT_name("tThree")
     661                      .dwattr $C$DW$47, DW_AT_TI_symbol_name("_tThree")
     662                      .dwattr $C$DW$47, DW_AT_location[DW_OP_addr _tThree]
     663                      .dwattr $C$DW$47, DW_AT_type(*$C$DW$T$11)
     664                      .dwattr $C$DW$47, DW_AT_external
     665                      .global _usCriticalNesting
     666 00003f               .bss    _usCriticalNesting,1,0,0
     667              $C$DW$48        .dwtag  DW_TAG_variable, DW_AT_name("usCriticalNesting")
     668                      .dwattr $C$DW$48, DW_AT_TI_symbol_name("_usCriticalNesting")
     669                      .dwattr $C$DW$48, DW_AT_location[DW_OP_addr _usCriticalNesting]
     670                      .dwattr $C$DW$48, DW_AT_type(*$C$DW$T$32)
     671                      .dwattr $C$DW$48, DW_AT_external
     672              ;       F:\t\cc5p5\ccsv5\tools\compiler\c5500_4.4.1\bin\acp55.exe -@f:\\AppData\\Local\\Temp\\1646012 
     673 000000               .sect   ".text"
     674               .align 4
     675 000000               .sect   ".text"
     676                      .align 4
     677                      .global _pxPortInitialiseStack
     678              
     679              $C$DW$49        .dwtag  DW_TAG_subprogram, DW_AT_name("pxPortInitialiseStack")
     680                      .dwattr $C$DW$49, DW_AT_low_pc(_pxPortInitialiseStack)
     681                      .dwattr $C$DW$49, DW_AT_high_pc(0x00)
     682                      .dwattr $C$DW$49, DW_AT_TI_symbol_name("_pxPortInitialiseStack")
     683                      .dwattr $C$DW$49, DW_AT_external
     684                      .dwattr $C$DW$49, DW_AT_TI_begin_file("../FreeRTOS/Source/portable/CCS/c55x/port.c")
     685                      .dwattr $C$DW$49, DW_AT_TI_begin_line(0xeb)
     686                      .dwattr $C$DW$49, DW_AT_TI_begin_column(0x06)
     687                      .dwattr $C$DW$49, DW_AT_TI_max_frame_size(0x0a)
     688                      .dwpsn  file "../FreeRTOS/Source/portable/CCS/c55x/port.c",line 236,column 1,is_stmt,address _pxPortI
     689              
     690                      .dwfde $C$DW$CIE, _pxPortInitialiseStack
     691              $C$DW$50        .dwtag  DW_TAG_formal_parameter, DW_AT_name("pxTopOfStack")
     692                      .dwattr $C$DW$50, DW_AT_TI_symbol_name("_pxTopOfStack")
     693                      .dwattr $C$DW$50, DW_AT_type(*$C$DW$T$20)
     694                      .dwattr $C$DW$50, DW_AT_location[DW_OP_reg17]
     695              $C$DW$51        .dwtag  DW_TAG_formal_parameter, DW_AT_name("pxTopOfSysStack")
     696                      .dwattr $C$DW$51, DW_AT_TI_symbol_name("_pxTopOfSysStack")
     697                      .dwattr $C$DW$51, DW_AT_type(*$C$DW$T$20)
     698                      .dwattr $C$DW$51, DW_AT_location[DW_OP_reg19]
     699              $C$DW$52        .dwtag  DW_TAG_formal_parameter, DW_AT_name("pxCode")
     700                      .dwattr $C$DW$52, DW_AT_TI_symbol_name("_pxCode")
     701                      .dwattr $C$DW$52, DW_AT_type(*$C$DW$T$26)
     702                      .dwattr $C$DW$52, DW_AT_location[DW_OP_reg1]
     703              $C$DW$53        .dwtag  DW_TAG_formal_parameter, DW_AT_name("pvParameters")
     704                      .dwattr $C$DW$53, DW_AT_TI_symbol_name("_pvParameters")
     705                      .dwattr $C$DW$53, DW_AT_type(*$C$DW$T$3)
     706                      .dwattr $C$DW$53, DW_AT_location[DW_OP_reg21]
     707              ;*******************************************************************************
TMS320C55x Assembler PC v4.4.1 Thu Oct 04 22:26:44 2018

Tools Copyright (c) 1996-2012 Texas Instruments Incorporated
port.asm                                                             PAGE   15

     708              ;* FUNCTION NAME: pxPortInitialiseStack                                        *
     709              ;*                                                                             *
     710              ;*   Function Uses Regs : AC0,AC0,AR0,XAR0,AR1,XAR1,AR2,XAR2,AR3,XAR3,SP,M40,  *
     711              ;*                        SATA,SATD,RDM,FRCT,SMUL                              *
     712              ;*   Stack Frame        : Compact (No Frame Pointer, w/ debug)                 *
     713              ;*   Total Frame Size   : 10 words                                             *
     714              ;*                        (2 return address/alignment)                         *
     715              ;*                        (8 local values)                                     *
     716              ;*   Min System Stack   : 1 word                                               *
     717              ;*******************************************************************************
     718 000000       _pxPortInitialiseStack:
     719                      .dwcfi  cfa_offset, 1
     720                      .dwcfi  save_reg_to_mem, 91, -1
     721 000000 4EF7          AADD #-9, SP
     722                      .dwcfi  cfa_offset, 10
     723              $C$DW$54        .dwtag  DW_TAG_variable, DW_AT_name("pxTopOfStack")
     724                      .dwattr $C$DW$54, DW_AT_TI_symbol_name("_pxTopOfStack")
     725                      .dwattr $C$DW$54, DW_AT_type(*$C$DW$T$20)
     726                      .dwattr $C$DW$54, DW_AT_location[DW_OP_bregx 0x24 0]
     727              $C$DW$55        .dwtag  DW_TAG_variable, DW_AT_name("pxTopOfSysStack")
     728                      .dwattr $C$DW$55, DW_AT_TI_symbol_name("_pxTopOfSysStack")
     729                      .dwattr $C$DW$55, DW_AT_type(*$C$DW$T$20)
     730                      .dwattr $C$DW$55, DW_AT_location[DW_OP_bregx 0x24 2]
     731              $C$DW$56        .dwtag  DW_TAG_variable, DW_AT_name("pxCode")
     732                      .dwattr $C$DW$56, DW_AT_TI_symbol_name("_pxCode")
     733                      .dwattr $C$DW$56, DW_AT_type(*$C$DW$T$26)
     734                      .dwattr $C$DW$56, DW_AT_location[DW_OP_bregx 0x24 4]
     735              $C$DW$57        .dwtag  DW_TAG_variable, DW_AT_name("pvParameters")
     736                      .dwattr $C$DW$57, DW_AT_TI_symbol_name("_pvParameters")
     737                      .dwattr $C$DW$57, DW_AT_type(*$C$DW$T$3)
     738                      .dwattr $C$DW$57, DW_AT_location[DW_OP_bregx 0x24 6]
     739 000002 EB0C          MOV XAR2, dbl(*SP(#6))
         000004 A5   
     740 000005 EB08          MOV AC0, dbl(*SP(#4)) ; |236| 
         000007 08   
     741 000008 EB04          MOV XAR1, dbl(*SP(#2))
         00000a 95   
     742 00000b EB00          MOV XAR0, dbl(*SP(#0))
         00000d 85   
     743                      .dwpsn  file "../FreeRTOS/Source/portable/CCS/c55x/port.c",line 317,column 2,is_stmt
     744 00000e ED00          MOV dbl(*SP(#0)), XAR3
         000010 BF   
     745 000011 E661          MOV #0, *AR3 ; |317| 
         000013 00   
     746                      .dwpsn  file "../FreeRTOS/Source/portable/CCS/c55x/port.c",line 318,column 2,is_stmt
     747 000014 ED00          MOV dbl(*SP(#0)), XAR3
         000016 BF   
     748 000017 B463          AMAR *AR3+
     749 000019 EB00          MOV XAR3, dbl(*SP(#0))
         00001b B5   
     750                      .dwpsn  file "../FreeRTOS/Source/portable/CCS/c55x/port.c",line 319,column 2,is_stmt
     751 00001c FB61          MOV #4369, *AR3 ; |319| 
         00001e 1111 
     752                      .dwpsn  file "../FreeRTOS/Source/portable/CCS/c55x/port.c",line 320,column 2,is_stmt
     753 000020 ED00          MOV dbl(*SP(#0)), XAR3
TMS320C55x Assembler PC v4.4.1 Thu Oct 04 22:26:44 2018

Tools Copyright (c) 1996-2012 Texas Instruments Incorporated
port.asm                                                             PAGE   16

         000022 BF   
     754 000023 B463          AMAR *AR3+
     755 000025 EB00          MOV XAR3, dbl(*SP(#0))
         000027 B5   
     756                      .dwpsn  file "../FreeRTOS/Source/portable/CCS/c55x/port.c",line 321,column 2,is_stmt
     757 000028 FB61          MOV #8738, *AR3 ; |321| 
         00002a 2222 
     758                      .dwpsn  file "../FreeRTOS/Source/portable/CCS/c55x/port.c",line 322,column 2,is_stmt
     759 00002c ED00          MOV dbl(*SP(#0)), XAR3
         00002e BF   
     760 00002f B463          AMAR *AR3+
     761 000031 EB00          MOV XAR3, dbl(*SP(#0))
         000033 B5   
     762                      .dwpsn  file "../FreeRTOS/Source/portable/CCS/c55x/port.c",line 323,column 2,is_stmt
     763 000034 FB61          MOV #13107, *AR3 ; |323| 
         000036 3333 
     764                      .dwpsn  file "../FreeRTOS/Source/portable/CCS/c55x/port.c",line 324,column 2,is_stmt
     765 000038 ED00          MOV dbl(*SP(#0)), XAR3
         00003a BF   
     766 00003b B463          AMAR *AR3+
     767 00003d EB00          MOV XAR3, dbl(*SP(#0))
         00003f B5   
     768                      .dwpsn  file "../FreeRTOS/Source/portable/CCS/c55x/port.c",line 326,column 2,is_stmt
     769 000040 E661          MOV #0, *AR3 ; |326| 
         000042 00   
     770                      .dwpsn  file "../FreeRTOS/Source/portable/CCS/c55x/port.c",line 327,column 3,is_stmt
     771 000043 ED00          MOV dbl(*SP(#0)), XAR3
         000045 BF   
     772 000046 B463          AMAR *AR3+
     773 000048 EB00          MOV XAR3, dbl(*SP(#0))
         00004a B5   
     774                      .dwpsn  file "../FreeRTOS/Source/portable/CCS/c55x/port.c",line 328,column 2,is_stmt
     775 00004b E661          MOV #0, *AR3 ; |328| 
         00004d 00   
     776                      .dwpsn  file "../FreeRTOS/Source/portable/CCS/c55x/port.c",line 329,column 3,is_stmt
     777 00004e ED00          MOV dbl(*SP(#0)), XAR3
         000050 BF   
     778 000051 B463          AMAR *AR3+
     779 000053 EB00          MOV XAR3, dbl(*SP(#0))
         000055 B5   
     780                      .dwpsn  file "../FreeRTOS/Source/portable/CCS/c55x/port.c",line 330,column 2,is_stmt
     781 000056 E661          MOV #0, *AR3 ; |330| 
         000058 00   
     782                      .dwpsn  file "../FreeRTOS/Source/portable/CCS/c55x/port.c",line 331,column 2,is_stmt
     783 000059 ED00          MOV dbl(*SP(#0)), XAR3
         00005b BF   
     784 00005c B463          AMAR *AR3+
     785 00005e EB00          MOV XAR3, dbl(*SP(#0))
         000060 B5   
     786                      .dwpsn  file "../FreeRTOS/Source/portable/CCS/c55x/port.c",line 332,column 2,is_stmt
     787 000061 E661          MOV #0, *AR3 ; |332| 
         000063 00   
     788                      .dwpsn  file "../FreeRTOS/Source/portable/CCS/c55x/port.c",line 333,column 2,is_stmt
     789 000064 ED00          MOV dbl(*SP(#0)), XAR3
         000066 BF   
TMS320C55x Assembler PC v4.4.1 Thu Oct 04 22:26:44 2018

Tools Copyright (c) 1996-2012 Texas Instruments Incorporated
port.asm                                                             PAGE   17

     790 000067 B463          AMAR *AR3+
     791 000069 EB00          MOV XAR3, dbl(*SP(#0))
         00006b B5   
     792                      .dwpsn  file "../FreeRTOS/Source/portable/CCS/c55x/port.c",line 334,column 2,is_stmt
     793 00006c FB61          MOV #4369, *AR3 ; |334| 
         00006e 1111 
     794                      .dwpsn  file "../FreeRTOS/Source/portable/CCS/c55x/port.c",line 335,column 2,is_stmt
     795 000070 ED00          MOV dbl(*SP(#0)), XAR3
         000072 BF   
     796 000073 B463          AMAR *AR3+
     797 000075 EB00          MOV XAR3, dbl(*SP(#0))
         000077 B5   
     798                      .dwpsn  file "../FreeRTOS/Source/portable/CCS/c55x/port.c",line 336,column 2,is_stmt
     799 000078 FB61          MOV #4369, *AR3 ; |336| 
         00007a 1111 
     800                      .dwpsn  file "../FreeRTOS/Source/portable/CCS/c55x/port.c",line 337,column 2,is_stmt
     801 00007c ED00          MOV dbl(*SP(#0)), XAR3
         00007e BF   
     802 00007f B463          AMAR *AR3+
     803 000081 EB00          MOV XAR3, dbl(*SP(#0))
         000083 B5   
     804                      .dwpsn  file "../FreeRTOS/Source/portable/CCS/c55x/port.c",line 338,column 2,is_stmt
     805 000084 FB61          MOV #8738, *AR3 ; |338| 
         000086 2222 
     806                      .dwpsn  file "../FreeRTOS/Source/portable/CCS/c55x/port.c",line 339,column 2,is_stmt
     807 000088 ED00          MOV dbl(*SP(#0)), XAR3
         00008a BF   
     808 00008b B463          AMAR *AR3+
     809 00008d EB00          MOV XAR3, dbl(*SP(#0))
         00008f B5   
     810                      .dwpsn  file "../FreeRTOS/Source/portable/CCS/c55x/port.c",line 340,column 2,is_stmt
     811 000090 FB61          MOV #8738, *AR3 ; |340| 
         000092 2222 
     812                      .dwpsn  file "../FreeRTOS/Source/portable/CCS/c55x/port.c",line 341,column 2,is_stmt
     813 000094 ED00          MOV dbl(*SP(#0)), XAR3
         000096 BF   
     814 000097 B463          AMAR *AR3+
     815 000099 EB00          MOV XAR3, dbl(*SP(#0))
         00009b B5   
     816                      .dwpsn  file "../FreeRTOS/Source/portable/CCS/c55x/port.c",line 342,column 2,is_stmt
     817 00009c FB61          MOV #13107, *AR3 ; |342| 
         00009e 3333 
     818                      .dwpsn  file "../FreeRTOS/Source/portable/CCS/c55x/port.c",line 343,column 2,is_stmt
     819 0000a0 ED00          MOV dbl(*SP(#0)), XAR3
         0000a2 BF   
     820 0000a3 B463          AMAR *AR3+
     821 0000a5 EB00          MOV XAR3, dbl(*SP(#0))
         0000a7 B5   
     822                      .dwpsn  file "../FreeRTOS/Source/portable/CCS/c55x/port.c",line 344,column 2,is_stmt
     823 0000a8 FB61          MOV #13107, *AR3 ; |344| 
         0000aa 3333 
     824                      .dwpsn  file "../FreeRTOS/Source/portable/CCS/c55x/port.c",line 345,column 2,is_stmt
     825 0000ac ED00          MOV dbl(*SP(#0)), XAR3
         0000ae BF   
     826 0000af B463          AMAR *AR3+
TMS320C55x Assembler PC v4.4.1 Thu Oct 04 22:26:44 2018

Tools Copyright (c) 1996-2012 Texas Instruments Incorporated
port.asm                                                             PAGE   18

     827 0000b1 EB00          MOV XAR3, dbl(*SP(#0))
         0000b3 B5   
     828                      .dwpsn  file "../FreeRTOS/Source/portable/CCS/c55x/port.c",line 350,column 2,is_stmt
     829 0000b4 ED0C          MOV dbl(*SP(#6)), XAR3
         0000b6 BF   
     830 0000b7 90B0          MOV XAR3, AC0
     831 0000b9 ED00          MOV dbl(*SP(#0)), XAR3
         0000bb BF   
     832 0000bc BC61          MOV HI(AC0), *AR3 ; |350| 
     833                      .dwpsn  file "../FreeRTOS/Source/portable/CCS/c55x/port.c",line 351,column 2,is_stmt
     834 0000be ED00          MOV dbl(*SP(#0)), XAR3
         0000c0 BF   
     835 0000c1 B463          AMAR *AR3+
     836 0000c3 EB00          MOV XAR3, dbl(*SP(#0))
         0000c5 B5   
     837                      .dwpsn  file "../FreeRTOS/Source/portable/CCS/c55x/port.c",line 352,column 2,is_stmt
     838 0000c6 ED0C          MOV dbl(*SP(#6)), XAR2
         0000c8 AF   
     839 0000c9 CA61          MOV AR2, *AR3 ; |352| 
     840                      .dwpsn  file "../FreeRTOS/Source/portable/CCS/c55x/port.c",line 354,column 2,is_stmt
     841 0000cb ED00          MOV dbl(*SP(#0)), XAR3
         0000cd BF   
     842 0000ce B463          AMAR *AR3+
     843 0000d0 EB00          MOV XAR3, dbl(*SP(#0))
         0000d2 B5   
     844                      .dwpsn  file "../FreeRTOS/Source/portable/CCS/c55x/port.c",line 355,column 2,is_stmt
     845 0000d3 FB61          MOV #21845, *AR3 ; |355| 
         0000d5 5555 
     846                      .dwpsn  file "../FreeRTOS/Source/portable/CCS/c55x/port.c",line 356,column 2,is_stmt
     847 0000d7 ED00          MOV dbl(*SP(#0)), XAR3
         0000d9 BF   
     848 0000da B463          AMAR *AR3+
     849 0000dc EB00          MOV XAR3, dbl(*SP(#0))
         0000de B5   
     850                      .dwpsn  file "../FreeRTOS/Source/portable/CCS/c55x/port.c",line 357,column 2,is_stmt
     851 0000df FB61          MOV #21845, *AR3 ; |357| 
         0000e1 5555 
     852                      .dwpsn  file "../FreeRTOS/Source/portable/CCS/c55x/port.c",line 358,column 2,is_stmt
     853 0000e3 ED00          MOV dbl(*SP(#0)), XAR3
         0000e5 BF   
     854 0000e6 B463          AMAR *AR3+
     855 0000e8 EB00          MOV XAR3, dbl(*SP(#0))
         0000ea B5   
     856                      .dwpsn  file "../FreeRTOS/Source/portable/CCS/c55x/port.c",line 359,column 2,is_stmt
     857 0000eb FB61          MOV #26214, *AR3 ; |359| 
         0000ed 6666 
     858                      .dwpsn  file "../FreeRTOS/Source/portable/CCS/c55x/port.c",line 360,column 2,is_stmt
     859 0000ef ED00          MOV dbl(*SP(#0)), XAR3
         0000f1 BF   
     860 0000f2 B463          AMAR *AR3+
     861 0000f4 EB00          MOV XAR3, dbl(*SP(#0))
         0000f6 B5   
     862                      .dwpsn  file "../FreeRTOS/Source/portable/CCS/c55x/port.c",line 361,column 2,is_stmt
     863 0000f7 FB61          MOV #26214, *AR3 ; |361| 
         0000f9 6666 
TMS320C55x Assembler PC v4.4.1 Thu Oct 04 22:26:44 2018

Tools Copyright (c) 1996-2012 Texas Instruments Incorporated
port.asm                                                             PAGE   19

     864                      .dwpsn  file "../FreeRTOS/Source/portable/CCS/c55x/port.c",line 362,column 2,is_stmt
     865 0000fb ED00          MOV dbl(*SP(#0)), XAR3
         0000fd BF   
     866 0000fe B463          AMAR *AR3+
     867 000100 EB00          MOV XAR3, dbl(*SP(#0))
         000102 B5   
     868                      .dwpsn  file "../FreeRTOS/Source/portable/CCS/c55x/port.c",line 363,column 2,is_stmt
     869 000103 FB61          MOV #30583, *AR3 ; |363| 
         000105 7777 
     870                      .dwpsn  file "../FreeRTOS/Source/portable/CCS/c55x/port.c",line 364,column 2,is_stmt
     871 000107 ED00          MOV dbl(*SP(#0)), XAR3
         000109 BF   
     872 00010a B463          AMAR *AR3+
     873 00010c EB00          MOV XAR3, dbl(*SP(#0))
         00010e B5   
     874                      .dwpsn  file "../FreeRTOS/Source/portable/CCS/c55x/port.c",line 365,column 2,is_stmt
     875 00010f FB61          MOV #30583, *AR3 ; |365| 
         000111 7777 
     876                      .dwpsn  file "../FreeRTOS/Source/portable/CCS/c55x/port.c",line 366,column 2,is_stmt
     877 000113 ED00          MOV dbl(*SP(#0)), XAR3
         000115 BF   
     878 000116 B463          AMAR *AR3+
     879 000118 EB00          MOV XAR3, dbl(*SP(#0))
         00011a B5   
     880                      .dwpsn  file "../FreeRTOS/Source/portable/CCS/c55x/port.c",line 371,column 2,is_stmt
     881 00011b DF31          MOV uns(*(#_portFLAGS_INT_ENABLED)), AC0 ; |371| 
         00011d 0500 
         00011f 0000-
     882 000121 BC61          MOV HI(AC0), *AR3 ; |371| 
     883                      .dwpsn  file "../FreeRTOS/Source/portable/CCS/c55x/port.c",line 372,column 2,is_stmt
     884 000123 ED00          MOV dbl(*SP(#0)), XAR3
         000125 BF   
     885 000126 B463          AMAR *AR3+
     886 000128 EB00          MOV XAR3, dbl(*SP(#0))
         00012a B5   
     887                      .dwpsn  file "../FreeRTOS/Source/portable/CCS/c55x/port.c",line 373,column 2,is_stmt
     888 00012b A931          MOV *(#_portFLAGS_INT_ENABLED), AR1 ; |373| 
         00012d 0000 
         00012f 00-  
     889 000130 C961          MOV AR1, *AR3 ; |373| 
     890                      .dwpsn  file "../FreeRTOS/Source/portable/CCS/c55x/port.c",line 374,column 2,is_stmt
     891 000132 ED00          MOV dbl(*SP(#0)), XAR3
         000134 BF   
     892 000135 B463          AMAR *AR3+
     893 000137 EB00          MOV XAR3, dbl(*SP(#0))
         000139 B5   
     894                      .dwpsn  file "../FreeRTOS/Source/portable/CCS/c55x/port.c",line 375,column 2,is_stmt
     895 00013a E661          MOV #0, *AR3 ; |375| 
         00013c 00   
     896                      .dwpsn  file "../FreeRTOS/Source/portable/CCS/c55x/port.c",line 376,column 2,is_stmt
     897 00013d ED00          MOV dbl(*SP(#0)), XAR3
         00013f BF   
     898 000140 B463          AMAR *AR3+
     899 000142 EB00          MOV XAR3, dbl(*SP(#0))
         000144 B5   
TMS320C55x Assembler PC v4.4.1 Thu Oct 04 22:26:44 2018

Tools Copyright (c) 1996-2012 Texas Instruments Incorporated
port.asm                                                             PAGE   20

     900                      .dwpsn  file "../FreeRTOS/Source/portable/CCS/c55x/port.c",line 377,column 2,is_stmt
     901 000145 E661          MOV #0, *AR3 ; |377| 
         000147 00   
     902                      .dwpsn  file "../FreeRTOS/Source/portable/CCS/c55x/port.c",line 378,column 2,is_stmt
     903 000148 ED00          MOV dbl(*SP(#0)), XAR3
         00014a BF   
     904 00014b B463          AMAR *AR3+
     905 00014d EB00          MOV XAR3, dbl(*SP(#0))
         00014f B5   
     906                      .dwpsn  file "../FreeRTOS/Source/portable/CCS/c55x/port.c",line 411,column 2,is_stmt
     907 000150 ED04          MOV dbl(*SP(#2)), XAR3
         000152 BF   
     908 000153 ED08          MOV dbl(*SP(#4)), AC0 ; |411| 
         000155 08   
     909 000156 BC61          MOV HI(AC0), *AR3 ; |411| 
     910                      .dwpsn  file "../FreeRTOS/Source/portable/CCS/c55x/port.c",line 413,column 2,is_stmt
     911 000158 ED04          MOV dbl(*SP(#2)), XAR3
         00015a BF   
     912 00015b B463          AMAR *AR3+
     913 00015d EB04          MOV XAR3, dbl(*SP(#2))
         00015f B5   
     914                      .dwpsn  file "../FreeRTOS/Source/portable/CCS/c55x/port.c",line 420,column 2,is_stmt
     915 000160 E661          MOV #0, *AR3 ; |420| 
         000162 00   
     916                      .dwpsn  file "../FreeRTOS/Source/portable/CCS/c55x/port.c",line 421,column 3,is_stmt
     917 000163 ED04          MOV dbl(*SP(#2)), XAR3
         000165 BF   
     918 000166 B463          AMAR *AR3+
     919 000168 EB04          MOV XAR3, dbl(*SP(#2))
         00016a B5   
     920                      .dwpsn  file "../FreeRTOS/Source/portable/CCS/c55x/port.c",line 427,column 2,is_stmt
     921 00016b ED00          MOV dbl(*SP(#0)), XAR3
         00016d BF   
     922 00016e A90A          MOV *SP(#5), AR1 ; |427| 
     923 000170 C961          MOV AR1, *AR3 ; |427| 
     924                      .dwpsn  file "../FreeRTOS/Source/portable/CCS/c55x/port.c",line 428,column 3,is_stmt
     925 000172 ED00          MOV dbl(*SP(#0)), XAR3
         000174 BF   
     926 000175 B463          AMAR *AR3+
     927 000177 EB00          MOV XAR3, dbl(*SP(#0))
         000179 B5   
     928                      .dwpsn  file "../FreeRTOS/Source/portable/CCS/c55x/port.c",line 433,column 2,is_stmt
     929 00017a A931          MOV *(#3), AR1 ; |433| 
         00017c 0000 
         00017e 03   
     930 00017f C961          MOV AR1, *AR3 ; |433| 
     931                      .dwpsn  file "../FreeRTOS/Source/portable/CCS/c55x/port.c",line 434,column 2,is_stmt
     932 000181 ED00          MOV dbl(*SP(#0)), XAR3
         000183 BF   
     933 000184 B463          AMAR *AR3+
     934 000186 EB00          MOV XAR3, dbl(*SP(#0))
         000188 B5   
     935                      .dwpsn  file "../FreeRTOS/Source/portable/CCS/c55x/port.c",line 444,column 2,is_stmt
     936 000189 ED04          MOV dbl(*SP(#2)), XAR3
         00018b BF   
TMS320C55x Assembler PC v4.4.1 Thu Oct 04 22:26:44 2018

Tools Copyright (c) 1996-2012 Texas Instruments Incorporated
port.asm                                                             PAGE   21

     937 00018c A931          MOV *(#2), AR1 ; |444| 
         00018e 0000 
         000190 02   
     938 000191 C961          MOV AR1, *AR3 ; |444| 
     939                      .dwpsn  file "../FreeRTOS/Source/portable/CCS/c55x/port.c",line 445,column 4,is_stmt
     940 000193 ED04          MOV dbl(*SP(#2)), XAR3
         000195 BF   
     941 000196 B463          AMAR *AR3+
     942 000198 EB04          MOV XAR3, dbl(*SP(#2))
         00019a B5   
     943                      .dwpsn  file "../FreeRTOS/Source/portable/CCS/c55x/port.c",line 446,column 6,is_stmt
     944 00019b A931          MOV *(#_stack_check_word), AR1 ; |446| 
         00019d 0000 
         00019f 2B-  
     945 0001a0 C961          MOV AR1, *AR3 ; |446| 
     946                      .dwpsn  file "../FreeRTOS/Source/portable/CCS/c55x/port.c",line 450,column 2,is_stmt
     947 0001a2 ED00          MOV dbl(*SP(#0)), XAR3
         0001a4 BF   
     948 0001a5 A931          MOV *(#75), AR1 ; |450| 
         0001a7 0000 
         0001a9 4B   
     949 0001aa C961          MOV AR1, *AR3 ; |450| 
     950                      .dwpsn  file "../FreeRTOS/Source/portable/CCS/c55x/port.c",line 451,column 3,is_stmt
     951 0001ac ED00          MOV dbl(*SP(#0)), XAR3
         0001ae BF   
     952 0001af B463          AMAR *AR3+
     953 0001b1 EB00          MOV XAR3, dbl(*SP(#0))
         0001b3 B5   
     954                      .dwpsn  file "../FreeRTOS/Source/portable/CCS/c55x/port.c",line 452,column 2,is_stmt
     955 0001b4 A931          MOV *(#_stack_check_word), AR1 ; |452| 
         0001b6 0000 
         0001b8 2B-  
     956 0001b9 C961          MOV AR1, *AR3 ; |452| 
     957                      .dwpsn  file "../FreeRTOS/Source/portable/CCS/c55x/port.c",line 455,column 2,is_stmt
     958 0001bb ED31          MOV dbl(*(#_stackStruct)), XAR2
         0001bd AF00 
         0001bf 0000!
     959 0001c1 ED00          MOV dbl(*SP(#0)), XAR3
         0001c3 BF   
     960 0001c4 EB41          MOV XAR3, dbl(*AR2)
         0001c6 B5   
     961                      .dwpsn  file "../FreeRTOS/Source/portable/CCS/c55x/port.c",line 456,column 2,is_stmt
     962 0001c7 ED31          MOV dbl(*(#_stackStruct)), XAR3
         0001c9 BF00 
         0001cb 0000!
     963 0001cd ED04          MOV dbl(*SP(#2)), XAR2
         0001cf AF   
     964 0001d0 EB75          MOV XAR2, dbl(*AR3(short(#2)))
         0001d2 A5   
     965                      .dwpsn  file "../FreeRTOS/Source/portable/CCS/c55x/port.c",line 463,column 1,is_stmt
     966 0001d3 4E09          AADD #9, SP
     967                      .dwcfi  cfa_offset, 1
     968              $C$DW$58        .dwtag  DW_TAG_TI_branch
     969                      .dwattr $C$DW$58, DW_AT_low_pc(0x00)
     970                      .dwattr $C$DW$58, DW_AT_TI_return
TMS320C55x Assembler PC v4.4.1 Thu Oct 04 22:26:44 2018

Tools Copyright (c) 1996-2012 Texas Instruments Incorporated
port.asm                                                             PAGE   22

     971 0001d5 4804          RET
     972                                                      ; return occurs
     973                      .dwattr $C$DW$49, DW_AT_TI_end_file("../FreeRTOS/Source/portable/CCS/c55x/port.c")
     974                      .dwattr $C$DW$49, DW_AT_TI_end_line(0x1cf)
     975                      .dwattr $C$DW$49, DW_AT_TI_end_column(0x01)
     976                      .dwendentry
     977                      .dwendtag $C$DW$49
     978              
     979 0001d7               .sect   ".text"
     980                      .align 4
     981                      .global _vPortEndScheduler
     982              
     983              $C$DW$59        .dwtag  DW_TAG_subprogram, DW_AT_name("vPortEndScheduler")
     984                      .dwattr $C$DW$59, DW_AT_low_pc(_vPortEndScheduler)
     985                      .dwattr $C$DW$59, DW_AT_high_pc(0x00)
     986                      .dwattr $C$DW$59, DW_AT_TI_symbol_name("_vPortEndScheduler")
     987                      .dwattr $C$DW$59, DW_AT_external
     988                      .dwattr $C$DW$59, DW_AT_TI_begin_file("../FreeRTOS/Source/portable/CCS/c55x/port.c")
     989                      .dwattr $C$DW$59, DW_AT_TI_begin_line(0x1e0)
     990                      .dwattr $C$DW$59, DW_AT_TI_begin_column(0x06)
     991                      .dwattr $C$DW$59, DW_AT_TI_max_frame_size(0x01)
     992                      .dwpsn  file "../FreeRTOS/Source/portable/CCS/c55x/port.c",line 481,column 1,is_stmt,address _vPortEn
     993              
     994                      .dwfde $C$DW$CIE, _vPortEndScheduler
     995              ;*******************************************************************************
     996              ;* FUNCTION NAME: vPortEndScheduler                                            *
     997              ;*                                                                             *
     998              ;*   Function Uses Regs : SP,M40,SATA,SATD,RDM,FRCT,SMUL                       *
     999              ;*   Stack Frame        : Compact (No Frame Pointer, w/ debug)                 *
    1000              ;*   Total Frame Size   : 1 word                                               *
    1001              ;*                        (1 return address/alignment)                         *
    1002              ;*   Min System Stack   : 1 word                                               *
    1003              ;*******************************************************************************
    1004 0001d8       _vPortEndScheduler:
    1005                      .dwcfi  cfa_offset, 1
    1006                      .dwcfi  save_reg_to_mem, 91, -1
    1007                      .dwpsn  file "../FreeRTOS/Source/portable/CCS/c55x/port.c",line 484,column 9,is_stmt
    1008 0001d8       $C$L1:    
    1009 0001d8       $C$DW$L$_vPortEndScheduler$2$B:
    1010 0001d8 4A7E          B $C$L1   ; |484| 
    1011                                                      ; branch occurs ; |484| 
    1012              $C$DW$L$_vPortEndScheduler$2$E:
    1013              
    1014              $C$DW$60        .dwtag  DW_TAG_TI_loop
    1015                      .dwattr $C$DW$60, DW_AT_name("F:\eZdsp-DBG-sim\tmp1\c55x-sim2\foo\Debug\port.asm:$C$L1:1:1538717204")
    1016                      .dwattr $C$DW$60, DW_AT_TI_begin_file("../FreeRTOS/Source/portable/CCS/c55x/port.c")
    1017                      .dwattr $C$DW$60, DW_AT_TI_begin_line(0x1e4)
    1018                      .dwattr $C$DW$60, DW_AT_TI_end_line(0x1e4)
    1019              $C$DW$61        .dwtag  DW_TAG_TI_loop_range
    1020                      .dwattr $C$DW$61, DW_AT_low_pc($C$DW$L$_vPortEndScheduler$2$B)
    1021                      .dwattr $C$DW$61, DW_AT_high_pc($C$DW$L$_vPortEndScheduler$2$E)
    1022                      .dwendtag $C$DW$60
    1023              
    1024                      .dwattr $C$DW$59, DW_AT_TI_end_file("../FreeRTOS/Source/portable/CCS/c55x/port.c")
    1025                      .dwattr $C$DW$59, DW_AT_TI_end_line(0x1e5)
TMS320C55x Assembler PC v4.4.1 Thu Oct 04 22:26:44 2018

Tools Copyright (c) 1996-2012 Texas Instruments Incorporated
port.asm                                                             PAGE   23

    1026                      .dwattr $C$DW$59, DW_AT_TI_end_column(0x01)
    1027                      .dwendentry
    1028                      .dwendtag $C$DW$59
    1029              
    1030 0001da               .sect   ".text"
    1031                      .align 4
    1032                      .global _prvSetupTimerInterrupt
    1033              
    1034              $C$DW$62        .dwtag  DW_TAG_subprogram, DW_AT_name("prvSetupTimerInterrupt")
    1035                      .dwattr $C$DW$62, DW_AT_low_pc(_prvSetupTimerInterrupt)
    1036                      .dwattr $C$DW$62, DW_AT_high_pc(0x00)
    1037                      .dwattr $C$DW$62, DW_AT_TI_symbol_name("_prvSetupTimerInterrupt")
    1038                      .dwattr $C$DW$62, DW_AT_external
    1039                      .dwattr $C$DW$62, DW_AT_TI_begin_file("../FreeRTOS/Source/portable/CCS/c55x/port.c")
    1040                      .dwattr $C$DW$62, DW_AT_TI_begin_line(0x20d)
    1041                      .dwattr $C$DW$62, DW_AT_TI_begin_column(0x06)
    1042                      .dwattr $C$DW$62, DW_AT_TI_max_frame_size(0x02)
    1043                      .dwpsn  file "../FreeRTOS/Source/portable/CCS/c55x/port.c",line 526,column 1,is_stmt,address _prvSetu
    1044              
    1045                      .dwfde $C$DW$CIE, _prvSetupTimerInterrupt
    1046              ;*******************************************************************************
    1047              ;* FUNCTION NAME: prvSetupTimerInterrupt                                       *
    1048              ;*                                                                             *
    1049              ;*   Function Uses Regs : SP,M40,SATA,SATD,RDM,FRCT,SMUL                       *
    1050              ;*   Stack Frame        : Compact (No Frame Pointer, w/ debug)                 *
    1051              ;*   Total Frame Size   : 2 words                                              *
    1052              ;*                        (2 return address/alignment)                         *
    1053              ;*   Min System Stack   : 1 word                                               *
    1054              ;*******************************************************************************
    1055 0001dc       _prvSetupTimerInterrupt:
    1056                      .dwcfi  cfa_offset, 1
    1057                      .dwcfi  save_reg_to_mem, 91, -1
    1058 0001dc 4EFF          AADD #-1, SP
    1059                      .dwcfi  cfa_offset, 2
    1060                      .dwpsn  file "../FreeRTOS/Source/portable/CCS/c55x/port.c",line 552,column 2,is_stmt
    1061              $C$DW$63        .dwtag  DW_TAG_TI_branch
    1062                      .dwattr $C$DW$63, DW_AT_low_pc(0x00)
    1063                      .dwattr $C$DW$63, DW_AT_name("_Timer0Init")
    1064                      .dwattr $C$DW$63, DW_AT_TI_call
    1065 0001de 6C00          CALL #_Timer0Init ; |552| 
         0001e0 0000!
    1066                                                      ; call occurs [#_Timer0Init] ; |552| 
    1067                      .dwpsn  file "../FreeRTOS/Source/portable/CCS/c55x/port.c",line 553,column 5,is_stmt
    1068 0001e2 E631          MOV #16, *(#0) ; |553| 
         0001e4 1000 
         0001e6 0000 
    1069                      .dwpsn  file "../FreeRTOS/Source/portable/CCS/c55x/port.c",line 554,column 5,is_stmt
    1070 0001e8 E631          MOV #16, *(#71) ; |554| 
         0001ea 1000 
         0001ec 0047 
    1071                      .dwpsn  file "../FreeRTOS/Source/portable/CCS/c55x/port.c",line 555,column 2,is_stmt
    1072              $C$DW$64        .dwtag  DW_TAG_TI_branch
    1073                      .dwattr $C$DW$64, DW_AT_low_pc(0x00)
    1074                      .dwattr $C$DW$64, DW_AT_name("_StartTimer0")
    1075                      .dwattr $C$DW$64, DW_AT_TI_call
TMS320C55x Assembler PC v4.4.1 Thu Oct 04 22:26:44 2018

Tools Copyright (c) 1996-2012 Texas Instruments Incorporated
port.asm                                                             PAGE   24

    1076 0001ee 6C00          CALL #_StartTimer0 ; |555| 
         0001f0 0000!
    1077                                                      ; call occurs [#_StartTimer0] ; |555| 
    1078                      .dwpsn  file "../FreeRTOS/Source/portable/CCS/c55x/port.c",line 563,column 1,is_stmt
    1079 0001f2 4E01          AADD #1, SP
    1080                      .dwcfi  cfa_offset, 1
    1081              $C$DW$65        .dwtag  DW_TAG_TI_branch
    1082                      .dwattr $C$DW$65, DW_AT_low_pc(0x00)
    1083                      .dwattr $C$DW$65, DW_AT_TI_return
    1084 0001f4 4804          RET
    1085                                                      ; return occurs
    1086                      .dwattr $C$DW$62, DW_AT_TI_end_file("../FreeRTOS/Source/portable/CCS/c55x/port.c")
    1087                      .dwattr $C$DW$62, DW_AT_TI_end_line(0x233)
    1088                      .dwattr $C$DW$62, DW_AT_TI_end_column(0x01)
    1089                      .dwendentry
    1090                      .dwendtag $C$DW$62
    1091              
    1092              ;******************************************************************************
    1093              ;* UNDEFINED EXTERNAL REFERENCES                                              *
    1094              ;******************************************************************************
    1095                      .global _Timer0Init
    1096                      .global _StartTimer0
    1097                      .global _stackStruct
    1098              
    1099              ;*******************************************************************************
    1100              ;* TYPE INFORMATION                                                            *
    1101              ;*******************************************************************************
    1102              $C$DW$T$3       .dwtag  DW_TAG_pointer_type
    1103                      .dwattr $C$DW$T$3, DW_AT_address_class(0x17)
    1104              
    1105              $C$DW$T$24      .dwtag  DW_TAG_subroutine_type
    1106                      .dwattr $C$DW$T$24, DW_AT_language(DW_LANG_C)
    1107              $C$DW$66        .dwtag  DW_TAG_formal_parameter
    1108                      .dwattr $C$DW$66, DW_AT_type(*$C$DW$T$3)
    1109                      .dwendtag $C$DW$T$24
    1110              
    1111              $C$DW$T$25      .dwtag  DW_TAG_pointer_type
    1112                      .dwattr $C$DW$T$25, DW_AT_type(*$C$DW$T$24)
    1113                      .dwattr $C$DW$T$25, DW_AT_address_class(0x20)
    1114              $C$DW$T$26      .dwtag  DW_TAG_typedef, DW_AT_name("TaskFunction_t")
    1115                      .dwattr $C$DW$T$26, DW_AT_type(*$C$DW$T$25)
    1116                      .dwattr $C$DW$T$26, DW_AT_language(DW_LANG_C)
    1117              $C$DW$T$28      .dwtag  DW_TAG_typedef, DW_AT_name("tskTCB")
    1118                      .dwattr $C$DW$T$28, DW_AT_language(DW_LANG_C)
    1119              $C$DW$67        .dwtag  DW_TAG_TI_far_type
    1120              $C$DW$T$29      .dwtag  DW_TAG_volatile_type
    1121                      .dwattr $C$DW$T$29, DW_AT_type(*$C$DW$67)
    1122              $C$DW$T$30      .dwtag  DW_TAG_pointer_type
    1123                      .dwattr $C$DW$T$30, DW_AT_type(*$C$DW$T$29)
    1124                      .dwattr $C$DW$T$30, DW_AT_address_class(0x17)
    1125              $C$DW$68        .dwtag  DW_TAG_TI_far_type
    1126                      .dwattr $C$DW$68, DW_AT_type(*$C$DW$T$30)
    1127              $C$DW$T$31      .dwtag  DW_TAG_volatile_type
    1128                      .dwattr $C$DW$T$31, DW_AT_type(*$C$DW$68)
    1129              $C$DW$T$4       .dwtag  DW_TAG_base_type
TMS320C55x Assembler PC v4.4.1 Thu Oct 04 22:26:44 2018

Tools Copyright (c) 1996-2012 Texas Instruments Incorporated
port.asm                                                             PAGE   25

    1130                      .dwattr $C$DW$T$4, DW_AT_encoding(DW_ATE_boolean)
    1131                      .dwattr $C$DW$T$4, DW_AT_name("bool")
    1132                      .dwattr $C$DW$T$4, DW_AT_byte_size(0x01)
    1133              $C$DW$T$5       .dwtag  DW_TAG_base_type
    1134                      .dwattr $C$DW$T$5, DW_AT_encoding(DW_ATE_signed_char)
    1135                      .dwattr $C$DW$T$5, DW_AT_name("signed char")
    1136                      .dwattr $C$DW$T$5, DW_AT_byte_size(0x01)
    1137              $C$DW$T$6       .dwtag  DW_TAG_base_type
    1138                      .dwattr $C$DW$T$6, DW_AT_encoding(DW_ATE_unsigned_char)
    1139                      .dwattr $C$DW$T$6, DW_AT_name("unsigned char")
    1140                      .dwattr $C$DW$T$6, DW_AT_byte_size(0x01)
    1141              $C$DW$T$7       .dwtag  DW_TAG_base_type
    1142                      .dwattr $C$DW$T$7, DW_AT_encoding(DW_ATE_signed_char)
    1143                      .dwattr $C$DW$T$7, DW_AT_name("wchar_t")
    1144                      .dwattr $C$DW$T$7, DW_AT_byte_size(0x01)
    1145              $C$DW$T$8       .dwtag  DW_TAG_base_type
    1146                      .dwattr $C$DW$T$8, DW_AT_encoding(DW_ATE_signed)
    1147                      .dwattr $C$DW$T$8, DW_AT_name("short")
    1148                      .dwattr $C$DW$T$8, DW_AT_byte_size(0x01)
    1149              $C$DW$T$9       .dwtag  DW_TAG_base_type
    1150                      .dwattr $C$DW$T$9, DW_AT_encoding(DW_ATE_unsigned)
    1151                      .dwattr $C$DW$T$9, DW_AT_name("unsigned short")
    1152                      .dwattr $C$DW$T$9, DW_AT_byte_size(0x01)
    1153              $C$DW$69        .dwtag  DW_TAG_TI_far_type
    1154                      .dwattr $C$DW$69, DW_AT_type(*$C$DW$T$9)
    1155              $C$DW$T$32      .dwtag  DW_TAG_volatile_type
    1156                      .dwattr $C$DW$T$32, DW_AT_type(*$C$DW$69)
    1157              $C$DW$T$10      .dwtag  DW_TAG_base_type
    1158                      .dwattr $C$DW$T$10, DW_AT_encoding(DW_ATE_signed)
    1159                      .dwattr $C$DW$T$10, DW_AT_name("int")
    1160                      .dwattr $C$DW$T$10, DW_AT_byte_size(0x01)
    1161              $C$DW$T$11      .dwtag  DW_TAG_base_type
    1162                      .dwattr $C$DW$T$11, DW_AT_encoding(DW_ATE_unsigned)
    1163                      .dwattr $C$DW$T$11, DW_AT_name("unsigned int")
    1164                      .dwattr $C$DW$T$11, DW_AT_byte_size(0x01)
    1165              $C$DW$T$19      .dwtag  DW_TAG_typedef, DW_AT_name("StackType_t")
    1166                      .dwattr $C$DW$T$19, DW_AT_type(*$C$DW$T$11)
    1167                      .dwattr $C$DW$T$19, DW_AT_language(DW_LANG_C)
    1168              $C$DW$T$20      .dwtag  DW_TAG_pointer_type
    1169                      .dwattr $C$DW$T$20, DW_AT_type(*$C$DW$T$19)
    1170                      .dwattr $C$DW$T$20, DW_AT_address_class(0x17)
    1171              $C$DW$70        .dwtag  DW_TAG_TI_far_type
    1172                      .dwattr $C$DW$70, DW_AT_type(*$C$DW$T$11)
    1173              $C$DW$T$33      .dwtag  DW_TAG_volatile_type
    1174                      .dwattr $C$DW$T$33, DW_AT_type(*$C$DW$70)
    1175              $C$DW$T$12      .dwtag  DW_TAG_base_type
    1176                      .dwattr $C$DW$T$12, DW_AT_encoding(DW_ATE_signed)
    1177                      .dwattr $C$DW$T$12, DW_AT_name("long")
    1178                      .dwattr $C$DW$T$12, DW_AT_byte_size(0x02)
    1179              $C$DW$T$13      .dwtag  DW_TAG_base_type
    1180                      .dwattr $C$DW$T$13, DW_AT_encoding(DW_ATE_unsigned)
    1181                      .dwattr $C$DW$T$13, DW_AT_name("unsigned long")
    1182                      .dwattr $C$DW$T$13, DW_AT_byte_size(0x02)
    1183              $C$DW$71        .dwtag  DW_TAG_TI_far_type
    1184                      .dwattr $C$DW$71, DW_AT_type(*$C$DW$T$13)
TMS320C55x Assembler PC v4.4.1 Thu Oct 04 22:26:44 2018

Tools Copyright (c) 1996-2012 Texas Instruments Incorporated
port.asm                                                             PAGE   26

    1185              $C$DW$T$35      .dwtag  DW_TAG_volatile_type
    1186                      .dwattr $C$DW$T$35, DW_AT_type(*$C$DW$71)
    1187              $C$DW$T$14      .dwtag  DW_TAG_base_type
    1188                      .dwattr $C$DW$T$14, DW_AT_encoding(DW_ATE_signed)
    1189                      .dwattr $C$DW$T$14, DW_AT_name("long long")
    1190                      .dwattr $C$DW$T$14, DW_AT_byte_size(0x04)
    1191                      .dwattr $C$DW$T$14, DW_AT_bit_size(0x28)
    1192                      .dwattr $C$DW$T$14, DW_AT_bit_offset(0x18)
    1193              $C$DW$T$15      .dwtag  DW_TAG_base_type
    1194                      .dwattr $C$DW$T$15, DW_AT_encoding(DW_ATE_unsigned)
    1195                      .dwattr $C$DW$T$15, DW_AT_name("unsigned long long")
    1196                      .dwattr $C$DW$T$15, DW_AT_byte_size(0x04)
    1197                      .dwattr $C$DW$T$15, DW_AT_bit_size(0x28)
    1198                      .dwattr $C$DW$T$15, DW_AT_bit_offset(0x18)
    1199              $C$DW$T$16      .dwtag  DW_TAG_base_type
    1200                      .dwattr $C$DW$T$16, DW_AT_encoding(DW_ATE_float)
    1201                      .dwattr $C$DW$T$16, DW_AT_name("float")
    1202                      .dwattr $C$DW$T$16, DW_AT_byte_size(0x02)
    1203              $C$DW$T$17      .dwtag  DW_TAG_base_type
    1204                      .dwattr $C$DW$T$17, DW_AT_encoding(DW_ATE_float)
    1205                      .dwattr $C$DW$T$17, DW_AT_name("double")
    1206                      .dwattr $C$DW$T$17, DW_AT_byte_size(0x02)
    1207              $C$DW$T$18      .dwtag  DW_TAG_base_type
    1208                      .dwattr $C$DW$T$18, DW_AT_encoding(DW_ATE_float)
    1209                      .dwattr $C$DW$T$18, DW_AT_name("long double")
    1210                      .dwattr $C$DW$T$18, DW_AT_byte_size(0x02)
    1211              
    1212              $C$DW$T$21      .dwtag  DW_TAG_structure_type
    1213                      .dwattr $C$DW$T$21, DW_AT_name("tagSTACKSTRUCT")
    1214                      .dwattr $C$DW$T$21, DW_AT_byte_size(0x04)
    1215              $C$DW$72        .dwtag  DW_TAG_member
    1216                      .dwattr $C$DW$72, DW_AT_type(*$C$DW$T$20)
    1217                      .dwattr $C$DW$72, DW_AT_name("pxTopOfStack")
    1218                      .dwattr $C$DW$72, DW_AT_TI_symbol_name("_pxTopOfStack")
    1219                      .dwattr $C$DW$72, DW_AT_data_member_location[DW_OP_plus_uconst 0x0]
    1220                      .dwattr $C$DW$72, DW_AT_accessibility(DW_ACCESS_public)
    1221              $C$DW$73        .dwtag  DW_TAG_member
    1222                      .dwattr $C$DW$73, DW_AT_type(*$C$DW$T$20)
    1223                      .dwattr $C$DW$73, DW_AT_name("pxTopOfSysStack")
    1224                      .dwattr $C$DW$73, DW_AT_TI_symbol_name("_pxTopOfSysStack")
    1225                      .dwattr $C$DW$73, DW_AT_data_member_location[DW_OP_plus_uconst 0x2]
    1226                      .dwattr $C$DW$73, DW_AT_accessibility(DW_ACCESS_public)
    1227                      .dwendtag $C$DW$T$21
    1228              
    1229              $C$DW$T$36      .dwtag  DW_TAG_pointer_type
    1230                      .dwattr $C$DW$T$36, DW_AT_type(*$C$DW$T$21)
    1231                      .dwattr $C$DW$T$36, DW_AT_address_class(0x17)
    1232                      .dwattr $C$DW$CU, DW_AT_language(DW_LANG_C)
    1233              
    1234              ;***************************************************************
    1235              ;* DWARF CIE ENTRIES                                           *
    1236              ;***************************************************************
    1237              
    1238              $C$DW$CIE       .dwcie 91
    1239                      .dwcfi  cfa_register, 36
TMS320C55x Assembler PC v4.4.1 Thu Oct 04 22:26:44 2018

Tools Copyright (c) 1996-2012 Texas Instruments Incorporated
port.asm                                                             PAGE   27

    1240                      .dwcfi  cfa_offset, 0
    1241                      .dwcfi  undefined, 0
    1242                      .dwcfi  undefined, 1
    1243                      .dwcfi  undefined, 2
    1244                      .dwcfi  undefined, 3
    1245                      .dwcfi  undefined, 4
    1246                      .dwcfi  undefined, 5
    1247                      .dwcfi  undefined, 6
    1248                      .dwcfi  undefined, 7
    1249                      .dwcfi  undefined, 8
    1250                      .dwcfi  undefined, 9
    1251                      .dwcfi  undefined, 10
    1252                      .dwcfi  undefined, 11
    1253                      .dwcfi  undefined, 12
    1254                      .dwcfi  undefined, 13
    1255                      .dwcfi  same_value, 14
    1256                      .dwcfi  same_value, 15
    1257                      .dwcfi  undefined, 16
    1258                      .dwcfi  undefined, 17
    1259                      .dwcfi  undefined, 18
    1260                      .dwcfi  undefined, 19
    1261                      .dwcfi  undefined, 20
    1262                      .dwcfi  undefined, 21
    1263                      .dwcfi  undefined, 22
    1264                      .dwcfi  undefined, 23
    1265                      .dwcfi  undefined, 24
    1266                      .dwcfi  undefined, 25
    1267                      .dwcfi  same_value, 26
    1268                      .dwcfi  same_value, 27
    1269                      .dwcfi  same_value, 28
    1270                      .dwcfi  same_value, 29
    1271                      .dwcfi  same_value, 30
    1272                      .dwcfi  same_value, 31
    1273                      .dwcfi  undefined, 32
    1274                      .dwcfi  undefined, 33
    1275                      .dwcfi  undefined, 34
    1276                      .dwcfi  undefined, 35
    1277                      .dwcfi  undefined, 36
    1278                      .dwcfi  undefined, 37
    1279                      .dwcfi  undefined, 38
    1280                      .dwcfi  undefined, 39
    1281                      .dwcfi  undefined, 40
    1282                      .dwcfi  undefined, 41
    1283                      .dwcfi  undefined, 42
    1284                      .dwcfi  undefined, 43
    1285                      .dwcfi  undefined, 44
    1286                      .dwcfi  undefined, 45
    1287                      .dwcfi  undefined, 46
    1288                      .dwcfi  undefined, 47
    1289                      .dwcfi  undefined, 48
    1290                      .dwcfi  undefined, 49
    1291                      .dwcfi  undefined, 50
    1292                      .dwcfi  undefined, 51
    1293                      .dwcfi  undefined, 52
    1294                      .dwcfi  undefined, 53
TMS320C55x Assembler PC v4.4.1 Thu Oct 04 22:26:44 2018

Tools Copyright (c) 1996-2012 Texas Instruments Incorporated
port.asm                                                             PAGE   28

    1295                      .dwcfi  undefined, 54
    1296                      .dwcfi  undefined, 55
    1297                      .dwcfi  undefined, 56
    1298                      .dwcfi  undefined, 57
    1299                      .dwcfi  undefined, 58
    1300                      .dwcfi  undefined, 59
    1301                      .dwcfi  undefined, 60
    1302                      .dwcfi  undefined, 61
    1303                      .dwcfi  undefined, 62
    1304                      .dwcfi  undefined, 63
    1305                      .dwcfi  undefined, 64
    1306                      .dwcfi  undefined, 65
    1307                      .dwcfi  undefined, 66
    1308                      .dwcfi  undefined, 67
    1309                      .dwcfi  undefined, 68
    1310                      .dwcfi  undefined, 69
    1311                      .dwcfi  undefined, 70
    1312                      .dwcfi  undefined, 71
    1313                      .dwcfi  undefined, 72
    1314                      .dwcfi  undefined, 73
    1315                      .dwcfi  undefined, 74
    1316                      .dwcfi  undefined, 75
    1317                      .dwcfi  undefined, 76
    1318                      .dwcfi  undefined, 77
    1319                      .dwcfi  undefined, 78
    1320                      .dwcfi  undefined, 79
    1321                      .dwcfi  undefined, 80
    1322                      .dwcfi  undefined, 81
    1323                      .dwcfi  undefined, 82
    1324                      .dwcfi  undefined, 83
    1325                      .dwcfi  undefined, 84
    1326                      .dwcfi  undefined, 85
    1327                      .dwcfi  undefined, 86
    1328                      .dwcfi  undefined, 87
    1329                      .dwcfi  undefined, 88
    1330                      .dwcfi  undefined, 89
    1331                      .dwcfi  undefined, 90
    1332                      .dwcfi  undefined, 91
    1333                      .dwendentry
    1334              
    1335              ;***************************************************************
    1336              ;* DWARF REGISTER MAP                                          *
    1337              ;***************************************************************
    1338              
    1339              $C$DW$74        .dwtag  DW_TAG_TI_assign_register, DW_AT_name("AC0")
    1340                      .dwattr $C$DW$74, DW_AT_location[DW_OP_reg0]
    1341              $C$DW$75        .dwtag  DW_TAG_TI_assign_register, DW_AT_name("AC0")
    1342                      .dwattr $C$DW$75, DW_AT_location[DW_OP_reg1]
    1343              $C$DW$76        .dwtag  DW_TAG_TI_assign_register, DW_AT_name("AC0_G")
    1344                      .dwattr $C$DW$76, DW_AT_location[DW_OP_reg2]
    1345              $C$DW$77        .dwtag  DW_TAG_TI_assign_register, DW_AT_name("AC1")
    1346                      .dwattr $C$DW$77, DW_AT_location[DW_OP_reg3]
    1347              $C$DW$78        .dwtag  DW_TAG_TI_assign_register, DW_AT_name("AC1")
    1348                      .dwattr $C$DW$78, DW_AT_location[DW_OP_reg4]
    1349              $C$DW$79        .dwtag  DW_TAG_TI_assign_register, DW_AT_name("AC1_G")
TMS320C55x Assembler PC v4.4.1 Thu Oct 04 22:26:44 2018

Tools Copyright (c) 1996-2012 Texas Instruments Incorporated
port.asm                                                             PAGE   29

    1350                      .dwattr $C$DW$79, DW_AT_location[DW_OP_reg5]
    1351              $C$DW$80        .dwtag  DW_TAG_TI_assign_register, DW_AT_name("AC2")
    1352                      .dwattr $C$DW$80, DW_AT_location[DW_OP_reg6]
    1353              $C$DW$81        .dwtag  DW_TAG_TI_assign_register, DW_AT_name("AC2")
    1354                      .dwattr $C$DW$81, DW_AT_location[DW_OP_reg7]
    1355              $C$DW$82        .dwtag  DW_TAG_TI_assign_register, DW_AT_name("AC2_G")
    1356                      .dwattr $C$DW$82, DW_AT_location[DW_OP_reg8]
    1357              $C$DW$83        .dwtag  DW_TAG_TI_assign_register, DW_AT_name("AC3")
    1358                      .dwattr $C$DW$83, DW_AT_location[DW_OP_reg9]
    1359              $C$DW$84        .dwtag  DW_TAG_TI_assign_register, DW_AT_name("AC3")
    1360                      .dwattr $C$DW$84, DW_AT_location[DW_OP_reg10]
    1361              $C$DW$85        .dwtag  DW_TAG_TI_assign_register, DW_AT_name("AC3_G")
    1362                      .dwattr $C$DW$85, DW_AT_location[DW_OP_reg11]
    1363              $C$DW$86        .dwtag  DW_TAG_TI_assign_register, DW_AT_name("T0")
    1364                      .dwattr $C$DW$86, DW_AT_location[DW_OP_reg12]
    1365              $C$DW$87        .dwtag  DW_TAG_TI_assign_register, DW_AT_name("T1")
    1366                      .dwattr $C$DW$87, DW_AT_location[DW_OP_reg13]
    1367              $C$DW$88        .dwtag  DW_TAG_TI_assign_register, DW_AT_name("T2")
    1368                      .dwattr $C$DW$88, DW_AT_location[DW_OP_reg14]
    1369              $C$DW$89        .dwtag  DW_TAG_TI_assign_register, DW_AT_name("T3")
    1370                      .dwattr $C$DW$89, DW_AT_location[DW_OP_reg15]
    1371              $C$DW$90        .dwtag  DW_TAG_TI_assign_register, DW_AT_name("AR0")
    1372                      .dwattr $C$DW$90, DW_AT_location[DW_OP_reg16]
    1373              $C$DW$91        .dwtag  DW_TAG_TI_assign_register, DW_AT_name("XAR0")
    1374                      .dwattr $C$DW$91, DW_AT_location[DW_OP_reg17]
    1375              $C$DW$92        .dwtag  DW_TAG_TI_assign_register, DW_AT_name("AR1")
    1376                      .dwattr $C$DW$92, DW_AT_location[DW_OP_reg18]
    1377              $C$DW$93        .dwtag  DW_TAG_TI_assign_register, DW_AT_name("XAR1")
    1378                      .dwattr $C$DW$93, DW_AT_location[DW_OP_reg19]
    1379              $C$DW$94        .dwtag  DW_TAG_TI_assign_register, DW_AT_name("AR2")
    1380                      .dwattr $C$DW$94, DW_AT_location[DW_OP_reg20]
    1381              $C$DW$95        .dwtag  DW_TAG_TI_assign_register, DW_AT_name("XAR2")
    1382                      .dwattr $C$DW$95, DW_AT_location[DW_OP_reg21]
    1383              $C$DW$96        .dwtag  DW_TAG_TI_assign_register, DW_AT_name("AR3")
    1384                      .dwattr $C$DW$96, DW_AT_location[DW_OP_reg22]
    1385              $C$DW$97        .dwtag  DW_TAG_TI_assign_register, DW_AT_name("XAR3")
    1386                      .dwattr $C$DW$97, DW_AT_location[DW_OP_reg23]
    1387              $C$DW$98        .dwtag  DW_TAG_TI_assign_register, DW_AT_name("AR4")
    1388                      .dwattr $C$DW$98, DW_AT_location[DW_OP_reg24]
    1389              $C$DW$99        .dwtag  DW_TAG_TI_assign_register, DW_AT_name("XAR4")
    1390                      .dwattr $C$DW$99, DW_AT_location[DW_OP_reg25]
    1391              $C$DW$100       .dwtag  DW_TAG_TI_assign_register, DW_AT_name("AR5")
    1392                      .dwattr $C$DW$100, DW_AT_location[DW_OP_reg26]
    1393              $C$DW$101       .dwtag  DW_TAG_TI_assign_register, DW_AT_name("XAR5")
    1394                      .dwattr $C$DW$101, DW_AT_location[DW_OP_reg27]
    1395              $C$DW$102       .dwtag  DW_TAG_TI_assign_register, DW_AT_name("AR6")
    1396                      .dwattr $C$DW$102, DW_AT_location[DW_OP_reg28]
    1397              $C$DW$103       .dwtag  DW_TAG_TI_assign_register, DW_AT_name("XAR6")
    1398                      .dwattr $C$DW$103, DW_AT_location[DW_OP_reg29]
    1399              $C$DW$104       .dwtag  DW_TAG_TI_assign_register, DW_AT_name("AR7")
    1400                      .dwattr $C$DW$104, DW_AT_location[DW_OP_reg30]
    1401              $C$DW$105       .dwtag  DW_TAG_TI_assign_register, DW_AT_name("XAR7")
    1402                      .dwattr $C$DW$105, DW_AT_location[DW_OP_reg31]
    1403              $C$DW$106       .dwtag  DW_TAG_TI_assign_register, DW_AT_name("FP")
    1404                      .dwattr $C$DW$106, DW_AT_location[DW_OP_regx 0x20]
TMS320C55x Assembler PC v4.4.1 Thu Oct 04 22:26:44 2018

Tools Copyright (c) 1996-2012 Texas Instruments Incorporated
port.asm                                                             PAGE   30

    1405              $C$DW$107       .dwtag  DW_TAG_TI_assign_register, DW_AT_name("XFP")
    1406                      .dwattr $C$DW$107, DW_AT_location[DW_OP_regx 0x21]
    1407              $C$DW$108       .dwtag  DW_TAG_TI_assign_register, DW_AT_name("PC")
    1408                      .dwattr $C$DW$108, DW_AT_location[DW_OP_regx 0x22]
    1409              $C$DW$109       .dwtag  DW_TAG_TI_assign_register, DW_AT_name("SP")
    1410                      .dwattr $C$DW$109, DW_AT_location[DW_OP_regx 0x23]
    1411              $C$DW$110       .dwtag  DW_TAG_TI_assign_register, DW_AT_name("XSP")
    1412                      .dwattr $C$DW$110, DW_AT_location[DW_OP_regx 0x24]
    1413              $C$DW$111       .dwtag  DW_TAG_TI_assign_register, DW_AT_name("BKC")
    1414                      .dwattr $C$DW$111, DW_AT_location[DW_OP_regx 0x25]
    1415              $C$DW$112       .dwtag  DW_TAG_TI_assign_register, DW_AT_name("BK03")
    1416                      .dwattr $C$DW$112, DW_AT_location[DW_OP_regx 0x26]
    1417              $C$DW$113       .dwtag  DW_TAG_TI_assign_register, DW_AT_name("BK47")
    1418                      .dwattr $C$DW$113, DW_AT_location[DW_OP_regx 0x27]
    1419              $C$DW$114       .dwtag  DW_TAG_TI_assign_register, DW_AT_name("ST0")
    1420                      .dwattr $C$DW$114, DW_AT_location[DW_OP_regx 0x28]
    1421              $C$DW$115       .dwtag  DW_TAG_TI_assign_register, DW_AT_name("ST1")
    1422                      .dwattr $C$DW$115, DW_AT_location[DW_OP_regx 0x29]
    1423              $C$DW$116       .dwtag  DW_TAG_TI_assign_register, DW_AT_name("ST2")
    1424                      .dwattr $C$DW$116, DW_AT_location[DW_OP_regx 0x2a]
    1425              $C$DW$117       .dwtag  DW_TAG_TI_assign_register, DW_AT_name("ST3")
    1426                      .dwattr $C$DW$117, DW_AT_location[DW_OP_regx 0x2b]
    1427              $C$DW$118       .dwtag  DW_TAG_TI_assign_register, DW_AT_name("MDP")
    1428                      .dwattr $C$DW$118, DW_AT_location[DW_OP_regx 0x2c]
    1429              $C$DW$119       .dwtag  DW_TAG_TI_assign_register, DW_AT_name("MDP05")
    1430                      .dwattr $C$DW$119, DW_AT_location[DW_OP_regx 0x2d]
    1431              $C$DW$120       .dwtag  DW_TAG_TI_assign_register, DW_AT_name("MDP67")
    1432                      .dwattr $C$DW$120, DW_AT_location[DW_OP_regx 0x2e]
    1433              $C$DW$121       .dwtag  DW_TAG_TI_assign_register, DW_AT_name("BRC0")
    1434                      .dwattr $C$DW$121, DW_AT_location[DW_OP_regx 0x2f]
    1435              $C$DW$122       .dwtag  DW_TAG_TI_assign_register, DW_AT_name("RSA0")
    1436                      .dwattr $C$DW$122, DW_AT_location[DW_OP_regx 0x30]
    1437              $C$DW$123       .dwtag  DW_TAG_TI_assign_register, DW_AT_name("RSA0_H")
    1438                      .dwattr $C$DW$123, DW_AT_location[DW_OP_regx 0x31]
    1439              $C$DW$124       .dwtag  DW_TAG_TI_assign_register, DW_AT_name("REA0")
    1440                      .dwattr $C$DW$124, DW_AT_location[DW_OP_regx 0x32]
    1441              $C$DW$125       .dwtag  DW_TAG_TI_assign_register, DW_AT_name("REA0_H")
    1442                      .dwattr $C$DW$125, DW_AT_location[DW_OP_regx 0x33]
    1443              $C$DW$126       .dwtag  DW_TAG_TI_assign_register, DW_AT_name("BRS1")
    1444                      .dwattr $C$DW$126, DW_AT_location[DW_OP_regx 0x34]
    1445              $C$DW$127       .dwtag  DW_TAG_TI_assign_register, DW_AT_name("BRC1")
    1446                      .dwattr $C$DW$127, DW_AT_location[DW_OP_regx 0x35]
    1447              $C$DW$128       .dwtag  DW_TAG_TI_assign_register, DW_AT_name("RSA1")
    1448                      .dwattr $C$DW$128, DW_AT_location[DW_OP_regx 0x36]
    1449              $C$DW$129       .dwtag  DW_TAG_TI_assign_register, DW_AT_name("RSA1_H")
    1450                      .dwattr $C$DW$129, DW_AT_location[DW_OP_regx 0x37]
    1451              $C$DW$130       .dwtag  DW_TAG_TI_assign_register, DW_AT_name("REA1")
    1452                      .dwattr $C$DW$130, DW_AT_location[DW_OP_regx 0x38]
    1453              $C$DW$131       .dwtag  DW_TAG_TI_assign_register, DW_AT_name("REA1_H")
    1454                      .dwattr $C$DW$131, DW_AT_location[DW_OP_regx 0x39]
    1455              $C$DW$132       .dwtag  DW_TAG_TI_assign_register, DW_AT_name("CSR")
    1456                      .dwattr $C$DW$132, DW_AT_location[DW_OP_regx 0x3a]
    1457              $C$DW$133       .dwtag  DW_TAG_TI_assign_register, DW_AT_name("RPTC")
    1458                      .dwattr $C$DW$133, DW_AT_location[DW_OP_regx 0x3b]
    1459              $C$DW$134       .dwtag  DW_TAG_TI_assign_register, DW_AT_name("CDP")
TMS320C55x Assembler PC v4.4.1 Thu Oct 04 22:26:44 2018

Tools Copyright (c) 1996-2012 Texas Instruments Incorporated
port.asm                                                             PAGE   31

    1460                      .dwattr $C$DW$134, DW_AT_location[DW_OP_regx 0x3c]
    1461              $C$DW$135       .dwtag  DW_TAG_TI_assign_register, DW_AT_name("XCDP")
    1462                      .dwattr $C$DW$135, DW_AT_location[DW_OP_regx 0x3d]
    1463              $C$DW$136       .dwtag  DW_TAG_TI_assign_register, DW_AT_name("TRN0")
    1464                      .dwattr $C$DW$136, DW_AT_location[DW_OP_regx 0x3e]
    1465              $C$DW$137       .dwtag  DW_TAG_TI_assign_register, DW_AT_name("TRN1")
    1466                      .dwattr $C$DW$137, DW_AT_location[DW_OP_regx 0x3f]
    1467              $C$DW$138       .dwtag  DW_TAG_TI_assign_register, DW_AT_name("BSA01")
    1468                      .dwattr $C$DW$138, DW_AT_location[DW_OP_regx 0x40]
    1469              $C$DW$139       .dwtag  DW_TAG_TI_assign_register, DW_AT_name("BSA23")
    1470                      .dwattr $C$DW$139, DW_AT_location[DW_OP_regx 0x41]
    1471              $C$DW$140       .dwtag  DW_TAG_TI_assign_register, DW_AT_name("BSA45")
    1472                      .dwattr $C$DW$140, DW_AT_location[DW_OP_regx 0x42]
    1473              $C$DW$141       .dwtag  DW_TAG_TI_assign_register, DW_AT_name("BSA67")
    1474                      .dwattr $C$DW$141, DW_AT_location[DW_OP_regx 0x43]
    1475              $C$DW$142       .dwtag  DW_TAG_TI_assign_register, DW_AT_name("BSAC")
    1476                      .dwattr $C$DW$142, DW_AT_location[DW_OP_regx 0x44]
    1477              $C$DW$143       .dwtag  DW_TAG_TI_assign_register, DW_AT_name("CARRY")
    1478                      .dwattr $C$DW$143, DW_AT_location[DW_OP_regx 0x45]
    1479              $C$DW$144       .dwtag  DW_TAG_TI_assign_register, DW_AT_name("TC1")
    1480                      .dwattr $C$DW$144, DW_AT_location[DW_OP_regx 0x46]
    1481              $C$DW$145       .dwtag  DW_TAG_TI_assign_register, DW_AT_name("TC2")
    1482                      .dwattr $C$DW$145, DW_AT_location[DW_OP_regx 0x47]
    1483              $C$DW$146       .dwtag  DW_TAG_TI_assign_register, DW_AT_name("M40")
    1484                      .dwattr $C$DW$146, DW_AT_location[DW_OP_regx 0x48]
    1485              $C$DW$147       .dwtag  DW_TAG_TI_assign_register, DW_AT_name("SXMD")
    1486                      .dwattr $C$DW$147, DW_AT_location[DW_OP_regx 0x49]
    1487              $C$DW$148       .dwtag  DW_TAG_TI_assign_register, DW_AT_name("ARMS")
    1488                      .dwattr $C$DW$148, DW_AT_location[DW_OP_regx 0x4a]
    1489              $C$DW$149       .dwtag  DW_TAG_TI_assign_register, DW_AT_name("C54CM")
    1490                      .dwattr $C$DW$149, DW_AT_location[DW_OP_regx 0x4b]
    1491              $C$DW$150       .dwtag  DW_TAG_TI_assign_register, DW_AT_name("SATA")
    1492                      .dwattr $C$DW$150, DW_AT_location[DW_OP_regx 0x4c]
    1493              $C$DW$151       .dwtag  DW_TAG_TI_assign_register, DW_AT_name("SATD")
    1494                      .dwattr $C$DW$151, DW_AT_location[DW_OP_regx 0x4d]
    1495              $C$DW$152       .dwtag  DW_TAG_TI_assign_register, DW_AT_name("RDM")
    1496                      .dwattr $C$DW$152, DW_AT_location[DW_OP_regx 0x4e]
    1497              $C$DW$153       .dwtag  DW_TAG_TI_assign_register, DW_AT_name("FRCT")
    1498                      .dwattr $C$DW$153, DW_AT_location[DW_OP_regx 0x4f]
    1499              $C$DW$154       .dwtag  DW_TAG_TI_assign_register, DW_AT_name("SMUL")
    1500                      .dwattr $C$DW$154, DW_AT_location[DW_OP_regx 0x50]
    1501              $C$DW$155       .dwtag  DW_TAG_TI_assign_register, DW_AT_name("INTM")
    1502                      .dwattr $C$DW$155, DW_AT_location[DW_OP_regx 0x51]
    1503              $C$DW$156       .dwtag  DW_TAG_TI_assign_register, DW_AT_name("AR0LC")
    1504                      .dwattr $C$DW$156, DW_AT_location[DW_OP_regx 0x52]
    1505              $C$DW$157       .dwtag  DW_TAG_TI_assign_register, DW_AT_name("AR1LC")
    1506                      .dwattr $C$DW$157, DW_AT_location[DW_OP_regx 0x53]
    1507              $C$DW$158       .dwtag  DW_TAG_TI_assign_register, DW_AT_name("AR2LC")
    1508                      .dwattr $C$DW$158, DW_AT_location[DW_OP_regx 0x54]
    1509              $C$DW$159       .dwtag  DW_TAG_TI_assign_register, DW_AT_name("AR3LC")
    1510                      .dwattr $C$DW$159, DW_AT_location[DW_OP_regx 0x55]
    1511              $C$DW$160       .dwtag  DW_TAG_TI_assign_register, DW_AT_name("AR4LC")
    1512                      .dwattr $C$DW$160, DW_AT_location[DW_OP_regx 0x56]
    1513              $C$DW$161       .dwtag  DW_TAG_TI_assign_register, DW_AT_name("AR5LC")
    1514                      .dwattr $C$DW$161, DW_AT_location[DW_OP_regx 0x57]
TMS320C55x Assembler PC v4.4.1 Thu Oct 04 22:26:44 2018

Tools Copyright (c) 1996-2012 Texas Instruments Incorporated
port.asm                                                             PAGE   32

    1515              $C$DW$162       .dwtag  DW_TAG_TI_assign_register, DW_AT_name("AR6LC")
    1516                      .dwattr $C$DW$162, DW_AT_location[DW_OP_regx 0x58]
    1517              $C$DW$163       .dwtag  DW_TAG_TI_assign_register, DW_AT_name("AR7LC")
    1518                      .dwattr $C$DW$163, DW_AT_location[DW_OP_regx 0x59]
    1519              $C$DW$164       .dwtag  DW_TAG_TI_assign_register, DW_AT_name("CDPLC")
    1520                      .dwattr $C$DW$164, DW_AT_location[DW_OP_regx 0x5a]
    1521              $C$DW$165       .dwtag  DW_TAG_TI_assign_register, DW_AT_name("CIE_RETA")
    1522                      .dwattr $C$DW$165, DW_AT_location[DW_OP_regx 0x5b]
    1523                      .dwendtag $C$DW$CU
    1524              
    1524              
    1524              

No Assembly Errors, No Assembly Warnings
